ARM GAS  C:\Users\²Ü¼ÒºÀ\AppData\Local\Temp\cc4d6LXN.s 			page 1


   1              		.cpu cortex-m4
   2              		.eabi_attribute 27, 1
   3              		.eabi_attribute 28, 1
   4              		.eabi_attribute 20, 1
   5              		.eabi_attribute 21, 1
   6              		.eabi_attribute 23, 3
   7              		.eabi_attribute 24, 1
   8              		.eabi_attribute 25, 1
   9              		.eabi_attribute 26, 1
  10              		.eabi_attribute 30, 4
  11              		.eabi_attribute 34, 1
  12              		.eabi_attribute 18, 4
  13              		.file	"object_access_control.c"
  14              		.text
  15              	.Ltext0:
  16              		.cfi_sections	.debug_frame
  17              		.section	.text.prv_delete,"ax",%progbits
  18              		.align	1
  19              		.arch armv7e-m
  20              		.syntax unified
  21              		.thumb
  22              		.thumb_func
  23              		.fpu fpv4-sp-d16
  25              	prv_delete:
  26              	.LVL0:
  27              	.LFB17:
  28              		.file 1 "C:/Users/\262\334\274\322\272\300/.iotlink/sdk/IoT_LINK/iot_link/network/lwm2m/wakaama_lw
   1:C:/Users/²Ü¼ÒºÀ/.iotlink/sdk/IoT_LINK/iot_link/network/lwm2m/wakaama_lwm2m/port\object_access_control.c **** /*----------------------------------------------------------------------------
   2:C:/Users/²Ü¼ÒºÀ/.iotlink/sdk/IoT_LINK/iot_link/network/lwm2m/wakaama_lwm2m/port\object_access_control.c ****  * Copyright (c) <2016-2018>, <Huawei Technologies Co., Ltd>
   3:C:/Users/²Ü¼ÒºÀ/.iotlink/sdk/IoT_LINK/iot_link/network/lwm2m/wakaama_lwm2m/port\object_access_control.c ****  * All rights reserved.
   4:C:/Users/²Ü¼ÒºÀ/.iotlink/sdk/IoT_LINK/iot_link/network/lwm2m/wakaama_lwm2m/port\object_access_control.c ****  * Redistribution and use in source and binary forms, with or without modification,
   5:C:/Users/²Ü¼ÒºÀ/.iotlink/sdk/IoT_LINK/iot_link/network/lwm2m/wakaama_lwm2m/port\object_access_control.c ****  * are permitted provided that the following conditions are met:
   6:C:/Users/²Ü¼ÒºÀ/.iotlink/sdk/IoT_LINK/iot_link/network/lwm2m/wakaama_lwm2m/port\object_access_control.c ****  * 1. Redistributions of source code must retain the above copyright notice, this list of
   7:C:/Users/²Ü¼ÒºÀ/.iotlink/sdk/IoT_LINK/iot_link/network/lwm2m/wakaama_lwm2m/port\object_access_control.c ****  * conditions and the following disclaimer.
   8:C:/Users/²Ü¼ÒºÀ/.iotlink/sdk/IoT_LINK/iot_link/network/lwm2m/wakaama_lwm2m/port\object_access_control.c ****  * 2. Redistributions in binary form must reproduce the above copyright notice, this list
   9:C:/Users/²Ü¼ÒºÀ/.iotlink/sdk/IoT_LINK/iot_link/network/lwm2m/wakaama_lwm2m/port\object_access_control.c ****  * of conditions and the following disclaimer in the documentation and/or other materials
  10:C:/Users/²Ü¼ÒºÀ/.iotlink/sdk/IoT_LINK/iot_link/network/lwm2m/wakaama_lwm2m/port\object_access_control.c ****  * provided with the distribution.
  11:C:/Users/²Ü¼ÒºÀ/.iotlink/sdk/IoT_LINK/iot_link/network/lwm2m/wakaama_lwm2m/port\object_access_control.c ****  * 3. Neither the name of the copyright holder nor the names of its contributors may be used
  12:C:/Users/²Ü¼ÒºÀ/.iotlink/sdk/IoT_LINK/iot_link/network/lwm2m/wakaama_lwm2m/port\object_access_control.c ****  * to endorse or promote products derived from this software without specific prior written
  13:C:/Users/²Ü¼ÒºÀ/.iotlink/sdk/IoT_LINK/iot_link/network/lwm2m/wakaama_lwm2m/port\object_access_control.c ****  * permission.
  14:C:/Users/²Ü¼ÒºÀ/.iotlink/sdk/IoT_LINK/iot_link/network/lwm2m/wakaama_lwm2m/port\object_access_control.c ****  * THIS SOFTWARE IS PROVIDED BY THE COPYRIGHT HOLDERS AND CONTRIBUTORS
  15:C:/Users/²Ü¼ÒºÀ/.iotlink/sdk/IoT_LINK/iot_link/network/lwm2m/wakaama_lwm2m/port\object_access_control.c ****  * "AS IS" AND ANY EXPRESS OR IMPLIED WARRANTIES, INCLUDING, BUT NOT LIMITED TO,
  16:C:/Users/²Ü¼ÒºÀ/.iotlink/sdk/IoT_LINK/iot_link/network/lwm2m/wakaama_lwm2m/port\object_access_control.c ****  * THE IMPLIED WARRANTIES OF MERCHANTABILITY AND FITNESS FOR A PARTICULAR
  17:C:/Users/²Ü¼ÒºÀ/.iotlink/sdk/IoT_LINK/iot_link/network/lwm2m/wakaama_lwm2m/port\object_access_control.c ****  * PURPOSE ARE DISCLAIMED. IN NO EVENT SHALL THE COPYRIGHT HOLDER OR
  18:C:/Users/²Ü¼ÒºÀ/.iotlink/sdk/IoT_LINK/iot_link/network/lwm2m/wakaama_lwm2m/port\object_access_control.c ****  * CONTRIBUTORS BE LIABLE FOR ANY DIRECT, INDIRECT, INCIDENTAL, SPECIAL,
  19:C:/Users/²Ü¼ÒºÀ/.iotlink/sdk/IoT_LINK/iot_link/network/lwm2m/wakaama_lwm2m/port\object_access_control.c ****  * EXEMPLARY, OR CONSEQUENTIAL DAMAGES (INCLUDING, BUT NOT LIMITED TO,
  20:C:/Users/²Ü¼ÒºÀ/.iotlink/sdk/IoT_LINK/iot_link/network/lwm2m/wakaama_lwm2m/port\object_access_control.c ****  * PROCUREMENT OF SUBSTITUTE GOODS OR SERVICES; LOSS OF USE, DATA, OR PROFITS;
  21:C:/Users/²Ü¼ÒºÀ/.iotlink/sdk/IoT_LINK/iot_link/network/lwm2m/wakaama_lwm2m/port\object_access_control.c ****  * OR BUSINESS INTERRUPTION) HOWEVER CAUSED AND ON ANY THEORY OF LIABILITY,
  22:C:/Users/²Ü¼ÒºÀ/.iotlink/sdk/IoT_LINK/iot_link/network/lwm2m/wakaama_lwm2m/port\object_access_control.c ****  * WHETHER IN CONTRACT, STRICT LIABILITY, OR TORT (INCLUDING NEGLIGENCE OR
  23:C:/Users/²Ü¼ÒºÀ/.iotlink/sdk/IoT_LINK/iot_link/network/lwm2m/wakaama_lwm2m/port\object_access_control.c ****  * OTHERWISE) ARISING IN ANY WAY OUT OF THE USE OF THIS SOFTWARE, EVEN IF
  24:C:/Users/²Ü¼ÒºÀ/.iotlink/sdk/IoT_LINK/iot_link/network/lwm2m/wakaama_lwm2m/port\object_access_control.c ****  * ADVISED OF THE POSSIBILITY OF SUCH DAMAGE.
  25:C:/Users/²Ü¼ÒºÀ/.iotlink/sdk/IoT_LINK/iot_link/network/lwm2m/wakaama_lwm2m/port\object_access_control.c ****  *---------------------------------------------------------------------------*/
  26:C:/Users/²Ü¼ÒºÀ/.iotlink/sdk/IoT_LINK/iot_link/network/lwm2m/wakaama_lwm2m/port\object_access_control.c **** /*----------------------------------------------------------------------------
  27:C:/Users/²Ü¼ÒºÀ/.iotlink/sdk/IoT_LINK/iot_link/network/lwm2m/wakaama_lwm2m/port\object_access_control.c ****  * Notice of Export Control Law
  28:C:/Users/²Ü¼ÒºÀ/.iotlink/sdk/IoT_LINK/iot_link/network/lwm2m/wakaama_lwm2m/port\object_access_control.c ****  * ===============================================
  29:C:/Users/²Ü¼ÒºÀ/.iotlink/sdk/IoT_LINK/iot_link/network/lwm2m/wakaama_lwm2m/port\object_access_control.c ****  * Huawei LiteOS may be subject to applicable export control laws and regulations, which might
  30:C:/Users/²Ü¼ÒºÀ/.iotlink/sdk/IoT_LINK/iot_link/network/lwm2m/wakaama_lwm2m/port\object_access_control.c ****  * include those applicable to Huawei LiteOS of U.S. and the country in which you are located.
ARM GAS  C:\Users\²Ü¼ÒºÀ\AppData\Local\Temp\cc4d6LXN.s 			page 2


  31:C:/Users/²Ü¼ÒºÀ/.iotlink/sdk/IoT_LINK/iot_link/network/lwm2m/wakaama_lwm2m/port\object_access_control.c ****  * Import, export and usage of Huawei LiteOS in any manner by you shall be in compliance with such
  32:C:/Users/²Ü¼ÒºÀ/.iotlink/sdk/IoT_LINK/iot_link/network/lwm2m/wakaama_lwm2m/port\object_access_control.c ****  * applicable export control laws and regulations.
  33:C:/Users/²Ü¼ÒºÀ/.iotlink/sdk/IoT_LINK/iot_link/network/lwm2m/wakaama_lwm2m/port\object_access_control.c ****  *---------------------------------------------------------------------------*/
  34:C:/Users/²Ü¼ÒºÀ/.iotlink/sdk/IoT_LINK/iot_link/network/lwm2m/wakaama_lwm2m/port\object_access_control.c **** 
  35:C:/Users/²Ü¼ÒºÀ/.iotlink/sdk/IoT_LINK/iot_link/network/lwm2m/wakaama_lwm2m/port\object_access_control.c **** /*******************************************************************************
  36:C:/Users/²Ü¼ÒºÀ/.iotlink/sdk/IoT_LINK/iot_link/network/lwm2m/wakaama_lwm2m/port\object_access_control.c ****  *
  37:C:/Users/²Ü¼ÒºÀ/.iotlink/sdk/IoT_LINK/iot_link/network/lwm2m/wakaama_lwm2m/port\object_access_control.c ****  * Copyright (c) 2015 Bosch Software Innovations GmbH Germany.
  38:C:/Users/²Ü¼ÒºÀ/.iotlink/sdk/IoT_LINK/iot_link/network/lwm2m/wakaama_lwm2m/port\object_access_control.c ****  * All rights reserved. This program and the accompanying materials
  39:C:/Users/²Ü¼ÒºÀ/.iotlink/sdk/IoT_LINK/iot_link/network/lwm2m/wakaama_lwm2m/port\object_access_control.c ****  * are made available under the terms of the Eclipse Public License v1.0
  40:C:/Users/²Ü¼ÒºÀ/.iotlink/sdk/IoT_LINK/iot_link/network/lwm2m/wakaama_lwm2m/port\object_access_control.c ****  * and Eclipse Distribution License v1.0 which accompany this distribution.
  41:C:/Users/²Ü¼ÒºÀ/.iotlink/sdk/IoT_LINK/iot_link/network/lwm2m/wakaama_lwm2m/port\object_access_control.c ****  *
  42:C:/Users/²Ü¼ÒºÀ/.iotlink/sdk/IoT_LINK/iot_link/network/lwm2m/wakaama_lwm2m/port\object_access_control.c ****  * The Eclipse Public License is available at
  43:C:/Users/²Ü¼ÒºÀ/.iotlink/sdk/IoT_LINK/iot_link/network/lwm2m/wakaama_lwm2m/port\object_access_control.c ****  *    http://www.eclipse.org/legal/epl-v10.html
  44:C:/Users/²Ü¼ÒºÀ/.iotlink/sdk/IoT_LINK/iot_link/network/lwm2m/wakaama_lwm2m/port\object_access_control.c ****  * The Eclipse Distribution License is available at
  45:C:/Users/²Ü¼ÒºÀ/.iotlink/sdk/IoT_LINK/iot_link/network/lwm2m/wakaama_lwm2m/port\object_access_control.c ****  *    http://www.eclipse.org/org/documents/edl-v10.php.
  46:C:/Users/²Ü¼ÒºÀ/.iotlink/sdk/IoT_LINK/iot_link/network/lwm2m/wakaama_lwm2m/port\object_access_control.c ****  *
  47:C:/Users/²Ü¼ÒºÀ/.iotlink/sdk/IoT_LINK/iot_link/network/lwm2m/wakaama_lwm2m/port\object_access_control.c ****  * Contributors:
  48:C:/Users/²Ü¼ÒºÀ/.iotlink/sdk/IoT_LINK/iot_link/network/lwm2m/wakaama_lwm2m/port\object_access_control.c ****  *    Bosch Software Innovations GmbH - Please refer to git log
  49:C:/Users/²Ü¼ÒºÀ/.iotlink/sdk/IoT_LINK/iot_link/network/lwm2m/wakaama_lwm2m/port\object_access_control.c ****  *    Pascal Rieux - please refer to git log
  50:C:/Users/²Ü¼ÒºÀ/.iotlink/sdk/IoT_LINK/iot_link/network/lwm2m/wakaama_lwm2m/port\object_access_control.c ****  *
  51:C:/Users/²Ü¼ÒºÀ/.iotlink/sdk/IoT_LINK/iot_link/network/lwm2m/wakaama_lwm2m/port\object_access_control.c ****  ******************************************************************************/
  52:C:/Users/²Ü¼ÒºÀ/.iotlink/sdk/IoT_LINK/iot_link/network/lwm2m/wakaama_lwm2m/port\object_access_control.c **** 
  53:C:/Users/²Ü¼ÒºÀ/.iotlink/sdk/IoT_LINK/iot_link/network/lwm2m/wakaama_lwm2m/port\object_access_control.c **** /*
  54:C:/Users/²Ü¼ÒºÀ/.iotlink/sdk/IoT_LINK/iot_link/network/lwm2m/wakaama_lwm2m/port\object_access_control.c ****  * This "Access Control" object is optional and multiple instantiated
  55:C:/Users/²Ü¼ÒºÀ/.iotlink/sdk/IoT_LINK/iot_link/network/lwm2m/wakaama_lwm2m/port\object_access_control.c ****  *
  56:C:/Users/²Ü¼ÒºÀ/.iotlink/sdk/IoT_LINK/iot_link/network/lwm2m/wakaama_lwm2m/port\object_access_control.c ****  *  Resources:
  57:C:/Users/²Ü¼ÒºÀ/.iotlink/sdk/IoT_LINK/iot_link/network/lwm2m/wakaama_lwm2m/port\object_access_control.c ****  *
  58:C:/Users/²Ü¼ÒºÀ/.iotlink/sdk/IoT_LINK/iot_link/network/lwm2m/wakaama_lwm2m/port\object_access_control.c ****  *          Name         | ID | Oper. | Inst. | Mand.|  Type   | Range | Units |
  59:C:/Users/²Ü¼ÒºÀ/.iotlink/sdk/IoT_LINK/iot_link/network/lwm2m/wakaama_lwm2m/port\object_access_control.c ****  *  ---------------------+----+-------+-------+------+---------+-------+-------+
  60:C:/Users/²Ü¼ÒºÀ/.iotlink/sdk/IoT_LINK/iot_link/network/lwm2m/wakaama_lwm2m/port\object_access_control.c ****  *  Object ID            |  0 |   R   | Single|  Yes | Integer |1-65534|       |
  61:C:/Users/²Ü¼ÒºÀ/.iotlink/sdk/IoT_LINK/iot_link/network/lwm2m/wakaama_lwm2m/port\object_access_control.c ****  *  Object instance ID   |  1 |   R   | Single|  Yes | Integer |0-65535|       |
  62:C:/Users/²Ü¼ÒºÀ/.iotlink/sdk/IoT_LINK/iot_link/network/lwm2m/wakaama_lwm2m/port\object_access_control.c ****  *  ACL                  |  2 |   RW  | Multi.|  No  | Integer | 16bit |       |
  63:C:/Users/²Ü¼ÒºÀ/.iotlink/sdk/IoT_LINK/iot_link/network/lwm2m/wakaama_lwm2m/port\object_access_control.c ****  *  Access Control Owner |  3 |   RW  | Single|  Yes | Integer |0-65535|       |
  64:C:/Users/²Ü¼ÒºÀ/.iotlink/sdk/IoT_LINK/iot_link/network/lwm2m/wakaama_lwm2m/port\object_access_control.c ****  */
  65:C:/Users/²Ü¼ÒºÀ/.iotlink/sdk/IoT_LINK/iot_link/network/lwm2m/wakaama_lwm2m/port\object_access_control.c **** 
  66:C:/Users/²Ü¼ÒºÀ/.iotlink/sdk/IoT_LINK/iot_link/network/lwm2m/wakaama_lwm2m/port\object_access_control.c **** #include "internals.h"
  67:C:/Users/²Ü¼ÒºÀ/.iotlink/sdk/IoT_LINK/iot_link/network/lwm2m/wakaama_lwm2m/port\object_access_control.c **** #include "object_comm.h"
  68:C:/Users/²Ü¼ÒºÀ/.iotlink/sdk/IoT_LINK/iot_link/network/lwm2m/wakaama_lwm2m/port\object_access_control.c **** #include <string.h>
  69:C:/Users/²Ü¼ÒºÀ/.iotlink/sdk/IoT_LINK/iot_link/network/lwm2m/wakaama_lwm2m/port\object_access_control.c **** 
  70:C:/Users/²Ü¼ÒºÀ/.iotlink/sdk/IoT_LINK/iot_link/network/lwm2m/wakaama_lwm2m/port\object_access_control.c **** // Resource Id's:
  71:C:/Users/²Ü¼ÒºÀ/.iotlink/sdk/IoT_LINK/iot_link/network/lwm2m/wakaama_lwm2m/port\object_access_control.c **** #define RES_M_OBJECT_ID             0
  72:C:/Users/²Ü¼ÒºÀ/.iotlink/sdk/IoT_LINK/iot_link/network/lwm2m/wakaama_lwm2m/port\object_access_control.c **** #define RES_M_OBJECT_INSTANCE_ID    1
  73:C:/Users/²Ü¼ÒºÀ/.iotlink/sdk/IoT_LINK/iot_link/network/lwm2m/wakaama_lwm2m/port\object_access_control.c **** #define RES_O_ACL                   2
  74:C:/Users/²Ü¼ÒºÀ/.iotlink/sdk/IoT_LINK/iot_link/network/lwm2m/wakaama_lwm2m/port\object_access_control.c **** #define RES_M_ACCESS_CONTROL_OWNER  3
  75:C:/Users/²Ü¼ÒºÀ/.iotlink/sdk/IoT_LINK/iot_link/network/lwm2m/wakaama_lwm2m/port\object_access_control.c **** 
  76:C:/Users/²Ü¼ÒºÀ/.iotlink/sdk/IoT_LINK/iot_link/network/lwm2m/wakaama_lwm2m/port\object_access_control.c **** #define MAX_DATA_VAL 65535
  77:C:/Users/²Ü¼ÒºÀ/.iotlink/sdk/IoT_LINK/iot_link/network/lwm2m/wakaama_lwm2m/port\object_access_control.c **** 
  78:C:/Users/²Ü¼ÒºÀ/.iotlink/sdk/IoT_LINK/iot_link/network/lwm2m/wakaama_lwm2m/port\object_access_control.c **** typedef struct acc_ctrl_ri_s
  79:C:/Users/²Ü¼ÒºÀ/.iotlink/sdk/IoT_LINK/iot_link/network/lwm2m/wakaama_lwm2m/port\object_access_control.c **** {
  80:C:/Users/²Ü¼ÒºÀ/.iotlink/sdk/IoT_LINK/iot_link/network/lwm2m/wakaama_lwm2m/port\object_access_control.c ****     // linked list:
  81:C:/Users/²Ü¼ÒºÀ/.iotlink/sdk/IoT_LINK/iot_link/network/lwm2m/wakaama_lwm2m/port\object_access_control.c ****     struct acc_ctrl_ri_s   *next;       // matches lwm2m_list_t::next
  82:C:/Users/²Ü¼ÒºÀ/.iotlink/sdk/IoT_LINK/iot_link/network/lwm2m/wakaama_lwm2m/port\object_access_control.c ****     uint16_t                resInstId;  // matches lwm2m_list_t::id, ..serverID
  83:C:/Users/²Ü¼ÒºÀ/.iotlink/sdk/IoT_LINK/iot_link/network/lwm2m/wakaama_lwm2m/port\object_access_control.c ****     // resource data:
  84:C:/Users/²Ü¼ÒºÀ/.iotlink/sdk/IoT_LINK/iot_link/network/lwm2m/wakaama_lwm2m/port\object_access_control.c ****     uint16_t                accCtrlValue;
  85:C:/Users/²Ü¼ÒºÀ/.iotlink/sdk/IoT_LINK/iot_link/network/lwm2m/wakaama_lwm2m/port\object_access_control.c **** } acc_ctrl_ri_t;
  86:C:/Users/²Ü¼ÒºÀ/.iotlink/sdk/IoT_LINK/iot_link/network/lwm2m/wakaama_lwm2m/port\object_access_control.c **** 
  87:C:/Users/²Ü¼ÒºÀ/.iotlink/sdk/IoT_LINK/iot_link/network/lwm2m/wakaama_lwm2m/port\object_access_control.c **** typedef struct acc_ctrl_oi_s
ARM GAS  C:\Users\²Ü¼ÒºÀ\AppData\Local\Temp\cc4d6LXN.s 			page 3


  88:C:/Users/²Ü¼ÒºÀ/.iotlink/sdk/IoT_LINK/iot_link/network/lwm2m/wakaama_lwm2m/port\object_access_control.c **** {
  89:C:/Users/²Ü¼ÒºÀ/.iotlink/sdk/IoT_LINK/iot_link/network/lwm2m/wakaama_lwm2m/port\object_access_control.c ****     //linked list:
  90:C:/Users/²Ü¼ÒºÀ/.iotlink/sdk/IoT_LINK/iot_link/network/lwm2m/wakaama_lwm2m/port\object_access_control.c ****     struct acc_ctrl_oi_s   *next;       // matches lwm2m_list_t::next
  91:C:/Users/²Ü¼ÒºÀ/.iotlink/sdk/IoT_LINK/iot_link/network/lwm2m/wakaama_lwm2m/port\object_access_control.c ****     uint16_t                objInstId;  // matches lwm2m_list_t::id
  92:C:/Users/²Ü¼ÒºÀ/.iotlink/sdk/IoT_LINK/iot_link/network/lwm2m/wakaama_lwm2m/port\object_access_control.c **** 
  93:C:/Users/²Ü¼ÒºÀ/.iotlink/sdk/IoT_LINK/iot_link/network/lwm2m/wakaama_lwm2m/port\object_access_control.c ****     // resources
  94:C:/Users/²Ü¼ÒºÀ/.iotlink/sdk/IoT_LINK/iot_link/network/lwm2m/wakaama_lwm2m/port\object_access_control.c ****     uint16_t                objectId;
  95:C:/Users/²Ü¼ÒºÀ/.iotlink/sdk/IoT_LINK/iot_link/network/lwm2m/wakaama_lwm2m/port\object_access_control.c ****     uint16_t                objectInstId;
  96:C:/Users/²Ü¼ÒºÀ/.iotlink/sdk/IoT_LINK/iot_link/network/lwm2m/wakaama_lwm2m/port\object_access_control.c ****     uint16_t                accCtrlOwner;
  97:C:/Users/²Ü¼ÒºÀ/.iotlink/sdk/IoT_LINK/iot_link/network/lwm2m/wakaama_lwm2m/port\object_access_control.c ****     acc_ctrl_ri_t          *accCtrlValList;
  98:C:/Users/²Ü¼ÒºÀ/.iotlink/sdk/IoT_LINK/iot_link/network/lwm2m/wakaama_lwm2m/port\object_access_control.c **** } acc_ctrl_oi_t;
  99:C:/Users/²Ü¼ÒºÀ/.iotlink/sdk/IoT_LINK/iot_link/network/lwm2m/wakaama_lwm2m/port\object_access_control.c **** 
 100:C:/Users/²Ü¼ÒºÀ/.iotlink/sdk/IoT_LINK/iot_link/network/lwm2m/wakaama_lwm2m/port\object_access_control.c **** 
 101:C:/Users/²Ü¼ÒºÀ/.iotlink/sdk/IoT_LINK/iot_link/network/lwm2m/wakaama_lwm2m/port\object_access_control.c **** static uint8_t prv_set_tlv(lwm2m_data_t *dataP, acc_ctrl_oi_t *accCtrlOiP)
 102:C:/Users/²Ü¼ÒºÀ/.iotlink/sdk/IoT_LINK/iot_link/network/lwm2m/wakaama_lwm2m/port\object_access_control.c **** {
 103:C:/Users/²Ü¼ÒºÀ/.iotlink/sdk/IoT_LINK/iot_link/network/lwm2m/wakaama_lwm2m/port\object_access_control.c ****     switch (dataP->id)
 104:C:/Users/²Ü¼ÒºÀ/.iotlink/sdk/IoT_LINK/iot_link/network/lwm2m/wakaama_lwm2m/port\object_access_control.c ****     {
 105:C:/Users/²Ü¼ÒºÀ/.iotlink/sdk/IoT_LINK/iot_link/network/lwm2m/wakaama_lwm2m/port\object_access_control.c ****         case RES_M_OBJECT_ID:
 106:C:/Users/²Ü¼ÒºÀ/.iotlink/sdk/IoT_LINK/iot_link/network/lwm2m/wakaama_lwm2m/port\object_access_control.c ****             lwm2m_data_encode_int(accCtrlOiP->objectId, dataP);
 107:C:/Users/²Ü¼ÒºÀ/.iotlink/sdk/IoT_LINK/iot_link/network/lwm2m/wakaama_lwm2m/port\object_access_control.c ****             return COAP_205_CONTENT;
 108:C:/Users/²Ü¼ÒºÀ/.iotlink/sdk/IoT_LINK/iot_link/network/lwm2m/wakaama_lwm2m/port\object_access_control.c **** 
 109:C:/Users/²Ü¼ÒºÀ/.iotlink/sdk/IoT_LINK/iot_link/network/lwm2m/wakaama_lwm2m/port\object_access_control.c ****         case RES_M_OBJECT_INSTANCE_ID:
 110:C:/Users/²Ü¼ÒºÀ/.iotlink/sdk/IoT_LINK/iot_link/network/lwm2m/wakaama_lwm2m/port\object_access_control.c ****             lwm2m_data_encode_int(accCtrlOiP->objectInstId, dataP);
 111:C:/Users/²Ü¼ÒºÀ/.iotlink/sdk/IoT_LINK/iot_link/network/lwm2m/wakaama_lwm2m/port\object_access_control.c ****             return COAP_205_CONTENT;
 112:C:/Users/²Ü¼ÒºÀ/.iotlink/sdk/IoT_LINK/iot_link/network/lwm2m/wakaama_lwm2m/port\object_access_control.c **** 
 113:C:/Users/²Ü¼ÒºÀ/.iotlink/sdk/IoT_LINK/iot_link/network/lwm2m/wakaama_lwm2m/port\object_access_control.c ****         case RES_O_ACL:
 114:C:/Users/²Ü¼ÒºÀ/.iotlink/sdk/IoT_LINK/iot_link/network/lwm2m/wakaama_lwm2m/port\object_access_control.c ****         {
 115:C:/Users/²Ü¼ÒºÀ/.iotlink/sdk/IoT_LINK/iot_link/network/lwm2m/wakaama_lwm2m/port\object_access_control.c ****             int ri;
 116:C:/Users/²Ü¼ÒºÀ/.iotlink/sdk/IoT_LINK/iot_link/network/lwm2m/wakaama_lwm2m/port\object_access_control.c ****             acc_ctrl_ri_t *accCtrlRiP;
 117:C:/Users/²Ü¼ÒºÀ/.iotlink/sdk/IoT_LINK/iot_link/network/lwm2m/wakaama_lwm2m/port\object_access_control.c **** 
 118:C:/Users/²Ü¼ÒºÀ/.iotlink/sdk/IoT_LINK/iot_link/network/lwm2m/wakaama_lwm2m/port\object_access_control.c ****             for (accCtrlRiP = accCtrlOiP->accCtrlValList, ri = 0;
 119:C:/Users/²Ü¼ÒºÀ/.iotlink/sdk/IoT_LINK/iot_link/network/lwm2m/wakaama_lwm2m/port\object_access_control.c ****                  NULL != accCtrlRiP;
 120:C:/Users/²Ü¼ÒºÀ/.iotlink/sdk/IoT_LINK/iot_link/network/lwm2m/wakaama_lwm2m/port\object_access_control.c ****                  accCtrlRiP = accCtrlRiP->next, ri++);
 121:C:/Users/²Ü¼ÒºÀ/.iotlink/sdk/IoT_LINK/iot_link/network/lwm2m/wakaama_lwm2m/port\object_access_control.c **** 
 122:C:/Users/²Ü¼ÒºÀ/.iotlink/sdk/IoT_LINK/iot_link/network/lwm2m/wakaama_lwm2m/port\object_access_control.c ****             if (0 == ri) // no values!
 123:C:/Users/²Ü¼ÒºÀ/.iotlink/sdk/IoT_LINK/iot_link/network/lwm2m/wakaama_lwm2m/port\object_access_control.c ****             {
 124:C:/Users/²Ü¼ÒºÀ/.iotlink/sdk/IoT_LINK/iot_link/network/lwm2m/wakaama_lwm2m/port\object_access_control.c ****                 return COAP_404_NOT_FOUND;
 125:C:/Users/²Ü¼ÒºÀ/.iotlink/sdk/IoT_LINK/iot_link/network/lwm2m/wakaama_lwm2m/port\object_access_control.c ****             }
 126:C:/Users/²Ü¼ÒºÀ/.iotlink/sdk/IoT_LINK/iot_link/network/lwm2m/wakaama_lwm2m/port\object_access_control.c ****             else
 127:C:/Users/²Ü¼ÒºÀ/.iotlink/sdk/IoT_LINK/iot_link/network/lwm2m/wakaama_lwm2m/port\object_access_control.c ****             {
 128:C:/Users/²Ü¼ÒºÀ/.iotlink/sdk/IoT_LINK/iot_link/network/lwm2m/wakaama_lwm2m/port\object_access_control.c ****                 lwm2m_data_t *subTlvP = lwm2m_data_new(ri);
 129:C:/Users/²Ü¼ÒºÀ/.iotlink/sdk/IoT_LINK/iot_link/network/lwm2m/wakaama_lwm2m/port\object_access_control.c **** 
 130:C:/Users/²Ü¼ÒºÀ/.iotlink/sdk/IoT_LINK/iot_link/network/lwm2m/wakaama_lwm2m/port\object_access_control.c ****                 if (NULL == subTlvP) return COAP_500_INTERNAL_SERVER_ERROR;
 131:C:/Users/²Ü¼ÒºÀ/.iotlink/sdk/IoT_LINK/iot_link/network/lwm2m/wakaama_lwm2m/port\object_access_control.c **** 
 132:C:/Users/²Ü¼ÒºÀ/.iotlink/sdk/IoT_LINK/iot_link/network/lwm2m/wakaama_lwm2m/port\object_access_control.c ****                 for (accCtrlRiP = accCtrlOiP->accCtrlValList, ri = 0;
 133:C:/Users/²Ü¼ÒºÀ/.iotlink/sdk/IoT_LINK/iot_link/network/lwm2m/wakaama_lwm2m/port\object_access_control.c ****                      NULL != accCtrlRiP;
 134:C:/Users/²Ü¼ÒºÀ/.iotlink/sdk/IoT_LINK/iot_link/network/lwm2m/wakaama_lwm2m/port\object_access_control.c ****                      accCtrlRiP = accCtrlRiP->next, ri++)
 135:C:/Users/²Ü¼ÒºÀ/.iotlink/sdk/IoT_LINK/iot_link/network/lwm2m/wakaama_lwm2m/port\object_access_control.c ****                 {
 136:C:/Users/²Ü¼ÒºÀ/.iotlink/sdk/IoT_LINK/iot_link/network/lwm2m/wakaama_lwm2m/port\object_access_control.c ****                     subTlvP[ri].id = accCtrlRiP->resInstId;
 137:C:/Users/²Ü¼ÒºÀ/.iotlink/sdk/IoT_LINK/iot_link/network/lwm2m/wakaama_lwm2m/port\object_access_control.c ****                     lwm2m_data_encode_int(accCtrlRiP->accCtrlValue, &subTlvP[ri]);
 138:C:/Users/²Ü¼ÒºÀ/.iotlink/sdk/IoT_LINK/iot_link/network/lwm2m/wakaama_lwm2m/port\object_access_control.c ****                 }
 139:C:/Users/²Ü¼ÒºÀ/.iotlink/sdk/IoT_LINK/iot_link/network/lwm2m/wakaama_lwm2m/port\object_access_control.c **** 
 140:C:/Users/²Ü¼ÒºÀ/.iotlink/sdk/IoT_LINK/iot_link/network/lwm2m/wakaama_lwm2m/port\object_access_control.c ****                 lwm2m_data_encode_instances(subTlvP, ri, dataP);
 141:C:/Users/²Ü¼ÒºÀ/.iotlink/sdk/IoT_LINK/iot_link/network/lwm2m/wakaama_lwm2m/port\object_access_control.c ****                 return COAP_205_CONTENT;
 142:C:/Users/²Ü¼ÒºÀ/.iotlink/sdk/IoT_LINK/iot_link/network/lwm2m/wakaama_lwm2m/port\object_access_control.c ****             }
 143:C:/Users/²Ü¼ÒºÀ/.iotlink/sdk/IoT_LINK/iot_link/network/lwm2m/wakaama_lwm2m/port\object_access_control.c ****         }
 144:C:/Users/²Ü¼ÒºÀ/.iotlink/sdk/IoT_LINK/iot_link/network/lwm2m/wakaama_lwm2m/port\object_access_control.c **** 
ARM GAS  C:\Users\²Ü¼ÒºÀ\AppData\Local\Temp\cc4d6LXN.s 			page 4


 145:C:/Users/²Ü¼ÒºÀ/.iotlink/sdk/IoT_LINK/iot_link/network/lwm2m/wakaama_lwm2m/port\object_access_control.c ****         case RES_M_ACCESS_CONTROL_OWNER:
 146:C:/Users/²Ü¼ÒºÀ/.iotlink/sdk/IoT_LINK/iot_link/network/lwm2m/wakaama_lwm2m/port\object_access_control.c ****             lwm2m_data_encode_int(accCtrlOiP->accCtrlOwner, dataP);
 147:C:/Users/²Ü¼ÒºÀ/.iotlink/sdk/IoT_LINK/iot_link/network/lwm2m/wakaama_lwm2m/port\object_access_control.c ****             return COAP_205_CONTENT;
 148:C:/Users/²Ü¼ÒºÀ/.iotlink/sdk/IoT_LINK/iot_link/network/lwm2m/wakaama_lwm2m/port\object_access_control.c **** 
 149:C:/Users/²Ü¼ÒºÀ/.iotlink/sdk/IoT_LINK/iot_link/network/lwm2m/wakaama_lwm2m/port\object_access_control.c ****         default:
 150:C:/Users/²Ü¼ÒºÀ/.iotlink/sdk/IoT_LINK/iot_link/network/lwm2m/wakaama_lwm2m/port\object_access_control.c ****             return COAP_404_NOT_FOUND ;
 151:C:/Users/²Ü¼ÒºÀ/.iotlink/sdk/IoT_LINK/iot_link/network/lwm2m/wakaama_lwm2m/port\object_access_control.c ****     }
 152:C:/Users/²Ü¼ÒºÀ/.iotlink/sdk/IoT_LINK/iot_link/network/lwm2m/wakaama_lwm2m/port\object_access_control.c **** }
 153:C:/Users/²Ü¼ÒºÀ/.iotlink/sdk/IoT_LINK/iot_link/network/lwm2m/wakaama_lwm2m/port\object_access_control.c **** 
 154:C:/Users/²Ü¼ÒºÀ/.iotlink/sdk/IoT_LINK/iot_link/network/lwm2m/wakaama_lwm2m/port\object_access_control.c **** static uint8_t prv_read(uint16_t instanceId, int *numDataP,
 155:C:/Users/²Ü¼ÒºÀ/.iotlink/sdk/IoT_LINK/iot_link/network/lwm2m/wakaama_lwm2m/port\object_access_control.c ****                         lwm2m_data_t **dataArrayP, lwm2m_data_cfg_t *dataCfg, lwm2m_object_t *objec
 156:C:/Users/²Ü¼ÒºÀ/.iotlink/sdk/IoT_LINK/iot_link/network/lwm2m/wakaama_lwm2m/port\object_access_control.c **** {
 157:C:/Users/²Ü¼ÒºÀ/.iotlink/sdk/IoT_LINK/iot_link/network/lwm2m/wakaama_lwm2m/port\object_access_control.c ****     uint8_t result;
 158:C:/Users/²Ü¼ÒºÀ/.iotlink/sdk/IoT_LINK/iot_link/network/lwm2m/wakaama_lwm2m/port\object_access_control.c ****     int     ri, ni;
 159:C:/Users/²Ü¼ÒºÀ/.iotlink/sdk/IoT_LINK/iot_link/network/lwm2m/wakaama_lwm2m/port\object_access_control.c ****     // multi-instance object: search instance
 160:C:/Users/²Ü¼ÒºÀ/.iotlink/sdk/IoT_LINK/iot_link/network/lwm2m/wakaama_lwm2m/port\object_access_control.c ****     acc_ctrl_oi_t *accCtrlOiP =
 161:C:/Users/²Ü¼ÒºÀ/.iotlink/sdk/IoT_LINK/iot_link/network/lwm2m/wakaama_lwm2m/port\object_access_control.c ****         (acc_ctrl_oi_t *)lwm2m_list_find(objectP->instanceList, instanceId);
 162:C:/Users/²Ü¼ÒºÀ/.iotlink/sdk/IoT_LINK/iot_link/network/lwm2m/wakaama_lwm2m/port\object_access_control.c **** 
 163:C:/Users/²Ü¼ÒºÀ/.iotlink/sdk/IoT_LINK/iot_link/network/lwm2m/wakaama_lwm2m/port\object_access_control.c ****     if (NULL == accCtrlOiP)
 164:C:/Users/²Ü¼ÒºÀ/.iotlink/sdk/IoT_LINK/iot_link/network/lwm2m/wakaama_lwm2m/port\object_access_control.c ****     {
 165:C:/Users/²Ü¼ÒºÀ/.iotlink/sdk/IoT_LINK/iot_link/network/lwm2m/wakaama_lwm2m/port\object_access_control.c ****         return COAP_404_NOT_FOUND ;
 166:C:/Users/²Ü¼ÒºÀ/.iotlink/sdk/IoT_LINK/iot_link/network/lwm2m/wakaama_lwm2m/port\object_access_control.c ****     }
 167:C:/Users/²Ü¼ÒºÀ/.iotlink/sdk/IoT_LINK/iot_link/network/lwm2m/wakaama_lwm2m/port\object_access_control.c **** 
 168:C:/Users/²Ü¼ÒºÀ/.iotlink/sdk/IoT_LINK/iot_link/network/lwm2m/wakaama_lwm2m/port\object_access_control.c ****     // is the server asking for the full object ?
 169:C:/Users/²Ü¼ÒºÀ/.iotlink/sdk/IoT_LINK/iot_link/network/lwm2m/wakaama_lwm2m/port\object_access_control.c ****     if (0 == *numDataP)
 170:C:/Users/²Ü¼ÒºÀ/.iotlink/sdk/IoT_LINK/iot_link/network/lwm2m/wakaama_lwm2m/port\object_access_control.c ****     {
 171:C:/Users/²Ü¼ÒºÀ/.iotlink/sdk/IoT_LINK/iot_link/network/lwm2m/wakaama_lwm2m/port\object_access_control.c ****         uint16_t resList[] =
 172:C:/Users/²Ü¼ÒºÀ/.iotlink/sdk/IoT_LINK/iot_link/network/lwm2m/wakaama_lwm2m/port\object_access_control.c ****         {
 173:C:/Users/²Ü¼ÒºÀ/.iotlink/sdk/IoT_LINK/iot_link/network/lwm2m/wakaama_lwm2m/port\object_access_control.c ****             RES_M_OBJECT_ID,
 174:C:/Users/²Ü¼ÒºÀ/.iotlink/sdk/IoT_LINK/iot_link/network/lwm2m/wakaama_lwm2m/port\object_access_control.c ****             RES_M_OBJECT_INSTANCE_ID,
 175:C:/Users/²Ü¼ÒºÀ/.iotlink/sdk/IoT_LINK/iot_link/network/lwm2m/wakaama_lwm2m/port\object_access_control.c ****             RES_O_ACL,  // prv_set_tlv will return COAP_404_NOT_FOUND w/o values!
 176:C:/Users/²Ü¼ÒºÀ/.iotlink/sdk/IoT_LINK/iot_link/network/lwm2m/wakaama_lwm2m/port\object_access_control.c ****             RES_M_ACCESS_CONTROL_OWNER
 177:C:/Users/²Ü¼ÒºÀ/.iotlink/sdk/IoT_LINK/iot_link/network/lwm2m/wakaama_lwm2m/port\object_access_control.c ****         };
 178:C:/Users/²Ü¼ÒºÀ/.iotlink/sdk/IoT_LINK/iot_link/network/lwm2m/wakaama_lwm2m/port\object_access_control.c ****         int nbRes = sizeof(resList) / sizeof(uint16_t);
 179:C:/Users/²Ü¼ÒºÀ/.iotlink/sdk/IoT_LINK/iot_link/network/lwm2m/wakaama_lwm2m/port\object_access_control.c ****         *dataArrayP = lwm2m_data_new(nbRes);
 180:C:/Users/²Ü¼ÒºÀ/.iotlink/sdk/IoT_LINK/iot_link/network/lwm2m/wakaama_lwm2m/port\object_access_control.c **** 
 181:C:/Users/²Ü¼ÒºÀ/.iotlink/sdk/IoT_LINK/iot_link/network/lwm2m/wakaama_lwm2m/port\object_access_control.c ****         if (NULL == *dataArrayP)
 182:C:/Users/²Ü¼ÒºÀ/.iotlink/sdk/IoT_LINK/iot_link/network/lwm2m/wakaama_lwm2m/port\object_access_control.c ****             return COAP_500_INTERNAL_SERVER_ERROR ;
 183:C:/Users/²Ü¼ÒºÀ/.iotlink/sdk/IoT_LINK/iot_link/network/lwm2m/wakaama_lwm2m/port\object_access_control.c **** 
 184:C:/Users/²Ü¼ÒºÀ/.iotlink/sdk/IoT_LINK/iot_link/network/lwm2m/wakaama_lwm2m/port\object_access_control.c ****         *numDataP = nbRes;
 185:C:/Users/²Ü¼ÒºÀ/.iotlink/sdk/IoT_LINK/iot_link/network/lwm2m/wakaama_lwm2m/port\object_access_control.c **** 
 186:C:/Users/²Ü¼ÒºÀ/.iotlink/sdk/IoT_LINK/iot_link/network/lwm2m/wakaama_lwm2m/port\object_access_control.c ****         for (ri = 0; ri < nbRes; ri++)
 187:C:/Users/²Ü¼ÒºÀ/.iotlink/sdk/IoT_LINK/iot_link/network/lwm2m/wakaama_lwm2m/port\object_access_control.c ****         {
 188:C:/Users/²Ü¼ÒºÀ/.iotlink/sdk/IoT_LINK/iot_link/network/lwm2m/wakaama_lwm2m/port\object_access_control.c ****             (*dataArrayP)[ri].id = resList[ri];
 189:C:/Users/²Ü¼ÒºÀ/.iotlink/sdk/IoT_LINK/iot_link/network/lwm2m/wakaama_lwm2m/port\object_access_control.c ****         }
 190:C:/Users/²Ü¼ÒºÀ/.iotlink/sdk/IoT_LINK/iot_link/network/lwm2m/wakaama_lwm2m/port\object_access_control.c ****     }
 191:C:/Users/²Ü¼ÒºÀ/.iotlink/sdk/IoT_LINK/iot_link/network/lwm2m/wakaama_lwm2m/port\object_access_control.c **** 
 192:C:/Users/²Ü¼ÒºÀ/.iotlink/sdk/IoT_LINK/iot_link/network/lwm2m/wakaama_lwm2m/port\object_access_control.c ****     ni = ri = 0;
 193:C:/Users/²Ü¼ÒºÀ/.iotlink/sdk/IoT_LINK/iot_link/network/lwm2m/wakaama_lwm2m/port\object_access_control.c **** 
 194:C:/Users/²Ü¼ÒºÀ/.iotlink/sdk/IoT_LINK/iot_link/network/lwm2m/wakaama_lwm2m/port\object_access_control.c ****     do
 195:C:/Users/²Ü¼ÒºÀ/.iotlink/sdk/IoT_LINK/iot_link/network/lwm2m/wakaama_lwm2m/port\object_access_control.c ****     {
 196:C:/Users/²Ü¼ÒºÀ/.iotlink/sdk/IoT_LINK/iot_link/network/lwm2m/wakaama_lwm2m/port\object_access_control.c ****         result = prv_set_tlv((*dataArrayP) + ni, accCtrlOiP);
 197:C:/Users/²Ü¼ÒºÀ/.iotlink/sdk/IoT_LINK/iot_link/network/lwm2m/wakaama_lwm2m/port\object_access_control.c **** 
 198:C:/Users/²Ü¼ÒºÀ/.iotlink/sdk/IoT_LINK/iot_link/network/lwm2m/wakaama_lwm2m/port\object_access_control.c ****         if (COAP_404_NOT_FOUND == result)
 199:C:/Users/²Ü¼ÒºÀ/.iotlink/sdk/IoT_LINK/iot_link/network/lwm2m/wakaama_lwm2m/port\object_access_control.c ****         {
 200:C:/Users/²Ü¼ÒºÀ/.iotlink/sdk/IoT_LINK/iot_link/network/lwm2m/wakaama_lwm2m/port\object_access_control.c ****             ri++;
 201:C:/Users/²Ü¼ÒºÀ/.iotlink/sdk/IoT_LINK/iot_link/network/lwm2m/wakaama_lwm2m/port\object_access_control.c **** 
ARM GAS  C:\Users\²Ü¼ÒºÀ\AppData\Local\Temp\cc4d6LXN.s 			page 5


 202:C:/Users/²Ü¼ÒºÀ/.iotlink/sdk/IoT_LINK/iot_link/network/lwm2m/wakaama_lwm2m/port\object_access_control.c ****             if (*numDataP > 1) result = COAP_205_CONTENT;
 203:C:/Users/²Ü¼ÒºÀ/.iotlink/sdk/IoT_LINK/iot_link/network/lwm2m/wakaama_lwm2m/port\object_access_control.c ****         }
 204:C:/Users/²Ü¼ÒºÀ/.iotlink/sdk/IoT_LINK/iot_link/network/lwm2m/wakaama_lwm2m/port\object_access_control.c ****         else if (ri > 0)    // copy new one by ri skipped ones in front
 205:C:/Users/²Ü¼ÒºÀ/.iotlink/sdk/IoT_LINK/iot_link/network/lwm2m/wakaama_lwm2m/port\object_access_control.c ****         {
 206:C:/Users/²Ü¼ÒºÀ/.iotlink/sdk/IoT_LINK/iot_link/network/lwm2m/wakaama_lwm2m/port\object_access_control.c ****             (*dataArrayP)[ni - ri] = (*dataArrayP)[ni];
 207:C:/Users/²Ü¼ÒºÀ/.iotlink/sdk/IoT_LINK/iot_link/network/lwm2m/wakaama_lwm2m/port\object_access_control.c ****         }
 208:C:/Users/²Ü¼ÒºÀ/.iotlink/sdk/IoT_LINK/iot_link/network/lwm2m/wakaama_lwm2m/port\object_access_control.c **** 
 209:C:/Users/²Ü¼ÒºÀ/.iotlink/sdk/IoT_LINK/iot_link/network/lwm2m/wakaama_lwm2m/port\object_access_control.c ****         ni++;
 210:C:/Users/²Ü¼ÒºÀ/.iotlink/sdk/IoT_LINK/iot_link/network/lwm2m/wakaama_lwm2m/port\object_access_control.c ****     }
 211:C:/Users/²Ü¼ÒºÀ/.iotlink/sdk/IoT_LINK/iot_link/network/lwm2m/wakaama_lwm2m/port\object_access_control.c ****     while (ni < *numDataP && (COAP_205_CONTENT == result));
 212:C:/Users/²Ü¼ÒºÀ/.iotlink/sdk/IoT_LINK/iot_link/network/lwm2m/wakaama_lwm2m/port\object_access_control.c **** 
 213:C:/Users/²Ü¼ÒºÀ/.iotlink/sdk/IoT_LINK/iot_link/network/lwm2m/wakaama_lwm2m/port\object_access_control.c ****     *numDataP = ni - ri;
 214:C:/Users/²Ü¼ÒºÀ/.iotlink/sdk/IoT_LINK/iot_link/network/lwm2m/wakaama_lwm2m/port\object_access_control.c ****     return result;
 215:C:/Users/²Ü¼ÒºÀ/.iotlink/sdk/IoT_LINK/iot_link/network/lwm2m/wakaama_lwm2m/port\object_access_control.c **** }
 216:C:/Users/²Ü¼ÒºÀ/.iotlink/sdk/IoT_LINK/iot_link/network/lwm2m/wakaama_lwm2m/port\object_access_control.c **** 
 217:C:/Users/²Ü¼ÒºÀ/.iotlink/sdk/IoT_LINK/iot_link/network/lwm2m/wakaama_lwm2m/port\object_access_control.c **** static bool prv_add_ac_val(acc_ctrl_oi_t *accCtrlOiP,
 218:C:/Users/²Ü¼ÒºÀ/.iotlink/sdk/IoT_LINK/iot_link/network/lwm2m/wakaama_lwm2m/port\object_access_control.c ****                            uint16_t acResId, uint16_t acValue)
 219:C:/Users/²Ü¼ÒºÀ/.iotlink/sdk/IoT_LINK/iot_link/network/lwm2m/wakaama_lwm2m/port\object_access_control.c **** {
 220:C:/Users/²Ü¼ÒºÀ/.iotlink/sdk/IoT_LINK/iot_link/network/lwm2m/wakaama_lwm2m/port\object_access_control.c ****     bool ret = false;
 221:C:/Users/²Ü¼ÒºÀ/.iotlink/sdk/IoT_LINK/iot_link/network/lwm2m/wakaama_lwm2m/port\object_access_control.c ****     acc_ctrl_ri_t *accCtrlRiP;
 222:C:/Users/²Ü¼ÒºÀ/.iotlink/sdk/IoT_LINK/iot_link/network/lwm2m/wakaama_lwm2m/port\object_access_control.c ****     accCtrlRiP = (acc_ctrl_ri_t *)lwm2m_malloc(sizeof(acc_ctrl_ri_t));
 223:C:/Users/²Ü¼ÒºÀ/.iotlink/sdk/IoT_LINK/iot_link/network/lwm2m/wakaama_lwm2m/port\object_access_control.c **** 
 224:C:/Users/²Ü¼ÒºÀ/.iotlink/sdk/IoT_LINK/iot_link/network/lwm2m/wakaama_lwm2m/port\object_access_control.c ****     if (NULL == accCtrlRiP)
 225:C:/Users/²Ü¼ÒºÀ/.iotlink/sdk/IoT_LINK/iot_link/network/lwm2m/wakaama_lwm2m/port\object_access_control.c ****     {
 226:C:/Users/²Ü¼ÒºÀ/.iotlink/sdk/IoT_LINK/iot_link/network/lwm2m/wakaama_lwm2m/port\object_access_control.c ****         return ret;
 227:C:/Users/²Ü¼ÒºÀ/.iotlink/sdk/IoT_LINK/iot_link/network/lwm2m/wakaama_lwm2m/port\object_access_control.c ****     }
 228:C:/Users/²Ü¼ÒºÀ/.iotlink/sdk/IoT_LINK/iot_link/network/lwm2m/wakaama_lwm2m/port\object_access_control.c ****     else
 229:C:/Users/²Ü¼ÒºÀ/.iotlink/sdk/IoT_LINK/iot_link/network/lwm2m/wakaama_lwm2m/port\object_access_control.c ****     {
 230:C:/Users/²Ü¼ÒºÀ/.iotlink/sdk/IoT_LINK/iot_link/network/lwm2m/wakaama_lwm2m/port\object_access_control.c ****         (void) memset(accCtrlRiP, 0, sizeof(acc_ctrl_ri_t));
 231:C:/Users/²Ü¼ÒºÀ/.iotlink/sdk/IoT_LINK/iot_link/network/lwm2m/wakaama_lwm2m/port\object_access_control.c ****         accCtrlRiP->resInstId      = acResId;
 232:C:/Users/²Ü¼ÒºÀ/.iotlink/sdk/IoT_LINK/iot_link/network/lwm2m/wakaama_lwm2m/port\object_access_control.c ****         accCtrlRiP->accCtrlValue   = acValue;
 233:C:/Users/²Ü¼ÒºÀ/.iotlink/sdk/IoT_LINK/iot_link/network/lwm2m/wakaama_lwm2m/port\object_access_control.c ****         accCtrlOiP->accCtrlValList = (acc_ctrl_ri_t *)
 234:C:/Users/²Ü¼ÒºÀ/.iotlink/sdk/IoT_LINK/iot_link/network/lwm2m/wakaama_lwm2m/port\object_access_control.c ****                                      LWM2M_LIST_ADD(accCtrlOiP->accCtrlValList, accCtrlRiP);
 235:C:/Users/²Ü¼ÒºÀ/.iotlink/sdk/IoT_LINK/iot_link/network/lwm2m/wakaama_lwm2m/port\object_access_control.c ****         ret = true;
 236:C:/Users/²Ü¼ÒºÀ/.iotlink/sdk/IoT_LINK/iot_link/network/lwm2m/wakaama_lwm2m/port\object_access_control.c ****     }
 237:C:/Users/²Ü¼ÒºÀ/.iotlink/sdk/IoT_LINK/iot_link/network/lwm2m/wakaama_lwm2m/port\object_access_control.c **** 
 238:C:/Users/²Ü¼ÒºÀ/.iotlink/sdk/IoT_LINK/iot_link/network/lwm2m/wakaama_lwm2m/port\object_access_control.c ****     return ret;
 239:C:/Users/²Ü¼ÒºÀ/.iotlink/sdk/IoT_LINK/iot_link/network/lwm2m/wakaama_lwm2m/port\object_access_control.c **** }
 240:C:/Users/²Ü¼ÒºÀ/.iotlink/sdk/IoT_LINK/iot_link/network/lwm2m/wakaama_lwm2m/port\object_access_control.c **** 
 241:C:/Users/²Ü¼ÒºÀ/.iotlink/sdk/IoT_LINK/iot_link/network/lwm2m/wakaama_lwm2m/port\object_access_control.c **** static uint8_t prv_write_resources(uint16_t instanceId, int numData,
 242:C:/Users/²Ü¼ÒºÀ/.iotlink/sdk/IoT_LINK/iot_link/network/lwm2m/wakaama_lwm2m/port\object_access_control.c ****                                    lwm2m_data_t *tlvArray, lwm2m_object_t *objectP, bool doCreate)
 243:C:/Users/²Ü¼ÒºÀ/.iotlink/sdk/IoT_LINK/iot_link/network/lwm2m/wakaama_lwm2m/port\object_access_control.c **** {
 244:C:/Users/²Ü¼ÒºÀ/.iotlink/sdk/IoT_LINK/iot_link/network/lwm2m/wakaama_lwm2m/port\object_access_control.c ****     int i;
 245:C:/Users/²Ü¼ÒºÀ/.iotlink/sdk/IoT_LINK/iot_link/network/lwm2m/wakaama_lwm2m/port\object_access_control.c ****     uint8_t result = COAP_NO_ERROR;
 246:C:/Users/²Ü¼ÒºÀ/.iotlink/sdk/IoT_LINK/iot_link/network/lwm2m/wakaama_lwm2m/port\object_access_control.c ****     int64_t value;
 247:C:/Users/²Ü¼ÒºÀ/.iotlink/sdk/IoT_LINK/iot_link/network/lwm2m/wakaama_lwm2m/port\object_access_control.c ****     lwm2m_data_t *subTlvArray;
 248:C:/Users/²Ü¼ÒºÀ/.iotlink/sdk/IoT_LINK/iot_link/network/lwm2m/wakaama_lwm2m/port\object_access_control.c ****     int ri;
 249:C:/Users/²Ü¼ÒºÀ/.iotlink/sdk/IoT_LINK/iot_link/network/lwm2m/wakaama_lwm2m/port\object_access_control.c ****     acc_ctrl_oi_t *accCtrlOiP = (acc_ctrl_oi_t *)
 250:C:/Users/²Ü¼ÒºÀ/.iotlink/sdk/IoT_LINK/iot_link/network/lwm2m/wakaama_lwm2m/port\object_access_control.c ****                                 lwm2m_list_find(objectP->instanceList, instanceId);
 251:C:/Users/²Ü¼ÒºÀ/.iotlink/sdk/IoT_LINK/iot_link/network/lwm2m/wakaama_lwm2m/port\object_access_control.c **** 
 252:C:/Users/²Ü¼ÒºÀ/.iotlink/sdk/IoT_LINK/iot_link/network/lwm2m/wakaama_lwm2m/port\object_access_control.c ****     if (NULL == accCtrlOiP)
 253:C:/Users/²Ü¼ÒºÀ/.iotlink/sdk/IoT_LINK/iot_link/network/lwm2m/wakaama_lwm2m/port\object_access_control.c ****         return COAP_404_NOT_FOUND ;
 254:C:/Users/²Ü¼ÒºÀ/.iotlink/sdk/IoT_LINK/iot_link/network/lwm2m/wakaama_lwm2m/port\object_access_control.c **** 
 255:C:/Users/²Ü¼ÒºÀ/.iotlink/sdk/IoT_LINK/iot_link/network/lwm2m/wakaama_lwm2m/port\object_access_control.c ****     i = 0;
 256:C:/Users/²Ü¼ÒºÀ/.iotlink/sdk/IoT_LINK/iot_link/network/lwm2m/wakaama_lwm2m/port\object_access_control.c **** 
 257:C:/Users/²Ü¼ÒºÀ/.iotlink/sdk/IoT_LINK/iot_link/network/lwm2m/wakaama_lwm2m/port\object_access_control.c ****     do
 258:C:/Users/²Ü¼ÒºÀ/.iotlink/sdk/IoT_LINK/iot_link/network/lwm2m/wakaama_lwm2m/port\object_access_control.c ****     {
ARM GAS  C:\Users\²Ü¼ÒºÀ\AppData\Local\Temp\cc4d6LXN.s 			page 6


 259:C:/Users/²Ü¼ÒºÀ/.iotlink/sdk/IoT_LINK/iot_link/network/lwm2m/wakaama_lwm2m/port\object_access_control.c ****         switch (tlvArray[i].id)
 260:C:/Users/²Ü¼ÒºÀ/.iotlink/sdk/IoT_LINK/iot_link/network/lwm2m/wakaama_lwm2m/port\object_access_control.c ****         {
 261:C:/Users/²Ü¼ÒºÀ/.iotlink/sdk/IoT_LINK/iot_link/network/lwm2m/wakaama_lwm2m/port\object_access_control.c ****             case RES_M_OBJECT_ID:
 262:C:/Users/²Ü¼ÒºÀ/.iotlink/sdk/IoT_LINK/iot_link/network/lwm2m/wakaama_lwm2m/port\object_access_control.c ****                 if (false == doCreate)
 263:C:/Users/²Ü¼ÒºÀ/.iotlink/sdk/IoT_LINK/iot_link/network/lwm2m/wakaama_lwm2m/port\object_access_control.c ****                 {
 264:C:/Users/²Ü¼ÒºÀ/.iotlink/sdk/IoT_LINK/iot_link/network/lwm2m/wakaama_lwm2m/port\object_access_control.c ****                     result = COAP_405_METHOD_NOT_ALLOWED;
 265:C:/Users/²Ü¼ÒºÀ/.iotlink/sdk/IoT_LINK/iot_link/network/lwm2m/wakaama_lwm2m/port\object_access_control.c ****                 }
 266:C:/Users/²Ü¼ÒºÀ/.iotlink/sdk/IoT_LINK/iot_link/network/lwm2m/wakaama_lwm2m/port\object_access_control.c ****                 else
 267:C:/Users/²Ü¼ÒºÀ/.iotlink/sdk/IoT_LINK/iot_link/network/lwm2m/wakaama_lwm2m/port\object_access_control.c ****                 {
 268:C:/Users/²Ü¼ÒºÀ/.iotlink/sdk/IoT_LINK/iot_link/network/lwm2m/wakaama_lwm2m/port\object_access_control.c ****                     if (1 != lwm2m_data_decode_int(&tlvArray[i], &value))
 269:C:/Users/²Ü¼ÒºÀ/.iotlink/sdk/IoT_LINK/iot_link/network/lwm2m/wakaama_lwm2m/port\object_access_control.c ****                     {
 270:C:/Users/²Ü¼ÒºÀ/.iotlink/sdk/IoT_LINK/iot_link/network/lwm2m/wakaama_lwm2m/port\object_access_control.c ****                         result = COAP_400_BAD_REQUEST;
 271:C:/Users/²Ü¼ÒºÀ/.iotlink/sdk/IoT_LINK/iot_link/network/lwm2m/wakaama_lwm2m/port\object_access_control.c ****                     }
 272:C:/Users/²Ü¼ÒºÀ/.iotlink/sdk/IoT_LINK/iot_link/network/lwm2m/wakaama_lwm2m/port\object_access_control.c ****                     else if (value < 1 || value > 65534)
 273:C:/Users/²Ü¼ÒºÀ/.iotlink/sdk/IoT_LINK/iot_link/network/lwm2m/wakaama_lwm2m/port\object_access_control.c ****                     {
 274:C:/Users/²Ü¼ÒºÀ/.iotlink/sdk/IoT_LINK/iot_link/network/lwm2m/wakaama_lwm2m/port\object_access_control.c ****                         result = COAP_406_NOT_ACCEPTABLE;
 275:C:/Users/²Ü¼ÒºÀ/.iotlink/sdk/IoT_LINK/iot_link/network/lwm2m/wakaama_lwm2m/port\object_access_control.c ****                     }
 276:C:/Users/²Ü¼ÒºÀ/.iotlink/sdk/IoT_LINK/iot_link/network/lwm2m/wakaama_lwm2m/port\object_access_control.c ****                     else
 277:C:/Users/²Ü¼ÒºÀ/.iotlink/sdk/IoT_LINK/iot_link/network/lwm2m/wakaama_lwm2m/port\object_access_control.c ****                     {
 278:C:/Users/²Ü¼ÒºÀ/.iotlink/sdk/IoT_LINK/iot_link/network/lwm2m/wakaama_lwm2m/port\object_access_control.c ****                         accCtrlOiP->objectId = value;
 279:C:/Users/²Ü¼ÒºÀ/.iotlink/sdk/IoT_LINK/iot_link/network/lwm2m/wakaama_lwm2m/port\object_access_control.c ****                         result = COAP_204_CHANGED;
 280:C:/Users/²Ü¼ÒºÀ/.iotlink/sdk/IoT_LINK/iot_link/network/lwm2m/wakaama_lwm2m/port\object_access_control.c ****                     }
 281:C:/Users/²Ü¼ÒºÀ/.iotlink/sdk/IoT_LINK/iot_link/network/lwm2m/wakaama_lwm2m/port\object_access_control.c ****                 }
 282:C:/Users/²Ü¼ÒºÀ/.iotlink/sdk/IoT_LINK/iot_link/network/lwm2m/wakaama_lwm2m/port\object_access_control.c **** 
 283:C:/Users/²Ü¼ÒºÀ/.iotlink/sdk/IoT_LINK/iot_link/network/lwm2m/wakaama_lwm2m/port\object_access_control.c ****                 break;
 284:C:/Users/²Ü¼ÒºÀ/.iotlink/sdk/IoT_LINK/iot_link/network/lwm2m/wakaama_lwm2m/port\object_access_control.c **** 
 285:C:/Users/²Ü¼ÒºÀ/.iotlink/sdk/IoT_LINK/iot_link/network/lwm2m/wakaama_lwm2m/port\object_access_control.c ****             case RES_M_OBJECT_INSTANCE_ID:
 286:C:/Users/²Ü¼ÒºÀ/.iotlink/sdk/IoT_LINK/iot_link/network/lwm2m/wakaama_lwm2m/port\object_access_control.c ****                 if (false == doCreate)
 287:C:/Users/²Ü¼ÒºÀ/.iotlink/sdk/IoT_LINK/iot_link/network/lwm2m/wakaama_lwm2m/port\object_access_control.c ****                 {
 288:C:/Users/²Ü¼ÒºÀ/.iotlink/sdk/IoT_LINK/iot_link/network/lwm2m/wakaama_lwm2m/port\object_access_control.c ****                     result = COAP_405_METHOD_NOT_ALLOWED;
 289:C:/Users/²Ü¼ÒºÀ/.iotlink/sdk/IoT_LINK/iot_link/network/lwm2m/wakaama_lwm2m/port\object_access_control.c ****                 }
 290:C:/Users/²Ü¼ÒºÀ/.iotlink/sdk/IoT_LINK/iot_link/network/lwm2m/wakaama_lwm2m/port\object_access_control.c ****                 else
 291:C:/Users/²Ü¼ÒºÀ/.iotlink/sdk/IoT_LINK/iot_link/network/lwm2m/wakaama_lwm2m/port\object_access_control.c ****                 {
 292:C:/Users/²Ü¼ÒºÀ/.iotlink/sdk/IoT_LINK/iot_link/network/lwm2m/wakaama_lwm2m/port\object_access_control.c ****                     if (1 != lwm2m_data_decode_int(&tlvArray[i], &value))
 293:C:/Users/²Ü¼ÒºÀ/.iotlink/sdk/IoT_LINK/iot_link/network/lwm2m/wakaama_lwm2m/port\object_access_control.c ****                     {
 294:C:/Users/²Ü¼ÒºÀ/.iotlink/sdk/IoT_LINK/iot_link/network/lwm2m/wakaama_lwm2m/port\object_access_control.c ****                         result = COAP_400_BAD_REQUEST;
 295:C:/Users/²Ü¼ÒºÀ/.iotlink/sdk/IoT_LINK/iot_link/network/lwm2m/wakaama_lwm2m/port\object_access_control.c ****                     }
 296:C:/Users/²Ü¼ÒºÀ/.iotlink/sdk/IoT_LINK/iot_link/network/lwm2m/wakaama_lwm2m/port\object_access_control.c ****                     else if (value < 0 || value > MAX_DATA_VAL)
 297:C:/Users/²Ü¼ÒºÀ/.iotlink/sdk/IoT_LINK/iot_link/network/lwm2m/wakaama_lwm2m/port\object_access_control.c ****                     {
 298:C:/Users/²Ü¼ÒºÀ/.iotlink/sdk/IoT_LINK/iot_link/network/lwm2m/wakaama_lwm2m/port\object_access_control.c ****                         result = COAP_406_NOT_ACCEPTABLE;
 299:C:/Users/²Ü¼ÒºÀ/.iotlink/sdk/IoT_LINK/iot_link/network/lwm2m/wakaama_lwm2m/port\object_access_control.c ****                     }
 300:C:/Users/²Ü¼ÒºÀ/.iotlink/sdk/IoT_LINK/iot_link/network/lwm2m/wakaama_lwm2m/port\object_access_control.c ****                     else
 301:C:/Users/²Ü¼ÒºÀ/.iotlink/sdk/IoT_LINK/iot_link/network/lwm2m/wakaama_lwm2m/port\object_access_control.c ****                     {
 302:C:/Users/²Ü¼ÒºÀ/.iotlink/sdk/IoT_LINK/iot_link/network/lwm2m/wakaama_lwm2m/port\object_access_control.c ****                         accCtrlOiP->objectInstId = value;
 303:C:/Users/²Ü¼ÒºÀ/.iotlink/sdk/IoT_LINK/iot_link/network/lwm2m/wakaama_lwm2m/port\object_access_control.c ****                         result = COAP_204_CHANGED;
 304:C:/Users/²Ü¼ÒºÀ/.iotlink/sdk/IoT_LINK/iot_link/network/lwm2m/wakaama_lwm2m/port\object_access_control.c ****                     }
 305:C:/Users/²Ü¼ÒºÀ/.iotlink/sdk/IoT_LINK/iot_link/network/lwm2m/wakaama_lwm2m/port\object_access_control.c ****                 }
 306:C:/Users/²Ü¼ÒºÀ/.iotlink/sdk/IoT_LINK/iot_link/network/lwm2m/wakaama_lwm2m/port\object_access_control.c **** 
 307:C:/Users/²Ü¼ÒºÀ/.iotlink/sdk/IoT_LINK/iot_link/network/lwm2m/wakaama_lwm2m/port\object_access_control.c ****                 break;
 308:C:/Users/²Ü¼ÒºÀ/.iotlink/sdk/IoT_LINK/iot_link/network/lwm2m/wakaama_lwm2m/port\object_access_control.c **** 
 309:C:/Users/²Ü¼ÒºÀ/.iotlink/sdk/IoT_LINK/iot_link/network/lwm2m/wakaama_lwm2m/port\object_access_control.c ****             case RES_O_ACL:
 310:C:/Users/²Ü¼ÒºÀ/.iotlink/sdk/IoT_LINK/iot_link/network/lwm2m/wakaama_lwm2m/port\object_access_control.c ****             {
 311:C:/Users/²Ü¼ÒºÀ/.iotlink/sdk/IoT_LINK/iot_link/network/lwm2m/wakaama_lwm2m/port\object_access_control.c ****                 if (LWM2M_TYPE_MULTIPLE_RESOURCE != tlvArray[i].type)
 312:C:/Users/²Ü¼ÒºÀ/.iotlink/sdk/IoT_LINK/iot_link/network/lwm2m/wakaama_lwm2m/port\object_access_control.c ****                 {
 313:C:/Users/²Ü¼ÒºÀ/.iotlink/sdk/IoT_LINK/iot_link/network/lwm2m/wakaama_lwm2m/port\object_access_control.c ****                     result = COAP_400_BAD_REQUEST;
 314:C:/Users/²Ü¼ÒºÀ/.iotlink/sdk/IoT_LINK/iot_link/network/lwm2m/wakaama_lwm2m/port\object_access_control.c ****                 }
 315:C:/Users/²Ü¼ÒºÀ/.iotlink/sdk/IoT_LINK/iot_link/network/lwm2m/wakaama_lwm2m/port\object_access_control.c ****                 else
ARM GAS  C:\Users\²Ü¼ÒºÀ\AppData\Local\Temp\cc4d6LXN.s 			page 7


 316:C:/Users/²Ü¼ÒºÀ/.iotlink/sdk/IoT_LINK/iot_link/network/lwm2m/wakaama_lwm2m/port\object_access_control.c ****                 {
 317:C:/Users/²Ü¼ÒºÀ/.iotlink/sdk/IoT_LINK/iot_link/network/lwm2m/wakaama_lwm2m/port\object_access_control.c ****                     // MR-Write: Replace-implementation variant only
 318:C:/Users/²Ü¼ÒºÀ/.iotlink/sdk/IoT_LINK/iot_link/network/lwm2m/wakaama_lwm2m/port\object_access_control.c ****                     // see LWM2M-TS:5.4.3 (wakaama has no part-update switch)
 319:C:/Users/²Ü¼ÒºÀ/.iotlink/sdk/IoT_LINK/iot_link/network/lwm2m/wakaama_lwm2m/port\object_access_control.c ****                     // 1st: save accValueList!
 320:C:/Users/²Ü¼ÒºÀ/.iotlink/sdk/IoT_LINK/iot_link/network/lwm2m/wakaama_lwm2m/port\object_access_control.c ****                     acc_ctrl_ri_t *acValListSave = accCtrlOiP->accCtrlValList;
 321:C:/Users/²Ü¼ÒºÀ/.iotlink/sdk/IoT_LINK/iot_link/network/lwm2m/wakaama_lwm2m/port\object_access_control.c ****                     accCtrlOiP->accCtrlValList = NULL;
 322:C:/Users/²Ü¼ÒºÀ/.iotlink/sdk/IoT_LINK/iot_link/network/lwm2m/wakaama_lwm2m/port\object_access_control.c ****                     subTlvArray = tlvArray[i].value.asChildren.array;
 323:C:/Users/²Ü¼ÒºÀ/.iotlink/sdk/IoT_LINK/iot_link/network/lwm2m/wakaama_lwm2m/port\object_access_control.c **** 
 324:C:/Users/²Ü¼ÒºÀ/.iotlink/sdk/IoT_LINK/iot_link/network/lwm2m/wakaama_lwm2m/port\object_access_control.c ****                     if (0 == tlvArray[i].value.asChildren.count)
 325:C:/Users/²Ü¼ÒºÀ/.iotlink/sdk/IoT_LINK/iot_link/network/lwm2m/wakaama_lwm2m/port\object_access_control.c ****                     {
 326:C:/Users/²Ü¼ÒºÀ/.iotlink/sdk/IoT_LINK/iot_link/network/lwm2m/wakaama_lwm2m/port\object_access_control.c ****                         result = COAP_204_CHANGED;
 327:C:/Users/²Ü¼ÒºÀ/.iotlink/sdk/IoT_LINK/iot_link/network/lwm2m/wakaama_lwm2m/port\object_access_control.c ****                     }
 328:C:/Users/²Ü¼ÒºÀ/.iotlink/sdk/IoT_LINK/iot_link/network/lwm2m/wakaama_lwm2m/port\object_access_control.c ****                     else if (NULL == subTlvArray)
 329:C:/Users/²Ü¼ÒºÀ/.iotlink/sdk/IoT_LINK/iot_link/network/lwm2m/wakaama_lwm2m/port\object_access_control.c ****                     {
 330:C:/Users/²Ü¼ÒºÀ/.iotlink/sdk/IoT_LINK/iot_link/network/lwm2m/wakaama_lwm2m/port\object_access_control.c ****                         result = COAP_400_BAD_REQUEST;
 331:C:/Users/²Ü¼ÒºÀ/.iotlink/sdk/IoT_LINK/iot_link/network/lwm2m/wakaama_lwm2m/port\object_access_control.c ****                     }
 332:C:/Users/²Ü¼ÒºÀ/.iotlink/sdk/IoT_LINK/iot_link/network/lwm2m/wakaama_lwm2m/port\object_access_control.c ****                     else
 333:C:/Users/²Ü¼ÒºÀ/.iotlink/sdk/IoT_LINK/iot_link/network/lwm2m/wakaama_lwm2m/port\object_access_control.c ****                     {
 334:C:/Users/²Ü¼ÒºÀ/.iotlink/sdk/IoT_LINK/iot_link/network/lwm2m/wakaama_lwm2m/port\object_access_control.c ****                         for (ri = 0; (size_t)ri < tlvArray[i].value.asChildren.count; ri++)
 335:C:/Users/²Ü¼ÒºÀ/.iotlink/sdk/IoT_LINK/iot_link/network/lwm2m/wakaama_lwm2m/port\object_access_control.c ****                         {
 336:C:/Users/²Ü¼ÒºÀ/.iotlink/sdk/IoT_LINK/iot_link/network/lwm2m/wakaama_lwm2m/port\object_access_control.c ****                             if (1 != lwm2m_data_decode_int(&subTlvArray[ri], &value))
 337:C:/Users/²Ü¼ÒºÀ/.iotlink/sdk/IoT_LINK/iot_link/network/lwm2m/wakaama_lwm2m/port\object_access_control.c ****                             {
 338:C:/Users/²Ü¼ÒºÀ/.iotlink/sdk/IoT_LINK/iot_link/network/lwm2m/wakaama_lwm2m/port\object_access_control.c ****                                 result = COAP_400_BAD_REQUEST;
 339:C:/Users/²Ü¼ÒºÀ/.iotlink/sdk/IoT_LINK/iot_link/network/lwm2m/wakaama_lwm2m/port\object_access_control.c ****                                 break;
 340:C:/Users/²Ü¼ÒºÀ/.iotlink/sdk/IoT_LINK/iot_link/network/lwm2m/wakaama_lwm2m/port\object_access_control.c ****                             }
 341:C:/Users/²Ü¼ÒºÀ/.iotlink/sdk/IoT_LINK/iot_link/network/lwm2m/wakaama_lwm2m/port\object_access_control.c ****                             else if (value < 0 || value > 0xFFFF)
 342:C:/Users/²Ü¼ÒºÀ/.iotlink/sdk/IoT_LINK/iot_link/network/lwm2m/wakaama_lwm2m/port\object_access_control.c ****                             {
 343:C:/Users/²Ü¼ÒºÀ/.iotlink/sdk/IoT_LINK/iot_link/network/lwm2m/wakaama_lwm2m/port\object_access_control.c ****                                 result = COAP_406_NOT_ACCEPTABLE;
 344:C:/Users/²Ü¼ÒºÀ/.iotlink/sdk/IoT_LINK/iot_link/network/lwm2m/wakaama_lwm2m/port\object_access_control.c ****                                 break;
 345:C:/Users/²Ü¼ÒºÀ/.iotlink/sdk/IoT_LINK/iot_link/network/lwm2m/wakaama_lwm2m/port\object_access_control.c ****                             }
 346:C:/Users/²Ü¼ÒºÀ/.iotlink/sdk/IoT_LINK/iot_link/network/lwm2m/wakaama_lwm2m/port\object_access_control.c ****                             else if (!prv_add_ac_val(accCtrlOiP, subTlvArray[ri].id,
 347:C:/Users/²Ü¼ÒºÀ/.iotlink/sdk/IoT_LINK/iot_link/network/lwm2m/wakaama_lwm2m/port\object_access_control.c ****                                                      (uint16_t)value))
 348:C:/Users/²Ü¼ÒºÀ/.iotlink/sdk/IoT_LINK/iot_link/network/lwm2m/wakaama_lwm2m/port\object_access_control.c ****                             {
 349:C:/Users/²Ü¼ÒºÀ/.iotlink/sdk/IoT_LINK/iot_link/network/lwm2m/wakaama_lwm2m/port\object_access_control.c ****                                 result = COAP_500_INTERNAL_SERVER_ERROR;
 350:C:/Users/²Ü¼ÒºÀ/.iotlink/sdk/IoT_LINK/iot_link/network/lwm2m/wakaama_lwm2m/port\object_access_control.c ****                                 break;
 351:C:/Users/²Ü¼ÒºÀ/.iotlink/sdk/IoT_LINK/iot_link/network/lwm2m/wakaama_lwm2m/port\object_access_control.c ****                             }
 352:C:/Users/²Ü¼ÒºÀ/.iotlink/sdk/IoT_LINK/iot_link/network/lwm2m/wakaama_lwm2m/port\object_access_control.c ****                             else
 353:C:/Users/²Ü¼ÒºÀ/.iotlink/sdk/IoT_LINK/iot_link/network/lwm2m/wakaama_lwm2m/port\object_access_control.c ****                             {
 354:C:/Users/²Ü¼ÒºÀ/.iotlink/sdk/IoT_LINK/iot_link/network/lwm2m/wakaama_lwm2m/port\object_access_control.c ****                                 result = COAP_204_CHANGED;
 355:C:/Users/²Ü¼ÒºÀ/.iotlink/sdk/IoT_LINK/iot_link/network/lwm2m/wakaama_lwm2m/port\object_access_control.c ****                             }
 356:C:/Users/²Ü¼ÒºÀ/.iotlink/sdk/IoT_LINK/iot_link/network/lwm2m/wakaama_lwm2m/port\object_access_control.c ****                         }
 357:C:/Users/²Ü¼ÒºÀ/.iotlink/sdk/IoT_LINK/iot_link/network/lwm2m/wakaama_lwm2m/port\object_access_control.c ****                     }
 358:C:/Users/²Ü¼ÒºÀ/.iotlink/sdk/IoT_LINK/iot_link/network/lwm2m/wakaama_lwm2m/port\object_access_control.c **** 
 359:C:/Users/²Ü¼ÒºÀ/.iotlink/sdk/IoT_LINK/iot_link/network/lwm2m/wakaama_lwm2m/port\object_access_control.c ****                     if (COAP_204_CHANGED != result)
 360:C:/Users/²Ü¼ÒºÀ/.iotlink/sdk/IoT_LINK/iot_link/network/lwm2m/wakaama_lwm2m/port\object_access_control.c ****                     {
 361:C:/Users/²Ü¼ÒºÀ/.iotlink/sdk/IoT_LINK/iot_link/network/lwm2m/wakaama_lwm2m/port\object_access_control.c ****                         // free pot. partial created new ones
 362:C:/Users/²Ü¼ÒºÀ/.iotlink/sdk/IoT_LINK/iot_link/network/lwm2m/wakaama_lwm2m/port\object_access_control.c ****                         LWM2M_LIST_FREE(accCtrlOiP->accCtrlValList);
 363:C:/Users/²Ü¼ÒºÀ/.iotlink/sdk/IoT_LINK/iot_link/network/lwm2m/wakaama_lwm2m/port\object_access_control.c ****                         // restore old values:
 364:C:/Users/²Ü¼ÒºÀ/.iotlink/sdk/IoT_LINK/iot_link/network/lwm2m/wakaama_lwm2m/port\object_access_control.c ****                         accCtrlOiP->accCtrlValList = acValListSave;
 365:C:/Users/²Ü¼ÒºÀ/.iotlink/sdk/IoT_LINK/iot_link/network/lwm2m/wakaama_lwm2m/port\object_access_control.c ****                     }
 366:C:/Users/²Ü¼ÒºÀ/.iotlink/sdk/IoT_LINK/iot_link/network/lwm2m/wakaama_lwm2m/port\object_access_control.c ****                     else
 367:C:/Users/²Ü¼ÒºÀ/.iotlink/sdk/IoT_LINK/iot_link/network/lwm2m/wakaama_lwm2m/port\object_access_control.c ****                     {
 368:C:/Users/²Ü¼ÒºÀ/.iotlink/sdk/IoT_LINK/iot_link/network/lwm2m/wakaama_lwm2m/port\object_access_control.c ****                         // final free saved value list
 369:C:/Users/²Ü¼ÒºÀ/.iotlink/sdk/IoT_LINK/iot_link/network/lwm2m/wakaama_lwm2m/port\object_access_control.c ****                         LWM2M_LIST_FREE(acValListSave);
 370:C:/Users/²Ü¼ÒºÀ/.iotlink/sdk/IoT_LINK/iot_link/network/lwm2m/wakaama_lwm2m/port\object_access_control.c ****                     }
 371:C:/Users/²Ü¼ÒºÀ/.iotlink/sdk/IoT_LINK/iot_link/network/lwm2m/wakaama_lwm2m/port\object_access_control.c ****                 }
 372:C:/Users/²Ü¼ÒºÀ/.iotlink/sdk/IoT_LINK/iot_link/network/lwm2m/wakaama_lwm2m/port\object_access_control.c ****             }
ARM GAS  C:\Users\²Ü¼ÒºÀ\AppData\Local\Temp\cc4d6LXN.s 			page 8


 373:C:/Users/²Ü¼ÒºÀ/.iotlink/sdk/IoT_LINK/iot_link/network/lwm2m/wakaama_lwm2m/port\object_access_control.c ****             break;
 374:C:/Users/²Ü¼ÒºÀ/.iotlink/sdk/IoT_LINK/iot_link/network/lwm2m/wakaama_lwm2m/port\object_access_control.c **** 
 375:C:/Users/²Ü¼ÒºÀ/.iotlink/sdk/IoT_LINK/iot_link/network/lwm2m/wakaama_lwm2m/port\object_access_control.c ****             case RES_M_ACCESS_CONTROL_OWNER:
 376:C:/Users/²Ü¼ÒºÀ/.iotlink/sdk/IoT_LINK/iot_link/network/lwm2m/wakaama_lwm2m/port\object_access_control.c ****             {
 377:C:/Users/²Ü¼ÒºÀ/.iotlink/sdk/IoT_LINK/iot_link/network/lwm2m/wakaama_lwm2m/port\object_access_control.c ****                 if (1 == lwm2m_data_decode_int(tlvArray + i, &value))
 378:C:/Users/²Ü¼ÒºÀ/.iotlink/sdk/IoT_LINK/iot_link/network/lwm2m/wakaama_lwm2m/port\object_access_control.c ****                 {
 379:C:/Users/²Ü¼ÒºÀ/.iotlink/sdk/IoT_LINK/iot_link/network/lwm2m/wakaama_lwm2m/port\object_access_control.c ****                     if (value >= 0 && value <= MAX_DATA_VAL)
 380:C:/Users/²Ü¼ÒºÀ/.iotlink/sdk/IoT_LINK/iot_link/network/lwm2m/wakaama_lwm2m/port\object_access_control.c ****                     {
 381:C:/Users/²Ü¼ÒºÀ/.iotlink/sdk/IoT_LINK/iot_link/network/lwm2m/wakaama_lwm2m/port\object_access_control.c ****                         accCtrlOiP->accCtrlOwner = value;
 382:C:/Users/²Ü¼ÒºÀ/.iotlink/sdk/IoT_LINK/iot_link/network/lwm2m/wakaama_lwm2m/port\object_access_control.c ****                         result = COAP_204_CHANGED;
 383:C:/Users/²Ü¼ÒºÀ/.iotlink/sdk/IoT_LINK/iot_link/network/lwm2m/wakaama_lwm2m/port\object_access_control.c ****                     }
 384:C:/Users/²Ü¼ÒºÀ/.iotlink/sdk/IoT_LINK/iot_link/network/lwm2m/wakaama_lwm2m/port\object_access_control.c ****                     else
 385:C:/Users/²Ü¼ÒºÀ/.iotlink/sdk/IoT_LINK/iot_link/network/lwm2m/wakaama_lwm2m/port\object_access_control.c ****                     {
 386:C:/Users/²Ü¼ÒºÀ/.iotlink/sdk/IoT_LINK/iot_link/network/lwm2m/wakaama_lwm2m/port\object_access_control.c ****                         result = COAP_406_NOT_ACCEPTABLE;
 387:C:/Users/²Ü¼ÒºÀ/.iotlink/sdk/IoT_LINK/iot_link/network/lwm2m/wakaama_lwm2m/port\object_access_control.c ****                     }
 388:C:/Users/²Ü¼ÒºÀ/.iotlink/sdk/IoT_LINK/iot_link/network/lwm2m/wakaama_lwm2m/port\object_access_control.c ****                 }
 389:C:/Users/²Ü¼ÒºÀ/.iotlink/sdk/IoT_LINK/iot_link/network/lwm2m/wakaama_lwm2m/port\object_access_control.c ****                 else
 390:C:/Users/²Ü¼ÒºÀ/.iotlink/sdk/IoT_LINK/iot_link/network/lwm2m/wakaama_lwm2m/port\object_access_control.c ****                 {
 391:C:/Users/²Ü¼ÒºÀ/.iotlink/sdk/IoT_LINK/iot_link/network/lwm2m/wakaama_lwm2m/port\object_access_control.c ****                     result = COAP_400_BAD_REQUEST;
 392:C:/Users/²Ü¼ÒºÀ/.iotlink/sdk/IoT_LINK/iot_link/network/lwm2m/wakaama_lwm2m/port\object_access_control.c ****                 }
 393:C:/Users/²Ü¼ÒºÀ/.iotlink/sdk/IoT_LINK/iot_link/network/lwm2m/wakaama_lwm2m/port\object_access_control.c ****             }
 394:C:/Users/²Ü¼ÒºÀ/.iotlink/sdk/IoT_LINK/iot_link/network/lwm2m/wakaama_lwm2m/port\object_access_control.c ****             break;
 395:C:/Users/²Ü¼ÒºÀ/.iotlink/sdk/IoT_LINK/iot_link/network/lwm2m/wakaama_lwm2m/port\object_access_control.c **** 
 396:C:/Users/²Ü¼ÒºÀ/.iotlink/sdk/IoT_LINK/iot_link/network/lwm2m/wakaama_lwm2m/port\object_access_control.c ****             default:
 397:C:/Users/²Ü¼ÒºÀ/.iotlink/sdk/IoT_LINK/iot_link/network/lwm2m/wakaama_lwm2m/port\object_access_control.c ****                 return COAP_404_NOT_FOUND ;
 398:C:/Users/²Ü¼ÒºÀ/.iotlink/sdk/IoT_LINK/iot_link/network/lwm2m/wakaama_lwm2m/port\object_access_control.c ****         }
 399:C:/Users/²Ü¼ÒºÀ/.iotlink/sdk/IoT_LINK/iot_link/network/lwm2m/wakaama_lwm2m/port\object_access_control.c **** 
 400:C:/Users/²Ü¼ÒºÀ/.iotlink/sdk/IoT_LINK/iot_link/network/lwm2m/wakaama_lwm2m/port\object_access_control.c ****         i++;
 401:C:/Users/²Ü¼ÒºÀ/.iotlink/sdk/IoT_LINK/iot_link/network/lwm2m/wakaama_lwm2m/port\object_access_control.c ****     }
 402:C:/Users/²Ü¼ÒºÀ/.iotlink/sdk/IoT_LINK/iot_link/network/lwm2m/wakaama_lwm2m/port\object_access_control.c ****     while (i < numData && result == COAP_204_CHANGED);
 403:C:/Users/²Ü¼ÒºÀ/.iotlink/sdk/IoT_LINK/iot_link/network/lwm2m/wakaama_lwm2m/port\object_access_control.c **** 
 404:C:/Users/²Ü¼ÒºÀ/.iotlink/sdk/IoT_LINK/iot_link/network/lwm2m/wakaama_lwm2m/port\object_access_control.c ****     return result;
 405:C:/Users/²Ü¼ÒºÀ/.iotlink/sdk/IoT_LINK/iot_link/network/lwm2m/wakaama_lwm2m/port\object_access_control.c **** }
 406:C:/Users/²Ü¼ÒºÀ/.iotlink/sdk/IoT_LINK/iot_link/network/lwm2m/wakaama_lwm2m/port\object_access_control.c **** 
 407:C:/Users/²Ü¼ÒºÀ/.iotlink/sdk/IoT_LINK/iot_link/network/lwm2m/wakaama_lwm2m/port\object_access_control.c **** static uint8_t prv_write(uint16_t instanceId, int numData,
 408:C:/Users/²Ü¼ÒºÀ/.iotlink/sdk/IoT_LINK/iot_link/network/lwm2m/wakaama_lwm2m/port\object_access_control.c ****                          lwm2m_data_t *tlvArray, lwm2m_object_t *objectP)
 409:C:/Users/²Ü¼ÒºÀ/.iotlink/sdk/IoT_LINK/iot_link/network/lwm2m/wakaama_lwm2m/port\object_access_control.c **** {
 410:C:/Users/²Ü¼ÒºÀ/.iotlink/sdk/IoT_LINK/iot_link/network/lwm2m/wakaama_lwm2m/port\object_access_control.c ****     return prv_write_resources(instanceId, numData, tlvArray, objectP, false);
 411:C:/Users/²Ü¼ÒºÀ/.iotlink/sdk/IoT_LINK/iot_link/network/lwm2m/wakaama_lwm2m/port\object_access_control.c **** }
 412:C:/Users/²Ü¼ÒºÀ/.iotlink/sdk/IoT_LINK/iot_link/network/lwm2m/wakaama_lwm2m/port\object_access_control.c **** 
 413:C:/Users/²Ü¼ÒºÀ/.iotlink/sdk/IoT_LINK/iot_link/network/lwm2m/wakaama_lwm2m/port\object_access_control.c **** static uint8_t prv_delete(uint16_t id, lwm2m_object_t *objectP)
 414:C:/Users/²Ü¼ÒºÀ/.iotlink/sdk/IoT_LINK/iot_link/network/lwm2m/wakaama_lwm2m/port\object_access_control.c **** {
  29              		.loc 1 414 1 view -0
  30              		.cfi_startproc
  31              		@ args = 0, pretend = 0, frame = 8
  32              		@ frame_needed = 0, uses_anonymous_args = 0
 415:C:/Users/²Ü¼ÒºÀ/.iotlink/sdk/IoT_LINK/iot_link/network/lwm2m/wakaama_lwm2m/port\object_access_control.c ****     acc_ctrl_oi_t *targetP;
  33              		.loc 1 415 5 view .LVU1
 416:C:/Users/²Ü¼ÒºÀ/.iotlink/sdk/IoT_LINK/iot_link/network/lwm2m/wakaama_lwm2m/port\object_access_control.c ****     objectP->instanceList = lwm2m_list_remove(objectP->instanceList, id,
  34              		.loc 1 416 5 view .LVU2
 414:C:/Users/²Ü¼ÒºÀ/.iotlink/sdk/IoT_LINK/iot_link/network/lwm2m/wakaama_lwm2m/port\object_access_control.c ****     acc_ctrl_oi_t *targetP;
  35              		.loc 1 414 1 is_stmt 0 view .LVU3
  36 0000 13B5     		push	{r0, r1, r4, lr}
  37              	.LCFI0:
  38              		.cfi_def_cfa_offset 16
  39              		.cfi_offset 4, -8
  40              		.cfi_offset 14, -4
ARM GAS  C:\Users\²Ü¼ÒºÀ\AppData\Local\Temp\cc4d6LXN.s 			page 9


 414:C:/Users/²Ü¼ÒºÀ/.iotlink/sdk/IoT_LINK/iot_link/network/lwm2m/wakaama_lwm2m/port\object_access_control.c ****     acc_ctrl_oi_t *targetP;
  41              		.loc 1 414 1 view .LVU4
  42 0002 0C46     		mov	r4, r1
  43              		.loc 1 416 29 view .LVU5
  44 0004 01AA     		add	r2, sp, #4
  45 0006 0146     		mov	r1, r0
  46              	.LVL1:
  47              		.loc 1 416 29 view .LVU6
  48 0008 A068     		ldr	r0, [r4, #8]
  49              	.LVL2:
  50              		.loc 1 416 29 view .LVU7
  51 000a FFF7FEFF 		bl	lwm2m_list_remove
  52              	.LVL3:
 417:C:/Users/²Ü¼ÒºÀ/.iotlink/sdk/IoT_LINK/iot_link/network/lwm2m/wakaama_lwm2m/port\object_access_control.c ****                             (lwm2m_list_t **)&targetP);
 418:C:/Users/²Ü¼ÒºÀ/.iotlink/sdk/IoT_LINK/iot_link/network/lwm2m/wakaama_lwm2m/port\object_access_control.c **** 
 419:C:/Users/²Ü¼ÒºÀ/.iotlink/sdk/IoT_LINK/iot_link/network/lwm2m/wakaama_lwm2m/port\object_access_control.c ****     if (NULL == targetP) return COAP_404_NOT_FOUND;
  53              		.loc 1 419 14 view .LVU8
  54 000e 019B     		ldr	r3, [sp, #4]
 416:C:/Users/²Ü¼ÒºÀ/.iotlink/sdk/IoT_LINK/iot_link/network/lwm2m/wakaama_lwm2m/port\object_access_control.c ****                             (lwm2m_list_t **)&targetP);
  55              		.loc 1 416 27 view .LVU9
  56 0010 A060     		str	r0, [r4, #8]
  57              		.loc 1 419 5 is_stmt 1 view .LVU10
  58              		.loc 1 419 8 is_stmt 0 view .LVU11
  59 0012 43B1     		cbz	r3, .L3
 420:C:/Users/²Ü¼ÒºÀ/.iotlink/sdk/IoT_LINK/iot_link/network/lwm2m/wakaama_lwm2m/port\object_access_control.c **** 
 421:C:/Users/²Ü¼ÒºÀ/.iotlink/sdk/IoT_LINK/iot_link/network/lwm2m/wakaama_lwm2m/port\object_access_control.c ****     LWM2M_LIST_FREE(targetP->accCtrlValList);
  60              		.loc 1 421 5 is_stmt 1 view .LVU12
  61 0014 D868     		ldr	r0, [r3, #12]
  62 0016 FFF7FEFF 		bl	lwm2m_list_free
  63              	.LVL4:
 422:C:/Users/²Ü¼ÒºÀ/.iotlink/sdk/IoT_LINK/iot_link/network/lwm2m/wakaama_lwm2m/port\object_access_control.c ****     lwm2m_free(targetP);
  64              		.loc 1 422 5 view .LVU13
  65 001a 0198     		ldr	r0, [sp, #4]
  66 001c FFF7FEFF 		bl	lwm2m_free
  67              	.LVL5:
 423:C:/Users/²Ü¼ÒºÀ/.iotlink/sdk/IoT_LINK/iot_link/network/lwm2m/wakaama_lwm2m/port\object_access_control.c ****     return COAP_202_DELETED;
  68              		.loc 1 423 5 view .LVU14
  69              		.loc 1 423 12 is_stmt 0 view .LVU15
  70 0020 4220     		movs	r0, #66
  71              	.L2:
 424:C:/Users/²Ü¼ÒºÀ/.iotlink/sdk/IoT_LINK/iot_link/network/lwm2m/wakaama_lwm2m/port\object_access_control.c **** }
  72              		.loc 1 424 1 view .LVU16
  73 0022 02B0     		add	sp, sp, #8
  74              	.LCFI1:
  75              		.cfi_remember_state
  76              		.cfi_def_cfa_offset 8
  77              		@ sp needed
  78 0024 10BD     		pop	{r4, pc}
  79              	.LVL6:
  80              	.L3:
  81              	.LCFI2:
  82              		.cfi_restore_state
 419:C:/Users/²Ü¼ÒºÀ/.iotlink/sdk/IoT_LINK/iot_link/network/lwm2m/wakaama_lwm2m/port\object_access_control.c **** 
  83              		.loc 1 419 33 view .LVU17
  84 0026 8420     		movs	r0, #132
  85 0028 FBE7     		b	.L2
  86              		.cfi_endproc
ARM GAS  C:\Users\²Ü¼ÒºÀ\AppData\Local\Temp\cc4d6LXN.s 			page 10


  87              	.LFE17:
  89              		.section	.text.prv_check_instance_auth,"ax",%progbits
  90              		.align	1
  91              		.syntax unified
  92              		.thumb
  93              		.thumb_func
  94              		.fpu fpv4-sp-d16
  96              	prv_check_instance_auth:
  97              	.LVL7:
  98              	.LFB27:
 425:C:/Users/²Ü¼ÒºÀ/.iotlink/sdk/IoT_LINK/iot_link/network/lwm2m/wakaama_lwm2m/port\object_access_control.c **** 
 426:C:/Users/²Ü¼ÒºÀ/.iotlink/sdk/IoT_LINK/iot_link/network/lwm2m/wakaama_lwm2m/port\object_access_control.c **** static uint8_t prv_create(uint16_t objInstId, int numData,
 427:C:/Users/²Ü¼ÒºÀ/.iotlink/sdk/IoT_LINK/iot_link/network/lwm2m/wakaama_lwm2m/port\object_access_control.c ****                           lwm2m_data_t *tlvArray, lwm2m_object_t *objectP)
 428:C:/Users/²Ü¼ÒºÀ/.iotlink/sdk/IoT_LINK/iot_link/network/lwm2m/wakaama_lwm2m/port\object_access_control.c **** {
 429:C:/Users/²Ü¼ÒºÀ/.iotlink/sdk/IoT_LINK/iot_link/network/lwm2m/wakaama_lwm2m/port\object_access_control.c ****     acc_ctrl_oi_t *targetP;
 430:C:/Users/²Ü¼ÒºÀ/.iotlink/sdk/IoT_LINK/iot_link/network/lwm2m/wakaama_lwm2m/port\object_access_control.c ****     uint8_t result;
 431:C:/Users/²Ü¼ÒºÀ/.iotlink/sdk/IoT_LINK/iot_link/network/lwm2m/wakaama_lwm2m/port\object_access_control.c ****     targetP = (acc_ctrl_oi_t *)lwm2m_malloc(sizeof(acc_ctrl_oi_t));
 432:C:/Users/²Ü¼ÒºÀ/.iotlink/sdk/IoT_LINK/iot_link/network/lwm2m/wakaama_lwm2m/port\object_access_control.c **** 
 433:C:/Users/²Ü¼ÒºÀ/.iotlink/sdk/IoT_LINK/iot_link/network/lwm2m/wakaama_lwm2m/port\object_access_control.c ****     if (NULL == targetP) return COAP_500_INTERNAL_SERVER_ERROR;
 434:C:/Users/²Ü¼ÒºÀ/.iotlink/sdk/IoT_LINK/iot_link/network/lwm2m/wakaama_lwm2m/port\object_access_control.c **** 
 435:C:/Users/²Ü¼ÒºÀ/.iotlink/sdk/IoT_LINK/iot_link/network/lwm2m/wakaama_lwm2m/port\object_access_control.c ****     (void) memset(targetP, 0, sizeof(acc_ctrl_oi_t));
 436:C:/Users/²Ü¼ÒºÀ/.iotlink/sdk/IoT_LINK/iot_link/network/lwm2m/wakaama_lwm2m/port\object_access_control.c ****     targetP->objInstId    = objInstId;
 437:C:/Users/²Ü¼ÒºÀ/.iotlink/sdk/IoT_LINK/iot_link/network/lwm2m/wakaama_lwm2m/port\object_access_control.c ****     objectP->instanceList = LWM2M_LIST_ADD(objectP->instanceList, targetP);
 438:C:/Users/²Ü¼ÒºÀ/.iotlink/sdk/IoT_LINK/iot_link/network/lwm2m/wakaama_lwm2m/port\object_access_control.c ****     result = prv_write_resources(objInstId, numData, tlvArray, objectP, true);
 439:C:/Users/²Ü¼ÒºÀ/.iotlink/sdk/IoT_LINK/iot_link/network/lwm2m/wakaama_lwm2m/port\object_access_control.c **** 
 440:C:/Users/²Ü¼ÒºÀ/.iotlink/sdk/IoT_LINK/iot_link/network/lwm2m/wakaama_lwm2m/port\object_access_control.c ****     if (COAP_204_CHANGED != result)
 441:C:/Users/²Ü¼ÒºÀ/.iotlink/sdk/IoT_LINK/iot_link/network/lwm2m/wakaama_lwm2m/port\object_access_control.c ****     {
 442:C:/Users/²Ü¼ÒºÀ/.iotlink/sdk/IoT_LINK/iot_link/network/lwm2m/wakaama_lwm2m/port\object_access_control.c ****         (void)prv_delete(objInstId, objectP);
 443:C:/Users/²Ü¼ÒºÀ/.iotlink/sdk/IoT_LINK/iot_link/network/lwm2m/wakaama_lwm2m/port\object_access_control.c ****     }
 444:C:/Users/²Ü¼ÒºÀ/.iotlink/sdk/IoT_LINK/iot_link/network/lwm2m/wakaama_lwm2m/port\object_access_control.c ****     else
 445:C:/Users/²Ü¼ÒºÀ/.iotlink/sdk/IoT_LINK/iot_link/network/lwm2m/wakaama_lwm2m/port\object_access_control.c ****     {
 446:C:/Users/²Ü¼ÒºÀ/.iotlink/sdk/IoT_LINK/iot_link/network/lwm2m/wakaama_lwm2m/port\object_access_control.c ****         result = COAP_201_CREATED;
 447:C:/Users/²Ü¼ÒºÀ/.iotlink/sdk/IoT_LINK/iot_link/network/lwm2m/wakaama_lwm2m/port\object_access_control.c ****     }
 448:C:/Users/²Ü¼ÒºÀ/.iotlink/sdk/IoT_LINK/iot_link/network/lwm2m/wakaama_lwm2m/port\object_access_control.c **** 
 449:C:/Users/²Ü¼ÒºÀ/.iotlink/sdk/IoT_LINK/iot_link/network/lwm2m/wakaama_lwm2m/port\object_access_control.c ****     return result;
 450:C:/Users/²Ü¼ÒºÀ/.iotlink/sdk/IoT_LINK/iot_link/network/lwm2m/wakaama_lwm2m/port\object_access_control.c **** }
 451:C:/Users/²Ü¼ÒºÀ/.iotlink/sdk/IoT_LINK/iot_link/network/lwm2m/wakaama_lwm2m/port\object_access_control.c **** 
 452:C:/Users/²Ü¼ÒºÀ/.iotlink/sdk/IoT_LINK/iot_link/network/lwm2m/wakaama_lwm2m/port\object_access_control.c **** int add_access_control_object_instance(lwm2m_object_t *obj)
 453:C:/Users/²Ü¼ÒºÀ/.iotlink/sdk/IoT_LINK/iot_link/network/lwm2m/wakaama_lwm2m/port\object_access_control.c **** {
 454:C:/Users/²Ü¼ÒºÀ/.iotlink/sdk/IoT_LINK/iot_link/network/lwm2m/wakaama_lwm2m/port\object_access_control.c ****     if (NULL == obj)
 455:C:/Users/²Ü¼ÒºÀ/.iotlink/sdk/IoT_LINK/iot_link/network/lwm2m/wakaama_lwm2m/port\object_access_control.c ****     {
 456:C:/Users/²Ü¼ÒºÀ/.iotlink/sdk/IoT_LINK/iot_link/network/lwm2m/wakaama_lwm2m/port\object_access_control.c ****         return (int)LWM2M_ARG_INVALID;
 457:C:/Users/²Ü¼ÒºÀ/.iotlink/sdk/IoT_LINK/iot_link/network/lwm2m/wakaama_lwm2m/port\object_access_control.c ****     }
 458:C:/Users/²Ü¼ÒºÀ/.iotlink/sdk/IoT_LINK/iot_link/network/lwm2m/wakaama_lwm2m/port\object_access_control.c **** 
 459:C:/Users/²Ü¼ÒºÀ/.iotlink/sdk/IoT_LINK/iot_link/network/lwm2m/wakaama_lwm2m/port\object_access_control.c ****     return (int)LWM2M_OK;
 460:C:/Users/²Ü¼ÒºÀ/.iotlink/sdk/IoT_LINK/iot_link/network/lwm2m/wakaama_lwm2m/port\object_access_control.c **** }
 461:C:/Users/²Ü¼ÒºÀ/.iotlink/sdk/IoT_LINK/iot_link/network/lwm2m/wakaama_lwm2m/port\object_access_control.c **** 
 462:C:/Users/²Ü¼ÒºÀ/.iotlink/sdk/IoT_LINK/iot_link/network/lwm2m/wakaama_lwm2m/port\object_access_control.c **** int config_access_control_object(lwm2m_object_t *obj, void *param)
 463:C:/Users/²Ü¼ÒºÀ/.iotlink/sdk/IoT_LINK/iot_link/network/lwm2m/wakaama_lwm2m/port\object_access_control.c **** {
 464:C:/Users/²Ü¼ÒºÀ/.iotlink/sdk/IoT_LINK/iot_link/network/lwm2m/wakaama_lwm2m/port\object_access_control.c ****     if (NULL == obj)
 465:C:/Users/²Ü¼ÒºÀ/.iotlink/sdk/IoT_LINK/iot_link/network/lwm2m/wakaama_lwm2m/port\object_access_control.c ****     {
 466:C:/Users/²Ü¼ÒºÀ/.iotlink/sdk/IoT_LINK/iot_link/network/lwm2m/wakaama_lwm2m/port\object_access_control.c ****         return (int)LWM2M_ARG_INVALID;
 467:C:/Users/²Ü¼ÒºÀ/.iotlink/sdk/IoT_LINK/iot_link/network/lwm2m/wakaama_lwm2m/port\object_access_control.c ****     }
 468:C:/Users/²Ü¼ÒºÀ/.iotlink/sdk/IoT_LINK/iot_link/network/lwm2m/wakaama_lwm2m/port\object_access_control.c **** 
 469:C:/Users/²Ü¼ÒºÀ/.iotlink/sdk/IoT_LINK/iot_link/network/lwm2m/wakaama_lwm2m/port\object_access_control.c ****     // Init callbacks, empty instanceList!
 470:C:/Users/²Ü¼ÒºÀ/.iotlink/sdk/IoT_LINK/iot_link/network/lwm2m/wakaama_lwm2m/port\object_access_control.c ****     obj->readFunc = prv_read;
 471:C:/Users/²Ü¼ÒºÀ/.iotlink/sdk/IoT_LINK/iot_link/network/lwm2m/wakaama_lwm2m/port\object_access_control.c ****     obj->writeFunc = prv_write;
ARM GAS  C:\Users\²Ü¼ÒºÀ\AppData\Local\Temp\cc4d6LXN.s 			page 11


 472:C:/Users/²Ü¼ÒºÀ/.iotlink/sdk/IoT_LINK/iot_link/network/lwm2m/wakaama_lwm2m/port\object_access_control.c ****     obj->createFunc = prv_create;
 473:C:/Users/²Ü¼ÒºÀ/.iotlink/sdk/IoT_LINK/iot_link/network/lwm2m/wakaama_lwm2m/port\object_access_control.c ****     obj->deleteFunc = prv_delete;
 474:C:/Users/²Ü¼ÒºÀ/.iotlink/sdk/IoT_LINK/iot_link/network/lwm2m/wakaama_lwm2m/port\object_access_control.c ****     return (int)LWM2M_OK;
 475:C:/Users/²Ü¼ÒºÀ/.iotlink/sdk/IoT_LINK/iot_link/network/lwm2m/wakaama_lwm2m/port\object_access_control.c **** }
 476:C:/Users/²Ü¼ÒºÀ/.iotlink/sdk/IoT_LINK/iot_link/network/lwm2m/wakaama_lwm2m/port\object_access_control.c **** 
 477:C:/Users/²Ü¼ÒºÀ/.iotlink/sdk/IoT_LINK/iot_link/network/lwm2m/wakaama_lwm2m/port\object_access_control.c **** void acl_ctrl_free_object(lwm2m_object_t *objectP)
 478:C:/Users/²Ü¼ÒºÀ/.iotlink/sdk/IoT_LINK/iot_link/network/lwm2m/wakaama_lwm2m/port\object_access_control.c **** {
 479:C:/Users/²Ü¼ÒºÀ/.iotlink/sdk/IoT_LINK/iot_link/network/lwm2m/wakaama_lwm2m/port\object_access_control.c ****     acc_ctrl_oi_t *accCtrlOiT;
 480:C:/Users/²Ü¼ÒºÀ/.iotlink/sdk/IoT_LINK/iot_link/network/lwm2m/wakaama_lwm2m/port\object_access_control.c ****     acc_ctrl_oi_t *accCtrlOiP = (acc_ctrl_oi_t *)objectP->instanceList;
 481:C:/Users/²Ü¼ÒºÀ/.iotlink/sdk/IoT_LINK/iot_link/network/lwm2m/wakaama_lwm2m/port\object_access_control.c **** 
 482:C:/Users/²Ü¼ÒºÀ/.iotlink/sdk/IoT_LINK/iot_link/network/lwm2m/wakaama_lwm2m/port\object_access_control.c ****     while (NULL != accCtrlOiP)
 483:C:/Users/²Ü¼ÒºÀ/.iotlink/sdk/IoT_LINK/iot_link/network/lwm2m/wakaama_lwm2m/port\object_access_control.c ****     {
 484:C:/Users/²Ü¼ÒºÀ/.iotlink/sdk/IoT_LINK/iot_link/network/lwm2m/wakaama_lwm2m/port\object_access_control.c ****         // first free acl (multiple resource!):
 485:C:/Users/²Ü¼ÒºÀ/.iotlink/sdk/IoT_LINK/iot_link/network/lwm2m/wakaama_lwm2m/port\object_access_control.c ****         LWM2M_LIST_FREE(accCtrlOiP->accCtrlValList);
 486:C:/Users/²Ü¼ÒºÀ/.iotlink/sdk/IoT_LINK/iot_link/network/lwm2m/wakaama_lwm2m/port\object_access_control.c ****         accCtrlOiT = accCtrlOiP;
 487:C:/Users/²Ü¼ÒºÀ/.iotlink/sdk/IoT_LINK/iot_link/network/lwm2m/wakaama_lwm2m/port\object_access_control.c ****         accCtrlOiP = accCtrlOiP->next;
 488:C:/Users/²Ü¼ÒºÀ/.iotlink/sdk/IoT_LINK/iot_link/network/lwm2m/wakaama_lwm2m/port\object_access_control.c ****         lwm2m_free(accCtrlOiT);
 489:C:/Users/²Ü¼ÒºÀ/.iotlink/sdk/IoT_LINK/iot_link/network/lwm2m/wakaama_lwm2m/port\object_access_control.c ****     }
 490:C:/Users/²Ü¼ÒºÀ/.iotlink/sdk/IoT_LINK/iot_link/network/lwm2m/wakaama_lwm2m/port\object_access_control.c **** 
 491:C:/Users/²Ü¼ÒºÀ/.iotlink/sdk/IoT_LINK/iot_link/network/lwm2m/wakaama_lwm2m/port\object_access_control.c ****     lwm2m_free(objectP);
 492:C:/Users/²Ü¼ÒºÀ/.iotlink/sdk/IoT_LINK/iot_link/network/lwm2m/wakaama_lwm2m/port\object_access_control.c **** }
 493:C:/Users/²Ü¼ÒºÀ/.iotlink/sdk/IoT_LINK/iot_link/network/lwm2m/wakaama_lwm2m/port\object_access_control.c **** 
 494:C:/Users/²Ü¼ÒºÀ/.iotlink/sdk/IoT_LINK/iot_link/network/lwm2m/wakaama_lwm2m/port\object_access_control.c **** bool  acc_ctrl_obj_add_inst(lwm2m_object_t *accCtrlObjP, uint16_t instId,
 495:C:/Users/²Ü¼ÒºÀ/.iotlink/sdk/IoT_LINK/iot_link/network/lwm2m/wakaama_lwm2m/port\object_access_control.c ****                             uint16_t acObjectId, uint16_t acObjInstId, uint16_t acOwner)
 496:C:/Users/²Ü¼ÒºÀ/.iotlink/sdk/IoT_LINK/iot_link/network/lwm2m/wakaama_lwm2m/port\object_access_control.c **** {
 497:C:/Users/²Ü¼ÒºÀ/.iotlink/sdk/IoT_LINK/iot_link/network/lwm2m/wakaama_lwm2m/port\object_access_control.c ****     bool ret = false;
 498:C:/Users/²Ü¼ÒºÀ/.iotlink/sdk/IoT_LINK/iot_link/network/lwm2m/wakaama_lwm2m/port\object_access_control.c **** 
 499:C:/Users/²Ü¼ÒºÀ/.iotlink/sdk/IoT_LINK/iot_link/network/lwm2m/wakaama_lwm2m/port\object_access_control.c ****     if (NULL == accCtrlObjP)
 500:C:/Users/²Ü¼ÒºÀ/.iotlink/sdk/IoT_LINK/iot_link/network/lwm2m/wakaama_lwm2m/port\object_access_control.c ****     {
 501:C:/Users/²Ü¼ÒºÀ/.iotlink/sdk/IoT_LINK/iot_link/network/lwm2m/wakaama_lwm2m/port\object_access_control.c ****         return ret;
 502:C:/Users/²Ü¼ÒºÀ/.iotlink/sdk/IoT_LINK/iot_link/network/lwm2m/wakaama_lwm2m/port\object_access_control.c ****     }
 503:C:/Users/²Ü¼ÒºÀ/.iotlink/sdk/IoT_LINK/iot_link/network/lwm2m/wakaama_lwm2m/port\object_access_control.c ****     else
 504:C:/Users/²Ü¼ÒºÀ/.iotlink/sdk/IoT_LINK/iot_link/network/lwm2m/wakaama_lwm2m/port\object_access_control.c ****     {
 505:C:/Users/²Ü¼ÒºÀ/.iotlink/sdk/IoT_LINK/iot_link/network/lwm2m/wakaama_lwm2m/port\object_access_control.c ****         // create an access control object instance
 506:C:/Users/²Ü¼ÒºÀ/.iotlink/sdk/IoT_LINK/iot_link/network/lwm2m/wakaama_lwm2m/port\object_access_control.c ****         acc_ctrl_oi_t *accCtrlOiP;
 507:C:/Users/²Ü¼ÒºÀ/.iotlink/sdk/IoT_LINK/iot_link/network/lwm2m/wakaama_lwm2m/port\object_access_control.c ****         accCtrlOiP = (acc_ctrl_oi_t *)lwm2m_malloc(sizeof(acc_ctrl_oi_t));
 508:C:/Users/²Ü¼ÒºÀ/.iotlink/sdk/IoT_LINK/iot_link/network/lwm2m/wakaama_lwm2m/port\object_access_control.c **** 
 509:C:/Users/²Ü¼ÒºÀ/.iotlink/sdk/IoT_LINK/iot_link/network/lwm2m/wakaama_lwm2m/port\object_access_control.c ****         if (NULL == accCtrlOiP)
 510:C:/Users/²Ü¼ÒºÀ/.iotlink/sdk/IoT_LINK/iot_link/network/lwm2m/wakaama_lwm2m/port\object_access_control.c ****         {
 511:C:/Users/²Ü¼ÒºÀ/.iotlink/sdk/IoT_LINK/iot_link/network/lwm2m/wakaama_lwm2m/port\object_access_control.c ****             return ret;
 512:C:/Users/²Ü¼ÒºÀ/.iotlink/sdk/IoT_LINK/iot_link/network/lwm2m/wakaama_lwm2m/port\object_access_control.c ****         }
 513:C:/Users/²Ü¼ÒºÀ/.iotlink/sdk/IoT_LINK/iot_link/network/lwm2m/wakaama_lwm2m/port\object_access_control.c ****         else
 514:C:/Users/²Ü¼ÒºÀ/.iotlink/sdk/IoT_LINK/iot_link/network/lwm2m/wakaama_lwm2m/port\object_access_control.c ****         {
 515:C:/Users/²Ü¼ÒºÀ/.iotlink/sdk/IoT_LINK/iot_link/network/lwm2m/wakaama_lwm2m/port\object_access_control.c ****             (void) memset(accCtrlOiP, 0, sizeof(acc_ctrl_oi_t));
 516:C:/Users/²Ü¼ÒºÀ/.iotlink/sdk/IoT_LINK/iot_link/network/lwm2m/wakaama_lwm2m/port\object_access_control.c ****             // list: key
 517:C:/Users/²Ü¼ÒºÀ/.iotlink/sdk/IoT_LINK/iot_link/network/lwm2m/wakaama_lwm2m/port\object_access_control.c ****             accCtrlOiP->objInstId    = instId;
 518:C:/Users/²Ü¼ÒºÀ/.iotlink/sdk/IoT_LINK/iot_link/network/lwm2m/wakaama_lwm2m/port\object_access_control.c ****             // object instance data:
 519:C:/Users/²Ü¼ÒºÀ/.iotlink/sdk/IoT_LINK/iot_link/network/lwm2m/wakaama_lwm2m/port\object_access_control.c ****             accCtrlOiP->objectId     = acObjectId;
 520:C:/Users/²Ü¼ÒºÀ/.iotlink/sdk/IoT_LINK/iot_link/network/lwm2m/wakaama_lwm2m/port\object_access_control.c ****             accCtrlOiP->objectInstId = acObjInstId;
 521:C:/Users/²Ü¼ÒºÀ/.iotlink/sdk/IoT_LINK/iot_link/network/lwm2m/wakaama_lwm2m/port\object_access_control.c ****             accCtrlOiP->accCtrlOwner = acOwner;
 522:C:/Users/²Ü¼ÒºÀ/.iotlink/sdk/IoT_LINK/iot_link/network/lwm2m/wakaama_lwm2m/port\object_access_control.c ****             accCtrlObjP->instanceList =
 523:C:/Users/²Ü¼ÒºÀ/.iotlink/sdk/IoT_LINK/iot_link/network/lwm2m/wakaama_lwm2m/port\object_access_control.c ****                 LWM2M_LIST_ADD(accCtrlObjP->instanceList, accCtrlOiP);
 524:C:/Users/²Ü¼ÒºÀ/.iotlink/sdk/IoT_LINK/iot_link/network/lwm2m/wakaama_lwm2m/port\object_access_control.c ****             ret = true;
 525:C:/Users/²Ü¼ÒºÀ/.iotlink/sdk/IoT_LINK/iot_link/network/lwm2m/wakaama_lwm2m/port\object_access_control.c ****         }
 526:C:/Users/²Ü¼ÒºÀ/.iotlink/sdk/IoT_LINK/iot_link/network/lwm2m/wakaama_lwm2m/port\object_access_control.c ****     }
 527:C:/Users/²Ü¼ÒºÀ/.iotlink/sdk/IoT_LINK/iot_link/network/lwm2m/wakaama_lwm2m/port\object_access_control.c **** 
 528:C:/Users/²Ü¼ÒºÀ/.iotlink/sdk/IoT_LINK/iot_link/network/lwm2m/wakaama_lwm2m/port\object_access_control.c ****     return ret;
ARM GAS  C:\Users\²Ü¼ÒºÀ\AppData\Local\Temp\cc4d6LXN.s 			page 12


 529:C:/Users/²Ü¼ÒºÀ/.iotlink/sdk/IoT_LINK/iot_link/network/lwm2m/wakaama_lwm2m/port\object_access_control.c **** }
 530:C:/Users/²Ü¼ÒºÀ/.iotlink/sdk/IoT_LINK/iot_link/network/lwm2m/wakaama_lwm2m/port\object_access_control.c **** 
 531:C:/Users/²Ü¼ÒºÀ/.iotlink/sdk/IoT_LINK/iot_link/network/lwm2m/wakaama_lwm2m/port\object_access_control.c **** bool acc_ctrl_oi_add_ac_val(lwm2m_object_t *accCtrlObjP, uint16_t instId,
 532:C:/Users/²Ü¼ÒºÀ/.iotlink/sdk/IoT_LINK/iot_link/network/lwm2m/wakaama_lwm2m/port\object_access_control.c ****                             uint16_t acResId, uint16_t acValue)
 533:C:/Users/²Ü¼ÒºÀ/.iotlink/sdk/IoT_LINK/iot_link/network/lwm2m/wakaama_lwm2m/port\object_access_control.c **** {
 534:C:/Users/²Ü¼ÒºÀ/.iotlink/sdk/IoT_LINK/iot_link/network/lwm2m/wakaama_lwm2m/port\object_access_control.c ****     bool ret = false;
 535:C:/Users/²Ü¼ÒºÀ/.iotlink/sdk/IoT_LINK/iot_link/network/lwm2m/wakaama_lwm2m/port\object_access_control.c ****     acc_ctrl_oi_t *accCtrlOiP = (acc_ctrl_oi_t *)
 536:C:/Users/²Ü¼ÒºÀ/.iotlink/sdk/IoT_LINK/iot_link/network/lwm2m/wakaama_lwm2m/port\object_access_control.c ****                                 lwm2m_list_find(accCtrlObjP->instanceList, instId);
 537:C:/Users/²Ü¼ÒºÀ/.iotlink/sdk/IoT_LINK/iot_link/network/lwm2m/wakaama_lwm2m/port\object_access_control.c **** 
 538:C:/Users/²Ü¼ÒºÀ/.iotlink/sdk/IoT_LINK/iot_link/network/lwm2m/wakaama_lwm2m/port\object_access_control.c ****     if (NULL == accCtrlOiP)
 539:C:/Users/²Ü¼ÒºÀ/.iotlink/sdk/IoT_LINK/iot_link/network/lwm2m/wakaama_lwm2m/port\object_access_control.c ****         return ret;
 540:C:/Users/²Ü¼ÒºÀ/.iotlink/sdk/IoT_LINK/iot_link/network/lwm2m/wakaama_lwm2m/port\object_access_control.c **** 
 541:C:/Users/²Ü¼ÒºÀ/.iotlink/sdk/IoT_LINK/iot_link/network/lwm2m/wakaama_lwm2m/port\object_access_control.c ****     return prv_add_ac_val(accCtrlOiP, acResId, acValue);
 542:C:/Users/²Ü¼ÒºÀ/.iotlink/sdk/IoT_LINK/iot_link/network/lwm2m/wakaama_lwm2m/port\object_access_control.c **** }
 543:C:/Users/²Ü¼ÒºÀ/.iotlink/sdk/IoT_LINK/iot_link/network/lwm2m/wakaama_lwm2m/port\object_access_control.c **** 
 544:C:/Users/²Ü¼ÒºÀ/.iotlink/sdk/IoT_LINK/iot_link/network/lwm2m/wakaama_lwm2m/port\object_access_control.c **** static acc_ctrl_oi_t *prv_get_acc_instance(acc_ctrl_oi_t *accCtrlOiP, uint16_t objId, uint16_t inst
 545:C:/Users/²Ü¼ÒºÀ/.iotlink/sdk/IoT_LINK/iot_link/network/lwm2m/wakaama_lwm2m/port\object_access_control.c **** {
 546:C:/Users/²Ü¼ÒºÀ/.iotlink/sdk/IoT_LINK/iot_link/network/lwm2m/wakaama_lwm2m/port\object_access_control.c ****     acc_ctrl_oi_t *itor = accCtrlOiP;
 547:C:/Users/²Ü¼ÒºÀ/.iotlink/sdk/IoT_LINK/iot_link/network/lwm2m/wakaama_lwm2m/port\object_access_control.c **** 
 548:C:/Users/²Ü¼ÒºÀ/.iotlink/sdk/IoT_LINK/iot_link/network/lwm2m/wakaama_lwm2m/port\object_access_control.c ****     while (itor)
 549:C:/Users/²Ü¼ÒºÀ/.iotlink/sdk/IoT_LINK/iot_link/network/lwm2m/wakaama_lwm2m/port\object_access_control.c ****     {
 550:C:/Users/²Ü¼ÒºÀ/.iotlink/sdk/IoT_LINK/iot_link/network/lwm2m/wakaama_lwm2m/port\object_access_control.c ****         if (itor->objectId == objId && itor->objectInstId == instId)
 551:C:/Users/²Ü¼ÒºÀ/.iotlink/sdk/IoT_LINK/iot_link/network/lwm2m/wakaama_lwm2m/port\object_access_control.c ****         {
 552:C:/Users/²Ü¼ÒºÀ/.iotlink/sdk/IoT_LINK/iot_link/network/lwm2m/wakaama_lwm2m/port\object_access_control.c ****             return itor;
 553:C:/Users/²Ü¼ÒºÀ/.iotlink/sdk/IoT_LINK/iot_link/network/lwm2m/wakaama_lwm2m/port\object_access_control.c ****         }
 554:C:/Users/²Ü¼ÒºÀ/.iotlink/sdk/IoT_LINK/iot_link/network/lwm2m/wakaama_lwm2m/port\object_access_control.c **** 
 555:C:/Users/²Ü¼ÒºÀ/.iotlink/sdk/IoT_LINK/iot_link/network/lwm2m/wakaama_lwm2m/port\object_access_control.c ****         itor = itor->next;
 556:C:/Users/²Ü¼ÒºÀ/.iotlink/sdk/IoT_LINK/iot_link/network/lwm2m/wakaama_lwm2m/port\object_access_control.c ****     }
 557:C:/Users/²Ü¼ÒºÀ/.iotlink/sdk/IoT_LINK/iot_link/network/lwm2m/wakaama_lwm2m/port\object_access_control.c **** 
 558:C:/Users/²Ü¼ÒºÀ/.iotlink/sdk/IoT_LINK/iot_link/network/lwm2m/wakaama_lwm2m/port\object_access_control.c ****     return NULL;
 559:C:/Users/²Ü¼ÒºÀ/.iotlink/sdk/IoT_LINK/iot_link/network/lwm2m/wakaama_lwm2m/port\object_access_control.c **** }
 560:C:/Users/²Ü¼ÒºÀ/.iotlink/sdk/IoT_LINK/iot_link/network/lwm2m/wakaama_lwm2m/port\object_access_control.c **** 
 561:C:/Users/²Ü¼ÒºÀ/.iotlink/sdk/IoT_LINK/iot_link/network/lwm2m/wakaama_lwm2m/port\object_access_control.c **** static acc_ctrl_ri_t *prv_get_acl_instance(acc_ctrl_ri_t *accCtrlRiP, uint16_t serverId)
 562:C:/Users/²Ü¼ÒºÀ/.iotlink/sdk/IoT_LINK/iot_link/network/lwm2m/wakaama_lwm2m/port\object_access_control.c **** {
 563:C:/Users/²Ü¼ÒºÀ/.iotlink/sdk/IoT_LINK/iot_link/network/lwm2m/wakaama_lwm2m/port\object_access_control.c ****     acc_ctrl_ri_t *targetP;
 564:C:/Users/²Ü¼ÒºÀ/.iotlink/sdk/IoT_LINK/iot_link/network/lwm2m/wakaama_lwm2m/port\object_access_control.c ****     targetP = (acc_ctrl_ri_t *)LWM2M_LIST_FIND(accCtrlRiP, serverId);
 565:C:/Users/²Ü¼ÒºÀ/.iotlink/sdk/IoT_LINK/iot_link/network/lwm2m/wakaama_lwm2m/port\object_access_control.c **** 
 566:C:/Users/²Ü¼ÒºÀ/.iotlink/sdk/IoT_LINK/iot_link/network/lwm2m/wakaama_lwm2m/port\object_access_control.c ****     if (NULL == targetP)
 567:C:/Users/²Ü¼ÒºÀ/.iotlink/sdk/IoT_LINK/iot_link/network/lwm2m/wakaama_lwm2m/port\object_access_control.c ****     {
 568:C:/Users/²Ü¼ÒºÀ/.iotlink/sdk/IoT_LINK/iot_link/network/lwm2m/wakaama_lwm2m/port\object_access_control.c ****         targetP = (acc_ctrl_ri_t *)LWM2M_LIST_FIND(accCtrlRiP, 0);
 569:C:/Users/²Ü¼ÒºÀ/.iotlink/sdk/IoT_LINK/iot_link/network/lwm2m/wakaama_lwm2m/port\object_access_control.c ****     }
 570:C:/Users/²Ü¼ÒºÀ/.iotlink/sdk/IoT_LINK/iot_link/network/lwm2m/wakaama_lwm2m/port\object_access_control.c **** 
 571:C:/Users/²Ü¼ÒºÀ/.iotlink/sdk/IoT_LINK/iot_link/network/lwm2m/wakaama_lwm2m/port\object_access_control.c ****     return targetP;
 572:C:/Users/²Ü¼ÒºÀ/.iotlink/sdk/IoT_LINK/iot_link/network/lwm2m/wakaama_lwm2m/port\object_access_control.c **** }
 573:C:/Users/²Ü¼ÒºÀ/.iotlink/sdk/IoT_LINK/iot_link/network/lwm2m/wakaama_lwm2m/port\object_access_control.c **** 
 574:C:/Users/²Ü¼ÒºÀ/.iotlink/sdk/IoT_LINK/iot_link/network/lwm2m/wakaama_lwm2m/port\object_access_control.c **** static inline bool prv_auth_match(OBJ_ACC_OPERATE op, uint16_t auth_op)
 575:C:/Users/²Ü¼ÒºÀ/.iotlink/sdk/IoT_LINK/iot_link/network/lwm2m/wakaama_lwm2m/port\object_access_control.c **** {
 576:C:/Users/²Ü¼ÒºÀ/.iotlink/sdk/IoT_LINK/iot_link/network/lwm2m/wakaama_lwm2m/port\object_access_control.c ****     return ((uint32_t)auth_op)& (0x01 << op);
 577:C:/Users/²Ü¼ÒºÀ/.iotlink/sdk/IoT_LINK/iot_link/network/lwm2m/wakaama_lwm2m/port\object_access_control.c **** }
 578:C:/Users/²Ü¼ÒºÀ/.iotlink/sdk/IoT_LINK/iot_link/network/lwm2m/wakaama_lwm2m/port\object_access_control.c **** 
 579:C:/Users/²Ü¼ÒºÀ/.iotlink/sdk/IoT_LINK/iot_link/network/lwm2m/wakaama_lwm2m/port\object_access_control.c **** static bool prv_check_instance_auth(acc_ctrl_oi_t *accCtrlOiP, uint16_t objId, uint16_t instId,
 580:C:/Users/²Ü¼ÒºÀ/.iotlink/sdk/IoT_LINK/iot_link/network/lwm2m/wakaama_lwm2m/port\object_access_control.c ****                                     uint16_t serverId, OBJ_ACC_OPERATE op)
 581:C:/Users/²Ü¼ÒºÀ/.iotlink/sdk/IoT_LINK/iot_link/network/lwm2m/wakaama_lwm2m/port\object_access_control.c **** {
  99              		.loc 1 581 1 is_stmt 1 view -0
 100              		.cfi_startproc
 101              		@ args = 4, pretend = 0, frame = 0
 102              		@ frame_needed = 0, uses_anonymous_args = 0
ARM GAS  C:\Users\²Ü¼ÒºÀ\AppData\Local\Temp\cc4d6LXN.s 			page 13


 103              		.loc 1 581 1 is_stmt 0 view .LVU19
 104 0000 70B5     		push	{r4, r5, r6, lr}
 105              	.LCFI3:
 106              		.cfi_def_cfa_offset 16
 107              		.cfi_offset 4, -16
 108              		.cfi_offset 5, -12
 109              		.cfi_offset 6, -8
 110              		.cfi_offset 14, -4
 111 0002 0446     		mov	r4, r0
 112 0004 1D46     		mov	r5, r3
 582:C:/Users/²Ü¼ÒºÀ/.iotlink/sdk/IoT_LINK/iot_link/network/lwm2m/wakaama_lwm2m/port\object_access_control.c ****     acc_ctrl_oi_t *targetP;
 113              		.loc 1 582 5 is_stmt 1 view .LVU20
 583:C:/Users/²Ü¼ÒºÀ/.iotlink/sdk/IoT_LINK/iot_link/network/lwm2m/wakaama_lwm2m/port\object_access_control.c ****     acc_ctrl_ri_t *accCtrlRiP;
 114              		.loc 1 583 5 view .LVU21
 584:C:/Users/²Ü¼ÒºÀ/.iotlink/sdk/IoT_LINK/iot_link/network/lwm2m/wakaama_lwm2m/port\object_access_control.c ****     targetP = prv_get_acc_instance(accCtrlOiP, objId, instId);
 115              		.loc 1 584 5 view .LVU22
 116              	.LVL8:
 117              	.LBB11:
 118              	.LBI11:
 544:C:/Users/²Ü¼ÒºÀ/.iotlink/sdk/IoT_LINK/iot_link/network/lwm2m/wakaama_lwm2m/port\object_access_control.c **** {
 119              		.loc 1 544 23 view .LVU23
 120              	.LBB12:
 546:C:/Users/²Ü¼ÒºÀ/.iotlink/sdk/IoT_LINK/iot_link/network/lwm2m/wakaama_lwm2m/port\object_access_control.c **** 
 121              		.loc 1 546 5 view .LVU24
 548:C:/Users/²Ü¼ÒºÀ/.iotlink/sdk/IoT_LINK/iot_link/network/lwm2m/wakaama_lwm2m/port\object_access_control.c ****     {
 122              		.loc 1 548 5 view .LVU25
 123              	.L5:
 548:C:/Users/²Ü¼ÒºÀ/.iotlink/sdk/IoT_LINK/iot_link/network/lwm2m/wakaama_lwm2m/port\object_access_control.c ****     {
 124              		.loc 1 548 11 view .LVU26
 125 0006 0CB9     		cbnz	r4, .L8
 548:C:/Users/²Ü¼ÒºÀ/.iotlink/sdk/IoT_LINK/iot_link/network/lwm2m/wakaama_lwm2m/port\object_access_control.c ****     {
 126              		.loc 1 548 11 is_stmt 0 view .LVU27
 127              	.LBE12:
 128              	.LBE11:
 585:C:/Users/²Ü¼ÒºÀ/.iotlink/sdk/IoT_LINK/iot_link/network/lwm2m/wakaama_lwm2m/port\object_access_control.c **** 
 586:C:/Users/²Ü¼ÒºÀ/.iotlink/sdk/IoT_LINK/iot_link/network/lwm2m/wakaama_lwm2m/port\object_access_control.c ****     if (NULL == targetP)
 587:C:/Users/²Ü¼ÒºÀ/.iotlink/sdk/IoT_LINK/iot_link/network/lwm2m/wakaama_lwm2m/port\object_access_control.c ****     {
 588:C:/Users/²Ü¼ÒºÀ/.iotlink/sdk/IoT_LINK/iot_link/network/lwm2m/wakaama_lwm2m/port\object_access_control.c ****         return false;
 129              		.loc 1 588 16 view .LVU28
 130 0008 2046     		mov	r0, r4
 131              	.LVL9:
 132              	.L12:
 589:C:/Users/²Ü¼ÒºÀ/.iotlink/sdk/IoT_LINK/iot_link/network/lwm2m/wakaama_lwm2m/port\object_access_control.c ****     }
 590:C:/Users/²Ü¼ÒºÀ/.iotlink/sdk/IoT_LINK/iot_link/network/lwm2m/wakaama_lwm2m/port\object_access_control.c **** 
 591:C:/Users/²Ü¼ÒºÀ/.iotlink/sdk/IoT_LINK/iot_link/network/lwm2m/wakaama_lwm2m/port\object_access_control.c ****     accCtrlRiP = prv_get_acl_instance(targetP->accCtrlValList, serverId);
 592:C:/Users/²Ü¼ÒºÀ/.iotlink/sdk/IoT_LINK/iot_link/network/lwm2m/wakaama_lwm2m/port\object_access_control.c **** 
 593:C:/Users/²Ü¼ÒºÀ/.iotlink/sdk/IoT_LINK/iot_link/network/lwm2m/wakaama_lwm2m/port\object_access_control.c ****     if (NULL == accCtrlRiP)
 594:C:/Users/²Ü¼ÒºÀ/.iotlink/sdk/IoT_LINK/iot_link/network/lwm2m/wakaama_lwm2m/port\object_access_control.c ****     {
 595:C:/Users/²Ü¼ÒºÀ/.iotlink/sdk/IoT_LINK/iot_link/network/lwm2m/wakaama_lwm2m/port\object_access_control.c ****         return targetP->accCtrlOwner == serverId;
 596:C:/Users/²Ü¼ÒºÀ/.iotlink/sdk/IoT_LINK/iot_link/network/lwm2m/wakaama_lwm2m/port\object_access_control.c ****     }
 597:C:/Users/²Ü¼ÒºÀ/.iotlink/sdk/IoT_LINK/iot_link/network/lwm2m/wakaama_lwm2m/port\object_access_control.c **** 
 598:C:/Users/²Ü¼ÒºÀ/.iotlink/sdk/IoT_LINK/iot_link/network/lwm2m/wakaama_lwm2m/port\object_access_control.c ****     return prv_auth_match(op, accCtrlRiP->accCtrlValue);
 599:C:/Users/²Ü¼ÒºÀ/.iotlink/sdk/IoT_LINK/iot_link/network/lwm2m/wakaama_lwm2m/port\object_access_control.c **** }
 133              		.loc 1 599 1 view .LVU29
 134 000a 70BD     		pop	{r4, r5, r6, pc}
 135              	.LVL10:
 136              	.L8:
ARM GAS  C:\Users\²Ü¼ÒºÀ\AppData\Local\Temp\cc4d6LXN.s 			page 14


 137              	.LBB14:
 138              	.LBB13:
 550:C:/Users/²Ü¼ÒºÀ/.iotlink/sdk/IoT_LINK/iot_link/network/lwm2m/wakaama_lwm2m/port\object_access_control.c ****         {
 139              		.loc 1 550 9 is_stmt 1 view .LVU30
 550:C:/Users/²Ü¼ÒºÀ/.iotlink/sdk/IoT_LINK/iot_link/network/lwm2m/wakaama_lwm2m/port\object_access_control.c ****         {
 140              		.loc 1 550 12 is_stmt 0 view .LVU31
 141 000c E388     		ldrh	r3, [r4, #6]
 142 000e 8B42     		cmp	r3, r1
 143 0010 02D1     		bne	.L6
 550:C:/Users/²Ü¼ÒºÀ/.iotlink/sdk/IoT_LINK/iot_link/network/lwm2m/wakaama_lwm2m/port\object_access_control.c ****         {
 144              		.loc 1 550 37 view .LVU32
 145 0012 2389     		ldrh	r3, [r4, #8]
 146 0014 9342     		cmp	r3, r2
 147 0016 0BD0     		beq	.L7
 148              	.L6:
 555:C:/Users/²Ü¼ÒºÀ/.iotlink/sdk/IoT_LINK/iot_link/network/lwm2m/wakaama_lwm2m/port\object_access_control.c ****     }
 149              		.loc 1 555 9 is_stmt 1 view .LVU33
 555:C:/Users/²Ü¼ÒºÀ/.iotlink/sdk/IoT_LINK/iot_link/network/lwm2m/wakaama_lwm2m/port\object_access_control.c ****     }
 150              		.loc 1 555 14 is_stmt 0 view .LVU34
 151 0018 2468     		ldr	r4, [r4]
 152              	.LVL11:
 555:C:/Users/²Ü¼ÒºÀ/.iotlink/sdk/IoT_LINK/iot_link/network/lwm2m/wakaama_lwm2m/port\object_access_control.c ****     }
 153              		.loc 1 555 14 view .LVU35
 154 001a F4E7     		b	.L5
 155              	.LVL12:
 156              	.L10:
 555:C:/Users/²Ü¼ÒºÀ/.iotlink/sdk/IoT_LINK/iot_link/network/lwm2m/wakaama_lwm2m/port\object_access_control.c ****     }
 157              		.loc 1 555 14 view .LVU36
 158              	.LBE13:
 159              	.LBE14:
 598:C:/Users/²Ü¼ÒºÀ/.iotlink/sdk/IoT_LINK/iot_link/network/lwm2m/wakaama_lwm2m/port\object_access_control.c **** }
 160              		.loc 1 598 5 is_stmt 1 view .LVU37
 161              	.LBB15:
 162              	.LBI15:
 574:C:/Users/²Ü¼ÒºÀ/.iotlink/sdk/IoT_LINK/iot_link/network/lwm2m/wakaama_lwm2m/port\object_access_control.c **** {
 163              		.loc 1 574 20 view .LVU38
 164              	.LBB16:
 576:C:/Users/²Ü¼ÒºÀ/.iotlink/sdk/IoT_LINK/iot_link/network/lwm2m/wakaama_lwm2m/port\object_access_control.c **** }
 165              		.loc 1 576 5 view .LVU39
 576:C:/Users/²Ü¼ÒºÀ/.iotlink/sdk/IoT_LINK/iot_link/network/lwm2m/wakaama_lwm2m/port\object_access_control.c **** }
 166              		.loc 1 576 39 is_stmt 0 view .LVU40
 167 001c 9DF81010 		ldrb	r1, [sp, #16]	@ zero_extendqisi2
 576:C:/Users/²Ü¼ÒºÀ/.iotlink/sdk/IoT_LINK/iot_link/network/lwm2m/wakaama_lwm2m/port\object_access_control.c **** }
 168              		.loc 1 576 13 view .LVU41
 169 0020 C288     		ldrh	r2, [r0, #6]
 576:C:/Users/²Ü¼ÒºÀ/.iotlink/sdk/IoT_LINK/iot_link/network/lwm2m/wakaama_lwm2m/port\object_access_control.c **** }
 170              		.loc 1 576 39 view .LVU42
 171 0022 0123     		movs	r3, #1
 172 0024 8B40     		lsls	r3, r3, r1
 576:C:/Users/²Ü¼ÒºÀ/.iotlink/sdk/IoT_LINK/iot_link/network/lwm2m/wakaama_lwm2m/port\object_access_control.c **** }
 173              		.loc 1 576 31 view .LVU43
 174 0026 1A42     		tst	r2, r3
 175 0028 14BF     		ite	ne
 176 002a 0120     		movne	r0, #1
 177              	.LVL13:
 576:C:/Users/²Ü¼ÒºÀ/.iotlink/sdk/IoT_LINK/iot_link/network/lwm2m/wakaama_lwm2m/port\object_access_control.c **** }
 178              		.loc 1 576 31 view .LVU44
ARM GAS  C:\Users\²Ü¼ÒºÀ\AppData\Local\Temp\cc4d6LXN.s 			page 15


 179 002c 0020     		moveq	r0, #0
 180              	.LVL14:
 576:C:/Users/²Ü¼ÒºÀ/.iotlink/sdk/IoT_LINK/iot_link/network/lwm2m/wakaama_lwm2m/port\object_access_control.c **** }
 181              		.loc 1 576 31 view .LVU45
 182              	.LBE16:
 183              	.LBE15:
 598:C:/Users/²Ü¼ÒºÀ/.iotlink/sdk/IoT_LINK/iot_link/network/lwm2m/wakaama_lwm2m/port\object_access_control.c **** }
 184              		.loc 1 598 12 view .LVU46
 185 002e ECE7     		b	.L12
 186              	.LVL15:
 187              	.L7:
 586:C:/Users/²Ü¼ÒºÀ/.iotlink/sdk/IoT_LINK/iot_link/network/lwm2m/wakaama_lwm2m/port\object_access_control.c ****     {
 188              		.loc 1 586 5 is_stmt 1 view .LVU47
 591:C:/Users/²Ü¼ÒºÀ/.iotlink/sdk/IoT_LINK/iot_link/network/lwm2m/wakaama_lwm2m/port\object_access_control.c **** 
 189              		.loc 1 591 5 view .LVU48
 591:C:/Users/²Ü¼ÒºÀ/.iotlink/sdk/IoT_LINK/iot_link/network/lwm2m/wakaama_lwm2m/port\object_access_control.c **** 
 190              		.loc 1 591 18 is_stmt 0 view .LVU49
 191 0030 E668     		ldr	r6, [r4, #12]
 192              	.LVL16:
 193              	.LBB17:
 194              	.LBI17:
 561:C:/Users/²Ü¼ÒºÀ/.iotlink/sdk/IoT_LINK/iot_link/network/lwm2m/wakaama_lwm2m/port\object_access_control.c **** {
 195              		.loc 1 561 23 is_stmt 1 view .LVU50
 196              	.LBB18:
 563:C:/Users/²Ü¼ÒºÀ/.iotlink/sdk/IoT_LINK/iot_link/network/lwm2m/wakaama_lwm2m/port\object_access_control.c ****     targetP = (acc_ctrl_ri_t *)LWM2M_LIST_FIND(accCtrlRiP, serverId);
 197              		.loc 1 563 5 view .LVU51
 564:C:/Users/²Ü¼ÒºÀ/.iotlink/sdk/IoT_LINK/iot_link/network/lwm2m/wakaama_lwm2m/port\object_access_control.c **** 
 198              		.loc 1 564 5 view .LVU52
 564:C:/Users/²Ü¼ÒºÀ/.iotlink/sdk/IoT_LINK/iot_link/network/lwm2m/wakaama_lwm2m/port\object_access_control.c **** 
 199              		.loc 1 564 32 is_stmt 0 view .LVU53
 200 0032 2946     		mov	r1, r5
 201              	.LVL17:
 564:C:/Users/²Ü¼ÒºÀ/.iotlink/sdk/IoT_LINK/iot_link/network/lwm2m/wakaama_lwm2m/port\object_access_control.c **** 
 202              		.loc 1 564 32 view .LVU54
 203 0034 3046     		mov	r0, r6
 204              	.LVL18:
 564:C:/Users/²Ü¼ÒºÀ/.iotlink/sdk/IoT_LINK/iot_link/network/lwm2m/wakaama_lwm2m/port\object_access_control.c **** 
 205              		.loc 1 564 32 view .LVU55
 206 0036 FFF7FEFF 		bl	lwm2m_list_find
 207              	.LVL19:
 566:C:/Users/²Ü¼ÒºÀ/.iotlink/sdk/IoT_LINK/iot_link/network/lwm2m/wakaama_lwm2m/port\object_access_control.c ****     {
 208              		.loc 1 566 5 is_stmt 1 view .LVU56
 566:C:/Users/²Ü¼ÒºÀ/.iotlink/sdk/IoT_LINK/iot_link/network/lwm2m/wakaama_lwm2m/port\object_access_control.c ****     {
 209              		.loc 1 566 8 is_stmt 0 view .LVU57
 210 003a 0028     		cmp	r0, #0
 211 003c EED1     		bne	.L10
 568:C:/Users/²Ü¼ÒºÀ/.iotlink/sdk/IoT_LINK/iot_link/network/lwm2m/wakaama_lwm2m/port\object_access_control.c ****     }
 212              		.loc 1 568 9 is_stmt 1 view .LVU58
 568:C:/Users/²Ü¼ÒºÀ/.iotlink/sdk/IoT_LINK/iot_link/network/lwm2m/wakaama_lwm2m/port\object_access_control.c ****     }
 213              		.loc 1 568 36 is_stmt 0 view .LVU59
 214 003e 0146     		mov	r1, r0
 215 0040 3046     		mov	r0, r6
 216              	.LVL20:
 568:C:/Users/²Ü¼ÒºÀ/.iotlink/sdk/IoT_LINK/iot_link/network/lwm2m/wakaama_lwm2m/port\object_access_control.c ****     }
 217              		.loc 1 568 36 view .LVU60
 218 0042 FFF7FEFF 		bl	lwm2m_list_find
 219              	.LVL21:
ARM GAS  C:\Users\²Ü¼ÒºÀ\AppData\Local\Temp\cc4d6LXN.s 			page 16


 571:C:/Users/²Ü¼ÒºÀ/.iotlink/sdk/IoT_LINK/iot_link/network/lwm2m/wakaama_lwm2m/port\object_access_control.c **** }
 220              		.loc 1 571 5 is_stmt 1 view .LVU61
 571:C:/Users/²Ü¼ÒºÀ/.iotlink/sdk/IoT_LINK/iot_link/network/lwm2m/wakaama_lwm2m/port\object_access_control.c **** }
 221              		.loc 1 571 5 is_stmt 0 view .LVU62
 222              	.LBE18:
 223              	.LBE17:
 593:C:/Users/²Ü¼ÒºÀ/.iotlink/sdk/IoT_LINK/iot_link/network/lwm2m/wakaama_lwm2m/port\object_access_control.c ****     {
 224              		.loc 1 593 5 is_stmt 1 view .LVU63
 593:C:/Users/²Ü¼ÒºÀ/.iotlink/sdk/IoT_LINK/iot_link/network/lwm2m/wakaama_lwm2m/port\object_access_control.c ****     {
 225              		.loc 1 593 8 is_stmt 0 view .LVU64
 226 0046 0028     		cmp	r0, #0
 227 0048 E8D1     		bne	.L10
 595:C:/Users/²Ü¼ÒºÀ/.iotlink/sdk/IoT_LINK/iot_link/network/lwm2m/wakaama_lwm2m/port\object_access_control.c ****     }
 228              		.loc 1 595 9 is_stmt 1 view .LVU65
 595:C:/Users/²Ü¼ÒºÀ/.iotlink/sdk/IoT_LINK/iot_link/network/lwm2m/wakaama_lwm2m/port\object_access_control.c ****     }
 229              		.loc 1 595 38 is_stmt 0 view .LVU66
 230 004a 6289     		ldrh	r2, [r4, #10]
 231 004c 531B     		subs	r3, r2, r5
 232 004e 5842     		rsbs	r0, r3, #0
 233              	.LVL22:
 595:C:/Users/²Ü¼ÒºÀ/.iotlink/sdk/IoT_LINK/iot_link/network/lwm2m/wakaama_lwm2m/port\object_access_control.c ****     }
 234              		.loc 1 595 38 view .LVU67
 235 0050 5841     		adcs	r0, r0, r3
 236 0052 DAE7     		b	.L12
 237              		.cfi_endproc
 238              	.LFE27:
 240              		.section	.text.prv_read,"ax",%progbits
 241              		.align	1
 242              		.syntax unified
 243              		.thumb
 244              		.thumb_func
 245              		.fpu fpv4-sp-d16
 247              	prv_read:
 248              	.LVL23:
 249              	.LFB13:
 156:C:/Users/²Ü¼ÒºÀ/.iotlink/sdk/IoT_LINK/iot_link/network/lwm2m/wakaama_lwm2m/port\object_access_control.c ****     uint8_t result;
 250              		.loc 1 156 1 is_stmt 1 view -0
 251              		.cfi_startproc
 252              		@ args = 4, pretend = 0, frame = 16
 253              		@ frame_needed = 0, uses_anonymous_args = 0
 157:C:/Users/²Ü¼ÒºÀ/.iotlink/sdk/IoT_LINK/iot_link/network/lwm2m/wakaama_lwm2m/port\object_access_control.c ****     int     ri, ni;
 254              		.loc 1 157 5 view .LVU69
 158:C:/Users/²Ü¼ÒºÀ/.iotlink/sdk/IoT_LINK/iot_link/network/lwm2m/wakaama_lwm2m/port\object_access_control.c ****     // multi-instance object: search instance
 255              		.loc 1 158 5 view .LVU70
 160:C:/Users/²Ü¼ÒºÀ/.iotlink/sdk/IoT_LINK/iot_link/network/lwm2m/wakaama_lwm2m/port\object_access_control.c ****         (acc_ctrl_oi_t *)lwm2m_list_find(objectP->instanceList, instanceId);
 256              		.loc 1 160 5 view .LVU71
 156:C:/Users/²Ü¼ÒºÀ/.iotlink/sdk/IoT_LINK/iot_link/network/lwm2m/wakaama_lwm2m/port\object_access_control.c ****     uint8_t result;
 257              		.loc 1 156 1 is_stmt 0 view .LVU72
 258 0000 2DE9F04F 		push	{r4, r5, r6, r7, r8, r9, r10, fp, lr}
 259              	.LCFI4:
 260              		.cfi_def_cfa_offset 36
 261              		.cfi_offset 4, -36
 262              		.cfi_offset 5, -32
 263              		.cfi_offset 6, -28
 264              		.cfi_offset 7, -24
 265              		.cfi_offset 8, -20
 266              		.cfi_offset 9, -16
ARM GAS  C:\Users\²Ü¼ÒºÀ\AppData\Local\Temp\cc4d6LXN.s 			page 17


 267              		.cfi_offset 10, -12
 268              		.cfi_offset 11, -8
 269              		.cfi_offset 14, -4
 270 0004 85B0     		sub	sp, sp, #20
 271              	.LCFI5:
 272              		.cfi_def_cfa_offset 56
 156:C:/Users/²Ü¼ÒºÀ/.iotlink/sdk/IoT_LINK/iot_link/network/lwm2m/wakaama_lwm2m/port\object_access_control.c ****     uint8_t result;
 273              		.loc 1 156 1 view .LVU73
 274 0006 0F46     		mov	r7, r1
 161:C:/Users/²Ü¼ÒºÀ/.iotlink/sdk/IoT_LINK/iot_link/network/lwm2m/wakaama_lwm2m/port\object_access_control.c **** 
 275              		.loc 1 161 26 view .LVU74
 276 0008 0E9B     		ldr	r3, [sp, #56]
 277              	.LVL24:
 161:C:/Users/²Ü¼ÒºÀ/.iotlink/sdk/IoT_LINK/iot_link/network/lwm2m/wakaama_lwm2m/port\object_access_control.c **** 
 278              		.loc 1 161 26 view .LVU75
 279 000a 0146     		mov	r1, r0
 280              	.LVL25:
 161:C:/Users/²Ü¼ÒºÀ/.iotlink/sdk/IoT_LINK/iot_link/network/lwm2m/wakaama_lwm2m/port\object_access_control.c **** 
 281              		.loc 1 161 26 view .LVU76
 282 000c 9868     		ldr	r0, [r3, #8]
 283              	.LVL26:
 156:C:/Users/²Ü¼ÒºÀ/.iotlink/sdk/IoT_LINK/iot_link/network/lwm2m/wakaama_lwm2m/port\object_access_control.c ****     uint8_t result;
 284              		.loc 1 156 1 view .LVU77
 285 000e 9246     		mov	r10, r2
 161:C:/Users/²Ü¼ÒºÀ/.iotlink/sdk/IoT_LINK/iot_link/network/lwm2m/wakaama_lwm2m/port\object_access_control.c **** 
 286              		.loc 1 161 26 view .LVU78
 287 0010 FFF7FEFF 		bl	lwm2m_list_find
 288              	.LVL27:
 163:C:/Users/²Ü¼ÒºÀ/.iotlink/sdk/IoT_LINK/iot_link/network/lwm2m/wakaama_lwm2m/port\object_access_control.c ****     {
 289              		.loc 1 163 5 is_stmt 1 view .LVU79
 163:C:/Users/²Ü¼ÒºÀ/.iotlink/sdk/IoT_LINK/iot_link/network/lwm2m/wakaama_lwm2m/port\object_access_control.c ****     {
 290              		.loc 1 163 8 is_stmt 0 view .LVU80
 291 0014 0546     		mov	r5, r0
 292 0016 0028     		cmp	r0, #0
 293 0018 77D0     		beq	.L31
 169:C:/Users/²Ü¼ÒºÀ/.iotlink/sdk/IoT_LINK/iot_link/network/lwm2m/wakaama_lwm2m/port\object_access_control.c ****     {
 294              		.loc 1 169 5 is_stmt 1 view .LVU81
 169:C:/Users/²Ü¼ÒºÀ/.iotlink/sdk/IoT_LINK/iot_link/network/lwm2m/wakaama_lwm2m/port\object_access_control.c ****     {
 295              		.loc 1 169 8 is_stmt 0 view .LVU82
 296 001a 3C68     		ldr	r4, [r7]
 297 001c 9CB9     		cbnz	r4, .L15
 298              	.LBB24:
 171:C:/Users/²Ü¼ÒºÀ/.iotlink/sdk/IoT_LINK/iot_link/network/lwm2m/wakaama_lwm2m/port\object_access_control.c ****         {
 299              		.loc 1 171 9 is_stmt 1 view .LVU83
 178:C:/Users/²Ü¼ÒºÀ/.iotlink/sdk/IoT_LINK/iot_link/network/lwm2m/wakaama_lwm2m/port\object_access_control.c ****         *dataArrayP = lwm2m_data_new(nbRes);
 300              		.loc 1 178 9 view .LVU84
 301              	.LVL28:
 179:C:/Users/²Ü¼ÒºÀ/.iotlink/sdk/IoT_LINK/iot_link/network/lwm2m/wakaama_lwm2m/port\object_access_control.c **** 
 302              		.loc 1 179 9 view .LVU85
 179:C:/Users/²Ü¼ÒºÀ/.iotlink/sdk/IoT_LINK/iot_link/network/lwm2m/wakaama_lwm2m/port\object_access_control.c **** 
 303              		.loc 1 179 23 is_stmt 0 view .LVU86
 304 001e 0420     		movs	r0, #4
 305              	.LVL29:
 179:C:/Users/²Ü¼ÒºÀ/.iotlink/sdk/IoT_LINK/iot_link/network/lwm2m/wakaama_lwm2m/port\object_access_control.c **** 
 306              		.loc 1 179 23 view .LVU87
 307 0020 FFF7FEFF 		bl	lwm2m_data_new
 308              	.LVL30:
ARM GAS  C:\Users\²Ü¼ÒºÀ\AppData\Local\Temp\cc4d6LXN.s 			page 18


 179:C:/Users/²Ü¼ÒºÀ/.iotlink/sdk/IoT_LINK/iot_link/network/lwm2m/wakaama_lwm2m/port\object_access_control.c **** 
 309              		.loc 1 179 21 view .LVU88
 310 0024 CAF80000 		str	r0, [r10]
 181:C:/Users/²Ü¼ÒºÀ/.iotlink/sdk/IoT_LINK/iot_link/network/lwm2m/wakaama_lwm2m/port\object_access_control.c ****             return COAP_500_INTERNAL_SERVER_ERROR ;
 311              		.loc 1 181 9 is_stmt 1 view .LVU89
 181:C:/Users/²Ü¼ÒºÀ/.iotlink/sdk/IoT_LINK/iot_link/network/lwm2m/wakaama_lwm2m/port\object_access_control.c ****             return COAP_500_INTERNAL_SERVER_ERROR ;
 312              		.loc 1 181 12 is_stmt 0 view .LVU90
 313 0028 20B9     		cbnz	r0, .L16
 182:C:/Users/²Ü¼ÒºÀ/.iotlink/sdk/IoT_LINK/iot_link/network/lwm2m/wakaama_lwm2m/port\object_access_control.c **** 
 314              		.loc 1 182 13 is_stmt 1 view .LVU91
 182:C:/Users/²Ü¼ÒºÀ/.iotlink/sdk/IoT_LINK/iot_link/network/lwm2m/wakaama_lwm2m/port\object_access_control.c **** 
 315              		.loc 1 182 20 is_stmt 0 view .LVU92
 316 002a A026     		movs	r6, #160
 317              	.LVL31:
 318              	.L14:
 182:C:/Users/²Ü¼ÒºÀ/.iotlink/sdk/IoT_LINK/iot_link/network/lwm2m/wakaama_lwm2m/port\object_access_control.c **** 
 319              		.loc 1 182 20 view .LVU93
 320              	.LBE24:
 215:C:/Users/²Ü¼ÒºÀ/.iotlink/sdk/IoT_LINK/iot_link/network/lwm2m/wakaama_lwm2m/port\object_access_control.c **** 
 321              		.loc 1 215 1 view .LVU94
 322 002c 3046     		mov	r0, r6
 323 002e 05B0     		add	sp, sp, #20
 324              	.LCFI6:
 325              		.cfi_remember_state
 326              		.cfi_def_cfa_offset 36
 327              		@ sp needed
 328 0030 BDE8F08F 		pop	{r4, r5, r6, r7, r8, r9, r10, fp, pc}
 329              	.LVL32:
 330              	.L16:
 331              	.LCFI7:
 332              		.cfi_restore_state
 333              	.LBB25:
 184:C:/Users/²Ü¼ÒºÀ/.iotlink/sdk/IoT_LINK/iot_link/network/lwm2m/wakaama_lwm2m/port\object_access_control.c **** 
 334              		.loc 1 184 9 is_stmt 1 view .LVU95
 184:C:/Users/²Ü¼ÒºÀ/.iotlink/sdk/IoT_LINK/iot_link/network/lwm2m/wakaama_lwm2m/port\object_access_control.c **** 
 335              		.loc 1 184 19 is_stmt 0 view .LVU96
 336 0034 0423     		movs	r3, #4
 337 0036 3B60     		str	r3, [r7]
 186:C:/Users/²Ü¼ÒºÀ/.iotlink/sdk/IoT_LINK/iot_link/network/lwm2m/wakaama_lwm2m/port\object_access_control.c ****         {
 338              		.loc 1 186 9 is_stmt 1 view .LVU97
 339              	.LVL33:
 186:C:/Users/²Ü¼ÒºÀ/.iotlink/sdk/IoT_LINK/iot_link/network/lwm2m/wakaama_lwm2m/port\object_access_control.c ****         {
 340              		.loc 1 186 22 view .LVU98
 188:C:/Users/²Ü¼ÒºÀ/.iotlink/sdk/IoT_LINK/iot_link/network/lwm2m/wakaama_lwm2m/port\object_access_control.c ****         }
 341              		.loc 1 188 13 view .LVU99
 188:C:/Users/²Ü¼ÒºÀ/.iotlink/sdk/IoT_LINK/iot_link/network/lwm2m/wakaama_lwm2m/port\object_access_control.c ****         }
 342              		.loc 1 188 34 is_stmt 0 view .LVU100
 343 0038 0123     		movs	r3, #1
 344 003a 4382     		strh	r3, [r0, #18]	@ movhi
 345 003c 0223     		movs	r3, #2
 346 003e 4384     		strh	r3, [r0, #34]	@ movhi
 347 0040 0323     		movs	r3, #3
 348 0042 4480     		strh	r4, [r0, #2]	@ movhi
 186:C:/Users/²Ü¼ÒºÀ/.iotlink/sdk/IoT_LINK/iot_link/network/lwm2m/wakaama_lwm2m/port\object_access_control.c ****         {
 349              		.loc 1 186 34 is_stmt 1 view .LVU101
 350              	.LVL34:
 186:C:/Users/²Ü¼ÒºÀ/.iotlink/sdk/IoT_LINK/iot_link/network/lwm2m/wakaama_lwm2m/port\object_access_control.c ****         {
ARM GAS  C:\Users\²Ü¼ÒºÀ\AppData\Local\Temp\cc4d6LXN.s 			page 19


 351              		.loc 1 186 22 view .LVU102
 188:C:/Users/²Ü¼ÒºÀ/.iotlink/sdk/IoT_LINK/iot_link/network/lwm2m/wakaama_lwm2m/port\object_access_control.c ****         }
 352              		.loc 1 188 13 view .LVU103
 186:C:/Users/²Ü¼ÒºÀ/.iotlink/sdk/IoT_LINK/iot_link/network/lwm2m/wakaama_lwm2m/port\object_access_control.c ****         {
 353              		.loc 1 186 34 view .LVU104
 186:C:/Users/²Ü¼ÒºÀ/.iotlink/sdk/IoT_LINK/iot_link/network/lwm2m/wakaama_lwm2m/port\object_access_control.c ****         {
 354              		.loc 1 186 22 view .LVU105
 188:C:/Users/²Ü¼ÒºÀ/.iotlink/sdk/IoT_LINK/iot_link/network/lwm2m/wakaama_lwm2m/port\object_access_control.c ****         }
 355              		.loc 1 188 13 view .LVU106
 186:C:/Users/²Ü¼ÒºÀ/.iotlink/sdk/IoT_LINK/iot_link/network/lwm2m/wakaama_lwm2m/port\object_access_control.c ****         {
 356              		.loc 1 186 34 view .LVU107
 186:C:/Users/²Ü¼ÒºÀ/.iotlink/sdk/IoT_LINK/iot_link/network/lwm2m/wakaama_lwm2m/port\object_access_control.c ****         {
 357              		.loc 1 186 22 view .LVU108
 188:C:/Users/²Ü¼ÒºÀ/.iotlink/sdk/IoT_LINK/iot_link/network/lwm2m/wakaama_lwm2m/port\object_access_control.c ****         }
 358              		.loc 1 188 13 view .LVU109
 188:C:/Users/²Ü¼ÒºÀ/.iotlink/sdk/IoT_LINK/iot_link/network/lwm2m/wakaama_lwm2m/port\object_access_control.c ****         }
 359              		.loc 1 188 34 is_stmt 0 view .LVU110
 360 0044 4386     		strh	r3, [r0, #50]	@ movhi
 186:C:/Users/²Ü¼ÒºÀ/.iotlink/sdk/IoT_LINK/iot_link/network/lwm2m/wakaama_lwm2m/port\object_access_control.c ****         {
 361              		.loc 1 186 34 is_stmt 1 view .LVU111
 362              	.LVL35:
 186:C:/Users/²Ü¼ÒºÀ/.iotlink/sdk/IoT_LINK/iot_link/network/lwm2m/wakaama_lwm2m/port\object_access_control.c ****         {
 363              		.loc 1 186 22 view .LVU112
 364              	.L15:
 186:C:/Users/²Ü¼ÒºÀ/.iotlink/sdk/IoT_LINK/iot_link/network/lwm2m/wakaama_lwm2m/port\object_access_control.c ****         {
 365              		.loc 1 186 22 is_stmt 0 view .LVU113
 366              	.LBE25:
 156:C:/Users/²Ü¼ÒºÀ/.iotlink/sdk/IoT_LINK/iot_link/network/lwm2m/wakaama_lwm2m/port\object_access_control.c ****     uint8_t result;
 367              		.loc 1 156 1 view .LVU114
 368 0046 0024     		movs	r4, #0
 369 0048 A146     		mov	r9, r4
 370              	.L30:
 371              	.LVL36:
 194:C:/Users/²Ü¼ÒºÀ/.iotlink/sdk/IoT_LINK/iot_link/network/lwm2m/wakaama_lwm2m/port\object_access_control.c ****     {
 372              		.loc 1 194 5 is_stmt 1 view .LVU115
 196:C:/Users/²Ü¼ÒºÀ/.iotlink/sdk/IoT_LINK/iot_link/network/lwm2m/wakaama_lwm2m/port\object_access_control.c **** 
 373              		.loc 1 196 9 view .LVU116
 374 004a 2301     		lsls	r3, r4, #4
 375 004c 0193     		str	r3, [sp, #4]
 196:C:/Users/²Ü¼ÒºÀ/.iotlink/sdk/IoT_LINK/iot_link/network/lwm2m/wakaama_lwm2m/port\object_access_control.c **** 
 376              		.loc 1 196 18 is_stmt 0 view .LVU117
 377 004e DAF80030 		ldr	r3, [r10]
 378 0052 03EB0418 		add	r8, r3, r4, lsl #4
 379              	.LVL37:
 380              	.LBB26:
 381              	.LBI26:
 101:C:/Users/²Ü¼ÒºÀ/.iotlink/sdk/IoT_LINK/iot_link/network/lwm2m/wakaama_lwm2m/port\object_access_control.c **** {
 382              		.loc 1 101 16 is_stmt 1 view .LVU118
 383              	.LBB27:
 103:C:/Users/²Ü¼ÒºÀ/.iotlink/sdk/IoT_LINK/iot_link/network/lwm2m/wakaama_lwm2m/port\object_access_control.c ****     {
 384              		.loc 1 103 5 view .LVU119
 385 0056 B8F80230 		ldrh	r3, [r8, #2]
 386 005a 032B     		cmp	r3, #3
 387 005c 42D8     		bhi	.L17
 388 005e DFE803F0 		tbb	[pc, r3]
 389              	.L19:
 390 0062 02       		.byte	(.L22-.L19)/2
ARM GAS  C:\Users\²Ü¼ÒºÀ\AppData\Local\Temp\cc4d6LXN.s 			page 20


 391 0063 08       		.byte	(.L21-.L19)/2
 392 0064 0B       		.byte	(.L20-.L19)/2
 393 0065 3E       		.byte	(.L18-.L19)/2
 394              		.p2align 1
 395              	.L22:
 106:C:/Users/²Ü¼ÒºÀ/.iotlink/sdk/IoT_LINK/iot_link/network/lwm2m/wakaama_lwm2m/port\object_access_control.c ****             return COAP_205_CONTENT;
 396              		.loc 1 106 13 view .LVU120
 397 0066 E888     		ldrh	r0, [r5, #6]
 398 0068 4246     		mov	r2, r8
 399              	.LVL38:
 400              	.L43:
 146:C:/Users/²Ü¼ÒºÀ/.iotlink/sdk/IoT_LINK/iot_link/network/lwm2m/wakaama_lwm2m/port\object_access_control.c ****             return COAP_205_CONTENT;
 401              		.loc 1 146 13 is_stmt 0 view .LVU121
 402 006a 0021     		movs	r1, #0
 403 006c FFF7FEFF 		bl	lwm2m_data_encode_int
 404              	.LVL39:
 146:C:/Users/²Ü¼ÒºÀ/.iotlink/sdk/IoT_LINK/iot_link/network/lwm2m/wakaama_lwm2m/port\object_access_control.c ****             return COAP_205_CONTENT;
 405              		.loc 1 146 13 view .LVU122
 406 0070 14E0     		b	.L42
 407              	.L21:
 110:C:/Users/²Ü¼ÒºÀ/.iotlink/sdk/IoT_LINK/iot_link/network/lwm2m/wakaama_lwm2m/port\object_access_control.c ****             return COAP_205_CONTENT;
 408              		.loc 1 110 13 is_stmt 1 view .LVU123
 409 0072 2889     		ldrh	r0, [r5, #8]
 410 0074 4246     		mov	r2, r8
 411 0076 F8E7     		b	.L43
 412              	.L20:
 413              	.LBB28:
 115:C:/Users/²Ü¼ÒºÀ/.iotlink/sdk/IoT_LINK/iot_link/network/lwm2m/wakaama_lwm2m/port\object_access_control.c ****             acc_ctrl_ri_t *accCtrlRiP;
 414              		.loc 1 115 13 view .LVU124
 116:C:/Users/²Ü¼ÒºÀ/.iotlink/sdk/IoT_LINK/iot_link/network/lwm2m/wakaama_lwm2m/port\object_access_control.c **** 
 415              		.loc 1 116 13 view .LVU125
 118:C:/Users/²Ü¼ÒºÀ/.iotlink/sdk/IoT_LINK/iot_link/network/lwm2m/wakaama_lwm2m/port\object_access_control.c ****                  NULL != accCtrlRiP;
 416              		.loc 1 118 13 view .LVU126
 118:C:/Users/²Ü¼ÒºÀ/.iotlink/sdk/IoT_LINK/iot_link/network/lwm2m/wakaama_lwm2m/port\object_access_control.c ****                  NULL != accCtrlRiP;
 417              		.loc 1 118 29 is_stmt 0 view .LVU127
 418 0078 EE68     		ldr	r6, [r5, #12]
 419              	.LVL40:
 118:C:/Users/²Ü¼ÒºÀ/.iotlink/sdk/IoT_LINK/iot_link/network/lwm2m/wakaama_lwm2m/port\object_access_control.c ****                  NULL != accCtrlRiP;
 420              		.loc 1 118 62 view .LVU128
 421 007a 0020     		movs	r0, #0
 422              	.LVL41:
 423              	.L24:
 119:C:/Users/²Ü¼ÒºÀ/.iotlink/sdk/IoT_LINK/iot_link/network/lwm2m/wakaama_lwm2m/port\object_access_control.c ****                  accCtrlRiP = accCtrlRiP->next, ri++);
 424              		.loc 1 119 18 is_stmt 1 view .LVU129
 118:C:/Users/²Ü¼ÒºÀ/.iotlink/sdk/IoT_LINK/iot_link/network/lwm2m/wakaama_lwm2m/port\object_access_control.c ****                  NULL != accCtrlRiP;
 425              		.loc 1 118 13 is_stmt 0 view .LVU130
 426 007c F6B9     		cbnz	r6, .L25
 122:C:/Users/²Ü¼ÒºÀ/.iotlink/sdk/IoT_LINK/iot_link/network/lwm2m/wakaama_lwm2m/port\object_access_control.c ****             {
 427              		.loc 1 122 13 is_stmt 1 view .LVU131
 122:C:/Users/²Ü¼ÒºÀ/.iotlink/sdk/IoT_LINK/iot_link/network/lwm2m/wakaama_lwm2m/port\object_access_control.c ****             {
 428              		.loc 1 122 16 is_stmt 0 view .LVU132
 429 007e 0028     		cmp	r0, #0
 430 0080 30D0     		beq	.L17
 431              	.LBB29:
 128:C:/Users/²Ü¼ÒºÀ/.iotlink/sdk/IoT_LINK/iot_link/network/lwm2m/wakaama_lwm2m/port\object_access_control.c **** 
 432              		.loc 1 128 17 is_stmt 1 view .LVU133
 128:C:/Users/²Ü¼ÒºÀ/.iotlink/sdk/IoT_LINK/iot_link/network/lwm2m/wakaama_lwm2m/port\object_access_control.c **** 
ARM GAS  C:\Users\²Ü¼ÒºÀ\AppData\Local\Temp\cc4d6LXN.s 			page 21


 433              		.loc 1 128 41 is_stmt 0 view .LVU134
 434 0082 FFF7FEFF 		bl	lwm2m_data_new
 435              	.LVL42:
 130:C:/Users/²Ü¼ÒºÀ/.iotlink/sdk/IoT_LINK/iot_link/network/lwm2m/wakaama_lwm2m/port\object_access_control.c **** 
 436              		.loc 1 130 17 is_stmt 1 view .LVU135
 130:C:/Users/²Ü¼ÒºÀ/.iotlink/sdk/IoT_LINK/iot_link/network/lwm2m/wakaama_lwm2m/port\object_access_control.c **** 
 437              		.loc 1 130 20 is_stmt 0 view .LVU136
 438 0086 8346     		mov	fp, r0
 439 0088 0028     		cmp	r0, #0
 440 008a 3CD0     		beq	.L32
 132:C:/Users/²Ü¼ÒºÀ/.iotlink/sdk/IoT_LINK/iot_link/network/lwm2m/wakaama_lwm2m/port\object_access_control.c ****                      NULL != accCtrlRiP;
 441              		.loc 1 132 17 is_stmt 1 view .LVU137
 132:C:/Users/²Ü¼ÒºÀ/.iotlink/sdk/IoT_LINK/iot_link/network/lwm2m/wakaama_lwm2m/port\object_access_control.c ****                      NULL != accCtrlRiP;
 442              		.loc 1 132 33 is_stmt 0 view .LVU138
 443 008c EB68     		ldr	r3, [r5, #12]
 444              	.LVL43:
 132:C:/Users/²Ü¼ÒºÀ/.iotlink/sdk/IoT_LINK/iot_link/network/lwm2m/wakaama_lwm2m/port\object_access_control.c ****                      NULL != accCtrlRiP;
 445              		.loc 1 132 33 view .LVU139
 446 008e 0246     		mov	r2, r0
 447              	.LVL44:
 448              	.L26:
 133:C:/Users/²Ü¼ÒºÀ/.iotlink/sdk/IoT_LINK/iot_link/network/lwm2m/wakaama_lwm2m/port\object_access_control.c ****                      accCtrlRiP = accCtrlRiP->next, ri++)
 449              		.loc 1 133 22 is_stmt 1 view .LVU140
 132:C:/Users/²Ü¼ÒºÀ/.iotlink/sdk/IoT_LINK/iot_link/network/lwm2m/wakaama_lwm2m/port\object_access_control.c ****                      NULL != accCtrlRiP;
 450              		.loc 1 132 17 is_stmt 0 view .LVU141
 451 0090 BBB9     		cbnz	r3, .L27
 140:C:/Users/²Ü¼ÒºÀ/.iotlink/sdk/IoT_LINK/iot_link/network/lwm2m/wakaama_lwm2m/port\object_access_control.c ****                 return COAP_205_CONTENT;
 452              		.loc 1 140 17 is_stmt 1 view .LVU142
 453 0092 4246     		mov	r2, r8
 454 0094 3146     		mov	r1, r6
 455 0096 5846     		mov	r0, fp
 456 0098 FFF7FEFF 		bl	lwm2m_data_encode_instances
 457              	.LVL45:
 141:C:/Users/²Ü¼ÒºÀ/.iotlink/sdk/IoT_LINK/iot_link/network/lwm2m/wakaama_lwm2m/port\object_access_control.c ****             }
 458              		.loc 1 141 17 view .LVU143
 141:C:/Users/²Ü¼ÒºÀ/.iotlink/sdk/IoT_LINK/iot_link/network/lwm2m/wakaama_lwm2m/port\object_access_control.c ****             }
 459              		.loc 1 141 17 is_stmt 0 view .LVU144
 460              	.LBE29:
 461              	.LBE28:
 462              	.LBE27:
 463              	.LBE26:
 198:C:/Users/²Ü¼ÒºÀ/.iotlink/sdk/IoT_LINK/iot_link/network/lwm2m/wakaama_lwm2m/port\object_access_control.c ****         {
 464              		.loc 1 198 9 is_stmt 1 view .LVU145
 465              	.L42:
 466              	.LBB38:
 467              	.LBB34:
 147:C:/Users/²Ü¼ÒºÀ/.iotlink/sdk/IoT_LINK/iot_link/network/lwm2m/wakaama_lwm2m/port\object_access_control.c **** 
 468              		.loc 1 147 13 view .LVU146
 147:C:/Users/²Ü¼ÒºÀ/.iotlink/sdk/IoT_LINK/iot_link/network/lwm2m/wakaama_lwm2m/port\object_access_control.c **** 
 469              		.loc 1 147 13 is_stmt 0 view .LVU147
 470              	.LBE34:
 471              	.LBE38:
 198:C:/Users/²Ü¼ÒºÀ/.iotlink/sdk/IoT_LINK/iot_link/network/lwm2m/wakaama_lwm2m/port\object_access_control.c ****         {
 472              		.loc 1 198 9 is_stmt 1 view .LVU148
 473              	.LBB39:
 474              	.LBB35:
 147:C:/Users/²Ü¼ÒºÀ/.iotlink/sdk/IoT_LINK/iot_link/network/lwm2m/wakaama_lwm2m/port\object_access_control.c **** 
ARM GAS  C:\Users\²Ü¼ÒºÀ\AppData\Local\Temp\cc4d6LXN.s 			page 22


 475              		.loc 1 147 20 is_stmt 0 view .LVU149
 476 009c 4526     		movs	r6, #69
 477              	.LVL46:
 478              	.L23:
 147:C:/Users/²Ü¼ÒºÀ/.iotlink/sdk/IoT_LINK/iot_link/network/lwm2m/wakaama_lwm2m/port\object_access_control.c **** 
 479              		.loc 1 147 20 view .LVU150
 480              	.LBE35:
 481              	.LBE39:
 204:C:/Users/²Ü¼ÒºÀ/.iotlink/sdk/IoT_LINK/iot_link/network/lwm2m/wakaama_lwm2m/port\object_access_control.c ****         {
 482              		.loc 1 204 14 is_stmt 1 view .LVU151
 204:C:/Users/²Ü¼ÒºÀ/.iotlink/sdk/IoT_LINK/iot_link/network/lwm2m/wakaama_lwm2m/port\object_access_control.c ****         {
 483              		.loc 1 204 17 is_stmt 0 view .LVU152
 484 009e B9F1000F 		cmp	r9, #0
 485 00a2 26D0     		beq	.L28
 206:C:/Users/²Ü¼ÒºÀ/.iotlink/sdk/IoT_LINK/iot_link/network/lwm2m/wakaama_lwm2m/port\object_access_control.c ****         }
 486              		.loc 1 206 13 is_stmt 1 view .LVU153
 206:C:/Users/²Ü¼ÒºÀ/.iotlink/sdk/IoT_LINK/iot_link/network/lwm2m/wakaama_lwm2m/port\object_access_control.c ****         }
 487              		.loc 1 206 39 is_stmt 0 view .LVU154
 488 00a4 DAF80030 		ldr	r3, [r10]
 206:C:/Users/²Ü¼ÒºÀ/.iotlink/sdk/IoT_LINK/iot_link/network/lwm2m/wakaama_lwm2m/port\object_access_control.c ****         }
 489              		.loc 1 206 36 view .LVU155
 490 00a8 019A     		ldr	r2, [sp, #4]
 206:C:/Users/²Ü¼ÒºÀ/.iotlink/sdk/IoT_LINK/iot_link/network/lwm2m/wakaama_lwm2m/port\object_access_control.c ****         }
 491              		.loc 1 206 30 view .LVU156
 492 00aa A4EB090C 		sub	ip, r4, r9
 206:C:/Users/²Ü¼ÒºÀ/.iotlink/sdk/IoT_LINK/iot_link/network/lwm2m/wakaama_lwm2m/port\object_access_control.c ****         }
 493              		.loc 1 206 36 view .LVU157
 494 00ae 03EB0C1C 		add	ip, r3, ip, lsl #4
 495 00b2 1344     		add	r3, r3, r2
 496 00b4 0FCB     		ldm	r3, {r0, r1, r2, r3}
 497 00b6 8CE80F00 		stm	ip, {r0, r1, r2, r3}
 498 00ba 1AE0     		b	.L28
 499              	.LVL47:
 500              	.L25:
 501              	.LBB40:
 502              	.LBB36:
 503              	.LBB32:
 120:C:/Users/²Ü¼ÒºÀ/.iotlink/sdk/IoT_LINK/iot_link/network/lwm2m/wakaama_lwm2m/port\object_access_control.c **** 
 504              		.loc 1 120 54 is_stmt 1 view .LVU158
 120:C:/Users/²Ü¼ÒºÀ/.iotlink/sdk/IoT_LINK/iot_link/network/lwm2m/wakaama_lwm2m/port\object_access_control.c **** 
 505              		.loc 1 120 18 view .LVU159
 120:C:/Users/²Ü¼ÒºÀ/.iotlink/sdk/IoT_LINK/iot_link/network/lwm2m/wakaama_lwm2m/port\object_access_control.c **** 
 506              		.loc 1 120 29 is_stmt 0 view .LVU160
 507 00bc 3668     		ldr	r6, [r6]
 508              	.LVL48:
 120:C:/Users/²Ü¼ÒºÀ/.iotlink/sdk/IoT_LINK/iot_link/network/lwm2m/wakaama_lwm2m/port\object_access_control.c **** 
 509              		.loc 1 120 51 view .LVU161
 510 00be 0130     		adds	r0, r0, #1
 511              	.LVL49:
 120:C:/Users/²Ü¼ÒºÀ/.iotlink/sdk/IoT_LINK/iot_link/network/lwm2m/wakaama_lwm2m/port\object_access_control.c **** 
 512              		.loc 1 120 51 view .LVU162
 513 00c0 DCE7     		b	.L24
 514              	.LVL50:
 515              	.L27:
 516              	.LBB30:
 136:C:/Users/²Ü¼ÒºÀ/.iotlink/sdk/IoT_LINK/iot_link/network/lwm2m/wakaama_lwm2m/port\object_access_control.c ****                     lwm2m_data_encode_int(accCtrlRiP->accCtrlValue, &subTlvP[ri]);
 517              		.loc 1 136 21 is_stmt 1 view .LVU163
ARM GAS  C:\Users\²Ü¼ÒºÀ\AppData\Local\Temp\cc4d6LXN.s 			page 23


 136:C:/Users/²Ü¼ÒºÀ/.iotlink/sdk/IoT_LINK/iot_link/network/lwm2m/wakaama_lwm2m/port\object_access_control.c ****                     lwm2m_data_encode_int(accCtrlRiP->accCtrlValue, &subTlvP[ri]);
 518              		.loc 1 136 48 is_stmt 0 view .LVU164
 519 00c2 9988     		ldrh	r1, [r3, #4]
 136:C:/Users/²Ü¼ÒºÀ/.iotlink/sdk/IoT_LINK/iot_link/network/lwm2m/wakaama_lwm2m/port\object_access_control.c ****                     lwm2m_data_encode_int(accCtrlRiP->accCtrlValue, &subTlvP[ri]);
 520              		.loc 1 136 36 view .LVU165
 521 00c4 5180     		strh	r1, [r2, #2]	@ movhi
 137:C:/Users/²Ü¼ÒºÀ/.iotlink/sdk/IoT_LINK/iot_link/network/lwm2m/wakaama_lwm2m/port\object_access_control.c ****                 }
 522              		.loc 1 137 21 is_stmt 1 view .LVU166
 523 00c6 D888     		ldrh	r0, [r3, #6]
 524 00c8 0392     		str	r2, [sp, #12]
 525 00ca 0021     		movs	r1, #0
 526 00cc 0293     		str	r3, [sp, #8]
 527 00ce FFF7FEFF 		bl	lwm2m_data_encode_int
 528              	.LVL51:
 134:C:/Users/²Ü¼ÒºÀ/.iotlink/sdk/IoT_LINK/iot_link/network/lwm2m/wakaama_lwm2m/port\object_access_control.c ****                 {
 529              		.loc 1 134 22 view .LVU167
 134:C:/Users/²Ü¼ÒºÀ/.iotlink/sdk/IoT_LINK/iot_link/network/lwm2m/wakaama_lwm2m/port\object_access_control.c ****                 {
 530              		.loc 1 134 33 is_stmt 0 view .LVU168
 531 00d2 029B     		ldr	r3, [sp, #8]
 532 00d4 039A     		ldr	r2, [sp, #12]
 533 00d6 1B68     		ldr	r3, [r3]
 534              	.LVL52:
 134:C:/Users/²Ü¼ÒºÀ/.iotlink/sdk/IoT_LINK/iot_link/network/lwm2m/wakaama_lwm2m/port\object_access_control.c ****                 {
 535              		.loc 1 134 55 view .LVU169
 536 00d8 0136     		adds	r6, r6, #1
 537              	.LVL53:
 134:C:/Users/²Ü¼ÒºÀ/.iotlink/sdk/IoT_LINK/iot_link/network/lwm2m/wakaama_lwm2m/port\object_access_control.c ****                 {
 538              		.loc 1 134 55 view .LVU170
 539 00da 1032     		adds	r2, r2, #16
 540 00dc D8E7     		b	.L26
 541              	.LVL54:
 542              	.L18:
 134:C:/Users/²Ü¼ÒºÀ/.iotlink/sdk/IoT_LINK/iot_link/network/lwm2m/wakaama_lwm2m/port\object_access_control.c ****                 {
 543              		.loc 1 134 55 view .LVU171
 544              	.LBE30:
 545              	.LBE32:
 146:C:/Users/²Ü¼ÒºÀ/.iotlink/sdk/IoT_LINK/iot_link/network/lwm2m/wakaama_lwm2m/port\object_access_control.c ****             return COAP_205_CONTENT;
 546              		.loc 1 146 13 is_stmt 1 view .LVU172
 547 00de 6889     		ldrh	r0, [r5, #10]
 548 00e0 4246     		mov	r2, r8
 549 00e2 C2E7     		b	.L43
 550              	.L17:
 551              	.LVL55:
 146:C:/Users/²Ü¼ÒºÀ/.iotlink/sdk/IoT_LINK/iot_link/network/lwm2m/wakaama_lwm2m/port\object_access_control.c ****             return COAP_205_CONTENT;
 552              		.loc 1 146 13 is_stmt 0 view .LVU173
 553              	.LBE36:
 554              	.LBE40:
 200:C:/Users/²Ü¼ÒºÀ/.iotlink/sdk/IoT_LINK/iot_link/network/lwm2m/wakaama_lwm2m/port\object_access_control.c **** 
 555              		.loc 1 200 13 is_stmt 1 view .LVU174
 202:C:/Users/²Ü¼ÒºÀ/.iotlink/sdk/IoT_LINK/iot_link/network/lwm2m/wakaama_lwm2m/port\object_access_control.c ****         }
 556              		.loc 1 202 16 is_stmt 0 view .LVU175
 557 00e4 3B68     		ldr	r3, [r7]
 202:C:/Users/²Ü¼ÒºÀ/.iotlink/sdk/IoT_LINK/iot_link/network/lwm2m/wakaama_lwm2m/port\object_access_control.c ****         }
 558              		.loc 1 202 39 view .LVU176
 559 00e6 022B     		cmp	r3, #2
 200:C:/Users/²Ü¼ÒºÀ/.iotlink/sdk/IoT_LINK/iot_link/network/lwm2m/wakaama_lwm2m/port\object_access_control.c **** 
 560              		.loc 1 200 15 view .LVU177
ARM GAS  C:\Users\²Ü¼ÒºÀ\AppData\Local\Temp\cc4d6LXN.s 			page 24


 561 00e8 09F10109 		add	r9, r9, #1
 562              	.LVL56:
 202:C:/Users/²Ü¼ÒºÀ/.iotlink/sdk/IoT_LINK/iot_link/network/lwm2m/wakaama_lwm2m/port\object_access_control.c ****         }
 563              		.loc 1 202 13 is_stmt 1 view .LVU178
 202:C:/Users/²Ü¼ÒºÀ/.iotlink/sdk/IoT_LINK/iot_link/network/lwm2m/wakaama_lwm2m/port\object_access_control.c ****         }
 564              		.loc 1 202 39 is_stmt 0 view .LVU179
 565 00ec B4BF     		ite	lt
 566 00ee 8426     		movlt	r6, #132
 567 00f0 4526     		movge	r6, #69
 568              	.L28:
 569              	.LVL57:
 209:C:/Users/²Ü¼ÒºÀ/.iotlink/sdk/IoT_LINK/iot_link/network/lwm2m/wakaama_lwm2m/port\object_access_control.c ****     }
 570              		.loc 1 209 9 is_stmt 1 view .LVU180
 211:C:/Users/²Ü¼ÒºÀ/.iotlink/sdk/IoT_LINK/iot_link/network/lwm2m/wakaama_lwm2m/port\object_access_control.c **** 
 571              		.loc 1 211 5 is_stmt 0 view .LVU181
 572 00f2 3B68     		ldr	r3, [r7]
 209:C:/Users/²Ü¼ÒºÀ/.iotlink/sdk/IoT_LINK/iot_link/network/lwm2m/wakaama_lwm2m/port\object_access_control.c ****     }
 573              		.loc 1 209 11 view .LVU182
 574 00f4 0134     		adds	r4, r4, #1
 575              	.LVL58:
 211:C:/Users/²Ü¼ÒºÀ/.iotlink/sdk/IoT_LINK/iot_link/network/lwm2m/wakaama_lwm2m/port\object_access_control.c **** 
 576              		.loc 1 211 11 is_stmt 1 view .LVU183
 211:C:/Users/²Ü¼ÒºÀ/.iotlink/sdk/IoT_LINK/iot_link/network/lwm2m/wakaama_lwm2m/port\object_access_control.c **** 
 577              		.loc 1 211 5 is_stmt 0 view .LVU184
 578 00f6 A342     		cmp	r3, r4
 579 00f8 01DD     		ble	.L29
 211:C:/Users/²Ü¼ÒºÀ/.iotlink/sdk/IoT_LINK/iot_link/network/lwm2m/wakaama_lwm2m/port\object_access_control.c **** 
 580              		.loc 1 211 27 discriminator 1 view .LVU185
 581 00fa 452E     		cmp	r6, #69
 582 00fc A5D0     		beq	.L30
 583              	.L29:
 584              	.LVL59:
 213:C:/Users/²Ü¼ÒºÀ/.iotlink/sdk/IoT_LINK/iot_link/network/lwm2m/wakaama_lwm2m/port\object_access_control.c ****     return result;
 585              		.loc 1 213 5 is_stmt 1 view .LVU186
 213:C:/Users/²Ü¼ÒºÀ/.iotlink/sdk/IoT_LINK/iot_link/network/lwm2m/wakaama_lwm2m/port\object_access_control.c ****     return result;
 586              		.loc 1 213 20 is_stmt 0 view .LVU187
 587 00fe A4EB0904 		sub	r4, r4, r9
 213:C:/Users/²Ü¼ÒºÀ/.iotlink/sdk/IoT_LINK/iot_link/network/lwm2m/wakaama_lwm2m/port\object_access_control.c ****     return result;
 588              		.loc 1 213 15 view .LVU188
 589 0102 3C60     		str	r4, [r7]
 214:C:/Users/²Ü¼ÒºÀ/.iotlink/sdk/IoT_LINK/iot_link/network/lwm2m/wakaama_lwm2m/port\object_access_control.c **** }
 590              		.loc 1 214 5 is_stmt 1 view .LVU189
 214:C:/Users/²Ü¼ÒºÀ/.iotlink/sdk/IoT_LINK/iot_link/network/lwm2m/wakaama_lwm2m/port\object_access_control.c **** }
 591              		.loc 1 214 12 is_stmt 0 view .LVU190
 592 0104 92E7     		b	.L14
 593              	.LVL60:
 594              	.L32:
 595              	.LBB41:
 596              	.LBB37:
 597              	.LBB33:
 598              	.LBB31:
 130:C:/Users/²Ü¼ÒºÀ/.iotlink/sdk/IoT_LINK/iot_link/network/lwm2m/wakaama_lwm2m/port\object_access_control.c **** 
 599              		.loc 1 130 45 view .LVU191
 600 0106 A026     		movs	r6, #160
 601              	.LVL61:
 130:C:/Users/²Ü¼ÒºÀ/.iotlink/sdk/IoT_LINK/iot_link/network/lwm2m/wakaama_lwm2m/port\object_access_control.c **** 
 602              		.loc 1 130 45 view .LVU192
ARM GAS  C:\Users\²Ü¼ÒºÀ\AppData\Local\Temp\cc4d6LXN.s 			page 25


 603 0108 C9E7     		b	.L23
 604              	.LVL62:
 605              	.L31:
 130:C:/Users/²Ü¼ÒºÀ/.iotlink/sdk/IoT_LINK/iot_link/network/lwm2m/wakaama_lwm2m/port\object_access_control.c **** 
 606              		.loc 1 130 45 view .LVU193
 607              	.LBE31:
 608              	.LBE33:
 609              	.LBE37:
 610              	.LBE41:
 165:C:/Users/²Ü¼ÒºÀ/.iotlink/sdk/IoT_LINK/iot_link/network/lwm2m/wakaama_lwm2m/port\object_access_control.c ****     }
 611              		.loc 1 165 16 view .LVU194
 612 010a 8426     		movs	r6, #132
 613 010c 8EE7     		b	.L14
 614              		.cfi_endproc
 615              	.LFE13:
 617              		.section	.text.prv_add_ac_val.isra.0,"ax",%progbits
 618              		.align	1
 619              		.syntax unified
 620              		.thumb
 621              		.thumb_func
 622              		.fpu fpv4-sp-d16
 624              	prv_add_ac_val.isra.0:
 625              	.LVL63:
 626              	.LFB34:
 217:C:/Users/²Ü¼ÒºÀ/.iotlink/sdk/IoT_LINK/iot_link/network/lwm2m/wakaama_lwm2m/port\object_access_control.c ****                            uint16_t acResId, uint16_t acValue)
 627              		.loc 1 217 13 is_stmt 1 view -0
 628              		.cfi_startproc
 629              		@ args = 0, pretend = 0, frame = 0
 630              		@ frame_needed = 0, uses_anonymous_args = 0
 220:C:/Users/²Ü¼ÒºÀ/.iotlink/sdk/IoT_LINK/iot_link/network/lwm2m/wakaama_lwm2m/port\object_access_control.c ****     acc_ctrl_ri_t *accCtrlRiP;
 631              		.loc 1 220 5 view .LVU196
 221:C:/Users/²Ü¼ÒºÀ/.iotlink/sdk/IoT_LINK/iot_link/network/lwm2m/wakaama_lwm2m/port\object_access_control.c ****     accCtrlRiP = (acc_ctrl_ri_t *)lwm2m_malloc(sizeof(acc_ctrl_ri_t));
 632              		.loc 1 221 5 view .LVU197
 222:C:/Users/²Ü¼ÒºÀ/.iotlink/sdk/IoT_LINK/iot_link/network/lwm2m/wakaama_lwm2m/port\object_access_control.c **** 
 633              		.loc 1 222 5 view .LVU198
 217:C:/Users/²Ü¼ÒºÀ/.iotlink/sdk/IoT_LINK/iot_link/network/lwm2m/wakaama_lwm2m/port\object_access_control.c ****                            uint16_t acResId, uint16_t acValue)
 634              		.loc 1 217 13 is_stmt 0 view .LVU199
 635 0000 70B5     		push	{r4, r5, r6, lr}
 636              	.LCFI8:
 637              		.cfi_def_cfa_offset 16
 638              		.cfi_offset 4, -16
 639              		.cfi_offset 5, -12
 640              		.cfi_offset 6, -8
 641              		.cfi_offset 14, -4
 217:C:/Users/²Ü¼ÒºÀ/.iotlink/sdk/IoT_LINK/iot_link/network/lwm2m/wakaama_lwm2m/port\object_access_control.c ****                            uint16_t acResId, uint16_t acValue)
 642              		.loc 1 217 13 view .LVU200
 643 0002 0446     		mov	r4, r0
 222:C:/Users/²Ü¼ÒºÀ/.iotlink/sdk/IoT_LINK/iot_link/network/lwm2m/wakaama_lwm2m/port\object_access_control.c **** 
 644              		.loc 1 222 35 view .LVU201
 645 0004 0820     		movs	r0, #8
 217:C:/Users/²Ü¼ÒºÀ/.iotlink/sdk/IoT_LINK/iot_link/network/lwm2m/wakaama_lwm2m/port\object_access_control.c ****                            uint16_t acResId, uint16_t acValue)
 646              		.loc 1 217 13 view .LVU202
 647 0006 0E46     		mov	r6, r1
 648 0008 1546     		mov	r5, r2
 222:C:/Users/²Ü¼ÒºÀ/.iotlink/sdk/IoT_LINK/iot_link/network/lwm2m/wakaama_lwm2m/port\object_access_control.c **** 
 649              		.loc 1 222 35 view .LVU203
 650 000a FFF7FEFF 		bl	lwm2m_malloc
ARM GAS  C:\Users\²Ü¼ÒºÀ\AppData\Local\Temp\cc4d6LXN.s 			page 26


 651              	.LVL64:
 224:C:/Users/²Ü¼ÒºÀ/.iotlink/sdk/IoT_LINK/iot_link/network/lwm2m/wakaama_lwm2m/port\object_access_control.c ****     {
 652              		.loc 1 224 5 is_stmt 1 view .LVU204
 224:C:/Users/²Ü¼ÒºÀ/.iotlink/sdk/IoT_LINK/iot_link/network/lwm2m/wakaama_lwm2m/port\object_access_control.c ****     {
 653              		.loc 1 224 8 is_stmt 0 view .LVU205
 654 000e 48B1     		cbz	r0, .L45
 230:C:/Users/²Ü¼ÒºÀ/.iotlink/sdk/IoT_LINK/iot_link/network/lwm2m/wakaama_lwm2m/port\object_access_control.c ****         accCtrlRiP->resInstId      = acResId;
 655              		.loc 1 230 9 is_stmt 1 view .LVU206
 230:C:/Users/²Ü¼ÒºÀ/.iotlink/sdk/IoT_LINK/iot_link/network/lwm2m/wakaama_lwm2m/port\object_access_control.c ****         accCtrlRiP->resInstId      = acResId;
 656              		.loc 1 230 16 is_stmt 0 view .LVU207
 657 0010 0023     		movs	r3, #0
 658 0012 0360     		str	r3, [r0]	@ unaligned
 231:C:/Users/²Ü¼ÒºÀ/.iotlink/sdk/IoT_LINK/iot_link/network/lwm2m/wakaama_lwm2m/port\object_access_control.c ****         accCtrlRiP->accCtrlValue   = acValue;
 659              		.loc 1 231 9 is_stmt 1 view .LVU208
 231:C:/Users/²Ü¼ÒºÀ/.iotlink/sdk/IoT_LINK/iot_link/network/lwm2m/wakaama_lwm2m/port\object_access_control.c ****         accCtrlRiP->accCtrlValue   = acValue;
 660              		.loc 1 231 36 is_stmt 0 view .LVU209
 661 0014 8680     		strh	r6, [r0, #4]	@ movhi
 232:C:/Users/²Ü¼ÒºÀ/.iotlink/sdk/IoT_LINK/iot_link/network/lwm2m/wakaama_lwm2m/port\object_access_control.c ****         accCtrlOiP->accCtrlValList = (acc_ctrl_ri_t *)
 662              		.loc 1 232 9 is_stmt 1 view .LVU210
 232:C:/Users/²Ü¼ÒºÀ/.iotlink/sdk/IoT_LINK/iot_link/network/lwm2m/wakaama_lwm2m/port\object_access_control.c ****         accCtrlOiP->accCtrlValList = (acc_ctrl_ri_t *)
 663              		.loc 1 232 36 is_stmt 0 view .LVU211
 664 0016 C580     		strh	r5, [r0, #6]	@ movhi
 233:C:/Users/²Ü¼ÒºÀ/.iotlink/sdk/IoT_LINK/iot_link/network/lwm2m/wakaama_lwm2m/port\object_access_control.c ****                                      LWM2M_LIST_ADD(accCtrlOiP->accCtrlValList, accCtrlRiP);
 665              		.loc 1 233 9 is_stmt 1 view .LVU212
 234:C:/Users/²Ü¼ÒºÀ/.iotlink/sdk/IoT_LINK/iot_link/network/lwm2m/wakaama_lwm2m/port\object_access_control.c ****         ret = true;
 666              		.loc 1 234 38 is_stmt 0 view .LVU213
 667 0018 0146     		mov	r1, r0
 668 001a 2068     		ldr	r0, [r4]
 669              	.LVL65:
 234:C:/Users/²Ü¼ÒºÀ/.iotlink/sdk/IoT_LINK/iot_link/network/lwm2m/wakaama_lwm2m/port\object_access_control.c ****         ret = true;
 670              		.loc 1 234 38 view .LVU214
 671 001c FFF7FEFF 		bl	lwm2m_list_add
 672              	.LVL66:
 233:C:/Users/²Ü¼ÒºÀ/.iotlink/sdk/IoT_LINK/iot_link/network/lwm2m/wakaama_lwm2m/port\object_access_control.c ****                                      LWM2M_LIST_ADD(accCtrlOiP->accCtrlValList, accCtrlRiP);
 673              		.loc 1 233 36 view .LVU215
 674 0020 2060     		str	r0, [r4]
 234:C:/Users/²Ü¼ÒºÀ/.iotlink/sdk/IoT_LINK/iot_link/network/lwm2m/wakaama_lwm2m/port\object_access_control.c ****         ret = true;
 675              		.loc 1 234 92 is_stmt 1 view .LVU216
 235:C:/Users/²Ü¼ÒºÀ/.iotlink/sdk/IoT_LINK/iot_link/network/lwm2m/wakaama_lwm2m/port\object_access_control.c ****     }
 676              		.loc 1 235 9 view .LVU217
 677              	.LVL67:
 238:C:/Users/²Ü¼ÒºÀ/.iotlink/sdk/IoT_LINK/iot_link/network/lwm2m/wakaama_lwm2m/port\object_access_control.c **** }
 678              		.loc 1 238 5 view .LVU218
 238:C:/Users/²Ü¼ÒºÀ/.iotlink/sdk/IoT_LINK/iot_link/network/lwm2m/wakaama_lwm2m/port\object_access_control.c **** }
 679              		.loc 1 238 12 is_stmt 0 view .LVU219
 680 0022 0120     		movs	r0, #1
 681              	.LVL68:
 682              	.L45:
 239:C:/Users/²Ü¼ÒºÀ/.iotlink/sdk/IoT_LINK/iot_link/network/lwm2m/wakaama_lwm2m/port\object_access_control.c **** 
 683              		.loc 1 239 1 view .LVU220
 684 0024 70BD     		pop	{r4, r5, r6, pc}
 685              		.cfi_endproc
 686              	.LFE34:
 688              		.section	.text.prv_write_resources.isra.0,"ax",%progbits
 689              		.align	1
 690              		.syntax unified
 691              		.thumb
ARM GAS  C:\Users\²Ü¼ÒºÀ\AppData\Local\Temp\cc4d6LXN.s 			page 27


 692              		.thumb_func
 693              		.fpu fpv4-sp-d16
 695              	prv_write_resources.isra.0:
 696              	.LVL69:
 697              	.LFB36:
 241:C:/Users/²Ü¼ÒºÀ/.iotlink/sdk/IoT_LINK/iot_link/network/lwm2m/wakaama_lwm2m/port\object_access_control.c ****                                    lwm2m_data_t *tlvArray, lwm2m_object_t *objectP, bool doCreate)
 698              		.loc 1 241 16 is_stmt 1 view -0
 699              		.cfi_startproc
 700              		@ args = 4, pretend = 0, frame = 24
 701              		@ frame_needed = 0, uses_anonymous_args = 0
 244:C:/Users/²Ü¼ÒºÀ/.iotlink/sdk/IoT_LINK/iot_link/network/lwm2m/wakaama_lwm2m/port\object_access_control.c ****     uint8_t result = COAP_NO_ERROR;
 702              		.loc 1 244 5 view .LVU222
 245:C:/Users/²Ü¼ÒºÀ/.iotlink/sdk/IoT_LINK/iot_link/network/lwm2m/wakaama_lwm2m/port\object_access_control.c ****     int64_t value;
 703              		.loc 1 245 5 view .LVU223
 246:C:/Users/²Ü¼ÒºÀ/.iotlink/sdk/IoT_LINK/iot_link/network/lwm2m/wakaama_lwm2m/port\object_access_control.c ****     lwm2m_data_t *subTlvArray;
 704              		.loc 1 246 5 view .LVU224
 247:C:/Users/²Ü¼ÒºÀ/.iotlink/sdk/IoT_LINK/iot_link/network/lwm2m/wakaama_lwm2m/port\object_access_control.c ****     int ri;
 705              		.loc 1 247 5 view .LVU225
 248:C:/Users/²Ü¼ÒºÀ/.iotlink/sdk/IoT_LINK/iot_link/network/lwm2m/wakaama_lwm2m/port\object_access_control.c ****     acc_ctrl_oi_t *accCtrlOiP = (acc_ctrl_oi_t *)
 706              		.loc 1 248 5 view .LVU226
 249:C:/Users/²Ü¼ÒºÀ/.iotlink/sdk/IoT_LINK/iot_link/network/lwm2m/wakaama_lwm2m/port\object_access_control.c ****                                 lwm2m_list_find(objectP->instanceList, instanceId);
 707              		.loc 1 249 5 view .LVU227
 241:C:/Users/²Ü¼ÒºÀ/.iotlink/sdk/IoT_LINK/iot_link/network/lwm2m/wakaama_lwm2m/port\object_access_control.c ****                                    lwm2m_data_t *tlvArray, lwm2m_object_t *objectP, bool doCreate)
 708              		.loc 1 241 16 is_stmt 0 view .LVU228
 709 0000 2DE9F04F 		push	{r4, r5, r6, r7, r8, r9, r10, fp, lr}
 710              	.LCFI9:
 711              		.cfi_def_cfa_offset 36
 712              		.cfi_offset 4, -36
 713              		.cfi_offset 5, -32
 714              		.cfi_offset 6, -28
 715              		.cfi_offset 7, -24
 716              		.cfi_offset 8, -20
 717              		.cfi_offset 9, -16
 718              		.cfi_offset 10, -12
 719              		.cfi_offset 11, -8
 720              		.cfi_offset 14, -4
 721 0004 87B0     		sub	sp, sp, #28
 722              	.LCFI10:
 723              		.cfi_def_cfa_offset 64
 241:C:/Users/²Ü¼ÒºÀ/.iotlink/sdk/IoT_LINK/iot_link/network/lwm2m/wakaama_lwm2m/port\object_access_control.c ****                                    lwm2m_data_t *tlvArray, lwm2m_object_t *objectP, bool doCreate)
 724              		.loc 1 241 16 view .LVU229
 725 0006 1446     		mov	r4, r2
 726 0008 0291     		str	r1, [sp, #8]
 250:C:/Users/²Ü¼ÒºÀ/.iotlink/sdk/IoT_LINK/iot_link/network/lwm2m/wakaama_lwm2m/port\object_access_control.c **** 
 727              		.loc 1 250 33 view .LVU230
 728 000a 0146     		mov	r1, r0
 729              	.LVL70:
 250:C:/Users/²Ü¼ÒºÀ/.iotlink/sdk/IoT_LINK/iot_link/network/lwm2m/wakaama_lwm2m/port\object_access_control.c **** 
 730              		.loc 1 250 33 view .LVU231
 731 000c 1846     		mov	r0, r3
 732              	.LVL71:
 241:C:/Users/²Ü¼ÒºÀ/.iotlink/sdk/IoT_LINK/iot_link/network/lwm2m/wakaama_lwm2m/port\object_access_control.c ****                                    lwm2m_data_t *tlvArray, lwm2m_object_t *objectP, bool doCreate)
 733              		.loc 1 241 16 view .LVU232
 734 000e 9DF84090 		ldrb	r9, [sp, #64]	@ zero_extendqisi2
 250:C:/Users/²Ü¼ÒºÀ/.iotlink/sdk/IoT_LINK/iot_link/network/lwm2m/wakaama_lwm2m/port\object_access_control.c **** 
 735              		.loc 1 250 33 view .LVU233
 736 0012 FFF7FEFF 		bl	lwm2m_list_find
ARM GAS  C:\Users\²Ü¼ÒºÀ\AppData\Local\Temp\cc4d6LXN.s 			page 28


 737              	.LVL72:
 252:C:/Users/²Ü¼ÒºÀ/.iotlink/sdk/IoT_LINK/iot_link/network/lwm2m/wakaama_lwm2m/port\object_access_control.c ****         return COAP_404_NOT_FOUND ;
 738              		.loc 1 252 5 is_stmt 1 view .LVU234
 252:C:/Users/²Ü¼ÒºÀ/.iotlink/sdk/IoT_LINK/iot_link/network/lwm2m/wakaama_lwm2m/port\object_access_control.c ****         return COAP_404_NOT_FOUND ;
 739              		.loc 1 252 8 is_stmt 0 view .LVU235
 740 0016 0546     		mov	r5, r0
 741 0018 0028     		cmp	r0, #0
 742 001a 00F09C80 		beq	.L66
 245:C:/Users/²Ü¼ÒºÀ/.iotlink/sdk/IoT_LINK/iot_link/network/lwm2m/wakaama_lwm2m/port\object_access_control.c ****     int64_t value;
 743              		.loc 1 245 13 view .LVU236
 744 001e 0022     		movs	r2, #0
 255:C:/Users/²Ü¼ÒºÀ/.iotlink/sdk/IoT_LINK/iot_link/network/lwm2m/wakaama_lwm2m/port\object_access_control.c **** 
 745              		.loc 1 255 7 view .LVU237
 746 0020 1746     		mov	r7, r2
 747              	.LVL73:
 748              	.L64:
 257:C:/Users/²Ü¼ÒºÀ/.iotlink/sdk/IoT_LINK/iot_link/network/lwm2m/wakaama_lwm2m/port\object_access_control.c ****     {
 749              		.loc 1 257 5 is_stmt 1 view .LVU238
 259:C:/Users/²Ü¼ÒºÀ/.iotlink/sdk/IoT_LINK/iot_link/network/lwm2m/wakaama_lwm2m/port\object_access_control.c ****         {
 750              		.loc 1 259 9 view .LVU239
 751 0022 6388     		ldrh	r3, [r4, #2]
 752 0024 032B     		cmp	r3, #3
 753 0026 00F29680 		bhi	.L66
 754 002a DFE803F0 		tbb	[pc, r3]
 755              	.L50:
 756 002e 02       		.byte	(.L53-.L50)/2
 757 002f 2F       		.byte	(.L52-.L50)/2
 758 0030 43       		.byte	(.L51-.L50)/2
 759 0031 81       		.byte	(.L49-.L50)/2
 760              		.p2align 1
 761              	.L53:
 262:C:/Users/²Ü¼ÒºÀ/.iotlink/sdk/IoT_LINK/iot_link/network/lwm2m/wakaama_lwm2m/port\object_access_control.c ****                 {
 762              		.loc 1 262 17 view .LVU240
 262:C:/Users/²Ü¼ÒºÀ/.iotlink/sdk/IoT_LINK/iot_link/network/lwm2m/wakaama_lwm2m/port\object_access_control.c ****                 {
 763              		.loc 1 262 20 is_stmt 0 view .LVU241
 764 0032 B9F1000F 		cmp	r9, #0
 765 0036 00F08C80 		beq	.L68
 268:C:/Users/²Ü¼ÒºÀ/.iotlink/sdk/IoT_LINK/iot_link/network/lwm2m/wakaama_lwm2m/port\object_access_control.c ****                     {
 766              		.loc 1 268 21 is_stmt 1 view .LVU242
 268:C:/Users/²Ü¼ÒºÀ/.iotlink/sdk/IoT_LINK/iot_link/network/lwm2m/wakaama_lwm2m/port\object_access_control.c ****                     {
 767              		.loc 1 268 30 is_stmt 0 view .LVU243
 768 003a 04A9     		add	r1, sp, #16
 769 003c 2046     		mov	r0, r4
 770 003e FFF7FEFF 		bl	lwm2m_data_decode_int
 771              	.LVL74:
 268:C:/Users/²Ü¼ÒºÀ/.iotlink/sdk/IoT_LINK/iot_link/network/lwm2m/wakaama_lwm2m/port\object_access_control.c ****                     {
 772              		.loc 1 268 24 view .LVU244
 773 0042 0128     		cmp	r0, #1
 774 0044 0CD0     		beq	.L55
 775              	.L57:
 270:C:/Users/²Ü¼ÒºÀ/.iotlink/sdk/IoT_LINK/iot_link/network/lwm2m/wakaama_lwm2m/port\object_access_control.c ****                     }
 776              		.loc 1 270 32 view .LVU245
 777 0046 8022     		movs	r2, #128
 778              	.L54:
 779              	.LVL75:
 400:C:/Users/²Ü¼ÒºÀ/.iotlink/sdk/IoT_LINK/iot_link/network/lwm2m/wakaama_lwm2m/port\object_access_control.c ****     }
 780              		.loc 1 400 9 is_stmt 1 view .LVU246
ARM GAS  C:\Users\²Ü¼ÒºÀ\AppData\Local\Temp\cc4d6LXN.s 			page 29


 402:C:/Users/²Ü¼ÒºÀ/.iotlink/sdk/IoT_LINK/iot_link/network/lwm2m/wakaama_lwm2m/port\object_access_control.c **** 
 781              		.loc 1 402 5 is_stmt 0 view .LVU247
 782 0048 029B     		ldr	r3, [sp, #8]
 400:C:/Users/²Ü¼ÒºÀ/.iotlink/sdk/IoT_LINK/iot_link/network/lwm2m/wakaama_lwm2m/port\object_access_control.c ****     }
 783              		.loc 1 400 10 view .LVU248
 784 004a 0137     		adds	r7, r7, #1
 785              	.LVL76:
 402:C:/Users/²Ü¼ÒºÀ/.iotlink/sdk/IoT_LINK/iot_link/network/lwm2m/wakaama_lwm2m/port\object_access_control.c **** 
 786              		.loc 1 402 11 is_stmt 1 view .LVU249
 402:C:/Users/²Ü¼ÒºÀ/.iotlink/sdk/IoT_LINK/iot_link/network/lwm2m/wakaama_lwm2m/port\object_access_control.c **** 
 787              		.loc 1 402 5 is_stmt 0 view .LVU250
 788 004c 9F42     		cmp	r7, r3
 789 004e 03DA     		bge	.L48
 402:C:/Users/²Ü¼ÒºÀ/.iotlink/sdk/IoT_LINK/iot_link/network/lwm2m/wakaama_lwm2m/port\object_access_control.c **** 
 790              		.loc 1 402 24 view .LVU251
 791 0050 442A     		cmp	r2, #68
 792 0052 04F11004 		add	r4, r4, #16
 793 0056 E4D0     		beq	.L64
 794              	.LVL77:
 795              	.L48:
 405:C:/Users/²Ü¼ÒºÀ/.iotlink/sdk/IoT_LINK/iot_link/network/lwm2m/wakaama_lwm2m/port\object_access_control.c **** 
 796              		.loc 1 405 1 view .LVU252
 797 0058 1046     		mov	r0, r2
 798 005a 07B0     		add	sp, sp, #28
 799              	.LCFI11:
 800              		.cfi_remember_state
 801              		.cfi_def_cfa_offset 36
 802              		@ sp needed
 803 005c BDE8F08F 		pop	{r4, r5, r6, r7, r8, r9, r10, fp, pc}
 804              	.LVL78:
 805              	.L55:
 806              	.LCFI12:
 807              		.cfi_restore_state
 272:C:/Users/²Ü¼ÒºÀ/.iotlink/sdk/IoT_LINK/iot_link/network/lwm2m/wakaama_lwm2m/port\object_access_control.c ****                     {
 808              		.loc 1 272 26 is_stmt 1 view .LVU253
 272:C:/Users/²Ü¼ÒºÀ/.iotlink/sdk/IoT_LINK/iot_link/network/lwm2m/wakaama_lwm2m/port\object_access_control.c ****                     {
 809              		.loc 1 272 40 is_stmt 0 view .LVU254
 810 0060 049B     		ldr	r3, [sp, #16]
 811 0062 13F1FF32 		adds	r2, r3, #-1
 812 0066 0092     		str	r2, [sp]
 813 0068 059A     		ldr	r2, [sp, #20]
 814 006a 42F1FF32 		adc	r2, r2, #-1
 815 006e 0192     		str	r2, [sp, #4]
 272:C:/Users/²Ü¼ÒºÀ/.iotlink/sdk/IoT_LINK/iot_link/network/lwm2m/wakaama_lwm2m/port\object_access_control.c ****                     {
 816              		.loc 1 272 29 view .LVU255
 817 0070 DDE900AB 		ldrd	r10, [sp]
 818 0074 0022     		movs	r2, #0
 819 0076 4FF6FD71 		movw	r1, #65533
 820 007a 5A45     		cmp	r2, fp
 821 007c 08BF     		it	eq
 822 007e 5145     		cmpeq	r1, r10
 823 0080 01D2     		bcs	.L56
 824              	.L58:
 274:C:/Users/²Ü¼ÒºÀ/.iotlink/sdk/IoT_LINK/iot_link/network/lwm2m/wakaama_lwm2m/port\object_access_control.c ****                     }
 825              		.loc 1 274 32 view .LVU256
 826 0082 8622     		movs	r2, #134
 827 0084 E0E7     		b	.L54
ARM GAS  C:\Users\²Ü¼ÒºÀ\AppData\Local\Temp\cc4d6LXN.s 			page 30


 828              	.L56:
 278:C:/Users/²Ü¼ÒºÀ/.iotlink/sdk/IoT_LINK/iot_link/network/lwm2m/wakaama_lwm2m/port\object_access_control.c ****                         result = COAP_204_CHANGED;
 829              		.loc 1 278 25 is_stmt 1 view .LVU257
 278:C:/Users/²Ü¼ÒºÀ/.iotlink/sdk/IoT_LINK/iot_link/network/lwm2m/wakaama_lwm2m/port\object_access_control.c ****                         result = COAP_204_CHANGED;
 830              		.loc 1 278 46 is_stmt 0 view .LVU258
 831 0086 EB80     		strh	r3, [r5, #6]	@ movhi
 279:C:/Users/²Ü¼ÒºÀ/.iotlink/sdk/IoT_LINK/iot_link/network/lwm2m/wakaama_lwm2m/port\object_access_control.c ****                     }
 832              		.loc 1 279 25 is_stmt 1 view .LVU259
 833              	.LVL79:
 834              	.L82:
 382:C:/Users/²Ü¼ÒºÀ/.iotlink/sdk/IoT_LINK/iot_link/network/lwm2m/wakaama_lwm2m/port\object_access_control.c ****                     }
 835              		.loc 1 382 25 view .LVU260
 382:C:/Users/²Ü¼ÒºÀ/.iotlink/sdk/IoT_LINK/iot_link/network/lwm2m/wakaama_lwm2m/port\object_access_control.c ****                     }
 836              		.loc 1 382 32 is_stmt 0 view .LVU261
 837 0088 4422     		movs	r2, #68
 838 008a DDE7     		b	.L54
 839              	.LVL80:
 840              	.L52:
 286:C:/Users/²Ü¼ÒºÀ/.iotlink/sdk/IoT_LINK/iot_link/network/lwm2m/wakaama_lwm2m/port\object_access_control.c ****                 {
 841              		.loc 1 286 17 is_stmt 1 view .LVU262
 286:C:/Users/²Ü¼ÒºÀ/.iotlink/sdk/IoT_LINK/iot_link/network/lwm2m/wakaama_lwm2m/port\object_access_control.c ****                 {
 842              		.loc 1 286 20 is_stmt 0 view .LVU263
 843 008c B9F1000F 		cmp	r9, #0
 844 0090 5FD0     		beq	.L68
 292:C:/Users/²Ü¼ÒºÀ/.iotlink/sdk/IoT_LINK/iot_link/network/lwm2m/wakaama_lwm2m/port\object_access_control.c ****                     {
 845              		.loc 1 292 21 is_stmt 1 view .LVU264
 292:C:/Users/²Ü¼ÒºÀ/.iotlink/sdk/IoT_LINK/iot_link/network/lwm2m/wakaama_lwm2m/port\object_access_control.c ****                     {
 846              		.loc 1 292 30 is_stmt 0 view .LVU265
 847 0092 04A9     		add	r1, sp, #16
 848 0094 2046     		mov	r0, r4
 849 0096 FFF7FEFF 		bl	lwm2m_data_decode_int
 850              	.LVL81:
 292:C:/Users/²Ü¼ÒºÀ/.iotlink/sdk/IoT_LINK/iot_link/network/lwm2m/wakaama_lwm2m/port\object_access_control.c ****                     {
 851              		.loc 1 292 24 view .LVU266
 852 009a 0128     		cmp	r0, #1
 853 009c D3D1     		bne	.L57
 296:C:/Users/²Ü¼ÒºÀ/.iotlink/sdk/IoT_LINK/iot_link/network/lwm2m/wakaama_lwm2m/port\object_access_control.c ****                     {
 854              		.loc 1 296 26 is_stmt 1 view .LVU267
 296:C:/Users/²Ü¼ÒºÀ/.iotlink/sdk/IoT_LINK/iot_link/network/lwm2m/wakaama_lwm2m/port\object_access_control.c ****                     {
 855              		.loc 1 296 40 is_stmt 0 view .LVU268
 856 009e DDE90423 		ldrd	r2, [sp, #16]
 296:C:/Users/²Ü¼ÒºÀ/.iotlink/sdk/IoT_LINK/iot_link/network/lwm2m/wakaama_lwm2m/port\object_access_control.c ****                     {
 857              		.loc 1 296 29 view .LVU269
 858 00a2 0021     		movs	r1, #0
 859 00a4 4FF6FF70 		movw	r0, #65535
 860 00a8 9942     		cmp	r1, r3
 861 00aa 08BF     		it	eq
 862 00ac 9042     		cmpeq	r0, r2
 863 00ae E8D3     		bcc	.L58
 302:C:/Users/²Ü¼ÒºÀ/.iotlink/sdk/IoT_LINK/iot_link/network/lwm2m/wakaama_lwm2m/port\object_access_control.c ****                         result = COAP_204_CHANGED;
 864              		.loc 1 302 25 is_stmt 1 view .LVU270
 302:C:/Users/²Ü¼ÒºÀ/.iotlink/sdk/IoT_LINK/iot_link/network/lwm2m/wakaama_lwm2m/port\object_access_control.c ****                         result = COAP_204_CHANGED;
 865              		.loc 1 302 50 is_stmt 0 view .LVU271
 866 00b0 2A81     		strh	r2, [r5, #8]	@ movhi
 303:C:/Users/²Ü¼ÒºÀ/.iotlink/sdk/IoT_LINK/iot_link/network/lwm2m/wakaama_lwm2m/port\object_access_control.c ****                     }
 867              		.loc 1 303 25 is_stmt 1 view .LVU272
 868              	.LVL82:
ARM GAS  C:\Users\²Ü¼ÒºÀ\AppData\Local\Temp\cc4d6LXN.s 			page 31


 303:C:/Users/²Ü¼ÒºÀ/.iotlink/sdk/IoT_LINK/iot_link/network/lwm2m/wakaama_lwm2m/port\object_access_control.c ****                     }
 869              		.loc 1 303 25 is_stmt 0 view .LVU273
 870 00b2 E9E7     		b	.L82
 871              	.LVL83:
 872              	.L51:
 311:C:/Users/²Ü¼ÒºÀ/.iotlink/sdk/IoT_LINK/iot_link/network/lwm2m/wakaama_lwm2m/port\object_access_control.c ****                 {
 873              		.loc 1 311 17 is_stmt 1 view .LVU274
 311:C:/Users/²Ü¼ÒºÀ/.iotlink/sdk/IoT_LINK/iot_link/network/lwm2m/wakaama_lwm2m/port\object_access_control.c ****                 {
 874              		.loc 1 311 20 is_stmt 0 view .LVU275
 875 00b4 2378     		ldrb	r3, [r4]	@ zero_extendqisi2
 876 00b6 032B     		cmp	r3, #3
 877 00b8 C5D1     		bne	.L57
 878              	.LBB42:
 320:C:/Users/²Ü¼ÒºÀ/.iotlink/sdk/IoT_LINK/iot_link/network/lwm2m/wakaama_lwm2m/port\object_access_control.c ****                     accCtrlOiP->accCtrlValList = NULL;
 879              		.loc 1 320 21 is_stmt 1 view .LVU276
 324:C:/Users/²Ü¼ÒºÀ/.iotlink/sdk/IoT_LINK/iot_link/network/lwm2m/wakaama_lwm2m/port\object_access_control.c ****                     {
 880              		.loc 1 324 24 is_stmt 0 view .LVU277
 881 00ba A168     		ldr	r1, [r4, #8]
 320:C:/Users/²Ü¼ÒºÀ/.iotlink/sdk/IoT_LINK/iot_link/network/lwm2m/wakaama_lwm2m/port\object_access_control.c ****                     accCtrlOiP->accCtrlValList = NULL;
 882              		.loc 1 320 36 view .LVU278
 883 00bc D5F80CA0 		ldr	r10, [r5, #12]
 884              	.LVL84:
 321:C:/Users/²Ü¼ÒºÀ/.iotlink/sdk/IoT_LINK/iot_link/network/lwm2m/wakaama_lwm2m/port\object_access_control.c ****                     subTlvArray = tlvArray[i].value.asChildren.array;
 885              		.loc 1 321 21 is_stmt 1 view .LVU279
 321:C:/Users/²Ü¼ÒºÀ/.iotlink/sdk/IoT_LINK/iot_link/network/lwm2m/wakaama_lwm2m/port\object_access_control.c ****                     subTlvArray = tlvArray[i].value.asChildren.array;
 886              		.loc 1 321 48 is_stmt 0 view .LVU280
 887 00c0 0023     		movs	r3, #0
 888 00c2 EB60     		str	r3, [r5, #12]
 322:C:/Users/²Ü¼ÒºÀ/.iotlink/sdk/IoT_LINK/iot_link/network/lwm2m/wakaama_lwm2m/port\object_access_control.c **** 
 889              		.loc 1 322 21 is_stmt 1 view .LVU281
 890              	.LVL85:
 324:C:/Users/²Ü¼ÒºÀ/.iotlink/sdk/IoT_LINK/iot_link/network/lwm2m/wakaama_lwm2m/port\object_access_control.c ****                     {
 891              		.loc 1 324 21 view .LVU282
 324:C:/Users/²Ü¼ÒºÀ/.iotlink/sdk/IoT_LINK/iot_link/network/lwm2m/wakaama_lwm2m/port\object_access_control.c ****                     {
 892              		.loc 1 324 24 is_stmt 0 view .LVU283
 893 00c4 49B1     		cbz	r1, .L59
 322:C:/Users/²Ü¼ÒºÀ/.iotlink/sdk/IoT_LINK/iot_link/network/lwm2m/wakaama_lwm2m/port\object_access_control.c **** 
 894              		.loc 1 322 33 view .LVU284
 895 00c6 E668     		ldr	r6, [r4, #12]
 328:C:/Users/²Ü¼ÒºÀ/.iotlink/sdk/IoT_LINK/iot_link/network/lwm2m/wakaama_lwm2m/port\object_access_control.c ****                     {
 896              		.loc 1 328 26 is_stmt 1 view .LVU285
 328:C:/Users/²Ü¼ÒºÀ/.iotlink/sdk/IoT_LINK/iot_link/network/lwm2m/wakaama_lwm2m/port\object_access_control.c ****                     {
 897              		.loc 1 328 29 is_stmt 0 view .LVU286
 898 00c8 5EB1     		cbz	r6, .L60
 334:C:/Users/²Ü¼ÒºÀ/.iotlink/sdk/IoT_LINK/iot_link/network/lwm2m/wakaama_lwm2m/port\object_access_control.c ****                         {
 899              		.loc 1 334 33 view .LVU287
 900 00ca 9846     		mov	r8, r3
 346:C:/Users/²Ü¼ÒºÀ/.iotlink/sdk/IoT_LINK/iot_link/network/lwm2m/wakaama_lwm2m/port\object_access_control.c ****                                                      (uint16_t)value))
 901              		.loc 1 346 39 view .LVU288
 902 00cc 05F10C0B 		add	fp, r5, #12
 903              	.LVL86:
 904              	.L61:
 334:C:/Users/²Ü¼ÒºÀ/.iotlink/sdk/IoT_LINK/iot_link/network/lwm2m/wakaama_lwm2m/port\object_access_control.c ****                         {
 905              		.loc 1 334 38 is_stmt 1 view .LVU289
 334:C:/Users/²Ü¼ÒºÀ/.iotlink/sdk/IoT_LINK/iot_link/network/lwm2m/wakaama_lwm2m/port\object_access_control.c ****                         {
 906              		.loc 1 334 25 is_stmt 0 view .LVU290
 907 00d0 A168     		ldr	r1, [r4, #8]
ARM GAS  C:\Users\²Ü¼ÒºÀ\AppData\Local\Temp\cc4d6LXN.s 			page 32


 908 00d2 4145     		cmp	r1, r8
 909 00d4 0ED8     		bhi	.L63
 910              	.LVL87:
 359:C:/Users/²Ü¼ÒºÀ/.iotlink/sdk/IoT_LINK/iot_link/network/lwm2m/wakaama_lwm2m/port\object_access_control.c ****                     {
 911              		.loc 1 359 21 is_stmt 1 view .LVU291
 359:C:/Users/²Ü¼ÒºÀ/.iotlink/sdk/IoT_LINK/iot_link/network/lwm2m/wakaama_lwm2m/port\object_access_control.c ****                     {
 912              		.loc 1 359 24 is_stmt 0 view .LVU292
 913 00d6 442A     		cmp	r2, #68
 914 00d8 04D1     		bne	.L62
 915              	.LVL88:
 916              	.L59:
 369:C:/Users/²Ü¼ÒºÀ/.iotlink/sdk/IoT_LINK/iot_link/network/lwm2m/wakaama_lwm2m/port\object_access_control.c ****                     }
 917              		.loc 1 369 25 is_stmt 1 view .LVU293
 918 00da 5046     		mov	r0, r10
 919 00dc FFF7FEFF 		bl	lwm2m_list_free
 920              	.LVL89:
 921 00e0 D2E7     		b	.L82
 922              	.L60:
 330:C:/Users/²Ü¼ÒºÀ/.iotlink/sdk/IoT_LINK/iot_link/network/lwm2m/wakaama_lwm2m/port\object_access_control.c ****                     }
 923              		.loc 1 330 32 is_stmt 0 view .LVU294
 924 00e2 8022     		movs	r2, #128
 925              	.L62:
 362:C:/Users/²Ü¼ÒºÀ/.iotlink/sdk/IoT_LINK/iot_link/network/lwm2m/wakaama_lwm2m/port\object_access_control.c ****                         // restore old values:
 926              		.loc 1 362 25 view .LVU295
 927 00e4 E868     		ldr	r0, [r5, #12]
 928 00e6 0392     		str	r2, [sp, #12]
 362:C:/Users/²Ü¼ÒºÀ/.iotlink/sdk/IoT_LINK/iot_link/network/lwm2m/wakaama_lwm2m/port\object_access_control.c ****                         // restore old values:
 929              		.loc 1 362 25 is_stmt 1 view .LVU296
 930 00e8 FFF7FEFF 		bl	lwm2m_list_free
 931              	.LVL90:
 364:C:/Users/²Ü¼ÒºÀ/.iotlink/sdk/IoT_LINK/iot_link/network/lwm2m/wakaama_lwm2m/port\object_access_control.c ****                     }
 932              		.loc 1 364 25 view .LVU297
 933 00ec 039A     		ldr	r2, [sp, #12]
 364:C:/Users/²Ü¼ÒºÀ/.iotlink/sdk/IoT_LINK/iot_link/network/lwm2m/wakaama_lwm2m/port\object_access_control.c ****                     }
 934              		.loc 1 364 52 is_stmt 0 view .LVU298
 935 00ee C5F80CA0 		str	r10, [r5, #12]
 936 00f2 A9E7     		b	.L54
 937              	.LVL91:
 938              	.L63:
 336:C:/Users/²Ü¼ÒºÀ/.iotlink/sdk/IoT_LINK/iot_link/network/lwm2m/wakaama_lwm2m/port\object_access_control.c ****                             {
 939              		.loc 1 336 29 is_stmt 1 view .LVU299
 336:C:/Users/²Ü¼ÒºÀ/.iotlink/sdk/IoT_LINK/iot_link/network/lwm2m/wakaama_lwm2m/port\object_access_control.c ****                             {
 940              		.loc 1 336 38 is_stmt 0 view .LVU300
 941 00f4 04A9     		add	r1, sp, #16
 942 00f6 3046     		mov	r0, r6
 943 00f8 FFF7FEFF 		bl	lwm2m_data_decode_int
 944              	.LVL92:
 336:C:/Users/²Ü¼ÒºÀ/.iotlink/sdk/IoT_LINK/iot_link/network/lwm2m/wakaama_lwm2m/port\object_access_control.c ****                             {
 945              		.loc 1 336 32 view .LVU301
 946 00fc 0128     		cmp	r0, #1
 947 00fe F0D1     		bne	.L60
 341:C:/Users/²Ü¼ÒºÀ/.iotlink/sdk/IoT_LINK/iot_link/network/lwm2m/wakaama_lwm2m/port\object_access_control.c ****                             {
 948              		.loc 1 341 34 is_stmt 1 view .LVU302
 341:C:/Users/²Ü¼ÒºÀ/.iotlink/sdk/IoT_LINK/iot_link/network/lwm2m/wakaama_lwm2m/port\object_access_control.c ****                             {
 949              		.loc 1 341 48 is_stmt 0 view .LVU303
 950 0100 DDE90423 		ldrd	r2, [sp, #16]
 341:C:/Users/²Ü¼ÒºÀ/.iotlink/sdk/IoT_LINK/iot_link/network/lwm2m/wakaama_lwm2m/port\object_access_control.c ****                             {
ARM GAS  C:\Users\²Ü¼ÒºÀ\AppData\Local\Temp\cc4d6LXN.s 			page 33


 951              		.loc 1 341 37 view .LVU304
 952 0104 0021     		movs	r1, #0
 953 0106 4FF6FF70 		movw	r0, #65535
 954 010a 9942     		cmp	r1, r3
 955 010c 08BF     		it	eq
 956 010e 9042     		cmpeq	r0, r2
 957 0110 0AD3     		bcc	.L69
 346:C:/Users/²Ü¼ÒºÀ/.iotlink/sdk/IoT_LINK/iot_link/network/lwm2m/wakaama_lwm2m/port\object_access_control.c ****                                                      (uint16_t)value))
 958              		.loc 1 346 34 is_stmt 1 view .LVU305
 346:C:/Users/²Ü¼ÒºÀ/.iotlink/sdk/IoT_LINK/iot_link/network/lwm2m/wakaama_lwm2m/port\object_access_control.c ****                                                      (uint16_t)value))
 959              		.loc 1 346 39 is_stmt 0 view .LVU306
 960 0112 7188     		ldrh	r1, [r6, #2]
 961 0114 92B2     		uxth	r2, r2
 962 0116 5846     		mov	r0, fp
 963 0118 FFF7FEFF 		bl	prv_add_ac_val.isra.0
 964              	.LVL93:
 965 011c 1036     		adds	r6, r6, #16
 346:C:/Users/²Ü¼ÒºÀ/.iotlink/sdk/IoT_LINK/iot_link/network/lwm2m/wakaama_lwm2m/port\object_access_control.c ****                                                      (uint16_t)value))
 966              		.loc 1 346 37 view .LVU307
 967 011e 28B1     		cbz	r0, .L70
 354:C:/Users/²Ü¼ÒºÀ/.iotlink/sdk/IoT_LINK/iot_link/network/lwm2m/wakaama_lwm2m/port\object_access_control.c ****                             }
 968              		.loc 1 354 33 is_stmt 1 view .LVU308
 969              	.LVL94:
 334:C:/Users/²Ü¼ÒºÀ/.iotlink/sdk/IoT_LINK/iot_link/network/lwm2m/wakaama_lwm2m/port\object_access_control.c ****                         {
 970              		.loc 1 334 87 view .LVU309
 334:C:/Users/²Ü¼ÒºÀ/.iotlink/sdk/IoT_LINK/iot_link/network/lwm2m/wakaama_lwm2m/port\object_access_control.c ****                         {
 971              		.loc 1 334 89 is_stmt 0 view .LVU310
 972 0120 08F10108 		add	r8, r8, #1
 973              	.LVL95:
 354:C:/Users/²Ü¼ÒºÀ/.iotlink/sdk/IoT_LINK/iot_link/network/lwm2m/wakaama_lwm2m/port\object_access_control.c ****                             }
 974              		.loc 1 354 40 view .LVU311
 975 0124 4422     		movs	r2, #68
 976 0126 D3E7     		b	.L61
 977              	.LVL96:
 978              	.L69:
 343:C:/Users/²Ü¼ÒºÀ/.iotlink/sdk/IoT_LINK/iot_link/network/lwm2m/wakaama_lwm2m/port\object_access_control.c ****                                 break;
 979              		.loc 1 343 40 view .LVU312
 980 0128 8622     		movs	r2, #134
 981 012a DBE7     		b	.L62
 982              	.L70:
 349:C:/Users/²Ü¼ÒºÀ/.iotlink/sdk/IoT_LINK/iot_link/network/lwm2m/wakaama_lwm2m/port\object_access_control.c ****                                 break;
 983              		.loc 1 349 40 view .LVU313
 984 012c A022     		movs	r2, #160
 985 012e D9E7     		b	.L62
 986              	.LVL97:
 987              	.L49:
 349:C:/Users/²Ü¼ÒºÀ/.iotlink/sdk/IoT_LINK/iot_link/network/lwm2m/wakaama_lwm2m/port\object_access_control.c ****                                 break;
 988              		.loc 1 349 40 view .LVU314
 989              	.LBE42:
 377:C:/Users/²Ü¼ÒºÀ/.iotlink/sdk/IoT_LINK/iot_link/network/lwm2m/wakaama_lwm2m/port\object_access_control.c ****                 {
 990              		.loc 1 377 17 is_stmt 1 view .LVU315
 377:C:/Users/²Ü¼ÒºÀ/.iotlink/sdk/IoT_LINK/iot_link/network/lwm2m/wakaama_lwm2m/port\object_access_control.c ****                 {
 991              		.loc 1 377 26 is_stmt 0 view .LVU316
 992 0130 04A9     		add	r1, sp, #16
 993 0132 2046     		mov	r0, r4
 994 0134 FFF7FEFF 		bl	lwm2m_data_decode_int
 995              	.LVL98:
ARM GAS  C:\Users\²Ü¼ÒºÀ\AppData\Local\Temp\cc4d6LXN.s 			page 34


 377:C:/Users/²Ü¼ÒºÀ/.iotlink/sdk/IoT_LINK/iot_link/network/lwm2m/wakaama_lwm2m/port\object_access_control.c ****                 {
 996              		.loc 1 377 20 view .LVU317
 997 0138 0128     		cmp	r0, #1
 998 013a 84D1     		bne	.L57
 379:C:/Users/²Ü¼ÒºÀ/.iotlink/sdk/IoT_LINK/iot_link/network/lwm2m/wakaama_lwm2m/port\object_access_control.c ****                     {
 999              		.loc 1 379 21 is_stmt 1 view .LVU318
 379:C:/Users/²Ü¼ÒºÀ/.iotlink/sdk/IoT_LINK/iot_link/network/lwm2m/wakaama_lwm2m/port\object_access_control.c ****                     {
 1000              		.loc 1 379 36 is_stmt 0 view .LVU319
 1001 013c DDE90423 		ldrd	r2, [sp, #16]
 379:C:/Users/²Ü¼ÒºÀ/.iotlink/sdk/IoT_LINK/iot_link/network/lwm2m/wakaama_lwm2m/port\object_access_control.c ****                     {
 1002              		.loc 1 379 24 view .LVU320
 1003 0140 0021     		movs	r1, #0
 1004 0142 4FF6FF70 		movw	r0, #65535
 1005 0146 9942     		cmp	r1, r3
 1006 0148 08BF     		it	eq
 1007 014a 9042     		cmpeq	r0, r2
 1008 014c 99D3     		bcc	.L58
 381:C:/Users/²Ü¼ÒºÀ/.iotlink/sdk/IoT_LINK/iot_link/network/lwm2m/wakaama_lwm2m/port\object_access_control.c ****                         result = COAP_204_CHANGED;
 1009              		.loc 1 381 25 is_stmt 1 view .LVU321
 381:C:/Users/²Ü¼ÒºÀ/.iotlink/sdk/IoT_LINK/iot_link/network/lwm2m/wakaama_lwm2m/port\object_access_control.c ****                         result = COAP_204_CHANGED;
 1010              		.loc 1 381 50 is_stmt 0 view .LVU322
 1011 014e 6A81     		strh	r2, [r5, #10]	@ movhi
 1012 0150 9AE7     		b	.L82
 1013              	.LVL99:
 1014              	.L68:
 264:C:/Users/²Ü¼ÒºÀ/.iotlink/sdk/IoT_LINK/iot_link/network/lwm2m/wakaama_lwm2m/port\object_access_control.c ****                 }
 1015              		.loc 1 264 28 view .LVU323
 1016 0152 8522     		movs	r2, #133
 1017              	.LVL100:
 264:C:/Users/²Ü¼ÒºÀ/.iotlink/sdk/IoT_LINK/iot_link/network/lwm2m/wakaama_lwm2m/port\object_access_control.c ****                 }
 1018              		.loc 1 264 28 view .LVU324
 1019 0154 78E7     		b	.L54
 1020              	.LVL101:
 1021              	.L66:
 259:C:/Users/²Ü¼ÒºÀ/.iotlink/sdk/IoT_LINK/iot_link/network/lwm2m/wakaama_lwm2m/port\object_access_control.c ****         {
 1022              		.loc 1 259 28 view .LVU325
 1023 0156 8422     		movs	r2, #132
 1024 0158 7EE7     		b	.L48
 1025              		.cfi_endproc
 1026              	.LFE36:
 1028              		.section	.text.prv_create,"ax",%progbits
 1029              		.align	1
 1030              		.syntax unified
 1031              		.thumb
 1032              		.thumb_func
 1033              		.fpu fpv4-sp-d16
 1035              	prv_create:
 1036              	.LVL102:
 1037              	.LFB18:
 428:C:/Users/²Ü¼ÒºÀ/.iotlink/sdk/IoT_LINK/iot_link/network/lwm2m/wakaama_lwm2m/port\object_access_control.c ****     acc_ctrl_oi_t *targetP;
 1038              		.loc 1 428 1 is_stmt 1 view -0
 1039              		.cfi_startproc
 1040              		@ args = 0, pretend = 0, frame = 0
 1041              		@ frame_needed = 0, uses_anonymous_args = 0
 429:C:/Users/²Ü¼ÒºÀ/.iotlink/sdk/IoT_LINK/iot_link/network/lwm2m/wakaama_lwm2m/port\object_access_control.c ****     uint8_t result;
 1042              		.loc 1 429 5 view .LVU327
 430:C:/Users/²Ü¼ÒºÀ/.iotlink/sdk/IoT_LINK/iot_link/network/lwm2m/wakaama_lwm2m/port\object_access_control.c ****     targetP = (acc_ctrl_oi_t *)lwm2m_malloc(sizeof(acc_ctrl_oi_t));
ARM GAS  C:\Users\²Ü¼ÒºÀ\AppData\Local\Temp\cc4d6LXN.s 			page 35


 1043              		.loc 1 430 5 view .LVU328
 431:C:/Users/²Ü¼ÒºÀ/.iotlink/sdk/IoT_LINK/iot_link/network/lwm2m/wakaama_lwm2m/port\object_access_control.c **** 
 1044              		.loc 1 431 5 view .LVU329
 428:C:/Users/²Ü¼ÒºÀ/.iotlink/sdk/IoT_LINK/iot_link/network/lwm2m/wakaama_lwm2m/port\object_access_control.c ****     acc_ctrl_oi_t *targetP;
 1045              		.loc 1 428 1 is_stmt 0 view .LVU330
 1046 0000 2DE9F341 		push	{r0, r1, r4, r5, r6, r7, r8, lr}
 1047              	.LCFI13:
 1048              		.cfi_def_cfa_offset 32
 1049              		.cfi_offset 4, -24
 1050              		.cfi_offset 5, -20
 1051              		.cfi_offset 6, -16
 1052              		.cfi_offset 7, -12
 1053              		.cfi_offset 8, -8
 1054              		.cfi_offset 14, -4
 428:C:/Users/²Ü¼ÒºÀ/.iotlink/sdk/IoT_LINK/iot_link/network/lwm2m/wakaama_lwm2m/port\object_access_control.c ****     acc_ctrl_oi_t *targetP;
 1055              		.loc 1 428 1 view .LVU331
 1056 0004 0546     		mov	r5, r0
 431:C:/Users/²Ü¼ÒºÀ/.iotlink/sdk/IoT_LINK/iot_link/network/lwm2m/wakaama_lwm2m/port\object_access_control.c **** 
 1057              		.loc 1 431 32 view .LVU332
 1058 0006 1020     		movs	r0, #16
 1059              	.LVL103:
 428:C:/Users/²Ü¼ÒºÀ/.iotlink/sdk/IoT_LINK/iot_link/network/lwm2m/wakaama_lwm2m/port\object_access_control.c ****     acc_ctrl_oi_t *targetP;
 1060              		.loc 1 428 1 view .LVU333
 1061 0008 0F46     		mov	r7, r1
 1062 000a 9046     		mov	r8, r2
 1063 000c 1E46     		mov	r6, r3
 431:C:/Users/²Ü¼ÒºÀ/.iotlink/sdk/IoT_LINK/iot_link/network/lwm2m/wakaama_lwm2m/port\object_access_control.c **** 
 1064              		.loc 1 431 32 view .LVU334
 1065 000e FFF7FEFF 		bl	lwm2m_malloc
 1066              	.LVL104:
 433:C:/Users/²Ü¼ÒºÀ/.iotlink/sdk/IoT_LINK/iot_link/network/lwm2m/wakaama_lwm2m/port\object_access_control.c **** 
 1067              		.loc 1 433 5 is_stmt 1 view .LVU335
 433:C:/Users/²Ü¼ÒºÀ/.iotlink/sdk/IoT_LINK/iot_link/network/lwm2m/wakaama_lwm2m/port\object_access_control.c **** 
 1068              		.loc 1 433 8 is_stmt 0 view .LVU336
 1069 0012 0446     		mov	r4, r0
 1070 0014 E0B1     		cbz	r0, .L85
 435:C:/Users/²Ü¼ÒºÀ/.iotlink/sdk/IoT_LINK/iot_link/network/lwm2m/wakaama_lwm2m/port\object_access_control.c ****     targetP->objInstId    = objInstId;
 1071              		.loc 1 435 5 is_stmt 1 view .LVU337
 435:C:/Users/²Ü¼ÒºÀ/.iotlink/sdk/IoT_LINK/iot_link/network/lwm2m/wakaama_lwm2m/port\object_access_control.c ****     targetP->objInstId    = objInstId;
 1072              		.loc 1 435 12 is_stmt 0 view .LVU338
 1073 0016 1022     		movs	r2, #16
 1074 0018 0021     		movs	r1, #0
 1075 001a FFF7FEFF 		bl	memset
 1076              	.LVL105:
 436:C:/Users/²Ü¼ÒºÀ/.iotlink/sdk/IoT_LINK/iot_link/network/lwm2m/wakaama_lwm2m/port\object_access_control.c ****     objectP->instanceList = LWM2M_LIST_ADD(objectP->instanceList, targetP);
 1077              		.loc 1 436 5 is_stmt 1 view .LVU339
 437:C:/Users/²Ü¼ÒºÀ/.iotlink/sdk/IoT_LINK/iot_link/network/lwm2m/wakaama_lwm2m/port\object_access_control.c ****     result = prv_write_resources(objInstId, numData, tlvArray, objectP, true);
 1078              		.loc 1 437 29 is_stmt 0 view .LVU340
 1079 001e 2146     		mov	r1, r4
 436:C:/Users/²Ü¼ÒºÀ/.iotlink/sdk/IoT_LINK/iot_link/network/lwm2m/wakaama_lwm2m/port\object_access_control.c ****     objectP->instanceList = LWM2M_LIST_ADD(objectP->instanceList, targetP);
 1080              		.loc 1 436 27 view .LVU341
 1081 0020 A580     		strh	r5, [r4, #4]	@ movhi
 437:C:/Users/²Ü¼ÒºÀ/.iotlink/sdk/IoT_LINK/iot_link/network/lwm2m/wakaama_lwm2m/port\object_access_control.c ****     result = prv_write_resources(objInstId, numData, tlvArray, objectP, true);
 1082              		.loc 1 437 5 is_stmt 1 view .LVU342
 437:C:/Users/²Ü¼ÒºÀ/.iotlink/sdk/IoT_LINK/iot_link/network/lwm2m/wakaama_lwm2m/port\object_access_control.c ****     result = prv_write_resources(objInstId, numData, tlvArray, objectP, true);
 1083              		.loc 1 437 29 is_stmt 0 view .LVU343
 1084 0022 B068     		ldr	r0, [r6, #8]
ARM GAS  C:\Users\²Ü¼ÒºÀ\AppData\Local\Temp\cc4d6LXN.s 			page 36


 1085 0024 FFF7FEFF 		bl	lwm2m_list_add
 1086              	.LVL106:
 438:C:/Users/²Ü¼ÒºÀ/.iotlink/sdk/IoT_LINK/iot_link/network/lwm2m/wakaama_lwm2m/port\object_access_control.c **** 
 1087              		.loc 1 438 14 view .LVU344
 1088 0028 0123     		movs	r3, #1
 437:C:/Users/²Ü¼ÒºÀ/.iotlink/sdk/IoT_LINK/iot_link/network/lwm2m/wakaama_lwm2m/port\object_access_control.c ****     result = prv_write_resources(objInstId, numData, tlvArray, objectP, true);
 1089              		.loc 1 437 27 view .LVU345
 1090 002a B060     		str	r0, [r6, #8]
 437:C:/Users/²Ü¼ÒºÀ/.iotlink/sdk/IoT_LINK/iot_link/network/lwm2m/wakaama_lwm2m/port\object_access_control.c ****     result = prv_write_resources(objInstId, numData, tlvArray, objectP, true);
 1091              		.loc 1 437 75 is_stmt 1 view .LVU346
 438:C:/Users/²Ü¼ÒºÀ/.iotlink/sdk/IoT_LINK/iot_link/network/lwm2m/wakaama_lwm2m/port\object_access_control.c **** 
 1092              		.loc 1 438 5 view .LVU347
 438:C:/Users/²Ü¼ÒºÀ/.iotlink/sdk/IoT_LINK/iot_link/network/lwm2m/wakaama_lwm2m/port\object_access_control.c **** 
 1093              		.loc 1 438 14 is_stmt 0 view .LVU348
 1094 002c 0093     		str	r3, [sp]
 1095 002e 4246     		mov	r2, r8
 1096 0030 0346     		mov	r3, r0
 1097 0032 3946     		mov	r1, r7
 1098 0034 2846     		mov	r0, r5
 1099 0036 FFF7FEFF 		bl	prv_write_resources.isra.0
 1100              	.LVL107:
 440:C:/Users/²Ü¼ÒºÀ/.iotlink/sdk/IoT_LINK/iot_link/network/lwm2m/wakaama_lwm2m/port\object_access_control.c ****     {
 1101              		.loc 1 440 8 view .LVU349
 1102 003a 4428     		cmp	r0, #68
 438:C:/Users/²Ü¼ÒºÀ/.iotlink/sdk/IoT_LINK/iot_link/network/lwm2m/wakaama_lwm2m/port\object_access_control.c **** 
 1103              		.loc 1 438 14 view .LVU350
 1104 003c 0446     		mov	r4, r0
 1105              	.LVL108:
 440:C:/Users/²Ü¼ÒºÀ/.iotlink/sdk/IoT_LINK/iot_link/network/lwm2m/wakaama_lwm2m/port\object_access_control.c ****     {
 1106              		.loc 1 440 5 is_stmt 1 view .LVU351
 440:C:/Users/²Ü¼ÒºÀ/.iotlink/sdk/IoT_LINK/iot_link/network/lwm2m/wakaama_lwm2m/port\object_access_control.c ****     {
 1107              		.loc 1 440 8 is_stmt 0 view .LVU352
 1108 003e 09D0     		beq	.L86
 442:C:/Users/²Ü¼ÒºÀ/.iotlink/sdk/IoT_LINK/iot_link/network/lwm2m/wakaama_lwm2m/port\object_access_control.c ****     }
 1109              		.loc 1 442 9 is_stmt 1 view .LVU353
 442:C:/Users/²Ü¼ÒºÀ/.iotlink/sdk/IoT_LINK/iot_link/network/lwm2m/wakaama_lwm2m/port\object_access_control.c ****     }
 1110              		.loc 1 442 15 is_stmt 0 view .LVU354
 1111 0040 3146     		mov	r1, r6
 1112 0042 2846     		mov	r0, r5
 1113              	.LVL109:
 442:C:/Users/²Ü¼ÒºÀ/.iotlink/sdk/IoT_LINK/iot_link/network/lwm2m/wakaama_lwm2m/port\object_access_control.c ****     }
 1114              		.loc 1 442 15 view .LVU355
 1115 0044 FFF7FEFF 		bl	prv_delete
 1116              	.LVL110:
 1117              	.L84:
 450:C:/Users/²Ü¼ÒºÀ/.iotlink/sdk/IoT_LINK/iot_link/network/lwm2m/wakaama_lwm2m/port\object_access_control.c **** 
 1118              		.loc 1 450 1 view .LVU356
 1119 0048 2046     		mov	r0, r4
 1120 004a 02B0     		add	sp, sp, #8
 1121              	.LCFI14:
 1122              		.cfi_remember_state
 1123              		.cfi_def_cfa_offset 24
 1124              		@ sp needed
 1125 004c BDE8F081 		pop	{r4, r5, r6, r7, r8, pc}
 1126              	.LVL111:
 1127              	.L85:
 1128              	.LCFI15:
ARM GAS  C:\Users\²Ü¼ÒºÀ\AppData\Local\Temp\cc4d6LXN.s 			page 37


 1129              		.cfi_restore_state
 433:C:/Users/²Ü¼ÒºÀ/.iotlink/sdk/IoT_LINK/iot_link/network/lwm2m/wakaama_lwm2m/port\object_access_control.c **** 
 1130              		.loc 1 433 33 view .LVU357
 1131 0050 A024     		movs	r4, #160
 1132 0052 F9E7     		b	.L84
 1133              	.LVL112:
 1134              	.L86:
 446:C:/Users/²Ü¼ÒºÀ/.iotlink/sdk/IoT_LINK/iot_link/network/lwm2m/wakaama_lwm2m/port\object_access_control.c ****     }
 1135              		.loc 1 446 16 view .LVU358
 1136 0054 4124     		movs	r4, #65
 1137 0056 F7E7     		b	.L84
 1138              		.cfi_endproc
 1139              	.LFE18:
 1141              		.section	.text.prv_write,"ax",%progbits
 1142              		.align	1
 1143              		.syntax unified
 1144              		.thumb
 1145              		.thumb_func
 1146              		.fpu fpv4-sp-d16
 1148              	prv_write:
 1149              	.LVL113:
 1150              	.LFB16:
 409:C:/Users/²Ü¼ÒºÀ/.iotlink/sdk/IoT_LINK/iot_link/network/lwm2m/wakaama_lwm2m/port\object_access_control.c ****     return prv_write_resources(instanceId, numData, tlvArray, objectP, false);
 1151              		.loc 1 409 1 is_stmt 1 view -0
 1152              		.cfi_startproc
 1153              		@ args = 0, pretend = 0, frame = 0
 1154              		@ frame_needed = 0, uses_anonymous_args = 0
 410:C:/Users/²Ü¼ÒºÀ/.iotlink/sdk/IoT_LINK/iot_link/network/lwm2m/wakaama_lwm2m/port\object_access_control.c **** }
 1155              		.loc 1 410 5 view .LVU360
 409:C:/Users/²Ü¼ÒºÀ/.iotlink/sdk/IoT_LINK/iot_link/network/lwm2m/wakaama_lwm2m/port\object_access_control.c ****     return prv_write_resources(instanceId, numData, tlvArray, objectP, false);
 1156              		.loc 1 409 1 is_stmt 0 view .LVU361
 1157 0000 13B5     		push	{r0, r1, r4, lr}
 1158              	.LCFI16:
 1159              		.cfi_def_cfa_offset 16
 1160              		.cfi_offset 4, -8
 1161              		.cfi_offset 14, -4
 410:C:/Users/²Ü¼ÒºÀ/.iotlink/sdk/IoT_LINK/iot_link/network/lwm2m/wakaama_lwm2m/port\object_access_control.c **** }
 1162              		.loc 1 410 12 view .LVU362
 1163 0002 0024     		movs	r4, #0
 1164 0004 0094     		str	r4, [sp]
 1165 0006 9B68     		ldr	r3, [r3, #8]
 1166              	.LVL114:
 410:C:/Users/²Ü¼ÒºÀ/.iotlink/sdk/IoT_LINK/iot_link/network/lwm2m/wakaama_lwm2m/port\object_access_control.c **** }
 1167              		.loc 1 410 12 view .LVU363
 1168 0008 FFF7FEFF 		bl	prv_write_resources.isra.0
 1169              	.LVL115:
 411:C:/Users/²Ü¼ÒºÀ/.iotlink/sdk/IoT_LINK/iot_link/network/lwm2m/wakaama_lwm2m/port\object_access_control.c **** 
 1170              		.loc 1 411 1 view .LVU364
 1171 000c 02B0     		add	sp, sp, #8
 1172              	.LCFI17:
 1173              		.cfi_def_cfa_offset 8
 1174              		@ sp needed
 1175 000e 10BD     		pop	{r4, pc}
 1176              		.cfi_endproc
 1177              	.LFE16:
 1179              		.section	.text.add_access_control_object_instance,"ax",%progbits
 1180              		.align	1
ARM GAS  C:\Users\²Ü¼ÒºÀ\AppData\Local\Temp\cc4d6LXN.s 			page 38


 1181              		.global	add_access_control_object_instance
 1182              		.syntax unified
 1183              		.thumb
 1184              		.thumb_func
 1185              		.fpu fpv4-sp-d16
 1187              	add_access_control_object_instance:
 1188              	.LVL116:
 1189              	.LFB19:
 453:C:/Users/²Ü¼ÒºÀ/.iotlink/sdk/IoT_LINK/iot_link/network/lwm2m/wakaama_lwm2m/port\object_access_control.c ****     if (NULL == obj)
 1190              		.loc 1 453 1 is_stmt 1 view -0
 1191              		.cfi_startproc
 1192              		@ args = 0, pretend = 0, frame = 0
 1193              		@ frame_needed = 0, uses_anonymous_args = 0
 1194              		@ link register save eliminated.
 454:C:/Users/²Ü¼ÒºÀ/.iotlink/sdk/IoT_LINK/iot_link/network/lwm2m/wakaama_lwm2m/port\object_access_control.c ****     {
 1195              		.loc 1 454 5 view .LVU366
 454:C:/Users/²Ü¼ÒºÀ/.iotlink/sdk/IoT_LINK/iot_link/network/lwm2m/wakaama_lwm2m/port\object_access_control.c ****     {
 1196              		.loc 1 454 8 is_stmt 0 view .LVU367
 1197 0000 B0FA80F0 		clz	r0, r0
 1198              	.LVL117:
 454:C:/Users/²Ü¼ÒºÀ/.iotlink/sdk/IoT_LINK/iot_link/network/lwm2m/wakaama_lwm2m/port\object_access_control.c ****     {
 1199              		.loc 1 454 8 view .LVU368
 1200 0004 4009     		lsrs	r0, r0, #5
 460:C:/Users/²Ü¼ÒºÀ/.iotlink/sdk/IoT_LINK/iot_link/network/lwm2m/wakaama_lwm2m/port\object_access_control.c **** 
 1201              		.loc 1 460 1 view .LVU369
 1202 0006 4042     		rsbs	r0, r0, #0
 1203 0008 7047     		bx	lr
 1204              		.cfi_endproc
 1205              	.LFE19:
 1207              		.section	.text.config_access_control_object,"ax",%progbits
 1208              		.align	1
 1209              		.global	config_access_control_object
 1210              		.syntax unified
 1211              		.thumb
 1212              		.thumb_func
 1213              		.fpu fpv4-sp-d16
 1215              	config_access_control_object:
 1216              	.LVL118:
 1217              	.LFB20:
 463:C:/Users/²Ü¼ÒºÀ/.iotlink/sdk/IoT_LINK/iot_link/network/lwm2m/wakaama_lwm2m/port\object_access_control.c ****     if (NULL == obj)
 1218              		.loc 1 463 1 is_stmt 1 view -0
 1219              		.cfi_startproc
 1220              		@ args = 0, pretend = 0, frame = 0
 1221              		@ frame_needed = 0, uses_anonymous_args = 0
 1222              		@ link register save eliminated.
 464:C:/Users/²Ü¼ÒºÀ/.iotlink/sdk/IoT_LINK/iot_link/network/lwm2m/wakaama_lwm2m/port\object_access_control.c ****     {
 1223              		.loc 1 464 5 view .LVU371
 464:C:/Users/²Ü¼ÒºÀ/.iotlink/sdk/IoT_LINK/iot_link/network/lwm2m/wakaama_lwm2m/port\object_access_control.c ****     {
 1224              		.loc 1 464 8 is_stmt 0 view .LVU372
 1225 0000 48B1     		cbz	r0, .L91
 470:C:/Users/²Ü¼ÒºÀ/.iotlink/sdk/IoT_LINK/iot_link/network/lwm2m/wakaama_lwm2m/port\object_access_control.c ****     obj->writeFunc = prv_write;
 1226              		.loc 1 470 5 is_stmt 1 view .LVU373
 470:C:/Users/²Ü¼ÒºÀ/.iotlink/sdk/IoT_LINK/iot_link/network/lwm2m/wakaama_lwm2m/port\object_access_control.c ****     obj->writeFunc = prv_write;
 1227              		.loc 1 470 19 is_stmt 0 view .LVU374
 1228 0002 064B     		ldr	r3, .L92
 1229 0004 C360     		str	r3, [r0, #12]
 471:C:/Users/²Ü¼ÒºÀ/.iotlink/sdk/IoT_LINK/iot_link/network/lwm2m/wakaama_lwm2m/port\object_access_control.c ****     obj->createFunc = prv_create;
ARM GAS  C:\Users\²Ü¼ÒºÀ\AppData\Local\Temp\cc4d6LXN.s 			page 39


 1230              		.loc 1 471 5 is_stmt 1 view .LVU375
 471:C:/Users/²Ü¼ÒºÀ/.iotlink/sdk/IoT_LINK/iot_link/network/lwm2m/wakaama_lwm2m/port\object_access_control.c ****     obj->createFunc = prv_create;
 1231              		.loc 1 471 20 is_stmt 0 view .LVU376
 1232 0006 064B     		ldr	r3, .L92+4
 1233 0008 0361     		str	r3, [r0, #16]
 472:C:/Users/²Ü¼ÒºÀ/.iotlink/sdk/IoT_LINK/iot_link/network/lwm2m/wakaama_lwm2m/port\object_access_control.c ****     obj->deleteFunc = prv_delete;
 1234              		.loc 1 472 5 is_stmt 1 view .LVU377
 472:C:/Users/²Ü¼ÒºÀ/.iotlink/sdk/IoT_LINK/iot_link/network/lwm2m/wakaama_lwm2m/port\object_access_control.c ****     obj->deleteFunc = prv_delete;
 1235              		.loc 1 472 21 is_stmt 0 view .LVU378
 1236 000a 064B     		ldr	r3, .L92+8
 1237 000c C361     		str	r3, [r0, #28]
 473:C:/Users/²Ü¼ÒºÀ/.iotlink/sdk/IoT_LINK/iot_link/network/lwm2m/wakaama_lwm2m/port\object_access_control.c ****     return (int)LWM2M_OK;
 1238              		.loc 1 473 5 is_stmt 1 view .LVU379
 473:C:/Users/²Ü¼ÒºÀ/.iotlink/sdk/IoT_LINK/iot_link/network/lwm2m/wakaama_lwm2m/port\object_access_control.c ****     return (int)LWM2M_OK;
 1239              		.loc 1 473 21 is_stmt 0 view .LVU380
 1240 000e 064B     		ldr	r3, .L92+12
 1241 0010 0362     		str	r3, [r0, #32]
 474:C:/Users/²Ü¼ÒºÀ/.iotlink/sdk/IoT_LINK/iot_link/network/lwm2m/wakaama_lwm2m/port\object_access_control.c **** }
 1242              		.loc 1 474 5 is_stmt 1 view .LVU381
 474:C:/Users/²Ü¼ÒºÀ/.iotlink/sdk/IoT_LINK/iot_link/network/lwm2m/wakaama_lwm2m/port\object_access_control.c **** }
 1243              		.loc 1 474 12 is_stmt 0 view .LVU382
 1244 0012 0020     		movs	r0, #0
 1245              	.LVL119:
 474:C:/Users/²Ü¼ÒºÀ/.iotlink/sdk/IoT_LINK/iot_link/network/lwm2m/wakaama_lwm2m/port\object_access_control.c **** }
 1246              		.loc 1 474 12 view .LVU383
 1247 0014 7047     		bx	lr
 1248              	.LVL120:
 1249              	.L91:
 466:C:/Users/²Ü¼ÒºÀ/.iotlink/sdk/IoT_LINK/iot_link/network/lwm2m/wakaama_lwm2m/port\object_access_control.c ****     }
 1250              		.loc 1 466 16 view .LVU384
 1251 0016 4FF0FF30 		mov	r0, #-1
 1252              	.LVL121:
 475:C:/Users/²Ü¼ÒºÀ/.iotlink/sdk/IoT_LINK/iot_link/network/lwm2m/wakaama_lwm2m/port\object_access_control.c **** 
 1253              		.loc 1 475 1 view .LVU385
 1254 001a 7047     		bx	lr
 1255              	.L93:
 1256              		.align	2
 1257              	.L92:
 1258 001c 00000000 		.word	prv_read
 1259 0020 00000000 		.word	prv_write
 1260 0024 00000000 		.word	prv_create
 1261 0028 00000000 		.word	prv_delete
 1262              		.cfi_endproc
 1263              	.LFE20:
 1265              		.section	.text.acl_ctrl_free_object,"ax",%progbits
 1266              		.align	1
 1267              		.global	acl_ctrl_free_object
 1268              		.syntax unified
 1269              		.thumb
 1270              		.thumb_func
 1271              		.fpu fpv4-sp-d16
 1273              	acl_ctrl_free_object:
 1274              	.LVL122:
 1275              	.LFB21:
 478:C:/Users/²Ü¼ÒºÀ/.iotlink/sdk/IoT_LINK/iot_link/network/lwm2m/wakaama_lwm2m/port\object_access_control.c ****     acc_ctrl_oi_t *accCtrlOiT;
 1276              		.loc 1 478 1 is_stmt 1 view -0
 1277              		.cfi_startproc
ARM GAS  C:\Users\²Ü¼ÒºÀ\AppData\Local\Temp\cc4d6LXN.s 			page 40


 1278              		@ args = 0, pretend = 0, frame = 0
 1279              		@ frame_needed = 0, uses_anonymous_args = 0
 479:C:/Users/²Ü¼ÒºÀ/.iotlink/sdk/IoT_LINK/iot_link/network/lwm2m/wakaama_lwm2m/port\object_access_control.c ****     acc_ctrl_oi_t *accCtrlOiP = (acc_ctrl_oi_t *)objectP->instanceList;
 1280              		.loc 1 479 5 view .LVU387
 480:C:/Users/²Ü¼ÒºÀ/.iotlink/sdk/IoT_LINK/iot_link/network/lwm2m/wakaama_lwm2m/port\object_access_control.c **** 
 1281              		.loc 1 480 5 view .LVU388
 478:C:/Users/²Ü¼ÒºÀ/.iotlink/sdk/IoT_LINK/iot_link/network/lwm2m/wakaama_lwm2m/port\object_access_control.c ****     acc_ctrl_oi_t *accCtrlOiT;
 1282              		.loc 1 478 1 is_stmt 0 view .LVU389
 1283 0000 70B5     		push	{r4, r5, r6, lr}
 1284              	.LCFI18:
 1285              		.cfi_def_cfa_offset 16
 1286              		.cfi_offset 4, -16
 1287              		.cfi_offset 5, -12
 1288              		.cfi_offset 6, -8
 1289              		.cfi_offset 14, -4
 480:C:/Users/²Ü¼ÒºÀ/.iotlink/sdk/IoT_LINK/iot_link/network/lwm2m/wakaama_lwm2m/port\object_access_control.c **** 
 1290              		.loc 1 480 20 view .LVU390
 1291 0002 8468     		ldr	r4, [r0, #8]
 1292              	.LVL123:
 482:C:/Users/²Ü¼ÒºÀ/.iotlink/sdk/IoT_LINK/iot_link/network/lwm2m/wakaama_lwm2m/port\object_access_control.c ****     {
 1293              		.loc 1 482 5 is_stmt 1 view .LVU391
 478:C:/Users/²Ü¼ÒºÀ/.iotlink/sdk/IoT_LINK/iot_link/network/lwm2m/wakaama_lwm2m/port\object_access_control.c ****     acc_ctrl_oi_t *accCtrlOiT;
 1294              		.loc 1 478 1 is_stmt 0 view .LVU392
 1295 0004 0546     		mov	r5, r0
 1296              	.LVL124:
 1297              	.L95:
 482:C:/Users/²Ü¼ÒºÀ/.iotlink/sdk/IoT_LINK/iot_link/network/lwm2m/wakaama_lwm2m/port\object_access_control.c ****     {
 1298              		.loc 1 482 11 is_stmt 1 view .LVU393
 1299 0006 24B9     		cbnz	r4, .L96
 491:C:/Users/²Ü¼ÒºÀ/.iotlink/sdk/IoT_LINK/iot_link/network/lwm2m/wakaama_lwm2m/port\object_access_control.c **** }
 1300              		.loc 1 491 5 view .LVU394
 1301 0008 2846     		mov	r0, r5
 492:C:/Users/²Ü¼ÒºÀ/.iotlink/sdk/IoT_LINK/iot_link/network/lwm2m/wakaama_lwm2m/port\object_access_control.c **** 
 1302              		.loc 1 492 1 is_stmt 0 view .LVU395
 1303 000a BDE87040 		pop	{r4, r5, r6, lr}
 1304              	.LCFI19:
 1305              		.cfi_remember_state
 1306              		.cfi_restore 14
 1307              		.cfi_restore 6
 1308              		.cfi_restore 5
 1309              		.cfi_restore 4
 1310              		.cfi_def_cfa_offset 0
 1311              	.LVL125:
 491:C:/Users/²Ü¼ÒºÀ/.iotlink/sdk/IoT_LINK/iot_link/network/lwm2m/wakaama_lwm2m/port\object_access_control.c **** }
 1312              		.loc 1 491 5 view .LVU396
 1313 000e FFF7FEBF 		b	lwm2m_free
 1314              	.LVL126:
 1315              	.L96:
 1316              	.LCFI20:
 1317              		.cfi_restore_state
 485:C:/Users/²Ü¼ÒºÀ/.iotlink/sdk/IoT_LINK/iot_link/network/lwm2m/wakaama_lwm2m/port\object_access_control.c ****         accCtrlOiT = accCtrlOiP;
 1318              		.loc 1 485 9 is_stmt 1 view .LVU397
 1319 0012 E068     		ldr	r0, [r4, #12]
 1320 0014 FFF7FEFF 		bl	lwm2m_list_free
 1321              	.LVL127:
 486:C:/Users/²Ü¼ÒºÀ/.iotlink/sdk/IoT_LINK/iot_link/network/lwm2m/wakaama_lwm2m/port\object_access_control.c ****         accCtrlOiP = accCtrlOiP->next;
 1322              		.loc 1 486 9 view .LVU398
ARM GAS  C:\Users\²Ü¼ÒºÀ\AppData\Local\Temp\cc4d6LXN.s 			page 41


 487:C:/Users/²Ü¼ÒºÀ/.iotlink/sdk/IoT_LINK/iot_link/network/lwm2m/wakaama_lwm2m/port\object_access_control.c ****         lwm2m_free(accCtrlOiT);
 1323              		.loc 1 487 9 view .LVU399
 487:C:/Users/²Ü¼ÒºÀ/.iotlink/sdk/IoT_LINK/iot_link/network/lwm2m/wakaama_lwm2m/port\object_access_control.c ****         lwm2m_free(accCtrlOiT);
 1324              		.loc 1 487 20 is_stmt 0 view .LVU400
 1325 0018 2668     		ldr	r6, [r4]
 1326              	.LVL128:
 488:C:/Users/²Ü¼ÒºÀ/.iotlink/sdk/IoT_LINK/iot_link/network/lwm2m/wakaama_lwm2m/port\object_access_control.c ****     }
 1327              		.loc 1 488 9 is_stmt 1 view .LVU401
 1328 001a 2046     		mov	r0, r4
 1329 001c FFF7FEFF 		bl	lwm2m_free
 1330              	.LVL129:
 487:C:/Users/²Ü¼ÒºÀ/.iotlink/sdk/IoT_LINK/iot_link/network/lwm2m/wakaama_lwm2m/port\object_access_control.c ****         lwm2m_free(accCtrlOiT);
 1331              		.loc 1 487 20 is_stmt 0 view .LVU402
 1332 0020 3446     		mov	r4, r6
 1333              	.LVL130:
 487:C:/Users/²Ü¼ÒºÀ/.iotlink/sdk/IoT_LINK/iot_link/network/lwm2m/wakaama_lwm2m/port\object_access_control.c ****         lwm2m_free(accCtrlOiT);
 1334              		.loc 1 487 20 view .LVU403
 1335 0022 F0E7     		b	.L95
 1336              		.cfi_endproc
 1337              	.LFE21:
 1339              		.section	.text.acc_ctrl_obj_add_inst,"ax",%progbits
 1340              		.align	1
 1341              		.global	acc_ctrl_obj_add_inst
 1342              		.syntax unified
 1343              		.thumb
 1344              		.thumb_func
 1345              		.fpu fpv4-sp-d16
 1347              	acc_ctrl_obj_add_inst:
 1348              	.LVL131:
 1349              	.LFB22:
 496:C:/Users/²Ü¼ÒºÀ/.iotlink/sdk/IoT_LINK/iot_link/network/lwm2m/wakaama_lwm2m/port\object_access_control.c ****     bool ret = false;
 1350              		.loc 1 496 1 is_stmt 1 view -0
 1351              		.cfi_startproc
 1352              		@ args = 4, pretend = 0, frame = 0
 1353              		@ frame_needed = 0, uses_anonymous_args = 0
 497:C:/Users/²Ü¼ÒºÀ/.iotlink/sdk/IoT_LINK/iot_link/network/lwm2m/wakaama_lwm2m/port\object_access_control.c **** 
 1354              		.loc 1 497 5 view .LVU405
 499:C:/Users/²Ü¼ÒºÀ/.iotlink/sdk/IoT_LINK/iot_link/network/lwm2m/wakaama_lwm2m/port\object_access_control.c ****     {
 1355              		.loc 1 499 5 view .LVU406
 496:C:/Users/²Ü¼ÒºÀ/.iotlink/sdk/IoT_LINK/iot_link/network/lwm2m/wakaama_lwm2m/port\object_access_control.c ****     bool ret = false;
 1356              		.loc 1 496 1 is_stmt 0 view .LVU407
 1357 0000 2DE9F041 		push	{r4, r5, r6, r7, r8, lr}
 1358              	.LCFI21:
 1359              		.cfi_def_cfa_offset 24
 1360              		.cfi_offset 4, -24
 1361              		.cfi_offset 5, -20
 1362              		.cfi_offset 6, -16
 1363              		.cfi_offset 7, -12
 1364              		.cfi_offset 8, -8
 1365              		.cfi_offset 14, -4
 496:C:/Users/²Ü¼ÒºÀ/.iotlink/sdk/IoT_LINK/iot_link/network/lwm2m/wakaama_lwm2m/port\object_access_control.c ****     bool ret = false;
 1366              		.loc 1 496 1 view .LVU408
 1367 0004 8846     		mov	r8, r1
 1368 0006 1746     		mov	r7, r2
 1369 0008 1E46     		mov	r6, r3
 499:C:/Users/²Ü¼ÒºÀ/.iotlink/sdk/IoT_LINK/iot_link/network/lwm2m/wakaama_lwm2m/port\object_access_control.c ****     {
 1370              		.loc 1 499 8 view .LVU409
ARM GAS  C:\Users\²Ü¼ÒºÀ\AppData\Local\Temp\cc4d6LXN.s 			page 42


 1371 000a 0546     		mov	r5, r0
 1372 000c 10B9     		cbnz	r0, .L98
 1373              	.LVL132:
 1374              	.L100:
 501:C:/Users/²Ü¼ÒºÀ/.iotlink/sdk/IoT_LINK/iot_link/network/lwm2m/wakaama_lwm2m/port\object_access_control.c ****     }
 1375              		.loc 1 501 16 view .LVU410
 1376 000e 0020     		movs	r0, #0
 1377              	.LVL133:
 1378              	.L99:
 529:C:/Users/²Ü¼ÒºÀ/.iotlink/sdk/IoT_LINK/iot_link/network/lwm2m/wakaama_lwm2m/port\object_access_control.c **** 
 1379              		.loc 1 529 1 view .LVU411
 1380 0010 BDE8F081 		pop	{r4, r5, r6, r7, r8, pc}
 1381              	.LVL134:
 1382              	.L98:
 1383              	.LBB43:
 506:C:/Users/²Ü¼ÒºÀ/.iotlink/sdk/IoT_LINK/iot_link/network/lwm2m/wakaama_lwm2m/port\object_access_control.c ****         accCtrlOiP = (acc_ctrl_oi_t *)lwm2m_malloc(sizeof(acc_ctrl_oi_t));
 1384              		.loc 1 506 9 is_stmt 1 view .LVU412
 507:C:/Users/²Ü¼ÒºÀ/.iotlink/sdk/IoT_LINK/iot_link/network/lwm2m/wakaama_lwm2m/port\object_access_control.c **** 
 1385              		.loc 1 507 9 view .LVU413
 507:C:/Users/²Ü¼ÒºÀ/.iotlink/sdk/IoT_LINK/iot_link/network/lwm2m/wakaama_lwm2m/port\object_access_control.c **** 
 1386              		.loc 1 507 39 is_stmt 0 view .LVU414
 1387 0014 1020     		movs	r0, #16
 1388              	.LVL135:
 507:C:/Users/²Ü¼ÒºÀ/.iotlink/sdk/IoT_LINK/iot_link/network/lwm2m/wakaama_lwm2m/port\object_access_control.c **** 
 1389              		.loc 1 507 39 view .LVU415
 1390 0016 FFF7FEFF 		bl	lwm2m_malloc
 1391              	.LVL136:
 509:C:/Users/²Ü¼ÒºÀ/.iotlink/sdk/IoT_LINK/iot_link/network/lwm2m/wakaama_lwm2m/port\object_access_control.c ****         {
 1392              		.loc 1 509 9 is_stmt 1 view .LVU416
 509:C:/Users/²Ü¼ÒºÀ/.iotlink/sdk/IoT_LINK/iot_link/network/lwm2m/wakaama_lwm2m/port\object_access_control.c ****         {
 1393              		.loc 1 509 12 is_stmt 0 view .LVU417
 1394 001a 0446     		mov	r4, r0
 1395 001c 0028     		cmp	r0, #0
 1396 001e F6D0     		beq	.L100
 515:C:/Users/²Ü¼ÒºÀ/.iotlink/sdk/IoT_LINK/iot_link/network/lwm2m/wakaama_lwm2m/port\object_access_control.c ****             // list: key
 1397              		.loc 1 515 13 is_stmt 1 view .LVU418
 515:C:/Users/²Ü¼ÒºÀ/.iotlink/sdk/IoT_LINK/iot_link/network/lwm2m/wakaama_lwm2m/port\object_access_control.c ****             // list: key
 1398              		.loc 1 515 20 is_stmt 0 view .LVU419
 1399 0020 1022     		movs	r2, #16
 1400 0022 0021     		movs	r1, #0
 1401 0024 FFF7FEFF 		bl	memset
 1402              	.LVL137:
 517:C:/Users/²Ü¼ÒºÀ/.iotlink/sdk/IoT_LINK/iot_link/network/lwm2m/wakaama_lwm2m/port\object_access_control.c ****             // object instance data:
 1403              		.loc 1 517 13 is_stmt 1 view .LVU420
 521:C:/Users/²Ü¼ÒºÀ/.iotlink/sdk/IoT_LINK/iot_link/network/lwm2m/wakaama_lwm2m/port\object_access_control.c ****             accCtrlObjP->instanceList =
 1404              		.loc 1 521 38 is_stmt 0 view .LVU421
 1405 0028 BDF81830 		ldrh	r3, [sp, #24]
 523:C:/Users/²Ü¼ÒºÀ/.iotlink/sdk/IoT_LINK/iot_link/network/lwm2m/wakaama_lwm2m/port\object_access_control.c ****             ret = true;
 1406              		.loc 1 523 17 view .LVU422
 1407 002c A868     		ldr	r0, [r5, #8]
 517:C:/Users/²Ü¼ÒºÀ/.iotlink/sdk/IoT_LINK/iot_link/network/lwm2m/wakaama_lwm2m/port\object_access_control.c ****             // object instance data:
 1408              		.loc 1 517 38 view .LVU423
 1409 002e A4F80480 		strh	r8, [r4, #4]	@ movhi
 519:C:/Users/²Ü¼ÒºÀ/.iotlink/sdk/IoT_LINK/iot_link/network/lwm2m/wakaama_lwm2m/port\object_access_control.c ****             accCtrlOiP->objectInstId = acObjInstId;
 1410              		.loc 1 519 13 is_stmt 1 view .LVU424
 519:C:/Users/²Ü¼ÒºÀ/.iotlink/sdk/IoT_LINK/iot_link/network/lwm2m/wakaama_lwm2m/port\object_access_control.c ****             accCtrlOiP->objectInstId = acObjInstId;
 1411              		.loc 1 519 38 is_stmt 0 view .LVU425
ARM GAS  C:\Users\²Ü¼ÒºÀ\AppData\Local\Temp\cc4d6LXN.s 			page 43


 1412 0032 E780     		strh	r7, [r4, #6]	@ movhi
 520:C:/Users/²Ü¼ÒºÀ/.iotlink/sdk/IoT_LINK/iot_link/network/lwm2m/wakaama_lwm2m/port\object_access_control.c ****             accCtrlOiP->accCtrlOwner = acOwner;
 1413              		.loc 1 520 13 is_stmt 1 view .LVU426
 520:C:/Users/²Ü¼ÒºÀ/.iotlink/sdk/IoT_LINK/iot_link/network/lwm2m/wakaama_lwm2m/port\object_access_control.c ****             accCtrlOiP->accCtrlOwner = acOwner;
 1414              		.loc 1 520 38 is_stmt 0 view .LVU427
 1415 0034 2681     		strh	r6, [r4, #8]	@ movhi
 521:C:/Users/²Ü¼ÒºÀ/.iotlink/sdk/IoT_LINK/iot_link/network/lwm2m/wakaama_lwm2m/port\object_access_control.c ****             accCtrlObjP->instanceList =
 1416              		.loc 1 521 13 is_stmt 1 view .LVU428
 521:C:/Users/²Ü¼ÒºÀ/.iotlink/sdk/IoT_LINK/iot_link/network/lwm2m/wakaama_lwm2m/port\object_access_control.c ****             accCtrlObjP->instanceList =
 1417              		.loc 1 521 38 is_stmt 0 view .LVU429
 1418 0036 6381     		strh	r3, [r4, #10]	@ movhi
 522:C:/Users/²Ü¼ÒºÀ/.iotlink/sdk/IoT_LINK/iot_link/network/lwm2m/wakaama_lwm2m/port\object_access_control.c ****                 LWM2M_LIST_ADD(accCtrlObjP->instanceList, accCtrlOiP);
 1419              		.loc 1 522 13 is_stmt 1 view .LVU430
 523:C:/Users/²Ü¼ÒºÀ/.iotlink/sdk/IoT_LINK/iot_link/network/lwm2m/wakaama_lwm2m/port\object_access_control.c ****             ret = true;
 1420              		.loc 1 523 17 is_stmt 0 view .LVU431
 1421 0038 2146     		mov	r1, r4
 1422 003a FFF7FEFF 		bl	lwm2m_list_add
 1423              	.LVL138:
 522:C:/Users/²Ü¼ÒºÀ/.iotlink/sdk/IoT_LINK/iot_link/network/lwm2m/wakaama_lwm2m/port\object_access_control.c ****                 LWM2M_LIST_ADD(accCtrlObjP->instanceList, accCtrlOiP);
 1424              		.loc 1 522 39 view .LVU432
 1425 003e A860     		str	r0, [r5, #8]
 523:C:/Users/²Ü¼ÒºÀ/.iotlink/sdk/IoT_LINK/iot_link/network/lwm2m/wakaama_lwm2m/port\object_access_control.c ****             ret = true;
 1426              		.loc 1 523 70 is_stmt 1 view .LVU433
 524:C:/Users/²Ü¼ÒºÀ/.iotlink/sdk/IoT_LINK/iot_link/network/lwm2m/wakaama_lwm2m/port\object_access_control.c ****         }
 1427              		.loc 1 524 13 view .LVU434
 1428              	.LVL139:
 524:C:/Users/²Ü¼ÒºÀ/.iotlink/sdk/IoT_LINK/iot_link/network/lwm2m/wakaama_lwm2m/port\object_access_control.c ****         }
 1429              		.loc 1 524 13 is_stmt 0 view .LVU435
 1430              	.LBE43:
 528:C:/Users/²Ü¼ÒºÀ/.iotlink/sdk/IoT_LINK/iot_link/network/lwm2m/wakaama_lwm2m/port\object_access_control.c **** }
 1431              		.loc 1 528 5 is_stmt 1 view .LVU436
 528:C:/Users/²Ü¼ÒºÀ/.iotlink/sdk/IoT_LINK/iot_link/network/lwm2m/wakaama_lwm2m/port\object_access_control.c **** }
 1432              		.loc 1 528 12 is_stmt 0 view .LVU437
 1433 0040 0120     		movs	r0, #1
 1434 0042 E5E7     		b	.L99
 1435              		.cfi_endproc
 1436              	.LFE22:
 1438              		.section	.text.acc_ctrl_oi_add_ac_val,"ax",%progbits
 1439              		.align	1
 1440              		.global	acc_ctrl_oi_add_ac_val
 1441              		.syntax unified
 1442              		.thumb
 1443              		.thumb_func
 1444              		.fpu fpv4-sp-d16
 1446              	acc_ctrl_oi_add_ac_val:
 1447              	.LVL140:
 1448              	.LFB23:
 533:C:/Users/²Ü¼ÒºÀ/.iotlink/sdk/IoT_LINK/iot_link/network/lwm2m/wakaama_lwm2m/port\object_access_control.c ****     bool ret = false;
 1449              		.loc 1 533 1 is_stmt 1 view -0
 1450              		.cfi_startproc
 1451              		@ args = 0, pretend = 0, frame = 8
 1452              		@ frame_needed = 0, uses_anonymous_args = 0
 534:C:/Users/²Ü¼ÒºÀ/.iotlink/sdk/IoT_LINK/iot_link/network/lwm2m/wakaama_lwm2m/port\object_access_control.c ****     acc_ctrl_oi_t *accCtrlOiP = (acc_ctrl_oi_t *)
 1453              		.loc 1 534 5 view .LVU439
 535:C:/Users/²Ü¼ÒºÀ/.iotlink/sdk/IoT_LINK/iot_link/network/lwm2m/wakaama_lwm2m/port\object_access_control.c ****                                 lwm2m_list_find(accCtrlObjP->instanceList, instId);
 1454              		.loc 1 535 5 view .LVU440
 533:C:/Users/²Ü¼ÒºÀ/.iotlink/sdk/IoT_LINK/iot_link/network/lwm2m/wakaama_lwm2m/port\object_access_control.c ****     bool ret = false;
ARM GAS  C:\Users\²Ü¼ÒºÀ\AppData\Local\Temp\cc4d6LXN.s 			page 44


 1455              		.loc 1 533 1 is_stmt 0 view .LVU441
 1456 0000 37B5     		push	{r0, r1, r2, r4, r5, lr}
 1457              	.LCFI22:
 1458              		.cfi_def_cfa_offset 24
 1459              		.cfi_offset 4, -12
 1460              		.cfi_offset 5, -8
 1461              		.cfi_offset 14, -4
 536:C:/Users/²Ü¼ÒºÀ/.iotlink/sdk/IoT_LINK/iot_link/network/lwm2m/wakaama_lwm2m/port\object_access_control.c **** 
 1462              		.loc 1 536 33 view .LVU442
 1463 0002 8068     		ldr	r0, [r0, #8]
 1464              	.LVL141:
 533:C:/Users/²Ü¼ÒºÀ/.iotlink/sdk/IoT_LINK/iot_link/network/lwm2m/wakaama_lwm2m/port\object_access_control.c ****     bool ret = false;
 1465              		.loc 1 533 1 view .LVU443
 1466 0004 0193     		str	r3, [sp, #4]
 1467 0006 1546     		mov	r5, r2
 536:C:/Users/²Ü¼ÒºÀ/.iotlink/sdk/IoT_LINK/iot_link/network/lwm2m/wakaama_lwm2m/port\object_access_control.c **** 
 1468              		.loc 1 536 33 view .LVU444
 1469 0008 FFF7FEFF 		bl	lwm2m_list_find
 1470              	.LVL142:
 538:C:/Users/²Ü¼ÒºÀ/.iotlink/sdk/IoT_LINK/iot_link/network/lwm2m/wakaama_lwm2m/port\object_access_control.c ****         return ret;
 1471              		.loc 1 538 5 is_stmt 1 view .LVU445
 538:C:/Users/²Ü¼ÒºÀ/.iotlink/sdk/IoT_LINK/iot_link/network/lwm2m/wakaama_lwm2m/port\object_access_control.c ****         return ret;
 1472              		.loc 1 538 8 is_stmt 0 view .LVU446
 1473 000c 38B1     		cbz	r0, .L105
 541:C:/Users/²Ü¼ÒºÀ/.iotlink/sdk/IoT_LINK/iot_link/network/lwm2m/wakaama_lwm2m/port\object_access_control.c **** }
 1474              		.loc 1 541 5 is_stmt 1 view .LVU447
 541:C:/Users/²Ü¼ÒºÀ/.iotlink/sdk/IoT_LINK/iot_link/network/lwm2m/wakaama_lwm2m/port\object_access_control.c **** }
 1475              		.loc 1 541 12 is_stmt 0 view .LVU448
 1476 000e 019A     		ldr	r2, [sp, #4]
 1477 0010 2946     		mov	r1, r5
 1478 0012 0C30     		adds	r0, r0, #12
 1479              	.LVL143:
 542:C:/Users/²Ü¼ÒºÀ/.iotlink/sdk/IoT_LINK/iot_link/network/lwm2m/wakaama_lwm2m/port\object_access_control.c **** 
 1480              		.loc 1 542 1 view .LVU449
 1481 0014 03B0     		add	sp, sp, #12
 1482              	.LCFI23:
 1483              		.cfi_remember_state
 1484              		.cfi_def_cfa_offset 12
 1485              		@ sp needed
 1486 0016 BDE83040 		pop	{r4, r5, lr}
 1487              	.LCFI24:
 1488              		.cfi_restore 14
 1489              		.cfi_restore 5
 1490              		.cfi_restore 4
 1491              		.cfi_def_cfa_offset 0
 541:C:/Users/²Ü¼ÒºÀ/.iotlink/sdk/IoT_LINK/iot_link/network/lwm2m/wakaama_lwm2m/port\object_access_control.c **** }
 1492              		.loc 1 541 12 view .LVU450
 1493 001a FFF7FEBF 		b	prv_add_ac_val.isra.0
 1494              	.LVL144:
 1495              	.L105:
 1496              	.LCFI25:
 1497              		.cfi_restore_state
 542:C:/Users/²Ü¼ÒºÀ/.iotlink/sdk/IoT_LINK/iot_link/network/lwm2m/wakaama_lwm2m/port\object_access_control.c **** 
 1498              		.loc 1 542 1 view .LVU451
 1499 001e 03B0     		add	sp, sp, #12
 1500              	.LCFI26:
 1501              		.cfi_def_cfa_offset 12
ARM GAS  C:\Users\²Ü¼ÒºÀ\AppData\Local\Temp\cc4d6LXN.s 			page 45


 1502              		@ sp needed
 1503 0020 30BD     		pop	{r4, r5, pc}
 1504              		.cfi_endproc
 1505              	.LFE23:
 1507              		.section	.text.acc_auth_operate,"ax",%progbits
 1508              		.align	1
 1509              		.global	acc_auth_operate
 1510              		.syntax unified
 1511              		.thumb
 1512              		.thumb_func
 1513              		.fpu fpv4-sp-d16
 1515              	acc_auth_operate:
 1516              	.LVL145:
 1517              	.LFB32:
 600:C:/Users/²Ü¼ÒºÀ/.iotlink/sdk/IoT_LINK/iot_link/network/lwm2m/wakaama_lwm2m/port\object_access_control.c **** 
 601:C:/Users/²Ü¼ÒºÀ/.iotlink/sdk/IoT_LINK/iot_link/network/lwm2m/wakaama_lwm2m/port\object_access_control.c **** static uint8_t prv_acc_self_auth_check(acc_ctrl_oi_t *accCtrlOiP, lwm2m_uri_t *uri,
 602:C:/Users/²Ü¼ÒºÀ/.iotlink/sdk/IoT_LINK/iot_link/network/lwm2m/wakaama_lwm2m/port\object_access_control.c ****                                        OBJ_ACC_OPERATE op, uint16_t serverId)
 603:C:/Users/²Ü¼ÒºÀ/.iotlink/sdk/IoT_LINK/iot_link/network/lwm2m/wakaama_lwm2m/port\object_access_control.c **** {
 604:C:/Users/²Ü¼ÒºÀ/.iotlink/sdk/IoT_LINK/iot_link/network/lwm2m/wakaama_lwm2m/port\object_access_control.c ****     acc_ctrl_oi_t *targetP;
 605:C:/Users/²Ü¼ÒºÀ/.iotlink/sdk/IoT_LINK/iot_link/network/lwm2m/wakaama_lwm2m/port\object_access_control.c **** 
 606:C:/Users/²Ü¼ÒºÀ/.iotlink/sdk/IoT_LINK/iot_link/network/lwm2m/wakaama_lwm2m/port\object_access_control.c ****     if (LWM2M_URI_IS_SET_INSTANCE(uri))
 607:C:/Users/²Ü¼ÒºÀ/.iotlink/sdk/IoT_LINK/iot_link/network/lwm2m/wakaama_lwm2m/port\object_access_control.c ****     {
 608:C:/Users/²Ü¼ÒºÀ/.iotlink/sdk/IoT_LINK/iot_link/network/lwm2m/wakaama_lwm2m/port\object_access_control.c ****         targetP = (acc_ctrl_oi_t *)LWM2M_LIST_FIND(accCtrlOiP, uri->instanceId);
 609:C:/Users/²Ü¼ÒºÀ/.iotlink/sdk/IoT_LINK/iot_link/network/lwm2m/wakaama_lwm2m/port\object_access_control.c **** 
 610:C:/Users/²Ü¼ÒºÀ/.iotlink/sdk/IoT_LINK/iot_link/network/lwm2m/wakaama_lwm2m/port\object_access_control.c ****         if (NULL != targetP && targetP->accCtrlOwner == serverId)
 611:C:/Users/²Ü¼ÒºÀ/.iotlink/sdk/IoT_LINK/iot_link/network/lwm2m/wakaama_lwm2m/port\object_access_control.c ****         {
 612:C:/Users/²Ü¼ÒºÀ/.iotlink/sdk/IoT_LINK/iot_link/network/lwm2m/wakaama_lwm2m/port\object_access_control.c ****             return COAP_NO_ERROR;
 613:C:/Users/²Ü¼ÒºÀ/.iotlink/sdk/IoT_LINK/iot_link/network/lwm2m/wakaama_lwm2m/port\object_access_control.c ****         }
 614:C:/Users/²Ü¼ÒºÀ/.iotlink/sdk/IoT_LINK/iot_link/network/lwm2m/wakaama_lwm2m/port\object_access_control.c ****         else
 615:C:/Users/²Ü¼ÒºÀ/.iotlink/sdk/IoT_LINK/iot_link/network/lwm2m/wakaama_lwm2m/port\object_access_control.c ****         {
 616:C:/Users/²Ü¼ÒºÀ/.iotlink/sdk/IoT_LINK/iot_link/network/lwm2m/wakaama_lwm2m/port\object_access_control.c ****             return COAP_401_UNAUTHORIZED;
 617:C:/Users/²Ü¼ÒºÀ/.iotlink/sdk/IoT_LINK/iot_link/network/lwm2m/wakaama_lwm2m/port\object_access_control.c ****         }
 618:C:/Users/²Ü¼ÒºÀ/.iotlink/sdk/IoT_LINK/iot_link/network/lwm2m/wakaama_lwm2m/port\object_access_control.c ****     }
 619:C:/Users/²Ü¼ÒºÀ/.iotlink/sdk/IoT_LINK/iot_link/network/lwm2m/wakaama_lwm2m/port\object_access_control.c ****     else
 620:C:/Users/²Ü¼ÒºÀ/.iotlink/sdk/IoT_LINK/iot_link/network/lwm2m/wakaama_lwm2m/port\object_access_control.c ****     {
 621:C:/Users/²Ü¼ÒºÀ/.iotlink/sdk/IoT_LINK/iot_link/network/lwm2m/wakaama_lwm2m/port\object_access_control.c ****         targetP = accCtrlOiP;
 622:C:/Users/²Ü¼ÒºÀ/.iotlink/sdk/IoT_LINK/iot_link/network/lwm2m/wakaama_lwm2m/port\object_access_control.c **** 
 623:C:/Users/²Ü¼ÒºÀ/.iotlink/sdk/IoT_LINK/iot_link/network/lwm2m/wakaama_lwm2m/port\object_access_control.c ****         while (targetP)
 624:C:/Users/²Ü¼ÒºÀ/.iotlink/sdk/IoT_LINK/iot_link/network/lwm2m/wakaama_lwm2m/port\object_access_control.c ****         {
 625:C:/Users/²Ü¼ÒºÀ/.iotlink/sdk/IoT_LINK/iot_link/network/lwm2m/wakaama_lwm2m/port\object_access_control.c ****             if (targetP->accCtrlOwner != serverId)
 626:C:/Users/²Ü¼ÒºÀ/.iotlink/sdk/IoT_LINK/iot_link/network/lwm2m/wakaama_lwm2m/port\object_access_control.c ****             {
 627:C:/Users/²Ü¼ÒºÀ/.iotlink/sdk/IoT_LINK/iot_link/network/lwm2m/wakaama_lwm2m/port\object_access_control.c ****                 return COAP_401_UNAUTHORIZED;
 628:C:/Users/²Ü¼ÒºÀ/.iotlink/sdk/IoT_LINK/iot_link/network/lwm2m/wakaama_lwm2m/port\object_access_control.c ****             }
 629:C:/Users/²Ü¼ÒºÀ/.iotlink/sdk/IoT_LINK/iot_link/network/lwm2m/wakaama_lwm2m/port\object_access_control.c **** 
 630:C:/Users/²Ü¼ÒºÀ/.iotlink/sdk/IoT_LINK/iot_link/network/lwm2m/wakaama_lwm2m/port\object_access_control.c ****             targetP = targetP->next;
 631:C:/Users/²Ü¼ÒºÀ/.iotlink/sdk/IoT_LINK/iot_link/network/lwm2m/wakaama_lwm2m/port\object_access_control.c ****         }
 632:C:/Users/²Ü¼ÒºÀ/.iotlink/sdk/IoT_LINK/iot_link/network/lwm2m/wakaama_lwm2m/port\object_access_control.c **** 
 633:C:/Users/²Ü¼ÒºÀ/.iotlink/sdk/IoT_LINK/iot_link/network/lwm2m/wakaama_lwm2m/port\object_access_control.c ****         return COAP_NO_ERROR;
 634:C:/Users/²Ü¼ÒºÀ/.iotlink/sdk/IoT_LINK/iot_link/network/lwm2m/wakaama_lwm2m/port\object_access_control.c ****     }
 635:C:/Users/²Ü¼ÒºÀ/.iotlink/sdk/IoT_LINK/iot_link/network/lwm2m/wakaama_lwm2m/port\object_access_control.c **** }
 636:C:/Users/²Ü¼ÒºÀ/.iotlink/sdk/IoT_LINK/iot_link/network/lwm2m/wakaama_lwm2m/port\object_access_control.c **** 
 637:C:/Users/²Ü¼ÒºÀ/.iotlink/sdk/IoT_LINK/iot_link/network/lwm2m/wakaama_lwm2m/port\object_access_control.c **** static uint8_t prv_pre_auth_check(acc_ctrl_oi_t *accCtrlOiP, lwm2m_uri_t *uri,
 638:C:/Users/²Ü¼ÒºÀ/.iotlink/sdk/IoT_LINK/iot_link/network/lwm2m/wakaama_lwm2m/port\object_access_control.c ****                                   OBJ_ACC_OPERATE op, uint16_t serverId)
 639:C:/Users/²Ü¼ÒºÀ/.iotlink/sdk/IoT_LINK/iot_link/network/lwm2m/wakaama_lwm2m/port\object_access_control.c **** {
 640:C:/Users/²Ü¼ÒºÀ/.iotlink/sdk/IoT_LINK/iot_link/network/lwm2m/wakaama_lwm2m/port\object_access_control.c ****     if (OBJ_ACC_CREATE == op)
 641:C:/Users/²Ü¼ÒºÀ/.iotlink/sdk/IoT_LINK/iot_link/network/lwm2m/wakaama_lwm2m/port\object_access_control.c ****     {
 642:C:/Users/²Ü¼ÒºÀ/.iotlink/sdk/IoT_LINK/iot_link/network/lwm2m/wakaama_lwm2m/port\object_access_control.c ****         if (!prv_check_instance_auth(accCtrlOiP, uri->objectId, MAX_DATA_VAL, serverId, op))
ARM GAS  C:\Users\²Ü¼ÒºÀ\AppData\Local\Temp\cc4d6LXN.s 			page 46


 643:C:/Users/²Ü¼ÒºÀ/.iotlink/sdk/IoT_LINK/iot_link/network/lwm2m/wakaama_lwm2m/port\object_access_control.c ****         {
 644:C:/Users/²Ü¼ÒºÀ/.iotlink/sdk/IoT_LINK/iot_link/network/lwm2m/wakaama_lwm2m/port\object_access_control.c ****             return COAP_401_UNAUTHORIZED;
 645:C:/Users/²Ü¼ÒºÀ/.iotlink/sdk/IoT_LINK/iot_link/network/lwm2m/wakaama_lwm2m/port\object_access_control.c ****         }
 646:C:/Users/²Ü¼ÒºÀ/.iotlink/sdk/IoT_LINK/iot_link/network/lwm2m/wakaama_lwm2m/port\object_access_control.c **** 
 647:C:/Users/²Ü¼ÒºÀ/.iotlink/sdk/IoT_LINK/iot_link/network/lwm2m/wakaama_lwm2m/port\object_access_control.c ****         return COAP_NO_ERROR;
 648:C:/Users/²Ü¼ÒºÀ/.iotlink/sdk/IoT_LINK/iot_link/network/lwm2m/wakaama_lwm2m/port\object_access_control.c ****     }
 649:C:/Users/²Ü¼ÒºÀ/.iotlink/sdk/IoT_LINK/iot_link/network/lwm2m/wakaama_lwm2m/port\object_access_control.c ****     else if (OBJ_ACC_DISCOVER == op)
 650:C:/Users/²Ü¼ÒºÀ/.iotlink/sdk/IoT_LINK/iot_link/network/lwm2m/wakaama_lwm2m/port\object_access_control.c ****     {
 651:C:/Users/²Ü¼ÒºÀ/.iotlink/sdk/IoT_LINK/iot_link/network/lwm2m/wakaama_lwm2m/port\object_access_control.c ****         return COAP_NO_ERROR;
 652:C:/Users/²Ü¼ÒºÀ/.iotlink/sdk/IoT_LINK/iot_link/network/lwm2m/wakaama_lwm2m/port\object_access_control.c ****     }
 653:C:/Users/²Ü¼ÒºÀ/.iotlink/sdk/IoT_LINK/iot_link/network/lwm2m/wakaama_lwm2m/port\object_access_control.c ****     else if (LWM2M_ACL_OBJECT_ID == uri->objectId)
 654:C:/Users/²Ü¼ÒºÀ/.iotlink/sdk/IoT_LINK/iot_link/network/lwm2m/wakaama_lwm2m/port\object_access_control.c ****     {
 655:C:/Users/²Ü¼ÒºÀ/.iotlink/sdk/IoT_LINK/iot_link/network/lwm2m/wakaama_lwm2m/port\object_access_control.c ****         return prv_acc_self_auth_check(accCtrlOiP, uri, op, serverId);
 656:C:/Users/²Ü¼ÒºÀ/.iotlink/sdk/IoT_LINK/iot_link/network/lwm2m/wakaama_lwm2m/port\object_access_control.c ****     }
 657:C:/Users/²Ü¼ÒºÀ/.iotlink/sdk/IoT_LINK/iot_link/network/lwm2m/wakaama_lwm2m/port\object_access_control.c ****     else
 658:C:/Users/²Ü¼ÒºÀ/.iotlink/sdk/IoT_LINK/iot_link/network/lwm2m/wakaama_lwm2m/port\object_access_control.c ****     {
 659:C:/Users/²Ü¼ÒºÀ/.iotlink/sdk/IoT_LINK/iot_link/network/lwm2m/wakaama_lwm2m/port\object_access_control.c ****         if (LWM2M_URI_IS_SET_INSTANCE(uri))
 660:C:/Users/²Ü¼ÒºÀ/.iotlink/sdk/IoT_LINK/iot_link/network/lwm2m/wakaama_lwm2m/port\object_access_control.c ****         {
 661:C:/Users/²Ü¼ÒºÀ/.iotlink/sdk/IoT_LINK/iot_link/network/lwm2m/wakaama_lwm2m/port\object_access_control.c ****             if (!prv_check_instance_auth(accCtrlOiP, uri->objectId, uri->instanceId, serverId, op))
 662:C:/Users/²Ü¼ÒºÀ/.iotlink/sdk/IoT_LINK/iot_link/network/lwm2m/wakaama_lwm2m/port\object_access_control.c ****             {
 663:C:/Users/²Ü¼ÒºÀ/.iotlink/sdk/IoT_LINK/iot_link/network/lwm2m/wakaama_lwm2m/port\object_access_control.c ****                 return COAP_401_UNAUTHORIZED;
 664:C:/Users/²Ü¼ÒºÀ/.iotlink/sdk/IoT_LINK/iot_link/network/lwm2m/wakaama_lwm2m/port\object_access_control.c ****             }
 665:C:/Users/²Ü¼ÒºÀ/.iotlink/sdk/IoT_LINK/iot_link/network/lwm2m/wakaama_lwm2m/port\object_access_control.c ****         }
 666:C:/Users/²Ü¼ÒºÀ/.iotlink/sdk/IoT_LINK/iot_link/network/lwm2m/wakaama_lwm2m/port\object_access_control.c ****     }
 667:C:/Users/²Ü¼ÒºÀ/.iotlink/sdk/IoT_LINK/iot_link/network/lwm2m/wakaama_lwm2m/port\object_access_control.c **** 
 668:C:/Users/²Ü¼ÒºÀ/.iotlink/sdk/IoT_LINK/iot_link/network/lwm2m/wakaama_lwm2m/port\object_access_control.c ****     return COAP_NO_ERROR;
 669:C:/Users/²Ü¼ÒºÀ/.iotlink/sdk/IoT_LINK/iot_link/network/lwm2m/wakaama_lwm2m/port\object_access_control.c **** }
 670:C:/Users/²Ü¼ÒºÀ/.iotlink/sdk/IoT_LINK/iot_link/network/lwm2m/wakaama_lwm2m/port\object_access_control.c **** 
 671:C:/Users/²Ü¼ÒºÀ/.iotlink/sdk/IoT_LINK/iot_link/network/lwm2m/wakaama_lwm2m/port\object_access_control.c **** static uint8_t prv_post_action_check(lwm2m_uri_t *uri, OBJ_ACC_OPERATE op)
 672:C:/Users/²Ü¼ÒºÀ/.iotlink/sdk/IoT_LINK/iot_link/network/lwm2m/wakaama_lwm2m/port\object_access_control.c **** {
 673:C:/Users/²Ü¼ÒºÀ/.iotlink/sdk/IoT_LINK/iot_link/network/lwm2m/wakaama_lwm2m/port\object_access_control.c ****     if (LWM2M_URI_IS_SET_RESOURCE(uri))
 674:C:/Users/²Ü¼ÒºÀ/.iotlink/sdk/IoT_LINK/iot_link/network/lwm2m/wakaama_lwm2m/port\object_access_control.c ****     {
 675:C:/Users/²Ü¼ÒºÀ/.iotlink/sdk/IoT_LINK/iot_link/network/lwm2m/wakaama_lwm2m/port\object_access_control.c ****         return COAP_NO_ERROR;
 676:C:/Users/²Ü¼ÒºÀ/.iotlink/sdk/IoT_LINK/iot_link/network/lwm2m/wakaama_lwm2m/port\object_access_control.c ****     }
 677:C:/Users/²Ü¼ÒºÀ/.iotlink/sdk/IoT_LINK/iot_link/network/lwm2m/wakaama_lwm2m/port\object_access_control.c ****     else if (LWM2M_URI_IS_SET_INSTANCE(uri))
 678:C:/Users/²Ü¼ÒºÀ/.iotlink/sdk/IoT_LINK/iot_link/network/lwm2m/wakaama_lwm2m/port\object_access_control.c ****     {
 679:C:/Users/²Ü¼ÒºÀ/.iotlink/sdk/IoT_LINK/iot_link/network/lwm2m/wakaama_lwm2m/port\object_access_control.c ****         if (OBJ_ACC_EXCUTE == op)
 680:C:/Users/²Ü¼ÒºÀ/.iotlink/sdk/IoT_LINK/iot_link/network/lwm2m/wakaama_lwm2m/port\object_access_control.c ****         {
 681:C:/Users/²Ü¼ÒºÀ/.iotlink/sdk/IoT_LINK/iot_link/network/lwm2m/wakaama_lwm2m/port\object_access_control.c ****             return COAP_405_METHOD_NOT_ALLOWED;
 682:C:/Users/²Ü¼ÒºÀ/.iotlink/sdk/IoT_LINK/iot_link/network/lwm2m/wakaama_lwm2m/port\object_access_control.c ****         }
 683:C:/Users/²Ü¼ÒºÀ/.iotlink/sdk/IoT_LINK/iot_link/network/lwm2m/wakaama_lwm2m/port\object_access_control.c ****         else
 684:C:/Users/²Ü¼ÒºÀ/.iotlink/sdk/IoT_LINK/iot_link/network/lwm2m/wakaama_lwm2m/port\object_access_control.c ****         {
 685:C:/Users/²Ü¼ÒºÀ/.iotlink/sdk/IoT_LINK/iot_link/network/lwm2m/wakaama_lwm2m/port\object_access_control.c ****             /*
 686:C:/Users/²Ü¼ÒºÀ/.iotlink/sdk/IoT_LINK/iot_link/network/lwm2m/wakaama_lwm2m/port\object_access_control.c ****              * For the write operation, check whether the resources
 687:C:/Users/²Ü¼ÒºÀ/.iotlink/sdk/IoT_LINK/iot_link/network/lwm2m/wakaama_lwm2m/port\object_access_control.c ****              * can be written or not, is in the write operation of
 688:C:/Users/²Ü¼ÒºÀ/.iotlink/sdk/IoT_LINK/iot_link/network/lwm2m/wakaama_lwm2m/port\object_access_control.c ****              * the specific object.
 689:C:/Users/²Ü¼ÒºÀ/.iotlink/sdk/IoT_LINK/iot_link/network/lwm2m/wakaama_lwm2m/port\object_access_control.c ****              */
 690:C:/Users/²Ü¼ÒºÀ/.iotlink/sdk/IoT_LINK/iot_link/network/lwm2m/wakaama_lwm2m/port\object_access_control.c ****             return COAP_NO_ERROR;
 691:C:/Users/²Ü¼ÒºÀ/.iotlink/sdk/IoT_LINK/iot_link/network/lwm2m/wakaama_lwm2m/port\object_access_control.c ****         }
 692:C:/Users/²Ü¼ÒºÀ/.iotlink/sdk/IoT_LINK/iot_link/network/lwm2m/wakaama_lwm2m/port\object_access_control.c ****     }
 693:C:/Users/²Ü¼ÒºÀ/.iotlink/sdk/IoT_LINK/iot_link/network/lwm2m/wakaama_lwm2m/port\object_access_control.c ****     else
 694:C:/Users/²Ü¼ÒºÀ/.iotlink/sdk/IoT_LINK/iot_link/network/lwm2m/wakaama_lwm2m/port\object_access_control.c ****     {
 695:C:/Users/²Ü¼ÒºÀ/.iotlink/sdk/IoT_LINK/iot_link/network/lwm2m/wakaama_lwm2m/port\object_access_control.c ****         if (OBJ_ACC_WRITE_ATTR == op || OBJ_ACC_CREATE == op)
 696:C:/Users/²Ü¼ÒºÀ/.iotlink/sdk/IoT_LINK/iot_link/network/lwm2m/wakaama_lwm2m/port\object_access_control.c ****         {
 697:C:/Users/²Ü¼ÒºÀ/.iotlink/sdk/IoT_LINK/iot_link/network/lwm2m/wakaama_lwm2m/port\object_access_control.c ****             return COAP_NO_ERROR;
 698:C:/Users/²Ü¼ÒºÀ/.iotlink/sdk/IoT_LINK/iot_link/network/lwm2m/wakaama_lwm2m/port\object_access_control.c ****         }
 699:C:/Users/²Ü¼ÒºÀ/.iotlink/sdk/IoT_LINK/iot_link/network/lwm2m/wakaama_lwm2m/port\object_access_control.c ****         else if (OBJ_ACC_NOTIFY == op
ARM GAS  C:\Users\²Ü¼ÒºÀ\AppData\Local\Temp\cc4d6LXN.s 			page 47


 700:C:/Users/²Ü¼ÒºÀ/.iotlink/sdk/IoT_LINK/iot_link/network/lwm2m/wakaama_lwm2m/port\object_access_control.c ****                  || OBJ_ACC_READ == op || OBJ_ACC_OBSERVE == op)
 701:C:/Users/²Ü¼ÒºÀ/.iotlink/sdk/IoT_LINK/iot_link/network/lwm2m/wakaama_lwm2m/port\object_access_control.c ****         {
 702:C:/Users/²Ü¼ÒºÀ/.iotlink/sdk/IoT_LINK/iot_link/network/lwm2m/wakaama_lwm2m/port\object_access_control.c ****             /*
 703:C:/Users/²Ü¼ÒºÀ/.iotlink/sdk/IoT_LINK/iot_link/network/lwm2m/wakaama_lwm2m/port\object_access_control.c ****              * We should do the auth check in object_read interface
 704:C:/Users/²Ü¼ÒºÀ/.iotlink/sdk/IoT_LINK/iot_link/network/lwm2m/wakaama_lwm2m/port\object_access_control.c ****              * and just ignore here.
 705:C:/Users/²Ü¼ÒºÀ/.iotlink/sdk/IoT_LINK/iot_link/network/lwm2m/wakaama_lwm2m/port\object_access_control.c ****              */
 706:C:/Users/²Ü¼ÒºÀ/.iotlink/sdk/IoT_LINK/iot_link/network/lwm2m/wakaama_lwm2m/port\object_access_control.c ****             return COAP_NO_ERROR;
 707:C:/Users/²Ü¼ÒºÀ/.iotlink/sdk/IoT_LINK/iot_link/network/lwm2m/wakaama_lwm2m/port\object_access_control.c ****         }
 708:C:/Users/²Ü¼ÒºÀ/.iotlink/sdk/IoT_LINK/iot_link/network/lwm2m/wakaama_lwm2m/port\object_access_control.c ****         else
 709:C:/Users/²Ü¼ÒºÀ/.iotlink/sdk/IoT_LINK/iot_link/network/lwm2m/wakaama_lwm2m/port\object_access_control.c ****         {
 710:C:/Users/²Ü¼ÒºÀ/.iotlink/sdk/IoT_LINK/iot_link/network/lwm2m/wakaama_lwm2m/port\object_access_control.c ****             return COAP_405_METHOD_NOT_ALLOWED;
 711:C:/Users/²Ü¼ÒºÀ/.iotlink/sdk/IoT_LINK/iot_link/network/lwm2m/wakaama_lwm2m/port\object_access_control.c ****         }
 712:C:/Users/²Ü¼ÒºÀ/.iotlink/sdk/IoT_LINK/iot_link/network/lwm2m/wakaama_lwm2m/port\object_access_control.c ****     }
 713:C:/Users/²Ü¼ÒºÀ/.iotlink/sdk/IoT_LINK/iot_link/network/lwm2m/wakaama_lwm2m/port\object_access_control.c **** }
 714:C:/Users/²Ü¼ÒºÀ/.iotlink/sdk/IoT_LINK/iot_link/network/lwm2m/wakaama_lwm2m/port\object_access_control.c **** 
 715:C:/Users/²Ü¼ÒºÀ/.iotlink/sdk/IoT_LINK/iot_link/network/lwm2m/wakaama_lwm2m/port\object_access_control.c **** static int prv_get_srv_cnt(lwm2m_server_t *serverP)
 716:C:/Users/²Ü¼ÒºÀ/.iotlink/sdk/IoT_LINK/iot_link/network/lwm2m/wakaama_lwm2m/port\object_access_control.c **** {
 717:C:/Users/²Ü¼ÒºÀ/.iotlink/sdk/IoT_LINK/iot_link/network/lwm2m/wakaama_lwm2m/port\object_access_control.c ****     lwm2m_server_t *itor = serverP;
 718:C:/Users/²Ü¼ÒºÀ/.iotlink/sdk/IoT_LINK/iot_link/network/lwm2m/wakaama_lwm2m/port\object_access_control.c ****     int cnt = 0;
 719:C:/Users/²Ü¼ÒºÀ/.iotlink/sdk/IoT_LINK/iot_link/network/lwm2m/wakaama_lwm2m/port\object_access_control.c **** 
 720:C:/Users/²Ü¼ÒºÀ/.iotlink/sdk/IoT_LINK/iot_link/network/lwm2m/wakaama_lwm2m/port\object_access_control.c ****     while (itor)
 721:C:/Users/²Ü¼ÒºÀ/.iotlink/sdk/IoT_LINK/iot_link/network/lwm2m/wakaama_lwm2m/port\object_access_control.c ****     {
 722:C:/Users/²Ü¼ÒºÀ/.iotlink/sdk/IoT_LINK/iot_link/network/lwm2m/wakaama_lwm2m/port\object_access_control.c ****         if (!itor->dirty)
 723:C:/Users/²Ü¼ÒºÀ/.iotlink/sdk/IoT_LINK/iot_link/network/lwm2m/wakaama_lwm2m/port\object_access_control.c ****         {
 724:C:/Users/²Ü¼ÒºÀ/.iotlink/sdk/IoT_LINK/iot_link/network/lwm2m/wakaama_lwm2m/port\object_access_control.c ****             ++cnt;
 725:C:/Users/²Ü¼ÒºÀ/.iotlink/sdk/IoT_LINK/iot_link/network/lwm2m/wakaama_lwm2m/port\object_access_control.c ****         }
 726:C:/Users/²Ü¼ÒºÀ/.iotlink/sdk/IoT_LINK/iot_link/network/lwm2m/wakaama_lwm2m/port\object_access_control.c **** 
 727:C:/Users/²Ü¼ÒºÀ/.iotlink/sdk/IoT_LINK/iot_link/network/lwm2m/wakaama_lwm2m/port\object_access_control.c ****         itor = itor->next;
 728:C:/Users/²Ü¼ÒºÀ/.iotlink/sdk/IoT_LINK/iot_link/network/lwm2m/wakaama_lwm2m/port\object_access_control.c ****     }
 729:C:/Users/²Ü¼ÒºÀ/.iotlink/sdk/IoT_LINK/iot_link/network/lwm2m/wakaama_lwm2m/port\object_access_control.c **** 
 730:C:/Users/²Ü¼ÒºÀ/.iotlink/sdk/IoT_LINK/iot_link/network/lwm2m/wakaama_lwm2m/port\object_access_control.c ****     return cnt;
 731:C:/Users/²Ü¼ÒºÀ/.iotlink/sdk/IoT_LINK/iot_link/network/lwm2m/wakaama_lwm2m/port\object_access_control.c **** }
 732:C:/Users/²Ü¼ÒºÀ/.iotlink/sdk/IoT_LINK/iot_link/network/lwm2m/wakaama_lwm2m/port\object_access_control.c **** 
 733:C:/Users/²Ü¼ÒºÀ/.iotlink/sdk/IoT_LINK/iot_link/network/lwm2m/wakaama_lwm2m/port\object_access_control.c **** uint8_t acc_auth_operate(lwm2m_context_t *contextP, lwm2m_uri_t *uri,
 734:C:/Users/²Ü¼ÒºÀ/.iotlink/sdk/IoT_LINK/iot_link/network/lwm2m/wakaama_lwm2m/port\object_access_control.c ****                          OBJ_ACC_OPERATE op, uint16_t serverId)
 735:C:/Users/²Ü¼ÒºÀ/.iotlink/sdk/IoT_LINK/iot_link/network/lwm2m/wakaama_lwm2m/port\object_access_control.c **** {
 1518              		.loc 1 735 1 is_stmt 1 view -0
 1519              		.cfi_startproc
 1520              		@ args = 0, pretend = 0, frame = 0
 1521              		@ frame_needed = 0, uses_anonymous_args = 0
 736:C:/Users/²Ü¼ÒºÀ/.iotlink/sdk/IoT_LINK/iot_link/network/lwm2m/wakaama_lwm2m/port\object_access_control.c ****     uint8_t ret;
 1522              		.loc 1 736 5 view .LVU453
 737:C:/Users/²Ü¼ÒºÀ/.iotlink/sdk/IoT_LINK/iot_link/network/lwm2m/wakaama_lwm2m/port\object_access_control.c ****     lwm2m_object_t *accCtrlObjP;
 1523              		.loc 1 737 5 view .LVU454
 738:C:/Users/²Ü¼ÒºÀ/.iotlink/sdk/IoT_LINK/iot_link/network/lwm2m/wakaama_lwm2m/port\object_access_control.c ****     acc_ctrl_oi_t *accCtrlOiP;
 1524              		.loc 1 738 5 view .LVU455
 739:C:/Users/²Ü¼ÒºÀ/.iotlink/sdk/IoT_LINK/iot_link/network/lwm2m/wakaama_lwm2m/port\object_access_control.c **** 
 740:C:/Users/²Ü¼ÒºÀ/.iotlink/sdk/IoT_LINK/iot_link/network/lwm2m/wakaama_lwm2m/port\object_access_control.c ****     if (prv_get_srv_cnt(contextP->serverList) <= 1)
 1525              		.loc 1 740 5 view .LVU456
 735:C:/Users/²Ü¼ÒºÀ/.iotlink/sdk/IoT_LINK/iot_link/network/lwm2m/wakaama_lwm2m/port\object_access_control.c ****     uint8_t ret;
 1526              		.loc 1 735 1 is_stmt 0 view .LVU457
 1527 0000 73B5     		push	{r0, r1, r4, r5, r6, lr}
 1528              	.LCFI27:
 1529              		.cfi_def_cfa_offset 24
 1530              		.cfi_offset 4, -16
 1531              		.cfi_offset 5, -12
 1532              		.cfi_offset 6, -8
ARM GAS  C:\Users\²Ü¼ÒºÀ\AppData\Local\Temp\cc4d6LXN.s 			page 48


 1533              		.cfi_offset 14, -4
 735:C:/Users/²Ü¼ÒºÀ/.iotlink/sdk/IoT_LINK/iot_link/network/lwm2m/wakaama_lwm2m/port\object_access_control.c ****     uint8_t ret;
 1534              		.loc 1 735 1 view .LVU458
 1535 0002 1E46     		mov	r6, r3
 1536              		.loc 1 740 9 view .LVU459
 1537 0004 4369     		ldr	r3, [r0, #20]
 1538              	.LVL146:
 1539              	.LBB52:
 1540              	.LBI52:
 715:C:/Users/²Ü¼ÒºÀ/.iotlink/sdk/IoT_LINK/iot_link/network/lwm2m/wakaama_lwm2m/port\object_access_control.c **** {
 1541              		.loc 1 715 12 is_stmt 1 view .LVU460
 1542              	.LBB53:
 717:C:/Users/²Ü¼ÒºÀ/.iotlink/sdk/IoT_LINK/iot_link/network/lwm2m/wakaama_lwm2m/port\object_access_control.c ****     int cnt = 0;
 1543              		.loc 1 717 5 view .LVU461
 718:C:/Users/²Ü¼ÒºÀ/.iotlink/sdk/IoT_LINK/iot_link/network/lwm2m/wakaama_lwm2m/port\object_access_control.c **** 
 1544              		.loc 1 718 5 view .LVU462
 720:C:/Users/²Ü¼ÒºÀ/.iotlink/sdk/IoT_LINK/iot_link/network/lwm2m/wakaama_lwm2m/port\object_access_control.c ****     {
 1545              		.loc 1 720 5 view .LVU463
 1546              	.LBE53:
 1547              	.LBE52:
 735:C:/Users/²Ü¼ÒºÀ/.iotlink/sdk/IoT_LINK/iot_link/network/lwm2m/wakaama_lwm2m/port\object_access_control.c ****     uint8_t ret;
 1548              		.loc 1 735 1 is_stmt 0 view .LVU464
 1549 0006 1446     		mov	r4, r2
 1550 0008 0D46     		mov	r5, r1
 1551              	.LBB56:
 1552              	.LBB54:
 718:C:/Users/²Ü¼ÒºÀ/.iotlink/sdk/IoT_LINK/iot_link/network/lwm2m/wakaama_lwm2m/port\object_access_control.c **** 
 1553              		.loc 1 718 9 view .LVU465
 1554 000a 0022     		movs	r2, #0
 1555              	.LVL147:
 1556              	.L107:
 720:C:/Users/²Ü¼ÒºÀ/.iotlink/sdk/IoT_LINK/iot_link/network/lwm2m/wakaama_lwm2m/port\object_access_control.c ****     {
 1557              		.loc 1 720 11 is_stmt 1 view .LVU466
 1558 000c 53B9     		cbnz	r3, .L109
 730:C:/Users/²Ü¼ÒºÀ/.iotlink/sdk/IoT_LINK/iot_link/network/lwm2m/wakaama_lwm2m/port\object_access_control.c **** }
 1559              		.loc 1 730 5 view .LVU467
 1560              	.LVL148:
 730:C:/Users/²Ü¼ÒºÀ/.iotlink/sdk/IoT_LINK/iot_link/network/lwm2m/wakaama_lwm2m/port\object_access_control.c **** }
 1561              		.loc 1 730 5 is_stmt 0 view .LVU468
 1562              	.LBE54:
 1563              	.LBE56:
 1564              		.loc 1 740 8 view .LVU469
 1565 000e 012A     		cmp	r2, #1
 1566 0010 30DD     		ble	.L110
 741:C:/Users/²Ü¼ÒºÀ/.iotlink/sdk/IoT_LINK/iot_link/network/lwm2m/wakaama_lwm2m/port\object_access_control.c ****     {
 742:C:/Users/²Ü¼ÒºÀ/.iotlink/sdk/IoT_LINK/iot_link/network/lwm2m/wakaama_lwm2m/port\object_access_control.c ****         return COAP_NO_ERROR;
 743:C:/Users/²Ü¼ÒºÀ/.iotlink/sdk/IoT_LINK/iot_link/network/lwm2m/wakaama_lwm2m/port\object_access_control.c ****     }
 744:C:/Users/²Ü¼ÒºÀ/.iotlink/sdk/IoT_LINK/iot_link/network/lwm2m/wakaama_lwm2m/port\object_access_control.c **** 
 745:C:/Users/²Ü¼ÒºÀ/.iotlink/sdk/IoT_LINK/iot_link/network/lwm2m/wakaama_lwm2m/port\object_access_control.c ****     if (0 == serverId)
 1567              		.loc 1 745 5 is_stmt 1 view .LVU470
 1568              		.loc 1 745 8 is_stmt 0 view .LVU471
 1569 0012 7EB3     		cbz	r6, .L110
 746:C:/Users/²Ü¼ÒºÀ/.iotlink/sdk/IoT_LINK/iot_link/network/lwm2m/wakaama_lwm2m/port\object_access_control.c ****     {
 747:C:/Users/²Ü¼ÒºÀ/.iotlink/sdk/IoT_LINK/iot_link/network/lwm2m/wakaama_lwm2m/port\object_access_control.c ****         return COAP_NO_ERROR;
 748:C:/Users/²Ü¼ÒºÀ/.iotlink/sdk/IoT_LINK/iot_link/network/lwm2m/wakaama_lwm2m/port\object_access_control.c ****     }
 749:C:/Users/²Ü¼ÒºÀ/.iotlink/sdk/IoT_LINK/iot_link/network/lwm2m/wakaama_lwm2m/port\object_access_control.c **** 
 750:C:/Users/²Ü¼ÒºÀ/.iotlink/sdk/IoT_LINK/iot_link/network/lwm2m/wakaama_lwm2m/port\object_access_control.c ****     accCtrlObjP = (lwm2m_object_t *)LWM2M_LIST_FIND(contextP->objectList, LWM2M_ACL_OBJECT_ID);
ARM GAS  C:\Users\²Ü¼ÒºÀ\AppData\Local\Temp\cc4d6LXN.s 			page 49


 1570              		.loc 1 750 5 is_stmt 1 view .LVU472
 1571              		.loc 1 750 37 is_stmt 0 view .LVU473
 1572 0014 8069     		ldr	r0, [r0, #24]
 1573              	.LVL149:
 1574              		.loc 1 750 37 view .LVU474
 1575 0016 0221     		movs	r1, #2
 1576 0018 FFF7FEFF 		bl	lwm2m_list_find
 1577              	.LVL150:
 751:C:/Users/²Ü¼ÒºÀ/.iotlink/sdk/IoT_LINK/iot_link/network/lwm2m/wakaama_lwm2m/port\object_access_control.c **** 
 752:C:/Users/²Ü¼ÒºÀ/.iotlink/sdk/IoT_LINK/iot_link/network/lwm2m/wakaama_lwm2m/port\object_access_control.c ****     if (NULL == accCtrlObjP)
 1578              		.loc 1 752 5 is_stmt 1 view .LVU475
 1579              		.loc 1 752 8 is_stmt 0 view .LVU476
 1580 001c 40B9     		cbnz	r0, .L111
 1581              	.LVL151:
 1582              	.L113:
 753:C:/Users/²Ü¼ÒºÀ/.iotlink/sdk/IoT_LINK/iot_link/network/lwm2m/wakaama_lwm2m/port\object_access_control.c ****     {
 754:C:/Users/²Ü¼ÒºÀ/.iotlink/sdk/IoT_LINK/iot_link/network/lwm2m/wakaama_lwm2m/port\object_access_control.c ****         return COAP_401_UNAUTHORIZED;
 1583              		.loc 1 754 16 view .LVU477
 1584 001e 8120     		movs	r0, #129
 1585              	.L112:
 755:C:/Users/²Ü¼ÒºÀ/.iotlink/sdk/IoT_LINK/iot_link/network/lwm2m/wakaama_lwm2m/port\object_access_control.c ****     }
 756:C:/Users/²Ü¼ÒºÀ/.iotlink/sdk/IoT_LINK/iot_link/network/lwm2m/wakaama_lwm2m/port\object_access_control.c **** 
 757:C:/Users/²Ü¼ÒºÀ/.iotlink/sdk/IoT_LINK/iot_link/network/lwm2m/wakaama_lwm2m/port\object_access_control.c ****     accCtrlOiP = (acc_ctrl_oi_t *)(accCtrlObjP->instanceList);
 758:C:/Users/²Ü¼ÒºÀ/.iotlink/sdk/IoT_LINK/iot_link/network/lwm2m/wakaama_lwm2m/port\object_access_control.c **** 
 759:C:/Users/²Ü¼ÒºÀ/.iotlink/sdk/IoT_LINK/iot_link/network/lwm2m/wakaama_lwm2m/port\object_access_control.c ****     if (NULL == accCtrlOiP)
 760:C:/Users/²Ü¼ÒºÀ/.iotlink/sdk/IoT_LINK/iot_link/network/lwm2m/wakaama_lwm2m/port\object_access_control.c ****     {
 761:C:/Users/²Ü¼ÒºÀ/.iotlink/sdk/IoT_LINK/iot_link/network/lwm2m/wakaama_lwm2m/port\object_access_control.c ****         return COAP_401_UNAUTHORIZED;
 762:C:/Users/²Ü¼ÒºÀ/.iotlink/sdk/IoT_LINK/iot_link/network/lwm2m/wakaama_lwm2m/port\object_access_control.c ****     }
 763:C:/Users/²Ü¼ÒºÀ/.iotlink/sdk/IoT_LINK/iot_link/network/lwm2m/wakaama_lwm2m/port\object_access_control.c **** 
 764:C:/Users/²Ü¼ÒºÀ/.iotlink/sdk/IoT_LINK/iot_link/network/lwm2m/wakaama_lwm2m/port\object_access_control.c ****     if (COAP_NO_ERROR != (ret = prv_pre_auth_check(accCtrlOiP, uri, op, serverId)))
 765:C:/Users/²Ü¼ÒºÀ/.iotlink/sdk/IoT_LINK/iot_link/network/lwm2m/wakaama_lwm2m/port\object_access_control.c ****     {
 766:C:/Users/²Ü¼ÒºÀ/.iotlink/sdk/IoT_LINK/iot_link/network/lwm2m/wakaama_lwm2m/port\object_access_control.c ****         return ret;
 767:C:/Users/²Ü¼ÒºÀ/.iotlink/sdk/IoT_LINK/iot_link/network/lwm2m/wakaama_lwm2m/port\object_access_control.c ****     }
 768:C:/Users/²Ü¼ÒºÀ/.iotlink/sdk/IoT_LINK/iot_link/network/lwm2m/wakaama_lwm2m/port\object_access_control.c **** 
 769:C:/Users/²Ü¼ÒºÀ/.iotlink/sdk/IoT_LINK/iot_link/network/lwm2m/wakaama_lwm2m/port\object_access_control.c ****     if (COAP_NO_ERROR != (ret = prv_post_action_check(uri, op)))
 770:C:/Users/²Ü¼ÒºÀ/.iotlink/sdk/IoT_LINK/iot_link/network/lwm2m/wakaama_lwm2m/port\object_access_control.c ****     {
 771:C:/Users/²Ü¼ÒºÀ/.iotlink/sdk/IoT_LINK/iot_link/network/lwm2m/wakaama_lwm2m/port\object_access_control.c ****         return ret;
 772:C:/Users/²Ü¼ÒºÀ/.iotlink/sdk/IoT_LINK/iot_link/network/lwm2m/wakaama_lwm2m/port\object_access_control.c ****     }
 773:C:/Users/²Ü¼ÒºÀ/.iotlink/sdk/IoT_LINK/iot_link/network/lwm2m/wakaama_lwm2m/port\object_access_control.c **** 
 774:C:/Users/²Ü¼ÒºÀ/.iotlink/sdk/IoT_LINK/iot_link/network/lwm2m/wakaama_lwm2m/port\object_access_control.c ****     return COAP_NO_ERROR;
 775:C:/Users/²Ü¼ÒºÀ/.iotlink/sdk/IoT_LINK/iot_link/network/lwm2m/wakaama_lwm2m/port\object_access_control.c **** }
 1586              		.loc 1 775 1 view .LVU478
 1587 0020 02B0     		add	sp, sp, #8
 1588              	.LCFI28:
 1589              		.cfi_remember_state
 1590              		.cfi_def_cfa_offset 16
 1591              		@ sp needed
 1592 0022 70BD     		pop	{r4, r5, r6, pc}
 1593              	.LVL152:
 1594              	.L109:
 1595              	.LCFI29:
 1596              		.cfi_restore_state
 1597              	.LBB57:
 1598              	.LBB55:
 722:C:/Users/²Ü¼ÒºÀ/.iotlink/sdk/IoT_LINK/iot_link/network/lwm2m/wakaama_lwm2m/port\object_access_control.c ****         {
 1599              		.loc 1 722 9 is_stmt 1 view .LVU479
 722:C:/Users/²Ü¼ÒºÀ/.iotlink/sdk/IoT_LINK/iot_link/network/lwm2m/wakaama_lwm2m/port\object_access_control.c ****         {
ARM GAS  C:\Users\²Ü¼ÒºÀ\AppData\Local\Temp\cc4d6LXN.s 			page 50


 1600              		.loc 1 722 12 is_stmt 0 view .LVU480
 1601 0024 93F82810 		ldrb	r1, [r3, #40]	@ zero_extendqisi2
 1602 0028 01B9     		cbnz	r1, .L108
 724:C:/Users/²Ü¼ÒºÀ/.iotlink/sdk/IoT_LINK/iot_link/network/lwm2m/wakaama_lwm2m/port\object_access_control.c ****         }
 1603              		.loc 1 724 13 is_stmt 1 view .LVU481
 1604 002a 0132     		adds	r2, r2, #1
 1605              	.LVL153:
 1606              	.L108:
 727:C:/Users/²Ü¼ÒºÀ/.iotlink/sdk/IoT_LINK/iot_link/network/lwm2m/wakaama_lwm2m/port\object_access_control.c ****     }
 1607              		.loc 1 727 9 view .LVU482
 727:C:/Users/²Ü¼ÒºÀ/.iotlink/sdk/IoT_LINK/iot_link/network/lwm2m/wakaama_lwm2m/port\object_access_control.c ****     }
 1608              		.loc 1 727 14 is_stmt 0 view .LVU483
 1609 002c 1B68     		ldr	r3, [r3]
 1610              	.LVL154:
 727:C:/Users/²Ü¼ÒºÀ/.iotlink/sdk/IoT_LINK/iot_link/network/lwm2m/wakaama_lwm2m/port\object_access_control.c ****     }
 1611              		.loc 1 727 14 view .LVU484
 1612 002e EDE7     		b	.L107
 1613              	.LVL155:
 1614              	.L111:
 727:C:/Users/²Ü¼ÒºÀ/.iotlink/sdk/IoT_LINK/iot_link/network/lwm2m/wakaama_lwm2m/port\object_access_control.c ****     }
 1615              		.loc 1 727 14 view .LVU485
 1616              	.LBE55:
 1617              	.LBE57:
 757:C:/Users/²Ü¼ÒºÀ/.iotlink/sdk/IoT_LINK/iot_link/network/lwm2m/wakaama_lwm2m/port\object_access_control.c **** 
 1618              		.loc 1 757 5 is_stmt 1 view .LVU486
 757:C:/Users/²Ü¼ÒºÀ/.iotlink/sdk/IoT_LINK/iot_link/network/lwm2m/wakaama_lwm2m/port\object_access_control.c **** 
 1619              		.loc 1 757 16 is_stmt 0 view .LVU487
 1620 0030 8068     		ldr	r0, [r0, #8]
 1621              	.LVL156:
 759:C:/Users/²Ü¼ÒºÀ/.iotlink/sdk/IoT_LINK/iot_link/network/lwm2m/wakaama_lwm2m/port\object_access_control.c ****     {
 1622              		.loc 1 759 5 is_stmt 1 view .LVU488
 759:C:/Users/²Ü¼ÒºÀ/.iotlink/sdk/IoT_LINK/iot_link/network/lwm2m/wakaama_lwm2m/port\object_access_control.c ****     {
 1623              		.loc 1 759 8 is_stmt 0 view .LVU489
 1624 0032 0028     		cmp	r0, #0
 1625 0034 F3D0     		beq	.L113
 764:C:/Users/²Ü¼ÒºÀ/.iotlink/sdk/IoT_LINK/iot_link/network/lwm2m/wakaama_lwm2m/port\object_access_control.c ****     {
 1626              		.loc 1 764 5 is_stmt 1 view .LVU490
 1627              	.LVL157:
 1628              	.LBB58:
 1629              	.LBI58:
 637:C:/Users/²Ü¼ÒºÀ/.iotlink/sdk/IoT_LINK/iot_link/network/lwm2m/wakaama_lwm2m/port\object_access_control.c ****                                   OBJ_ACC_OPERATE op, uint16_t serverId)
 1630              		.loc 1 637 16 view .LVU491
 1631              	.LBB59:
 640:C:/Users/²Ü¼ÒºÀ/.iotlink/sdk/IoT_LINK/iot_link/network/lwm2m/wakaama_lwm2m/port\object_access_control.c ****     {
 1632              		.loc 1 640 5 view .LVU492
 640:C:/Users/²Ü¼ÒºÀ/.iotlink/sdk/IoT_LINK/iot_link/network/lwm2m/wakaama_lwm2m/port\object_access_control.c ****     {
 1633              		.loc 1 640 8 is_stmt 0 view .LVU493
 1634 0036 042C     		cmp	r4, #4
 1635 0038 08D1     		bne	.L114
 642:C:/Users/²Ü¼ÒºÀ/.iotlink/sdk/IoT_LINK/iot_link/network/lwm2m/wakaama_lwm2m/port\object_access_control.c ****         {
 1636              		.loc 1 642 9 is_stmt 1 view .LVU494
 642:C:/Users/²Ü¼ÒºÀ/.iotlink/sdk/IoT_LINK/iot_link/network/lwm2m/wakaama_lwm2m/port\object_access_control.c ****         {
 1637              		.loc 1 642 14 is_stmt 0 view .LVU495
 1638 003a 6988     		ldrh	r1, [r5, #2]
 1639 003c 0094     		str	r4, [sp]
 1640 003e 3346     		mov	r3, r6
 1641 0040 4FF6FF72 		movw	r2, #65535
ARM GAS  C:\Users\²Ü¼ÒºÀ\AppData\Local\Temp\cc4d6LXN.s 			page 51


 1642              	.L144:
 661:C:/Users/²Ü¼ÒºÀ/.iotlink/sdk/IoT_LINK/iot_link/network/lwm2m/wakaama_lwm2m/port\object_access_control.c ****             {
 1643              		.loc 1 661 18 view .LVU496
 1644 0044 FFF7FEFF 		bl	prv_check_instance_auth
 1645              	.LVL158:
 661:C:/Users/²Ü¼ÒºÀ/.iotlink/sdk/IoT_LINK/iot_link/network/lwm2m/wakaama_lwm2m/port\object_access_control.c ****             {
 1646              		.loc 1 661 16 view .LVU497
 1647 0048 88B9     		cbnz	r0, .L116
 1648 004a E8E7     		b	.L113
 1649              	.LVL159:
 1650              	.L114:
 649:C:/Users/²Ü¼ÒºÀ/.iotlink/sdk/IoT_LINK/iot_link/network/lwm2m/wakaama_lwm2m/port\object_access_control.c ****     {
 1651              		.loc 1 649 10 is_stmt 1 view .LVU498
 649:C:/Users/²Ü¼ÒºÀ/.iotlink/sdk/IoT_LINK/iot_link/network/lwm2m/wakaama_lwm2m/port\object_access_control.c ****     {
 1652              		.loc 1 649 13 is_stmt 0 view .LVU499
 1653 004c 052C     		cmp	r4, #5
 1654 004e 0ED0     		beq	.L116
 653:C:/Users/²Ü¼ÒºÀ/.iotlink/sdk/IoT_LINK/iot_link/network/lwm2m/wakaama_lwm2m/port\object_access_control.c ****     {
 1655              		.loc 1 653 10 is_stmt 1 view .LVU500
 653:C:/Users/²Ü¼ÒºÀ/.iotlink/sdk/IoT_LINK/iot_link/network/lwm2m/wakaama_lwm2m/port\object_access_control.c ****     {
 1656              		.loc 1 653 40 is_stmt 0 view .LVU501
 1657 0050 6988     		ldrh	r1, [r5, #2]
 1658 0052 2B78     		ldrb	r3, [r5]	@ zero_extendqisi2
 653:C:/Users/²Ü¼ÒºÀ/.iotlink/sdk/IoT_LINK/iot_link/network/lwm2m/wakaama_lwm2m/port\object_access_control.c ****     {
 1659              		.loc 1 653 13 view .LVU502
 1660 0054 0229     		cmp	r1, #2
 1661 0056 03F00203 		and	r3, r3, #2
 1662 005a 14D1     		bne	.L117
 655:C:/Users/²Ü¼ÒºÀ/.iotlink/sdk/IoT_LINK/iot_link/network/lwm2m/wakaama_lwm2m/port\object_access_control.c ****     }
 1663              		.loc 1 655 9 is_stmt 1 view .LVU503
 1664              	.LVL160:
 1665              	.LBB60:
 1666              	.LBI60:
 601:C:/Users/²Ü¼ÒºÀ/.iotlink/sdk/IoT_LINK/iot_link/network/lwm2m/wakaama_lwm2m/port\object_access_control.c ****                                        OBJ_ACC_OPERATE op, uint16_t serverId)
 1667              		.loc 1 601 16 view .LVU504
 1668              	.LBB61:
 604:C:/Users/²Ü¼ÒºÀ/.iotlink/sdk/IoT_LINK/iot_link/network/lwm2m/wakaama_lwm2m/port\object_access_control.c **** 
 1669              		.loc 1 604 5 view .LVU505
 606:C:/Users/²Ü¼ÒºÀ/.iotlink/sdk/IoT_LINK/iot_link/network/lwm2m/wakaama_lwm2m/port\object_access_control.c ****     {
 1670              		.loc 1 606 5 view .LVU506
 606:C:/Users/²Ü¼ÒºÀ/.iotlink/sdk/IoT_LINK/iot_link/network/lwm2m/wakaama_lwm2m/port\object_access_control.c ****     {
 1671              		.loc 1 606 8 is_stmt 0 view .LVU507
 1672 005c 63B1     		cbz	r3, .L118
 608:C:/Users/²Ü¼ÒºÀ/.iotlink/sdk/IoT_LINK/iot_link/network/lwm2m/wakaama_lwm2m/port\object_access_control.c **** 
 1673              		.loc 1 608 9 is_stmt 1 view .LVU508
 608:C:/Users/²Ü¼ÒºÀ/.iotlink/sdk/IoT_LINK/iot_link/network/lwm2m/wakaama_lwm2m/port\object_access_control.c **** 
 1674              		.loc 1 608 36 is_stmt 0 view .LVU509
 1675 005e A988     		ldrh	r1, [r5, #4]
 1676 0060 FFF7FEFF 		bl	lwm2m_list_find
 1677              	.LVL161:
 610:C:/Users/²Ü¼ÒºÀ/.iotlink/sdk/IoT_LINK/iot_link/network/lwm2m/wakaama_lwm2m/port\object_access_control.c ****         {
 1678              		.loc 1 610 9 is_stmt 1 view .LVU510
 610:C:/Users/²Ü¼ÒºÀ/.iotlink/sdk/IoT_LINK/iot_link/network/lwm2m/wakaama_lwm2m/port\object_access_control.c ****         {
 1679              		.loc 1 610 12 is_stmt 0 view .LVU511
 1680 0064 0028     		cmp	r0, #0
 1681 0066 DAD0     		beq	.L113
 610:C:/Users/²Ü¼ÒºÀ/.iotlink/sdk/IoT_LINK/iot_link/network/lwm2m/wakaama_lwm2m/port\object_access_control.c ****         {
ARM GAS  C:\Users\²Ü¼ÒºÀ\AppData\Local\Temp\cc4d6LXN.s 			page 52


 1682              		.loc 1 610 29 view .LVU512
 1683 0068 4389     		ldrh	r3, [r0, #10]
 1684 006a B342     		cmp	r3, r6
 1685 006c D7D1     		bne	.L113
 1686              	.LVL162:
 1687              	.L116:
 610:C:/Users/²Ü¼ÒºÀ/.iotlink/sdk/IoT_LINK/iot_link/network/lwm2m/wakaama_lwm2m/port\object_access_control.c ****         {
 1688              		.loc 1 610 29 view .LVU513
 1689              	.LBE61:
 1690              	.LBE60:
 1691              	.LBE59:
 1692              	.LBE58:
 769:C:/Users/²Ü¼ÒºÀ/.iotlink/sdk/IoT_LINK/iot_link/network/lwm2m/wakaama_lwm2m/port\object_access_control.c ****     {
 1693              		.loc 1 769 5 is_stmt 1 view .LVU514
 769:C:/Users/²Ü¼ÒºÀ/.iotlink/sdk/IoT_LINK/iot_link/network/lwm2m/wakaama_lwm2m/port\object_access_control.c ****     {
 1694              		.loc 1 769 33 is_stmt 0 view .LVU515
 1695 006e 2B78     		ldrb	r3, [r5]	@ zero_extendqisi2
 1696              	.LVL163:
 1697              	.LBB65:
 1698              	.LBI65:
 671:C:/Users/²Ü¼ÒºÀ/.iotlink/sdk/IoT_LINK/iot_link/network/lwm2m/wakaama_lwm2m/port\object_access_control.c **** {
 1699              		.loc 1 671 16 is_stmt 1 view .LVU516
 1700              	.LBB66:
 673:C:/Users/²Ü¼ÒºÀ/.iotlink/sdk/IoT_LINK/iot_link/network/lwm2m/wakaama_lwm2m/port\object_access_control.c ****     {
 1701              		.loc 1 673 5 view .LVU517
 673:C:/Users/²Ü¼ÒºÀ/.iotlink/sdk/IoT_LINK/iot_link/network/lwm2m/wakaama_lwm2m/port\object_access_control.c ****     {
 1702              		.loc 1 673 8 is_stmt 0 view .LVU518
 1703 0070 DA07     		lsls	r2, r3, #31
 1704 0072 0ED5     		bpl	.L143
 1705              	.LVL164:
 1706              	.L110:
 697:C:/Users/²Ü¼ÒºÀ/.iotlink/sdk/IoT_LINK/iot_link/network/lwm2m/wakaama_lwm2m/port\object_access_control.c ****         }
 1707              		.loc 1 697 20 view .LVU519
 1708 0074 0020     		movs	r0, #0
 1709 0076 D3E7     		b	.L112
 1710              	.LVL165:
 1711              	.L118:
 697:C:/Users/²Ü¼ÒºÀ/.iotlink/sdk/IoT_LINK/iot_link/network/lwm2m/wakaama_lwm2m/port\object_access_control.c ****         }
 1712              		.loc 1 697 20 view .LVU520
 1713              	.LBE66:
 1714              	.LBE65:
 1715              	.LBB68:
 1716              	.LBB64:
 1717              	.LBB63:
 1718              	.LBB62:
 625:C:/Users/²Ü¼ÒºÀ/.iotlink/sdk/IoT_LINK/iot_link/network/lwm2m/wakaama_lwm2m/port\object_access_control.c ****             {
 1719              		.loc 1 625 13 is_stmt 1 view .LVU521
 625:C:/Users/²Ü¼ÒºÀ/.iotlink/sdk/IoT_LINK/iot_link/network/lwm2m/wakaama_lwm2m/port\object_access_control.c ****             {
 1720              		.loc 1 625 16 is_stmt 0 view .LVU522
 1721 0078 4389     		ldrh	r3, [r0, #10]
 1722 007a B342     		cmp	r3, r6
 1723 007c CFD1     		bne	.L113
 630:C:/Users/²Ü¼ÒºÀ/.iotlink/sdk/IoT_LINK/iot_link/network/lwm2m/wakaama_lwm2m/port\object_access_control.c ****         }
 1724              		.loc 1 630 13 is_stmt 1 view .LVU523
 630:C:/Users/²Ü¼ÒºÀ/.iotlink/sdk/IoT_LINK/iot_link/network/lwm2m/wakaama_lwm2m/port\object_access_control.c ****         }
 1725              		.loc 1 630 21 is_stmt 0 view .LVU524
 1726 007e 0068     		ldr	r0, [r0]
ARM GAS  C:\Users\²Ü¼ÒºÀ\AppData\Local\Temp\cc4d6LXN.s 			page 53


 1727              	.LVL166:
 623:C:/Users/²Ü¼ÒºÀ/.iotlink/sdk/IoT_LINK/iot_link/network/lwm2m/wakaama_lwm2m/port\object_access_control.c ****         {
 1728              		.loc 1 623 15 is_stmt 1 view .LVU525
 1729 0080 0028     		cmp	r0, #0
 1730 0082 F9D1     		bne	.L118
 1731 0084 F3E7     		b	.L116
 1732              	.LVL167:
 1733              	.L117:
 623:C:/Users/²Ü¼ÒºÀ/.iotlink/sdk/IoT_LINK/iot_link/network/lwm2m/wakaama_lwm2m/port\object_access_control.c ****         {
 1734              		.loc 1 623 15 is_stmt 0 view .LVU526
 1735              	.LBE62:
 1736              	.LBE63:
 659:C:/Users/²Ü¼ÒºÀ/.iotlink/sdk/IoT_LINK/iot_link/network/lwm2m/wakaama_lwm2m/port\object_access_control.c ****         {
 1737              		.loc 1 659 9 is_stmt 1 view .LVU527
 659:C:/Users/²Ü¼ÒºÀ/.iotlink/sdk/IoT_LINK/iot_link/network/lwm2m/wakaama_lwm2m/port\object_access_control.c ****         {
 1738              		.loc 1 659 12 is_stmt 0 view .LVU528
 1739 0086 002B     		cmp	r3, #0
 1740 0088 F1D0     		beq	.L116
 661:C:/Users/²Ü¼ÒºÀ/.iotlink/sdk/IoT_LINK/iot_link/network/lwm2m/wakaama_lwm2m/port\object_access_control.c ****             {
 1741              		.loc 1 661 13 is_stmt 1 view .LVU529
 661:C:/Users/²Ü¼ÒºÀ/.iotlink/sdk/IoT_LINK/iot_link/network/lwm2m/wakaama_lwm2m/port\object_access_control.c ****             {
 1742              		.loc 1 661 18 is_stmt 0 view .LVU530
 1743 008a AA88     		ldrh	r2, [r5, #4]
 1744 008c 0094     		str	r4, [sp]
