ARM GAS  C:\Users\²Ü¼ÒºÀ\AppData\Local\Temp\ccFNKTFQ.s 			page 1


   1              		.cpu cortex-m4
   2              		.eabi_attribute 27, 1
   3              		.eabi_attribute 28, 1
   4              		.eabi_attribute 20, 1
   5              		.eabi_attribute 21, 1
   6              		.eabi_attribute 23, 3
   7              		.eabi_attribute 24, 1
   8              		.eabi_attribute 25, 1
   9              		.eabi_attribute 26, 1
  10              		.eabi_attribute 30, 4
  11              		.eabi_attribute 34, 1
  12              		.eabi_attribute 18, 4
  13              		.file	"object_server.c"
  14              		.text
  15              	.Ltext0:
  16              		.cfi_sections	.debug_frame
  17              		.section	.text.prv_server_delete,"ax",%progbits
  18              		.align	1
  19              		.arch armv7e-m
  20              		.syntax unified
  21              		.thumb
  22              		.thumb_func
  23              		.fpu fpv4-sp-d16
  25              	prv_server_delete:
  26              	.LVL0:
  27              	.LFB19:
  28              		.file 1 "C:/Users/\262\334\274\322\272\300/.iotlink/sdk/IoT_LINK/iot_link/network/lwm2m/wakaama_lw
   1:C:/Users/²Ü¼ÒºÀ/.iotlink/sdk/IoT_LINK/iot_link/network/lwm2m/wakaama_lwm2m/port\object_server.c **** /*----------------------------------------------------------------------------
   2:C:/Users/²Ü¼ÒºÀ/.iotlink/sdk/IoT_LINK/iot_link/network/lwm2m/wakaama_lwm2m/port\object_server.c ****  * Copyright (c) <2016-2018>, <Huawei Technologies Co., Ltd>
   3:C:/Users/²Ü¼ÒºÀ/.iotlink/sdk/IoT_LINK/iot_link/network/lwm2m/wakaama_lwm2m/port\object_server.c ****  * All rights reserved.
   4:C:/Users/²Ü¼ÒºÀ/.iotlink/sdk/IoT_LINK/iot_link/network/lwm2m/wakaama_lwm2m/port\object_server.c ****  * Redistribution and use in source and binary forms, with or without modification,
   5:C:/Users/²Ü¼ÒºÀ/.iotlink/sdk/IoT_LINK/iot_link/network/lwm2m/wakaama_lwm2m/port\object_server.c ****  * are permitted provided that the following conditions are met:
   6:C:/Users/²Ü¼ÒºÀ/.iotlink/sdk/IoT_LINK/iot_link/network/lwm2m/wakaama_lwm2m/port\object_server.c ****  * 1. Redistributions of source code must retain the above copyright notice, this list of
   7:C:/Users/²Ü¼ÒºÀ/.iotlink/sdk/IoT_LINK/iot_link/network/lwm2m/wakaama_lwm2m/port\object_server.c ****  * conditions and the following disclaimer.
   8:C:/Users/²Ü¼ÒºÀ/.iotlink/sdk/IoT_LINK/iot_link/network/lwm2m/wakaama_lwm2m/port\object_server.c ****  * 2. Redistributions in binary form must reproduce the above copyright notice, this list
   9:C:/Users/²Ü¼ÒºÀ/.iotlink/sdk/IoT_LINK/iot_link/network/lwm2m/wakaama_lwm2m/port\object_server.c ****  * of conditions and the following disclaimer in the documentation and/or other materials
  10:C:/Users/²Ü¼ÒºÀ/.iotlink/sdk/IoT_LINK/iot_link/network/lwm2m/wakaama_lwm2m/port\object_server.c ****  * provided with the distribution.
  11:C:/Users/²Ü¼ÒºÀ/.iotlink/sdk/IoT_LINK/iot_link/network/lwm2m/wakaama_lwm2m/port\object_server.c ****  * 3. Neither the name of the copyright holder nor the names of its contributors may be used
  12:C:/Users/²Ü¼ÒºÀ/.iotlink/sdk/IoT_LINK/iot_link/network/lwm2m/wakaama_lwm2m/port\object_server.c ****  * to endorse or promote products derived from this software without specific prior written
  13:C:/Users/²Ü¼ÒºÀ/.iotlink/sdk/IoT_LINK/iot_link/network/lwm2m/wakaama_lwm2m/port\object_server.c ****  * permission.
  14:C:/Users/²Ü¼ÒºÀ/.iotlink/sdk/IoT_LINK/iot_link/network/lwm2m/wakaama_lwm2m/port\object_server.c ****  * THIS SOFTWARE IS PROVIDED BY THE COPYRIGHT HOLDERS AND CONTRIBUTORS
  15:C:/Users/²Ü¼ÒºÀ/.iotlink/sdk/IoT_LINK/iot_link/network/lwm2m/wakaama_lwm2m/port\object_server.c ****  * "AS IS" AND ANY EXPRESS OR IMPLIED WARRANTIES, INCLUDING, BUT NOT LIMITED TO,
  16:C:/Users/²Ü¼ÒºÀ/.iotlink/sdk/IoT_LINK/iot_link/network/lwm2m/wakaama_lwm2m/port\object_server.c ****  * THE IMPLIED WARRANTIES OF MERCHANTABILITY AND FITNESS FOR A PARTICULAR
  17:C:/Users/²Ü¼ÒºÀ/.iotlink/sdk/IoT_LINK/iot_link/network/lwm2m/wakaama_lwm2m/port\object_server.c ****  * PURPOSE ARE DISCLAIMED. IN NO EVENT SHALL THE COPYRIGHT HOLDER OR
  18:C:/Users/²Ü¼ÒºÀ/.iotlink/sdk/IoT_LINK/iot_link/network/lwm2m/wakaama_lwm2m/port\object_server.c ****  * CONTRIBUTORS BE LIABLE FOR ANY DIRECT, INDIRECT, INCIDENTAL, SPECIAL,
  19:C:/Users/²Ü¼ÒºÀ/.iotlink/sdk/IoT_LINK/iot_link/network/lwm2m/wakaama_lwm2m/port\object_server.c ****  * EXEMPLARY, OR CONSEQUENTIAL DAMAGES (INCLUDING, BUT NOT LIMITED TO,
  20:C:/Users/²Ü¼ÒºÀ/.iotlink/sdk/IoT_LINK/iot_link/network/lwm2m/wakaama_lwm2m/port\object_server.c ****  * PROCUREMENT OF SUBSTITUTE GOODS OR SERVICES; LOSS OF USE, DATA, OR PROFITS;
  21:C:/Users/²Ü¼ÒºÀ/.iotlink/sdk/IoT_LINK/iot_link/network/lwm2m/wakaama_lwm2m/port\object_server.c ****  * OR BUSINESS INTERRUPTION) HOWEVER CAUSED AND ON ANY THEORY OF LIABILITY,
  22:C:/Users/²Ü¼ÒºÀ/.iotlink/sdk/IoT_LINK/iot_link/network/lwm2m/wakaama_lwm2m/port\object_server.c ****  * WHETHER IN CONTRACT, STRICT LIABILITY, OR TORT (INCLUDING NEGLIGENCE OR
  23:C:/Users/²Ü¼ÒºÀ/.iotlink/sdk/IoT_LINK/iot_link/network/lwm2m/wakaama_lwm2m/port\object_server.c ****  * OTHERWISE) ARISING IN ANY WAY OUT OF THE USE OF THIS SOFTWARE, EVEN IF
  24:C:/Users/²Ü¼ÒºÀ/.iotlink/sdk/IoT_LINK/iot_link/network/lwm2m/wakaama_lwm2m/port\object_server.c ****  * ADVISED OF THE POSSIBILITY OF SUCH DAMAGE.
  25:C:/Users/²Ü¼ÒºÀ/.iotlink/sdk/IoT_LINK/iot_link/network/lwm2m/wakaama_lwm2m/port\object_server.c ****  *---------------------------------------------------------------------------*/
  26:C:/Users/²Ü¼ÒºÀ/.iotlink/sdk/IoT_LINK/iot_link/network/lwm2m/wakaama_lwm2m/port\object_server.c **** /*----------------------------------------------------------------------------
  27:C:/Users/²Ü¼ÒºÀ/.iotlink/sdk/IoT_LINK/iot_link/network/lwm2m/wakaama_lwm2m/port\object_server.c ****  * Notice of Export Control Law
  28:C:/Users/²Ü¼ÒºÀ/.iotlink/sdk/IoT_LINK/iot_link/network/lwm2m/wakaama_lwm2m/port\object_server.c ****  * ===============================================
  29:C:/Users/²Ü¼ÒºÀ/.iotlink/sdk/IoT_LINK/iot_link/network/lwm2m/wakaama_lwm2m/port\object_server.c ****  * Huawei LiteOS may be subject to applicable export control laws and regulations, which might
  30:C:/Users/²Ü¼ÒºÀ/.iotlink/sdk/IoT_LINK/iot_link/network/lwm2m/wakaama_lwm2m/port\object_server.c ****  * include those applicable to Huawei LiteOS of U.S. and the country in which you are located.
ARM GAS  C:\Users\²Ü¼ÒºÀ\AppData\Local\Temp\ccFNKTFQ.s 			page 2


  31:C:/Users/²Ü¼ÒºÀ/.iotlink/sdk/IoT_LINK/iot_link/network/lwm2m/wakaama_lwm2m/port\object_server.c ****  * Import, export and usage of Huawei LiteOS in any manner by you shall be in compliance with such
  32:C:/Users/²Ü¼ÒºÀ/.iotlink/sdk/IoT_LINK/iot_link/network/lwm2m/wakaama_lwm2m/port\object_server.c ****  * applicable export control laws and regulations.
  33:C:/Users/²Ü¼ÒºÀ/.iotlink/sdk/IoT_LINK/iot_link/network/lwm2m/wakaama_lwm2m/port\object_server.c ****  *---------------------------------------------------------------------------*/
  34:C:/Users/²Ü¼ÒºÀ/.iotlink/sdk/IoT_LINK/iot_link/network/lwm2m/wakaama_lwm2m/port\object_server.c **** 
  35:C:/Users/²Ü¼ÒºÀ/.iotlink/sdk/IoT_LINK/iot_link/network/lwm2m/wakaama_lwm2m/port\object_server.c **** /*******************************************************************************
  36:C:/Users/²Ü¼ÒºÀ/.iotlink/sdk/IoT_LINK/iot_link/network/lwm2m/wakaama_lwm2m/port\object_server.c ****  *
  37:C:/Users/²Ü¼ÒºÀ/.iotlink/sdk/IoT_LINK/iot_link/network/lwm2m/wakaama_lwm2m/port\object_server.c ****  * Copyright (c) 2013, 2014 Intel Corporation and others.
  38:C:/Users/²Ü¼ÒºÀ/.iotlink/sdk/IoT_LINK/iot_link/network/lwm2m/wakaama_lwm2m/port\object_server.c ****  * All rights reserved. This program and the accompanying materials
  39:C:/Users/²Ü¼ÒºÀ/.iotlink/sdk/IoT_LINK/iot_link/network/lwm2m/wakaama_lwm2m/port\object_server.c ****  * are made available under the terms of the Eclipse Public License v1.0
  40:C:/Users/²Ü¼ÒºÀ/.iotlink/sdk/IoT_LINK/iot_link/network/lwm2m/wakaama_lwm2m/port\object_server.c ****  * and Eclipse Distribution License v1.0 which accompany this distribution.
  41:C:/Users/²Ü¼ÒºÀ/.iotlink/sdk/IoT_LINK/iot_link/network/lwm2m/wakaama_lwm2m/port\object_server.c ****  *
  42:C:/Users/²Ü¼ÒºÀ/.iotlink/sdk/IoT_LINK/iot_link/network/lwm2m/wakaama_lwm2m/port\object_server.c ****  * The Eclipse Public License is available at
  43:C:/Users/²Ü¼ÒºÀ/.iotlink/sdk/IoT_LINK/iot_link/network/lwm2m/wakaama_lwm2m/port\object_server.c ****  *    http://www.eclipse.org/legal/epl-v10.html
  44:C:/Users/²Ü¼ÒºÀ/.iotlink/sdk/IoT_LINK/iot_link/network/lwm2m/wakaama_lwm2m/port\object_server.c ****  * The Eclipse Distribution License is available at
  45:C:/Users/²Ü¼ÒºÀ/.iotlink/sdk/IoT_LINK/iot_link/network/lwm2m/wakaama_lwm2m/port\object_server.c ****  *    http://www.eclipse.org/org/documents/edl-v10.php.
  46:C:/Users/²Ü¼ÒºÀ/.iotlink/sdk/IoT_LINK/iot_link/network/lwm2m/wakaama_lwm2m/port\object_server.c ****  *
  47:C:/Users/²Ü¼ÒºÀ/.iotlink/sdk/IoT_LINK/iot_link/network/lwm2m/wakaama_lwm2m/port\object_server.c ****  * Contributors:
  48:C:/Users/²Ü¼ÒºÀ/.iotlink/sdk/IoT_LINK/iot_link/network/lwm2m/wakaama_lwm2m/port\object_server.c ****  *    David Navarro, Intel Corporation - initial API and implementation
  49:C:/Users/²Ü¼ÒºÀ/.iotlink/sdk/IoT_LINK/iot_link/network/lwm2m/wakaama_lwm2m/port\object_server.c ****  *    Julien Vermillard, Sierra Wireless
  50:C:/Users/²Ü¼ÒºÀ/.iotlink/sdk/IoT_LINK/iot_link/network/lwm2m/wakaama_lwm2m/port\object_server.c ****  *    Bosch Software Innovations GmbH - Please refer to git log
  51:C:/Users/²Ü¼ÒºÀ/.iotlink/sdk/IoT_LINK/iot_link/network/lwm2m/wakaama_lwm2m/port\object_server.c ****  *    Pascal Rieux - Please refer to git log
  52:C:/Users/²Ü¼ÒºÀ/.iotlink/sdk/IoT_LINK/iot_link/network/lwm2m/wakaama_lwm2m/port\object_server.c ****  *
  53:C:/Users/²Ü¼ÒºÀ/.iotlink/sdk/IoT_LINK/iot_link/network/lwm2m/wakaama_lwm2m/port\object_server.c ****  *******************************************************************************/
  54:C:/Users/²Ü¼ÒºÀ/.iotlink/sdk/IoT_LINK/iot_link/network/lwm2m/wakaama_lwm2m/port\object_server.c **** 
  55:C:/Users/²Ü¼ÒºÀ/.iotlink/sdk/IoT_LINK/iot_link/network/lwm2m/wakaama_lwm2m/port\object_server.c **** /*
  56:C:/Users/²Ü¼ÒºÀ/.iotlink/sdk/IoT_LINK/iot_link/network/lwm2m/wakaama_lwm2m/port\object_server.c ****  *  Resources:
  57:C:/Users/²Ü¼ÒºÀ/.iotlink/sdk/IoT_LINK/iot_link/network/lwm2m/wakaama_lwm2m/port\object_server.c ****  *
  58:C:/Users/²Ü¼ÒºÀ/.iotlink/sdk/IoT_LINK/iot_link/network/lwm2m/wakaama_lwm2m/port\object_server.c ****  *          Name         | ID | Operations | Instances | Mandatory |  Type   |  Range  | Units |
  59:C:/Users/²Ü¼ÒºÀ/.iotlink/sdk/IoT_LINK/iot_link/network/lwm2m/wakaama_lwm2m/port\object_server.c ****  *  Short ID             |  0 |     R      |  Single   |    Yes    | Integer | 1-65535 |       |
  60:C:/Users/²Ü¼ÒºÀ/.iotlink/sdk/IoT_LINK/iot_link/network/lwm2m/wakaama_lwm2m/port\object_server.c ****  *  Lifetime             |  1 |    R/W     |  Single   |    Yes    | Integer |         |   s   |
  61:C:/Users/²Ü¼ÒºÀ/.iotlink/sdk/IoT_LINK/iot_link/network/lwm2m/wakaama_lwm2m/port\object_server.c ****  *  Default Min Period   |  2 |    R/W     |  Single   |    No     | Integer |         |   s   |
  62:C:/Users/²Ü¼ÒºÀ/.iotlink/sdk/IoT_LINK/iot_link/network/lwm2m/wakaama_lwm2m/port\object_server.c ****  *  Default Max Period   |  3 |    R/W     |  Single   |    No     | Integer |         |   s   |
  63:C:/Users/²Ü¼ÒºÀ/.iotlink/sdk/IoT_LINK/iot_link/network/lwm2m/wakaama_lwm2m/port\object_server.c ****  *  Disable              |  4 |     E      |  Single   |    No     |         |         |       |
  64:C:/Users/²Ü¼ÒºÀ/.iotlink/sdk/IoT_LINK/iot_link/network/lwm2m/wakaama_lwm2m/port\object_server.c ****  *  Disable Timeout      |  5 |    R/W     |  Single   |    No     | Integer |         |   s   |
  65:C:/Users/²Ü¼ÒºÀ/.iotlink/sdk/IoT_LINK/iot_link/network/lwm2m/wakaama_lwm2m/port\object_server.c ****  *  Notification Storing |  6 |    R/W     |  Single   |    Yes    | Boolean |         |       |
  66:C:/Users/²Ü¼ÒºÀ/.iotlink/sdk/IoT_LINK/iot_link/network/lwm2m/wakaama_lwm2m/port\object_server.c ****  *  Binding              |  7 |    R/W     |  Single   |    Yes    | String  |         |       |
  67:C:/Users/²Ü¼ÒºÀ/.iotlink/sdk/IoT_LINK/iot_link/network/lwm2m/wakaama_lwm2m/port\object_server.c ****  *  Registration Update  |  8 |     E      |  Single   |    Yes    |         |         |       |
  68:C:/Users/²Ü¼ÒºÀ/.iotlink/sdk/IoT_LINK/iot_link/network/lwm2m/wakaama_lwm2m/port\object_server.c ****  *
  69:C:/Users/²Ü¼ÒºÀ/.iotlink/sdk/IoT_LINK/iot_link/network/lwm2m/wakaama_lwm2m/port\object_server.c ****  */
  70:C:/Users/²Ü¼ÒºÀ/.iotlink/sdk/IoT_LINK/iot_link/network/lwm2m/wakaama_lwm2m/port\object_server.c **** 
  71:C:/Users/²Ü¼ÒºÀ/.iotlink/sdk/IoT_LINK/iot_link/network/lwm2m/wakaama_lwm2m/port\object_server.c **** #include "internals.h"
  72:C:/Users/²Ü¼ÒºÀ/.iotlink/sdk/IoT_LINK/iot_link/network/lwm2m/wakaama_lwm2m/port\object_server.c **** #include "object_comm.h"
  73:C:/Users/²Ü¼ÒºÀ/.iotlink/sdk/IoT_LINK/iot_link/network/lwm2m/wakaama_lwm2m/port\object_server.c **** 
  74:C:/Users/²Ü¼ÒºÀ/.iotlink/sdk/IoT_LINK/iot_link/network/lwm2m/wakaama_lwm2m/port\object_server.c **** typedef struct _server_instance_
  75:C:/Users/²Ü¼ÒºÀ/.iotlink/sdk/IoT_LINK/iot_link/network/lwm2m/wakaama_lwm2m/port\object_server.c **** {
  76:C:/Users/²Ü¼ÒºÀ/.iotlink/sdk/IoT_LINK/iot_link/network/lwm2m/wakaama_lwm2m/port\object_server.c ****     struct _server_instance_   *next;    // matches lwm2m_list_t::next
  77:C:/Users/²Ü¼ÒºÀ/.iotlink/sdk/IoT_LINK/iot_link/network/lwm2m/wakaama_lwm2m/port\object_server.c ****     uint16_t                    instanceId;            // matches lwm2m_list_t::id
  78:C:/Users/²Ü¼ÒºÀ/.iotlink/sdk/IoT_LINK/iot_link/network/lwm2m/wakaama_lwm2m/port\object_server.c ****     uint16_t                    shortServerId;
  79:C:/Users/²Ü¼ÒºÀ/.iotlink/sdk/IoT_LINK/iot_link/network/lwm2m/wakaama_lwm2m/port\object_server.c ****     uint32_t                    lifetime;
  80:C:/Users/²Ü¼ÒºÀ/.iotlink/sdk/IoT_LINK/iot_link/network/lwm2m/wakaama_lwm2m/port\object_server.c ****     uint32_t                    defaultMinPeriod;
  81:C:/Users/²Ü¼ÒºÀ/.iotlink/sdk/IoT_LINK/iot_link/network/lwm2m/wakaama_lwm2m/port\object_server.c ****     uint32_t                    defaultMaxPeriod;
  82:C:/Users/²Ü¼ÒºÀ/.iotlink/sdk/IoT_LINK/iot_link/network/lwm2m/wakaama_lwm2m/port\object_server.c ****     uint32_t                    disableTimeout;
  83:C:/Users/²Ü¼ÒºÀ/.iotlink/sdk/IoT_LINK/iot_link/network/lwm2m/wakaama_lwm2m/port\object_server.c ****     bool                        storing;
  84:C:/Users/²Ü¼ÒºÀ/.iotlink/sdk/IoT_LINK/iot_link/network/lwm2m/wakaama_lwm2m/port\object_server.c ****     char                        binding[4];
  85:C:/Users/²Ü¼ÒºÀ/.iotlink/sdk/IoT_LINK/iot_link/network/lwm2m/wakaama_lwm2m/port\object_server.c **** } server_instance_t;
  86:C:/Users/²Ü¼ÒºÀ/.iotlink/sdk/IoT_LINK/iot_link/network/lwm2m/wakaama_lwm2m/port\object_server.c **** 
  87:C:/Users/²Ü¼ÒºÀ/.iotlink/sdk/IoT_LINK/iot_link/network/lwm2m/wakaama_lwm2m/port\object_server.c **** static uint8_t prv_get_value(lwm2m_data_t *dataP,
ARM GAS  C:\Users\²Ü¼ÒºÀ\AppData\Local\Temp\ccFNKTFQ.s 			page 3


  88:C:/Users/²Ü¼ÒºÀ/.iotlink/sdk/IoT_LINK/iot_link/network/lwm2m/wakaama_lwm2m/port\object_server.c ****                              server_instance_t *targetP)
  89:C:/Users/²Ü¼ÒºÀ/.iotlink/sdk/IoT_LINK/iot_link/network/lwm2m/wakaama_lwm2m/port\object_server.c **** {
  90:C:/Users/²Ü¼ÒºÀ/.iotlink/sdk/IoT_LINK/iot_link/network/lwm2m/wakaama_lwm2m/port\object_server.c ****     switch (dataP->id)
  91:C:/Users/²Ü¼ÒºÀ/.iotlink/sdk/IoT_LINK/iot_link/network/lwm2m/wakaama_lwm2m/port\object_server.c ****     {
  92:C:/Users/²Ü¼ÒºÀ/.iotlink/sdk/IoT_LINK/iot_link/network/lwm2m/wakaama_lwm2m/port\object_server.c ****         case LWM2M_SERVER_SHORT_ID_ID:
  93:C:/Users/²Ü¼ÒºÀ/.iotlink/sdk/IoT_LINK/iot_link/network/lwm2m/wakaama_lwm2m/port\object_server.c ****             lwm2m_data_encode_int(targetP->shortServerId, dataP);
  94:C:/Users/²Ü¼ÒºÀ/.iotlink/sdk/IoT_LINK/iot_link/network/lwm2m/wakaama_lwm2m/port\object_server.c ****             return COAP_205_CONTENT;
  95:C:/Users/²Ü¼ÒºÀ/.iotlink/sdk/IoT_LINK/iot_link/network/lwm2m/wakaama_lwm2m/port\object_server.c **** 
  96:C:/Users/²Ü¼ÒºÀ/.iotlink/sdk/IoT_LINK/iot_link/network/lwm2m/wakaama_lwm2m/port\object_server.c ****         case LWM2M_SERVER_LIFETIME_ID:
  97:C:/Users/²Ü¼ÒºÀ/.iotlink/sdk/IoT_LINK/iot_link/network/lwm2m/wakaama_lwm2m/port\object_server.c ****             lwm2m_data_encode_int(targetP->lifetime, dataP);
  98:C:/Users/²Ü¼ÒºÀ/.iotlink/sdk/IoT_LINK/iot_link/network/lwm2m/wakaama_lwm2m/port\object_server.c ****             return COAP_205_CONTENT;
  99:C:/Users/²Ü¼ÒºÀ/.iotlink/sdk/IoT_LINK/iot_link/network/lwm2m/wakaama_lwm2m/port\object_server.c **** 
 100:C:/Users/²Ü¼ÒºÀ/.iotlink/sdk/IoT_LINK/iot_link/network/lwm2m/wakaama_lwm2m/port\object_server.c ****         case LWM2M_SERVER_MIN_PERIOD_ID:
 101:C:/Users/²Ü¼ÒºÀ/.iotlink/sdk/IoT_LINK/iot_link/network/lwm2m/wakaama_lwm2m/port\object_server.c ****             lwm2m_data_encode_int(targetP->defaultMinPeriod, dataP);
 102:C:/Users/²Ü¼ÒºÀ/.iotlink/sdk/IoT_LINK/iot_link/network/lwm2m/wakaama_lwm2m/port\object_server.c ****             return COAP_205_CONTENT;
 103:C:/Users/²Ü¼ÒºÀ/.iotlink/sdk/IoT_LINK/iot_link/network/lwm2m/wakaama_lwm2m/port\object_server.c **** 
 104:C:/Users/²Ü¼ÒºÀ/.iotlink/sdk/IoT_LINK/iot_link/network/lwm2m/wakaama_lwm2m/port\object_server.c ****         case LWM2M_SERVER_MAX_PERIOD_ID:
 105:C:/Users/²Ü¼ÒºÀ/.iotlink/sdk/IoT_LINK/iot_link/network/lwm2m/wakaama_lwm2m/port\object_server.c ****             lwm2m_data_encode_int(targetP->defaultMaxPeriod, dataP);
 106:C:/Users/²Ü¼ÒºÀ/.iotlink/sdk/IoT_LINK/iot_link/network/lwm2m/wakaama_lwm2m/port\object_server.c ****             return COAP_205_CONTENT;
 107:C:/Users/²Ü¼ÒºÀ/.iotlink/sdk/IoT_LINK/iot_link/network/lwm2m/wakaama_lwm2m/port\object_server.c **** 
 108:C:/Users/²Ü¼ÒºÀ/.iotlink/sdk/IoT_LINK/iot_link/network/lwm2m/wakaama_lwm2m/port\object_server.c ****         case LWM2M_SERVER_DISABLE_ID:
 109:C:/Users/²Ü¼ÒºÀ/.iotlink/sdk/IoT_LINK/iot_link/network/lwm2m/wakaama_lwm2m/port\object_server.c ****             return COAP_405_METHOD_NOT_ALLOWED;
 110:C:/Users/²Ü¼ÒºÀ/.iotlink/sdk/IoT_LINK/iot_link/network/lwm2m/wakaama_lwm2m/port\object_server.c **** 
 111:C:/Users/²Ü¼ÒºÀ/.iotlink/sdk/IoT_LINK/iot_link/network/lwm2m/wakaama_lwm2m/port\object_server.c ****         case LWM2M_SERVER_TIMEOUT_ID:
 112:C:/Users/²Ü¼ÒºÀ/.iotlink/sdk/IoT_LINK/iot_link/network/lwm2m/wakaama_lwm2m/port\object_server.c ****             lwm2m_data_encode_int(targetP->disableTimeout, dataP);
 113:C:/Users/²Ü¼ÒºÀ/.iotlink/sdk/IoT_LINK/iot_link/network/lwm2m/wakaama_lwm2m/port\object_server.c ****             return COAP_205_CONTENT;
 114:C:/Users/²Ü¼ÒºÀ/.iotlink/sdk/IoT_LINK/iot_link/network/lwm2m/wakaama_lwm2m/port\object_server.c **** 
 115:C:/Users/²Ü¼ÒºÀ/.iotlink/sdk/IoT_LINK/iot_link/network/lwm2m/wakaama_lwm2m/port\object_server.c ****         case LWM2M_SERVER_STORING_ID:
 116:C:/Users/²Ü¼ÒºÀ/.iotlink/sdk/IoT_LINK/iot_link/network/lwm2m/wakaama_lwm2m/port\object_server.c ****             lwm2m_data_encode_bool(targetP->storing, dataP);
 117:C:/Users/²Ü¼ÒºÀ/.iotlink/sdk/IoT_LINK/iot_link/network/lwm2m/wakaama_lwm2m/port\object_server.c ****             return COAP_205_CONTENT;
 118:C:/Users/²Ü¼ÒºÀ/.iotlink/sdk/IoT_LINK/iot_link/network/lwm2m/wakaama_lwm2m/port\object_server.c **** 
 119:C:/Users/²Ü¼ÒºÀ/.iotlink/sdk/IoT_LINK/iot_link/network/lwm2m/wakaama_lwm2m/port\object_server.c ****         case LWM2M_SERVER_BINDING_ID:
 120:C:/Users/²Ü¼ÒºÀ/.iotlink/sdk/IoT_LINK/iot_link/network/lwm2m/wakaama_lwm2m/port\object_server.c ****             lwm2m_data_encode_string(targetP->binding, dataP);
 121:C:/Users/²Ü¼ÒºÀ/.iotlink/sdk/IoT_LINK/iot_link/network/lwm2m/wakaama_lwm2m/port\object_server.c ****             return COAP_205_CONTENT;
 122:C:/Users/²Ü¼ÒºÀ/.iotlink/sdk/IoT_LINK/iot_link/network/lwm2m/wakaama_lwm2m/port\object_server.c **** 
 123:C:/Users/²Ü¼ÒºÀ/.iotlink/sdk/IoT_LINK/iot_link/network/lwm2m/wakaama_lwm2m/port\object_server.c ****         case LWM2M_SERVER_UPDATE_ID:
 124:C:/Users/²Ü¼ÒºÀ/.iotlink/sdk/IoT_LINK/iot_link/network/lwm2m/wakaama_lwm2m/port\object_server.c ****             return COAP_405_METHOD_NOT_ALLOWED;
 125:C:/Users/²Ü¼ÒºÀ/.iotlink/sdk/IoT_LINK/iot_link/network/lwm2m/wakaama_lwm2m/port\object_server.c **** 
 126:C:/Users/²Ü¼ÒºÀ/.iotlink/sdk/IoT_LINK/iot_link/network/lwm2m/wakaama_lwm2m/port\object_server.c ****         default:
 127:C:/Users/²Ü¼ÒºÀ/.iotlink/sdk/IoT_LINK/iot_link/network/lwm2m/wakaama_lwm2m/port\object_server.c ****             return COAP_404_NOT_FOUND;
 128:C:/Users/²Ü¼ÒºÀ/.iotlink/sdk/IoT_LINK/iot_link/network/lwm2m/wakaama_lwm2m/port\object_server.c ****     }
 129:C:/Users/²Ü¼ÒºÀ/.iotlink/sdk/IoT_LINK/iot_link/network/lwm2m/wakaama_lwm2m/port\object_server.c **** }
 130:C:/Users/²Ü¼ÒºÀ/.iotlink/sdk/IoT_LINK/iot_link/network/lwm2m/wakaama_lwm2m/port\object_server.c **** 
 131:C:/Users/²Ü¼ÒºÀ/.iotlink/sdk/IoT_LINK/iot_link/network/lwm2m/wakaama_lwm2m/port\object_server.c **** static uint8_t prv_server_read(uint16_t instanceId,
 132:C:/Users/²Ü¼ÒºÀ/.iotlink/sdk/IoT_LINK/iot_link/network/lwm2m/wakaama_lwm2m/port\object_server.c ****                                int *numDataP,
 133:C:/Users/²Ü¼ÒºÀ/.iotlink/sdk/IoT_LINK/iot_link/network/lwm2m/wakaama_lwm2m/port\object_server.c ****                                lwm2m_data_t **dataArrayP,
 134:C:/Users/²Ü¼ÒºÀ/.iotlink/sdk/IoT_LINK/iot_link/network/lwm2m/wakaama_lwm2m/port\object_server.c ****                                lwm2m_data_cfg_t *dataCfg,
 135:C:/Users/²Ü¼ÒºÀ/.iotlink/sdk/IoT_LINK/iot_link/network/lwm2m/wakaama_lwm2m/port\object_server.c ****                                lwm2m_object_t *objectP)
 136:C:/Users/²Ü¼ÒºÀ/.iotlink/sdk/IoT_LINK/iot_link/network/lwm2m/wakaama_lwm2m/port\object_server.c **** {
 137:C:/Users/²Ü¼ÒºÀ/.iotlink/sdk/IoT_LINK/iot_link/network/lwm2m/wakaama_lwm2m/port\object_server.c ****     server_instance_t *targetP;
 138:C:/Users/²Ü¼ÒºÀ/.iotlink/sdk/IoT_LINK/iot_link/network/lwm2m/wakaama_lwm2m/port\object_server.c ****     uint8_t result;
 139:C:/Users/²Ü¼ÒºÀ/.iotlink/sdk/IoT_LINK/iot_link/network/lwm2m/wakaama_lwm2m/port\object_server.c ****     int i;
 140:C:/Users/²Ü¼ÒºÀ/.iotlink/sdk/IoT_LINK/iot_link/network/lwm2m/wakaama_lwm2m/port\object_server.c ****     targetP = (server_instance_t *)lwm2m_list_find(objectP->instanceList, instanceId);
 141:C:/Users/²Ü¼ÒºÀ/.iotlink/sdk/IoT_LINK/iot_link/network/lwm2m/wakaama_lwm2m/port\object_server.c **** 
 142:C:/Users/²Ü¼ÒºÀ/.iotlink/sdk/IoT_LINK/iot_link/network/lwm2m/wakaama_lwm2m/port\object_server.c ****     if (NULL == targetP) return COAP_404_NOT_FOUND;
 143:C:/Users/²Ü¼ÒºÀ/.iotlink/sdk/IoT_LINK/iot_link/network/lwm2m/wakaama_lwm2m/port\object_server.c **** 
 144:C:/Users/²Ü¼ÒºÀ/.iotlink/sdk/IoT_LINK/iot_link/network/lwm2m/wakaama_lwm2m/port\object_server.c ****     // is the server asking for the full instance ?
ARM GAS  C:\Users\²Ü¼ÒºÀ\AppData\Local\Temp\ccFNKTFQ.s 			page 4


 145:C:/Users/²Ü¼ÒºÀ/.iotlink/sdk/IoT_LINK/iot_link/network/lwm2m/wakaama_lwm2m/port\object_server.c ****     if (0 == *numDataP)
 146:C:/Users/²Ü¼ÒºÀ/.iotlink/sdk/IoT_LINK/iot_link/network/lwm2m/wakaama_lwm2m/port\object_server.c ****     {
 147:C:/Users/²Ü¼ÒºÀ/.iotlink/sdk/IoT_LINK/iot_link/network/lwm2m/wakaama_lwm2m/port\object_server.c ****         uint16_t resList[] =
 148:C:/Users/²Ü¼ÒºÀ/.iotlink/sdk/IoT_LINK/iot_link/network/lwm2m/wakaama_lwm2m/port\object_server.c ****         {
 149:C:/Users/²Ü¼ÒºÀ/.iotlink/sdk/IoT_LINK/iot_link/network/lwm2m/wakaama_lwm2m/port\object_server.c ****             LWM2M_SERVER_SHORT_ID_ID,
 150:C:/Users/²Ü¼ÒºÀ/.iotlink/sdk/IoT_LINK/iot_link/network/lwm2m/wakaama_lwm2m/port\object_server.c ****             LWM2M_SERVER_LIFETIME_ID,
 151:C:/Users/²Ü¼ÒºÀ/.iotlink/sdk/IoT_LINK/iot_link/network/lwm2m/wakaama_lwm2m/port\object_server.c ****             LWM2M_SERVER_MIN_PERIOD_ID,
 152:C:/Users/²Ü¼ÒºÀ/.iotlink/sdk/IoT_LINK/iot_link/network/lwm2m/wakaama_lwm2m/port\object_server.c ****             LWM2M_SERVER_MAX_PERIOD_ID,
 153:C:/Users/²Ü¼ÒºÀ/.iotlink/sdk/IoT_LINK/iot_link/network/lwm2m/wakaama_lwm2m/port\object_server.c ****             LWM2M_SERVER_TIMEOUT_ID,
 154:C:/Users/²Ü¼ÒºÀ/.iotlink/sdk/IoT_LINK/iot_link/network/lwm2m/wakaama_lwm2m/port\object_server.c ****             LWM2M_SERVER_STORING_ID,
 155:C:/Users/²Ü¼ÒºÀ/.iotlink/sdk/IoT_LINK/iot_link/network/lwm2m/wakaama_lwm2m/port\object_server.c ****             LWM2M_SERVER_BINDING_ID
 156:C:/Users/²Ü¼ÒºÀ/.iotlink/sdk/IoT_LINK/iot_link/network/lwm2m/wakaama_lwm2m/port\object_server.c ****         };
 157:C:/Users/²Ü¼ÒºÀ/.iotlink/sdk/IoT_LINK/iot_link/network/lwm2m/wakaama_lwm2m/port\object_server.c ****         int nbRes = sizeof(resList) / sizeof(uint16_t);
 158:C:/Users/²Ü¼ÒºÀ/.iotlink/sdk/IoT_LINK/iot_link/network/lwm2m/wakaama_lwm2m/port\object_server.c ****         *dataArrayP = lwm2m_data_new(nbRes);
 159:C:/Users/²Ü¼ÒºÀ/.iotlink/sdk/IoT_LINK/iot_link/network/lwm2m/wakaama_lwm2m/port\object_server.c **** 
 160:C:/Users/²Ü¼ÒºÀ/.iotlink/sdk/IoT_LINK/iot_link/network/lwm2m/wakaama_lwm2m/port\object_server.c ****         if (NULL == *dataArrayP) return COAP_500_INTERNAL_SERVER_ERROR;
 161:C:/Users/²Ü¼ÒºÀ/.iotlink/sdk/IoT_LINK/iot_link/network/lwm2m/wakaama_lwm2m/port\object_server.c **** 
 162:C:/Users/²Ü¼ÒºÀ/.iotlink/sdk/IoT_LINK/iot_link/network/lwm2m/wakaama_lwm2m/port\object_server.c ****         *numDataP = nbRes;
 163:C:/Users/²Ü¼ÒºÀ/.iotlink/sdk/IoT_LINK/iot_link/network/lwm2m/wakaama_lwm2m/port\object_server.c **** 
 164:C:/Users/²Ü¼ÒºÀ/.iotlink/sdk/IoT_LINK/iot_link/network/lwm2m/wakaama_lwm2m/port\object_server.c ****         for (i = 0 ; i < nbRes ; i++)
 165:C:/Users/²Ü¼ÒºÀ/.iotlink/sdk/IoT_LINK/iot_link/network/lwm2m/wakaama_lwm2m/port\object_server.c ****         {
 166:C:/Users/²Ü¼ÒºÀ/.iotlink/sdk/IoT_LINK/iot_link/network/lwm2m/wakaama_lwm2m/port\object_server.c ****             (*dataArrayP)[i].id = resList[i];
 167:C:/Users/²Ü¼ÒºÀ/.iotlink/sdk/IoT_LINK/iot_link/network/lwm2m/wakaama_lwm2m/port\object_server.c ****         }
 168:C:/Users/²Ü¼ÒºÀ/.iotlink/sdk/IoT_LINK/iot_link/network/lwm2m/wakaama_lwm2m/port\object_server.c ****     }
 169:C:/Users/²Ü¼ÒºÀ/.iotlink/sdk/IoT_LINK/iot_link/network/lwm2m/wakaama_lwm2m/port\object_server.c **** 
 170:C:/Users/²Ü¼ÒºÀ/.iotlink/sdk/IoT_LINK/iot_link/network/lwm2m/wakaama_lwm2m/port\object_server.c ****     i = 0;
 171:C:/Users/²Ü¼ÒºÀ/.iotlink/sdk/IoT_LINK/iot_link/network/lwm2m/wakaama_lwm2m/port\object_server.c **** 
 172:C:/Users/²Ü¼ÒºÀ/.iotlink/sdk/IoT_LINK/iot_link/network/lwm2m/wakaama_lwm2m/port\object_server.c ****     do
 173:C:/Users/²Ü¼ÒºÀ/.iotlink/sdk/IoT_LINK/iot_link/network/lwm2m/wakaama_lwm2m/port\object_server.c ****     {
 174:C:/Users/²Ü¼ÒºÀ/.iotlink/sdk/IoT_LINK/iot_link/network/lwm2m/wakaama_lwm2m/port\object_server.c ****         result = prv_get_value((*dataArrayP) + i, targetP);
 175:C:/Users/²Ü¼ÒºÀ/.iotlink/sdk/IoT_LINK/iot_link/network/lwm2m/wakaama_lwm2m/port\object_server.c ****         i++;
 176:C:/Users/²Ü¼ÒºÀ/.iotlink/sdk/IoT_LINK/iot_link/network/lwm2m/wakaama_lwm2m/port\object_server.c ****     }
 177:C:/Users/²Ü¼ÒºÀ/.iotlink/sdk/IoT_LINK/iot_link/network/lwm2m/wakaama_lwm2m/port\object_server.c ****     while ((i < *numDataP) && (COAP_205_CONTENT == result));
 178:C:/Users/²Ü¼ÒºÀ/.iotlink/sdk/IoT_LINK/iot_link/network/lwm2m/wakaama_lwm2m/port\object_server.c **** 
 179:C:/Users/²Ü¼ÒºÀ/.iotlink/sdk/IoT_LINK/iot_link/network/lwm2m/wakaama_lwm2m/port\object_server.c ****     return result;
 180:C:/Users/²Ü¼ÒºÀ/.iotlink/sdk/IoT_LINK/iot_link/network/lwm2m/wakaama_lwm2m/port\object_server.c **** }
 181:C:/Users/²Ü¼ÒºÀ/.iotlink/sdk/IoT_LINK/iot_link/network/lwm2m/wakaama_lwm2m/port\object_server.c **** 
 182:C:/Users/²Ü¼ÒºÀ/.iotlink/sdk/IoT_LINK/iot_link/network/lwm2m/wakaama_lwm2m/port\object_server.c **** static uint8_t prv_server_discover(uint16_t instanceId,
 183:C:/Users/²Ü¼ÒºÀ/.iotlink/sdk/IoT_LINK/iot_link/network/lwm2m/wakaama_lwm2m/port\object_server.c ****                                    int *numDataP,
 184:C:/Users/²Ü¼ÒºÀ/.iotlink/sdk/IoT_LINK/iot_link/network/lwm2m/wakaama_lwm2m/port\object_server.c ****                                    lwm2m_data_t **dataArrayP,
 185:C:/Users/²Ü¼ÒºÀ/.iotlink/sdk/IoT_LINK/iot_link/network/lwm2m/wakaama_lwm2m/port\object_server.c ****                                    lwm2m_object_t *objectP)
 186:C:/Users/²Ü¼ÒºÀ/.iotlink/sdk/IoT_LINK/iot_link/network/lwm2m/wakaama_lwm2m/port\object_server.c **** {
 187:C:/Users/²Ü¼ÒºÀ/.iotlink/sdk/IoT_LINK/iot_link/network/lwm2m/wakaama_lwm2m/port\object_server.c ****     uint8_t result;
 188:C:/Users/²Ü¼ÒºÀ/.iotlink/sdk/IoT_LINK/iot_link/network/lwm2m/wakaama_lwm2m/port\object_server.c ****     int i;
 189:C:/Users/²Ü¼ÒºÀ/.iotlink/sdk/IoT_LINK/iot_link/network/lwm2m/wakaama_lwm2m/port\object_server.c ****     result = COAP_205_CONTENT;
 190:C:/Users/²Ü¼ÒºÀ/.iotlink/sdk/IoT_LINK/iot_link/network/lwm2m/wakaama_lwm2m/port\object_server.c **** 
 191:C:/Users/²Ü¼ÒºÀ/.iotlink/sdk/IoT_LINK/iot_link/network/lwm2m/wakaama_lwm2m/port\object_server.c ****     // is the server asking for the full object ?
 192:C:/Users/²Ü¼ÒºÀ/.iotlink/sdk/IoT_LINK/iot_link/network/lwm2m/wakaama_lwm2m/port\object_server.c ****     if (0 == *numDataP)
 193:C:/Users/²Ü¼ÒºÀ/.iotlink/sdk/IoT_LINK/iot_link/network/lwm2m/wakaama_lwm2m/port\object_server.c ****     {
 194:C:/Users/²Ü¼ÒºÀ/.iotlink/sdk/IoT_LINK/iot_link/network/lwm2m/wakaama_lwm2m/port\object_server.c ****         uint16_t resList[] =
 195:C:/Users/²Ü¼ÒºÀ/.iotlink/sdk/IoT_LINK/iot_link/network/lwm2m/wakaama_lwm2m/port\object_server.c ****         {
 196:C:/Users/²Ü¼ÒºÀ/.iotlink/sdk/IoT_LINK/iot_link/network/lwm2m/wakaama_lwm2m/port\object_server.c ****             LWM2M_SERVER_SHORT_ID_ID,
 197:C:/Users/²Ü¼ÒºÀ/.iotlink/sdk/IoT_LINK/iot_link/network/lwm2m/wakaama_lwm2m/port\object_server.c ****             LWM2M_SERVER_LIFETIME_ID,
 198:C:/Users/²Ü¼ÒºÀ/.iotlink/sdk/IoT_LINK/iot_link/network/lwm2m/wakaama_lwm2m/port\object_server.c ****             LWM2M_SERVER_MIN_PERIOD_ID,
 199:C:/Users/²Ü¼ÒºÀ/.iotlink/sdk/IoT_LINK/iot_link/network/lwm2m/wakaama_lwm2m/port\object_server.c ****             LWM2M_SERVER_MAX_PERIOD_ID,
 200:C:/Users/²Ü¼ÒºÀ/.iotlink/sdk/IoT_LINK/iot_link/network/lwm2m/wakaama_lwm2m/port\object_server.c ****             LWM2M_SERVER_DISABLE_ID,
 201:C:/Users/²Ü¼ÒºÀ/.iotlink/sdk/IoT_LINK/iot_link/network/lwm2m/wakaama_lwm2m/port\object_server.c ****             LWM2M_SERVER_TIMEOUT_ID,
ARM GAS  C:\Users\²Ü¼ÒºÀ\AppData\Local\Temp\ccFNKTFQ.s 			page 5


 202:C:/Users/²Ü¼ÒºÀ/.iotlink/sdk/IoT_LINK/iot_link/network/lwm2m/wakaama_lwm2m/port\object_server.c ****             LWM2M_SERVER_STORING_ID,
 203:C:/Users/²Ü¼ÒºÀ/.iotlink/sdk/IoT_LINK/iot_link/network/lwm2m/wakaama_lwm2m/port\object_server.c ****             LWM2M_SERVER_BINDING_ID,
 204:C:/Users/²Ü¼ÒºÀ/.iotlink/sdk/IoT_LINK/iot_link/network/lwm2m/wakaama_lwm2m/port\object_server.c ****             LWM2M_SERVER_UPDATE_ID
 205:C:/Users/²Ü¼ÒºÀ/.iotlink/sdk/IoT_LINK/iot_link/network/lwm2m/wakaama_lwm2m/port\object_server.c ****         };
 206:C:/Users/²Ü¼ÒºÀ/.iotlink/sdk/IoT_LINK/iot_link/network/lwm2m/wakaama_lwm2m/port\object_server.c ****         int nbRes = sizeof(resList) / sizeof(uint16_t);
 207:C:/Users/²Ü¼ÒºÀ/.iotlink/sdk/IoT_LINK/iot_link/network/lwm2m/wakaama_lwm2m/port\object_server.c ****         *dataArrayP = lwm2m_data_new(nbRes);
 208:C:/Users/²Ü¼ÒºÀ/.iotlink/sdk/IoT_LINK/iot_link/network/lwm2m/wakaama_lwm2m/port\object_server.c **** 
 209:C:/Users/²Ü¼ÒºÀ/.iotlink/sdk/IoT_LINK/iot_link/network/lwm2m/wakaama_lwm2m/port\object_server.c ****         if (NULL == *dataArrayP) return COAP_500_INTERNAL_SERVER_ERROR;
 210:C:/Users/²Ü¼ÒºÀ/.iotlink/sdk/IoT_LINK/iot_link/network/lwm2m/wakaama_lwm2m/port\object_server.c **** 
 211:C:/Users/²Ü¼ÒºÀ/.iotlink/sdk/IoT_LINK/iot_link/network/lwm2m/wakaama_lwm2m/port\object_server.c ****         *numDataP = nbRes;
 212:C:/Users/²Ü¼ÒºÀ/.iotlink/sdk/IoT_LINK/iot_link/network/lwm2m/wakaama_lwm2m/port\object_server.c **** 
 213:C:/Users/²Ü¼ÒºÀ/.iotlink/sdk/IoT_LINK/iot_link/network/lwm2m/wakaama_lwm2m/port\object_server.c ****         for (i = 0; i < nbRes; i++)
 214:C:/Users/²Ü¼ÒºÀ/.iotlink/sdk/IoT_LINK/iot_link/network/lwm2m/wakaama_lwm2m/port\object_server.c ****         {
 215:C:/Users/²Ü¼ÒºÀ/.iotlink/sdk/IoT_LINK/iot_link/network/lwm2m/wakaama_lwm2m/port\object_server.c ****             (*dataArrayP)[i].id = resList[i];
 216:C:/Users/²Ü¼ÒºÀ/.iotlink/sdk/IoT_LINK/iot_link/network/lwm2m/wakaama_lwm2m/port\object_server.c ****         }
 217:C:/Users/²Ü¼ÒºÀ/.iotlink/sdk/IoT_LINK/iot_link/network/lwm2m/wakaama_lwm2m/port\object_server.c ****     }
 218:C:/Users/²Ü¼ÒºÀ/.iotlink/sdk/IoT_LINK/iot_link/network/lwm2m/wakaama_lwm2m/port\object_server.c ****     else
 219:C:/Users/²Ü¼ÒºÀ/.iotlink/sdk/IoT_LINK/iot_link/network/lwm2m/wakaama_lwm2m/port\object_server.c ****     {
 220:C:/Users/²Ü¼ÒºÀ/.iotlink/sdk/IoT_LINK/iot_link/network/lwm2m/wakaama_lwm2m/port\object_server.c ****         for (i = 0; (i < *numDataP) && (COAP_205_CONTENT == result); i++)
 221:C:/Users/²Ü¼ÒºÀ/.iotlink/sdk/IoT_LINK/iot_link/network/lwm2m/wakaama_lwm2m/port\object_server.c ****         {
 222:C:/Users/²Ü¼ÒºÀ/.iotlink/sdk/IoT_LINK/iot_link/network/lwm2m/wakaama_lwm2m/port\object_server.c ****             switch ((*dataArrayP)[i].id)
 223:C:/Users/²Ü¼ÒºÀ/.iotlink/sdk/IoT_LINK/iot_link/network/lwm2m/wakaama_lwm2m/port\object_server.c ****             {
 224:C:/Users/²Ü¼ÒºÀ/.iotlink/sdk/IoT_LINK/iot_link/network/lwm2m/wakaama_lwm2m/port\object_server.c ****                 case LWM2M_SERVER_SHORT_ID_ID:
 225:C:/Users/²Ü¼ÒºÀ/.iotlink/sdk/IoT_LINK/iot_link/network/lwm2m/wakaama_lwm2m/port\object_server.c ****                 case LWM2M_SERVER_LIFETIME_ID:
 226:C:/Users/²Ü¼ÒºÀ/.iotlink/sdk/IoT_LINK/iot_link/network/lwm2m/wakaama_lwm2m/port\object_server.c ****                 case LWM2M_SERVER_MIN_PERIOD_ID:
 227:C:/Users/²Ü¼ÒºÀ/.iotlink/sdk/IoT_LINK/iot_link/network/lwm2m/wakaama_lwm2m/port\object_server.c ****                 case LWM2M_SERVER_MAX_PERIOD_ID:
 228:C:/Users/²Ü¼ÒºÀ/.iotlink/sdk/IoT_LINK/iot_link/network/lwm2m/wakaama_lwm2m/port\object_server.c ****                 case LWM2M_SERVER_DISABLE_ID:
 229:C:/Users/²Ü¼ÒºÀ/.iotlink/sdk/IoT_LINK/iot_link/network/lwm2m/wakaama_lwm2m/port\object_server.c ****                 case LWM2M_SERVER_TIMEOUT_ID:
 230:C:/Users/²Ü¼ÒºÀ/.iotlink/sdk/IoT_LINK/iot_link/network/lwm2m/wakaama_lwm2m/port\object_server.c ****                 case LWM2M_SERVER_STORING_ID:
 231:C:/Users/²Ü¼ÒºÀ/.iotlink/sdk/IoT_LINK/iot_link/network/lwm2m/wakaama_lwm2m/port\object_server.c ****                 case LWM2M_SERVER_BINDING_ID:
 232:C:/Users/²Ü¼ÒºÀ/.iotlink/sdk/IoT_LINK/iot_link/network/lwm2m/wakaama_lwm2m/port\object_server.c ****                 case LWM2M_SERVER_UPDATE_ID:
 233:C:/Users/²Ü¼ÒºÀ/.iotlink/sdk/IoT_LINK/iot_link/network/lwm2m/wakaama_lwm2m/port\object_server.c ****                     break;
 234:C:/Users/²Ü¼ÒºÀ/.iotlink/sdk/IoT_LINK/iot_link/network/lwm2m/wakaama_lwm2m/port\object_server.c **** 
 235:C:/Users/²Ü¼ÒºÀ/.iotlink/sdk/IoT_LINK/iot_link/network/lwm2m/wakaama_lwm2m/port\object_server.c ****                 default:
 236:C:/Users/²Ü¼ÒºÀ/.iotlink/sdk/IoT_LINK/iot_link/network/lwm2m/wakaama_lwm2m/port\object_server.c ****                     result = COAP_404_NOT_FOUND;
 237:C:/Users/²Ü¼ÒºÀ/.iotlink/sdk/IoT_LINK/iot_link/network/lwm2m/wakaama_lwm2m/port\object_server.c ****             }
 238:C:/Users/²Ü¼ÒºÀ/.iotlink/sdk/IoT_LINK/iot_link/network/lwm2m/wakaama_lwm2m/port\object_server.c ****         }
 239:C:/Users/²Ü¼ÒºÀ/.iotlink/sdk/IoT_LINK/iot_link/network/lwm2m/wakaama_lwm2m/port\object_server.c ****     }
 240:C:/Users/²Ü¼ÒºÀ/.iotlink/sdk/IoT_LINK/iot_link/network/lwm2m/wakaama_lwm2m/port\object_server.c **** 
 241:C:/Users/²Ü¼ÒºÀ/.iotlink/sdk/IoT_LINK/iot_link/network/lwm2m/wakaama_lwm2m/port\object_server.c ****     return result;
 242:C:/Users/²Ü¼ÒºÀ/.iotlink/sdk/IoT_LINK/iot_link/network/lwm2m/wakaama_lwm2m/port\object_server.c **** }
 243:C:/Users/²Ü¼ÒºÀ/.iotlink/sdk/IoT_LINK/iot_link/network/lwm2m/wakaama_lwm2m/port\object_server.c **** 
 244:C:/Users/²Ü¼ÒºÀ/.iotlink/sdk/IoT_LINK/iot_link/network/lwm2m/wakaama_lwm2m/port\object_server.c **** static uint8_t prv_set_int_value(lwm2m_data_t *dataArray, uint32_t *data)
 245:C:/Users/²Ü¼ÒºÀ/.iotlink/sdk/IoT_LINK/iot_link/network/lwm2m/wakaama_lwm2m/port\object_server.c **** {
 246:C:/Users/²Ü¼ÒºÀ/.iotlink/sdk/IoT_LINK/iot_link/network/lwm2m/wakaama_lwm2m/port\object_server.c ****     uint8_t result;
 247:C:/Users/²Ü¼ÒºÀ/.iotlink/sdk/IoT_LINK/iot_link/network/lwm2m/wakaama_lwm2m/port\object_server.c ****     int64_t value;
 248:C:/Users/²Ü¼ÒºÀ/.iotlink/sdk/IoT_LINK/iot_link/network/lwm2m/wakaama_lwm2m/port\object_server.c **** 
 249:C:/Users/²Ü¼ÒºÀ/.iotlink/sdk/IoT_LINK/iot_link/network/lwm2m/wakaama_lwm2m/port\object_server.c ****     if (1 == lwm2m_data_decode_int(dataArray, &value))
 250:C:/Users/²Ü¼ÒºÀ/.iotlink/sdk/IoT_LINK/iot_link/network/lwm2m/wakaama_lwm2m/port\object_server.c ****     {
 251:C:/Users/²Ü¼ÒºÀ/.iotlink/sdk/IoT_LINK/iot_link/network/lwm2m/wakaama_lwm2m/port\object_server.c ****         if (value >= 0 && value <= 0xFFFFFFFF)
 252:C:/Users/²Ü¼ÒºÀ/.iotlink/sdk/IoT_LINK/iot_link/network/lwm2m/wakaama_lwm2m/port\object_server.c ****         {
 253:C:/Users/²Ü¼ÒºÀ/.iotlink/sdk/IoT_LINK/iot_link/network/lwm2m/wakaama_lwm2m/port\object_server.c ****             *data = value;
 254:C:/Users/²Ü¼ÒºÀ/.iotlink/sdk/IoT_LINK/iot_link/network/lwm2m/wakaama_lwm2m/port\object_server.c ****             result = COAP_204_CHANGED;
 255:C:/Users/²Ü¼ÒºÀ/.iotlink/sdk/IoT_LINK/iot_link/network/lwm2m/wakaama_lwm2m/port\object_server.c ****         }
 256:C:/Users/²Ü¼ÒºÀ/.iotlink/sdk/IoT_LINK/iot_link/network/lwm2m/wakaama_lwm2m/port\object_server.c ****         else
 257:C:/Users/²Ü¼ÒºÀ/.iotlink/sdk/IoT_LINK/iot_link/network/lwm2m/wakaama_lwm2m/port\object_server.c ****         {
 258:C:/Users/²Ü¼ÒºÀ/.iotlink/sdk/IoT_LINK/iot_link/network/lwm2m/wakaama_lwm2m/port\object_server.c ****             result = COAP_406_NOT_ACCEPTABLE;
ARM GAS  C:\Users\²Ü¼ÒºÀ\AppData\Local\Temp\ccFNKTFQ.s 			page 6


 259:C:/Users/²Ü¼ÒºÀ/.iotlink/sdk/IoT_LINK/iot_link/network/lwm2m/wakaama_lwm2m/port\object_server.c ****         }
 260:C:/Users/²Ü¼ÒºÀ/.iotlink/sdk/IoT_LINK/iot_link/network/lwm2m/wakaama_lwm2m/port\object_server.c ****     }
 261:C:/Users/²Ü¼ÒºÀ/.iotlink/sdk/IoT_LINK/iot_link/network/lwm2m/wakaama_lwm2m/port\object_server.c ****     else
 262:C:/Users/²Ü¼ÒºÀ/.iotlink/sdk/IoT_LINK/iot_link/network/lwm2m/wakaama_lwm2m/port\object_server.c ****     {
 263:C:/Users/²Ü¼ÒºÀ/.iotlink/sdk/IoT_LINK/iot_link/network/lwm2m/wakaama_lwm2m/port\object_server.c ****         result = COAP_400_BAD_REQUEST;
 264:C:/Users/²Ü¼ÒºÀ/.iotlink/sdk/IoT_LINK/iot_link/network/lwm2m/wakaama_lwm2m/port\object_server.c ****     }
 265:C:/Users/²Ü¼ÒºÀ/.iotlink/sdk/IoT_LINK/iot_link/network/lwm2m/wakaama_lwm2m/port\object_server.c **** 
 266:C:/Users/²Ü¼ÒºÀ/.iotlink/sdk/IoT_LINK/iot_link/network/lwm2m/wakaama_lwm2m/port\object_server.c ****     return result;
 267:C:/Users/²Ü¼ÒºÀ/.iotlink/sdk/IoT_LINK/iot_link/network/lwm2m/wakaama_lwm2m/port\object_server.c **** }
 268:C:/Users/²Ü¼ÒºÀ/.iotlink/sdk/IoT_LINK/iot_link/network/lwm2m/wakaama_lwm2m/port\object_server.c **** 
 269:C:/Users/²Ü¼ÒºÀ/.iotlink/sdk/IoT_LINK/iot_link/network/lwm2m/wakaama_lwm2m/port\object_server.c **** bool prv_server_check_binding_valid(const char *binding, size_t size)
 270:C:/Users/²Ü¼ÒºÀ/.iotlink/sdk/IoT_LINK/iot_link/network/lwm2m/wakaama_lwm2m/port\object_server.c **** {
 271:C:/Users/²Ü¼ÒºÀ/.iotlink/sdk/IoT_LINK/iot_link/network/lwm2m/wakaama_lwm2m/port\object_server.c ****     if ((NULL != binding) && (strncmp(binding, "U", size) == 0
 272:C:/Users/²Ü¼ÒºÀ/.iotlink/sdk/IoT_LINK/iot_link/network/lwm2m/wakaama_lwm2m/port\object_server.c ****                               || strncmp(binding, "UQ", size) == 0
 273:C:/Users/²Ü¼ÒºÀ/.iotlink/sdk/IoT_LINK/iot_link/network/lwm2m/wakaama_lwm2m/port\object_server.c ****                               || strncmp(binding, "S", size) == 0
 274:C:/Users/²Ü¼ÒºÀ/.iotlink/sdk/IoT_LINK/iot_link/network/lwm2m/wakaama_lwm2m/port\object_server.c ****                               || strncmp(binding, "SQ", size) == 0
 275:C:/Users/²Ü¼ÒºÀ/.iotlink/sdk/IoT_LINK/iot_link/network/lwm2m/wakaama_lwm2m/port\object_server.c ****                               || strncmp(binding, "US", size) == 0
 276:C:/Users/²Ü¼ÒºÀ/.iotlink/sdk/IoT_LINK/iot_link/network/lwm2m/wakaama_lwm2m/port\object_server.c ****                               || strncmp(binding, "UQS", size) == 0))
 277:C:/Users/²Ü¼ÒºÀ/.iotlink/sdk/IoT_LINK/iot_link/network/lwm2m/wakaama_lwm2m/port\object_server.c ****     {
 278:C:/Users/²Ü¼ÒºÀ/.iotlink/sdk/IoT_LINK/iot_link/network/lwm2m/wakaama_lwm2m/port\object_server.c ****         return true;
 279:C:/Users/²Ü¼ÒºÀ/.iotlink/sdk/IoT_LINK/iot_link/network/lwm2m/wakaama_lwm2m/port\object_server.c ****     }
 280:C:/Users/²Ü¼ÒºÀ/.iotlink/sdk/IoT_LINK/iot_link/network/lwm2m/wakaama_lwm2m/port\object_server.c ****     else
 281:C:/Users/²Ü¼ÒºÀ/.iotlink/sdk/IoT_LINK/iot_link/network/lwm2m/wakaama_lwm2m/port\object_server.c ****     {
 282:C:/Users/²Ü¼ÒºÀ/.iotlink/sdk/IoT_LINK/iot_link/network/lwm2m/wakaama_lwm2m/port\object_server.c ****         return false;
 283:C:/Users/²Ü¼ÒºÀ/.iotlink/sdk/IoT_LINK/iot_link/network/lwm2m/wakaama_lwm2m/port\object_server.c ****     }
 284:C:/Users/²Ü¼ÒºÀ/.iotlink/sdk/IoT_LINK/iot_link/network/lwm2m/wakaama_lwm2m/port\object_server.c **** }
 285:C:/Users/²Ü¼ÒºÀ/.iotlink/sdk/IoT_LINK/iot_link/network/lwm2m/wakaama_lwm2m/port\object_server.c **** static uint8_t prv_server_write(uint16_t instanceId,
 286:C:/Users/²Ü¼ÒºÀ/.iotlink/sdk/IoT_LINK/iot_link/network/lwm2m/wakaama_lwm2m/port\object_server.c ****                                 int numData,
 287:C:/Users/²Ü¼ÒºÀ/.iotlink/sdk/IoT_LINK/iot_link/network/lwm2m/wakaama_lwm2m/port\object_server.c ****                                 lwm2m_data_t *dataArray,
 288:C:/Users/²Ü¼ÒºÀ/.iotlink/sdk/IoT_LINK/iot_link/network/lwm2m/wakaama_lwm2m/port\object_server.c ****                                 lwm2m_object_t *objectP)
 289:C:/Users/²Ü¼ÒºÀ/.iotlink/sdk/IoT_LINK/iot_link/network/lwm2m/wakaama_lwm2m/port\object_server.c **** {
 290:C:/Users/²Ü¼ÒºÀ/.iotlink/sdk/IoT_LINK/iot_link/network/lwm2m/wakaama_lwm2m/port\object_server.c ****     char uri[MAX_STRURI_LEN] = {0};
 291:C:/Users/²Ü¼ÒºÀ/.iotlink/sdk/IoT_LINK/iot_link/network/lwm2m/wakaama_lwm2m/port\object_server.c ****     server_instance_t *targetP;
 292:C:/Users/²Ü¼ÒºÀ/.iotlink/sdk/IoT_LINK/iot_link/network/lwm2m/wakaama_lwm2m/port\object_server.c ****     int i;
 293:C:/Users/²Ü¼ÒºÀ/.iotlink/sdk/IoT_LINK/iot_link/network/lwm2m/wakaama_lwm2m/port\object_server.c ****     uint8_t result;
 294:C:/Users/²Ü¼ÒºÀ/.iotlink/sdk/IoT_LINK/iot_link/network/lwm2m/wakaama_lwm2m/port\object_server.c ****     targetP = (server_instance_t *)lwm2m_list_find(objectP->instanceList, instanceId);
 295:C:/Users/²Ü¼ÒºÀ/.iotlink/sdk/IoT_LINK/iot_link/network/lwm2m/wakaama_lwm2m/port\object_server.c **** 
 296:C:/Users/²Ü¼ÒºÀ/.iotlink/sdk/IoT_LINK/iot_link/network/lwm2m/wakaama_lwm2m/port\object_server.c ****     if (NULL == targetP)
 297:C:/Users/²Ü¼ÒºÀ/.iotlink/sdk/IoT_LINK/iot_link/network/lwm2m/wakaama_lwm2m/port\object_server.c ****     {
 298:C:/Users/²Ü¼ÒºÀ/.iotlink/sdk/IoT_LINK/iot_link/network/lwm2m/wakaama_lwm2m/port\object_server.c ****         return COAP_404_NOT_FOUND;
 299:C:/Users/²Ü¼ÒºÀ/.iotlink/sdk/IoT_LINK/iot_link/network/lwm2m/wakaama_lwm2m/port\object_server.c ****     }
 300:C:/Users/²Ü¼ÒºÀ/.iotlink/sdk/IoT_LINK/iot_link/network/lwm2m/wakaama_lwm2m/port\object_server.c **** 
 301:C:/Users/²Ü¼ÒºÀ/.iotlink/sdk/IoT_LINK/iot_link/network/lwm2m/wakaama_lwm2m/port\object_server.c ****     i = 0;
 302:C:/Users/²Ü¼ÒºÀ/.iotlink/sdk/IoT_LINK/iot_link/network/lwm2m/wakaama_lwm2m/port\object_server.c **** 
 303:C:/Users/²Ü¼ÒºÀ/.iotlink/sdk/IoT_LINK/iot_link/network/lwm2m/wakaama_lwm2m/port\object_server.c ****     do
 304:C:/Users/²Ü¼ÒºÀ/.iotlink/sdk/IoT_LINK/iot_link/network/lwm2m/wakaama_lwm2m/port\object_server.c ****     {
 305:C:/Users/²Ü¼ÒºÀ/.iotlink/sdk/IoT_LINK/iot_link/network/lwm2m/wakaama_lwm2m/port\object_server.c ****         switch (dataArray[i].id)
 306:C:/Users/²Ü¼ÒºÀ/.iotlink/sdk/IoT_LINK/iot_link/network/lwm2m/wakaama_lwm2m/port\object_server.c ****         {
 307:C:/Users/²Ü¼ÒºÀ/.iotlink/sdk/IoT_LINK/iot_link/network/lwm2m/wakaama_lwm2m/port\object_server.c ****             case LWM2M_SERVER_SHORT_ID_ID:
 308:C:/Users/²Ü¼ÒºÀ/.iotlink/sdk/IoT_LINK/iot_link/network/lwm2m/wakaama_lwm2m/port\object_server.c ****             {
 309:C:/Users/²Ü¼ÒºÀ/.iotlink/sdk/IoT_LINK/iot_link/network/lwm2m/wakaama_lwm2m/port\object_server.c ****                 uint32_t value = targetP->shortServerId;
 310:C:/Users/²Ü¼ÒºÀ/.iotlink/sdk/IoT_LINK/iot_link/network/lwm2m/wakaama_lwm2m/port\object_server.c ****                 result = prv_set_int_value(dataArray + i, &value);
 311:C:/Users/²Ü¼ÒºÀ/.iotlink/sdk/IoT_LINK/iot_link/network/lwm2m/wakaama_lwm2m/port\object_server.c **** 
 312:C:/Users/²Ü¼ÒºÀ/.iotlink/sdk/IoT_LINK/iot_link/network/lwm2m/wakaama_lwm2m/port\object_server.c ****                 if (COAP_204_CHANGED == result)
 313:C:/Users/²Ü¼ÒºÀ/.iotlink/sdk/IoT_LINK/iot_link/network/lwm2m/wakaama_lwm2m/port\object_server.c ****                 {
 314:C:/Users/²Ü¼ÒºÀ/.iotlink/sdk/IoT_LINK/iot_link/network/lwm2m/wakaama_lwm2m/port\object_server.c ****                     if (0 < value && 0xFFFF >= value)
 315:C:/Users/²Ü¼ÒºÀ/.iotlink/sdk/IoT_LINK/iot_link/network/lwm2m/wakaama_lwm2m/port\object_server.c ****                     {
ARM GAS  C:\Users\²Ü¼ÒºÀ\AppData\Local\Temp\ccFNKTFQ.s 			page 7


 316:C:/Users/²Ü¼ÒºÀ/.iotlink/sdk/IoT_LINK/iot_link/network/lwm2m/wakaama_lwm2m/port\object_server.c ****                         targetP->shortServerId = value;
 317:C:/Users/²Ü¼ÒºÀ/.iotlink/sdk/IoT_LINK/iot_link/network/lwm2m/wakaama_lwm2m/port\object_server.c ****                     }
 318:C:/Users/²Ü¼ÒºÀ/.iotlink/sdk/IoT_LINK/iot_link/network/lwm2m/wakaama_lwm2m/port\object_server.c ****                     else
 319:C:/Users/²Ü¼ÒºÀ/.iotlink/sdk/IoT_LINK/iot_link/network/lwm2m/wakaama_lwm2m/port\object_server.c ****                     {
 320:C:/Users/²Ü¼ÒºÀ/.iotlink/sdk/IoT_LINK/iot_link/network/lwm2m/wakaama_lwm2m/port\object_server.c ****                         result = COAP_406_NOT_ACCEPTABLE;
 321:C:/Users/²Ü¼ÒºÀ/.iotlink/sdk/IoT_LINK/iot_link/network/lwm2m/wakaama_lwm2m/port\object_server.c ****                     }
 322:C:/Users/²Ü¼ÒºÀ/.iotlink/sdk/IoT_LINK/iot_link/network/lwm2m/wakaama_lwm2m/port\object_server.c ****                 }
 323:C:/Users/²Ü¼ÒºÀ/.iotlink/sdk/IoT_LINK/iot_link/network/lwm2m/wakaama_lwm2m/port\object_server.c ****             }
 324:C:/Users/²Ü¼ÒºÀ/.iotlink/sdk/IoT_LINK/iot_link/network/lwm2m/wakaama_lwm2m/port\object_server.c ****             break;
 325:C:/Users/²Ü¼ÒºÀ/.iotlink/sdk/IoT_LINK/iot_link/network/lwm2m/wakaama_lwm2m/port\object_server.c **** 
 326:C:/Users/²Ü¼ÒºÀ/.iotlink/sdk/IoT_LINK/iot_link/network/lwm2m/wakaama_lwm2m/port\object_server.c ****             case LWM2M_SERVER_LIFETIME_ID:
 327:C:/Users/²Ü¼ÒºÀ/.iotlink/sdk/IoT_LINK/iot_link/network/lwm2m/wakaama_lwm2m/port\object_server.c ****                 result = prv_set_int_value(dataArray + i, (uint32_t *) & (targetP->lifetime));
 328:C:/Users/²Ü¼ÒºÀ/.iotlink/sdk/IoT_LINK/iot_link/network/lwm2m/wakaama_lwm2m/port\object_server.c ****                 break;
 329:C:/Users/²Ü¼ÒºÀ/.iotlink/sdk/IoT_LINK/iot_link/network/lwm2m/wakaama_lwm2m/port\object_server.c **** 
 330:C:/Users/²Ü¼ÒºÀ/.iotlink/sdk/IoT_LINK/iot_link/network/lwm2m/wakaama_lwm2m/port\object_server.c ****             case LWM2M_SERVER_MIN_PERIOD_ID:
 331:C:/Users/²Ü¼ÒºÀ/.iotlink/sdk/IoT_LINK/iot_link/network/lwm2m/wakaama_lwm2m/port\object_server.c ****                 result = prv_set_int_value(dataArray + i, &(targetP->defaultMinPeriod));
 332:C:/Users/²Ü¼ÒºÀ/.iotlink/sdk/IoT_LINK/iot_link/network/lwm2m/wakaama_lwm2m/port\object_server.c ****                 break;
 333:C:/Users/²Ü¼ÒºÀ/.iotlink/sdk/IoT_LINK/iot_link/network/lwm2m/wakaama_lwm2m/port\object_server.c **** 
 334:C:/Users/²Ü¼ÒºÀ/.iotlink/sdk/IoT_LINK/iot_link/network/lwm2m/wakaama_lwm2m/port\object_server.c ****             case LWM2M_SERVER_MAX_PERIOD_ID:
 335:C:/Users/²Ü¼ÒºÀ/.iotlink/sdk/IoT_LINK/iot_link/network/lwm2m/wakaama_lwm2m/port\object_server.c ****                 result = prv_set_int_value(dataArray + i, &(targetP->defaultMaxPeriod));
 336:C:/Users/²Ü¼ÒºÀ/.iotlink/sdk/IoT_LINK/iot_link/network/lwm2m/wakaama_lwm2m/port\object_server.c ****                 break;
 337:C:/Users/²Ü¼ÒºÀ/.iotlink/sdk/IoT_LINK/iot_link/network/lwm2m/wakaama_lwm2m/port\object_server.c **** 
 338:C:/Users/²Ü¼ÒºÀ/.iotlink/sdk/IoT_LINK/iot_link/network/lwm2m/wakaama_lwm2m/port\object_server.c ****             case LWM2M_SERVER_DISABLE_ID:
 339:C:/Users/²Ü¼ÒºÀ/.iotlink/sdk/IoT_LINK/iot_link/network/lwm2m/wakaama_lwm2m/port\object_server.c ****                 result = COAP_405_METHOD_NOT_ALLOWED;
 340:C:/Users/²Ü¼ÒºÀ/.iotlink/sdk/IoT_LINK/iot_link/network/lwm2m/wakaama_lwm2m/port\object_server.c ****                 break;
 341:C:/Users/²Ü¼ÒºÀ/.iotlink/sdk/IoT_LINK/iot_link/network/lwm2m/wakaama_lwm2m/port\object_server.c **** 
 342:C:/Users/²Ü¼ÒºÀ/.iotlink/sdk/IoT_LINK/iot_link/network/lwm2m/wakaama_lwm2m/port\object_server.c ****             case LWM2M_SERVER_TIMEOUT_ID:
 343:C:/Users/²Ü¼ÒºÀ/.iotlink/sdk/IoT_LINK/iot_link/network/lwm2m/wakaama_lwm2m/port\object_server.c ****                 result = prv_set_int_value(dataArray + i, &(targetP->disableTimeout));
 344:C:/Users/²Ü¼ÒºÀ/.iotlink/sdk/IoT_LINK/iot_link/network/lwm2m/wakaama_lwm2m/port\object_server.c ****                 break;
 345:C:/Users/²Ü¼ÒºÀ/.iotlink/sdk/IoT_LINK/iot_link/network/lwm2m/wakaama_lwm2m/port\object_server.c **** 
 346:C:/Users/²Ü¼ÒºÀ/.iotlink/sdk/IoT_LINK/iot_link/network/lwm2m/wakaama_lwm2m/port\object_server.c ****             case LWM2M_SERVER_STORING_ID:
 347:C:/Users/²Ü¼ÒºÀ/.iotlink/sdk/IoT_LINK/iot_link/network/lwm2m/wakaama_lwm2m/port\object_server.c ****             {
 348:C:/Users/²Ü¼ÒºÀ/.iotlink/sdk/IoT_LINK/iot_link/network/lwm2m/wakaama_lwm2m/port\object_server.c ****                 bool value;
 349:C:/Users/²Ü¼ÒºÀ/.iotlink/sdk/IoT_LINK/iot_link/network/lwm2m/wakaama_lwm2m/port\object_server.c **** 
 350:C:/Users/²Ü¼ÒºÀ/.iotlink/sdk/IoT_LINK/iot_link/network/lwm2m/wakaama_lwm2m/port\object_server.c ****                 if (1 == lwm2m_data_decode_bool(dataArray + i, &value))
 351:C:/Users/²Ü¼ÒºÀ/.iotlink/sdk/IoT_LINK/iot_link/network/lwm2m/wakaama_lwm2m/port\object_server.c ****                 {
 352:C:/Users/²Ü¼ÒºÀ/.iotlink/sdk/IoT_LINK/iot_link/network/lwm2m/wakaama_lwm2m/port\object_server.c ****                     targetP->storing = value;
 353:C:/Users/²Ü¼ÒºÀ/.iotlink/sdk/IoT_LINK/iot_link/network/lwm2m/wakaama_lwm2m/port\object_server.c **** 
 354:C:/Users/²Ü¼ÒºÀ/.iotlink/sdk/IoT_LINK/iot_link/network/lwm2m/wakaama_lwm2m/port\object_server.c ****                     if (!value)
 355:C:/Users/²Ü¼ÒºÀ/.iotlink/sdk/IoT_LINK/iot_link/network/lwm2m/wakaama_lwm2m/port\object_server.c ****                     {
 356:C:/Users/²Ü¼ÒºÀ/.iotlink/sdk/IoT_LINK/iot_link/network/lwm2m/wakaama_lwm2m/port\object_server.c ****                         set_binary_app_data_object_rpt_max_cnt(value);
 357:C:/Users/²Ü¼ÒºÀ/.iotlink/sdk/IoT_LINK/iot_link/network/lwm2m/wakaama_lwm2m/port\object_server.c ****                     }
 358:C:/Users/²Ü¼ÒºÀ/.iotlink/sdk/IoT_LINK/iot_link/network/lwm2m/wakaama_lwm2m/port\object_server.c **** 
 359:C:/Users/²Ü¼ÒºÀ/.iotlink/sdk/IoT_LINK/iot_link/network/lwm2m/wakaama_lwm2m/port\object_server.c ****                     result = COAP_204_CHANGED;
 360:C:/Users/²Ü¼ÒºÀ/.iotlink/sdk/IoT_LINK/iot_link/network/lwm2m/wakaama_lwm2m/port\object_server.c ****                 }
 361:C:/Users/²Ü¼ÒºÀ/.iotlink/sdk/IoT_LINK/iot_link/network/lwm2m/wakaama_lwm2m/port\object_server.c ****                 else
 362:C:/Users/²Ü¼ÒºÀ/.iotlink/sdk/IoT_LINK/iot_link/network/lwm2m/wakaama_lwm2m/port\object_server.c ****                 {
 363:C:/Users/²Ü¼ÒºÀ/.iotlink/sdk/IoT_LINK/iot_link/network/lwm2m/wakaama_lwm2m/port\object_server.c ****                     result = COAP_400_BAD_REQUEST;
 364:C:/Users/²Ü¼ÒºÀ/.iotlink/sdk/IoT_LINK/iot_link/network/lwm2m/wakaama_lwm2m/port\object_server.c ****                 }
 365:C:/Users/²Ü¼ÒºÀ/.iotlink/sdk/IoT_LINK/iot_link/network/lwm2m/wakaama_lwm2m/port\object_server.c ****             }
 366:C:/Users/²Ü¼ÒºÀ/.iotlink/sdk/IoT_LINK/iot_link/network/lwm2m/wakaama_lwm2m/port\object_server.c ****             break;
 367:C:/Users/²Ü¼ÒºÀ/.iotlink/sdk/IoT_LINK/iot_link/network/lwm2m/wakaama_lwm2m/port\object_server.c **** 
 368:C:/Users/²Ü¼ÒºÀ/.iotlink/sdk/IoT_LINK/iot_link/network/lwm2m/wakaama_lwm2m/port\object_server.c ****             case LWM2M_SERVER_BINDING_ID:
 369:C:/Users/²Ü¼ÒºÀ/.iotlink/sdk/IoT_LINK/iot_link/network/lwm2m/wakaama_lwm2m/port\object_server.c ****                 if (((LWM2M_TYPE_STRING == dataArray[i].type) || (LWM2M_TYPE_OPAQUE == dataArray[i]
 370:C:/Users/²Ü¼ÒºÀ/.iotlink/sdk/IoT_LINK/iot_link/network/lwm2m/wakaama_lwm2m/port\object_server.c ****                     && (dataArray[i].value.asBuffer.length > 0) && (dataArray[i].value.asBuffer.len
 371:C:/Users/²Ü¼ÒºÀ/.iotlink/sdk/IoT_LINK/iot_link/network/lwm2m/wakaama_lwm2m/port\object_server.c ****                     && prv_server_check_binding_valid((char *)dataArray[i].value.asBuffer.buffer, d
 372:C:/Users/²Ü¼ÒºÀ/.iotlink/sdk/IoT_LINK/iot_link/network/lwm2m/wakaama_lwm2m/port\object_server.c ****                 {
ARM GAS  C:\Users\²Ü¼ÒºÀ\AppData\Local\Temp\ccFNKTFQ.s 			page 8


 373:C:/Users/²Ü¼ÒºÀ/.iotlink/sdk/IoT_LINK/iot_link/network/lwm2m/wakaama_lwm2m/port\object_server.c ****                     (void) memset(targetP->binding, 0, sizeof(targetP->binding));
 374:C:/Users/²Ü¼ÒºÀ/.iotlink/sdk/IoT_LINK/iot_link/network/lwm2m/wakaama_lwm2m/port\object_server.c ****                     (void) strncpy(targetP->binding, (char *)dataArray[i].value.asBuffer.buffer, da
 375:C:/Users/²Ü¼ÒºÀ/.iotlink/sdk/IoT_LINK/iot_link/network/lwm2m/wakaama_lwm2m/port\object_server.c ****                     result = COAP_204_CHANGED;
 376:C:/Users/²Ü¼ÒºÀ/.iotlink/sdk/IoT_LINK/iot_link/network/lwm2m/wakaama_lwm2m/port\object_server.c ****                 }
 377:C:/Users/²Ü¼ÒºÀ/.iotlink/sdk/IoT_LINK/iot_link/network/lwm2m/wakaama_lwm2m/port\object_server.c ****                 else
 378:C:/Users/²Ü¼ÒºÀ/.iotlink/sdk/IoT_LINK/iot_link/network/lwm2m/wakaama_lwm2m/port\object_server.c ****                 {
 379:C:/Users/²Ü¼ÒºÀ/.iotlink/sdk/IoT_LINK/iot_link/network/lwm2m/wakaama_lwm2m/port\object_server.c ****                     result = COAP_400_BAD_REQUEST;
 380:C:/Users/²Ü¼ÒºÀ/.iotlink/sdk/IoT_LINK/iot_link/network/lwm2m/wakaama_lwm2m/port\object_server.c ****                 }
 381:C:/Users/²Ü¼ÒºÀ/.iotlink/sdk/IoT_LINK/iot_link/network/lwm2m/wakaama_lwm2m/port\object_server.c **** 
 382:C:/Users/²Ü¼ÒºÀ/.iotlink/sdk/IoT_LINK/iot_link/network/lwm2m/wakaama_lwm2m/port\object_server.c ****                 break;
 383:C:/Users/²Ü¼ÒºÀ/.iotlink/sdk/IoT_LINK/iot_link/network/lwm2m/wakaama_lwm2m/port\object_server.c **** 
 384:C:/Users/²Ü¼ÒºÀ/.iotlink/sdk/IoT_LINK/iot_link/network/lwm2m/wakaama_lwm2m/port\object_server.c ****             case LWM2M_SERVER_UPDATE_ID:
 385:C:/Users/²Ü¼ÒºÀ/.iotlink/sdk/IoT_LINK/iot_link/network/lwm2m/wakaama_lwm2m/port\object_server.c ****                 result = COAP_405_METHOD_NOT_ALLOWED;
 386:C:/Users/²Ü¼ÒºÀ/.iotlink/sdk/IoT_LINK/iot_link/network/lwm2m/wakaama_lwm2m/port\object_server.c ****                 break;
 387:C:/Users/²Ü¼ÒºÀ/.iotlink/sdk/IoT_LINK/iot_link/network/lwm2m/wakaama_lwm2m/port\object_server.c **** 
 388:C:/Users/²Ü¼ÒºÀ/.iotlink/sdk/IoT_LINK/iot_link/network/lwm2m/wakaama_lwm2m/port\object_server.c ****             case LWM2M_SERVER_BSTRIGGER:
 389:C:/Users/²Ü¼ÒºÀ/.iotlink/sdk/IoT_LINK/iot_link/network/lwm2m/wakaama_lwm2m/port\object_server.c ****                 snprintf(uri, MAX_STRURI_LEN, URI_FMT, objectP->objID, instanceId, dataArray[i].id)
 390:C:/Users/²Ü¼ÒºÀ/.iotlink/sdk/IoT_LINK/iot_link/network/lwm2m/wakaama_lwm2m/port\object_server.c ****                 lwm2m_cmd_ioctl(LWM2M_CMD_TRIGER_SERVER_INITIATED_BS, NULL, 0, LWM2M_AL_OP_SERVERRE
 391:C:/Users/²Ü¼ÒºÀ/.iotlink/sdk/IoT_LINK/iot_link/network/lwm2m/wakaama_lwm2m/port\object_server.c ****                 result = COAP_204_CHANGED;
 392:C:/Users/²Ü¼ÒºÀ/.iotlink/sdk/IoT_LINK/iot_link/network/lwm2m/wakaama_lwm2m/port\object_server.c ****                 break;
 393:C:/Users/²Ü¼ÒºÀ/.iotlink/sdk/IoT_LINK/iot_link/network/lwm2m/wakaama_lwm2m/port\object_server.c **** 
 394:C:/Users/²Ü¼ÒºÀ/.iotlink/sdk/IoT_LINK/iot_link/network/lwm2m/wakaama_lwm2m/port\object_server.c ****             default:
 395:C:/Users/²Ü¼ÒºÀ/.iotlink/sdk/IoT_LINK/iot_link/network/lwm2m/wakaama_lwm2m/port\object_server.c ****                 return COAP_404_NOT_FOUND;
 396:C:/Users/²Ü¼ÒºÀ/.iotlink/sdk/IoT_LINK/iot_link/network/lwm2m/wakaama_lwm2m/port\object_server.c ****         }
 397:C:/Users/²Ü¼ÒºÀ/.iotlink/sdk/IoT_LINK/iot_link/network/lwm2m/wakaama_lwm2m/port\object_server.c **** 
 398:C:/Users/²Ü¼ÒºÀ/.iotlink/sdk/IoT_LINK/iot_link/network/lwm2m/wakaama_lwm2m/port\object_server.c ****         i++;
 399:C:/Users/²Ü¼ÒºÀ/.iotlink/sdk/IoT_LINK/iot_link/network/lwm2m/wakaama_lwm2m/port\object_server.c ****     }
 400:C:/Users/²Ü¼ÒºÀ/.iotlink/sdk/IoT_LINK/iot_link/network/lwm2m/wakaama_lwm2m/port\object_server.c ****     while ((i < numData) && (COAP_204_CHANGED == result));
 401:C:/Users/²Ü¼ÒºÀ/.iotlink/sdk/IoT_LINK/iot_link/network/lwm2m/wakaama_lwm2m/port\object_server.c **** 
 402:C:/Users/²Ü¼ÒºÀ/.iotlink/sdk/IoT_LINK/iot_link/network/lwm2m/wakaama_lwm2m/port\object_server.c ****     return result;
 403:C:/Users/²Ü¼ÒºÀ/.iotlink/sdk/IoT_LINK/iot_link/network/lwm2m/wakaama_lwm2m/port\object_server.c **** }
 404:C:/Users/²Ü¼ÒºÀ/.iotlink/sdk/IoT_LINK/iot_link/network/lwm2m/wakaama_lwm2m/port\object_server.c **** 
 405:C:/Users/²Ü¼ÒºÀ/.iotlink/sdk/IoT_LINK/iot_link/network/lwm2m/wakaama_lwm2m/port\object_server.c **** static uint8_t prv_server_execute(uint16_t instanceId,
 406:C:/Users/²Ü¼ÒºÀ/.iotlink/sdk/IoT_LINK/iot_link/network/lwm2m/wakaama_lwm2m/port\object_server.c ****                                   uint16_t resourceId,
 407:C:/Users/²Ü¼ÒºÀ/.iotlink/sdk/IoT_LINK/iot_link/network/lwm2m/wakaama_lwm2m/port\object_server.c ****                                   uint8_t *buffer,
 408:C:/Users/²Ü¼ÒºÀ/.iotlink/sdk/IoT_LINK/iot_link/network/lwm2m/wakaama_lwm2m/port\object_server.c ****                                   int length,
 409:C:/Users/²Ü¼ÒºÀ/.iotlink/sdk/IoT_LINK/iot_link/network/lwm2m/wakaama_lwm2m/port\object_server.c ****                                   lwm2m_object_t *objectP)
 410:C:/Users/²Ü¼ÒºÀ/.iotlink/sdk/IoT_LINK/iot_link/network/lwm2m/wakaama_lwm2m/port\object_server.c **** 
 411:C:/Users/²Ü¼ÒºÀ/.iotlink/sdk/IoT_LINK/iot_link/network/lwm2m/wakaama_lwm2m/port\object_server.c **** {
 412:C:/Users/²Ü¼ÒºÀ/.iotlink/sdk/IoT_LINK/iot_link/network/lwm2m/wakaama_lwm2m/port\object_server.c ****     char uri[MAX_STRURI_LEN] = {0};
 413:C:/Users/²Ü¼ÒºÀ/.iotlink/sdk/IoT_LINK/iot_link/network/lwm2m/wakaama_lwm2m/port\object_server.c ****     server_instance_t *targetP;
 414:C:/Users/²Ü¼ÒºÀ/.iotlink/sdk/IoT_LINK/iot_link/network/lwm2m/wakaama_lwm2m/port\object_server.c ****     targetP = (server_instance_t *)lwm2m_list_find(objectP->instanceList, instanceId);
 415:C:/Users/²Ü¼ÒºÀ/.iotlink/sdk/IoT_LINK/iot_link/network/lwm2m/wakaama_lwm2m/port\object_server.c **** 
 416:C:/Users/²Ü¼ÒºÀ/.iotlink/sdk/IoT_LINK/iot_link/network/lwm2m/wakaama_lwm2m/port\object_server.c ****     if (NULL == targetP) return COAP_404_NOT_FOUND;
 417:C:/Users/²Ü¼ÒºÀ/.iotlink/sdk/IoT_LINK/iot_link/network/lwm2m/wakaama_lwm2m/port\object_server.c **** 
 418:C:/Users/²Ü¼ÒºÀ/.iotlink/sdk/IoT_LINK/iot_link/network/lwm2m/wakaama_lwm2m/port\object_server.c ****     switch (resourceId)
 419:C:/Users/²Ü¼ÒºÀ/.iotlink/sdk/IoT_LINK/iot_link/network/lwm2m/wakaama_lwm2m/port\object_server.c ****     {
 420:C:/Users/²Ü¼ÒºÀ/.iotlink/sdk/IoT_LINK/iot_link/network/lwm2m/wakaama_lwm2m/port\object_server.c ****         case LWM2M_SERVER_DISABLE_ID:
 421:C:/Users/²Ü¼ÒºÀ/.iotlink/sdk/IoT_LINK/iot_link/network/lwm2m/wakaama_lwm2m/port\object_server.c **** 
 422:C:/Users/²Ü¼ÒºÀ/.iotlink/sdk/IoT_LINK/iot_link/network/lwm2m/wakaama_lwm2m/port\object_server.c ****             // executed in core, if COAP_204_CHANGED is returned
 423:C:/Users/²Ü¼ÒºÀ/.iotlink/sdk/IoT_LINK/iot_link/network/lwm2m/wakaama_lwm2m/port\object_server.c ****             if (0 < targetP->disableTimeout) return COAP_204_CHANGED;
 424:C:/Users/²Ü¼ÒºÀ/.iotlink/sdk/IoT_LINK/iot_link/network/lwm2m/wakaama_lwm2m/port\object_server.c ****             else return COAP_405_METHOD_NOT_ALLOWED;
 425:C:/Users/²Ü¼ÒºÀ/.iotlink/sdk/IoT_LINK/iot_link/network/lwm2m/wakaama_lwm2m/port\object_server.c **** 
 426:C:/Users/²Ü¼ÒºÀ/.iotlink/sdk/IoT_LINK/iot_link/network/lwm2m/wakaama_lwm2m/port\object_server.c ****         case LWM2M_SERVER_UPDATE_ID:
 427:C:/Users/²Ü¼ÒºÀ/.iotlink/sdk/IoT_LINK/iot_link/network/lwm2m/wakaama_lwm2m/port\object_server.c ****             // executed in core, if COAP_204_CHANGED is returned
 428:C:/Users/²Ü¼ÒºÀ/.iotlink/sdk/IoT_LINK/iot_link/network/lwm2m/wakaama_lwm2m/port\object_server.c ****             return COAP_204_CHANGED;
 429:C:/Users/²Ü¼ÒºÀ/.iotlink/sdk/IoT_LINK/iot_link/network/lwm2m/wakaama_lwm2m/port\object_server.c **** 
ARM GAS  C:\Users\²Ü¼ÒºÀ\AppData\Local\Temp\ccFNKTFQ.s 			page 9


 430:C:/Users/²Ü¼ÒºÀ/.iotlink/sdk/IoT_LINK/iot_link/network/lwm2m/wakaama_lwm2m/port\object_server.c ****         case LWM2M_SERVER_BSTRIGGER:
 431:C:/Users/²Ü¼ÒºÀ/.iotlink/sdk/IoT_LINK/iot_link/network/lwm2m/wakaama_lwm2m/port\object_server.c ****             snprintf(uri, MAX_STRURI_LEN, URI_FMT, objectP->objID, instanceId, resourceId);
 432:C:/Users/²Ü¼ÒºÀ/.iotlink/sdk/IoT_LINK/iot_link/network/lwm2m/wakaama_lwm2m/port\object_server.c ****             lwm2m_cmd_ioctl(LWM2M_CMD_TRIGER_SERVER_INITIATED_BS, NULL, 0, LWM2M_AL_OP_SERVERREBS, 
 433:C:/Users/²Ü¼ÒºÀ/.iotlink/sdk/IoT_LINK/iot_link/network/lwm2m/wakaama_lwm2m/port\object_server.c ****             return COAP_204_CHANGED;
 434:C:/Users/²Ü¼ÒºÀ/.iotlink/sdk/IoT_LINK/iot_link/network/lwm2m/wakaama_lwm2m/port\object_server.c ****             break;
 435:C:/Users/²Ü¼ÒºÀ/.iotlink/sdk/IoT_LINK/iot_link/network/lwm2m/wakaama_lwm2m/port\object_server.c **** 
 436:C:/Users/²Ü¼ÒºÀ/.iotlink/sdk/IoT_LINK/iot_link/network/lwm2m/wakaama_lwm2m/port\object_server.c ****         default:
 437:C:/Users/²Ü¼ÒºÀ/.iotlink/sdk/IoT_LINK/iot_link/network/lwm2m/wakaama_lwm2m/port\object_server.c ****             return COAP_405_METHOD_NOT_ALLOWED;
 438:C:/Users/²Ü¼ÒºÀ/.iotlink/sdk/IoT_LINK/iot_link/network/lwm2m/wakaama_lwm2m/port\object_server.c ****     }
 439:C:/Users/²Ü¼ÒºÀ/.iotlink/sdk/IoT_LINK/iot_link/network/lwm2m/wakaama_lwm2m/port\object_server.c **** }
 440:C:/Users/²Ü¼ÒºÀ/.iotlink/sdk/IoT_LINK/iot_link/network/lwm2m/wakaama_lwm2m/port\object_server.c **** 
 441:C:/Users/²Ü¼ÒºÀ/.iotlink/sdk/IoT_LINK/iot_link/network/lwm2m/wakaama_lwm2m/port\object_server.c **** static uint8_t prv_server_delete(uint16_t id,
 442:C:/Users/²Ü¼ÒºÀ/.iotlink/sdk/IoT_LINK/iot_link/network/lwm2m/wakaama_lwm2m/port\object_server.c ****                                  lwm2m_object_t *objectP)
 443:C:/Users/²Ü¼ÒºÀ/.iotlink/sdk/IoT_LINK/iot_link/network/lwm2m/wakaama_lwm2m/port\object_server.c **** {
  29              		.loc 1 443 1 view -0
  30              		.cfi_startproc
  31              		@ args = 0, pretend = 0, frame = 8
  32              		@ frame_needed = 0, uses_anonymous_args = 0
 444:C:/Users/²Ü¼ÒºÀ/.iotlink/sdk/IoT_LINK/iot_link/network/lwm2m/wakaama_lwm2m/port\object_server.c ****     server_instance_t *serverInstance;
  33              		.loc 1 444 5 view .LVU1
 445:C:/Users/²Ü¼ÒºÀ/.iotlink/sdk/IoT_LINK/iot_link/network/lwm2m/wakaama_lwm2m/port\object_server.c ****     objectP->instanceList = lwm2m_list_remove(objectP->instanceList, id, (lwm2m_list_t **)&serverIn
  34              		.loc 1 445 5 view .LVU2
 443:C:/Users/²Ü¼ÒºÀ/.iotlink/sdk/IoT_LINK/iot_link/network/lwm2m/wakaama_lwm2m/port\object_server.c ****     server_instance_t *serverInstance;
  35              		.loc 1 443 1 is_stmt 0 view .LVU3
  36 0000 13B5     		push	{r0, r1, r4, lr}
  37              	.LCFI0:
  38              		.cfi_def_cfa_offset 16
  39              		.cfi_offset 4, -8
  40              		.cfi_offset 14, -4
 443:C:/Users/²Ü¼ÒºÀ/.iotlink/sdk/IoT_LINK/iot_link/network/lwm2m/wakaama_lwm2m/port\object_server.c ****     server_instance_t *serverInstance;
  41              		.loc 1 443 1 view .LVU4
  42 0002 0C46     		mov	r4, r1
  43              		.loc 1 445 29 view .LVU5
  44 0004 01AA     		add	r2, sp, #4
  45 0006 0146     		mov	r1, r0
  46              	.LVL1:
  47              		.loc 1 445 29 view .LVU6
  48 0008 A068     		ldr	r0, [r4, #8]
  49              	.LVL2:
  50              		.loc 1 445 29 view .LVU7
  51 000a FFF7FEFF 		bl	lwm2m_list_remove
  52              	.LVL3:
  53              		.loc 1 445 27 view .LVU8
  54 000e A060     		str	r0, [r4, #8]
 446:C:/Users/²Ü¼ÒºÀ/.iotlink/sdk/IoT_LINK/iot_link/network/lwm2m/wakaama_lwm2m/port\object_server.c **** 
 447:C:/Users/²Ü¼ÒºÀ/.iotlink/sdk/IoT_LINK/iot_link/network/lwm2m/wakaama_lwm2m/port\object_server.c ****     if (NULL == serverInstance) return COAP_404_NOT_FOUND;
  55              		.loc 1 447 5 is_stmt 1 view .LVU9
  56              		.loc 1 447 14 is_stmt 0 view .LVU10
  57 0010 0198     		ldr	r0, [sp, #4]
  58              		.loc 1 447 8 view .LVU11
  59 0012 20B1     		cbz	r0, .L3
 448:C:/Users/²Ü¼ÒºÀ/.iotlink/sdk/IoT_LINK/iot_link/network/lwm2m/wakaama_lwm2m/port\object_server.c **** 
 449:C:/Users/²Ü¼ÒºÀ/.iotlink/sdk/IoT_LINK/iot_link/network/lwm2m/wakaama_lwm2m/port\object_server.c ****     lwm2m_free(serverInstance);
  60              		.loc 1 449 5 is_stmt 1 view .LVU12
  61 0014 FFF7FEFF 		bl	lwm2m_free
  62              	.LVL4:
 450:C:/Users/²Ü¼ÒºÀ/.iotlink/sdk/IoT_LINK/iot_link/network/lwm2m/wakaama_lwm2m/port\object_server.c ****     return COAP_202_DELETED;
ARM GAS  C:\Users\²Ü¼ÒºÀ\AppData\Local\Temp\ccFNKTFQ.s 			page 10


  63              		.loc 1 450 5 view .LVU13
  64              		.loc 1 450 12 is_stmt 0 view .LVU14
  65 0018 4220     		movs	r0, #66
  66              	.L2:
 451:C:/Users/²Ü¼ÒºÀ/.iotlink/sdk/IoT_LINK/iot_link/network/lwm2m/wakaama_lwm2m/port\object_server.c **** }
  67              		.loc 1 451 1 view .LVU15
  68 001a 02B0     		add	sp, sp, #8
  69              	.LCFI1:
  70              		.cfi_remember_state
  71              		.cfi_def_cfa_offset 8
  72              		@ sp needed
  73 001c 10BD     		pop	{r4, pc}
  74              	.LVL5:
  75              	.L3:
  76              	.LCFI2:
  77              		.cfi_restore_state
 447:C:/Users/²Ü¼ÒºÀ/.iotlink/sdk/IoT_LINK/iot_link/network/lwm2m/wakaama_lwm2m/port\object_server.c **** 
  78              		.loc 1 447 40 view .LVU16
  79 001e 8420     		movs	r0, #132
  80 0020 FBE7     		b	.L2
  81              		.cfi_endproc
  82              	.LFE19:
  84              		.section	.rodata.prv_server_execute.str1.1,"aMS",%progbits,1
  85              	.LC2:
  86 0000 2F25752F 		.ascii	"/%u/%u/%u\000"
  86      25752F25 
  86      7500
  87              		.section	.text.prv_server_execute,"ax",%progbits
  88              		.align	1
  89              		.syntax unified
  90              		.thumb
  91              		.thumb_func
  92              		.fpu fpv4-sp-d16
  94              	prv_server_execute:
  95              	.LVL6:
  96              	.LFB18:
 411:C:/Users/²Ü¼ÒºÀ/.iotlink/sdk/IoT_LINK/iot_link/network/lwm2m/wakaama_lwm2m/port\object_server.c ****     char uri[MAX_STRURI_LEN] = {0};
  97              		.loc 1 411 1 is_stmt 1 view -0
  98              		.cfi_startproc
  99              		@ args = 4, pretend = 0, frame = 24
 100              		@ frame_needed = 0, uses_anonymous_args = 0
 412:C:/Users/²Ü¼ÒºÀ/.iotlink/sdk/IoT_LINK/iot_link/network/lwm2m/wakaama_lwm2m/port\object_server.c ****     server_instance_t *targetP;
 101              		.loc 1 412 5 view .LVU18
 411:C:/Users/²Ü¼ÒºÀ/.iotlink/sdk/IoT_LINK/iot_link/network/lwm2m/wakaama_lwm2m/port\object_server.c ****     char uri[MAX_STRURI_LEN] = {0};
 102              		.loc 1 411 1 is_stmt 0 view .LVU19
 103 0000 2DE9F041 		push	{r4, r5, r6, r7, r8, lr}
 104              	.LCFI3:
 105              		.cfi_def_cfa_offset 24
 106              		.cfi_offset 4, -24
 107              		.cfi_offset 5, -20
 108              		.cfi_offset 6, -16
 109              		.cfi_offset 7, -12
 110              		.cfi_offset 8, -8
 111              		.cfi_offset 14, -4
 112 0004 88B0     		sub	sp, sp, #32
 113              	.LCFI4:
 114              		.cfi_def_cfa_offset 56
ARM GAS  C:\Users\²Ü¼ÒºÀ\AppData\Local\Temp\ccFNKTFQ.s 			page 11


 412:C:/Users/²Ü¼ÒºÀ/.iotlink/sdk/IoT_LINK/iot_link/network/lwm2m/wakaama_lwm2m/port\object_server.c ****     server_instance_t *targetP;
 115              		.loc 1 412 10 view .LVU20
 116 0006 0026     		movs	r6, #0
 411:C:/Users/²Ü¼ÒºÀ/.iotlink/sdk/IoT_LINK/iot_link/network/lwm2m/wakaama_lwm2m/port\object_server.c ****     char uri[MAX_STRURI_LEN] = {0};
 117              		.loc 1 411 1 view .LVU21
 118 0008 DDF83880 		ldr	r8, [sp, #56]
 412:C:/Users/²Ü¼ÒºÀ/.iotlink/sdk/IoT_LINK/iot_link/network/lwm2m/wakaama_lwm2m/port\object_server.c ****     server_instance_t *targetP;
 119              		.loc 1 412 10 view .LVU22
 120 000c 0396     		str	r6, [sp, #12]
 121 000e 1022     		movs	r2, #16
 122              	.LVL7:
 411:C:/Users/²Ü¼ÒºÀ/.iotlink/sdk/IoT_LINK/iot_link/network/lwm2m/wakaama_lwm2m/port\object_server.c ****     char uri[MAX_STRURI_LEN] = {0};
 123              		.loc 1 411 1 view .LVU23
 124 0010 0546     		mov	r5, r0
 125 0012 0C46     		mov	r4, r1
 412:C:/Users/²Ü¼ÒºÀ/.iotlink/sdk/IoT_LINK/iot_link/network/lwm2m/wakaama_lwm2m/port\object_server.c ****     server_instance_t *targetP;
 126              		.loc 1 412 10 view .LVU24
 127 0014 0DEB0200 		add	r0, sp, r2
 128              	.LVL8:
 412:C:/Users/²Ü¼ÒºÀ/.iotlink/sdk/IoT_LINK/iot_link/network/lwm2m/wakaama_lwm2m/port\object_server.c ****     server_instance_t *targetP;
 129              		.loc 1 412 10 view .LVU25
 130 0018 3146     		mov	r1, r6
 131              	.LVL9:
 412:C:/Users/²Ü¼ÒºÀ/.iotlink/sdk/IoT_LINK/iot_link/network/lwm2m/wakaama_lwm2m/port\object_server.c ****     server_instance_t *targetP;
 132              		.loc 1 412 10 view .LVU26
 133 001a FFF7FEFF 		bl	memset
 134              	.LVL10:
 413:C:/Users/²Ü¼ÒºÀ/.iotlink/sdk/IoT_LINK/iot_link/network/lwm2m/wakaama_lwm2m/port\object_server.c ****     targetP = (server_instance_t *)lwm2m_list_find(objectP->instanceList, instanceId);
 135              		.loc 1 413 5 is_stmt 1 view .LVU27
 414:C:/Users/²Ü¼ÒºÀ/.iotlink/sdk/IoT_LINK/iot_link/network/lwm2m/wakaama_lwm2m/port\object_server.c **** 
 136              		.loc 1 414 5 view .LVU28
 414:C:/Users/²Ü¼ÒºÀ/.iotlink/sdk/IoT_LINK/iot_link/network/lwm2m/wakaama_lwm2m/port\object_server.c **** 
 137              		.loc 1 414 36 is_stmt 0 view .LVU29
 138 001e D8F80800 		ldr	r0, [r8, #8]
 139 0022 2946     		mov	r1, r5
 140 0024 FFF7FEFF 		bl	lwm2m_list_find
 141              	.LVL11:
 416:C:/Users/²Ü¼ÒºÀ/.iotlink/sdk/IoT_LINK/iot_link/network/lwm2m/wakaama_lwm2m/port\object_server.c **** 
 142              		.loc 1 416 5 is_stmt 1 view .LVU30
 416:C:/Users/²Ü¼ÒºÀ/.iotlink/sdk/IoT_LINK/iot_link/network/lwm2m/wakaama_lwm2m/port\object_server.c **** 
 143              		.loc 1 416 8 is_stmt 0 view .LVU31
 144 0028 00B3     		cbz	r0, .L7
 418:C:/Users/²Ü¼ÒºÀ/.iotlink/sdk/IoT_LINK/iot_link/network/lwm2m/wakaama_lwm2m/port\object_server.c ****     {
 145              		.loc 1 418 5 is_stmt 1 view .LVU32
 146 002a 082C     		cmp	r4, #8
 147 002c 1CD0     		beq	.L8
 148 002e 092C     		cmp	r4, #9
 149 0030 09D0     		beq	.L6
 150 0032 042C     		cmp	r4, #4
 151 0034 1CD1     		bne	.L9
 423:C:/Users/²Ü¼ÒºÀ/.iotlink/sdk/IoT_LINK/iot_link/network/lwm2m/wakaama_lwm2m/port\object_server.c ****             else return COAP_405_METHOD_NOT_ALLOWED;
 152              		.loc 1 423 13 view .LVU33
 423:C:/Users/²Ü¼ÒºÀ/.iotlink/sdk/IoT_LINK/iot_link/network/lwm2m/wakaama_lwm2m/port\object_server.c ****             else return COAP_405_METHOD_NOT_ALLOWED;
 153              		.loc 1 423 16 is_stmt 0 view .LVU34
 154 0036 4369     		ldr	r3, [r0, #20]
 424:C:/Users/²Ü¼ÒºÀ/.iotlink/sdk/IoT_LINK/iot_link/network/lwm2m/wakaama_lwm2m/port\object_server.c **** 
 155              		.loc 1 424 25 view .LVU35
ARM GAS  C:\Users\²Ü¼ÒºÀ\AppData\Local\Temp\ccFNKTFQ.s 			page 12


 156 0038 B342     		cmp	r3, r6
 157 003a 14BF     		ite	ne
 158 003c 4420     		movne	r0, #68
 159              	.LVL12:
 424:C:/Users/²Ü¼ÒºÀ/.iotlink/sdk/IoT_LINK/iot_link/network/lwm2m/wakaama_lwm2m/port\object_server.c **** 
 160              		.loc 1 424 25 view .LVU36
 161 003e 8520     		moveq	r0, #133
 162              	.L5:
 439:C:/Users/²Ü¼ÒºÀ/.iotlink/sdk/IoT_LINK/iot_link/network/lwm2m/wakaama_lwm2m/port\object_server.c **** 
 163              		.loc 1 439 1 view .LVU37
 164 0040 08B0     		add	sp, sp, #32
 165              	.LCFI5:
 166              		.cfi_remember_state
 167              		.cfi_def_cfa_offset 24
 168              		@ sp needed
 169 0042 BDE8F081 		pop	{r4, r5, r6, r7, r8, pc}
 170              	.LVL13:
 171              	.L6:
 172              	.LCFI6:
 173              		.cfi_restore_state
 431:C:/Users/²Ü¼ÒºÀ/.iotlink/sdk/IoT_LINK/iot_link/network/lwm2m/wakaama_lwm2m/port\object_server.c ****             lwm2m_cmd_ioctl(LWM2M_CMD_TRIGER_SERVER_INITIATED_BS, NULL, 0, LWM2M_AL_OP_SERVERREBS, 
 174              		.loc 1 431 13 is_stmt 1 view .LVU38
 175 0046 CDE90054 		strd	r5, r4, [sp]
 176 004a 03AF     		add	r7, sp, #12
 177 004c B8F80430 		ldrh	r3, [r8, #4]
 178 0050 084A     		ldr	r2, .L11
 179 0052 1421     		movs	r1, #20
 180 0054 3846     		mov	r0, r7
 181              	.LVL14:
 431:C:/Users/²Ü¼ÒºÀ/.iotlink/sdk/IoT_LINK/iot_link/network/lwm2m/wakaama_lwm2m/port\object_server.c ****             lwm2m_cmd_ioctl(LWM2M_CMD_TRIGER_SERVER_INITIATED_BS, NULL, 0, LWM2M_AL_OP_SERVERREBS, 
 182              		.loc 1 431 13 is_stmt 0 view .LVU39
 183 0056 FFF7FEFF 		bl	snprintf
 184              	.LVL15:
 432:C:/Users/²Ü¼ÒºÀ/.iotlink/sdk/IoT_LINK/iot_link/network/lwm2m/wakaama_lwm2m/port\object_server.c ****             return COAP_204_CHANGED;
 185              		.loc 1 432 13 is_stmt 1 view .LVU40
 186 005a 0097     		str	r7, [sp]
 187 005c 0523     		movs	r3, #5
 188 005e 3246     		mov	r2, r6
 189 0060 3146     		mov	r1, r6
 190 0062 2520     		movs	r0, #37
 191 0064 FFF7FEFF 		bl	lwm2m_cmd_ioctl
 192              	.LVL16:
 433:C:/Users/²Ü¼ÒºÀ/.iotlink/sdk/IoT_LINK/iot_link/network/lwm2m/wakaama_lwm2m/port\object_server.c ****             break;
 193              		.loc 1 433 13 view .LVU41
 194              	.L8:
 428:C:/Users/²Ü¼ÒºÀ/.iotlink/sdk/IoT_LINK/iot_link/network/lwm2m/wakaama_lwm2m/port\object_server.c **** 
 195              		.loc 1 428 20 is_stmt 0 view .LVU42
 196 0068 4420     		movs	r0, #68
 197 006a E9E7     		b	.L5
 198              	.LVL17:
 199              	.L7:
 416:C:/Users/²Ü¼ÒºÀ/.iotlink/sdk/IoT_LINK/iot_link/network/lwm2m/wakaama_lwm2m/port\object_server.c **** 
 200              		.loc 1 416 33 view .LVU43
 201 006c 8420     		movs	r0, #132
 202              	.LVL18:
 416:C:/Users/²Ü¼ÒºÀ/.iotlink/sdk/IoT_LINK/iot_link/network/lwm2m/wakaama_lwm2m/port\object_server.c **** 
 203              		.loc 1 416 33 view .LVU44
ARM GAS  C:\Users\²Ü¼ÒºÀ\AppData\Local\Temp\ccFNKTFQ.s 			page 13


 204 006e E7E7     		b	.L5
 205              	.LVL19:
 206              	.L9:
 418:C:/Users/²Ü¼ÒºÀ/.iotlink/sdk/IoT_LINK/iot_link/network/lwm2m/wakaama_lwm2m/port\object_server.c ****     {
 207              		.loc 1 418 5 view .LVU45
 208 0070 8520     		movs	r0, #133
 209              	.LVL20:
 418:C:/Users/²Ü¼ÒºÀ/.iotlink/sdk/IoT_LINK/iot_link/network/lwm2m/wakaama_lwm2m/port\object_server.c ****     {
 210              		.loc 1 418 5 view .LVU46
 211 0072 E5E7     		b	.L5
 212              	.L12:
 213              		.align	2
 214              	.L11:
 215 0074 00000000 		.word	.LC2
 216              		.cfi_endproc
 217              	.LFE18:
 219              		.section	.text.prv_set_int_value,"ax",%progbits
 220              		.align	1
 221              		.syntax unified
 222              		.thumb
 223              		.thumb_func
 224              		.fpu fpv4-sp-d16
 226              	prv_set_int_value:
 227              	.LVL21:
 228              	.LFB15:
 245:C:/Users/²Ü¼ÒºÀ/.iotlink/sdk/IoT_LINK/iot_link/network/lwm2m/wakaama_lwm2m/port\object_server.c ****     uint8_t result;
 229              		.loc 1 245 1 is_stmt 1 view -0
 230              		.cfi_startproc
 231              		@ args = 0, pretend = 0, frame = 8
 232              		@ frame_needed = 0, uses_anonymous_args = 0
 246:C:/Users/²Ü¼ÒºÀ/.iotlink/sdk/IoT_LINK/iot_link/network/lwm2m/wakaama_lwm2m/port\object_server.c ****     int64_t value;
 233              		.loc 1 246 5 view .LVU48
 247:C:/Users/²Ü¼ÒºÀ/.iotlink/sdk/IoT_LINK/iot_link/network/lwm2m/wakaama_lwm2m/port\object_server.c **** 
 234              		.loc 1 247 5 view .LVU49
 249:C:/Users/²Ü¼ÒºÀ/.iotlink/sdk/IoT_LINK/iot_link/network/lwm2m/wakaama_lwm2m/port\object_server.c ****     {
 235              		.loc 1 249 5 view .LVU50
 245:C:/Users/²Ü¼ÒºÀ/.iotlink/sdk/IoT_LINK/iot_link/network/lwm2m/wakaama_lwm2m/port\object_server.c ****     uint8_t result;
 236              		.loc 1 245 1 is_stmt 0 view .LVU51
 237 0000 13B5     		push	{r0, r1, r4, lr}
 238              	.LCFI7:
 239              		.cfi_def_cfa_offset 16
 240              		.cfi_offset 4, -8
 241              		.cfi_offset 14, -4
 245:C:/Users/²Ü¼ÒºÀ/.iotlink/sdk/IoT_LINK/iot_link/network/lwm2m/wakaama_lwm2m/port\object_server.c ****     uint8_t result;
 242              		.loc 1 245 1 view .LVU52
 243 0002 0C46     		mov	r4, r1
 249:C:/Users/²Ü¼ÒºÀ/.iotlink/sdk/IoT_LINK/iot_link/network/lwm2m/wakaama_lwm2m/port\object_server.c ****     {
 244              		.loc 1 249 14 view .LVU53
 245 0004 6946     		mov	r1, sp
 246              	.LVL22:
 249:C:/Users/²Ü¼ÒºÀ/.iotlink/sdk/IoT_LINK/iot_link/network/lwm2m/wakaama_lwm2m/port\object_server.c ****     {
 247              		.loc 1 249 14 view .LVU54
 248 0006 FFF7FEFF 		bl	lwm2m_data_decode_int
 249              	.LVL23:
 249:C:/Users/²Ü¼ÒºÀ/.iotlink/sdk/IoT_LINK/iot_link/network/lwm2m/wakaama_lwm2m/port\object_server.c ****     {
 250              		.loc 1 249 8 view .LVU55
 251 000a 0128     		cmp	r0, #1
ARM GAS  C:\Users\²Ü¼ÒºÀ\AppData\Local\Temp\ccFNKTFQ.s 			page 14


 252 000c 09D1     		bne	.L15
 251:C:/Users/²Ü¼ÒºÀ/.iotlink/sdk/IoT_LINK/iot_link/network/lwm2m/wakaama_lwm2m/port\object_server.c ****         {
 253              		.loc 1 251 9 is_stmt 1 view .LVU56
 251:C:/Users/²Ü¼ÒºÀ/.iotlink/sdk/IoT_LINK/iot_link/network/lwm2m/wakaama_lwm2m/port\object_server.c ****         {
 254              		.loc 1 251 24 is_stmt 0 view .LVU57
 255 000e DDE90023 		ldrd	r2, [sp]
 251:C:/Users/²Ü¼ÒºÀ/.iotlink/sdk/IoT_LINK/iot_link/network/lwm2m/wakaama_lwm2m/port\object_server.c ****         {
 256              		.loc 1 251 12 view .LVU58
 257 0012 012B     		cmp	r3, #1
 258 0014 08BF     		it	eq
 259 0016 002A     		cmpeq	r2, #0
 260 0018 05D2     		bcs	.L16
 253:C:/Users/²Ü¼ÒºÀ/.iotlink/sdk/IoT_LINK/iot_link/network/lwm2m/wakaama_lwm2m/port\object_server.c ****             result = COAP_204_CHANGED;
 261              		.loc 1 253 13 is_stmt 1 view .LVU59
 253:C:/Users/²Ü¼ÒºÀ/.iotlink/sdk/IoT_LINK/iot_link/network/lwm2m/wakaama_lwm2m/port\object_server.c ****             result = COAP_204_CHANGED;
 262              		.loc 1 253 19 is_stmt 0 view .LVU60
 263 001a 2260     		str	r2, [r4]
 254:C:/Users/²Ü¼ÒºÀ/.iotlink/sdk/IoT_LINK/iot_link/network/lwm2m/wakaama_lwm2m/port\object_server.c ****         }
 264              		.loc 1 254 13 is_stmt 1 view .LVU61
 265              	.LVL24:
 254:C:/Users/²Ü¼ÒºÀ/.iotlink/sdk/IoT_LINK/iot_link/network/lwm2m/wakaama_lwm2m/port\object_server.c ****         }
 266              		.loc 1 254 20 is_stmt 0 view .LVU62
 267 001c 4420     		movs	r0, #68
 268              	.LVL25:
 269              	.L14:
 266:C:/Users/²Ü¼ÒºÀ/.iotlink/sdk/IoT_LINK/iot_link/network/lwm2m/wakaama_lwm2m/port\object_server.c **** }
 270              		.loc 1 266 5 is_stmt 1 view .LVU63
 267:C:/Users/²Ü¼ÒºÀ/.iotlink/sdk/IoT_LINK/iot_link/network/lwm2m/wakaama_lwm2m/port\object_server.c **** 
 271              		.loc 1 267 1 is_stmt 0 view .LVU64
 272 001e 02B0     		add	sp, sp, #8
 273              	.LCFI8:
 274              		.cfi_remember_state
 275              		.cfi_def_cfa_offset 8
 276              		@ sp needed
 277 0020 10BD     		pop	{r4, pc}
 278              	.LVL26:
 279              	.L15:
 280              	.LCFI9:
 281              		.cfi_restore_state
 263:C:/Users/²Ü¼ÒºÀ/.iotlink/sdk/IoT_LINK/iot_link/network/lwm2m/wakaama_lwm2m/port\object_server.c ****     }
 282              		.loc 1 263 16 view .LVU65
 283 0022 8020     		movs	r0, #128
 284 0024 FBE7     		b	.L14
 285              	.L16:
 258:C:/Users/²Ü¼ÒºÀ/.iotlink/sdk/IoT_LINK/iot_link/network/lwm2m/wakaama_lwm2m/port\object_server.c ****         }
 286              		.loc 1 258 20 view .LVU66
 287 0026 8620     		movs	r0, #134
 288 0028 F9E7     		b	.L14
 289              		.cfi_endproc
 290              	.LFE15:
 292              		.section	.text.prv_server_read,"ax",%progbits
 293              		.align	1
 294              		.syntax unified
 295              		.thumb
 296              		.thumb_func
 297              		.fpu fpv4-sp-d16
 299              	prv_server_read:
ARM GAS  C:\Users\²Ü¼ÒºÀ\AppData\Local\Temp\ccFNKTFQ.s 			page 15


 300              	.LVL27:
 301              	.LFB13:
 136:C:/Users/²Ü¼ÒºÀ/.iotlink/sdk/IoT_LINK/iot_link/network/lwm2m/wakaama_lwm2m/port\object_server.c ****     server_instance_t *targetP;
 302              		.loc 1 136 1 is_stmt 1 view -0
 303              		.cfi_startproc
 304              		@ args = 4, pretend = 0, frame = 16
 305              		@ frame_needed = 0, uses_anonymous_args = 0
 137:C:/Users/²Ü¼ÒºÀ/.iotlink/sdk/IoT_LINK/iot_link/network/lwm2m/wakaama_lwm2m/port\object_server.c ****     uint8_t result;
 306              		.loc 1 137 5 view .LVU68
 138:C:/Users/²Ü¼ÒºÀ/.iotlink/sdk/IoT_LINK/iot_link/network/lwm2m/wakaama_lwm2m/port\object_server.c ****     int i;
 307              		.loc 1 138 5 view .LVU69
 139:C:/Users/²Ü¼ÒºÀ/.iotlink/sdk/IoT_LINK/iot_link/network/lwm2m/wakaama_lwm2m/port\object_server.c ****     targetP = (server_instance_t *)lwm2m_list_find(objectP->instanceList, instanceId);
 308              		.loc 1 139 5 view .LVU70
 140:C:/Users/²Ü¼ÒºÀ/.iotlink/sdk/IoT_LINK/iot_link/network/lwm2m/wakaama_lwm2m/port\object_server.c **** 
 309              		.loc 1 140 5 view .LVU71
 136:C:/Users/²Ü¼ÒºÀ/.iotlink/sdk/IoT_LINK/iot_link/network/lwm2m/wakaama_lwm2m/port\object_server.c ****     server_instance_t *targetP;
 310              		.loc 1 136 1 is_stmt 0 view .LVU72
 311 0000 2DE9FF41 		push	{r0, r1, r2, r3, r4, r5, r6, r7, r8, lr}
 312              	.LCFI10:
 313              		.cfi_def_cfa_offset 40
 314              		.cfi_offset 4, -24
 315              		.cfi_offset 5, -20
 316              		.cfi_offset 6, -16
 317              		.cfi_offset 7, -12
 318              		.cfi_offset 8, -8
 319              		.cfi_offset 14, -4
 140:C:/Users/²Ü¼ÒºÀ/.iotlink/sdk/IoT_LINK/iot_link/network/lwm2m/wakaama_lwm2m/port\object_server.c **** 
 320              		.loc 1 140 36 view .LVU73
 321 0004 0A9B     		ldr	r3, [sp, #40]
 322              	.LVL28:
 136:C:/Users/²Ü¼ÒºÀ/.iotlink/sdk/IoT_LINK/iot_link/network/lwm2m/wakaama_lwm2m/port\object_server.c ****     server_instance_t *targetP;
 323              		.loc 1 136 1 view .LVU74
 324 0006 0D46     		mov	r5, r1
 140:C:/Users/²Ü¼ÒºÀ/.iotlink/sdk/IoT_LINK/iot_link/network/lwm2m/wakaama_lwm2m/port\object_server.c **** 
 325              		.loc 1 140 36 view .LVU75
 326 0008 0146     		mov	r1, r0
 327              	.LVL29:
 140:C:/Users/²Ü¼ÒºÀ/.iotlink/sdk/IoT_LINK/iot_link/network/lwm2m/wakaama_lwm2m/port\object_server.c **** 
 328              		.loc 1 140 36 view .LVU76
 329 000a 9868     		ldr	r0, [r3, #8]
 330              	.LVL30:
 136:C:/Users/²Ü¼ÒºÀ/.iotlink/sdk/IoT_LINK/iot_link/network/lwm2m/wakaama_lwm2m/port\object_server.c ****     server_instance_t *targetP;
 331              		.loc 1 136 1 view .LVU77
 332 000c 1646     		mov	r6, r2
 140:C:/Users/²Ü¼ÒºÀ/.iotlink/sdk/IoT_LINK/iot_link/network/lwm2m/wakaama_lwm2m/port\object_server.c **** 
 333              		.loc 1 140 36 view .LVU78
 334 000e FFF7FEFF 		bl	lwm2m_list_find
 335              	.LVL31:
 142:C:/Users/²Ü¼ÒºÀ/.iotlink/sdk/IoT_LINK/iot_link/network/lwm2m/wakaama_lwm2m/port\object_server.c **** 
 336              		.loc 1 142 5 is_stmt 1 view .LVU79
 142:C:/Users/²Ü¼ÒºÀ/.iotlink/sdk/IoT_LINK/iot_link/network/lwm2m/wakaama_lwm2m/port\object_server.c **** 
 337              		.loc 1 142 8 is_stmt 0 view .LVU80
 338 0012 0446     		mov	r4, r0
 339 0014 0028     		cmp	r0, #0
 340 0016 5CD0     		beq	.L34
 145:C:/Users/²Ü¼ÒºÀ/.iotlink/sdk/IoT_LINK/iot_link/network/lwm2m/wakaama_lwm2m/port\object_server.c ****     {
 341              		.loc 1 145 5 is_stmt 1 view .LVU81
ARM GAS  C:\Users\²Ü¼ÒºÀ\AppData\Local\Temp\ccFNKTFQ.s 			page 16


 145:C:/Users/²Ü¼ÒºÀ/.iotlink/sdk/IoT_LINK/iot_link/network/lwm2m/wakaama_lwm2m/port\object_server.c ****     {
 342              		.loc 1 145 8 is_stmt 0 view .LVU82
 343 0018 2B68     		ldr	r3, [r5]
 344 001a 43BB     		cbnz	r3, .L19
 345              	.LBB6:
 147:C:/Users/²Ü¼ÒºÀ/.iotlink/sdk/IoT_LINK/iot_link/network/lwm2m/wakaama_lwm2m/port\object_server.c ****         {
 346              		.loc 1 147 9 is_stmt 1 view .LVU83
 147:C:/Users/²Ü¼ÒºÀ/.iotlink/sdk/IoT_LINK/iot_link/network/lwm2m/wakaama_lwm2m/port\object_server.c ****         {
 347              		.loc 1 147 18 is_stmt 0 view .LVU84
 348 001c 2E4B     		ldr	r3, .L42
 349 001e 6A46     		mov	r2, sp
 350 0020 03F1080E 		add	lr, r3, #8
 351 0024 1746     		mov	r7, r2
 352              	.LVL32:
 353              	.L20:
 147:C:/Users/²Ü¼ÒºÀ/.iotlink/sdk/IoT_LINK/iot_link/network/lwm2m/wakaama_lwm2m/port\object_server.c ****         {
 354              		.loc 1 147 18 view .LVU85
 355 0026 1868     		ldr	r0, [r3]	@ unaligned
 356 0028 5968     		ldr	r1, [r3, #4]	@ unaligned
 357 002a 9446     		mov	ip, r2
 358 002c ACE80300 		stmia	ip!, {r0, r1}
 359 0030 0833     		adds	r3, r3, #8
 360 0032 7345     		cmp	r3, lr
 361 0034 6246     		mov	r2, ip
 362 0036 F6D1     		bne	.L20
 363 0038 1868     		ldr	r0, [r3]	@ unaligned
 364 003a 9B88     		ldrh	r3, [r3, #4]	@ unaligned
 365 003c CCF80000 		str	r0, [ip]
 366 0040 ACF80430 		strh	r3, [ip, #4]	@ unaligned
 157:C:/Users/²Ü¼ÒºÀ/.iotlink/sdk/IoT_LINK/iot_link/network/lwm2m/wakaama_lwm2m/port\object_server.c ****         *dataArrayP = lwm2m_data_new(nbRes);
 367              		.loc 1 157 9 is_stmt 1 view .LVU86
 368              	.LVL33:
 158:C:/Users/²Ü¼ÒºÀ/.iotlink/sdk/IoT_LINK/iot_link/network/lwm2m/wakaama_lwm2m/port\object_server.c **** 
 369              		.loc 1 158 9 view .LVU87
 158:C:/Users/²Ü¼ÒºÀ/.iotlink/sdk/IoT_LINK/iot_link/network/lwm2m/wakaama_lwm2m/port\object_server.c **** 
 370              		.loc 1 158 23 is_stmt 0 view .LVU88
 371 0044 0720     		movs	r0, #7
 372 0046 FFF7FEFF 		bl	lwm2m_data_new
 373              	.LVL34:
 374 004a 0346     		mov	r3, r0
 158:C:/Users/²Ü¼ÒºÀ/.iotlink/sdk/IoT_LINK/iot_link/network/lwm2m/wakaama_lwm2m/port\object_server.c **** 
 375              		.loc 1 158 21 view .LVU89
 376 004c 3060     		str	r0, [r6]
 160:C:/Users/²Ü¼ÒºÀ/.iotlink/sdk/IoT_LINK/iot_link/network/lwm2m/wakaama_lwm2m/port\object_server.c **** 
 377              		.loc 1 160 9 is_stmt 1 view .LVU90
 160:C:/Users/²Ü¼ÒºÀ/.iotlink/sdk/IoT_LINK/iot_link/network/lwm2m/wakaama_lwm2m/port\object_server.c **** 
 378              		.loc 1 160 12 is_stmt 0 view .LVU91
 379 004e 18B9     		cbnz	r0, .L21
 160:C:/Users/²Ü¼ÒºÀ/.iotlink/sdk/IoT_LINK/iot_link/network/lwm2m/wakaama_lwm2m/port\object_server.c **** 
 380              		.loc 1 160 34 is_stmt 1 discriminator 1 view .LVU92
 160:C:/Users/²Ü¼ÒºÀ/.iotlink/sdk/IoT_LINK/iot_link/network/lwm2m/wakaama_lwm2m/port\object_server.c **** 
 381              		.loc 1 160 41 is_stmt 0 discriminator 1 view .LVU93
 382 0050 A020     		movs	r0, #160
 383              	.LVL35:
 384              	.L18:
 160:C:/Users/²Ü¼ÒºÀ/.iotlink/sdk/IoT_LINK/iot_link/network/lwm2m/wakaama_lwm2m/port\object_server.c **** 
 385              		.loc 1 160 41 discriminator 1 view .LVU94
ARM GAS  C:\Users\²Ü¼ÒºÀ\AppData\Local\Temp\ccFNKTFQ.s 			page 17


 386              	.LBE6:
 180:C:/Users/²Ü¼ÒºÀ/.iotlink/sdk/IoT_LINK/iot_link/network/lwm2m/wakaama_lwm2m/port\object_server.c **** 
 387              		.loc 1 180 1 view .LVU95
 388 0052 04B0     		add	sp, sp, #16
 389              	.LCFI11:
 390              		.cfi_remember_state
 391              		.cfi_def_cfa_offset 24
 392              		@ sp needed
 393 0054 BDE8F081 		pop	{r4, r5, r6, r7, r8, pc}
 394              	.LVL36:
 395              	.L21:
 396              	.LCFI12:
 397              		.cfi_restore_state
 398              	.LBB7:
 162:C:/Users/²Ü¼ÒºÀ/.iotlink/sdk/IoT_LINK/iot_link/network/lwm2m/wakaama_lwm2m/port\object_server.c **** 
 399              		.loc 1 162 9 is_stmt 1 view .LVU96
 162:C:/Users/²Ü¼ÒºÀ/.iotlink/sdk/IoT_LINK/iot_link/network/lwm2m/wakaama_lwm2m/port\object_server.c **** 
 400              		.loc 1 162 19 is_stmt 0 view .LVU97
 401 0058 0722     		movs	r2, #7
 402 005a 2A60     		str	r2, [r5]
 164:C:/Users/²Ü¼ÒºÀ/.iotlink/sdk/IoT_LINK/iot_link/network/lwm2m/wakaama_lwm2m/port\object_server.c ****         {
 403              		.loc 1 164 9 is_stmt 1 view .LVU98
 404              	.LVL37:
 164:C:/Users/²Ü¼ÒºÀ/.iotlink/sdk/IoT_LINK/iot_link/network/lwm2m/wakaama_lwm2m/port\object_server.c ****         {
 405              		.loc 1 164 22 view .LVU99
 406 005c 00F17001 		add	r1, r0, #112
 407 0060 3A46     		mov	r2, r7
 408              	.LVL38:
 409              	.L22:
 166:C:/Users/²Ü¼ÒºÀ/.iotlink/sdk/IoT_LINK/iot_link/network/lwm2m/wakaama_lwm2m/port\object_server.c ****         }
 410              		.loc 1 166 13 discriminator 3 view .LVU100
 166:C:/Users/²Ü¼ÒºÀ/.iotlink/sdk/IoT_LINK/iot_link/network/lwm2m/wakaama_lwm2m/port\object_server.c ****         }
 411              		.loc 1 166 42 is_stmt 0 discriminator 3 view .LVU101
 412 0062 32F8020B 		ldrh	r0, [r2], #2
 166:C:/Users/²Ü¼ÒºÀ/.iotlink/sdk/IoT_LINK/iot_link/network/lwm2m/wakaama_lwm2m/port\object_server.c ****         }
 413              		.loc 1 166 33 discriminator 3 view .LVU102
 414 0066 5880     		strh	r0, [r3, #2]	@ movhi
 164:C:/Users/²Ü¼ÒºÀ/.iotlink/sdk/IoT_LINK/iot_link/network/lwm2m/wakaama_lwm2m/port\object_server.c ****         {
 415              		.loc 1 164 34 is_stmt 1 discriminator 3 view .LVU103
 164:C:/Users/²Ü¼ÒºÀ/.iotlink/sdk/IoT_LINK/iot_link/network/lwm2m/wakaama_lwm2m/port\object_server.c ****         {
 416              		.loc 1 164 22 discriminator 3 view .LVU104
 417 0068 1033     		adds	r3, r3, #16
 164:C:/Users/²Ü¼ÒºÀ/.iotlink/sdk/IoT_LINK/iot_link/network/lwm2m/wakaama_lwm2m/port\object_server.c ****         {
 418              		.loc 1 164 9 is_stmt 0 discriminator 3 view .LVU105
 419 006a 8B42     		cmp	r3, r1
 420 006c F9D1     		bne	.L22
 421              	.LVL39:
 422              	.L19:
 164:C:/Users/²Ü¼ÒºÀ/.iotlink/sdk/IoT_LINK/iot_link/network/lwm2m/wakaama_lwm2m/port\object_server.c ****         {
 423              		.loc 1 164 9 discriminator 3 view .LVU106
 424              	.LBE7:
 136:C:/Users/²Ü¼ÒºÀ/.iotlink/sdk/IoT_LINK/iot_link/network/lwm2m/wakaama_lwm2m/port\object_server.c ****     server_instance_t *targetP;
 425              		.loc 1 136 1 discriminator 2 view .LVU107
 426 006e 0027     		movs	r7, #0
 427              	.LBB8:
 428              	.LBB9:
 120:C:/Users/²Ü¼ÒºÀ/.iotlink/sdk/IoT_LINK/iot_link/network/lwm2m/wakaama_lwm2m/port\object_server.c ****             return COAP_205_CONTENT;
ARM GAS  C:\Users\²Ü¼ÒºÀ\AppData\Local\Temp\ccFNKTFQ.s 			page 18


 429              		.loc 1 120 45 discriminator 2 view .LVU108
 430 0070 04F11908 		add	r8, r4, #25
 431              	.L33:
 432              	.LVL40:
 120:C:/Users/²Ü¼ÒºÀ/.iotlink/sdk/IoT_LINK/iot_link/network/lwm2m/wakaama_lwm2m/port\object_server.c ****             return COAP_205_CONTENT;
 433              		.loc 1 120 45 discriminator 2 view .LVU109
 434              	.LBE9:
 435              	.LBE8:
 172:C:/Users/²Ü¼ÒºÀ/.iotlink/sdk/IoT_LINK/iot_link/network/lwm2m/wakaama_lwm2m/port\object_server.c ****     {
 436              		.loc 1 172 5 is_stmt 1 discriminator 2 view .LVU110
 174:C:/Users/²Ü¼ÒºÀ/.iotlink/sdk/IoT_LINK/iot_link/network/lwm2m/wakaama_lwm2m/port\object_server.c ****         i++;
 437              		.loc 1 174 9 discriminator 2 view .LVU111
 174:C:/Users/²Ü¼ÒºÀ/.iotlink/sdk/IoT_LINK/iot_link/network/lwm2m/wakaama_lwm2m/port\object_server.c ****         i++;
 438              		.loc 1 174 18 is_stmt 0 discriminator 2 view .LVU112
 439 0074 3268     		ldr	r2, [r6]
 440 0076 02EB0712 		add	r2, r2, r7, lsl #4
 441              	.LVL41:
 442              	.LBB12:
 443              	.LBI8:
  87:C:/Users/²Ü¼ÒºÀ/.iotlink/sdk/IoT_LINK/iot_link/network/lwm2m/wakaama_lwm2m/port\object_server.c ****                              server_instance_t *targetP)
 444              		.loc 1 87 16 is_stmt 1 discriminator 2 view .LVU113
 445              	.LBB10:
  90:C:/Users/²Ü¼ÒºÀ/.iotlink/sdk/IoT_LINK/iot_link/network/lwm2m/wakaama_lwm2m/port\object_server.c ****     {
 446              		.loc 1 90 5 discriminator 2 view .LVU114
 447 007a 5388     		ldrh	r3, [r2, #2]
 448 007c 082B     		cmp	r3, #8
 449 007e 06D8     		bhi	.L23
 450 0080 DFE803F0 		tbb	[pc, r3]
 451              	.L25:
 452 0084 0D       		.byte	(.L32-.L25)/2
 453 0085 13       		.byte	(.L31-.L25)/2
 454 0086 15       		.byte	(.L30-.L25)/2
 455 0087 17       		.byte	(.L29-.L25)/2
 456 0088 25       		.byte	(.L35-.L25)/2
 457 0089 19       		.byte	(.L28-.L25)/2
 458 008a 1B       		.byte	(.L27-.L25)/2
 459 008b 20       		.byte	(.L26-.L25)/2
 460 008c 25       		.byte	(.L35-.L25)/2
 461 008d 00       		.p2align 1
 462              	.L23:
  90:C:/Users/²Ü¼ÒºÀ/.iotlink/sdk/IoT_LINK/iot_link/network/lwm2m/wakaama_lwm2m/port\object_server.c ****     {
 463              		.loc 1 90 18 is_stmt 0 view .LVU115
 464 008e 8420     		movs	r0, #132
 465              	.LVL42:
 466              	.L24:
  90:C:/Users/²Ü¼ÒºÀ/.iotlink/sdk/IoT_LINK/iot_link/network/lwm2m/wakaama_lwm2m/port\object_server.c ****     {
 467              		.loc 1 90 18 view .LVU116
 468              	.LBE10:
 469              	.LBE12:
 175:C:/Users/²Ü¼ÒºÀ/.iotlink/sdk/IoT_LINK/iot_link/network/lwm2m/wakaama_lwm2m/port\object_server.c ****     }
 470              		.loc 1 175 9 is_stmt 1 view .LVU117
 177:C:/Users/²Ü¼ÒºÀ/.iotlink/sdk/IoT_LINK/iot_link/network/lwm2m/wakaama_lwm2m/port\object_server.c **** 
 471              		.loc 1 177 5 is_stmt 0 view .LVU118
 472 0090 2B68     		ldr	r3, [r5]
 175:C:/Users/²Ü¼ÒºÀ/.iotlink/sdk/IoT_LINK/iot_link/network/lwm2m/wakaama_lwm2m/port\object_server.c ****     }
 473              		.loc 1 175 10 view .LVU119
 474 0092 0137     		adds	r7, r7, #1
ARM GAS  C:\Users\²Ü¼ÒºÀ\AppData\Local\Temp\ccFNKTFQ.s 			page 19


 475              	.LVL43:
 177:C:/Users/²Ü¼ÒºÀ/.iotlink/sdk/IoT_LINK/iot_link/network/lwm2m/wakaama_lwm2m/port\object_server.c **** 
 476              		.loc 1 177 11 is_stmt 1 view .LVU120
 177:C:/Users/²Ü¼ÒºÀ/.iotlink/sdk/IoT_LINK/iot_link/network/lwm2m/wakaama_lwm2m/port\object_server.c **** 
 477              		.loc 1 177 5 is_stmt 0 view .LVU121
 478 0094 BB42     		cmp	r3, r7
 479 0096 DCDD     		ble	.L18
 177:C:/Users/²Ü¼ÒºÀ/.iotlink/sdk/IoT_LINK/iot_link/network/lwm2m/wakaama_lwm2m/port\object_server.c **** 
 480              		.loc 1 177 28 discriminator 1 view .LVU122
 481 0098 4528     		cmp	r0, #69
 482 009a EBD0     		beq	.L33
 483 009c D9E7     		b	.L18
 484              	.LVL44:
 485              	.L32:
 486              	.LBB13:
 487              	.LBB11:
  93:C:/Users/²Ü¼ÒºÀ/.iotlink/sdk/IoT_LINK/iot_link/network/lwm2m/wakaama_lwm2m/port\object_server.c ****             return COAP_205_CONTENT;
 488              		.loc 1 93 13 is_stmt 1 view .LVU123
 489 009e E088     		ldrh	r0, [r4, #6]
 490              	.L40:
  97:C:/Users/²Ü¼ÒºÀ/.iotlink/sdk/IoT_LINK/iot_link/network/lwm2m/wakaama_lwm2m/port\object_server.c ****             return COAP_205_CONTENT;
 491              		.loc 1 97 13 is_stmt 0 view .LVU124
 492 00a0 0021     		movs	r1, #0
 493 00a2 FFF7FEFF 		bl	lwm2m_data_encode_int
 494              	.LVL45:
 495              	.L41:
  98:C:/Users/²Ü¼ÒºÀ/.iotlink/sdk/IoT_LINK/iot_link/network/lwm2m/wakaama_lwm2m/port\object_server.c **** 
 496              		.loc 1 98 13 is_stmt 1 view .LVU125
  98:C:/Users/²Ü¼ÒºÀ/.iotlink/sdk/IoT_LINK/iot_link/network/lwm2m/wakaama_lwm2m/port\object_server.c **** 
 497              		.loc 1 98 20 is_stmt 0 view .LVU126
 498 00a6 4520     		movs	r0, #69
 499 00a8 F2E7     		b	.L24
 500              	.LVL46:
 501              	.L31:
  97:C:/Users/²Ü¼ÒºÀ/.iotlink/sdk/IoT_LINK/iot_link/network/lwm2m/wakaama_lwm2m/port\object_server.c ****             return COAP_205_CONTENT;
 502              		.loc 1 97 13 is_stmt 1 view .LVU127
 503 00aa A068     		ldr	r0, [r4, #8]
 504 00ac F8E7     		b	.L40
 505              	.L30:
 101:C:/Users/²Ü¼ÒºÀ/.iotlink/sdk/IoT_LINK/iot_link/network/lwm2m/wakaama_lwm2m/port\object_server.c ****             return COAP_205_CONTENT;
 506              		.loc 1 101 13 view .LVU128
 507 00ae E068     		ldr	r0, [r4, #12]
 508 00b0 F6E7     		b	.L40
 509              	.L29:
 105:C:/Users/²Ü¼ÒºÀ/.iotlink/sdk/IoT_LINK/iot_link/network/lwm2m/wakaama_lwm2m/port\object_server.c ****             return COAP_205_CONTENT;
 510              		.loc 1 105 13 view .LVU129
 511 00b2 2069     		ldr	r0, [r4, #16]
 512 00b4 F4E7     		b	.L40
 513              	.L28:
 112:C:/Users/²Ü¼ÒºÀ/.iotlink/sdk/IoT_LINK/iot_link/network/lwm2m/wakaama_lwm2m/port\object_server.c ****             return COAP_205_CONTENT;
 514              		.loc 1 112 13 view .LVU130
 515 00b6 6069     		ldr	r0, [r4, #20]
 516 00b8 F2E7     		b	.L40
 517              	.L27:
 116:C:/Users/²Ü¼ÒºÀ/.iotlink/sdk/IoT_LINK/iot_link/network/lwm2m/wakaama_lwm2m/port\object_server.c ****             return COAP_205_CONTENT;
 518              		.loc 1 116 13 view .LVU131
 519 00ba 207E     		ldrb	r0, [r4, #24]	@ zero_extendqisi2
ARM GAS  C:\Users\²Ü¼ÒºÀ\AppData\Local\Temp\ccFNKTFQ.s 			page 20


 520 00bc 1146     		mov	r1, r2
 521 00be FFF7FEFF 		bl	lwm2m_data_encode_bool
 522              	.LVL47:
 117:C:/Users/²Ü¼ÒºÀ/.iotlink/sdk/IoT_LINK/iot_link/network/lwm2m/wakaama_lwm2m/port\object_server.c **** 
 523              		.loc 1 117 13 view .LVU132
 524 00c2 F0E7     		b	.L41
 525              	.LVL48:
 526              	.L26:
 120:C:/Users/²Ü¼ÒºÀ/.iotlink/sdk/IoT_LINK/iot_link/network/lwm2m/wakaama_lwm2m/port\object_server.c ****             return COAP_205_CONTENT;
 527              		.loc 1 120 13 view .LVU133
 528 00c4 1146     		mov	r1, r2
 529 00c6 4046     		mov	r0, r8
 530 00c8 FFF7FEFF 		bl	lwm2m_data_encode_string
 531              	.LVL49:
 121:C:/Users/²Ü¼ÒºÀ/.iotlink/sdk/IoT_LINK/iot_link/network/lwm2m/wakaama_lwm2m/port\object_server.c **** 
 532              		.loc 1 121 13 view .LVU134
 533 00cc EBE7     		b	.L41
 534              	.LVL50:
 535              	.L35:
 109:C:/Users/²Ü¼ÒºÀ/.iotlink/sdk/IoT_LINK/iot_link/network/lwm2m/wakaama_lwm2m/port\object_server.c **** 
 536              		.loc 1 109 20 is_stmt 0 view .LVU135
 537 00ce 8520     		movs	r0, #133
 538 00d0 DEE7     		b	.L24
 539              	.LVL51:
 540              	.L34:
 109:C:/Users/²Ü¼ÒºÀ/.iotlink/sdk/IoT_LINK/iot_link/network/lwm2m/wakaama_lwm2m/port\object_server.c **** 
 541              		.loc 1 109 20 view .LVU136
 542              	.LBE11:
 543              	.LBE13:
 142:C:/Users/²Ü¼ÒºÀ/.iotlink/sdk/IoT_LINK/iot_link/network/lwm2m/wakaama_lwm2m/port\object_server.c **** 
 544              		.loc 1 142 33 view .LVU137
 545 00d2 8420     		movs	r0, #132
 546              	.LVL52:
 142:C:/Users/²Ü¼ÒºÀ/.iotlink/sdk/IoT_LINK/iot_link/network/lwm2m/wakaama_lwm2m/port\object_server.c **** 
 547              		.loc 1 142 33 view .LVU138
 548 00d4 BDE7     		b	.L18
 549              	.L43:
 550 00d6 00BF     		.align	2
 551              	.L42:
 552 00d8 00000000 		.word	.LANCHOR0
 553              		.cfi_endproc
 554              	.LFE13:
 556              		.section	.text.prv_server_discover,"ax",%progbits
 557              		.align	1
 558              		.syntax unified
 559              		.thumb
 560              		.thumb_func
 561              		.fpu fpv4-sp-d16
 563              	prv_server_discover:
 564              	.LVL53:
 565              	.LFB14:
 186:C:/Users/²Ü¼ÒºÀ/.iotlink/sdk/IoT_LINK/iot_link/network/lwm2m/wakaama_lwm2m/port\object_server.c ****     uint8_t result;
 566              		.loc 1 186 1 is_stmt 1 view -0
 567              		.cfi_startproc
 568              		@ args = 0, pretend = 0, frame = 24
 569              		@ frame_needed = 0, uses_anonymous_args = 0
 187:C:/Users/²Ü¼ÒºÀ/.iotlink/sdk/IoT_LINK/iot_link/network/lwm2m/wakaama_lwm2m/port\object_server.c ****     int i;
ARM GAS  C:\Users\²Ü¼ÒºÀ\AppData\Local\Temp\ccFNKTFQ.s 			page 21


 570              		.loc 1 187 5 view .LVU140
 188:C:/Users/²Ü¼ÒºÀ/.iotlink/sdk/IoT_LINK/iot_link/network/lwm2m/wakaama_lwm2m/port\object_server.c ****     result = COAP_205_CONTENT;
 571              		.loc 1 188 5 view .LVU141
 189:C:/Users/²Ü¼ÒºÀ/.iotlink/sdk/IoT_LINK/iot_link/network/lwm2m/wakaama_lwm2m/port\object_server.c **** 
 572              		.loc 1 189 5 view .LVU142
 192:C:/Users/²Ü¼ÒºÀ/.iotlink/sdk/IoT_LINK/iot_link/network/lwm2m/wakaama_lwm2m/port\object_server.c ****     {
 573              		.loc 1 192 5 view .LVU143
 186:C:/Users/²Ü¼ÒºÀ/.iotlink/sdk/IoT_LINK/iot_link/network/lwm2m/wakaama_lwm2m/port\object_server.c ****     uint8_t result;
 574              		.loc 1 186 1 is_stmt 0 view .LVU144
 575 0000 F0B5     		push	{r4, r5, r6, r7, lr}
 576              	.LCFI13:
 577              		.cfi_def_cfa_offset 20
 578              		.cfi_offset 4, -20
 579              		.cfi_offset 5, -16
 580              		.cfi_offset 6, -12
 581              		.cfi_offset 7, -8
 582              		.cfi_offset 14, -4
 583 0002 0F46     		mov	r7, r1
 192:C:/Users/²Ü¼ÒºÀ/.iotlink/sdk/IoT_LINK/iot_link/network/lwm2m/wakaama_lwm2m/port\object_server.c ****     {
 584              		.loc 1 192 14 view .LVU145
 585 0004 0968     		ldr	r1, [r1]
 586              	.LVL54:
 186:C:/Users/²Ü¼ÒºÀ/.iotlink/sdk/IoT_LINK/iot_link/network/lwm2m/wakaama_lwm2m/port\object_server.c ****     uint8_t result;
 587              		.loc 1 186 1 view .LVU146
 588 0006 87B0     		sub	sp, sp, #28
 589              	.LCFI14:
 590              		.cfi_def_cfa_offset 48
 186:C:/Users/²Ü¼ÒºÀ/.iotlink/sdk/IoT_LINK/iot_link/network/lwm2m/wakaama_lwm2m/port\object_server.c ****     uint8_t result;
 591              		.loc 1 186 1 view .LVU147
 592 0008 1546     		mov	r5, r2
 192:C:/Users/²Ü¼ÒºÀ/.iotlink/sdk/IoT_LINK/iot_link/network/lwm2m/wakaama_lwm2m/port\object_server.c ****     {
 593              		.loc 1 192 8 view .LVU148
 594 000a 81BB     		cbnz	r1, .L52
 595              	.LVL55:
 596              	.LBB17:
 597              	.LBI17:
 182:C:/Users/²Ü¼ÒºÀ/.iotlink/sdk/IoT_LINK/iot_link/network/lwm2m/wakaama_lwm2m/port\object_server.c ****                                    int *numDataP,
 598              		.loc 1 182 16 is_stmt 1 view .LVU149
 599              	.LBB18:
 600              	.LBB19:
 194:C:/Users/²Ü¼ÒºÀ/.iotlink/sdk/IoT_LINK/iot_link/network/lwm2m/wakaama_lwm2m/port\object_server.c ****         {
 601              		.loc 1 194 9 view .LVU150
 194:C:/Users/²Ü¼ÒºÀ/.iotlink/sdk/IoT_LINK/iot_link/network/lwm2m/wakaama_lwm2m/port\object_server.c ****         {
 602              		.loc 1 194 18 is_stmt 0 view .LVU151
 603 000c 194B     		ldr	r3, .L56
 604              	.LVL56:
 194:C:/Users/²Ü¼ÒºÀ/.iotlink/sdk/IoT_LINK/iot_link/network/lwm2m/wakaama_lwm2m/port\object_server.c ****         {
 605              		.loc 1 194 18 view .LVU152
 606 000e 01AC     		add	r4, sp, #4
 607 0010 03F1100C 		add	ip, r3, #16
 608 0014 2646     		mov	r6, r4
 609              	.LVL57:
 610              	.L46:
 194:C:/Users/²Ü¼ÒºÀ/.iotlink/sdk/IoT_LINK/iot_link/network/lwm2m/wakaama_lwm2m/port\object_server.c ****         {
 611              		.loc 1 194 18 view .LVU153
 612 0016 1868     		ldr	r0, [r3]	@ unaligned
 613 0018 5968     		ldr	r1, [r3, #4]	@ unaligned
ARM GAS  C:\Users\²Ü¼ÒºÀ\AppData\Local\Temp\ccFNKTFQ.s 			page 22


 614 001a 2246     		mov	r2, r4
 615 001c 03C2     		stmia	r2!, {r0, r1}
 616 001e 0833     		adds	r3, r3, #8
 617 0020 6345     		cmp	r3, ip
 618 0022 1446     		mov	r4, r2
 619 0024 F7D1     		bne	.L46
 620 0026 1B88     		ldrh	r3, [r3]	@ unaligned
 621 0028 1380     		strh	r3, [r2]	@ unaligned
 206:C:/Users/²Ü¼ÒºÀ/.iotlink/sdk/IoT_LINK/iot_link/network/lwm2m/wakaama_lwm2m/port\object_server.c ****         *dataArrayP = lwm2m_data_new(nbRes);
 622              		.loc 1 206 9 is_stmt 1 view .LVU154
 623              	.LVL58:
 207:C:/Users/²Ü¼ÒºÀ/.iotlink/sdk/IoT_LINK/iot_link/network/lwm2m/wakaama_lwm2m/port\object_server.c **** 
 624              		.loc 1 207 9 view .LVU155
 207:C:/Users/²Ü¼ÒºÀ/.iotlink/sdk/IoT_LINK/iot_link/network/lwm2m/wakaama_lwm2m/port\object_server.c **** 
 625              		.loc 1 207 23 is_stmt 0 view .LVU156
 626 002a 0920     		movs	r0, #9
 627 002c FFF7FEFF 		bl	lwm2m_data_new
 628              	.LVL59:
 207:C:/Users/²Ü¼ÒºÀ/.iotlink/sdk/IoT_LINK/iot_link/network/lwm2m/wakaama_lwm2m/port\object_server.c **** 
 629              		.loc 1 207 21 view .LVU157
 630 0030 2860     		str	r0, [r5]
 209:C:/Users/²Ü¼ÒºÀ/.iotlink/sdk/IoT_LINK/iot_link/network/lwm2m/wakaama_lwm2m/port\object_server.c **** 
 631              		.loc 1 209 9 is_stmt 1 view .LVU158
 209:C:/Users/²Ü¼ÒºÀ/.iotlink/sdk/IoT_LINK/iot_link/network/lwm2m/wakaama_lwm2m/port\object_server.c **** 
 632              		.loc 1 209 12 is_stmt 0 view .LVU159
 633 0032 10B9     		cbnz	r0, .L47
 209:C:/Users/²Ü¼ÒºÀ/.iotlink/sdk/IoT_LINK/iot_link/network/lwm2m/wakaama_lwm2m/port\object_server.c **** 
 634              		.loc 1 209 34 is_stmt 1 view .LVU160
 209:C:/Users/²Ü¼ÒºÀ/.iotlink/sdk/IoT_LINK/iot_link/network/lwm2m/wakaama_lwm2m/port\object_server.c **** 
 635              		.loc 1 209 41 is_stmt 0 view .LVU161
 636 0034 A020     		movs	r0, #160
 637              	.LVL60:
 638              	.L48:
 209:C:/Users/²Ü¼ÒºÀ/.iotlink/sdk/IoT_LINK/iot_link/network/lwm2m/wakaama_lwm2m/port\object_server.c **** 
 639              		.loc 1 209 41 view .LVU162
 640              	.LBE19:
 641              	.LBE18:
 642              	.LBE17:
 242:C:/Users/²Ü¼ÒºÀ/.iotlink/sdk/IoT_LINK/iot_link/network/lwm2m/wakaama_lwm2m/port\object_server.c **** 
 643              		.loc 1 242 1 view .LVU163
 644 0036 07B0     		add	sp, sp, #28
 645              	.LCFI15:
 646              		.cfi_remember_state
 647              		.cfi_def_cfa_offset 20
 648              		@ sp needed
 649 0038 F0BD     		pop	{r4, r5, r6, r7, pc}
 650              	.LVL61:
 651              	.L47:
 652              	.LCFI16:
 653              		.cfi_restore_state
 654              	.LBB22:
 655              	.LBB21:
 656              	.LBB20:
 211:C:/Users/²Ü¼ÒºÀ/.iotlink/sdk/IoT_LINK/iot_link/network/lwm2m/wakaama_lwm2m/port\object_server.c **** 
 657              		.loc 1 211 9 is_stmt 1 view .LVU164
 211:C:/Users/²Ü¼ÒºÀ/.iotlink/sdk/IoT_LINK/iot_link/network/lwm2m/wakaama_lwm2m/port\object_server.c **** 
 658              		.loc 1 211 19 is_stmt 0 view .LVU165
ARM GAS  C:\Users\²Ü¼ÒºÀ\AppData\Local\Temp\ccFNKTFQ.s 			page 23


 659 003a 0923     		movs	r3, #9
 660 003c 3B60     		str	r3, [r7]
 213:C:/Users/²Ü¼ÒºÀ/.iotlink/sdk/IoT_LINK/iot_link/network/lwm2m/wakaama_lwm2m/port\object_server.c ****         {
 661              		.loc 1 213 9 is_stmt 1 view .LVU166
 662              	.LVL62:
 213:C:/Users/²Ü¼ÒºÀ/.iotlink/sdk/IoT_LINK/iot_link/network/lwm2m/wakaama_lwm2m/port\object_server.c ****         {
 663              		.loc 1 213 21 view .LVU167
 664 003e 00F19002 		add	r2, r0, #144
 665 0042 3346     		mov	r3, r6
 666              	.LVL63:
 667              	.L49:
 215:C:/Users/²Ü¼ÒºÀ/.iotlink/sdk/IoT_LINK/iot_link/network/lwm2m/wakaama_lwm2m/port\object_server.c ****         }
 668              		.loc 1 215 13 view .LVU168
 215:C:/Users/²Ü¼ÒºÀ/.iotlink/sdk/IoT_LINK/iot_link/network/lwm2m/wakaama_lwm2m/port\object_server.c ****         }
 669              		.loc 1 215 42 is_stmt 0 view .LVU169
 670 0044 33F8021B 		ldrh	r1, [r3], #2
 215:C:/Users/²Ü¼ÒºÀ/.iotlink/sdk/IoT_LINK/iot_link/network/lwm2m/wakaama_lwm2m/port\object_server.c ****         }
 671              		.loc 1 215 33 view .LVU170
 672 0048 4180     		strh	r1, [r0, #2]	@ movhi
 213:C:/Users/²Ü¼ÒºÀ/.iotlink/sdk/IoT_LINK/iot_link/network/lwm2m/wakaama_lwm2m/port\object_server.c ****         {
 673              		.loc 1 213 32 is_stmt 1 view .LVU171
 213:C:/Users/²Ü¼ÒºÀ/.iotlink/sdk/IoT_LINK/iot_link/network/lwm2m/wakaama_lwm2m/port\object_server.c ****         {
 674              		.loc 1 213 21 view .LVU172
 675 004a 1030     		adds	r0, r0, #16
 213:C:/Users/²Ü¼ÒºÀ/.iotlink/sdk/IoT_LINK/iot_link/network/lwm2m/wakaama_lwm2m/port\object_server.c ****         {
 676              		.loc 1 213 9 is_stmt 0 view .LVU173
 677 004c 9042     		cmp	r0, r2
 678 004e F9D1     		bne	.L49
 679              	.LBE20:
 189:C:/Users/²Ü¼ÒºÀ/.iotlink/sdk/IoT_LINK/iot_link/network/lwm2m/wakaama_lwm2m/port\object_server.c **** 
 680              		.loc 1 189 12 view .LVU174
 681 0050 4520     		movs	r0, #69
 682 0052 F0E7     		b	.L48
 683              	.LVL64:
 684              	.L51:
 189:C:/Users/²Ü¼ÒºÀ/.iotlink/sdk/IoT_LINK/iot_link/network/lwm2m/wakaama_lwm2m/port\object_server.c **** 
 685              		.loc 1 189 12 view .LVU175
 686              	.LBE21:
 687              	.LBE22:
 222:C:/Users/²Ü¼ÒºÀ/.iotlink/sdk/IoT_LINK/iot_link/network/lwm2m/wakaama_lwm2m/port\object_server.c ****             {
 688              		.loc 1 222 13 is_stmt 1 view .LVU176
 222:C:/Users/²Ü¼ÒºÀ/.iotlink/sdk/IoT_LINK/iot_link/network/lwm2m/wakaama_lwm2m/port\object_server.c ****             {
 689              		.loc 1 222 37 is_stmt 0 view .LVU177
 690 0054 2A68     		ldr	r2, [r5]
 691 0056 02EB0312 		add	r2, r2, r3, lsl #4
 220:C:/Users/²Ü¼ÒºÀ/.iotlink/sdk/IoT_LINK/iot_link/network/lwm2m/wakaama_lwm2m/port\object_server.c ****         {
 692              		.loc 1 220 71 view .LVU178
 693 005a 0133     		adds	r3, r3, #1
 694              	.LVL65:
 222:C:/Users/²Ü¼ÒºÀ/.iotlink/sdk/IoT_LINK/iot_link/network/lwm2m/wakaama_lwm2m/port\object_server.c ****             {
 695              		.loc 1 222 13 view .LVU179
 696 005c 5288     		ldrh	r2, [r2, #2]
 236:C:/Users/²Ü¼ÒºÀ/.iotlink/sdk/IoT_LINK/iot_link/network/lwm2m/wakaama_lwm2m/port\object_server.c ****             }
 697              		.loc 1 236 28 view .LVU180
 698 005e 092A     		cmp	r2, #9
 699 0060 28BF     		it	cs
 700 0062 8420     		movcs	r0, #132
ARM GAS  C:\Users\²Ü¼ÒºÀ\AppData\Local\Temp\ccFNKTFQ.s 			page 24


 701              	.LVL66:
 220:C:/Users/²Ü¼ÒºÀ/.iotlink/sdk/IoT_LINK/iot_link/network/lwm2m/wakaama_lwm2m/port\object_server.c ****         {
 702              		.loc 1 220 70 is_stmt 1 view .LVU181
 703              	.L45:
 220:C:/Users/²Ü¼ÒºÀ/.iotlink/sdk/IoT_LINK/iot_link/network/lwm2m/wakaama_lwm2m/port\object_server.c ****         {
 704              		.loc 1 220 21 discriminator 1 view .LVU182
 220:C:/Users/²Ü¼ÒºÀ/.iotlink/sdk/IoT_LINK/iot_link/network/lwm2m/wakaama_lwm2m/port\object_server.c ****         {
 705              		.loc 1 220 9 is_stmt 0 discriminator 1 view .LVU183
 706 0064 9942     		cmp	r1, r3
 707 0066 E6DD     		ble	.L48
 220:C:/Users/²Ü¼ÒºÀ/.iotlink/sdk/IoT_LINK/iot_link/network/lwm2m/wakaama_lwm2m/port\object_server.c ****         {
 708              		.loc 1 220 37 discriminator 3 view .LVU184
 709 0068 4528     		cmp	r0, #69
 710 006a F3D0     		beq	.L51
 711 006c E3E7     		b	.L48
 712              	.LVL67:
 713              	.L52:
 220:C:/Users/²Ü¼ÒºÀ/.iotlink/sdk/IoT_LINK/iot_link/network/lwm2m/wakaama_lwm2m/port\object_server.c ****         {
 714              		.loc 1 220 16 view .LVU185
 715 006e 0023     		movs	r3, #0
 716              	.LVL68:
 189:C:/Users/²Ü¼ÒºÀ/.iotlink/sdk/IoT_LINK/iot_link/network/lwm2m/wakaama_lwm2m/port\object_server.c **** 
 717              		.loc 1 189 12 view .LVU186
 718 0070 4520     		movs	r0, #69
 719              	.LVL69:
 189:C:/Users/²Ü¼ÒºÀ/.iotlink/sdk/IoT_LINK/iot_link/network/lwm2m/wakaama_lwm2m/port\object_server.c **** 
 720              		.loc 1 189 12 view .LVU187
 721 0072 F7E7     		b	.L45
 722              	.L57:
 723              		.align	2
 724              	.L56:
 725 0074 0E000000 		.word	.LANCHOR0+14
 726              		.cfi_endproc
 727              	.LFE14:
 729              		.section	.rodata.prv_server_check_binding_valid.str1.1,"aMS",%progbits,1
 730              	.LC3:
 731 0000 5500     		.ascii	"U\000"
 732              	.LC4:
 733 0002 555100   		.ascii	"UQ\000"
 734              	.LC5:
 735 0005 5300     		.ascii	"S\000"
 736              	.LC6:
 737 0007 535100   		.ascii	"SQ\000"
 738              	.LC7:
 739 000a 555300   		.ascii	"US\000"
 740              	.LC8:
 741 000d 55515300 		.ascii	"UQS\000"
 742              		.section	.text.prv_server_check_binding_valid,"ax",%progbits
 743              		.align	1
 744              		.global	prv_server_check_binding_valid
 745              		.syntax unified
 746              		.thumb
 747              		.thumb_func
 748              		.fpu fpv4-sp-d16
 750              	prv_server_check_binding_valid:
 751              	.LVL70:
 752              	.LFB16:
ARM GAS  C:\Users\²Ü¼ÒºÀ\AppData\Local\Temp\ccFNKTFQ.s 			page 25


 270:C:/Users/²Ü¼ÒºÀ/.iotlink/sdk/IoT_LINK/iot_link/network/lwm2m/wakaama_lwm2m/port\object_server.c ****     if ((NULL != binding) && (strncmp(binding, "U", size) == 0
 753              		.loc 1 270 1 is_stmt 1 view -0
 754              		.cfi_startproc
 755              		@ args = 0, pretend = 0, frame = 8
 756              		@ frame_needed = 0, uses_anonymous_args = 0
 271:C:/Users/²Ü¼ÒºÀ/.iotlink/sdk/IoT_LINK/iot_link/network/lwm2m/wakaama_lwm2m/port\object_server.c ****                               || strncmp(binding, "UQ", size) == 0
 757              		.loc 1 271 5 view .LVU189
 270:C:/Users/²Ü¼ÒºÀ/.iotlink/sdk/IoT_LINK/iot_link/network/lwm2m/wakaama_lwm2m/port\object_server.c ****     if ((NULL != binding) && (strncmp(binding, "U", size) == 0
 758              		.loc 1 270 1 is_stmt 0 view .LVU190
 759 0000 13B5     		push	{r0, r1, r4, lr}
 760              	.LCFI17:
 761              		.cfi_def_cfa_offset 16
 762              		.cfi_offset 4, -8
 763              		.cfi_offset 14, -4
 270:C:/Users/²Ü¼ÒºÀ/.iotlink/sdk/IoT_LINK/iot_link/network/lwm2m/wakaama_lwm2m/port\object_server.c ****     if ((NULL != binding) && (strncmp(binding, "U", size) == 0
 764              		.loc 1 270 1 view .LVU191
 765 0002 0A46     		mov	r2, r1
 271:C:/Users/²Ü¼ÒºÀ/.iotlink/sdk/IoT_LINK/iot_link/network/lwm2m/wakaama_lwm2m/port\object_server.c ****                               || strncmp(binding, "UQ", size) == 0
 766              		.loc 1 271 8 view .LVU192
 767 0004 0446     		mov	r4, r0
 768 0006 20B3     		cbz	r0, .L59
 271:C:/Users/²Ü¼ÒºÀ/.iotlink/sdk/IoT_LINK/iot_link/network/lwm2m/wakaama_lwm2m/port\object_server.c ****                               || strncmp(binding, "UQ", size) == 0
 769              		.loc 1 271 31 discriminator 1 view .LVU193
 770 0008 0191     		str	r1, [sp, #4]
 771 000a 1449     		ldr	r1, .L66
 772              	.LVL71:
 271:C:/Users/²Ü¼ÒºÀ/.iotlink/sdk/IoT_LINK/iot_link/network/lwm2m/wakaama_lwm2m/port\object_server.c ****                               || strncmp(binding, "UQ", size) == 0
 773              		.loc 1 271 31 discriminator 1 view .LVU194
 774 000c FFF7FEFF 		bl	strncmp
 775              	.LVL72:
 271:C:/Users/²Ü¼ÒºÀ/.iotlink/sdk/IoT_LINK/iot_link/network/lwm2m/wakaama_lwm2m/port\object_server.c ****                               || strncmp(binding, "UQ", size) == 0
 776              		.loc 1 271 27 discriminator 1 view .LVU195
 777 0010 08B3     		cbz	r0, .L65
 272:C:/Users/²Ü¼ÒºÀ/.iotlink/sdk/IoT_LINK/iot_link/network/lwm2m/wakaama_lwm2m/port\object_server.c ****                               || strncmp(binding, "S", size) == 0
 778              		.loc 1 272 34 view .LVU196
 779 0012 019A     		ldr	r2, [sp, #4]
 780 0014 1249     		ldr	r1, .L66+4
 781 0016 2046     		mov	r0, r4
 782 0018 FFF7FEFF 		bl	strncmp
 783              	.LVL73:
 272:C:/Users/²Ü¼ÒºÀ/.iotlink/sdk/IoT_LINK/iot_link/network/lwm2m/wakaama_lwm2m/port\object_server.c ****                               || strncmp(binding, "S", size) == 0
 784              		.loc 1 272 31 view .LVU197
 785 001c D8B1     		cbz	r0, .L65
 273:C:/Users/²Ü¼ÒºÀ/.iotlink/sdk/IoT_LINK/iot_link/network/lwm2m/wakaama_lwm2m/port\object_server.c ****                               || strncmp(binding, "SQ", size) == 0
 786              		.loc 1 273 34 view .LVU198
 787 001e 019A     		ldr	r2, [sp, #4]
 788 0020 1049     		ldr	r1, .L66+8
 789 0022 2046     		mov	r0, r4
 790 0024 FFF7FEFF 		bl	strncmp
 791              	.LVL74:
 273:C:/Users/²Ü¼ÒºÀ/.iotlink/sdk/IoT_LINK/iot_link/network/lwm2m/wakaama_lwm2m/port\object_server.c ****                               || strncmp(binding, "SQ", size) == 0
 792              		.loc 1 273 31 view .LVU199
 793 0028 A8B1     		cbz	r0, .L65
 274:C:/Users/²Ü¼ÒºÀ/.iotlink/sdk/IoT_LINK/iot_link/network/lwm2m/wakaama_lwm2m/port\object_server.c ****                               || strncmp(binding, "US", size) == 0
 794              		.loc 1 274 34 view .LVU200
 795 002a 019A     		ldr	r2, [sp, #4]
 796 002c 0E49     		ldr	r1, .L66+12
ARM GAS  C:\Users\²Ü¼ÒºÀ\AppData\Local\Temp\ccFNKTFQ.s 			page 26


 797 002e 2046     		mov	r0, r4
 798 0030 FFF7FEFF 		bl	strncmp
 799              	.LVL75:
 274:C:/Users/²Ü¼ÒºÀ/.iotlink/sdk/IoT_LINK/iot_link/network/lwm2m/wakaama_lwm2m/port\object_server.c ****                               || strncmp(binding, "US", size) == 0
 800              		.loc 1 274 31 view .LVU201
 801 0034 78B1     		cbz	r0, .L65
 275:C:/Users/²Ü¼ÒºÀ/.iotlink/sdk/IoT_LINK/iot_link/network/lwm2m/wakaama_lwm2m/port\object_server.c ****                               || strncmp(binding, "UQS", size) == 0))
 802              		.loc 1 275 34 view .LVU202
 803 0036 019A     		ldr	r2, [sp, #4]
 804 0038 0C49     		ldr	r1, .L66+16
 805 003a 2046     		mov	r0, r4
 806 003c FFF7FEFF 		bl	strncmp
 807              	.LVL76:
 275:C:/Users/²Ü¼ÒºÀ/.iotlink/sdk/IoT_LINK/iot_link/network/lwm2m/wakaama_lwm2m/port\object_server.c ****                               || strncmp(binding, "UQS", size) == 0))
 808              		.loc 1 275 31 view .LVU203
 809 0040 48B1     		cbz	r0, .L65
 276:C:/Users/²Ü¼ÒºÀ/.iotlink/sdk/IoT_LINK/iot_link/network/lwm2m/wakaama_lwm2m/port\object_server.c ****     {
 810              		.loc 1 276 34 view .LVU204
 811 0042 019A     		ldr	r2, [sp, #4]
 812 0044 0A49     		ldr	r1, .L66+20
 813 0046 2046     		mov	r0, r4
 814 0048 FFF7FEFF 		bl	strncmp
 815              	.LVL77:
 276:C:/Users/²Ü¼ÒºÀ/.iotlink/sdk/IoT_LINK/iot_link/network/lwm2m/wakaama_lwm2m/port\object_server.c ****     {
 816              		.loc 1 276 31 view .LVU205
 817 004c B0FA80F0 		clz	r0, r0
 818 0050 4009     		lsrs	r0, r0, #5
 819              	.LVL78:
 820              	.L59:
 284:C:/Users/²Ü¼ÒºÀ/.iotlink/sdk/IoT_LINK/iot_link/network/lwm2m/wakaama_lwm2m/port\object_server.c **** static uint8_t prv_server_write(uint16_t instanceId,
 821              		.loc 1 284 1 view .LVU206
 822 0052 02B0     		add	sp, sp, #8
 823              	.LCFI18:
 824              		.cfi_remember_state
 825              		.cfi_def_cfa_offset 8
 826              		@ sp needed
 827 0054 10BD     		pop	{r4, pc}
 828              	.LVL79:
 829              	.L65:
 830              	.LCFI19:
 831              		.cfi_restore_state
 278:C:/Users/²Ü¼ÒºÀ/.iotlink/sdk/IoT_LINK/iot_link/network/lwm2m/wakaama_lwm2m/port\object_server.c ****     }
 832              		.loc 1 278 16 view .LVU207
 833 0056 0120     		movs	r0, #1
 834 0058 FBE7     		b	.L59
 835              	.L67:
 836 005a 00BF     		.align	2
 837              	.L66:
 838 005c 00000000 		.word	.LC3
 839 0060 02000000 		.word	.LC4
 840 0064 05000000 		.word	.LC5
 841 0068 07000000 		.word	.LC6
 842 006c 0A000000 		.word	.LC7
 843 0070 0D000000 		.word	.LC8
 844              		.cfi_endproc
 845              	.LFE16:
 847              		.section	.text.prv_server_write,"ax",%progbits
ARM GAS  C:\Users\²Ü¼ÒºÀ\AppData\Local\Temp\ccFNKTFQ.s 			page 27


 848              		.align	1
 849              		.syntax unified
 850              		.thumb
 851              		.thumb_func
 852              		.fpu fpv4-sp-d16
 854              	prv_server_write:
 855              	.LVL80:
 856              	.LFB17:
 289:C:/Users/²Ü¼ÒºÀ/.iotlink/sdk/IoT_LINK/iot_link/network/lwm2m/wakaama_lwm2m/port\object_server.c ****     char uri[MAX_STRURI_LEN] = {0};
 857              		.loc 1 289 1 is_stmt 1 view -0
 858              		.cfi_startproc
 859              		@ args = 0, pretend = 0, frame = 24
 860              		@ frame_needed = 0, uses_anonymous_args = 0
 290:C:/Users/²Ü¼ÒºÀ/.iotlink/sdk/IoT_LINK/iot_link/network/lwm2m/wakaama_lwm2m/port\object_server.c ****     server_instance_t *targetP;
 861              		.loc 1 290 5 view .LVU209
 289:C:/Users/²Ü¼ÒºÀ/.iotlink/sdk/IoT_LINK/iot_link/network/lwm2m/wakaama_lwm2m/port\object_server.c ****     char uri[MAX_STRURI_LEN] = {0};
 862              		.loc 1 289 1 is_stmt 0 view .LVU210
 863 0000 2DE9F04F 		push	{r4, r5, r6, r7, r8, r9, r10, fp, lr}
 864              	.LCFI20:
 865              		.cfi_def_cfa_offset 36
 866              		.cfi_offset 4, -36
 867              		.cfi_offset 5, -32
 868              		.cfi_offset 6, -28
 869              		.cfi_offset 7, -24
 870              		.cfi_offset 8, -20
 871              		.cfi_offset 9, -16
 872              		.cfi_offset 10, -12
 873              		.cfi_offset 11, -8
 874              		.cfi_offset 14, -4
 875 0004 9846     		mov	r8, r3
 876 0006 89B0     		sub	sp, sp, #36
 877              	.LCFI21:
 878              		.cfi_def_cfa_offset 72
 290:C:/Users/²Ü¼ÒºÀ/.iotlink/sdk/IoT_LINK/iot_link/network/lwm2m/wakaama_lwm2m/port\object_server.c ****     server_instance_t *targetP;
 879              		.loc 1 290 10 view .LVU211
 880 0008 0026     		movs	r6, #0
 289:C:/Users/²Ü¼ÒºÀ/.iotlink/sdk/IoT_LINK/iot_link/network/lwm2m/wakaama_lwm2m/port\object_server.c ****     char uri[MAX_STRURI_LEN] = {0};
 881              		.loc 1 289 1 view .LVU212
 882 000a 1446     		mov	r4, r2
 290:C:/Users/²Ü¼ÒºÀ/.iotlink/sdk/IoT_LINK/iot_link/network/lwm2m/wakaama_lwm2m/port\object_server.c ****     server_instance_t *targetP;
 883              		.loc 1 290 10 view .LVU213
 884 000c 1022     		movs	r2, #16
 885              	.LVL81:
 289:C:/Users/²Ü¼ÒºÀ/.iotlink/sdk/IoT_LINK/iot_link/network/lwm2m/wakaama_lwm2m/port\object_server.c ****     char uri[MAX_STRURI_LEN] = {0};
 886              		.loc 1 289 1 view .LVU214
 887 000e 0746     		mov	r7, r0
 888 0010 8946     		mov	r9, r1
 290:C:/Users/²Ü¼ÒºÀ/.iotlink/sdk/IoT_LINK/iot_link/network/lwm2m/wakaama_lwm2m/port\object_server.c ****     server_instance_t *targetP;
 889              		.loc 1 290 10 view .LVU215
 890 0012 0DEB0200 		add	r0, sp, r2
 891              	.LVL82:
 290:C:/Users/²Ü¼ÒºÀ/.iotlink/sdk/IoT_LINK/iot_link/network/lwm2m/wakaama_lwm2m/port\object_server.c ****     server_instance_t *targetP;
 892              		.loc 1 290 10 view .LVU216
 893 0016 3146     		mov	r1, r6
 894              	.LVL83:
 290:C:/Users/²Ü¼ÒºÀ/.iotlink/sdk/IoT_LINK/iot_link/network/lwm2m/wakaama_lwm2m/port\object_server.c ****     server_instance_t *targetP;
 895              		.loc 1 290 10 view .LVU217
ARM GAS  C:\Users\²Ü¼ÒºÀ\AppData\Local\Temp\ccFNKTFQ.s 			page 28


 896 0018 0396     		str	r6, [sp, #12]
 897 001a FFF7FEFF 		bl	memset
 898              	.LVL84:
 291:C:/Users/²Ü¼ÒºÀ/.iotlink/sdk/IoT_LINK/iot_link/network/lwm2m/wakaama_lwm2m/port\object_server.c ****     int i;
 899              		.loc 1 291 5 is_stmt 1 view .LVU218
 292:C:/Users/²Ü¼ÒºÀ/.iotlink/sdk/IoT_LINK/iot_link/network/lwm2m/wakaama_lwm2m/port\object_server.c ****     uint8_t result;
 900              		.loc 1 292 5 view .LVU219
 293:C:/Users/²Ü¼ÒºÀ/.iotlink/sdk/IoT_LINK/iot_link/network/lwm2m/wakaama_lwm2m/port\object_server.c ****     targetP = (server_instance_t *)lwm2m_list_find(objectP->instanceList, instanceId);
 901              		.loc 1 293 5 view .LVU220
 294:C:/Users/²Ü¼ÒºÀ/.iotlink/sdk/IoT_LINK/iot_link/network/lwm2m/wakaama_lwm2m/port\object_server.c **** 
 902              		.loc 1 294 5 view .LVU221
 294:C:/Users/²Ü¼ÒºÀ/.iotlink/sdk/IoT_LINK/iot_link/network/lwm2m/wakaama_lwm2m/port\object_server.c **** 
 903              		.loc 1 294 36 is_stmt 0 view .LVU222
 904 001e D8F80800 		ldr	r0, [r8, #8]
 905 0022 3946     		mov	r1, r7
 906 0024 FFF7FEFF 		bl	lwm2m_list_find
 907              	.LVL85:
 296:C:/Users/²Ü¼ÒºÀ/.iotlink/sdk/IoT_LINK/iot_link/network/lwm2m/wakaama_lwm2m/port\object_server.c ****     {
 908              		.loc 1 296 5 is_stmt 1 view .LVU223
 296:C:/Users/²Ü¼ÒºÀ/.iotlink/sdk/IoT_LINK/iot_link/network/lwm2m/wakaama_lwm2m/port\object_server.c ****     {
 909              		.loc 1 296 8 is_stmt 0 view .LVU224
 910 0028 0546     		mov	r5, r0
 911 002a 0028     		cmp	r0, #0
 912 002c 71D0     		beq	.L84
 389:C:/Users/²Ü¼ÒºÀ/.iotlink/sdk/IoT_LINK/iot_link/network/lwm2m/wakaama_lwm2m/port\object_server.c ****                 lwm2m_cmd_ioctl(LWM2M_CMD_TRIGER_SERVER_INITIATED_BS, NULL, 0, LWM2M_AL_OP_SERVERRE
 913              		.loc 1 389 17 view .LVU225
 914 002e DFF8E8B0 		ldr	fp, .L96
 915 0032 0DF10C0A 		add	r10, sp, #12
 916              	.LVL86:
 917              	.L82:
 303:C:/Users/²Ü¼ÒºÀ/.iotlink/sdk/IoT_LINK/iot_link/network/lwm2m/wakaama_lwm2m/port\object_server.c ****     {
 918              		.loc 1 303 5 is_stmt 1 view .LVU226
 305:C:/Users/²Ü¼ÒºÀ/.iotlink/sdk/IoT_LINK/iot_link/network/lwm2m/wakaama_lwm2m/port\object_server.c ****         {
 919              		.loc 1 305 9 view .LVU227
 920 0036 6388     		ldrh	r3, [r4, #2]
 921 0038 092B     		cmp	r3, #9
 922 003a 6AD8     		bhi	.L84
 923 003c DFE803F0 		tbb	[pc, r3]
 924              	.L71:
 925 0040 05       		.byte	(.L79-.L71)/2
 926 0041 1F       		.byte	(.L78-.L71)/2
 927 0042 25       		.byte	(.L77-.L71)/2
 928 0043 28       		.byte	(.L76-.L71)/2
 929 0044 65       		.byte	(.L85-.L71)/2
 930 0045 2B       		.byte	(.L75-.L71)/2
 931 0046 2E       		.byte	(.L74-.L71)/2
 932 0047 3C       		.byte	(.L73-.L71)/2
 933 0048 65       		.byte	(.L85-.L71)/2
 934 0049 52       		.byte	(.L70-.L71)/2
 935              		.p2align 1
 936              	.L79:
 937              	.LBB23:
 309:C:/Users/²Ü¼ÒºÀ/.iotlink/sdk/IoT_LINK/iot_link/network/lwm2m/wakaama_lwm2m/port\object_server.c ****                 result = prv_set_int_value(dataArray + i, &value);
 938              		.loc 1 309 17 view .LVU228
 309:C:/Users/²Ü¼ÒºÀ/.iotlink/sdk/IoT_LINK/iot_link/network/lwm2m/wakaama_lwm2m/port\object_server.c ****                 result = prv_set_int_value(dataArray + i, &value);
 939              		.loc 1 309 41 is_stmt 0 view .LVU229
 940 004a EB88     		ldrh	r3, [r5, #6]
ARM GAS  C:\Users\²Ü¼ÒºÀ\AppData\Local\Temp\ccFNKTFQ.s 			page 29


 941 004c 0293     		str	r3, [sp, #8]
 310:C:/Users/²Ü¼ÒºÀ/.iotlink/sdk/IoT_LINK/iot_link/network/lwm2m/wakaama_lwm2m/port\object_server.c **** 
 942              		.loc 1 310 17 is_stmt 1 view .LVU230
 310:C:/Users/²Ü¼ÒºÀ/.iotlink/sdk/IoT_LINK/iot_link/network/lwm2m/wakaama_lwm2m/port\object_server.c **** 
 943              		.loc 1 310 26 is_stmt 0 view .LVU231
 944 004e 02A9     		add	r1, sp, #8
 945 0050 2046     		mov	r0, r4
 946 0052 FFF7FEFF 		bl	prv_set_int_value
 947              	.LVL87:
 312:C:/Users/²Ü¼ÒºÀ/.iotlink/sdk/IoT_LINK/iot_link/network/lwm2m/wakaama_lwm2m/port\object_server.c ****                 {
 948              		.loc 1 312 17 is_stmt 1 view .LVU232
 312:C:/Users/²Ü¼ÒºÀ/.iotlink/sdk/IoT_LINK/iot_link/network/lwm2m/wakaama_lwm2m/port\object_server.c ****                 {
 949              		.loc 1 312 20 is_stmt 0 view .LVU233
 950 0056 4428     		cmp	r0, #68
 951 0058 07D1     		bne	.L72
 314:C:/Users/²Ü¼ÒºÀ/.iotlink/sdk/IoT_LINK/iot_link/network/lwm2m/wakaama_lwm2m/port\object_server.c ****                     {
 952              		.loc 1 314 21 is_stmt 1 view .LVU234
 314:C:/Users/²Ü¼ÒºÀ/.iotlink/sdk/IoT_LINK/iot_link/network/lwm2m/wakaama_lwm2m/port\object_server.c ****                     {
 953              		.loc 1 314 35 is_stmt 0 view .LVU235
 954 005a 029B     		ldr	r3, [sp, #8]
 314:C:/Users/²Ü¼ÒºÀ/.iotlink/sdk/IoT_LINK/iot_link/network/lwm2m/wakaama_lwm2m/port\object_server.c ****                     {
 955              		.loc 1 314 24 view .LVU236
 956 005c 4FF6FE72 		movw	r2, #65534
 314:C:/Users/²Ü¼ÒºÀ/.iotlink/sdk/IoT_LINK/iot_link/network/lwm2m/wakaama_lwm2m/port\object_server.c ****                     {
 957              		.loc 1 314 35 view .LVU237
 958 0060 591E     		subs	r1, r3, #1
 314:C:/Users/²Ü¼ÒºÀ/.iotlink/sdk/IoT_LINK/iot_link/network/lwm2m/wakaama_lwm2m/port\object_server.c ****                     {
 959              		.loc 1 314 24 view .LVU238
 960 0062 9142     		cmp	r1, r2
 316:C:/Users/²Ü¼ÒºÀ/.iotlink/sdk/IoT_LINK/iot_link/network/lwm2m/wakaama_lwm2m/port\object_server.c ****                     }
 961              		.loc 1 316 25 is_stmt 1 view .LVU239
 316:C:/Users/²Ü¼ÒºÀ/.iotlink/sdk/IoT_LINK/iot_link/network/lwm2m/wakaama_lwm2m/port\object_server.c ****                     }
 962              		.loc 1 316 48 is_stmt 0 view .LVU240
 963 0064 94BF     		ite	ls
 964 0066 EB80     		strhls	r3, [r5, #6]	@ movhi
 320:C:/Users/²Ü¼ÒºÀ/.iotlink/sdk/IoT_LINK/iot_link/network/lwm2m/wakaama_lwm2m/port\object_server.c ****                     }
 965              		.loc 1 320 32 view .LVU241
 966 0068 8620     		movhi	r0, #134
 967              	.LVL88:
 320:C:/Users/²Ü¼ÒºÀ/.iotlink/sdk/IoT_LINK/iot_link/network/lwm2m/wakaama_lwm2m/port\object_server.c ****                     }
 968              		.loc 1 320 32 view .LVU242
 969              	.LBE23:
 324:C:/Users/²Ü¼ÒºÀ/.iotlink/sdk/IoT_LINK/iot_link/network/lwm2m/wakaama_lwm2m/port\object_server.c **** 
 970              		.loc 1 324 13 is_stmt 1 view .LVU243
 971              	.L72:
 398:C:/Users/²Ü¼ÒºÀ/.iotlink/sdk/IoT_LINK/iot_link/network/lwm2m/wakaama_lwm2m/port\object_server.c ****     }
 972              		.loc 1 398 9 view .LVU244
 398:C:/Users/²Ü¼ÒºÀ/.iotlink/sdk/IoT_LINK/iot_link/network/lwm2m/wakaama_lwm2m/port\object_server.c ****     }
 973              		.loc 1 398 10 is_stmt 0 view .LVU245
 974 006a 0136     		adds	r6, r6, #1
 975              	.LVL89:
 400:C:/Users/²Ü¼ÒºÀ/.iotlink/sdk/IoT_LINK/iot_link/network/lwm2m/wakaama_lwm2m/port\object_server.c **** 
 976              		.loc 1 400 11 is_stmt 1 view .LVU246
 400:C:/Users/²Ü¼ÒºÀ/.iotlink/sdk/IoT_LINK/iot_link/network/lwm2m/wakaama_lwm2m/port\object_server.c **** 
 977              		.loc 1 400 5 is_stmt 0 view .LVU247
 978 006c 4E45     		cmp	r6, r9
 979 006e 03DA     		bge	.L69
ARM GAS  C:\Users\²Ü¼ÒºÀ\AppData\Local\Temp\ccFNKTFQ.s 			page 30


 400:C:/Users/²Ü¼ÒºÀ/.iotlink/sdk/IoT_LINK/iot_link/network/lwm2m/wakaama_lwm2m/port\object_server.c **** 
 980              		.loc 1 400 26 discriminator 1 view .LVU248
 981 0070 4428     		cmp	r0, #68
 982 0072 04F11004 		add	r4, r4, #16
 983 0076 DED0     		beq	.L82
 984              	.LVL90:
 985              	.L69:
 403:C:/Users/²Ü¼ÒºÀ/.iotlink/sdk/IoT_LINK/iot_link/network/lwm2m/wakaama_lwm2m/port\object_server.c **** 
 986              		.loc 1 403 1 view .LVU249
 987 0078 09B0     		add	sp, sp, #36
 988              	.LCFI22:
 989              		.cfi_remember_state
 990              		.cfi_def_cfa_offset 36
 991              		@ sp needed
 992 007a BDE8F08F 		pop	{r4, r5, r6, r7, r8, r9, r10, fp, pc}
 993              	.LVL91:
 994              	.L78:
 995              	.LCFI23:
 996              		.cfi_restore_state
 327:C:/Users/²Ü¼ÒºÀ/.iotlink/sdk/IoT_LINK/iot_link/network/lwm2m/wakaama_lwm2m/port\object_server.c ****                 break;
 997              		.loc 1 327 17 is_stmt 1 view .LVU250
 327:C:/Users/²Ü¼ÒºÀ/.iotlink/sdk/IoT_LINK/iot_link/network/lwm2m/wakaama_lwm2m/port\object_server.c ****                 break;
 998              		.loc 1 327 26 is_stmt 0 view .LVU251
 999 007e 05F10801 		add	r1, r5, #8
 1000              	.L94:
 331:C:/Users/²Ü¼ÒºÀ/.iotlink/sdk/IoT_LINK/iot_link/network/lwm2m/wakaama_lwm2m/port\object_server.c ****                 break;
 1001              		.loc 1 331 26 view .LVU252
 1002 0082 2046     		mov	r0, r4
 1003 0084 FFF7FEFF 		bl	prv_set_int_value
 1004              	.LVL92:
 332:C:/Users/²Ü¼ÒºÀ/.iotlink/sdk/IoT_LINK/iot_link/network/lwm2m/wakaama_lwm2m/port\object_server.c **** 
 1005              		.loc 1 332 17 is_stmt 1 view .LVU253
 1006 0088 EFE7     		b	.L72
 1007              	.LVL93:
 1008              	.L77:
 331:C:/Users/²Ü¼ÒºÀ/.iotlink/sdk/IoT_LINK/iot_link/network/lwm2m/wakaama_lwm2m/port\object_server.c ****                 break;
 1009              		.loc 1 331 17 view .LVU254
 331:C:/Users/²Ü¼ÒºÀ/.iotlink/sdk/IoT_LINK/iot_link/network/lwm2m/wakaama_lwm2m/port\object_server.c ****                 break;
 1010              		.loc 1 331 26 is_stmt 0 view .LVU255
 1011 008a 05F10C01 		add	r1, r5, #12
 1012 008e F8E7     		b	.L94
 1013              	.L76:
 335:C:/Users/²Ü¼ÒºÀ/.iotlink/sdk/IoT_LINK/iot_link/network/lwm2m/wakaama_lwm2m/port\object_server.c ****                 break;
 1014              		.loc 1 335 17 is_stmt 1 view .LVU256
 335:C:/Users/²Ü¼ÒºÀ/.iotlink/sdk/IoT_LINK/iot_link/network/lwm2m/wakaama_lwm2m/port\object_server.c ****                 break;
 1015              		.loc 1 335 26 is_stmt 0 view .LVU257
 1016 0090 05F11001 		add	r1, r5, #16
 1017 0094 F5E7     		b	.L94
 1018              	.L75:
 343:C:/Users/²Ü¼ÒºÀ/.iotlink/sdk/IoT_LINK/iot_link/network/lwm2m/wakaama_lwm2m/port\object_server.c ****                 break;
 1019              		.loc 1 343 17 is_stmt 1 view .LVU258
 343:C:/Users/²Ü¼ÒºÀ/.iotlink/sdk/IoT_LINK/iot_link/network/lwm2m/wakaama_lwm2m/port\object_server.c ****                 break;
 1020              		.loc 1 343 26 is_stmt 0 view .LVU259
 1021 0096 05F11401 		add	r1, r5, #20
 1022 009a F2E7     		b	.L94
 1023              	.L74:
 1024              	.LBB24:
ARM GAS  C:\Users\²Ü¼ÒºÀ\AppData\Local\Temp\ccFNKTFQ.s 			page 31


 348:C:/Users/²Ü¼ÒºÀ/.iotlink/sdk/IoT_LINK/iot_link/network/lwm2m/wakaama_lwm2m/port\object_server.c **** 
 1025              		.loc 1 348 17 is_stmt 1 view .LVU260
 350:C:/Users/²Ü¼ÒºÀ/.iotlink/sdk/IoT_LINK/iot_link/network/lwm2m/wakaama_lwm2m/port\object_server.c ****                 {
 1026              		.loc 1 350 17 view .LVU261
 350:C:/Users/²Ü¼ÒºÀ/.iotlink/sdk/IoT_LINK/iot_link/network/lwm2m/wakaama_lwm2m/port\object_server.c ****                 {
 1027              		.loc 1 350 26 is_stmt 0 view .LVU262
 1028 009c 02A9     		add	r1, sp, #8
 1029 009e 2046     		mov	r0, r4
 1030 00a0 FFF7FEFF 		bl	lwm2m_data_decode_bool
 1031              	.LVL94:
 350:C:/Users/²Ü¼ÒºÀ/.iotlink/sdk/IoT_LINK/iot_link/network/lwm2m/wakaama_lwm2m/port\object_server.c ****                 {
 1032              		.loc 1 350 20 view .LVU263
 1033 00a4 0128     		cmp	r0, #1
 1034 00a6 32D1     		bne	.L91
 352:C:/Users/²Ü¼ÒºÀ/.iotlink/sdk/IoT_LINK/iot_link/network/lwm2m/wakaama_lwm2m/port\object_server.c **** 
 1035              		.loc 1 352 21 is_stmt 1 view .LVU264
 352:C:/Users/²Ü¼ÒºÀ/.iotlink/sdk/IoT_LINK/iot_link/network/lwm2m/wakaama_lwm2m/port\object_server.c **** 
 1036              		.loc 1 352 38 is_stmt 0 view .LVU265
 1037 00a8 9DF80800 		ldrb	r0, [sp, #8]	@ zero_extendqisi2
 1038 00ac 2876     		strb	r0, [r5, #24]
 354:C:/Users/²Ü¼ÒºÀ/.iotlink/sdk/IoT_LINK/iot_link/network/lwm2m/wakaama_lwm2m/port\object_server.c ****                     {
 1039              		.loc 1 354 21 is_stmt 1 view .LVU266
 354:C:/Users/²Ü¼ÒºÀ/.iotlink/sdk/IoT_LINK/iot_link/network/lwm2m/wakaama_lwm2m/port\object_server.c ****                     {
 1040              		.loc 1 354 24 is_stmt 0 view .LVU267
 1041 00ae 08B9     		cbnz	r0, .L95
 356:C:/Users/²Ü¼ÒºÀ/.iotlink/sdk/IoT_LINK/iot_link/network/lwm2m/wakaama_lwm2m/port\object_server.c ****                     }
 1042              		.loc 1 356 25 is_stmt 1 view .LVU268
 1043 00b0 FFF7FEFF 		bl	set_binary_app_data_object_rpt_max_cnt
 1044              	.LVL95:
 1045              	.L95:
 356:C:/Users/²Ü¼ÒºÀ/.iotlink/sdk/IoT_LINK/iot_link/network/lwm2m/wakaama_lwm2m/port\object_server.c ****                     }
 1046              		.loc 1 356 25 is_stmt 0 view .LVU269
 1047              	.LBE24:
 375:C:/Users/²Ü¼ÒºÀ/.iotlink/sdk/IoT_LINK/iot_link/network/lwm2m/wakaama_lwm2m/port\object_server.c ****                 }
 1048              		.loc 1 375 21 is_stmt 1 view .LVU270
 375:C:/Users/²Ü¼ÒºÀ/.iotlink/sdk/IoT_LINK/iot_link/network/lwm2m/wakaama_lwm2m/port\object_server.c ****                 }
 1049              		.loc 1 375 28 is_stmt 0 view .LVU271
 1050 00b4 4420     		movs	r0, #68
 1051 00b6 D8E7     		b	.L72
 1052              	.LVL96:
 1053              	.L73:
 369:C:/Users/²Ü¼ÒºÀ/.iotlink/sdk/IoT_LINK/iot_link/network/lwm2m/wakaama_lwm2m/port\object_server.c ****                     && (dataArray[i].value.asBuffer.length > 0) && (dataArray[i].value.asBuffer.len
 1054              		.loc 1 369 17 is_stmt 1 view .LVU272
 369:C:/Users/²Ü¼ÒºÀ/.iotlink/sdk/IoT_LINK/iot_link/network/lwm2m/wakaama_lwm2m/port\object_server.c ****                     && (dataArray[i].value.asBuffer.length > 0) && (dataArray[i].value.asBuffer.len
 1055              		.loc 1 369 63 is_stmt 0 view .LVU273
 1056 00b8 2378     		ldrb	r3, [r4]	@ zero_extendqisi2
 369:C:/Users/²Ü¼ÒºÀ/.iotlink/sdk/IoT_LINK/iot_link/network/lwm2m/wakaama_lwm2m/port\object_server.c ****                     && (dataArray[i].value.asBuffer.length > 0) && (dataArray[i].value.asBuffer.len
 1057              		.loc 1 369 20 view .LVU274
 1058 00ba 043B     		subs	r3, r3, #4
 1059 00bc 012B     		cmp	r3, #1
 1060 00be 26D8     		bhi	.L91
 370:C:/Users/²Ü¼ÒºÀ/.iotlink/sdk/IoT_LINK/iot_link/network/lwm2m/wakaama_lwm2m/port\object_server.c ****                     && prv_server_check_binding_valid((char *)dataArray[i].value.asBuffer.buffer, d
 1061              		.loc 1 370 52 view .LVU275
 1062 00c0 A168     		ldr	r1, [r4, #8]
 370:C:/Users/²Ü¼ÒºÀ/.iotlink/sdk/IoT_LINK/iot_link/network/lwm2m/wakaama_lwm2m/port\object_server.c ****                     && prv_server_check_binding_valid((char *)dataArray[i].value.asBuffer.buffer, d
 1063              		.loc 1 370 21 view .LVU276
 1064 00c2 4B1E     		subs	r3, r1, #1
ARM GAS  C:\Users\²Ü¼ÒºÀ\AppData\Local\Temp\ccFNKTFQ.s 			page 32


 1065 00c4 022B     		cmp	r3, #2
 1066 00c6 22D8     		bhi	.L91
 371:C:/Users/²Ü¼ÒºÀ/.iotlink/sdk/IoT_LINK/iot_link/network/lwm2m/wakaama_lwm2m/port\object_server.c ****                 {
 1067              		.loc 1 371 24 view .LVU277
 1068 00c8 E068     		ldr	r0, [r4, #12]
 1069 00ca FFF7FEFF 		bl	prv_server_check_binding_valid
 1070              	.LVL97:
 371:C:/Users/²Ü¼ÒºÀ/.iotlink/sdk/IoT_LINK/iot_link/network/lwm2m/wakaama_lwm2m/port\object_server.c ****                 {
 1071              		.loc 1 371 21 view .LVU278
 1072 00ce F0B1     		cbz	r0, .L91
 373:C:/Users/²Ü¼ÒºÀ/.iotlink/sdk/IoT_LINK/iot_link/network/lwm2m/wakaama_lwm2m/port\object_server.c ****                     (void) strncpy(targetP->binding, (char *)dataArray[i].value.asBuffer.buffer, da
 1073              		.loc 1 373 21 is_stmt 1 view .LVU279
 373:C:/Users/²Ü¼ÒºÀ/.iotlink/sdk/IoT_LINK/iot_link/network/lwm2m/wakaama_lwm2m/port\object_server.c ****                     (void) strncpy(targetP->binding, (char *)dataArray[i].value.asBuffer.buffer, da
 1074              		.loc 1 373 28 is_stmt 0 view .LVU280
 1075 00d0 0023     		movs	r3, #0
 1076 00d2 C5F81930 		str	r3, [r5, #25]	@ unaligned
 374:C:/Users/²Ü¼ÒºÀ/.iotlink/sdk/IoT_LINK/iot_link/network/lwm2m/wakaama_lwm2m/port\object_server.c ****                     result = COAP_204_CHANGED;
 1077              		.loc 1 374 21 is_stmt 1 view .LVU281
 374:C:/Users/²Ü¼ÒºÀ/.iotlink/sdk/IoT_LINK/iot_link/network/lwm2m/wakaama_lwm2m/port\object_server.c ****                     result = COAP_204_CHANGED;
 1078              		.loc 1 374 28 is_stmt 0 view .LVU282
 1079 00d6 D4E90221 		ldrd	r2, r1, [r4, #8]
 1080 00da 05F11900 		add	r0, r5, #25
 1081 00de FFF7FEFF 		bl	strncpy
 1082              	.LVL98:
 1083 00e2 E7E7     		b	.L95
 1084              	.L70:
 389:C:/Users/²Ü¼ÒºÀ/.iotlink/sdk/IoT_LINK/iot_link/network/lwm2m/wakaama_lwm2m/port\object_server.c ****                 lwm2m_cmd_ioctl(LWM2M_CMD_TRIGER_SERVER_INITIATED_BS, NULL, 0, LWM2M_AL_OP_SERVERRE
 1085              		.loc 1 389 17 is_stmt 1 view .LVU283
 1086 00e4 0923     		movs	r3, #9
 1087 00e6 CDE90073 		strd	r7, r3, [sp]
 1088 00ea 5A46     		mov	r2, fp
 1089 00ec B8F80430 		ldrh	r3, [r8, #4]
 1090 00f0 1421     		movs	r1, #20
 1091 00f2 5046     		mov	r0, r10
 1092 00f4 FFF7FEFF 		bl	snprintf
 1093              	.LVL99:
 390:C:/Users/²Ü¼ÒºÀ/.iotlink/sdk/IoT_LINK/iot_link/network/lwm2m/wakaama_lwm2m/port\object_server.c ****                 result = COAP_204_CHANGED;
 1094              		.loc 1 390 17 view .LVU284
 1095 00f8 0022     		movs	r2, #0
 1096 00fa CDF800A0 		str	r10, [sp]
 1097 00fe 0523     		movs	r3, #5
 1098 0100 1146     		mov	r1, r2
 1099 0102 2520     		movs	r0, #37
 1100 0104 FFF7FEFF 		bl	lwm2m_cmd_ioctl
 1101              	.LVL100:
 391:C:/Users/²Ü¼ÒºÀ/.iotlink/sdk/IoT_LINK/iot_link/network/lwm2m/wakaama_lwm2m/port\object_server.c ****                 break;
 1102              		.loc 1 391 17 view .LVU285
 392:C:/Users/²Ü¼ÒºÀ/.iotlink/sdk/IoT_LINK/iot_link/network/lwm2m/wakaama_lwm2m/port\object_server.c **** 
 1103              		.loc 1 392 17 view .LVU286
 1104 0108 D4E7     		b	.L95
 1105              	.LVL101:
 1106              	.L85:
 305:C:/Users/²Ü¼ÒºÀ/.iotlink/sdk/IoT_LINK/iot_link/network/lwm2m/wakaama_lwm2m/port\object_server.c ****         {
 1107              		.loc 1 305 29 is_stmt 0 view .LVU287
 1108 010a 8520     		movs	r0, #133
 1109 010c ADE7     		b	.L72
 1110              	.L91:
ARM GAS  C:\Users\²Ü¼ÒºÀ\AppData\Local\Temp\ccFNKTFQ.s 			page 33


 379:C:/Users/²Ü¼ÒºÀ/.iotlink/sdk/IoT_LINK/iot_link/network/lwm2m/wakaama_lwm2m/port\object_server.c ****                 }
 1111              		.loc 1 379 28 view .LVU288
 1112 010e 8020     		movs	r0, #128
 1113 0110 ABE7     		b	.L72
 1114              	.LVL102:
 1115              	.L84:
 305:C:/Users/²Ü¼ÒºÀ/.iotlink/sdk/IoT_LINK/iot_link/network/lwm2m/wakaama_lwm2m/port\object_server.c ****         {
 1116              		.loc 1 305 29 view .LVU289
 1117 0112 8420     		movs	r0, #132
 1118 0114 B0E7     		b	.L69
 1119              	.L97:
 1120 0116 00BF     		.align	2
 1121              	.L96:
 1122 0118 00000000 		.word	.LC2
 1123              		.cfi_endproc
 1124              	.LFE17:
 1126              		.section	.text.prv_server_create,"ax",%progbits
 1127              		.align	1
 1128              		.syntax unified
 1129              		.thumb
 1130              		.thumb_func
 1131              		.fpu fpv4-sp-d16
 1133              	prv_server_create:
 1134              	.LVL103:
 1135              	.LFB20:
 452:C:/Users/²Ü¼ÒºÀ/.iotlink/sdk/IoT_LINK/iot_link/network/lwm2m/wakaama_lwm2m/port\object_server.c **** 
 453:C:/Users/²Ü¼ÒºÀ/.iotlink/sdk/IoT_LINK/iot_link/network/lwm2m/wakaama_lwm2m/port\object_server.c **** static uint8_t prv_server_create(uint16_t instanceId,
 454:C:/Users/²Ü¼ÒºÀ/.iotlink/sdk/IoT_LINK/iot_link/network/lwm2m/wakaama_lwm2m/port\object_server.c ****                                  int numData,
 455:C:/Users/²Ü¼ÒºÀ/.iotlink/sdk/IoT_LINK/iot_link/network/lwm2m/wakaama_lwm2m/port\object_server.c ****                                  lwm2m_data_t *dataArray,
 456:C:/Users/²Ü¼ÒºÀ/.iotlink/sdk/IoT_LINK/iot_link/network/lwm2m/wakaama_lwm2m/port\object_server.c ****                                  lwm2m_object_t *objectP)
 457:C:/Users/²Ü¼ÒºÀ/.iotlink/sdk/IoT_LINK/iot_link/network/lwm2m/wakaama_lwm2m/port\object_server.c **** {
 1136              		.loc 1 457 1 is_stmt 1 view -0
 1137              		.cfi_startproc
 1138              		@ args = 0, pretend = 0, frame = 0
 1139              		@ frame_needed = 0, uses_anonymous_args = 0
 458:C:/Users/²Ü¼ÒºÀ/.iotlink/sdk/IoT_LINK/iot_link/network/lwm2m/wakaama_lwm2m/port\object_server.c ****     server_instance_t *serverInstance;
 1140              		.loc 1 458 5 view .LVU291
 459:C:/Users/²Ü¼ÒºÀ/.iotlink/sdk/IoT_LINK/iot_link/network/lwm2m/wakaama_lwm2m/port\object_server.c ****     uint8_t result;
 1141              		.loc 1 459 5 view .LVU292
 460:C:/Users/²Ü¼ÒºÀ/.iotlink/sdk/IoT_LINK/iot_link/network/lwm2m/wakaama_lwm2m/port\object_server.c ****     serverInstance = (server_instance_t *)lwm2m_malloc(sizeof(server_instance_t));
 1142              		.loc 1 460 5 view .LVU293
 457:C:/Users/²Ü¼ÒºÀ/.iotlink/sdk/IoT_LINK/iot_link/network/lwm2m/wakaama_lwm2m/port\object_server.c ****     server_instance_t *serverInstance;
 1143              		.loc 1 457 1 is_stmt 0 view .LVU294
 1144 0000 2DE9F041 		push	{r4, r5, r6, r7, r8, lr}
 1145              	.LCFI24:
 1146              		.cfi_def_cfa_offset 24
 1147              		.cfi_offset 4, -24
 1148              		.cfi_offset 5, -20
 1149              		.cfi_offset 6, -16
 1150              		.cfi_offset 7, -12
 1151              		.cfi_offset 8, -8
 1152              		.cfi_offset 14, -4
 457:C:/Users/²Ü¼ÒºÀ/.iotlink/sdk/IoT_LINK/iot_link/network/lwm2m/wakaama_lwm2m/port\object_server.c ****     server_instance_t *serverInstance;
 1153              		.loc 1 457 1 view .LVU295
 1154 0004 0646     		mov	r6, r0
 1155              		.loc 1 460 43 view .LVU296
 1156 0006 2020     		movs	r0, #32
ARM GAS  C:\Users\²Ü¼ÒºÀ\AppData\Local\Temp\ccFNKTFQ.s 			page 34


 1157              	.LVL104:
 457:C:/Users/²Ü¼ÒºÀ/.iotlink/sdk/IoT_LINK/iot_link/network/lwm2m/wakaama_lwm2m/port\object_server.c ****     server_instance_t *serverInstance;
 1158              		.loc 1 457 1 view .LVU297
 1159 0008 0F46     		mov	r7, r1
 1160 000a 9046     		mov	r8, r2
 1161 000c 1D46     		mov	r5, r3
 1162              		.loc 1 460 43 view .LVU298
 1163 000e FFF7FEFF 		bl	lwm2m_malloc
 1164              	.LVL105:
 461:C:/Users/²Ü¼ÒºÀ/.iotlink/sdk/IoT_LINK/iot_link/network/lwm2m/wakaama_lwm2m/port\object_server.c **** 
 462:C:/Users/²Ü¼ÒºÀ/.iotlink/sdk/IoT_LINK/iot_link/network/lwm2m/wakaama_lwm2m/port\object_server.c ****     if (NULL == serverInstance) return COAP_500_INTERNAL_SERVER_ERROR;
 1165              		.loc 1 462 5 is_stmt 1 view .LVU299
 1166              		.loc 1 462 8 is_stmt 0 view .LVU300
 1167 0012 0446     		mov	r4, r0
 1168 0014 C8B1     		cbz	r0, .L100
 463:C:/Users/²Ü¼ÒºÀ/.iotlink/sdk/IoT_LINK/iot_link/network/lwm2m/wakaama_lwm2m/port\object_server.c **** 
 464:C:/Users/²Ü¼ÒºÀ/.iotlink/sdk/IoT_LINK/iot_link/network/lwm2m/wakaama_lwm2m/port\object_server.c ****     (void) memset(serverInstance, 0, sizeof(server_instance_t));
 1169              		.loc 1 464 5 is_stmt 1 view .LVU301
 1170              		.loc 1 464 12 is_stmt 0 view .LVU302
 1171 0016 2022     		movs	r2, #32
 1172 0018 0021     		movs	r1, #0
 1173 001a FFF7FEFF 		bl	memset
 1174              	.LVL106:
 465:C:/Users/²Ü¼ÒºÀ/.iotlink/sdk/IoT_LINK/iot_link/network/lwm2m/wakaama_lwm2m/port\object_server.c ****     serverInstance->instanceId = instanceId;
 1175              		.loc 1 465 5 is_stmt 1 view .LVU303
 466:C:/Users/²Ü¼ÒºÀ/.iotlink/sdk/IoT_LINK/iot_link/network/lwm2m/wakaama_lwm2m/port\object_server.c ****     objectP->instanceList = LWM2M_LIST_ADD(objectP->instanceList, serverInstance);
 1176              		.loc 1 466 29 is_stmt 0 view .LVU304
 1177 001e 2146     		mov	r1, r4
 465:C:/Users/²Ü¼ÒºÀ/.iotlink/sdk/IoT_LINK/iot_link/network/lwm2m/wakaama_lwm2m/port\object_server.c ****     serverInstance->instanceId = instanceId;
 1178              		.loc 1 465 32 view .LVU305
 1179 0020 A680     		strh	r6, [r4, #4]	@ movhi
 1180              		.loc 1 466 5 is_stmt 1 view .LVU306
 1181              		.loc 1 466 29 is_stmt 0 view .LVU307
 1182 0022 A868     		ldr	r0, [r5, #8]
 1183 0024 FFF7FEFF 		bl	lwm2m_list_add
 1184              	.LVL107:
 467:C:/Users/²Ü¼ÒºÀ/.iotlink/sdk/IoT_LINK/iot_link/network/lwm2m/wakaama_lwm2m/port\object_server.c ****     result = prv_server_write(instanceId, numData, dataArray, objectP);
 1185              		.loc 1 467 14 view .LVU308
 1186 0028 2B46     		mov	r3, r5
 466:C:/Users/²Ü¼ÒºÀ/.iotlink/sdk/IoT_LINK/iot_link/network/lwm2m/wakaama_lwm2m/port\object_server.c ****     objectP->instanceList = LWM2M_LIST_ADD(objectP->instanceList, serverInstance);
 1187              		.loc 1 466 27 view .LVU309
 1188 002a A860     		str	r0, [r5, #8]
 466:C:/Users/²Ü¼ÒºÀ/.iotlink/sdk/IoT_LINK/iot_link/network/lwm2m/wakaama_lwm2m/port\object_server.c ****     objectP->instanceList = LWM2M_LIST_ADD(objectP->instanceList, serverInstance);
 1189              		.loc 1 466 82 is_stmt 1 view .LVU310
 1190              		.loc 1 467 5 view .LVU311
 1191              		.loc 1 467 14 is_stmt 0 view .LVU312
 1192 002c 4246     		mov	r2, r8
 1193 002e 3946     		mov	r1, r7
 1194 0030 3046     		mov	r0, r6
 1195 0032 FFF7FEFF 		bl	prv_server_write
 1196              	.LVL108:
 468:C:/Users/²Ü¼ÒºÀ/.iotlink/sdk/IoT_LINK/iot_link/network/lwm2m/wakaama_lwm2m/port\object_server.c **** 
 469:C:/Users/²Ü¼ÒºÀ/.iotlink/sdk/IoT_LINK/iot_link/network/lwm2m/wakaama_lwm2m/port\object_server.c ****     if (COAP_204_CHANGED != result)
 1197              		.loc 1 469 8 view .LVU313
 1198 0036 4428     		cmp	r0, #68
 467:C:/Users/²Ü¼ÒºÀ/.iotlink/sdk/IoT_LINK/iot_link/network/lwm2m/wakaama_lwm2m/port\object_server.c ****     result = prv_server_write(instanceId, numData, dataArray, objectP);
 1199              		.loc 1 467 14 view .LVU314
ARM GAS  C:\Users\²Ü¼ÒºÀ\AppData\Local\Temp\ccFNKTFQ.s 			page 35


 1200 0038 0446     		mov	r4, r0
 1201              	.LVL109:
 1202              		.loc 1 469 5 is_stmt 1 view .LVU315
 1203              		.loc 1 469 8 is_stmt 0 view .LVU316
 1204 003a 08D0     		beq	.L101
 470:C:/Users/²Ü¼ÒºÀ/.iotlink/sdk/IoT_LINK/iot_link/network/lwm2m/wakaama_lwm2m/port\object_server.c ****     {
 471:C:/Users/²Ü¼ÒºÀ/.iotlink/sdk/IoT_LINK/iot_link/network/lwm2m/wakaama_lwm2m/port\object_server.c ****         (void)prv_server_delete(instanceId, objectP);
 1205              		.loc 1 471 9 is_stmt 1 view .LVU317
 1206              		.loc 1 471 15 is_stmt 0 view .LVU318
 1207 003c 2946     		mov	r1, r5
 1208 003e 3046     		mov	r0, r6
 1209              	.LVL110:
 1210              		.loc 1 471 15 view .LVU319
 1211 0040 FFF7FEFF 		bl	prv_server_delete
 1212              	.LVL111:
 1213              	.L99:
 472:C:/Users/²Ü¼ÒºÀ/.iotlink/sdk/IoT_LINK/iot_link/network/lwm2m/wakaama_lwm2m/port\object_server.c ****     }
 473:C:/Users/²Ü¼ÒºÀ/.iotlink/sdk/IoT_LINK/iot_link/network/lwm2m/wakaama_lwm2m/port\object_server.c ****     else
 474:C:/Users/²Ü¼ÒºÀ/.iotlink/sdk/IoT_LINK/iot_link/network/lwm2m/wakaama_lwm2m/port\object_server.c ****     {
 475:C:/Users/²Ü¼ÒºÀ/.iotlink/sdk/IoT_LINK/iot_link/network/lwm2m/wakaama_lwm2m/port\object_server.c ****         result = COAP_201_CREATED;
 476:C:/Users/²Ü¼ÒºÀ/.iotlink/sdk/IoT_LINK/iot_link/network/lwm2m/wakaama_lwm2m/port\object_server.c ****     }
 477:C:/Users/²Ü¼ÒºÀ/.iotlink/sdk/IoT_LINK/iot_link/network/lwm2m/wakaama_lwm2m/port\object_server.c **** 
 478:C:/Users/²Ü¼ÒºÀ/.iotlink/sdk/IoT_LINK/iot_link/network/lwm2m/wakaama_lwm2m/port\object_server.c ****     return result;
 479:C:/Users/²Ü¼ÒºÀ/.iotlink/sdk/IoT_LINK/iot_link/network/lwm2m/wakaama_lwm2m/port\object_server.c **** }
 1214              		.loc 1 479 1 view .LVU320
 1215 0044 2046     		mov	r0, r4
 1216 0046 BDE8F081 		pop	{r4, r5, r6, r7, r8, pc}
 1217              	.LVL112:
 1218              	.L100:
 462:C:/Users/²Ü¼ÒºÀ/.iotlink/sdk/IoT_LINK/iot_link/network/lwm2m/wakaama_lwm2m/port\object_server.c **** 
 1219              		.loc 1 462 40 view .LVU321
 1220 004a A024     		movs	r4, #160
 1221 004c FAE7     		b	.L99
 1222              	.LVL113:
 1223              	.L101:
 475:C:/Users/²Ü¼ÒºÀ/.iotlink/sdk/IoT_LINK/iot_link/network/lwm2m/wakaama_lwm2m/port\object_server.c ****     }
 1224              		.loc 1 475 16 view .LVU322
 1225 004e 4124     		movs	r4, #65
 1226 0050 F8E7     		b	.L99
 1227              		.cfi_endproc
 1228              	.LFE20:
 1230              		.section	.text.copy_server_object,"ax",%progbits
 1231              		.align	1
 1232              		.global	copy_server_object
 1233              		.syntax unified
 1234              		.thumb
 1235              		.thumb_func
 1236              		.fpu fpv4-sp-d16
 1238              	copy_server_object:
 1239              	.LVL114:
 1240              	.LFB21:
 480:C:/Users/²Ü¼ÒºÀ/.iotlink/sdk/IoT_LINK/iot_link/network/lwm2m/wakaama_lwm2m/port\object_server.c **** 
 481:C:/Users/²Ü¼ÒºÀ/.iotlink/sdk/IoT_LINK/iot_link/network/lwm2m/wakaama_lwm2m/port\object_server.c **** void copy_server_object(lwm2m_object_t *objectDest, lwm2m_object_t *objectSrc)
 482:C:/Users/²Ü¼ÒºÀ/.iotlink/sdk/IoT_LINK/iot_link/network/lwm2m/wakaama_lwm2m/port\object_server.c **** {
 1241              		.loc 1 482 1 is_stmt 1 view -0
 1242              		.cfi_startproc
 1243              		@ args = 0, pretend = 0, frame = 0
ARM GAS  C:\Users\²Ü¼ÒºÀ\AppData\Local\Temp\ccFNKTFQ.s 			page 36


 1244              		@ frame_needed = 0, uses_anonymous_args = 0
 483:C:/Users/²Ü¼ÒºÀ/.iotlink/sdk/IoT_LINK/iot_link/network/lwm2m/wakaama_lwm2m/port\object_server.c ****     server_instance_t *instanceSrc = NULL;
 1245              		.loc 1 483 5 view .LVU324
 484:C:/Users/²Ü¼ÒºÀ/.iotlink/sdk/IoT_LINK/iot_link/network/lwm2m/wakaama_lwm2m/port\object_server.c ****     server_instance_t *previousInstanceDest = NULL;
 1246              		.loc 1 484 5 view .LVU325
 485:C:/Users/²Ü¼ÒºÀ/.iotlink/sdk/IoT_LINK/iot_link/network/lwm2m/wakaama_lwm2m/port\object_server.c ****     (void) memcpy(objectDest, objectSrc, sizeof(lwm2m_object_t));
 1247              		.loc 1 485 5 view .LVU326
 482:C:/Users/²Ü¼ÒºÀ/.iotlink/sdk/IoT_LINK/iot_link/network/lwm2m/wakaama_lwm2m/port\object_server.c ****     server_instance_t *instanceSrc = NULL;
 1248              		.loc 1 482 1 is_stmt 0 view .LVU327
 1249 0000 F8B5     		push	{r3, r4, r5, r6, r7, lr}
 1250              	.LCFI25:
 1251              		.cfi_def_cfa_offset 24
 1252              		.cfi_offset 3, -24
 1253              		.cfi_offset 4, -20
 1254              		.cfi_offset 5, -16
 1255              		.cfi_offset 6, -12
 1256              		.cfi_offset 7, -8
 1257              		.cfi_offset 14, -4
 1258              		.loc 1 485 12 view .LVU328
 1259 0002 0246     		mov	r2, r0
 482:C:/Users/²Ü¼ÒºÀ/.iotlink/sdk/IoT_LINK/iot_link/network/lwm2m/wakaama_lwm2m/port\object_server.c ****     server_instance_t *instanceSrc = NULL;
 1260              		.loc 1 482 1 view .LVU329
 1261 0004 0746     		mov	r7, r0
 1262              		.loc 1 485 12 view .LVU330
 1263 0006 0B46     		mov	r3, r1
 1264 0008 01F12C00 		add	r0, r1, #44
 1265              	.LVL115:
 1266              	.L103:
 1267              		.loc 1 485 12 view .LVU331
 1268 000c 53F8044B 		ldr	r4, [r3], #4	@ unaligned
 1269 0010 42F8044B 		str	r4, [r2], #4	@ unaligned
 1270 0014 8342     		cmp	r3, r0
 1271 0016 F9D1     		bne	.L103
 486:C:/Users/²Ü¼ÒºÀ/.iotlink/sdk/IoT_LINK/iot_link/network/lwm2m/wakaama_lwm2m/port\object_server.c ****     objectDest->instanceList = NULL;
 1272              		.loc 1 486 5 is_stmt 1 view .LVU332
 1273              		.loc 1 486 30 is_stmt 0 view .LVU333
 1274 0018 0025     		movs	r5, #0
 1275 001a BD60     		str	r5, [r7, #8]
 487:C:/Users/²Ü¼ÒºÀ/.iotlink/sdk/IoT_LINK/iot_link/network/lwm2m/wakaama_lwm2m/port\object_server.c ****     objectDest->userData = NULL;
 1276              		.loc 1 487 5 is_stmt 1 view .LVU334
 488:C:/Users/²Ü¼ÒºÀ/.iotlink/sdk/IoT_LINK/iot_link/network/lwm2m/wakaama_lwm2m/port\object_server.c ****     instanceSrc = (server_instance_t *)objectSrc->instanceList;
 1277              		.loc 1 488 17 is_stmt 0 view .LVU335
 1278 001c 8E68     		ldr	r6, [r1, #8]
 487:C:/Users/²Ü¼ÒºÀ/.iotlink/sdk/IoT_LINK/iot_link/network/lwm2m/wakaama_lwm2m/port\object_server.c ****     objectDest->userData = NULL;
 1279              		.loc 1 487 26 view .LVU336
 1280 001e BD62     		str	r5, [r7, #40]
 1281              		.loc 1 488 5 is_stmt 1 view .LVU337
 1282              	.LVL116:
 489:C:/Users/²Ü¼ÒºÀ/.iotlink/sdk/IoT_LINK/iot_link/network/lwm2m/wakaama_lwm2m/port\object_server.c **** 
 490:C:/Users/²Ü¼ÒºÀ/.iotlink/sdk/IoT_LINK/iot_link/network/lwm2m/wakaama_lwm2m/port\object_server.c ****     while (NULL != instanceSrc)
 1283              		.loc 1 490 5 view .LVU338
 1284              	.L104:
 1285              		.loc 1 490 11 view .LVU339
 1286 0020 06B9     		cbnz	r6, .L109
 1287              	.L102:
 491:C:/Users/²Ü¼ÒºÀ/.iotlink/sdk/IoT_LINK/iot_link/network/lwm2m/wakaama_lwm2m/port\object_server.c ****     {
 492:C:/Users/²Ü¼ÒºÀ/.iotlink/sdk/IoT_LINK/iot_link/network/lwm2m/wakaama_lwm2m/port\object_server.c ****         server_instance_t *instanceDest = (server_instance_t *)lwm2m_malloc(sizeof(server_instance_
ARM GAS  C:\Users\²Ü¼ÒºÀ\AppData\Local\Temp\ccFNKTFQ.s 			page 37


 493:C:/Users/²Ü¼ÒºÀ/.iotlink/sdk/IoT_LINK/iot_link/network/lwm2m/wakaama_lwm2m/port\object_server.c **** 
 494:C:/Users/²Ü¼ÒºÀ/.iotlink/sdk/IoT_LINK/iot_link/network/lwm2m/wakaama_lwm2m/port\object_server.c ****         if (NULL == instanceDest)
 495:C:/Users/²Ü¼ÒºÀ/.iotlink/sdk/IoT_LINK/iot_link/network/lwm2m/wakaama_lwm2m/port\object_server.c ****         {
 496:C:/Users/²Ü¼ÒºÀ/.iotlink/sdk/IoT_LINK/iot_link/network/lwm2m/wakaama_lwm2m/port\object_server.c ****             return;
 497:C:/Users/²Ü¼ÒºÀ/.iotlink/sdk/IoT_LINK/iot_link/network/lwm2m/wakaama_lwm2m/port\object_server.c ****         }
 498:C:/Users/²Ü¼ÒºÀ/.iotlink/sdk/IoT_LINK/iot_link/network/lwm2m/wakaama_lwm2m/port\object_server.c **** 
 499:C:/Users/²Ü¼ÒºÀ/.iotlink/sdk/IoT_LINK/iot_link/network/lwm2m/wakaama_lwm2m/port\object_server.c ****         (void) memcpy(instanceDest, instanceSrc, sizeof(server_instance_t));
 500:C:/Users/²Ü¼ÒºÀ/.iotlink/sdk/IoT_LINK/iot_link/network/lwm2m/wakaama_lwm2m/port\object_server.c ****         // not sure it's necessary:
 501:C:/Users/²Ü¼ÒºÀ/.iotlink/sdk/IoT_LINK/iot_link/network/lwm2m/wakaama_lwm2m/port\object_server.c ****         (void) strncpy(instanceDest->binding, instanceSrc->binding, 4);
 502:C:/Users/²Ü¼ÒºÀ/.iotlink/sdk/IoT_LINK/iot_link/network/lwm2m/wakaama_lwm2m/port\object_server.c ****         instanceSrc = (server_instance_t *)instanceSrc->next;
 503:C:/Users/²Ü¼ÒºÀ/.iotlink/sdk/IoT_LINK/iot_link/network/lwm2m/wakaama_lwm2m/port\object_server.c **** 
 504:C:/Users/²Ü¼ÒºÀ/.iotlink/sdk/IoT_LINK/iot_link/network/lwm2m/wakaama_lwm2m/port\object_server.c ****         if (NULL == previousInstanceDest)
 505:C:/Users/²Ü¼ÒºÀ/.iotlink/sdk/IoT_LINK/iot_link/network/lwm2m/wakaama_lwm2m/port\object_server.c ****         {
 506:C:/Users/²Ü¼ÒºÀ/.iotlink/sdk/IoT_LINK/iot_link/network/lwm2m/wakaama_lwm2m/port\object_server.c ****             objectDest->instanceList = (lwm2m_list_t *)instanceDest;
 507:C:/Users/²Ü¼ÒºÀ/.iotlink/sdk/IoT_LINK/iot_link/network/lwm2m/wakaama_lwm2m/port\object_server.c ****         }
 508:C:/Users/²Ü¼ÒºÀ/.iotlink/sdk/IoT_LINK/iot_link/network/lwm2m/wakaama_lwm2m/port\object_server.c ****         else
 509:C:/Users/²Ü¼ÒºÀ/.iotlink/sdk/IoT_LINK/iot_link/network/lwm2m/wakaama_lwm2m/port\object_server.c ****         {
 510:C:/Users/²Ü¼ÒºÀ/.iotlink/sdk/IoT_LINK/iot_link/network/lwm2m/wakaama_lwm2m/port\object_server.c ****             previousInstanceDest->next = instanceDest;
 511:C:/Users/²Ü¼ÒºÀ/.iotlink/sdk/IoT_LINK/iot_link/network/lwm2m/wakaama_lwm2m/port\object_server.c ****         }
 512:C:/Users/²Ü¼ÒºÀ/.iotlink/sdk/IoT_LINK/iot_link/network/lwm2m/wakaama_lwm2m/port\object_server.c **** 
 513:C:/Users/²Ü¼ÒºÀ/.iotlink/sdk/IoT_LINK/iot_link/network/lwm2m/wakaama_lwm2m/port\object_server.c ****         previousInstanceDest = instanceDest;
 514:C:/Users/²Ü¼ÒºÀ/.iotlink/sdk/IoT_LINK/iot_link/network/lwm2m/wakaama_lwm2m/port\object_server.c ****     }
 515:C:/Users/²Ü¼ÒºÀ/.iotlink/sdk/IoT_LINK/iot_link/network/lwm2m/wakaama_lwm2m/port\object_server.c **** }
 1288              		.loc 1 515 1 is_stmt 0 view .LVU340
 1289 0022 F8BD     		pop	{r3, r4, r5, r6, r7, pc}
 1290              	.LVL117:
 1291              	.L109:
 1292              	.LBB25:
 492:C:/Users/²Ü¼ÒºÀ/.iotlink/sdk/IoT_LINK/iot_link/network/lwm2m/wakaama_lwm2m/port\object_server.c **** 
 1293              		.loc 1 492 9 is_stmt 1 view .LVU341
 492:C:/Users/²Ü¼ÒºÀ/.iotlink/sdk/IoT_LINK/iot_link/network/lwm2m/wakaama_lwm2m/port\object_server.c **** 
 1294              		.loc 1 492 64 is_stmt 0 view .LVU342
 1295 0024 2020     		movs	r0, #32
 1296 0026 FFF7FEFF 		bl	lwm2m_malloc
 1297              	.LVL118:
 494:C:/Users/²Ü¼ÒºÀ/.iotlink/sdk/IoT_LINK/iot_link/network/lwm2m/wakaama_lwm2m/port\object_server.c ****         {
 1298              		.loc 1 494 9 is_stmt 1 view .LVU343
 494:C:/Users/²Ü¼ÒºÀ/.iotlink/sdk/IoT_LINK/iot_link/network/lwm2m/wakaama_lwm2m/port\object_server.c ****         {
 1299              		.loc 1 494 12 is_stmt 0 view .LVU344
 1300 002a 0446     		mov	r4, r0
 1301 002c 0028     		cmp	r0, #0
 1302 002e F8D0     		beq	.L102
 499:C:/Users/²Ü¼ÒºÀ/.iotlink/sdk/IoT_LINK/iot_link/network/lwm2m/wakaama_lwm2m/port\object_server.c ****         // not sure it's necessary:
 1303              		.loc 1 499 9 is_stmt 1 view .LVU345
 499:C:/Users/²Ü¼ÒºÀ/.iotlink/sdk/IoT_LINK/iot_link/network/lwm2m/wakaama_lwm2m/port\object_server.c ****         // not sure it's necessary:
 1304              		.loc 1 499 16 is_stmt 0 view .LVU346
 1305 0030 3346     		mov	r3, r6
 1306 0032 0246     		mov	r2, r0
 1307 0034 06F12001 		add	r1, r6, #32
 1308              	.LVL119:
 1309              	.L106:
 499:C:/Users/²Ü¼ÒºÀ/.iotlink/sdk/IoT_LINK/iot_link/network/lwm2m/wakaama_lwm2m/port\object_server.c ****         // not sure it's necessary:
 1310              		.loc 1 499 16 view .LVU347
 1311 0038 53F8040B 		ldr	r0, [r3], #4	@ unaligned
 1312 003c 42F8040B 		str	r0, [r2], #4	@ unaligned
 1313 0040 8B42     		cmp	r3, r1
 1314 0042 F9D1     		bne	.L106
ARM GAS  C:\Users\²Ü¼ÒºÀ\AppData\Local\Temp\ccFNKTFQ.s 			page 38


 501:C:/Users/²Ü¼ÒºÀ/.iotlink/sdk/IoT_LINK/iot_link/network/lwm2m/wakaama_lwm2m/port\object_server.c ****         instanceSrc = (server_instance_t *)instanceSrc->next;
 1315              		.loc 1 501 9 is_stmt 1 view .LVU348
 501:C:/Users/²Ü¼ÒºÀ/.iotlink/sdk/IoT_LINK/iot_link/network/lwm2m/wakaama_lwm2m/port\object_server.c ****         instanceSrc = (server_instance_t *)instanceSrc->next;
 1316              		.loc 1 501 16 is_stmt 0 view .LVU349
 1317 0044 06F11901 		add	r1, r6, #25
 1318 0048 0422     		movs	r2, #4
 1319 004a 04F11900 		add	r0, r4, #25
 1320 004e FFF7FEFF 		bl	strncpy
 1321              	.LVL120:
 502:C:/Users/²Ü¼ÒºÀ/.iotlink/sdk/IoT_LINK/iot_link/network/lwm2m/wakaama_lwm2m/port\object_server.c **** 
 1322              		.loc 1 502 9 is_stmt 1 view .LVU350
 502:C:/Users/²Ü¼ÒºÀ/.iotlink/sdk/IoT_LINK/iot_link/network/lwm2m/wakaama_lwm2m/port\object_server.c **** 
 1323              		.loc 1 502 21 is_stmt 0 view .LVU351
 1324 0052 3668     		ldr	r6, [r6]
 1325              	.LVL121:
 504:C:/Users/²Ü¼ÒºÀ/.iotlink/sdk/IoT_LINK/iot_link/network/lwm2m/wakaama_lwm2m/port\object_server.c ****         {
 1326              		.loc 1 504 9 is_stmt 1 view .LVU352
 504:C:/Users/²Ü¼ÒºÀ/.iotlink/sdk/IoT_LINK/iot_link/network/lwm2m/wakaama_lwm2m/port\object_server.c ****         {
 1327              		.loc 1 504 12 is_stmt 0 view .LVU353
 1328 0054 15B9     		cbnz	r5, .L107
 506:C:/Users/²Ü¼ÒºÀ/.iotlink/sdk/IoT_LINK/iot_link/network/lwm2m/wakaama_lwm2m/port\object_server.c ****         }
 1329              		.loc 1 506 13 is_stmt 1 view .LVU354
 506:C:/Users/²Ü¼ÒºÀ/.iotlink/sdk/IoT_LINK/iot_link/network/lwm2m/wakaama_lwm2m/port\object_server.c ****         }
 1330              		.loc 1 506 38 is_stmt 0 view .LVU355
 1331 0056 BC60     		str	r4, [r7, #8]
 1332              	.L108:
 506:C:/Users/²Ü¼ÒºÀ/.iotlink/sdk/IoT_LINK/iot_link/network/lwm2m/wakaama_lwm2m/port\object_server.c ****         }
 1333              		.loc 1 506 38 view .LVU356
 1334              	.LBE25:
 482:C:/Users/²Ü¼ÒºÀ/.iotlink/sdk/IoT_LINK/iot_link/network/lwm2m/wakaama_lwm2m/port\object_server.c ****     server_instance_t *instanceSrc = NULL;
 1335              		.loc 1 482 1 view .LVU357
 1336 0058 2546     		mov	r5, r4
 1337              	.LVL122:
 482:C:/Users/²Ü¼ÒºÀ/.iotlink/sdk/IoT_LINK/iot_link/network/lwm2m/wakaama_lwm2m/port\object_server.c ****     server_instance_t *instanceSrc = NULL;
 1338              		.loc 1 482 1 view .LVU358
 1339 005a E1E7     		b	.L104
 1340              	.LVL123:
 1341              	.L107:
 1342              	.LBB26:
 510:C:/Users/²Ü¼ÒºÀ/.iotlink/sdk/IoT_LINK/iot_link/network/lwm2m/wakaama_lwm2m/port\object_server.c ****         }
 1343              		.loc 1 510 13 is_stmt 1 view .LVU359
 510:C:/Users/²Ü¼ÒºÀ/.iotlink/sdk/IoT_LINK/iot_link/network/lwm2m/wakaama_lwm2m/port\object_server.c ****         }
 1344              		.loc 1 510 40 is_stmt 0 view .LVU360
 1345 005c 2C60     		str	r4, [r5]
 1346 005e FBE7     		b	.L108
 1347              	.LBE26:
 1348              		.cfi_endproc
 1349              	.LFE21:
 1351              		.section	.text.display_server_object,"ax",%progbits
 1352              		.align	1
 1353              		.global	display_server_object
 1354              		.syntax unified
 1355              		.thumb
 1356              		.thumb_func
 1357              		.fpu fpv4-sp-d16
 1359              	display_server_object:
 1360              	.LVL124:
ARM GAS  C:\Users\²Ü¼ÒºÀ\AppData\Local\Temp\ccFNKTFQ.s 			page 39


 1361              	.LFB22:
 516:C:/Users/²Ü¼ÒºÀ/.iotlink/sdk/IoT_LINK/iot_link/network/lwm2m/wakaama_lwm2m/port\object_server.c **** 
 517:C:/Users/²Ü¼ÒºÀ/.iotlink/sdk/IoT_LINK/iot_link/network/lwm2m/wakaama_lwm2m/port\object_server.c **** void display_server_object(lwm2m_object_t *object)
 518:C:/Users/²Ü¼ÒºÀ/.iotlink/sdk/IoT_LINK/iot_link/network/lwm2m/wakaama_lwm2m/port\object_server.c **** {
 1362              		.loc 1 518 1 is_stmt 1 view -0
 1363              		.cfi_startproc
 1364              		@ args = 0, pretend = 0, frame = 0
 1365              		@ frame_needed = 0, uses_anonymous_args = 0
 1366              		@ link register save eliminated.
 519:C:/Users/²Ü¼ÒºÀ/.iotlink/sdk/IoT_LINK/iot_link/network/lwm2m/wakaama_lwm2m/port\object_server.c **** #ifdef WITH_LOGS
 520:C:/Users/²Ü¼ÒºÀ/.iotlink/sdk/IoT_LINK/iot_link/network/lwm2m/wakaama_lwm2m/port\object_server.c ****     fprintf(stdout, "  /%u: Server object, instances:\r\n", object->objID);
 521:C:/Users/²Ü¼ÒºÀ/.iotlink/sdk/IoT_LINK/iot_link/network/lwm2m/wakaama_lwm2m/port\object_server.c ****     server_instance_t *serverInstance = (server_instance_t *)object->instanceList;
 522:C:/Users/²Ü¼ÒºÀ/.iotlink/sdk/IoT_LINK/iot_link/network/lwm2m/wakaama_lwm2m/port\object_server.c **** 
 523:C:/Users/²Ü¼ÒºÀ/.iotlink/sdk/IoT_LINK/iot_link/network/lwm2m/wakaama_lwm2m/port\object_server.c ****     while (NULL != serverInstance)
 524:C:/Users/²Ü¼ÒºÀ/.iotlink/sdk/IoT_LINK/iot_link/network/lwm2m/wakaama_lwm2m/port\object_server.c ****     {
 525:C:/Users/²Ü¼ÒºÀ/.iotlink/sdk/IoT_LINK/iot_link/network/lwm2m/wakaama_lwm2m/port\object_server.c ****         fprintf(stdout, "    /%u/%u: instanceId: %u, shortServerId: %u, lifetime: %u, storing: %s, 
 526:C:/Users/²Ü¼ÒºÀ/.iotlink/sdk/IoT_LINK/iot_link/network/lwm2m/wakaama_lwm2m/port\object_server.c ****                 object->objID, serverInstance->instanceId,
 527:C:/Users/²Ü¼ÒºÀ/.iotlink/sdk/IoT_LINK/iot_link/network/lwm2m/wakaama_lwm2m/port\object_server.c ****                 serverInstance->instanceId, serverInstance->shortServerId, serverInstance->lifetime
 528:C:/Users/²Ü¼ÒºÀ/.iotlink/sdk/IoT_LINK/iot_link/network/lwm2m/wakaama_lwm2m/port\object_server.c ****                 serverInstance->storing ? "true" : "false", serverInstance->binding);
 529:C:/Users/²Ü¼ÒºÀ/.iotlink/sdk/IoT_LINK/iot_link/network/lwm2m/wakaama_lwm2m/port\object_server.c ****         serverInstance = (server_instance_t *)serverInstance->next;
 530:C:/Users/²Ü¼ÒºÀ/.iotlink/sdk/IoT_LINK/iot_link/network/lwm2m/wakaama_lwm2m/port\object_server.c ****     }
 531:C:/Users/²Ü¼ÒºÀ/.iotlink/sdk/IoT_LINK/iot_link/network/lwm2m/wakaama_lwm2m/port\object_server.c **** 
 532:C:/Users/²Ü¼ÒºÀ/.iotlink/sdk/IoT_LINK/iot_link/network/lwm2m/wakaama_lwm2m/port\object_server.c **** #endif
 533:C:/Users/²Ü¼ÒºÀ/.iotlink/sdk/IoT_LINK/iot_link/network/lwm2m/wakaama_lwm2m/port\object_server.c **** }
 1367              		.loc 1 533 1 view .LVU362
 1368 0000 7047     		bx	lr
 1369              		.cfi_endproc
 1370              	.LFE22:
 1372              		.section	.text.add_server_object_instance,"ax",%progbits
 1373              		.align	1
 1374              		.global	add_server_object_instance
 1375              		.syntax unified
 1376              		.thumb
 1377              		.thumb_func
 1378              		.fpu fpv4-sp-d16
 1380              	add_server_object_instance:
 1381              	.LVL125:
 1382              	.LFB23:
 534:C:/Users/²Ü¼ÒºÀ/.iotlink/sdk/IoT_LINK/iot_link/network/lwm2m/wakaama_lwm2m/port\object_server.c **** 
 535:C:/Users/²Ü¼ÒºÀ/.iotlink/sdk/IoT_LINK/iot_link/network/lwm2m/wakaama_lwm2m/port\object_server.c **** int add_server_object_instance(lwm2m_object_t *obj, int object_instance_id, void *param)
 536:C:/Users/²Ü¼ÒºÀ/.iotlink/sdk/IoT_LINK/iot_link/network/lwm2m/wakaama_lwm2m/port\object_server.c **** {
 1383              		.loc 1 536 1 view -0
 1384              		.cfi_startproc
 1385              		@ args = 0, pretend = 0, frame = 0
 1386              		@ frame_needed = 0, uses_anonymous_args = 0
 537:C:/Users/²Ü¼ÒºÀ/.iotlink/sdk/IoT_LINK/iot_link/network/lwm2m/wakaama_lwm2m/port\object_server.c ****     server_instance_t *instance = NULL;
 1387              		.loc 1 537 5 view .LVU364
 538:C:/Users/²Ü¼ÒºÀ/.iotlink/sdk/IoT_LINK/iot_link/network/lwm2m/wakaama_lwm2m/port\object_server.c ****     lwm2m_al_srv_obj_param_t *srv_param = (lwm2m_al_srv_obj_param_t *)param;
 1388              		.loc 1 538 5 view .LVU365
 539:C:/Users/²Ü¼ÒºÀ/.iotlink/sdk/IoT_LINK/iot_link/network/lwm2m/wakaama_lwm2m/port\object_server.c **** 
 540:C:/Users/²Ü¼ÒºÀ/.iotlink/sdk/IoT_LINK/iot_link/network/lwm2m/wakaama_lwm2m/port\object_server.c ****     if ((NULL == obj) || (NULL == param))
 1389              		.loc 1 540 5 view .LVU366
 536:C:/Users/²Ü¼ÒºÀ/.iotlink/sdk/IoT_LINK/iot_link/network/lwm2m/wakaama_lwm2m/port\object_server.c ****     server_instance_t *instance = NULL;
 1390              		.loc 1 536 1 is_stmt 0 view .LVU367
 1391 0000 2DE9F041 		push	{r4, r5, r6, r7, r8, lr}
 1392              	.LCFI26:
 1393              		.cfi_def_cfa_offset 24
ARM GAS  C:\Users\²Ü¼ÒºÀ\AppData\Local\Temp\ccFNKTFQ.s 			page 40


 1394              		.cfi_offset 4, -24
 1395              		.cfi_offset 5, -20
 1396              		.cfi_offset 6, -16
 1397              		.cfi_offset 7, -12
 1398              		.cfi_offset 8, -8
 1399              		.cfi_offset 14, -4
 536:C:/Users/²Ü¼ÒºÀ/.iotlink/sdk/IoT_LINK/iot_link/network/lwm2m/wakaama_lwm2m/port\object_server.c ****     server_instance_t *instance = NULL;
 1400              		.loc 1 536 1 view .LVU368
 1401 0004 1646     		mov	r6, r2
 1402              		.loc 1 540 8 view .LVU369
 1403 0006 0746     		mov	r7, r0
 1404 0008 0028     		cmp	r0, #0
 1405 000a 38D0     		beq	.L119
 1406              		.loc 1 540 23 discriminator 1 view .LVU370
 1407 000c 002A     		cmp	r2, #0
 1408 000e 36D0     		beq	.L119
 541:C:/Users/²Ü¼ÒºÀ/.iotlink/sdk/IoT_LINK/iot_link/network/lwm2m/wakaama_lwm2m/port\object_server.c ****     {
 542:C:/Users/²Ü¼ÒºÀ/.iotlink/sdk/IoT_LINK/iot_link/network/lwm2m/wakaama_lwm2m/port\object_server.c ****         return LWM2M_ARG_INVALID;
 543:C:/Users/²Ü¼ÒºÀ/.iotlink/sdk/IoT_LINK/iot_link/network/lwm2m/wakaama_lwm2m/port\object_server.c ****     }
 544:C:/Users/²Ü¼ÒºÀ/.iotlink/sdk/IoT_LINK/iot_link/network/lwm2m/wakaama_lwm2m/port\object_server.c **** 
 545:C:/Users/²Ü¼ÒºÀ/.iotlink/sdk/IoT_LINK/iot_link/network/lwm2m/wakaama_lwm2m/port\object_server.c ****     // Manually create an hardcoded server
 546:C:/Users/²Ü¼ÒºÀ/.iotlink/sdk/IoT_LINK/iot_link/network/lwm2m/wakaama_lwm2m/port\object_server.c ****     instance = (server_instance_t *)lwm2m_malloc(sizeof(server_instance_t));
 1409              		.loc 1 546 5 is_stmt 1 view .LVU371
 1410              		.loc 1 546 37 is_stmt 0 view .LVU372
 1411 0010 2020     		movs	r0, #32
 1412              	.LVL126:
 1413              		.loc 1 546 37 view .LVU373
 1414 0012 FFF7FEFF 		bl	lwm2m_malloc
 1415              	.LVL127:
 547:C:/Users/²Ü¼ÒºÀ/.iotlink/sdk/IoT_LINK/iot_link/network/lwm2m/wakaama_lwm2m/port\object_server.c **** 
 548:C:/Users/²Ü¼ÒºÀ/.iotlink/sdk/IoT_LINK/iot_link/network/lwm2m/wakaama_lwm2m/port\object_server.c ****     if (NULL == instance)
 1416              		.loc 1 548 5 is_stmt 1 view .LVU374
 1417              		.loc 1 548 8 is_stmt 0 view .LVU375
 1418 0016 0446     		mov	r4, r0
 1419 0018 70B3     		cbz	r0, .L120
 549:C:/Users/²Ü¼ÒºÀ/.iotlink/sdk/IoT_LINK/iot_link/network/lwm2m/wakaama_lwm2m/port\object_server.c ****     {
 550:C:/Users/²Ü¼ÒºÀ/.iotlink/sdk/IoT_LINK/iot_link/network/lwm2m/wakaama_lwm2m/port\object_server.c ****         return LWM2M_MALLOC_FAILED;
 551:C:/Users/²Ü¼ÒºÀ/.iotlink/sdk/IoT_LINK/iot_link/network/lwm2m/wakaama_lwm2m/port\object_server.c ****     }
 552:C:/Users/²Ü¼ÒºÀ/.iotlink/sdk/IoT_LINK/iot_link/network/lwm2m/wakaama_lwm2m/port\object_server.c **** 
 553:C:/Users/²Ü¼ÒºÀ/.iotlink/sdk/IoT_LINK/iot_link/network/lwm2m/wakaama_lwm2m/port\object_server.c ****     (void) memset(instance, 0, sizeof(server_instance_t));
 1420              		.loc 1 553 5 is_stmt 1 view .LVU376
 1421              		.loc 1 553 12 is_stmt 0 view .LVU377
 1422 001a 0021     		movs	r1, #0
 1423 001c 2022     		movs	r2, #32
 1424 001e FFF7FEFF 		bl	memset
 1425              	.LVL128:
 554:C:/Users/²Ü¼ÒºÀ/.iotlink/sdk/IoT_LINK/iot_link/network/lwm2m/wakaama_lwm2m/port\object_server.c ****     instance->instanceId = 0;
 1426              		.loc 1 554 5 is_stmt 1 view .LVU378
 555:C:/Users/²Ü¼ÒºÀ/.iotlink/sdk/IoT_LINK/iot_link/network/lwm2m/wakaama_lwm2m/port\object_server.c ****     instance->shortServerId = srv_param->server_id;
 1427              		.loc 1 555 29 is_stmt 0 view .LVU379
 1428 0022 3388     		ldrh	r3, [r6]
 556:C:/Users/²Ü¼ÒºÀ/.iotlink/sdk/IoT_LINK/iot_link/network/lwm2m/wakaama_lwm2m/port\object_server.c **** 
 557:C:/Users/²Ü¼ÒºÀ/.iotlink/sdk/IoT_LINK/iot_link/network/lwm2m/wakaama_lwm2m/port\object_server.c ****     if (srv_param->life_time <= 0)
 1429              		.loc 1 557 8 view .LVU380
 1430 0024 174A     		ldr	r2, .L121
 555:C:/Users/²Ü¼ÒºÀ/.iotlink/sdk/IoT_LINK/iot_link/network/lwm2m/wakaama_lwm2m/port\object_server.c ****     instance->shortServerId = srv_param->server_id;
 1431              		.loc 1 555 29 view .LVU381
ARM GAS  C:\Users\²Ü¼ÒºÀ\AppData\Local\Temp\ccFNKTFQ.s 			page 41


 1432 0026 E380     		strh	r3, [r4, #6]	@ movhi
 1433              		.loc 1 557 18 view .LVU382
 1434 0028 B368     		ldr	r3, [r6, #8]
 558:C:/Users/²Ü¼ÒºÀ/.iotlink/sdk/IoT_LINK/iot_link/network/lwm2m/wakaama_lwm2m/port\object_server.c ****     {
 559:C:/Users/²Ü¼ÒºÀ/.iotlink/sdk/IoT_LINK/iot_link/network/lwm2m/wakaama_lwm2m/port\object_server.c ****         instance->lifetime = LWM2M_DEFAULT_LIFETIME;
 560:C:/Users/²Ü¼ÒºÀ/.iotlink/sdk/IoT_LINK/iot_link/network/lwm2m/wakaama_lwm2m/port\object_server.c ****     }
 561:C:/Users/²Ü¼ÒºÀ/.iotlink/sdk/IoT_LINK/iot_link/network/lwm2m/wakaama_lwm2m/port\object_server.c ****     else
 562:C:/Users/²Ü¼ÒºÀ/.iotlink/sdk/IoT_LINK/iot_link/network/lwm2m/wakaama_lwm2m/port\object_server.c ****     {
 563:C:/Users/²Ü¼ÒºÀ/.iotlink/sdk/IoT_LINK/iot_link/network/lwm2m/wakaama_lwm2m/port\object_server.c ****         instance->lifetime = srv_param->life_time;
 564:C:/Users/²Ü¼ÒºÀ/.iotlink/sdk/IoT_LINK/iot_link/network/lwm2m/wakaama_lwm2m/port\object_server.c ****     }
 565:C:/Users/²Ü¼ÒºÀ/.iotlink/sdk/IoT_LINK/iot_link/network/lwm2m/wakaama_lwm2m/port\object_server.c **** 
 566:C:/Users/²Ü¼ÒºÀ/.iotlink/sdk/IoT_LINK/iot_link/network/lwm2m/wakaama_lwm2m/port\object_server.c ****     instance->storing = (srv_param->storing_cnt != 0);
 567:C:/Users/²Ü¼ÒºÀ/.iotlink/sdk/IoT_LINK/iot_link/network/lwm2m/wakaama_lwm2m/port\object_server.c **** 
 568:C:/Users/²Ü¼ÒºÀ/.iotlink/sdk/IoT_LINK/iot_link/network/lwm2m/wakaama_lwm2m/port\object_server.c ****     if (prv_server_check_binding_valid(srv_param->binding, strlen(srv_param->binding)))
 1435              		.loc 1 568 49 view .LVU383
 1436 002a D6F80480 		ldr	r8, [r6, #4]
 554:C:/Users/²Ü¼ÒºÀ/.iotlink/sdk/IoT_LINK/iot_link/network/lwm2m/wakaama_lwm2m/port\object_server.c ****     instance->shortServerId = srv_param->server_id;
 1437              		.loc 1 554 26 view .LVU384
 1438 002e 0025     		movs	r5, #0
 557:C:/Users/²Ü¼ÒºÀ/.iotlink/sdk/IoT_LINK/iot_link/network/lwm2m/wakaama_lwm2m/port\object_server.c ****     {
 1439              		.loc 1 557 8 view .LVU385
 1440 0030 AB42     		cmp	r3, r5
 1441 0032 D8BF     		it	le
 1442 0034 1346     		movle	r3, r2
 1443 0036 A360     		str	r3, [r4, #8]
 566:C:/Users/²Ü¼ÒºÀ/.iotlink/sdk/IoT_LINK/iot_link/network/lwm2m/wakaama_lwm2m/port\object_server.c **** 
 1444              		.loc 1 566 49 view .LVU386
 1445 0038 F368     		ldr	r3, [r6, #12]
 554:C:/Users/²Ü¼ÒºÀ/.iotlink/sdk/IoT_LINK/iot_link/network/lwm2m/wakaama_lwm2m/port\object_server.c ****     instance->shortServerId = srv_param->server_id;
 1446              		.loc 1 554 26 view .LVU387
 1447 003a A580     		strh	r5, [r4, #4]	@ movhi
 555:C:/Users/²Ü¼ÒºÀ/.iotlink/sdk/IoT_LINK/iot_link/network/lwm2m/wakaama_lwm2m/port\object_server.c **** 
 1448              		.loc 1 555 5 is_stmt 1 view .LVU388
 557:C:/Users/²Ü¼ÒºÀ/.iotlink/sdk/IoT_LINK/iot_link/network/lwm2m/wakaama_lwm2m/port\object_server.c ****     {
 1449              		.loc 1 557 5 view .LVU389
 566:C:/Users/²Ü¼ÒºÀ/.iotlink/sdk/IoT_LINK/iot_link/network/lwm2m/wakaama_lwm2m/port\object_server.c **** 
 1450              		.loc 1 566 5 view .LVU390
 566:C:/Users/²Ü¼ÒºÀ/.iotlink/sdk/IoT_LINK/iot_link/network/lwm2m/wakaama_lwm2m/port\object_server.c **** 
 1451              		.loc 1 566 49 is_stmt 0 view .LVU391
 1452 003c 5B1B     		subs	r3, r3, r5
 1453 003e 18BF     		it	ne
 1454 0040 0123     		movne	r3, #1
 1455 0042 2376     		strb	r3, [r4, #24]
 1456              		.loc 1 568 5 is_stmt 1 view .LVU392
 1457              		.loc 1 568 9 is_stmt 0 view .LVU393
 1458 0044 4046     		mov	r0, r8
 1459 0046 FFF7FEFF 		bl	strlen
 1460              	.LVL129:
 1461 004a 0646     		mov	r6, r0
 1462              	.LVL130:
 1463              		.loc 1 568 9 view .LVU394
 1464 004c 0146     		mov	r1, r0
 1465 004e 4046     		mov	r0, r8
 1466 0050 FFF7FEFF 		bl	prv_server_check_binding_valid
 1467              	.LVL131:
 1468              		.loc 1 568 8 view .LVU395
 1469 0054 68B1     		cbz	r0, .L117
ARM GAS  C:\Users\²Ü¼ÒºÀ\AppData\Local\Temp\ccFNKTFQ.s 			page 42


 569:C:/Users/²Ü¼ÒºÀ/.iotlink/sdk/IoT_LINK/iot_link/network/lwm2m/wakaama_lwm2m/port\object_server.c ****     {
 570:C:/Users/²Ü¼ÒºÀ/.iotlink/sdk/IoT_LINK/iot_link/network/lwm2m/wakaama_lwm2m/port\object_server.c ****         (void) memcpy(instance->binding, srv_param->binding, strlen(srv_param->binding) + 1);
 1470              		.loc 1 570 9 is_stmt 1 view .LVU396
 1471              		.loc 1 570 16 is_stmt 0 view .LVU397
 1472 0056 721C     		adds	r2, r6, #1
 1473 0058 4146     		mov	r1, r8
 1474 005a 04F11900 		add	r0, r4, #25
 1475 005e FFF7FEFF 		bl	memcpy
 1476              	.LVL132:
 571:C:/Users/²Ü¼ÒºÀ/.iotlink/sdk/IoT_LINK/iot_link/network/lwm2m/wakaama_lwm2m/port\object_server.c ****     }
 572:C:/Users/²Ü¼ÒºÀ/.iotlink/sdk/IoT_LINK/iot_link/network/lwm2m/wakaama_lwm2m/port\object_server.c ****     else
 573:C:/Users/²Ü¼ÒºÀ/.iotlink/sdk/IoT_LINK/iot_link/network/lwm2m/wakaama_lwm2m/port\object_server.c ****     {
 574:C:/Users/²Ü¼ÒºÀ/.iotlink/sdk/IoT_LINK/iot_link/network/lwm2m/wakaama_lwm2m/port\object_server.c ****         lwm2m_free(instance);
 575:C:/Users/²Ü¼ÒºÀ/.iotlink/sdk/IoT_LINK/iot_link/network/lwm2m/wakaama_lwm2m/port\object_server.c ****         return LWM2M_MALLOC_FAILED;
 576:C:/Users/²Ü¼ÒºÀ/.iotlink/sdk/IoT_LINK/iot_link/network/lwm2m/wakaama_lwm2m/port\object_server.c ****     }
 577:C:/Users/²Ü¼ÒºÀ/.iotlink/sdk/IoT_LINK/iot_link/network/lwm2m/wakaama_lwm2m/port\object_server.c **** 
 578:C:/Users/²Ü¼ÒºÀ/.iotlink/sdk/IoT_LINK/iot_link/network/lwm2m/wakaama_lwm2m/port\object_server.c ****     obj->instanceList = LWM2M_LIST_ADD(obj->instanceList, instance);
 1477              		.loc 1 578 5 is_stmt 1 view .LVU398
 1478              		.loc 1 578 25 is_stmt 0 view .LVU399
 1479 0062 B868     		ldr	r0, [r7, #8]
 1480 0064 2146     		mov	r1, r4
 1481 0066 FFF7FEFF 		bl	lwm2m_list_add
 1482              	.LVL133:
 1483              		.loc 1 578 23 view .LVU400
 1484 006a B860     		str	r0, [r7, #8]
 1485              		.loc 1 578 68 is_stmt 1 view .LVU401
 579:C:/Users/²Ü¼ÒºÀ/.iotlink/sdk/IoT_LINK/iot_link/network/lwm2m/wakaama_lwm2m/port\object_server.c ****     return LWM2M_OK;
 1486              		.loc 1 579 5 view .LVU402
 1487              		.loc 1 579 12 is_stmt 0 view .LVU403
 1488 006c 2846     		mov	r0, r5
 1489              	.LVL134:
 1490              	.L114:
 580:C:/Users/²Ü¼ÒºÀ/.iotlink/sdk/IoT_LINK/iot_link/network/lwm2m/wakaama_lwm2m/port\object_server.c **** }
 1491              		.loc 1 580 1 view .LVU404
 1492 006e BDE8F081 		pop	{r4, r5, r6, r7, r8, pc}
 1493              	.LVL135:
 1494              	.L117:
 574:C:/Users/²Ü¼ÒºÀ/.iotlink/sdk/IoT_LINK/iot_link/network/lwm2m/wakaama_lwm2m/port\object_server.c ****         return LWM2M_MALLOC_FAILED;
 1495              		.loc 1 574 9 is_stmt 1 view .LVU405
 1496 0072 2046     		mov	r0, r4
 1497 0074 FFF7FEFF 		bl	lwm2m_free
 1498              	.LVL136:
 575:C:/Users/²Ü¼ÒºÀ/.iotlink/sdk/IoT_LINK/iot_link/network/lwm2m/wakaama_lwm2m/port\object_server.c ****     }
 1499              		.loc 1 575 9 view .LVU406
 1500              	.L120:
 550:C:/Users/²Ü¼ÒºÀ/.iotlink/sdk/IoT_LINK/iot_link/network/lwm2m/wakaama_lwm2m/port\object_server.c ****     }
 1501              		.loc 1 550 16 is_stmt 0 view .LVU407
 1502 0078 6FF00300 		mvn	r0, #3
 1503 007c F7E7     		b	.L114
 1504              	.LVL137:
 1505              	.L119:
 542:C:/Users/²Ü¼ÒºÀ/.iotlink/sdk/IoT_LINK/iot_link/network/lwm2m/wakaama_lwm2m/port\object_server.c ****     }
 1506              		.loc 1 542 16 view .LVU408
 1507 007e 4FF0FF30 		mov	r0, #-1
 1508              	.LVL138:
 542:C:/Users/²Ü¼ÒºÀ/.iotlink/sdk/IoT_LINK/iot_link/network/lwm2m/wakaama_lwm2m/port\object_server.c ****     }
 1509              		.loc 1 542 16 view .LVU409
ARM GAS  C:\Users\²Ü¼ÒºÀ\AppData\Local\Temp\ccFNKTFQ.s 			page 43


 1510 0082 F4E7     		b	.L114
 1511              	.L122:
 1512              		.align	2
 1513              	.L121:
 1514 0084 80510100 		.word	86400
 1515              		.cfi_endproc
 1516              	.LFE23:
 1518              		.section	.text.config_server_object,"ax",%progbits
 1519              		.align	1
 1520              		.global	config_server_object
 1521              		.syntax unified
 1522              		.thumb
 1523              		.thumb_func
 1524              		.fpu fpv4-sp-d16
 1526              	config_server_object:
 1527              	.LVL139:
 1528              	.LFB24:
 581:C:/Users/²Ü¼ÒºÀ/.iotlink/sdk/IoT_LINK/iot_link/network/lwm2m/wakaama_lwm2m/port\object_server.c **** 
 582:C:/Users/²Ü¼ÒºÀ/.iotlink/sdk/IoT_LINK/iot_link/network/lwm2m/wakaama_lwm2m/port\object_server.c **** int config_server_object(lwm2m_object_t *obj, void *param)
 583:C:/Users/²Ü¼ÒºÀ/.iotlink/sdk/IoT_LINK/iot_link/network/lwm2m/wakaama_lwm2m/port\object_server.c **** {
 1529              		.loc 1 583 1 is_stmt 1 view -0
 1530              		.cfi_startproc
 1531              		@ args = 0, pretend = 0, frame = 0
 1532              		@ frame_needed = 0, uses_anonymous_args = 0
 1533              		@ link register save eliminated.
 584:C:/Users/²Ü¼ÒºÀ/.iotlink/sdk/IoT_LINK/iot_link/network/lwm2m/wakaama_lwm2m/port\object_server.c ****     if (NULL == obj)
 1534              		.loc 1 584 5 view .LVU411
 1535              		.loc 1 584 8 is_stmt 0 view .LVU412
 1536 0000 68B1     		cbz	r0, .L125
 585:C:/Users/²Ü¼ÒºÀ/.iotlink/sdk/IoT_LINK/iot_link/network/lwm2m/wakaama_lwm2m/port\object_server.c ****     {
 586:C:/Users/²Ü¼ÒºÀ/.iotlink/sdk/IoT_LINK/iot_link/network/lwm2m/wakaama_lwm2m/port\object_server.c ****         return LWM2M_ARG_INVALID;
 587:C:/Users/²Ü¼ÒºÀ/.iotlink/sdk/IoT_LINK/iot_link/network/lwm2m/wakaama_lwm2m/port\object_server.c ****     }
 588:C:/Users/²Ü¼ÒºÀ/.iotlink/sdk/IoT_LINK/iot_link/network/lwm2m/wakaama_lwm2m/port\object_server.c **** 
 589:C:/Users/²Ü¼ÒºÀ/.iotlink/sdk/IoT_LINK/iot_link/network/lwm2m/wakaama_lwm2m/port\object_server.c ****     obj->readFunc = prv_server_read;
 1537              		.loc 1 589 5 is_stmt 1 view .LVU413
 1538              		.loc 1 589 19 is_stmt 0 view .LVU414
 1539 0002 084B     		ldr	r3, .L126
 1540 0004 C360     		str	r3, [r0, #12]
 590:C:/Users/²Ü¼ÒºÀ/.iotlink/sdk/IoT_LINK/iot_link/network/lwm2m/wakaama_lwm2m/port\object_server.c ****     obj->discoverFunc = prv_server_discover;
 1541              		.loc 1 590 5 is_stmt 1 view .LVU415
 1542              		.loc 1 590 23 is_stmt 0 view .LVU416
 1543 0006 084B     		ldr	r3, .L126+4
 1544 0008 4362     		str	r3, [r0, #36]
 591:C:/Users/²Ü¼ÒºÀ/.iotlink/sdk/IoT_LINK/iot_link/network/lwm2m/wakaama_lwm2m/port\object_server.c ****     obj->writeFunc = prv_server_write;
 1545              		.loc 1 591 5 is_stmt 1 view .LVU417
 1546              		.loc 1 591 20 is_stmt 0 view .LVU418
 1547 000a 084B     		ldr	r3, .L126+8
 1548 000c 0361     		str	r3, [r0, #16]
 592:C:/Users/²Ü¼ÒºÀ/.iotlink/sdk/IoT_LINK/iot_link/network/lwm2m/wakaama_lwm2m/port\object_server.c ****     obj->executeFunc = prv_server_execute;
 1549              		.loc 1 592 5 is_stmt 1 view .LVU419
 1550              		.loc 1 592 22 is_stmt 0 view .LVU420
 1551 000e 084B     		ldr	r3, .L126+12
 1552 0010 4361     		str	r3, [r0, #20]
 593:C:/Users/²Ü¼ÒºÀ/.iotlink/sdk/IoT_LINK/iot_link/network/lwm2m/wakaama_lwm2m/port\object_server.c ****     obj->createFunc = prv_server_create;
 1553              		.loc 1 593 5 is_stmt 1 view .LVU421
 1554              		.loc 1 593 21 is_stmt 0 view .LVU422
 1555 0012 084B     		ldr	r3, .L126+16
ARM GAS  C:\Users\²Ü¼ÒºÀ\AppData\Local\Temp\ccFNKTFQ.s 			page 44


 1556 0014 C361     		str	r3, [r0, #28]
 594:C:/Users/²Ü¼ÒºÀ/.iotlink/sdk/IoT_LINK/iot_link/network/lwm2m/wakaama_lwm2m/port\object_server.c ****     obj->deleteFunc = prv_server_delete;
 1557              		.loc 1 594 5 is_stmt 1 view .LVU423
 1558              		.loc 1 594 21 is_stmt 0 view .LVU424
 1559 0016 084B     		ldr	r3, .L126+20
 1560 0018 0362     		str	r3, [r0, #32]
 595:C:/Users/²Ü¼ÒºÀ/.iotlink/sdk/IoT_LINK/iot_link/network/lwm2m/wakaama_lwm2m/port\object_server.c ****     return LWM2M_OK;
 1561              		.loc 1 595 5 is_stmt 1 view .LVU425
 1562              		.loc 1 595 12 is_stmt 0 view .LVU426
 1563 001a 0020     		movs	r0, #0
 1564              	.LVL140:
 1565              		.loc 1 595 12 view .LVU427
 1566 001c 7047     		bx	lr
 1567              	.LVL141:
 1568              	.L125:
 586:C:/Users/²Ü¼ÒºÀ/.iotlink/sdk/IoT_LINK/iot_link/network/lwm2m/wakaama_lwm2m/port\object_server.c ****     }
 1569              		.loc 1 586 16 view .LVU428
 1570 001e 4FF0FF30 		mov	r0, #-1
 1571              	.LVL142:
 596:C:/Users/²Ü¼ÒºÀ/.iotlink/sdk/IoT_LINK/iot_link/network/lwm2m/wakaama_lwm2m/port\object_server.c **** }
 1572              		.loc 1 596 1 view .LVU429
 1573 0022 7047     		bx	lr
 1574              	.L127:
 1575              		.align	2
 1576              	.L126:
 1577 0024 00000000 		.word	prv_server_read
 1578 0028 00000000 		.word	prv_server_discover
 1579 002c 00000000 		.word	prv_server_write
 1580 0030 00000000 		.word	prv_server_execute
 1581 0034 00000000 		.word	prv_server_create
 1582 0038 00000000 		.word	prv_server_delete
 1583              		.cfi_endproc
 1584              	.LFE24:
 1586              		.section	.text.clean_server_object,"ax",%progbits
 1587              		.align	1
 1588              		.global	clean_server_object
 1589              		.syntax unified
 1590              		.thumb
 1591              		.thumb_func
 1592              		.fpu fpv4-sp-d16
 1594              	clean_server_object:
 1595              	.LVL143:
 1596              	.LFB25:
 597:C:/Users/²Ü¼ÒºÀ/.iotlink/sdk/IoT_LINK/iot_link/network/lwm2m/wakaama_lwm2m/port\object_server.c **** 
 598:C:/Users/²Ü¼ÒºÀ/.iotlink/sdk/IoT_LINK/iot_link/network/lwm2m/wakaama_lwm2m/port\object_server.c **** void clean_server_object(lwm2m_object_t *object)
 599:C:/Users/²Ü¼ÒºÀ/.iotlink/sdk/IoT_LINK/iot_link/network/lwm2m/wakaama_lwm2m/port\object_server.c **** {
 1597              		.loc 1 599 1 is_stmt 1 view -0
 1598              		.cfi_startproc
 1599              		@ args = 0, pretend = 0, frame = 0
 1600              		@ frame_needed = 0, uses_anonymous_args = 0
 600:C:/Users/²Ü¼ÒºÀ/.iotlink/sdk/IoT_LINK/iot_link/network/lwm2m/wakaama_lwm2m/port\object_server.c ****     if (NULL == object)
 1601              		.loc 1 600 5 view .LVU431
 599:C:/Users/²Ü¼ÒºÀ/.iotlink/sdk/IoT_LINK/iot_link/network/lwm2m/wakaama_lwm2m/port\object_server.c ****     if (NULL == object)
 1602              		.loc 1 599 1 is_stmt 0 view .LVU432
 1603 0000 10B5     		push	{r4, lr}
 1604              	.LCFI27:
 1605              		.cfi_def_cfa_offset 8
ARM GAS  C:\Users\²Ü¼ÒºÀ\AppData\Local\Temp\ccFNKTFQ.s 			page 45


 1606              		.cfi_offset 4, -8
 1607              		.cfi_offset 14, -4
 1608              		.loc 1 600 8 view .LVU433
 1609 0002 0446     		mov	r4, r0
 1610 0004 20B9     		cbnz	r0, .L130
 601:C:/Users/²Ü¼ÒºÀ/.iotlink/sdk/IoT_LINK/iot_link/network/lwm2m/wakaama_lwm2m/port\object_server.c ****     {
 602:C:/Users/²Ü¼ÒºÀ/.iotlink/sdk/IoT_LINK/iot_link/network/lwm2m/wakaama_lwm2m/port\object_server.c ****         return;
 603:C:/Users/²Ü¼ÒºÀ/.iotlink/sdk/IoT_LINK/iot_link/network/lwm2m/wakaama_lwm2m/port\object_server.c ****     }
 604:C:/Users/²Ü¼ÒºÀ/.iotlink/sdk/IoT_LINK/iot_link/network/lwm2m/wakaama_lwm2m/port\object_server.c **** 
 605:C:/Users/²Ü¼ÒºÀ/.iotlink/sdk/IoT_LINK/iot_link/network/lwm2m/wakaama_lwm2m/port\object_server.c ****     while (NULL != object->instanceList)
 606:C:/Users/²Ü¼ÒºÀ/.iotlink/sdk/IoT_LINK/iot_link/network/lwm2m/wakaama_lwm2m/port\object_server.c ****     {
 607:C:/Users/²Ü¼ÒºÀ/.iotlink/sdk/IoT_LINK/iot_link/network/lwm2m/wakaama_lwm2m/port\object_server.c ****         server_instance_t *serverInstance = (server_instance_t *)object->instanceList;
 608:C:/Users/²Ü¼ÒºÀ/.iotlink/sdk/IoT_LINK/iot_link/network/lwm2m/wakaama_lwm2m/port\object_server.c ****         object->instanceList = object->instanceList->next;
 609:C:/Users/²Ü¼ÒºÀ/.iotlink/sdk/IoT_LINK/iot_link/network/lwm2m/wakaama_lwm2m/port\object_server.c ****         lwm2m_free(serverInstance);
 610:C:/Users/²Ü¼ÒºÀ/.iotlink/sdk/IoT_LINK/iot_link/network/lwm2m/wakaama_lwm2m/port\object_server.c ****     }
 611:C:/Users/²Ü¼ÒºÀ/.iotlink/sdk/IoT_LINK/iot_link/network/lwm2m/wakaama_lwm2m/port\object_server.c **** 
 612:C:/Users/²Ü¼ÒºÀ/.iotlink/sdk/IoT_LINK/iot_link/network/lwm2m/wakaama_lwm2m/port\object_server.c ****     lwm2m_free(object);
 613:C:/Users/²Ü¼ÒºÀ/.iotlink/sdk/IoT_LINK/iot_link/network/lwm2m/wakaama_lwm2m/port\object_server.c **** }
 1611              		.loc 1 613 1 view .LVU434
 1612 0006 10BD     		pop	{r4, pc}
 1613              	.LVL144:
 1614              	.L131:
 1615              	.LBB27:
 607:C:/Users/²Ü¼ÒºÀ/.iotlink/sdk/IoT_LINK/iot_link/network/lwm2m/wakaama_lwm2m/port\object_server.c ****         object->instanceList = object->instanceList->next;
 1616              		.loc 1 607 9 is_stmt 1 view .LVU435
 608:C:/Users/²Ü¼ÒºÀ/.iotlink/sdk/IoT_LINK/iot_link/network/lwm2m/wakaama_lwm2m/port\object_server.c ****         lwm2m_free(serverInstance);
 1617              		.loc 1 608 9 view .LVU436
 608:C:/Users/²Ü¼ÒºÀ/.iotlink/sdk/IoT_LINK/iot_link/network/lwm2m/wakaama_lwm2m/port\object_server.c ****         lwm2m_free(serverInstance);
 1618              		.loc 1 608 30 is_stmt 0 view .LVU437
 1619 0008 0368     		ldr	r3, [r0]
 1620 000a A360     		str	r3, [r4, #8]
 609:C:/Users/²Ü¼ÒºÀ/.iotlink/sdk/IoT_LINK/iot_link/network/lwm2m/wakaama_lwm2m/port\object_server.c ****     }
 1621              		.loc 1 609 9 is_stmt 1 view .LVU438
 1622 000c FFF7FEFF 		bl	lwm2m_free
 1623              	.LVL145:
 1624              	.L130:
 609:C:/Users/²Ü¼ÒºÀ/.iotlink/sdk/IoT_LINK/iot_link/network/lwm2m/wakaama_lwm2m/port\object_server.c ****     }
 1625              		.loc 1 609 9 is_stmt 0 view .LVU439
 1626              	.LBE27:
 605:C:/Users/²Ü¼ÒºÀ/.iotlink/sdk/IoT_LINK/iot_link/network/lwm2m/wakaama_lwm2m/port\object_server.c ****     {
 1627              		.loc 1 605 11 is_stmt 1 view .LVU440
 605:C:/Users/²Ü¼ÒºÀ/.iotlink/sdk/IoT_LINK/iot_link/network/lwm2m/wakaama_lwm2m/port\object_server.c ****     {
 1628              		.loc 1 605 26 is_stmt 0 view .LVU441
 1629 0010 A068     		ldr	r0, [r4, #8]
 605:C:/Users/²Ü¼ÒºÀ/.iotlink/sdk/IoT_LINK/iot_link/network/lwm2m/wakaama_lwm2m/port\object_server.c ****     {
 1630              		.loc 1 605 11 view .LVU442
 1631 0012 0028     		cmp	r0, #0
 1632 0014 F8D1     		bne	.L131
 612:C:/Users/²Ü¼ÒºÀ/.iotlink/sdk/IoT_LINK/iot_link/network/lwm2m/wakaama_lwm2m/port\object_server.c **** }
 1633              		.loc 1 612 5 is_stmt 1 view .LVU443
 1634 0016 2046     		mov	r0, r4
 1635              		.loc 1 613 1 is_stmt 0 view .LVU444
 1636 0018 BDE81040 		pop	{r4, lr}
 1637              	.LCFI28:
 1638              		.cfi_restore 14
 1639              		.cfi_restore 4
 1640              		.cfi_def_cfa_offset 0
ARM GAS  C:\Users\²Ü¼ÒºÀ\AppData\Local\Temp\ccFNKTFQ.s 			page 46


 1641              	.LVL146:
 612:C:/Users/²Ü¼ÒºÀ/.iotlink/sdk/IoT_LINK/iot_link/network/lwm2m/wakaama_lwm2m/port\object_server.c **** }
 1642              		.loc 1 612 5 view .LVU445
 1643 001c FFF7FEBF 		b	lwm2m_free
 1644              	.LVL147:
 612:C:/Users/²Ü¼ÒºÀ/.iotlink/sdk/IoT_LINK/iot_link/network/lwm2m/wakaama_lwm2m/port\object_server.c **** }
 1645              		.loc 1 612 5 view .LVU446
 1646              		.cfi_endproc
 1647              	.LFE25:
 1649              		.section	.rodata
 1650              		.align	1
 1651              		.set	.LANCHOR0,. + 0
 1652              	.LC1:
 1653 0000 0000     		.short	0
 1654 0002 0100     		.short	1
 1655 0004 0200     		.short	2
 1656 0006 0300     		.short	3
 1657 0008 0500     		.short	5
 1658 000a 0600     		.short	6
 1659 000c 0700     		.short	7
 1660              	.LC0:
 1661 000e 0000     		.short	0
 1662 0010 0100     		.short	1
 1663 0012 0200     		.short	2
 1664 0014 0300     		.short	3
 1665 0016 0400     		.short	4
 1666 0018 0500     		.short	5
 1667 001a 0600     		.short	6
 1668 001c 0700     		.short	7
 1669 001e 0800     		.short	8
 1670              		.text
 1671              	.Letext0:
 1672              		.file 2 "c:\\users\\\262\334\274\322\272\300\\.iotlink\\tools\\gcc-arm-none-eabi\\arm-none-eabi\\i
 1673              		.file 3 "c:\\users\\\262\334\274\322\272\300\\.iotlink\\tools\\gcc-arm-none-eabi\\arm-none-eabi\\i
 1674              		.file 4 "c:\\users\\\262\334\274\322\272\300\\.iotlink\\tools\\gcc-arm-none-eabi\\lib\\gcc\\arm-no
 1675              		.file 5 "c:\\users\\\262\334\274\322\272\300\\.iotlink\\tools\\gcc-arm-none-eabi\\arm-none-eabi\\i
 1676              		.file 6 "c:\\users\\\262\334\274\322\272\300\\.iotlink\\tools\\gcc-arm-none-eabi\\arm-none-eabi\\i
 1677              		.file 7 "c:\\users\\\262\334\274\322\272\300\\.iotlink\\tools\\gcc-arm-none-eabi\\arm-none-eabi\\i
 1678              		.file 8 "c:\\users\\\262\334\274\322\272\300\\.iotlink\\tools\\gcc-arm-none-eabi\\arm-none-eabi\\i
 1679              		.file 9 "C:/Users/\262\334\274\322\272\300/.iotlink/sdk/IoT_LINK/iot_link/network/lwm2m/wakaama_lw
 1680              		.file 10 "C:/Users/\262\334\274\322\272\300/.iotlink/sdk/IoT_LINK/iot_link/network/lwm2m/wakaama_l
 1681              		.file 11 "c:\\users\\\262\334\274\322\272\300\\.iotlink\\tools\\gcc-arm-none-eabi\\arm-none-eabi\\
 1682              		.file 12 "c:\\users\\\262\334\274\322\272\300\\.iotlink\\tools\\gcc-arm-none-eabi\\arm-none-eabi\\
 1683              		.file 13 "C:/Users/\262\334\274\322\272\300/.iotlink/sdk/IoT_LINK/iot_link/network/lwm2m/lwm2m_al/
 1684              		.file 14 "C:/Users/\262\334\274\322\272\300/.iotlink/sdk/IoT_LINK/iot_link/network/lwm2m/wakaama_l
 1685              		.file 15 "C:/Users/\262\334\274\322\272\300/.iotlink/sdk/IoT_LINK/iot_link/network/lwm2m/wakaama_l
 1686              		.file 16 "c:\\users\\\262\334\274\322\272\300\\.iotlink\\tools\\gcc-arm-none-eabi\\arm-none-eabi\\
 1687              		.file 17 "<built-in>"
 1688              		.file 18 "c:\\users\\\262\334\274\322\272\300\\.iotlink\\tools\\gcc-arm-none-eabi\\arm-none-eabi\\
ARM GAS  C:\Users\²Ü¼ÒºÀ\AppData\Local\Temp\ccFNKTFQ.s 			page 47

