ARM GAS  C:\Users\²Ü¼ÒºÀ\AppData\Local\Temp\ccEEsnMs.s 			page 1


   1              		.cpu cortex-m4
   2              		.eabi_attribute 27, 1
   3              		.eabi_attribute 28, 1
   4              		.eabi_attribute 20, 1
   5              		.eabi_attribute 21, 1
   6              		.eabi_attribute 23, 3
   7              		.eabi_attribute 24, 1
   8              		.eabi_attribute 25, 1
   9              		.eabi_attribute 26, 1
  10              		.eabi_attribute 30, 4
  11              		.eabi_attribute 34, 1
  12              		.eabi_attribute 18, 4
  13              		.file	"commandline.c"
  14              		.text
  15              	.Ltext0:
  16              		.cfi_sections	.debug_frame
  17              		.section	.rodata.print_indent.str1.1,"aMS",%progbits,1
  18              	.LC0:
  19 0000 20202020 		.ascii	"    \000"
  19      00
  20              		.section	.text.print_indent,"ax",%progbits
  21              		.align	1
  22              		.arch armv7e-m
  23              		.syntax unified
  24              		.thumb
  25              		.thumb_func
  26              		.fpu fpv4-sp-d16
  28              	print_indent:
  29              	.LVL0:
  30              	.LFB11:
  31              		.file 1 "C:/Users/\262\334\274\322\272\300/.iotlink/sdk/IoT_LINK/iot_link/network/lwm2m/wakaama_lw
   1:C:/Users/²Ü¼ÒºÀ/.iotlink/sdk/IoT_LINK/iot_link/network/lwm2m/wakaama_lwm2m/wakaama-master/examples/shared\commandline.c **** /*----------------------------------------------------------------------------
   2:C:/Users/²Ü¼ÒºÀ/.iotlink/sdk/IoT_LINK/iot_link/network/lwm2m/wakaama_lwm2m/wakaama-master/examples/shared\commandline.c ****  * Copyright (c) <2016-2018>, <Huawei Technologies Co., Ltd>
   3:C:/Users/²Ü¼ÒºÀ/.iotlink/sdk/IoT_LINK/iot_link/network/lwm2m/wakaama_lwm2m/wakaama-master/examples/shared\commandline.c ****  * All rights reserved.
   4:C:/Users/²Ü¼ÒºÀ/.iotlink/sdk/IoT_LINK/iot_link/network/lwm2m/wakaama_lwm2m/wakaama-master/examples/shared\commandline.c ****  * Redistribution and use in source and binary forms, with or without modification,
   5:C:/Users/²Ü¼ÒºÀ/.iotlink/sdk/IoT_LINK/iot_link/network/lwm2m/wakaama_lwm2m/wakaama-master/examples/shared\commandline.c ****  * are permitted provided that the following conditions are met:
   6:C:/Users/²Ü¼ÒºÀ/.iotlink/sdk/IoT_LINK/iot_link/network/lwm2m/wakaama_lwm2m/wakaama-master/examples/shared\commandline.c ****  * 1. Redistributions of source code must retain the above copyright notice, this list of
   7:C:/Users/²Ü¼ÒºÀ/.iotlink/sdk/IoT_LINK/iot_link/network/lwm2m/wakaama_lwm2m/wakaama-master/examples/shared\commandline.c ****  * conditions and the following disclaimer.
   8:C:/Users/²Ü¼ÒºÀ/.iotlink/sdk/IoT_LINK/iot_link/network/lwm2m/wakaama_lwm2m/wakaama-master/examples/shared\commandline.c ****  * 2. Redistributions in binary form must reproduce the above copyright notice, this list
   9:C:/Users/²Ü¼ÒºÀ/.iotlink/sdk/IoT_LINK/iot_link/network/lwm2m/wakaama_lwm2m/wakaama-master/examples/shared\commandline.c ****  * of conditions and the following disclaimer in the documentation and/or other materials
  10:C:/Users/²Ü¼ÒºÀ/.iotlink/sdk/IoT_LINK/iot_link/network/lwm2m/wakaama_lwm2m/wakaama-master/examples/shared\commandline.c ****  * provided with the distribution.
  11:C:/Users/²Ü¼ÒºÀ/.iotlink/sdk/IoT_LINK/iot_link/network/lwm2m/wakaama_lwm2m/wakaama-master/examples/shared\commandline.c ****  * 3. Neither the name of the copyright holder nor the names of its contributors may be used
  12:C:/Users/²Ü¼ÒºÀ/.iotlink/sdk/IoT_LINK/iot_link/network/lwm2m/wakaama_lwm2m/wakaama-master/examples/shared\commandline.c ****  * to endorse or promote products derived from this software without specific prior written
  13:C:/Users/²Ü¼ÒºÀ/.iotlink/sdk/IoT_LINK/iot_link/network/lwm2m/wakaama_lwm2m/wakaama-master/examples/shared\commandline.c ****  * permission.
  14:C:/Users/²Ü¼ÒºÀ/.iotlink/sdk/IoT_LINK/iot_link/network/lwm2m/wakaama_lwm2m/wakaama-master/examples/shared\commandline.c ****  * THIS SOFTWARE IS PROVIDED BY THE COPYRIGHT HOLDERS AND CONTRIBUTORS
  15:C:/Users/²Ü¼ÒºÀ/.iotlink/sdk/IoT_LINK/iot_link/network/lwm2m/wakaama_lwm2m/wakaama-master/examples/shared\commandline.c ****  * "AS IS" AND ANY EXPRESS OR IMPLIED WARRANTIES, INCLUDING, BUT NOT LIMITED TO,
  16:C:/Users/²Ü¼ÒºÀ/.iotlink/sdk/IoT_LINK/iot_link/network/lwm2m/wakaama_lwm2m/wakaama-master/examples/shared\commandline.c ****  * THE IMPLIED WARRANTIES OF MERCHANTABILITY AND FITNESS FOR A PARTICULAR
  17:C:/Users/²Ü¼ÒºÀ/.iotlink/sdk/IoT_LINK/iot_link/network/lwm2m/wakaama_lwm2m/wakaama-master/examples/shared\commandline.c ****  * PURPOSE ARE DISCLAIMED. IN NO EVENT SHALL THE COPYRIGHT HOLDER OR
  18:C:/Users/²Ü¼ÒºÀ/.iotlink/sdk/IoT_LINK/iot_link/network/lwm2m/wakaama_lwm2m/wakaama-master/examples/shared\commandline.c ****  * CONTRIBUTORS BE LIABLE FOR ANY DIRECT, INDIRECT, INCIDENTAL, SPECIAL,
  19:C:/Users/²Ü¼ÒºÀ/.iotlink/sdk/IoT_LINK/iot_link/network/lwm2m/wakaama_lwm2m/wakaama-master/examples/shared\commandline.c ****  * EXEMPLARY, OR CONSEQUENTIAL DAMAGES (INCLUDING, BUT NOT LIMITED TO,
  20:C:/Users/²Ü¼ÒºÀ/.iotlink/sdk/IoT_LINK/iot_link/network/lwm2m/wakaama_lwm2m/wakaama-master/examples/shared\commandline.c ****  * PROCUREMENT OF SUBSTITUTE GOODS OR SERVICES; LOSS OF USE, DATA, OR PROFITS;
  21:C:/Users/²Ü¼ÒºÀ/.iotlink/sdk/IoT_LINK/iot_link/network/lwm2m/wakaama_lwm2m/wakaama-master/examples/shared\commandline.c ****  * OR BUSINESS INTERRUPTION) HOWEVER CAUSED AND ON ANY THEORY OF LIABILITY,
  22:C:/Users/²Ü¼ÒºÀ/.iotlink/sdk/IoT_LINK/iot_link/network/lwm2m/wakaama_lwm2m/wakaama-master/examples/shared\commandline.c ****  * WHETHER IN CONTRACT, STRICT LIABILITY, OR TORT (INCLUDING NEGLIGENCE OR
  23:C:/Users/²Ü¼ÒºÀ/.iotlink/sdk/IoT_LINK/iot_link/network/lwm2m/wakaama_lwm2m/wakaama-master/examples/shared\commandline.c ****  * OTHERWISE) ARISING IN ANY WAY OUT OF THE USE OF THIS SOFTWARE, EVEN IF
  24:C:/Users/²Ü¼ÒºÀ/.iotlink/sdk/IoT_LINK/iot_link/network/lwm2m/wakaama_lwm2m/wakaama-master/examples/shared\commandline.c ****  * ADVISED OF THE POSSIBILITY OF SUCH DAMAGE.
  25:C:/Users/²Ü¼ÒºÀ/.iotlink/sdk/IoT_LINK/iot_link/network/lwm2m/wakaama_lwm2m/wakaama-master/examples/shared\commandline.c ****  *---------------------------------------------------------------------------*/
  26:C:/Users/²Ü¼ÒºÀ/.iotlink/sdk/IoT_LINK/iot_link/network/lwm2m/wakaama_lwm2m/wakaama-master/examples/shared\commandline.c **** /*----------------------------------------------------------------------------
ARM GAS  C:\Users\²Ü¼ÒºÀ\AppData\Local\Temp\ccEEsnMs.s 			page 2


  27:C:/Users/²Ü¼ÒºÀ/.iotlink/sdk/IoT_LINK/iot_link/network/lwm2m/wakaama_lwm2m/wakaama-master/examples/shared\commandline.c ****  * Notice of Export Control Law
  28:C:/Users/²Ü¼ÒºÀ/.iotlink/sdk/IoT_LINK/iot_link/network/lwm2m/wakaama_lwm2m/wakaama-master/examples/shared\commandline.c ****  * ===============================================
  29:C:/Users/²Ü¼ÒºÀ/.iotlink/sdk/IoT_LINK/iot_link/network/lwm2m/wakaama_lwm2m/wakaama-master/examples/shared\commandline.c ****  * Huawei LiteOS may be subject to applicable export control laws and regulations, which might
  30:C:/Users/²Ü¼ÒºÀ/.iotlink/sdk/IoT_LINK/iot_link/network/lwm2m/wakaama_lwm2m/wakaama-master/examples/shared\commandline.c ****  * include those applicable to Huawei LiteOS of U.S. and the country in which you are located.
  31:C:/Users/²Ü¼ÒºÀ/.iotlink/sdk/IoT_LINK/iot_link/network/lwm2m/wakaama_lwm2m/wakaama-master/examples/shared\commandline.c ****  * Import, export and usage of Huawei LiteOS in any manner by you shall be in compliance with such
  32:C:/Users/²Ü¼ÒºÀ/.iotlink/sdk/IoT_LINK/iot_link/network/lwm2m/wakaama_lwm2m/wakaama-master/examples/shared\commandline.c ****  * applicable export control laws and regulations.
  33:C:/Users/²Ü¼ÒºÀ/.iotlink/sdk/IoT_LINK/iot_link/network/lwm2m/wakaama_lwm2m/wakaama-master/examples/shared\commandline.c ****  *---------------------------------------------------------------------------*/
  34:C:/Users/²Ü¼ÒºÀ/.iotlink/sdk/IoT_LINK/iot_link/network/lwm2m/wakaama_lwm2m/wakaama-master/examples/shared\commandline.c **** 
  35:C:/Users/²Ü¼ÒºÀ/.iotlink/sdk/IoT_LINK/iot_link/network/lwm2m/wakaama_lwm2m/wakaama-master/examples/shared\commandline.c **** /*******************************************************************************
  36:C:/Users/²Ü¼ÒºÀ/.iotlink/sdk/IoT_LINK/iot_link/network/lwm2m/wakaama_lwm2m/wakaama-master/examples/shared\commandline.c ****  *
  37:C:/Users/²Ü¼ÒºÀ/.iotlink/sdk/IoT_LINK/iot_link/network/lwm2m/wakaama_lwm2m/wakaama-master/examples/shared\commandline.c ****  * Copyright (c) 2013, 2014, 2015 Intel Corporation and others.
  38:C:/Users/²Ü¼ÒºÀ/.iotlink/sdk/IoT_LINK/iot_link/network/lwm2m/wakaama_lwm2m/wakaama-master/examples/shared\commandline.c ****  * All rights reserved. This program and the accompanying materials
  39:C:/Users/²Ü¼ÒºÀ/.iotlink/sdk/IoT_LINK/iot_link/network/lwm2m/wakaama_lwm2m/wakaama-master/examples/shared\commandline.c ****  * are made available under the terms of the Eclipse Public License v1.0
  40:C:/Users/²Ü¼ÒºÀ/.iotlink/sdk/IoT_LINK/iot_link/network/lwm2m/wakaama_lwm2m/wakaama-master/examples/shared\commandline.c ****  * and Eclipse Distribution License v1.0 which accompany this distribution.
  41:C:/Users/²Ü¼ÒºÀ/.iotlink/sdk/IoT_LINK/iot_link/network/lwm2m/wakaama_lwm2m/wakaama-master/examples/shared\commandline.c ****  *
  42:C:/Users/²Ü¼ÒºÀ/.iotlink/sdk/IoT_LINK/iot_link/network/lwm2m/wakaama_lwm2m/wakaama-master/examples/shared\commandline.c ****  * The Eclipse Public License is available at
  43:C:/Users/²Ü¼ÒºÀ/.iotlink/sdk/IoT_LINK/iot_link/network/lwm2m/wakaama_lwm2m/wakaama-master/examples/shared\commandline.c ****  *    http://www.eclipse.org/legal/epl-v10.html
  44:C:/Users/²Ü¼ÒºÀ/.iotlink/sdk/IoT_LINK/iot_link/network/lwm2m/wakaama_lwm2m/wakaama-master/examples/shared\commandline.c ****  * The Eclipse Distribution License is available at
  45:C:/Users/²Ü¼ÒºÀ/.iotlink/sdk/IoT_LINK/iot_link/network/lwm2m/wakaama_lwm2m/wakaama-master/examples/shared\commandline.c ****  *    http://www.eclipse.org/org/documents/edl-v10.php.
  46:C:/Users/²Ü¼ÒºÀ/.iotlink/sdk/IoT_LINK/iot_link/network/lwm2m/wakaama_lwm2m/wakaama-master/examples/shared\commandline.c ****  *
  47:C:/Users/²Ü¼ÒºÀ/.iotlink/sdk/IoT_LINK/iot_link/network/lwm2m/wakaama_lwm2m/wakaama-master/examples/shared\commandline.c ****  * Contributors:
  48:C:/Users/²Ü¼ÒºÀ/.iotlink/sdk/IoT_LINK/iot_link/network/lwm2m/wakaama_lwm2m/wakaama-master/examples/shared\commandline.c ****  *    David Navarro, Intel Corporation - initial API and implementation
  49:C:/Users/²Ü¼ÒºÀ/.iotlink/sdk/IoT_LINK/iot_link/network/lwm2m/wakaama_lwm2m/wakaama-master/examples/shared\commandline.c ****  *    Fabien Fleutot - Please refer to git log
  50:C:/Users/²Ü¼ÒºÀ/.iotlink/sdk/IoT_LINK/iot_link/network/lwm2m/wakaama_lwm2m/wakaama-master/examples/shared\commandline.c ****  *
  51:C:/Users/²Ü¼ÒºÀ/.iotlink/sdk/IoT_LINK/iot_link/network/lwm2m/wakaama_lwm2m/wakaama-master/examples/shared\commandline.c ****  *******************************************************************************/
  52:C:/Users/²Ü¼ÒºÀ/.iotlink/sdk/IoT_LINK/iot_link/network/lwm2m/wakaama_lwm2m/wakaama-master/examples/shared\commandline.c **** 
  53:C:/Users/²Ü¼ÒºÀ/.iotlink/sdk/IoT_LINK/iot_link/network/lwm2m/wakaama_lwm2m/wakaama-master/examples/shared\commandline.c **** #include <string.h>
  54:C:/Users/²Ü¼ÒºÀ/.iotlink/sdk/IoT_LINK/iot_link/network/lwm2m/wakaama_lwm2m/wakaama-master/examples/shared\commandline.c **** #include <stdlib.h>
  55:C:/Users/²Ü¼ÒºÀ/.iotlink/sdk/IoT_LINK/iot_link/network/lwm2m/wakaama_lwm2m/wakaama-master/examples/shared\commandline.c **** #include <stdio.h>
  56:C:/Users/²Ü¼ÒºÀ/.iotlink/sdk/IoT_LINK/iot_link/network/lwm2m/wakaama_lwm2m/wakaama-master/examples/shared\commandline.c **** #include <ctype.h>
  57:C:/Users/²Ü¼ÒºÀ/.iotlink/sdk/IoT_LINK/iot_link/network/lwm2m/wakaama_lwm2m/wakaama-master/examples/shared\commandline.c **** #include <inttypes.h>
  58:C:/Users/²Ü¼ÒºÀ/.iotlink/sdk/IoT_LINK/iot_link/network/lwm2m/wakaama_lwm2m/wakaama-master/examples/shared\commandline.c **** #include "liblwm2m.h"
  59:C:/Users/²Ü¼ÒºÀ/.iotlink/sdk/IoT_LINK/iot_link/network/lwm2m/wakaama_lwm2m/wakaama-master/examples/shared\commandline.c **** #include "internals.h"
  60:C:/Users/²Ü¼ÒºÀ/.iotlink/sdk/IoT_LINK/iot_link/network/lwm2m/wakaama_lwm2m/wakaama-master/examples/shared\commandline.c **** #include "commandline.h"
  61:C:/Users/²Ü¼ÒºÀ/.iotlink/sdk/IoT_LINK/iot_link/network/lwm2m/wakaama_lwm2m/wakaama-master/examples/shared\commandline.c **** 
  62:C:/Users/²Ü¼ÒºÀ/.iotlink/sdk/IoT_LINK/iot_link/network/lwm2m/wakaama_lwm2m/wakaama-master/examples/shared\commandline.c **** #define HELP_COMMAND "help"
  63:C:/Users/²Ü¼ÒºÀ/.iotlink/sdk/IoT_LINK/iot_link/network/lwm2m/wakaama_lwm2m/wakaama-master/examples/shared\commandline.c **** #define HELP_DESC    "Type '"HELP_COMMAND" [COMMAND]' for more details on a command."
  64:C:/Users/²Ü¼ÒºÀ/.iotlink/sdk/IoT_LINK/iot_link/network/lwm2m/wakaama_lwm2m/wakaama-master/examples/shared\commandline.c **** #define UNKNOWN_CMD_MSG "Unknown command. Type '"HELP_COMMAND"' for help."
  65:C:/Users/²Ü¼ÒºÀ/.iotlink/sdk/IoT_LINK/iot_link/network/lwm2m/wakaama_lwm2m/wakaama-master/examples/shared\commandline.c **** 
  66:C:/Users/²Ü¼ÒºÀ/.iotlink/sdk/IoT_LINK/iot_link/network/lwm2m/wakaama_lwm2m/wakaama-master/examples/shared\commandline.c **** static command_desc_t *prv_find_command(command_desc_t *commandArray,
  67:C:/Users/²Ü¼ÒºÀ/.iotlink/sdk/IoT_LINK/iot_link/network/lwm2m/wakaama_lwm2m/wakaama-master/examples/shared\commandline.c ****                                         char *buffer,
  68:C:/Users/²Ü¼ÒºÀ/.iotlink/sdk/IoT_LINK/iot_link/network/lwm2m/wakaama_lwm2m/wakaama-master/examples/shared\commandline.c ****                                         size_t length)
  69:C:/Users/²Ü¼ÒºÀ/.iotlink/sdk/IoT_LINK/iot_link/network/lwm2m/wakaama_lwm2m/wakaama-master/examples/shared\commandline.c **** {
  70:C:/Users/²Ü¼ÒºÀ/.iotlink/sdk/IoT_LINK/iot_link/network/lwm2m/wakaama_lwm2m/wakaama-master/examples/shared\commandline.c ****     int i;
  71:C:/Users/²Ü¼ÒºÀ/.iotlink/sdk/IoT_LINK/iot_link/network/lwm2m/wakaama_lwm2m/wakaama-master/examples/shared\commandline.c **** 
  72:C:/Users/²Ü¼ÒºÀ/.iotlink/sdk/IoT_LINK/iot_link/network/lwm2m/wakaama_lwm2m/wakaama-master/examples/shared\commandline.c ****     if (length == 0) return NULL;
  73:C:/Users/²Ü¼ÒºÀ/.iotlink/sdk/IoT_LINK/iot_link/network/lwm2m/wakaama_lwm2m/wakaama-master/examples/shared\commandline.c **** 
  74:C:/Users/²Ü¼ÒºÀ/.iotlink/sdk/IoT_LINK/iot_link/network/lwm2m/wakaama_lwm2m/wakaama-master/examples/shared\commandline.c ****     i = 0;
  75:C:/Users/²Ü¼ÒºÀ/.iotlink/sdk/IoT_LINK/iot_link/network/lwm2m/wakaama_lwm2m/wakaama-master/examples/shared\commandline.c ****     while (commandArray[i].name != NULL
  76:C:/Users/²Ü¼ÒºÀ/.iotlink/sdk/IoT_LINK/iot_link/network/lwm2m/wakaama_lwm2m/wakaama-master/examples/shared\commandline.c ****             && (strlen(commandArray[i].name) != length || strncmp(buffer, commandArray[i].name, len
  77:C:/Users/²Ü¼ÒºÀ/.iotlink/sdk/IoT_LINK/iot_link/network/lwm2m/wakaama_lwm2m/wakaama-master/examples/shared\commandline.c ****     {
  78:C:/Users/²Ü¼ÒºÀ/.iotlink/sdk/IoT_LINK/iot_link/network/lwm2m/wakaama_lwm2m/wakaama-master/examples/shared\commandline.c ****         i++;
  79:C:/Users/²Ü¼ÒºÀ/.iotlink/sdk/IoT_LINK/iot_link/network/lwm2m/wakaama_lwm2m/wakaama-master/examples/shared\commandline.c ****     }
  80:C:/Users/²Ü¼ÒºÀ/.iotlink/sdk/IoT_LINK/iot_link/network/lwm2m/wakaama_lwm2m/wakaama-master/examples/shared\commandline.c **** 
  81:C:/Users/²Ü¼ÒºÀ/.iotlink/sdk/IoT_LINK/iot_link/network/lwm2m/wakaama_lwm2m/wakaama-master/examples/shared\commandline.c ****     if (commandArray[i].name == NULL)
  82:C:/Users/²Ü¼ÒºÀ/.iotlink/sdk/IoT_LINK/iot_link/network/lwm2m/wakaama_lwm2m/wakaama-master/examples/shared\commandline.c ****     {
  83:C:/Users/²Ü¼ÒºÀ/.iotlink/sdk/IoT_LINK/iot_link/network/lwm2m/wakaama_lwm2m/wakaama-master/examples/shared\commandline.c ****         return NULL;
ARM GAS  C:\Users\²Ü¼ÒºÀ\AppData\Local\Temp\ccEEsnMs.s 			page 3


  84:C:/Users/²Ü¼ÒºÀ/.iotlink/sdk/IoT_LINK/iot_link/network/lwm2m/wakaama_lwm2m/wakaama-master/examples/shared\commandline.c ****     }
  85:C:/Users/²Ü¼ÒºÀ/.iotlink/sdk/IoT_LINK/iot_link/network/lwm2m/wakaama_lwm2m/wakaama-master/examples/shared\commandline.c ****     else
  86:C:/Users/²Ü¼ÒºÀ/.iotlink/sdk/IoT_LINK/iot_link/network/lwm2m/wakaama_lwm2m/wakaama-master/examples/shared\commandline.c ****     {
  87:C:/Users/²Ü¼ÒºÀ/.iotlink/sdk/IoT_LINK/iot_link/network/lwm2m/wakaama_lwm2m/wakaama-master/examples/shared\commandline.c ****         return &commandArray[i];
  88:C:/Users/²Ü¼ÒºÀ/.iotlink/sdk/IoT_LINK/iot_link/network/lwm2m/wakaama_lwm2m/wakaama-master/examples/shared\commandline.c ****     }
  89:C:/Users/²Ü¼ÒºÀ/.iotlink/sdk/IoT_LINK/iot_link/network/lwm2m/wakaama_lwm2m/wakaama-master/examples/shared\commandline.c **** }
  90:C:/Users/²Ü¼ÒºÀ/.iotlink/sdk/IoT_LINK/iot_link/network/lwm2m/wakaama_lwm2m/wakaama-master/examples/shared\commandline.c **** 
  91:C:/Users/²Ü¼ÒºÀ/.iotlink/sdk/IoT_LINK/iot_link/network/lwm2m/wakaama_lwm2m/wakaama-master/examples/shared\commandline.c **** static void prv_displayHelp(command_desc_t *commandArray,
  92:C:/Users/²Ü¼ÒºÀ/.iotlink/sdk/IoT_LINK/iot_link/network/lwm2m/wakaama_lwm2m/wakaama-master/examples/shared\commandline.c ****                             char *buffer)
  93:C:/Users/²Ü¼ÒºÀ/.iotlink/sdk/IoT_LINK/iot_link/network/lwm2m/wakaama_lwm2m/wakaama-master/examples/shared\commandline.c **** {
  94:C:/Users/²Ü¼ÒºÀ/.iotlink/sdk/IoT_LINK/iot_link/network/lwm2m/wakaama_lwm2m/wakaama-master/examples/shared\commandline.c ****     command_desc_t *cmdP;
  95:C:/Users/²Ü¼ÒºÀ/.iotlink/sdk/IoT_LINK/iot_link/network/lwm2m/wakaama_lwm2m/wakaama-master/examples/shared\commandline.c ****     int length;
  96:C:/Users/²Ü¼ÒºÀ/.iotlink/sdk/IoT_LINK/iot_link/network/lwm2m/wakaama_lwm2m/wakaama-master/examples/shared\commandline.c **** 
  97:C:/Users/²Ü¼ÒºÀ/.iotlink/sdk/IoT_LINK/iot_link/network/lwm2m/wakaama_lwm2m/wakaama-master/examples/shared\commandline.c ****     // find end of first argument
  98:C:/Users/²Ü¼ÒºÀ/.iotlink/sdk/IoT_LINK/iot_link/network/lwm2m/wakaama_lwm2m/wakaama-master/examples/shared\commandline.c ****     length = 0;
  99:C:/Users/²Ü¼ÒºÀ/.iotlink/sdk/IoT_LINK/iot_link/network/lwm2m/wakaama_lwm2m/wakaama-master/examples/shared\commandline.c ****     while (buffer[length] != 0 && !isspace(buffer[length] & 0xff))
 100:C:/Users/²Ü¼ÒºÀ/.iotlink/sdk/IoT_LINK/iot_link/network/lwm2m/wakaama_lwm2m/wakaama-master/examples/shared\commandline.c ****         length++;
 101:C:/Users/²Ü¼ÒºÀ/.iotlink/sdk/IoT_LINK/iot_link/network/lwm2m/wakaama_lwm2m/wakaama-master/examples/shared\commandline.c **** 
 102:C:/Users/²Ü¼ÒºÀ/.iotlink/sdk/IoT_LINK/iot_link/network/lwm2m/wakaama_lwm2m/wakaama-master/examples/shared\commandline.c ****     cmdP = prv_find_command(commandArray, buffer, length);
 103:C:/Users/²Ü¼ÒºÀ/.iotlink/sdk/IoT_LINK/iot_link/network/lwm2m/wakaama_lwm2m/wakaama-master/examples/shared\commandline.c **** 
 104:C:/Users/²Ü¼ÒºÀ/.iotlink/sdk/IoT_LINK/iot_link/network/lwm2m/wakaama_lwm2m/wakaama-master/examples/shared\commandline.c ****     if (cmdP == NULL)
 105:C:/Users/²Ü¼ÒºÀ/.iotlink/sdk/IoT_LINK/iot_link/network/lwm2m/wakaama_lwm2m/wakaama-master/examples/shared\commandline.c ****     {
 106:C:/Users/²Ü¼ÒºÀ/.iotlink/sdk/IoT_LINK/iot_link/network/lwm2m/wakaama_lwm2m/wakaama-master/examples/shared\commandline.c ****         int i;
 107:C:/Users/²Ü¼ÒºÀ/.iotlink/sdk/IoT_LINK/iot_link/network/lwm2m/wakaama_lwm2m/wakaama-master/examples/shared\commandline.c **** 
 108:C:/Users/²Ü¼ÒºÀ/.iotlink/sdk/IoT_LINK/iot_link/network/lwm2m/wakaama_lwm2m/wakaama-master/examples/shared\commandline.c ****         fprintf(stdout, HELP_COMMAND"\t"HELP_DESC"\r\n");
 109:C:/Users/²Ü¼ÒºÀ/.iotlink/sdk/IoT_LINK/iot_link/network/lwm2m/wakaama_lwm2m/wakaama-master/examples/shared\commandline.c **** 
 110:C:/Users/²Ü¼ÒºÀ/.iotlink/sdk/IoT_LINK/iot_link/network/lwm2m/wakaama_lwm2m/wakaama-master/examples/shared\commandline.c ****         for (i = 0 ; commandArray[i].name != NULL ; i++)
 111:C:/Users/²Ü¼ÒºÀ/.iotlink/sdk/IoT_LINK/iot_link/network/lwm2m/wakaama_lwm2m/wakaama-master/examples/shared\commandline.c ****         {
 112:C:/Users/²Ü¼ÒºÀ/.iotlink/sdk/IoT_LINK/iot_link/network/lwm2m/wakaama_lwm2m/wakaama-master/examples/shared\commandline.c ****             fprintf(stdout, "%s\t%s\r\n", commandArray[i].name, commandArray[i].shortDesc);
 113:C:/Users/²Ü¼ÒºÀ/.iotlink/sdk/IoT_LINK/iot_link/network/lwm2m/wakaama_lwm2m/wakaama-master/examples/shared\commandline.c ****         }
 114:C:/Users/²Ü¼ÒºÀ/.iotlink/sdk/IoT_LINK/iot_link/network/lwm2m/wakaama_lwm2m/wakaama-master/examples/shared\commandline.c ****     }
 115:C:/Users/²Ü¼ÒºÀ/.iotlink/sdk/IoT_LINK/iot_link/network/lwm2m/wakaama_lwm2m/wakaama-master/examples/shared\commandline.c ****     else
 116:C:/Users/²Ü¼ÒºÀ/.iotlink/sdk/IoT_LINK/iot_link/network/lwm2m/wakaama_lwm2m/wakaama-master/examples/shared\commandline.c ****     {
 117:C:/Users/²Ü¼ÒºÀ/.iotlink/sdk/IoT_LINK/iot_link/network/lwm2m/wakaama_lwm2m/wakaama-master/examples/shared\commandline.c ****         fprintf(stdout, "%s\r\n", cmdP->longDesc ? cmdP->longDesc : cmdP->shortDesc);
 118:C:/Users/²Ü¼ÒºÀ/.iotlink/sdk/IoT_LINK/iot_link/network/lwm2m/wakaama_lwm2m/wakaama-master/examples/shared\commandline.c ****     }
 119:C:/Users/²Ü¼ÒºÀ/.iotlink/sdk/IoT_LINK/iot_link/network/lwm2m/wakaama_lwm2m/wakaama-master/examples/shared\commandline.c **** }
 120:C:/Users/²Ü¼ÒºÀ/.iotlink/sdk/IoT_LINK/iot_link/network/lwm2m/wakaama_lwm2m/wakaama-master/examples/shared\commandline.c **** 
 121:C:/Users/²Ü¼ÒºÀ/.iotlink/sdk/IoT_LINK/iot_link/network/lwm2m/wakaama_lwm2m/wakaama-master/examples/shared\commandline.c **** 
 122:C:/Users/²Ü¼ÒºÀ/.iotlink/sdk/IoT_LINK/iot_link/network/lwm2m/wakaama_lwm2m/wakaama-master/examples/shared\commandline.c **** void handle_command(command_desc_t *commandArray,
 123:C:/Users/²Ü¼ÒºÀ/.iotlink/sdk/IoT_LINK/iot_link/network/lwm2m/wakaama_lwm2m/wakaama-master/examples/shared\commandline.c ****                     char *buffer)
 124:C:/Users/²Ü¼ÒºÀ/.iotlink/sdk/IoT_LINK/iot_link/network/lwm2m/wakaama_lwm2m/wakaama-master/examples/shared\commandline.c **** {
 125:C:/Users/²Ü¼ÒºÀ/.iotlink/sdk/IoT_LINK/iot_link/network/lwm2m/wakaama_lwm2m/wakaama-master/examples/shared\commandline.c ****     command_desc_t *cmdP;
 126:C:/Users/²Ü¼ÒºÀ/.iotlink/sdk/IoT_LINK/iot_link/network/lwm2m/wakaama_lwm2m/wakaama-master/examples/shared\commandline.c ****     int length;
 127:C:/Users/²Ü¼ÒºÀ/.iotlink/sdk/IoT_LINK/iot_link/network/lwm2m/wakaama_lwm2m/wakaama-master/examples/shared\commandline.c **** 
 128:C:/Users/²Ü¼ÒºÀ/.iotlink/sdk/IoT_LINK/iot_link/network/lwm2m/wakaama_lwm2m/wakaama-master/examples/shared\commandline.c ****     // find end of command name
 129:C:/Users/²Ü¼ÒºÀ/.iotlink/sdk/IoT_LINK/iot_link/network/lwm2m/wakaama_lwm2m/wakaama-master/examples/shared\commandline.c ****     length = 0;
 130:C:/Users/²Ü¼ÒºÀ/.iotlink/sdk/IoT_LINK/iot_link/network/lwm2m/wakaama_lwm2m/wakaama-master/examples/shared\commandline.c ****     while (buffer[length] != 0 && !isspace(buffer[length] & 0xFF))
 131:C:/Users/²Ü¼ÒºÀ/.iotlink/sdk/IoT_LINK/iot_link/network/lwm2m/wakaama_lwm2m/wakaama-master/examples/shared\commandline.c ****         length++;
 132:C:/Users/²Ü¼ÒºÀ/.iotlink/sdk/IoT_LINK/iot_link/network/lwm2m/wakaama_lwm2m/wakaama-master/examples/shared\commandline.c **** 
 133:C:/Users/²Ü¼ÒºÀ/.iotlink/sdk/IoT_LINK/iot_link/network/lwm2m/wakaama_lwm2m/wakaama-master/examples/shared\commandline.c ****     cmdP = prv_find_command(commandArray, buffer, length);
 134:C:/Users/²Ü¼ÒºÀ/.iotlink/sdk/IoT_LINK/iot_link/network/lwm2m/wakaama_lwm2m/wakaama-master/examples/shared\commandline.c ****     if (cmdP != NULL)
 135:C:/Users/²Ü¼ÒºÀ/.iotlink/sdk/IoT_LINK/iot_link/network/lwm2m/wakaama_lwm2m/wakaama-master/examples/shared\commandline.c ****     {
 136:C:/Users/²Ü¼ÒºÀ/.iotlink/sdk/IoT_LINK/iot_link/network/lwm2m/wakaama_lwm2m/wakaama-master/examples/shared\commandline.c ****         while (buffer[length] != 0 && isspace(buffer[length] & 0xFF))
 137:C:/Users/²Ü¼ÒºÀ/.iotlink/sdk/IoT_LINK/iot_link/network/lwm2m/wakaama_lwm2m/wakaama-master/examples/shared\commandline.c ****             length++;
 138:C:/Users/²Ü¼ÒºÀ/.iotlink/sdk/IoT_LINK/iot_link/network/lwm2m/wakaama_lwm2m/wakaama-master/examples/shared\commandline.c ****         cmdP->callback(buffer + length, cmdP->userData);
 139:C:/Users/²Ü¼ÒºÀ/.iotlink/sdk/IoT_LINK/iot_link/network/lwm2m/wakaama_lwm2m/wakaama-master/examples/shared\commandline.c ****     }
 140:C:/Users/²Ü¼ÒºÀ/.iotlink/sdk/IoT_LINK/iot_link/network/lwm2m/wakaama_lwm2m/wakaama-master/examples/shared\commandline.c ****     else
ARM GAS  C:\Users\²Ü¼ÒºÀ\AppData\Local\Temp\ccEEsnMs.s 			page 4


 141:C:/Users/²Ü¼ÒºÀ/.iotlink/sdk/IoT_LINK/iot_link/network/lwm2m/wakaama_lwm2m/wakaama-master/examples/shared\commandline.c ****     {
 142:C:/Users/²Ü¼ÒºÀ/.iotlink/sdk/IoT_LINK/iot_link/network/lwm2m/wakaama_lwm2m/wakaama-master/examples/shared\commandline.c ****         if (!strncmp(buffer, HELP_COMMAND, length))
 143:C:/Users/²Ü¼ÒºÀ/.iotlink/sdk/IoT_LINK/iot_link/network/lwm2m/wakaama_lwm2m/wakaama-master/examples/shared\commandline.c ****         {
 144:C:/Users/²Ü¼ÒºÀ/.iotlink/sdk/IoT_LINK/iot_link/network/lwm2m/wakaama_lwm2m/wakaama-master/examples/shared\commandline.c ****             while (buffer[length] != 0 && isspace(buffer[length] & 0xFF))
 145:C:/Users/²Ü¼ÒºÀ/.iotlink/sdk/IoT_LINK/iot_link/network/lwm2m/wakaama_lwm2m/wakaama-master/examples/shared\commandline.c ****                 length++;
 146:C:/Users/²Ü¼ÒºÀ/.iotlink/sdk/IoT_LINK/iot_link/network/lwm2m/wakaama_lwm2m/wakaama-master/examples/shared\commandline.c ****             prv_displayHelp(commandArray, buffer + length);
 147:C:/Users/²Ü¼ÒºÀ/.iotlink/sdk/IoT_LINK/iot_link/network/lwm2m/wakaama_lwm2m/wakaama-master/examples/shared\commandline.c ****         }
 148:C:/Users/²Ü¼ÒºÀ/.iotlink/sdk/IoT_LINK/iot_link/network/lwm2m/wakaama_lwm2m/wakaama-master/examples/shared\commandline.c ****         else
 149:C:/Users/²Ü¼ÒºÀ/.iotlink/sdk/IoT_LINK/iot_link/network/lwm2m/wakaama_lwm2m/wakaama-master/examples/shared\commandline.c ****         {
 150:C:/Users/²Ü¼ÒºÀ/.iotlink/sdk/IoT_LINK/iot_link/network/lwm2m/wakaama_lwm2m/wakaama-master/examples/shared\commandline.c ****             fprintf(stdout, UNKNOWN_CMD_MSG"\r\n");
 151:C:/Users/²Ü¼ÒºÀ/.iotlink/sdk/IoT_LINK/iot_link/network/lwm2m/wakaama_lwm2m/wakaama-master/examples/shared\commandline.c ****         }
 152:C:/Users/²Ü¼ÒºÀ/.iotlink/sdk/IoT_LINK/iot_link/network/lwm2m/wakaama_lwm2m/wakaama-master/examples/shared\commandline.c ****     }
 153:C:/Users/²Ü¼ÒºÀ/.iotlink/sdk/IoT_LINK/iot_link/network/lwm2m/wakaama_lwm2m/wakaama-master/examples/shared\commandline.c **** }
 154:C:/Users/²Ü¼ÒºÀ/.iotlink/sdk/IoT_LINK/iot_link/network/lwm2m/wakaama_lwm2m/wakaama-master/examples/shared\commandline.c **** 
 155:C:/Users/²Ü¼ÒºÀ/.iotlink/sdk/IoT_LINK/iot_link/network/lwm2m/wakaama_lwm2m/wakaama-master/examples/shared\commandline.c **** static char *prv_end_of_space(char *buffer)
 156:C:/Users/²Ü¼ÒºÀ/.iotlink/sdk/IoT_LINK/iot_link/network/lwm2m/wakaama_lwm2m/wakaama-master/examples/shared\commandline.c **** {
 157:C:/Users/²Ü¼ÒºÀ/.iotlink/sdk/IoT_LINK/iot_link/network/lwm2m/wakaama_lwm2m/wakaama-master/examples/shared\commandline.c ****     while (isspace(buffer[0] & 0xff))
 158:C:/Users/²Ü¼ÒºÀ/.iotlink/sdk/IoT_LINK/iot_link/network/lwm2m/wakaama_lwm2m/wakaama-master/examples/shared\commandline.c ****     {
 159:C:/Users/²Ü¼ÒºÀ/.iotlink/sdk/IoT_LINK/iot_link/network/lwm2m/wakaama_lwm2m/wakaama-master/examples/shared\commandline.c ****         buffer++;
 160:C:/Users/²Ü¼ÒºÀ/.iotlink/sdk/IoT_LINK/iot_link/network/lwm2m/wakaama_lwm2m/wakaama-master/examples/shared\commandline.c ****     }
 161:C:/Users/²Ü¼ÒºÀ/.iotlink/sdk/IoT_LINK/iot_link/network/lwm2m/wakaama_lwm2m/wakaama-master/examples/shared\commandline.c ****     return buffer;
 162:C:/Users/²Ü¼ÒºÀ/.iotlink/sdk/IoT_LINK/iot_link/network/lwm2m/wakaama_lwm2m/wakaama-master/examples/shared\commandline.c **** }
 163:C:/Users/²Ü¼ÒºÀ/.iotlink/sdk/IoT_LINK/iot_link/network/lwm2m/wakaama_lwm2m/wakaama-master/examples/shared\commandline.c **** 
 164:C:/Users/²Ü¼ÒºÀ/.iotlink/sdk/IoT_LINK/iot_link/network/lwm2m/wakaama_lwm2m/wakaama-master/examples/shared\commandline.c **** char *get_end_of_arg(char *buffer)
 165:C:/Users/²Ü¼ÒºÀ/.iotlink/sdk/IoT_LINK/iot_link/network/lwm2m/wakaama_lwm2m/wakaama-master/examples/shared\commandline.c **** {
 166:C:/Users/²Ü¼ÒºÀ/.iotlink/sdk/IoT_LINK/iot_link/network/lwm2m/wakaama_lwm2m/wakaama-master/examples/shared\commandline.c ****     while (buffer[0] != 0 && !isspace(buffer[0] & 0xFF))
 167:C:/Users/²Ü¼ÒºÀ/.iotlink/sdk/IoT_LINK/iot_link/network/lwm2m/wakaama_lwm2m/wakaama-master/examples/shared\commandline.c ****     {
 168:C:/Users/²Ü¼ÒºÀ/.iotlink/sdk/IoT_LINK/iot_link/network/lwm2m/wakaama_lwm2m/wakaama-master/examples/shared\commandline.c ****         buffer++;
 169:C:/Users/²Ü¼ÒºÀ/.iotlink/sdk/IoT_LINK/iot_link/network/lwm2m/wakaama_lwm2m/wakaama-master/examples/shared\commandline.c ****     }
 170:C:/Users/²Ü¼ÒºÀ/.iotlink/sdk/IoT_LINK/iot_link/network/lwm2m/wakaama_lwm2m/wakaama-master/examples/shared\commandline.c ****     return buffer;
 171:C:/Users/²Ü¼ÒºÀ/.iotlink/sdk/IoT_LINK/iot_link/network/lwm2m/wakaama_lwm2m/wakaama-master/examples/shared\commandline.c **** }
 172:C:/Users/²Ü¼ÒºÀ/.iotlink/sdk/IoT_LINK/iot_link/network/lwm2m/wakaama_lwm2m/wakaama-master/examples/shared\commandline.c **** 
 173:C:/Users/²Ü¼ÒºÀ/.iotlink/sdk/IoT_LINK/iot_link/network/lwm2m/wakaama_lwm2m/wakaama-master/examples/shared\commandline.c **** char *get_next_arg(char *buffer, char **end)
 174:C:/Users/²Ü¼ÒºÀ/.iotlink/sdk/IoT_LINK/iot_link/network/lwm2m/wakaama_lwm2m/wakaama-master/examples/shared\commandline.c **** {
 175:C:/Users/²Ü¼ÒºÀ/.iotlink/sdk/IoT_LINK/iot_link/network/lwm2m/wakaama_lwm2m/wakaama-master/examples/shared\commandline.c ****     // skip arg
 176:C:/Users/²Ü¼ÒºÀ/.iotlink/sdk/IoT_LINK/iot_link/network/lwm2m/wakaama_lwm2m/wakaama-master/examples/shared\commandline.c ****     buffer = get_end_of_arg(buffer);
 177:C:/Users/²Ü¼ÒºÀ/.iotlink/sdk/IoT_LINK/iot_link/network/lwm2m/wakaama_lwm2m/wakaama-master/examples/shared\commandline.c ****     // skip space
 178:C:/Users/²Ü¼ÒºÀ/.iotlink/sdk/IoT_LINK/iot_link/network/lwm2m/wakaama_lwm2m/wakaama-master/examples/shared\commandline.c ****     buffer = prv_end_of_space(buffer);
 179:C:/Users/²Ü¼ÒºÀ/.iotlink/sdk/IoT_LINK/iot_link/network/lwm2m/wakaama_lwm2m/wakaama-master/examples/shared\commandline.c ****     if (NULL != end)
 180:C:/Users/²Ü¼ÒºÀ/.iotlink/sdk/IoT_LINK/iot_link/network/lwm2m/wakaama_lwm2m/wakaama-master/examples/shared\commandline.c ****     {
 181:C:/Users/²Ü¼ÒºÀ/.iotlink/sdk/IoT_LINK/iot_link/network/lwm2m/wakaama_lwm2m/wakaama-master/examples/shared\commandline.c ****         *end = get_end_of_arg(buffer);
 182:C:/Users/²Ü¼ÒºÀ/.iotlink/sdk/IoT_LINK/iot_link/network/lwm2m/wakaama_lwm2m/wakaama-master/examples/shared\commandline.c ****     }
 183:C:/Users/²Ü¼ÒºÀ/.iotlink/sdk/IoT_LINK/iot_link/network/lwm2m/wakaama_lwm2m/wakaama-master/examples/shared\commandline.c **** 
 184:C:/Users/²Ü¼ÒºÀ/.iotlink/sdk/IoT_LINK/iot_link/network/lwm2m/wakaama_lwm2m/wakaama-master/examples/shared\commandline.c ****     return buffer;
 185:C:/Users/²Ü¼ÒºÀ/.iotlink/sdk/IoT_LINK/iot_link/network/lwm2m/wakaama_lwm2m/wakaama-master/examples/shared\commandline.c **** }
 186:C:/Users/²Ü¼ÒºÀ/.iotlink/sdk/IoT_LINK/iot_link/network/lwm2m/wakaama_lwm2m/wakaama-master/examples/shared\commandline.c **** 
 187:C:/Users/²Ü¼ÒºÀ/.iotlink/sdk/IoT_LINK/iot_link/network/lwm2m/wakaama_lwm2m/wakaama-master/examples/shared\commandline.c **** int check_end_of_args(char *buffer)
 188:C:/Users/²Ü¼ÒºÀ/.iotlink/sdk/IoT_LINK/iot_link/network/lwm2m/wakaama_lwm2m/wakaama-master/examples/shared\commandline.c **** {
 189:C:/Users/²Ü¼ÒºÀ/.iotlink/sdk/IoT_LINK/iot_link/network/lwm2m/wakaama_lwm2m/wakaama-master/examples/shared\commandline.c ****     buffer = prv_end_of_space(buffer);
 190:C:/Users/²Ü¼ÒºÀ/.iotlink/sdk/IoT_LINK/iot_link/network/lwm2m/wakaama_lwm2m/wakaama-master/examples/shared\commandline.c **** 
 191:C:/Users/²Ü¼ÒºÀ/.iotlink/sdk/IoT_LINK/iot_link/network/lwm2m/wakaama_lwm2m/wakaama-master/examples/shared\commandline.c ****     return (0 == buffer[0]);
 192:C:/Users/²Ü¼ÒºÀ/.iotlink/sdk/IoT_LINK/iot_link/network/lwm2m/wakaama_lwm2m/wakaama-master/examples/shared\commandline.c **** }
 193:C:/Users/²Ü¼ÒºÀ/.iotlink/sdk/IoT_LINK/iot_link/network/lwm2m/wakaama_lwm2m/wakaama-master/examples/shared\commandline.c **** 
 194:C:/Users/²Ü¼ÒºÀ/.iotlink/sdk/IoT_LINK/iot_link/network/lwm2m/wakaama_lwm2m/wakaama-master/examples/shared\commandline.c **** /**********************************************************
 195:C:/Users/²Ü¼ÒºÀ/.iotlink/sdk/IoT_LINK/iot_link/network/lwm2m/wakaama_lwm2m/wakaama-master/examples/shared\commandline.c ****  * Display Functions
 196:C:/Users/²Ü¼ÒºÀ/.iotlink/sdk/IoT_LINK/iot_link/network/lwm2m/wakaama_lwm2m/wakaama-master/examples/shared\commandline.c ****  */
 197:C:/Users/²Ü¼ÒºÀ/.iotlink/sdk/IoT_LINK/iot_link/network/lwm2m/wakaama_lwm2m/wakaama-master/examples/shared\commandline.c **** 
ARM GAS  C:\Users\²Ü¼ÒºÀ\AppData\Local\Temp\ccEEsnMs.s 			page 5


 198:C:/Users/²Ü¼ÒºÀ/.iotlink/sdk/IoT_LINK/iot_link/network/lwm2m/wakaama_lwm2m/wakaama-master/examples/shared\commandline.c **** static void print_indent(FILE *stream,
 199:C:/Users/²Ü¼ÒºÀ/.iotlink/sdk/IoT_LINK/iot_link/network/lwm2m/wakaama_lwm2m/wakaama-master/examples/shared\commandline.c ****                          int num)
 200:C:/Users/²Ü¼ÒºÀ/.iotlink/sdk/IoT_LINK/iot_link/network/lwm2m/wakaama_lwm2m/wakaama-master/examples/shared\commandline.c **** {
  32              		.loc 1 200 1 view -0
  33              		.cfi_startproc
  34              		@ args = 0, pretend = 0, frame = 0
  35              		@ frame_needed = 0, uses_anonymous_args = 0
 201:C:/Users/²Ü¼ÒºÀ/.iotlink/sdk/IoT_LINK/iot_link/network/lwm2m/wakaama_lwm2m/wakaama-master/examples/shared\commandline.c ****     int i;
  36              		.loc 1 201 5 view .LVU1
 202:C:/Users/²Ü¼ÒºÀ/.iotlink/sdk/IoT_LINK/iot_link/network/lwm2m/wakaama_lwm2m/wakaama-master/examples/shared\commandline.c **** 
 203:C:/Users/²Ü¼ÒºÀ/.iotlink/sdk/IoT_LINK/iot_link/network/lwm2m/wakaama_lwm2m/wakaama-master/examples/shared\commandline.c ****     for ( i = 0 ; i < num ; i++)
  37              		.loc 1 203 5 view .LVU2
 200:C:/Users/²Ü¼ÒºÀ/.iotlink/sdk/IoT_LINK/iot_link/network/lwm2m/wakaama_lwm2m/wakaama-master/examples/shared\commandline.c ****     int i;
  38              		.loc 1 200 1 is_stmt 0 view .LVU3
  39 0000 F8B5     		push	{r3, r4, r5, r6, r7, lr}
  40              	.LCFI0:
  41              		.cfi_def_cfa_offset 24
  42              		.cfi_offset 3, -24
  43              		.cfi_offset 4, -20
  44              		.cfi_offset 5, -16
  45              		.cfi_offset 6, -12
  46              		.cfi_offset 7, -8
  47              		.cfi_offset 14, -4
 204:C:/Users/²Ü¼ÒºÀ/.iotlink/sdk/IoT_LINK/iot_link/network/lwm2m/wakaama_lwm2m/wakaama-master/examples/shared\commandline.c ****         fprintf(stream, "    ");
  48              		.loc 1 204 9 view .LVU4
  49 0002 064F     		ldr	r7, .L4
 200:C:/Users/²Ü¼ÒºÀ/.iotlink/sdk/IoT_LINK/iot_link/network/lwm2m/wakaama_lwm2m/wakaama-master/examples/shared\commandline.c ****     int i;
  50              		.loc 1 200 1 view .LVU5
  51 0004 0646     		mov	r6, r0
  52 0006 0C46     		mov	r4, r1
 203:C:/Users/²Ü¼ÒºÀ/.iotlink/sdk/IoT_LINK/iot_link/network/lwm2m/wakaama_lwm2m/wakaama-master/examples/shared\commandline.c ****         fprintf(stream, "    ");
  53              		.loc 1 203 13 view .LVU6
  54 0008 0025     		movs	r5, #0
  55              	.LVL1:
  56              	.L2:
 203:C:/Users/²Ü¼ÒºÀ/.iotlink/sdk/IoT_LINK/iot_link/network/lwm2m/wakaama_lwm2m/wakaama-master/examples/shared\commandline.c ****         fprintf(stream, "    ");
  57              		.loc 1 203 19 is_stmt 1 discriminator 1 view .LVU7
 203:C:/Users/²Ü¼ÒºÀ/.iotlink/sdk/IoT_LINK/iot_link/network/lwm2m/wakaama_lwm2m/wakaama-master/examples/shared\commandline.c ****         fprintf(stream, "    ");
  58              		.loc 1 203 5 is_stmt 0 discriminator 1 view .LVU8
  59 000a A542     		cmp	r5, r4
  60 000c 00DB     		blt	.L3
 205:C:/Users/²Ü¼ÒºÀ/.iotlink/sdk/IoT_LINK/iot_link/network/lwm2m/wakaama_lwm2m/wakaama-master/examples/shared\commandline.c **** }
  61              		.loc 1 205 1 view .LVU9
  62 000e F8BD     		pop	{r3, r4, r5, r6, r7, pc}
  63              	.LVL2:
  64              	.L3:
 204:C:/Users/²Ü¼ÒºÀ/.iotlink/sdk/IoT_LINK/iot_link/network/lwm2m/wakaama_lwm2m/wakaama-master/examples/shared\commandline.c ****         fprintf(stream, "    ");
  65              		.loc 1 204 9 is_stmt 1 discriminator 3 view .LVU10
  66 0010 3146     		mov	r1, r6
  67 0012 3846     		mov	r0, r7
  68 0014 FFF7FEFF 		bl	fputs
  69              	.LVL3:
 203:C:/Users/²Ü¼ÒºÀ/.iotlink/sdk/IoT_LINK/iot_link/network/lwm2m/wakaama_lwm2m/wakaama-master/examples/shared\commandline.c ****         fprintf(stream, "    ");
  70              		.loc 1 203 29 discriminator 3 view .LVU11
 203:C:/Users/²Ü¼ÒºÀ/.iotlink/sdk/IoT_LINK/iot_link/network/lwm2m/wakaama_lwm2m/wakaama-master/examples/shared\commandline.c ****         fprintf(stream, "    ");
  71              		.loc 1 203 30 is_stmt 0 discriminator 3 view .LVU12
  72 0018 0135     		adds	r5, r5, #1
ARM GAS  C:\Users\²Ü¼ÒºÀ\AppData\Local\Temp\ccEEsnMs.s 			page 6


  73              	.LVL4:
 203:C:/Users/²Ü¼ÒºÀ/.iotlink/sdk/IoT_LINK/iot_link/network/lwm2m/wakaama_lwm2m/wakaama-master/examples/shared\commandline.c ****         fprintf(stream, "    ");
  74              		.loc 1 203 30 discriminator 3 view .LVU13
  75 001a F6E7     		b	.L2
  76              	.L5:
  77              		.align	2
  78              	.L4:
  79 001c 00000000 		.word	.LC0
  80              		.cfi_endproc
  81              	.LFE11:
  83              		.section	.text.prv_b64Revert,"ax",%progbits
  84              		.align	1
  85              		.syntax unified
  86              		.thumb
  87              		.thumb_func
  88              		.fpu fpv4-sp-d16
  90              	prv_b64Revert:
  91              	.LVL5:
  92              	.LFB18:
 206:C:/Users/²Ü¼ÒºÀ/.iotlink/sdk/IoT_LINK/iot_link/network/lwm2m/wakaama_lwm2m/wakaama-master/examples/shared\commandline.c **** #ifdef ATING_DEBUG
 207:C:/Users/²Ü¼ÒºÀ/.iotlink/sdk/IoT_LINK/iot_link/network/lwm2m/wakaama_lwm2m/wakaama-master/examples/shared\commandline.c **** void output_buffer(FILE *stream,
 208:C:/Users/²Ü¼ÒºÀ/.iotlink/sdk/IoT_LINK/iot_link/network/lwm2m/wakaama_lwm2m/wakaama-master/examples/shared\commandline.c ****                    uint8_t *buffer,
 209:C:/Users/²Ü¼ÒºÀ/.iotlink/sdk/IoT_LINK/iot_link/network/lwm2m/wakaama_lwm2m/wakaama-master/examples/shared\commandline.c ****                    int length,
 210:C:/Users/²Ü¼ÒºÀ/.iotlink/sdk/IoT_LINK/iot_link/network/lwm2m/wakaama_lwm2m/wakaama-master/examples/shared\commandline.c ****                    int indent)
 211:C:/Users/²Ü¼ÒºÀ/.iotlink/sdk/IoT_LINK/iot_link/network/lwm2m/wakaama_lwm2m/wakaama-master/examples/shared\commandline.c **** {
 212:C:/Users/²Ü¼ÒºÀ/.iotlink/sdk/IoT_LINK/iot_link/network/lwm2m/wakaama_lwm2m/wakaama-master/examples/shared\commandline.c ****     int i;
 213:C:/Users/²Ü¼ÒºÀ/.iotlink/sdk/IoT_LINK/iot_link/network/lwm2m/wakaama_lwm2m/wakaama-master/examples/shared\commandline.c **** 
 214:C:/Users/²Ü¼ÒºÀ/.iotlink/sdk/IoT_LINK/iot_link/network/lwm2m/wakaama_lwm2m/wakaama-master/examples/shared\commandline.c ****     if (length == 0) fprintf(stream, "\n");
 215:C:/Users/²Ü¼ÒºÀ/.iotlink/sdk/IoT_LINK/iot_link/network/lwm2m/wakaama_lwm2m/wakaama-master/examples/shared\commandline.c **** 
 216:C:/Users/²Ü¼ÒºÀ/.iotlink/sdk/IoT_LINK/iot_link/network/lwm2m/wakaama_lwm2m/wakaama-master/examples/shared\commandline.c ****     if (buffer == NULL) return;
 217:C:/Users/²Ü¼ÒºÀ/.iotlink/sdk/IoT_LINK/iot_link/network/lwm2m/wakaama_lwm2m/wakaama-master/examples/shared\commandline.c **** 
 218:C:/Users/²Ü¼ÒºÀ/.iotlink/sdk/IoT_LINK/iot_link/network/lwm2m/wakaama_lwm2m/wakaama-master/examples/shared\commandline.c ****     i = 0;
 219:C:/Users/²Ü¼ÒºÀ/.iotlink/sdk/IoT_LINK/iot_link/network/lwm2m/wakaama_lwm2m/wakaama-master/examples/shared\commandline.c ****     while (i < length)
 220:C:/Users/²Ü¼ÒºÀ/.iotlink/sdk/IoT_LINK/iot_link/network/lwm2m/wakaama_lwm2m/wakaama-master/examples/shared\commandline.c ****     {
 221:C:/Users/²Ü¼ÒºÀ/.iotlink/sdk/IoT_LINK/iot_link/network/lwm2m/wakaama_lwm2m/wakaama-master/examples/shared\commandline.c ****         uint8_t array[16];
 222:C:/Users/²Ü¼ÒºÀ/.iotlink/sdk/IoT_LINK/iot_link/network/lwm2m/wakaama_lwm2m/wakaama-master/examples/shared\commandline.c ****         int j;
 223:C:/Users/²Ü¼ÒºÀ/.iotlink/sdk/IoT_LINK/iot_link/network/lwm2m/wakaama_lwm2m/wakaama-master/examples/shared\commandline.c **** 
 224:C:/Users/²Ü¼ÒºÀ/.iotlink/sdk/IoT_LINK/iot_link/network/lwm2m/wakaama_lwm2m/wakaama-master/examples/shared\commandline.c ****         print_indent(stream, indent);
 225:C:/Users/²Ü¼ÒºÀ/.iotlink/sdk/IoT_LINK/iot_link/network/lwm2m/wakaama_lwm2m/wakaama-master/examples/shared\commandline.c ****         memcpy(array, buffer + i, 16);
 226:C:/Users/²Ü¼ÒºÀ/.iotlink/sdk/IoT_LINK/iot_link/network/lwm2m/wakaama_lwm2m/wakaama-master/examples/shared\commandline.c ****         for (j = 0 ; j < 16 && i + j < length; j++)
 227:C:/Users/²Ü¼ÒºÀ/.iotlink/sdk/IoT_LINK/iot_link/network/lwm2m/wakaama_lwm2m/wakaama-master/examples/shared\commandline.c ****         {
 228:C:/Users/²Ü¼ÒºÀ/.iotlink/sdk/IoT_LINK/iot_link/network/lwm2m/wakaama_lwm2m/wakaama-master/examples/shared\commandline.c ****             fprintf(stream, "%02X ", array[j]);
 229:C:/Users/²Ü¼ÒºÀ/.iotlink/sdk/IoT_LINK/iot_link/network/lwm2m/wakaama_lwm2m/wakaama-master/examples/shared\commandline.c ****             if (j % 4 == 3) fprintf(stream, " ");
 230:C:/Users/²Ü¼ÒºÀ/.iotlink/sdk/IoT_LINK/iot_link/network/lwm2m/wakaama_lwm2m/wakaama-master/examples/shared\commandline.c ****         }
 231:C:/Users/²Ü¼ÒºÀ/.iotlink/sdk/IoT_LINK/iot_link/network/lwm2m/wakaama_lwm2m/wakaama-master/examples/shared\commandline.c ****         if (length > 16)
 232:C:/Users/²Ü¼ÒºÀ/.iotlink/sdk/IoT_LINK/iot_link/network/lwm2m/wakaama_lwm2m/wakaama-master/examples/shared\commandline.c ****         {
 233:C:/Users/²Ü¼ÒºÀ/.iotlink/sdk/IoT_LINK/iot_link/network/lwm2m/wakaama_lwm2m/wakaama-master/examples/shared\commandline.c ****             while (j < 16)
 234:C:/Users/²Ü¼ÒºÀ/.iotlink/sdk/IoT_LINK/iot_link/network/lwm2m/wakaama_lwm2m/wakaama-master/examples/shared\commandline.c ****             {
 235:C:/Users/²Ü¼ÒºÀ/.iotlink/sdk/IoT_LINK/iot_link/network/lwm2m/wakaama_lwm2m/wakaama-master/examples/shared\commandline.c ****                 fprintf(stream, "   ");
 236:C:/Users/²Ü¼ÒºÀ/.iotlink/sdk/IoT_LINK/iot_link/network/lwm2m/wakaama_lwm2m/wakaama-master/examples/shared\commandline.c ****                 if (j % 4 == 3) fprintf(stream, " ");
 237:C:/Users/²Ü¼ÒºÀ/.iotlink/sdk/IoT_LINK/iot_link/network/lwm2m/wakaama_lwm2m/wakaama-master/examples/shared\commandline.c ****                 j++;
 238:C:/Users/²Ü¼ÒºÀ/.iotlink/sdk/IoT_LINK/iot_link/network/lwm2m/wakaama_lwm2m/wakaama-master/examples/shared\commandline.c ****             }
 239:C:/Users/²Ü¼ÒºÀ/.iotlink/sdk/IoT_LINK/iot_link/network/lwm2m/wakaama_lwm2m/wakaama-master/examples/shared\commandline.c ****         }
 240:C:/Users/²Ü¼ÒºÀ/.iotlink/sdk/IoT_LINK/iot_link/network/lwm2m/wakaama_lwm2m/wakaama-master/examples/shared\commandline.c ****         fprintf(stream, " ");
 241:C:/Users/²Ü¼ÒºÀ/.iotlink/sdk/IoT_LINK/iot_link/network/lwm2m/wakaama_lwm2m/wakaama-master/examples/shared\commandline.c ****         for (j = 0 ; j < 16 && i + j < length; j++)
 242:C:/Users/²Ü¼ÒºÀ/.iotlink/sdk/IoT_LINK/iot_link/network/lwm2m/wakaama_lwm2m/wakaama-master/examples/shared\commandline.c ****         {
 243:C:/Users/²Ü¼ÒºÀ/.iotlink/sdk/IoT_LINK/iot_link/network/lwm2m/wakaama_lwm2m/wakaama-master/examples/shared\commandline.c ****             if (isprint(array[j]))
ARM GAS  C:\Users\²Ü¼ÒºÀ\AppData\Local\Temp\ccEEsnMs.s 			page 7


 244:C:/Users/²Ü¼ÒºÀ/.iotlink/sdk/IoT_LINK/iot_link/network/lwm2m/wakaama_lwm2m/wakaama-master/examples/shared\commandline.c ****                 fprintf(stream, "%c", array[j]);
 245:C:/Users/²Ü¼ÒºÀ/.iotlink/sdk/IoT_LINK/iot_link/network/lwm2m/wakaama_lwm2m/wakaama-master/examples/shared\commandline.c ****             else
 246:C:/Users/²Ü¼ÒºÀ/.iotlink/sdk/IoT_LINK/iot_link/network/lwm2m/wakaama_lwm2m/wakaama-master/examples/shared\commandline.c ****                 fprintf(stream, ".");
 247:C:/Users/²Ü¼ÒºÀ/.iotlink/sdk/IoT_LINK/iot_link/network/lwm2m/wakaama_lwm2m/wakaama-master/examples/shared\commandline.c ****         }
 248:C:/Users/²Ü¼ÒºÀ/.iotlink/sdk/IoT_LINK/iot_link/network/lwm2m/wakaama_lwm2m/wakaama-master/examples/shared\commandline.c ****         fprintf(stream, "\n");
 249:C:/Users/²Ü¼ÒºÀ/.iotlink/sdk/IoT_LINK/iot_link/network/lwm2m/wakaama_lwm2m/wakaama-master/examples/shared\commandline.c ****         i += 16;
 250:C:/Users/²Ü¼ÒºÀ/.iotlink/sdk/IoT_LINK/iot_link/network/lwm2m/wakaama_lwm2m/wakaama-master/examples/shared\commandline.c ****     }
 251:C:/Users/²Ü¼ÒºÀ/.iotlink/sdk/IoT_LINK/iot_link/network/lwm2m/wakaama_lwm2m/wakaama-master/examples/shared\commandline.c **** }
 252:C:/Users/²Ü¼ÒºÀ/.iotlink/sdk/IoT_LINK/iot_link/network/lwm2m/wakaama_lwm2m/wakaama-master/examples/shared\commandline.c **** #else
 253:C:/Users/²Ü¼ÒºÀ/.iotlink/sdk/IoT_LINK/iot_link/network/lwm2m/wakaama_lwm2m/wakaama-master/examples/shared\commandline.c **** void output_buffer(FILE *stream,
 254:C:/Users/²Ü¼ÒºÀ/.iotlink/sdk/IoT_LINK/iot_link/network/lwm2m/wakaama_lwm2m/wakaama-master/examples/shared\commandline.c ****                    uint8_t *buffer,
 255:C:/Users/²Ü¼ÒºÀ/.iotlink/sdk/IoT_LINK/iot_link/network/lwm2m/wakaama_lwm2m/wakaama-master/examples/shared\commandline.c ****                    int length,
 256:C:/Users/²Ü¼ÒºÀ/.iotlink/sdk/IoT_LINK/iot_link/network/lwm2m/wakaama_lwm2m/wakaama-master/examples/shared\commandline.c ****                    int indent)
 257:C:/Users/²Ü¼ÒºÀ/.iotlink/sdk/IoT_LINK/iot_link/network/lwm2m/wakaama_lwm2m/wakaama-master/examples/shared\commandline.c **** {
 258:C:/Users/²Ü¼ÒºÀ/.iotlink/sdk/IoT_LINK/iot_link/network/lwm2m/wakaama_lwm2m/wakaama-master/examples/shared\commandline.c **** }
 259:C:/Users/²Ü¼ÒºÀ/.iotlink/sdk/IoT_LINK/iot_link/network/lwm2m/wakaama_lwm2m/wakaama-master/examples/shared\commandline.c **** #endif
 260:C:/Users/²Ü¼ÒºÀ/.iotlink/sdk/IoT_LINK/iot_link/network/lwm2m/wakaama_lwm2m/wakaama-master/examples/shared\commandline.c **** void output_tlv(FILE *stream,
 261:C:/Users/²Ü¼ÒºÀ/.iotlink/sdk/IoT_LINK/iot_link/network/lwm2m/wakaama_lwm2m/wakaama-master/examples/shared\commandline.c ****                 uint8_t *buffer,
 262:C:/Users/²Ü¼ÒºÀ/.iotlink/sdk/IoT_LINK/iot_link/network/lwm2m/wakaama_lwm2m/wakaama-master/examples/shared\commandline.c ****                 size_t buffer_len,
 263:C:/Users/²Ü¼ÒºÀ/.iotlink/sdk/IoT_LINK/iot_link/network/lwm2m/wakaama_lwm2m/wakaama-master/examples/shared\commandline.c ****                 int indent)
 264:C:/Users/²Ü¼ÒºÀ/.iotlink/sdk/IoT_LINK/iot_link/network/lwm2m/wakaama_lwm2m/wakaama-master/examples/shared\commandline.c **** {
 265:C:/Users/²Ü¼ÒºÀ/.iotlink/sdk/IoT_LINK/iot_link/network/lwm2m/wakaama_lwm2m/wakaama-master/examples/shared\commandline.c ****     lwm2m_data_type_t type;
 266:C:/Users/²Ü¼ÒºÀ/.iotlink/sdk/IoT_LINK/iot_link/network/lwm2m/wakaama_lwm2m/wakaama-master/examples/shared\commandline.c ****     uint16_t id;
 267:C:/Users/²Ü¼ÒºÀ/.iotlink/sdk/IoT_LINK/iot_link/network/lwm2m/wakaama_lwm2m/wakaama-master/examples/shared\commandline.c ****     size_t dataIndex;
 268:C:/Users/²Ü¼ÒºÀ/.iotlink/sdk/IoT_LINK/iot_link/network/lwm2m/wakaama_lwm2m/wakaama-master/examples/shared\commandline.c ****     size_t dataLen;
 269:C:/Users/²Ü¼ÒºÀ/.iotlink/sdk/IoT_LINK/iot_link/network/lwm2m/wakaama_lwm2m/wakaama-master/examples/shared\commandline.c ****     int length = 0;
 270:C:/Users/²Ü¼ÒºÀ/.iotlink/sdk/IoT_LINK/iot_link/network/lwm2m/wakaama_lwm2m/wakaama-master/examples/shared\commandline.c ****     int result;
 271:C:/Users/²Ü¼ÒºÀ/.iotlink/sdk/IoT_LINK/iot_link/network/lwm2m/wakaama_lwm2m/wakaama-master/examples/shared\commandline.c **** 
 272:C:/Users/²Ü¼ÒºÀ/.iotlink/sdk/IoT_LINK/iot_link/network/lwm2m/wakaama_lwm2m/wakaama-master/examples/shared\commandline.c ****     while (0 != (result = lwm2m_decode_TLV((uint8_t *)buffer + length, buffer_len - length, &type, 
 273:C:/Users/²Ü¼ÒºÀ/.iotlink/sdk/IoT_LINK/iot_link/network/lwm2m/wakaama_lwm2m/wakaama-master/examples/shared\commandline.c ****     {
 274:C:/Users/²Ü¼ÒºÀ/.iotlink/sdk/IoT_LINK/iot_link/network/lwm2m/wakaama_lwm2m/wakaama-master/examples/shared\commandline.c ****         print_indent(stream, indent);
 275:C:/Users/²Ü¼ÒºÀ/.iotlink/sdk/IoT_LINK/iot_link/network/lwm2m/wakaama_lwm2m/wakaama-master/examples/shared\commandline.c ****         fprintf(stream, "{\r\n");
 276:C:/Users/²Ü¼ÒºÀ/.iotlink/sdk/IoT_LINK/iot_link/network/lwm2m/wakaama_lwm2m/wakaama-master/examples/shared\commandline.c ****         print_indent(stream, indent + 1);
 277:C:/Users/²Ü¼ÒºÀ/.iotlink/sdk/IoT_LINK/iot_link/network/lwm2m/wakaama_lwm2m/wakaama-master/examples/shared\commandline.c ****         fprintf(stream, "ID: %d", id);
 278:C:/Users/²Ü¼ÒºÀ/.iotlink/sdk/IoT_LINK/iot_link/network/lwm2m/wakaama_lwm2m/wakaama-master/examples/shared\commandline.c **** 
 279:C:/Users/²Ü¼ÒºÀ/.iotlink/sdk/IoT_LINK/iot_link/network/lwm2m/wakaama_lwm2m/wakaama-master/examples/shared\commandline.c ****         fprintf(stream, " type: ");
 280:C:/Users/²Ü¼ÒºÀ/.iotlink/sdk/IoT_LINK/iot_link/network/lwm2m/wakaama_lwm2m/wakaama-master/examples/shared\commandline.c ****         switch (type)
 281:C:/Users/²Ü¼ÒºÀ/.iotlink/sdk/IoT_LINK/iot_link/network/lwm2m/wakaama_lwm2m/wakaama-master/examples/shared\commandline.c ****         {
 282:C:/Users/²Ü¼ÒºÀ/.iotlink/sdk/IoT_LINK/iot_link/network/lwm2m/wakaama_lwm2m/wakaama-master/examples/shared\commandline.c ****         case LWM2M_TYPE_OBJECT_INSTANCE:
 283:C:/Users/²Ü¼ÒºÀ/.iotlink/sdk/IoT_LINK/iot_link/network/lwm2m/wakaama_lwm2m/wakaama-master/examples/shared\commandline.c ****             fprintf(stream, "Object Instance");
 284:C:/Users/²Ü¼ÒºÀ/.iotlink/sdk/IoT_LINK/iot_link/network/lwm2m/wakaama_lwm2m/wakaama-master/examples/shared\commandline.c ****             break;
 285:C:/Users/²Ü¼ÒºÀ/.iotlink/sdk/IoT_LINK/iot_link/network/lwm2m/wakaama_lwm2m/wakaama-master/examples/shared\commandline.c ****         case LWM2M_TYPE_MULTIPLE_RESOURCE:
 286:C:/Users/²Ü¼ÒºÀ/.iotlink/sdk/IoT_LINK/iot_link/network/lwm2m/wakaama_lwm2m/wakaama-master/examples/shared\commandline.c ****             fprintf(stream, "Multiple Instances");
 287:C:/Users/²Ü¼ÒºÀ/.iotlink/sdk/IoT_LINK/iot_link/network/lwm2m/wakaama_lwm2m/wakaama-master/examples/shared\commandline.c ****             break;
 288:C:/Users/²Ü¼ÒºÀ/.iotlink/sdk/IoT_LINK/iot_link/network/lwm2m/wakaama_lwm2m/wakaama-master/examples/shared\commandline.c ****         case LWM2M_TYPE_OPAQUE:
 289:C:/Users/²Ü¼ÒºÀ/.iotlink/sdk/IoT_LINK/iot_link/network/lwm2m/wakaama_lwm2m/wakaama-master/examples/shared\commandline.c ****             fprintf(stream, "Resource Value");
 290:C:/Users/²Ü¼ÒºÀ/.iotlink/sdk/IoT_LINK/iot_link/network/lwm2m/wakaama_lwm2m/wakaama-master/examples/shared\commandline.c ****             break;
 291:C:/Users/²Ü¼ÒºÀ/.iotlink/sdk/IoT_LINK/iot_link/network/lwm2m/wakaama_lwm2m/wakaama-master/examples/shared\commandline.c ****         default:
 292:C:/Users/²Ü¼ÒºÀ/.iotlink/sdk/IoT_LINK/iot_link/network/lwm2m/wakaama_lwm2m/wakaama-master/examples/shared\commandline.c ****             printf("unknown (%d)", (int)type);
 293:C:/Users/²Ü¼ÒºÀ/.iotlink/sdk/IoT_LINK/iot_link/network/lwm2m/wakaama_lwm2m/wakaama-master/examples/shared\commandline.c ****             break;
 294:C:/Users/²Ü¼ÒºÀ/.iotlink/sdk/IoT_LINK/iot_link/network/lwm2m/wakaama_lwm2m/wakaama-master/examples/shared\commandline.c ****         }
 295:C:/Users/²Ü¼ÒºÀ/.iotlink/sdk/IoT_LINK/iot_link/network/lwm2m/wakaama_lwm2m/wakaama-master/examples/shared\commandline.c ****         fprintf(stream, "\n");
 296:C:/Users/²Ü¼ÒºÀ/.iotlink/sdk/IoT_LINK/iot_link/network/lwm2m/wakaama_lwm2m/wakaama-master/examples/shared\commandline.c **** 
 297:C:/Users/²Ü¼ÒºÀ/.iotlink/sdk/IoT_LINK/iot_link/network/lwm2m/wakaama_lwm2m/wakaama-master/examples/shared\commandline.c ****         print_indent(stream, indent + 1);
 298:C:/Users/²Ü¼ÒºÀ/.iotlink/sdk/IoT_LINK/iot_link/network/lwm2m/wakaama_lwm2m/wakaama-master/examples/shared\commandline.c ****         fprintf(stream, "{\n");
 299:C:/Users/²Ü¼ÒºÀ/.iotlink/sdk/IoT_LINK/iot_link/network/lwm2m/wakaama_lwm2m/wakaama-master/examples/shared\commandline.c ****         if (type == LWM2M_TYPE_OBJECT_INSTANCE || type == LWM2M_TYPE_MULTIPLE_RESOURCE)
 300:C:/Users/²Ü¼ÒºÀ/.iotlink/sdk/IoT_LINK/iot_link/network/lwm2m/wakaama_lwm2m/wakaama-master/examples/shared\commandline.c ****         {
ARM GAS  C:\Users\²Ü¼ÒºÀ\AppData\Local\Temp\ccEEsnMs.s 			page 8


 301:C:/Users/²Ü¼ÒºÀ/.iotlink/sdk/IoT_LINK/iot_link/network/lwm2m/wakaama_lwm2m/wakaama-master/examples/shared\commandline.c ****             output_tlv(stream, buffer + length + dataIndex, dataLen, indent + 1);
 302:C:/Users/²Ü¼ÒºÀ/.iotlink/sdk/IoT_LINK/iot_link/network/lwm2m/wakaama_lwm2m/wakaama-master/examples/shared\commandline.c ****         }
 303:C:/Users/²Ü¼ÒºÀ/.iotlink/sdk/IoT_LINK/iot_link/network/lwm2m/wakaama_lwm2m/wakaama-master/examples/shared\commandline.c ****         else
 304:C:/Users/²Ü¼ÒºÀ/.iotlink/sdk/IoT_LINK/iot_link/network/lwm2m/wakaama_lwm2m/wakaama-master/examples/shared\commandline.c ****         {
 305:C:/Users/²Ü¼ÒºÀ/.iotlink/sdk/IoT_LINK/iot_link/network/lwm2m/wakaama_lwm2m/wakaama-master/examples/shared\commandline.c ****             int64_t intValue;
 306:C:/Users/²Ü¼ÒºÀ/.iotlink/sdk/IoT_LINK/iot_link/network/lwm2m/wakaama_lwm2m/wakaama-master/examples/shared\commandline.c ****             double floatValue;
 307:C:/Users/²Ü¼ÒºÀ/.iotlink/sdk/IoT_LINK/iot_link/network/lwm2m/wakaama_lwm2m/wakaama-master/examples/shared\commandline.c ****             uint8_t tmp;
 308:C:/Users/²Ü¼ÒºÀ/.iotlink/sdk/IoT_LINK/iot_link/network/lwm2m/wakaama_lwm2m/wakaama-master/examples/shared\commandline.c **** 
 309:C:/Users/²Ü¼ÒºÀ/.iotlink/sdk/IoT_LINK/iot_link/network/lwm2m/wakaama_lwm2m/wakaama-master/examples/shared\commandline.c ****             print_indent(stream, indent + 2);
 310:C:/Users/²Ü¼ÒºÀ/.iotlink/sdk/IoT_LINK/iot_link/network/lwm2m/wakaama_lwm2m/wakaama-master/examples/shared\commandline.c ****             fprintf(stream, "data (%d bytes):\r\n", dataLen);
 311:C:/Users/²Ü¼ÒºÀ/.iotlink/sdk/IoT_LINK/iot_link/network/lwm2m/wakaama_lwm2m/wakaama-master/examples/shared\commandline.c ****             output_buffer(stream, (uint8_t *)buffer + length + dataIndex, dataLen, indent + 2);
 312:C:/Users/²Ü¼ÒºÀ/.iotlink/sdk/IoT_LINK/iot_link/network/lwm2m/wakaama_lwm2m/wakaama-master/examples/shared\commandline.c **** 
 313:C:/Users/²Ü¼ÒºÀ/.iotlink/sdk/IoT_LINK/iot_link/network/lwm2m/wakaama_lwm2m/wakaama-master/examples/shared\commandline.c ****             tmp = buffer[length + dataIndex + dataLen];
 314:C:/Users/²Ü¼ÒºÀ/.iotlink/sdk/IoT_LINK/iot_link/network/lwm2m/wakaama_lwm2m/wakaama-master/examples/shared\commandline.c ****             buffer[length + dataIndex + dataLen] = 0;
 315:C:/Users/²Ü¼ÒºÀ/.iotlink/sdk/IoT_LINK/iot_link/network/lwm2m/wakaama_lwm2m/wakaama-master/examples/shared\commandline.c ****             if (0 < sscanf((const char *)buffer + length + dataIndex, "%"PRId64, &intValue))
 316:C:/Users/²Ü¼ÒºÀ/.iotlink/sdk/IoT_LINK/iot_link/network/lwm2m/wakaama_lwm2m/wakaama-master/examples/shared\commandline.c ****             {
 317:C:/Users/²Ü¼ÒºÀ/.iotlink/sdk/IoT_LINK/iot_link/network/lwm2m/wakaama_lwm2m/wakaama-master/examples/shared\commandline.c ****                 print_indent(stream, indent + 2);
 318:C:/Users/²Ü¼ÒºÀ/.iotlink/sdk/IoT_LINK/iot_link/network/lwm2m/wakaama_lwm2m/wakaama-master/examples/shared\commandline.c ****                 fprintf(stream, "data as Integer: %" PRId64 "\r\n", intValue);
 319:C:/Users/²Ü¼ÒºÀ/.iotlink/sdk/IoT_LINK/iot_link/network/lwm2m/wakaama_lwm2m/wakaama-master/examples/shared\commandline.c ****             }
 320:C:/Users/²Ü¼ÒºÀ/.iotlink/sdk/IoT_LINK/iot_link/network/lwm2m/wakaama_lwm2m/wakaama-master/examples/shared\commandline.c ****             if (0 < sscanf((const char *)buffer + length + dataIndex, "%lg", &floatValue))
 321:C:/Users/²Ü¼ÒºÀ/.iotlink/sdk/IoT_LINK/iot_link/network/lwm2m/wakaama_lwm2m/wakaama-master/examples/shared\commandline.c ****             {
 322:C:/Users/²Ü¼ÒºÀ/.iotlink/sdk/IoT_LINK/iot_link/network/lwm2m/wakaama_lwm2m/wakaama-master/examples/shared\commandline.c ****                 print_indent(stream, indent + 2);
 323:C:/Users/²Ü¼ÒºÀ/.iotlink/sdk/IoT_LINK/iot_link/network/lwm2m/wakaama_lwm2m/wakaama-master/examples/shared\commandline.c ****                 fprintf(stream, "data as Float: %.16g\r\n", floatValue);
 324:C:/Users/²Ü¼ÒºÀ/.iotlink/sdk/IoT_LINK/iot_link/network/lwm2m/wakaama_lwm2m/wakaama-master/examples/shared\commandline.c ****             }
 325:C:/Users/²Ü¼ÒºÀ/.iotlink/sdk/IoT_LINK/iot_link/network/lwm2m/wakaama_lwm2m/wakaama-master/examples/shared\commandline.c ****             buffer[length + dataIndex + dataLen] = tmp;
 326:C:/Users/²Ü¼ÒºÀ/.iotlink/sdk/IoT_LINK/iot_link/network/lwm2m/wakaama_lwm2m/wakaama-master/examples/shared\commandline.c ****         }
 327:C:/Users/²Ü¼ÒºÀ/.iotlink/sdk/IoT_LINK/iot_link/network/lwm2m/wakaama_lwm2m/wakaama-master/examples/shared\commandline.c ****         print_indent(stream, indent + 1);
 328:C:/Users/²Ü¼ÒºÀ/.iotlink/sdk/IoT_LINK/iot_link/network/lwm2m/wakaama_lwm2m/wakaama-master/examples/shared\commandline.c ****         fprintf(stream, "}\r\n");
 329:C:/Users/²Ü¼ÒºÀ/.iotlink/sdk/IoT_LINK/iot_link/network/lwm2m/wakaama_lwm2m/wakaama-master/examples/shared\commandline.c ****         length += result;
 330:C:/Users/²Ü¼ÒºÀ/.iotlink/sdk/IoT_LINK/iot_link/network/lwm2m/wakaama_lwm2m/wakaama-master/examples/shared\commandline.c ****         print_indent(stream, indent);
 331:C:/Users/²Ü¼ÒºÀ/.iotlink/sdk/IoT_LINK/iot_link/network/lwm2m/wakaama_lwm2m/wakaama-master/examples/shared\commandline.c ****         fprintf(stream, "}\r\n");
 332:C:/Users/²Ü¼ÒºÀ/.iotlink/sdk/IoT_LINK/iot_link/network/lwm2m/wakaama_lwm2m/wakaama-master/examples/shared\commandline.c ****     }
 333:C:/Users/²Ü¼ÒºÀ/.iotlink/sdk/IoT_LINK/iot_link/network/lwm2m/wakaama_lwm2m/wakaama-master/examples/shared\commandline.c **** }
 334:C:/Users/²Ü¼ÒºÀ/.iotlink/sdk/IoT_LINK/iot_link/network/lwm2m/wakaama_lwm2m/wakaama-master/examples/shared\commandline.c **** 
 335:C:/Users/²Ü¼ÒºÀ/.iotlink/sdk/IoT_LINK/iot_link/network/lwm2m/wakaama_lwm2m/wakaama-master/examples/shared\commandline.c **** void output_data(FILE *stream,
 336:C:/Users/²Ü¼ÒºÀ/.iotlink/sdk/IoT_LINK/iot_link/network/lwm2m/wakaama_lwm2m/wakaama-master/examples/shared\commandline.c ****                  lwm2m_media_type_t format,
 337:C:/Users/²Ü¼ÒºÀ/.iotlink/sdk/IoT_LINK/iot_link/network/lwm2m/wakaama_lwm2m/wakaama-master/examples/shared\commandline.c ****                  uint8_t *data,
 338:C:/Users/²Ü¼ÒºÀ/.iotlink/sdk/IoT_LINK/iot_link/network/lwm2m/wakaama_lwm2m/wakaama-master/examples/shared\commandline.c ****                  int dataLength,
 339:C:/Users/²Ü¼ÒºÀ/.iotlink/sdk/IoT_LINK/iot_link/network/lwm2m/wakaama_lwm2m/wakaama-master/examples/shared\commandline.c ****                  int indent)
 340:C:/Users/²Ü¼ÒºÀ/.iotlink/sdk/IoT_LINK/iot_link/network/lwm2m/wakaama_lwm2m/wakaama-master/examples/shared\commandline.c **** {
 341:C:/Users/²Ü¼ÒºÀ/.iotlink/sdk/IoT_LINK/iot_link/network/lwm2m/wakaama_lwm2m/wakaama-master/examples/shared\commandline.c ****     int i;
 342:C:/Users/²Ü¼ÒºÀ/.iotlink/sdk/IoT_LINK/iot_link/network/lwm2m/wakaama_lwm2m/wakaama-master/examples/shared\commandline.c **** 
 343:C:/Users/²Ü¼ÒºÀ/.iotlink/sdk/IoT_LINK/iot_link/network/lwm2m/wakaama_lwm2m/wakaama-master/examples/shared\commandline.c ****     print_indent(stream, indent);
 344:C:/Users/²Ü¼ÒºÀ/.iotlink/sdk/IoT_LINK/iot_link/network/lwm2m/wakaama_lwm2m/wakaama-master/examples/shared\commandline.c ****     fprintf(stream, "%d bytes received of type ", dataLength);
 345:C:/Users/²Ü¼ÒºÀ/.iotlink/sdk/IoT_LINK/iot_link/network/lwm2m/wakaama_lwm2m/wakaama-master/examples/shared\commandline.c **** 
 346:C:/Users/²Ü¼ÒºÀ/.iotlink/sdk/IoT_LINK/iot_link/network/lwm2m/wakaama_lwm2m/wakaama-master/examples/shared\commandline.c ****     switch (format)
 347:C:/Users/²Ü¼ÒºÀ/.iotlink/sdk/IoT_LINK/iot_link/network/lwm2m/wakaama_lwm2m/wakaama-master/examples/shared\commandline.c ****     {
 348:C:/Users/²Ü¼ÒºÀ/.iotlink/sdk/IoT_LINK/iot_link/network/lwm2m/wakaama_lwm2m/wakaama-master/examples/shared\commandline.c ****     case LWM2M_CONTENT_TEXT:
 349:C:/Users/²Ü¼ÒºÀ/.iotlink/sdk/IoT_LINK/iot_link/network/lwm2m/wakaama_lwm2m/wakaama-master/examples/shared\commandline.c ****         fprintf(stream, "text/plain:\r\n");
 350:C:/Users/²Ü¼ÒºÀ/.iotlink/sdk/IoT_LINK/iot_link/network/lwm2m/wakaama_lwm2m/wakaama-master/examples/shared\commandline.c ****         output_buffer(stream, data, dataLength, indent);
 351:C:/Users/²Ü¼ÒºÀ/.iotlink/sdk/IoT_LINK/iot_link/network/lwm2m/wakaama_lwm2m/wakaama-master/examples/shared\commandline.c ****         break;
 352:C:/Users/²Ü¼ÒºÀ/.iotlink/sdk/IoT_LINK/iot_link/network/lwm2m/wakaama_lwm2m/wakaama-master/examples/shared\commandline.c **** 
 353:C:/Users/²Ü¼ÒºÀ/.iotlink/sdk/IoT_LINK/iot_link/network/lwm2m/wakaama_lwm2m/wakaama-master/examples/shared\commandline.c ****     case LWM2M_CONTENT_OPAQUE:
 354:C:/Users/²Ü¼ÒºÀ/.iotlink/sdk/IoT_LINK/iot_link/network/lwm2m/wakaama_lwm2m/wakaama-master/examples/shared\commandline.c ****         fprintf(stream, "application/octet-stream:\r\n");
 355:C:/Users/²Ü¼ÒºÀ/.iotlink/sdk/IoT_LINK/iot_link/network/lwm2m/wakaama_lwm2m/wakaama-master/examples/shared\commandline.c ****         output_buffer(stream, data, dataLength, indent);
 356:C:/Users/²Ü¼ÒºÀ/.iotlink/sdk/IoT_LINK/iot_link/network/lwm2m/wakaama_lwm2m/wakaama-master/examples/shared\commandline.c ****         break;
 357:C:/Users/²Ü¼ÒºÀ/.iotlink/sdk/IoT_LINK/iot_link/network/lwm2m/wakaama_lwm2m/wakaama-master/examples/shared\commandline.c **** 
ARM GAS  C:\Users\²Ü¼ÒºÀ\AppData\Local\Temp\ccEEsnMs.s 			page 9


 358:C:/Users/²Ü¼ÒºÀ/.iotlink/sdk/IoT_LINK/iot_link/network/lwm2m/wakaama_lwm2m/wakaama-master/examples/shared\commandline.c ****     case LWM2M_CONTENT_TLV:
 359:C:/Users/²Ü¼ÒºÀ/.iotlink/sdk/IoT_LINK/iot_link/network/lwm2m/wakaama_lwm2m/wakaama-master/examples/shared\commandline.c ****         fprintf(stream, "application/vnd.oma.lwm2m+tlv:\r\n");
 360:C:/Users/²Ü¼ÒºÀ/.iotlink/sdk/IoT_LINK/iot_link/network/lwm2m/wakaama_lwm2m/wakaama-master/examples/shared\commandline.c ****         output_tlv(stream, data, dataLength, indent);
 361:C:/Users/²Ü¼ÒºÀ/.iotlink/sdk/IoT_LINK/iot_link/network/lwm2m/wakaama_lwm2m/wakaama-master/examples/shared\commandline.c ****         break;
 362:C:/Users/²Ü¼ÒºÀ/.iotlink/sdk/IoT_LINK/iot_link/network/lwm2m/wakaama_lwm2m/wakaama-master/examples/shared\commandline.c **** 
 363:C:/Users/²Ü¼ÒºÀ/.iotlink/sdk/IoT_LINK/iot_link/network/lwm2m/wakaama_lwm2m/wakaama-master/examples/shared\commandline.c ****     case LWM2M_CONTENT_JSON:
 364:C:/Users/²Ü¼ÒºÀ/.iotlink/sdk/IoT_LINK/iot_link/network/lwm2m/wakaama_lwm2m/wakaama-master/examples/shared\commandline.c ****         fprintf(stream, "application/vnd.oma.lwm2m+json:\r\n");
 365:C:/Users/²Ü¼ÒºÀ/.iotlink/sdk/IoT_LINK/iot_link/network/lwm2m/wakaama_lwm2m/wakaama-master/examples/shared\commandline.c ****         print_indent(stream, indent);
 366:C:/Users/²Ü¼ÒºÀ/.iotlink/sdk/IoT_LINK/iot_link/network/lwm2m/wakaama_lwm2m/wakaama-master/examples/shared\commandline.c ****         for (i = 0 ; i < dataLength ; i++)
 367:C:/Users/²Ü¼ÒºÀ/.iotlink/sdk/IoT_LINK/iot_link/network/lwm2m/wakaama_lwm2m/wakaama-master/examples/shared\commandline.c ****         {
 368:C:/Users/²Ü¼ÒºÀ/.iotlink/sdk/IoT_LINK/iot_link/network/lwm2m/wakaama_lwm2m/wakaama-master/examples/shared\commandline.c ****             fprintf(stream, "%c", data[i]);
 369:C:/Users/²Ü¼ÒºÀ/.iotlink/sdk/IoT_LINK/iot_link/network/lwm2m/wakaama_lwm2m/wakaama-master/examples/shared\commandline.c ****         }
 370:C:/Users/²Ü¼ÒºÀ/.iotlink/sdk/IoT_LINK/iot_link/network/lwm2m/wakaama_lwm2m/wakaama-master/examples/shared\commandline.c ****         fprintf(stream, "\n");
 371:C:/Users/²Ü¼ÒºÀ/.iotlink/sdk/IoT_LINK/iot_link/network/lwm2m/wakaama_lwm2m/wakaama-master/examples/shared\commandline.c ****         break;
 372:C:/Users/²Ü¼ÒºÀ/.iotlink/sdk/IoT_LINK/iot_link/network/lwm2m/wakaama_lwm2m/wakaama-master/examples/shared\commandline.c **** 
 373:C:/Users/²Ü¼ÒºÀ/.iotlink/sdk/IoT_LINK/iot_link/network/lwm2m/wakaama_lwm2m/wakaama-master/examples/shared\commandline.c ****     case LWM2M_CONTENT_LINK:
 374:C:/Users/²Ü¼ÒºÀ/.iotlink/sdk/IoT_LINK/iot_link/network/lwm2m/wakaama_lwm2m/wakaama-master/examples/shared\commandline.c ****         fprintf(stream, "application/link-format:\r\n");
 375:C:/Users/²Ü¼ÒºÀ/.iotlink/sdk/IoT_LINK/iot_link/network/lwm2m/wakaama_lwm2m/wakaama-master/examples/shared\commandline.c ****         print_indent(stream, indent);
 376:C:/Users/²Ü¼ÒºÀ/.iotlink/sdk/IoT_LINK/iot_link/network/lwm2m/wakaama_lwm2m/wakaama-master/examples/shared\commandline.c ****         for (i = 0 ; i < dataLength ; i++)
 377:C:/Users/²Ü¼ÒºÀ/.iotlink/sdk/IoT_LINK/iot_link/network/lwm2m/wakaama_lwm2m/wakaama-master/examples/shared\commandline.c ****         {
 378:C:/Users/²Ü¼ÒºÀ/.iotlink/sdk/IoT_LINK/iot_link/network/lwm2m/wakaama_lwm2m/wakaama-master/examples/shared\commandline.c ****             fprintf(stream, "%c", data[i]);
 379:C:/Users/²Ü¼ÒºÀ/.iotlink/sdk/IoT_LINK/iot_link/network/lwm2m/wakaama_lwm2m/wakaama-master/examples/shared\commandline.c ****         }
 380:C:/Users/²Ü¼ÒºÀ/.iotlink/sdk/IoT_LINK/iot_link/network/lwm2m/wakaama_lwm2m/wakaama-master/examples/shared\commandline.c ****         fprintf(stream, "\n");
 381:C:/Users/²Ü¼ÒºÀ/.iotlink/sdk/IoT_LINK/iot_link/network/lwm2m/wakaama_lwm2m/wakaama-master/examples/shared\commandline.c ****         break;
 382:C:/Users/²Ü¼ÒºÀ/.iotlink/sdk/IoT_LINK/iot_link/network/lwm2m/wakaama_lwm2m/wakaama-master/examples/shared\commandline.c **** 
 383:C:/Users/²Ü¼ÒºÀ/.iotlink/sdk/IoT_LINK/iot_link/network/lwm2m/wakaama_lwm2m/wakaama-master/examples/shared\commandline.c ****     default:
 384:C:/Users/²Ü¼ÒºÀ/.iotlink/sdk/IoT_LINK/iot_link/network/lwm2m/wakaama_lwm2m/wakaama-master/examples/shared\commandline.c ****         fprintf(stream, "Unknown (%d):\r\n", format);
 385:C:/Users/²Ü¼ÒºÀ/.iotlink/sdk/IoT_LINK/iot_link/network/lwm2m/wakaama_lwm2m/wakaama-master/examples/shared\commandline.c ****         output_buffer(stream, data, dataLength, indent);
 386:C:/Users/²Ü¼ÒºÀ/.iotlink/sdk/IoT_LINK/iot_link/network/lwm2m/wakaama_lwm2m/wakaama-master/examples/shared\commandline.c ****         break;
 387:C:/Users/²Ü¼ÒºÀ/.iotlink/sdk/IoT_LINK/iot_link/network/lwm2m/wakaama_lwm2m/wakaama-master/examples/shared\commandline.c ****     }
 388:C:/Users/²Ü¼ÒºÀ/.iotlink/sdk/IoT_LINK/iot_link/network/lwm2m/wakaama_lwm2m/wakaama-master/examples/shared\commandline.c **** }
 389:C:/Users/²Ü¼ÒºÀ/.iotlink/sdk/IoT_LINK/iot_link/network/lwm2m/wakaama_lwm2m/wakaama-master/examples/shared\commandline.c **** 
 390:C:/Users/²Ü¼ÒºÀ/.iotlink/sdk/IoT_LINK/iot_link/network/lwm2m/wakaama_lwm2m/wakaama-master/examples/shared\commandline.c **** void dump_tlv(FILE *stream,
 391:C:/Users/²Ü¼ÒºÀ/.iotlink/sdk/IoT_LINK/iot_link/network/lwm2m/wakaama_lwm2m/wakaama-master/examples/shared\commandline.c ****               int size,
 392:C:/Users/²Ü¼ÒºÀ/.iotlink/sdk/IoT_LINK/iot_link/network/lwm2m/wakaama_lwm2m/wakaama-master/examples/shared\commandline.c ****               lwm2m_data_t *dataP,
 393:C:/Users/²Ü¼ÒºÀ/.iotlink/sdk/IoT_LINK/iot_link/network/lwm2m/wakaama_lwm2m/wakaama-master/examples/shared\commandline.c ****               int indent)
 394:C:/Users/²Ü¼ÒºÀ/.iotlink/sdk/IoT_LINK/iot_link/network/lwm2m/wakaama_lwm2m/wakaama-master/examples/shared\commandline.c **** {
 395:C:/Users/²Ü¼ÒºÀ/.iotlink/sdk/IoT_LINK/iot_link/network/lwm2m/wakaama_lwm2m/wakaama-master/examples/shared\commandline.c ****     int i;
 396:C:/Users/²Ü¼ÒºÀ/.iotlink/sdk/IoT_LINK/iot_link/network/lwm2m/wakaama_lwm2m/wakaama-master/examples/shared\commandline.c **** 
 397:C:/Users/²Ü¼ÒºÀ/.iotlink/sdk/IoT_LINK/iot_link/network/lwm2m/wakaama_lwm2m/wakaama-master/examples/shared\commandline.c ****     for(i = 0 ; i < size ; i++)
 398:C:/Users/²Ü¼ÒºÀ/.iotlink/sdk/IoT_LINK/iot_link/network/lwm2m/wakaama_lwm2m/wakaama-master/examples/shared\commandline.c ****     {
 399:C:/Users/²Ü¼ÒºÀ/.iotlink/sdk/IoT_LINK/iot_link/network/lwm2m/wakaama_lwm2m/wakaama-master/examples/shared\commandline.c ****         print_indent(stream, indent);
 400:C:/Users/²Ü¼ÒºÀ/.iotlink/sdk/IoT_LINK/iot_link/network/lwm2m/wakaama_lwm2m/wakaama-master/examples/shared\commandline.c ****         fprintf(stream, "{\r\n");
 401:C:/Users/²Ü¼ÒºÀ/.iotlink/sdk/IoT_LINK/iot_link/network/lwm2m/wakaama_lwm2m/wakaama-master/examples/shared\commandline.c ****         print_indent(stream, indent + 1);
 402:C:/Users/²Ü¼ÒºÀ/.iotlink/sdk/IoT_LINK/iot_link/network/lwm2m/wakaama_lwm2m/wakaama-master/examples/shared\commandline.c ****         fprintf(stream, "id: %d\r\n", dataP[i].id);
 403:C:/Users/²Ü¼ÒºÀ/.iotlink/sdk/IoT_LINK/iot_link/network/lwm2m/wakaama_lwm2m/wakaama-master/examples/shared\commandline.c **** 
 404:C:/Users/²Ü¼ÒºÀ/.iotlink/sdk/IoT_LINK/iot_link/network/lwm2m/wakaama_lwm2m/wakaama-master/examples/shared\commandline.c ****         print_indent(stream, indent + 1);
 405:C:/Users/²Ü¼ÒºÀ/.iotlink/sdk/IoT_LINK/iot_link/network/lwm2m/wakaama_lwm2m/wakaama-master/examples/shared\commandline.c ****         fprintf(stream, "type: ");
 406:C:/Users/²Ü¼ÒºÀ/.iotlink/sdk/IoT_LINK/iot_link/network/lwm2m/wakaama_lwm2m/wakaama-master/examples/shared\commandline.c ****         switch (dataP[i].type)
 407:C:/Users/²Ü¼ÒºÀ/.iotlink/sdk/IoT_LINK/iot_link/network/lwm2m/wakaama_lwm2m/wakaama-master/examples/shared\commandline.c ****         {
 408:C:/Users/²Ü¼ÒºÀ/.iotlink/sdk/IoT_LINK/iot_link/network/lwm2m/wakaama_lwm2m/wakaama-master/examples/shared\commandline.c ****         case LWM2M_TYPE_OBJECT:
 409:C:/Users/²Ü¼ÒºÀ/.iotlink/sdk/IoT_LINK/iot_link/network/lwm2m/wakaama_lwm2m/wakaama-master/examples/shared\commandline.c ****             fprintf(stream, "LWM2M_TYPE_OBJECT\r\n");
 410:C:/Users/²Ü¼ÒºÀ/.iotlink/sdk/IoT_LINK/iot_link/network/lwm2m/wakaama_lwm2m/wakaama-master/examples/shared\commandline.c ****             dump_tlv(stream, dataP[i].value.asChildren.count, dataP[i].value.asChildren.array, inde
 411:C:/Users/²Ü¼ÒºÀ/.iotlink/sdk/IoT_LINK/iot_link/network/lwm2m/wakaama_lwm2m/wakaama-master/examples/shared\commandline.c ****             break;
 412:C:/Users/²Ü¼ÒºÀ/.iotlink/sdk/IoT_LINK/iot_link/network/lwm2m/wakaama_lwm2m/wakaama-master/examples/shared\commandline.c ****         case LWM2M_TYPE_OBJECT_INSTANCE:
 413:C:/Users/²Ü¼ÒºÀ/.iotlink/sdk/IoT_LINK/iot_link/network/lwm2m/wakaama_lwm2m/wakaama-master/examples/shared\commandline.c ****             fprintf(stream, "LWM2M_TYPE_OBJECT_INSTANCE\r\n");
 414:C:/Users/²Ü¼ÒºÀ/.iotlink/sdk/IoT_LINK/iot_link/network/lwm2m/wakaama_lwm2m/wakaama-master/examples/shared\commandline.c ****             dump_tlv(stream, dataP[i].value.asChildren.count, dataP[i].value.asChildren.array, inde
ARM GAS  C:\Users\²Ü¼ÒºÀ\AppData\Local\Temp\ccEEsnMs.s 			page 10


 415:C:/Users/²Ü¼ÒºÀ/.iotlink/sdk/IoT_LINK/iot_link/network/lwm2m/wakaama_lwm2m/wakaama-master/examples/shared\commandline.c ****             break;
 416:C:/Users/²Ü¼ÒºÀ/.iotlink/sdk/IoT_LINK/iot_link/network/lwm2m/wakaama_lwm2m/wakaama-master/examples/shared\commandline.c ****         case LWM2M_TYPE_MULTIPLE_RESOURCE:
 417:C:/Users/²Ü¼ÒºÀ/.iotlink/sdk/IoT_LINK/iot_link/network/lwm2m/wakaama_lwm2m/wakaama-master/examples/shared\commandline.c ****             fprintf(stream, "LWM2M_TYPE_MULTIPLE_RESOURCE\r\n");
 418:C:/Users/²Ü¼ÒºÀ/.iotlink/sdk/IoT_LINK/iot_link/network/lwm2m/wakaama_lwm2m/wakaama-master/examples/shared\commandline.c ****             dump_tlv(stream, dataP[i].value.asChildren.count, dataP[i].value.asChildren.array, inde
 419:C:/Users/²Ü¼ÒºÀ/.iotlink/sdk/IoT_LINK/iot_link/network/lwm2m/wakaama_lwm2m/wakaama-master/examples/shared\commandline.c ****             break;
 420:C:/Users/²Ü¼ÒºÀ/.iotlink/sdk/IoT_LINK/iot_link/network/lwm2m/wakaama_lwm2m/wakaama-master/examples/shared\commandline.c ****         case LWM2M_TYPE_UNDEFINED:
 421:C:/Users/²Ü¼ÒºÀ/.iotlink/sdk/IoT_LINK/iot_link/network/lwm2m/wakaama_lwm2m/wakaama-master/examples/shared\commandline.c ****             fprintf(stream, "LWM2M_TYPE_UNDEFINED\r\n");
 422:C:/Users/²Ü¼ÒºÀ/.iotlink/sdk/IoT_LINK/iot_link/network/lwm2m/wakaama_lwm2m/wakaama-master/examples/shared\commandline.c ****             break;
 423:C:/Users/²Ü¼ÒºÀ/.iotlink/sdk/IoT_LINK/iot_link/network/lwm2m/wakaama_lwm2m/wakaama-master/examples/shared\commandline.c ****         case LWM2M_TYPE_STRING:
 424:C:/Users/²Ü¼ÒºÀ/.iotlink/sdk/IoT_LINK/iot_link/network/lwm2m/wakaama_lwm2m/wakaama-master/examples/shared\commandline.c ****             fprintf(stream, "LWM2M_TYPE_STRING\r\n");
 425:C:/Users/²Ü¼ÒºÀ/.iotlink/sdk/IoT_LINK/iot_link/network/lwm2m/wakaama_lwm2m/wakaama-master/examples/shared\commandline.c ****             print_indent(stream, indent + 1);
 426:C:/Users/²Ü¼ÒºÀ/.iotlink/sdk/IoT_LINK/iot_link/network/lwm2m/wakaama_lwm2m/wakaama-master/examples/shared\commandline.c ****             fprintf(stream, "\"%.*s\"\r\n", (int)dataP[i].value.asBuffer.length, dataP[i].value.asB
 427:C:/Users/²Ü¼ÒºÀ/.iotlink/sdk/IoT_LINK/iot_link/network/lwm2m/wakaama_lwm2m/wakaama-master/examples/shared\commandline.c ****             break;
 428:C:/Users/²Ü¼ÒºÀ/.iotlink/sdk/IoT_LINK/iot_link/network/lwm2m/wakaama_lwm2m/wakaama-master/examples/shared\commandline.c ****         case LWM2M_TYPE_OPAQUE:
 429:C:/Users/²Ü¼ÒºÀ/.iotlink/sdk/IoT_LINK/iot_link/network/lwm2m/wakaama_lwm2m/wakaama-master/examples/shared\commandline.c ****             fprintf(stream, "LWM2M_TYPE_OPAQUE\r\n");
 430:C:/Users/²Ü¼ÒºÀ/.iotlink/sdk/IoT_LINK/iot_link/network/lwm2m/wakaama_lwm2m/wakaama-master/examples/shared\commandline.c ****             output_buffer(stream, dataP[i].value.asBuffer.buffer, dataP[i].value.asBuffer.length, i
 431:C:/Users/²Ü¼ÒºÀ/.iotlink/sdk/IoT_LINK/iot_link/network/lwm2m/wakaama_lwm2m/wakaama-master/examples/shared\commandline.c ****             break;
 432:C:/Users/²Ü¼ÒºÀ/.iotlink/sdk/IoT_LINK/iot_link/network/lwm2m/wakaama_lwm2m/wakaama-master/examples/shared\commandline.c ****         case LWM2M_TYPE_INTEGER:
 433:C:/Users/²Ü¼ÒºÀ/.iotlink/sdk/IoT_LINK/iot_link/network/lwm2m/wakaama_lwm2m/wakaama-master/examples/shared\commandline.c ****             fprintf(stream, "LWM2M_TYPE_INTEGER: ");
 434:C:/Users/²Ü¼ÒºÀ/.iotlink/sdk/IoT_LINK/iot_link/network/lwm2m/wakaama_lwm2m/wakaama-master/examples/shared\commandline.c ****             print_indent(stream, indent + 1);
 435:C:/Users/²Ü¼ÒºÀ/.iotlink/sdk/IoT_LINK/iot_link/network/lwm2m/wakaama_lwm2m/wakaama-master/examples/shared\commandline.c ****             fprintf(stream, "%" PRId64, dataP[i].value.asInteger);
 436:C:/Users/²Ü¼ÒºÀ/.iotlink/sdk/IoT_LINK/iot_link/network/lwm2m/wakaama_lwm2m/wakaama-master/examples/shared\commandline.c ****             fprintf(stream, "\r\n");
 437:C:/Users/²Ü¼ÒºÀ/.iotlink/sdk/IoT_LINK/iot_link/network/lwm2m/wakaama_lwm2m/wakaama-master/examples/shared\commandline.c ****             break;
 438:C:/Users/²Ü¼ÒºÀ/.iotlink/sdk/IoT_LINK/iot_link/network/lwm2m/wakaama_lwm2m/wakaama-master/examples/shared\commandline.c ****         case LWM2M_TYPE_FLOAT:
 439:C:/Users/²Ü¼ÒºÀ/.iotlink/sdk/IoT_LINK/iot_link/network/lwm2m/wakaama_lwm2m/wakaama-master/examples/shared\commandline.c ****             fprintf(stream, "LWM2M_TYPE_FLOAT: ");
 440:C:/Users/²Ü¼ÒºÀ/.iotlink/sdk/IoT_LINK/iot_link/network/lwm2m/wakaama_lwm2m/wakaama-master/examples/shared\commandline.c ****             print_indent(stream, indent + 1);
 441:C:/Users/²Ü¼ÒºÀ/.iotlink/sdk/IoT_LINK/iot_link/network/lwm2m/wakaama_lwm2m/wakaama-master/examples/shared\commandline.c ****             fprintf(stream, "%" PRId64, dataP[i].value.asInteger);
 442:C:/Users/²Ü¼ÒºÀ/.iotlink/sdk/IoT_LINK/iot_link/network/lwm2m/wakaama_lwm2m/wakaama-master/examples/shared\commandline.c ****             fprintf(stream, "\r\n");
 443:C:/Users/²Ü¼ÒºÀ/.iotlink/sdk/IoT_LINK/iot_link/network/lwm2m/wakaama_lwm2m/wakaama-master/examples/shared\commandline.c ****             break;
 444:C:/Users/²Ü¼ÒºÀ/.iotlink/sdk/IoT_LINK/iot_link/network/lwm2m/wakaama_lwm2m/wakaama-master/examples/shared\commandline.c ****         case LWM2M_TYPE_BOOLEAN:
 445:C:/Users/²Ü¼ÒºÀ/.iotlink/sdk/IoT_LINK/iot_link/network/lwm2m/wakaama_lwm2m/wakaama-master/examples/shared\commandline.c ****             fprintf(stream, "LWM2M_TYPE_BOOLEAN: ");
 446:C:/Users/²Ü¼ÒºÀ/.iotlink/sdk/IoT_LINK/iot_link/network/lwm2m/wakaama_lwm2m/wakaama-master/examples/shared\commandline.c ****             fprintf(stream, "%s", dataP[i].value.asBoolean ? "true" : "false");
 447:C:/Users/²Ü¼ÒºÀ/.iotlink/sdk/IoT_LINK/iot_link/network/lwm2m/wakaama_lwm2m/wakaama-master/examples/shared\commandline.c ****             fprintf(stream, "\r\n");
 448:C:/Users/²Ü¼ÒºÀ/.iotlink/sdk/IoT_LINK/iot_link/network/lwm2m/wakaama_lwm2m/wakaama-master/examples/shared\commandline.c ****             break;
 449:C:/Users/²Ü¼ÒºÀ/.iotlink/sdk/IoT_LINK/iot_link/network/lwm2m/wakaama_lwm2m/wakaama-master/examples/shared\commandline.c ****         case LWM2M_TYPE_OBJECT_LINK:
 450:C:/Users/²Ü¼ÒºÀ/.iotlink/sdk/IoT_LINK/iot_link/network/lwm2m/wakaama_lwm2m/wakaama-master/examples/shared\commandline.c ****             fprintf(stream, "LWM2M_TYPE_OBJECT_LINK\r\n");
 451:C:/Users/²Ü¼ÒºÀ/.iotlink/sdk/IoT_LINK/iot_link/network/lwm2m/wakaama_lwm2m/wakaama-master/examples/shared\commandline.c ****             break;
 452:C:/Users/²Ü¼ÒºÀ/.iotlink/sdk/IoT_LINK/iot_link/network/lwm2m/wakaama_lwm2m/wakaama-master/examples/shared\commandline.c ****         default:
 453:C:/Users/²Ü¼ÒºÀ/.iotlink/sdk/IoT_LINK/iot_link/network/lwm2m/wakaama_lwm2m/wakaama-master/examples/shared\commandline.c ****             fprintf(stream, "unknown (%d)\r\n", (int)dataP[i].type);
 454:C:/Users/²Ü¼ÒºÀ/.iotlink/sdk/IoT_LINK/iot_link/network/lwm2m/wakaama_lwm2m/wakaama-master/examples/shared\commandline.c ****             break;
 455:C:/Users/²Ü¼ÒºÀ/.iotlink/sdk/IoT_LINK/iot_link/network/lwm2m/wakaama_lwm2m/wakaama-master/examples/shared\commandline.c ****         }
 456:C:/Users/²Ü¼ÒºÀ/.iotlink/sdk/IoT_LINK/iot_link/network/lwm2m/wakaama_lwm2m/wakaama-master/examples/shared\commandline.c ****         print_indent(stream, indent);
 457:C:/Users/²Ü¼ÒºÀ/.iotlink/sdk/IoT_LINK/iot_link/network/lwm2m/wakaama_lwm2m/wakaama-master/examples/shared\commandline.c ****         fprintf(stream, "}\r\n");
 458:C:/Users/²Ü¼ÒºÀ/.iotlink/sdk/IoT_LINK/iot_link/network/lwm2m/wakaama_lwm2m/wakaama-master/examples/shared\commandline.c ****     }
 459:C:/Users/²Ü¼ÒºÀ/.iotlink/sdk/IoT_LINK/iot_link/network/lwm2m/wakaama_lwm2m/wakaama-master/examples/shared\commandline.c **** }
 460:C:/Users/²Ü¼ÒºÀ/.iotlink/sdk/IoT_LINK/iot_link/network/lwm2m/wakaama_lwm2m/wakaama-master/examples/shared\commandline.c **** 
 461:C:/Users/²Ü¼ÒºÀ/.iotlink/sdk/IoT_LINK/iot_link/network/lwm2m/wakaama_lwm2m/wakaama-master/examples/shared\commandline.c **** #define CODE_TO_STRING(X)   case X : return #X
 462:C:/Users/²Ü¼ÒºÀ/.iotlink/sdk/IoT_LINK/iot_link/network/lwm2m/wakaama_lwm2m/wakaama-master/examples/shared\commandline.c **** 
 463:C:/Users/²Ü¼ÒºÀ/.iotlink/sdk/IoT_LINK/iot_link/network/lwm2m/wakaama_lwm2m/wakaama-master/examples/shared\commandline.c **** static const char *prv_status_to_string(int status)
 464:C:/Users/²Ü¼ÒºÀ/.iotlink/sdk/IoT_LINK/iot_link/network/lwm2m/wakaama_lwm2m/wakaama-master/examples/shared\commandline.c **** {
 465:C:/Users/²Ü¼ÒºÀ/.iotlink/sdk/IoT_LINK/iot_link/network/lwm2m/wakaama_lwm2m/wakaama-master/examples/shared\commandline.c ****     switch(status)
 466:C:/Users/²Ü¼ÒºÀ/.iotlink/sdk/IoT_LINK/iot_link/network/lwm2m/wakaama_lwm2m/wakaama-master/examples/shared\commandline.c ****     {
 467:C:/Users/²Ü¼ÒºÀ/.iotlink/sdk/IoT_LINK/iot_link/network/lwm2m/wakaama_lwm2m/wakaama-master/examples/shared\commandline.c ****         CODE_TO_STRING(COAP_NO_ERROR);
 468:C:/Users/²Ü¼ÒºÀ/.iotlink/sdk/IoT_LINK/iot_link/network/lwm2m/wakaama_lwm2m/wakaama-master/examples/shared\commandline.c ****         CODE_TO_STRING(COAP_IGNORE);
 469:C:/Users/²Ü¼ÒºÀ/.iotlink/sdk/IoT_LINK/iot_link/network/lwm2m/wakaama_lwm2m/wakaama-master/examples/shared\commandline.c ****         CODE_TO_STRING(COAP_201_CREATED);
 470:C:/Users/²Ü¼ÒºÀ/.iotlink/sdk/IoT_LINK/iot_link/network/lwm2m/wakaama_lwm2m/wakaama-master/examples/shared\commandline.c ****         CODE_TO_STRING(COAP_202_DELETED);
 471:C:/Users/²Ü¼ÒºÀ/.iotlink/sdk/IoT_LINK/iot_link/network/lwm2m/wakaama_lwm2m/wakaama-master/examples/shared\commandline.c ****         CODE_TO_STRING(COAP_204_CHANGED);
ARM GAS  C:\Users\²Ü¼ÒºÀ\AppData\Local\Temp\ccEEsnMs.s 			page 11


 472:C:/Users/²Ü¼ÒºÀ/.iotlink/sdk/IoT_LINK/iot_link/network/lwm2m/wakaama_lwm2m/wakaama-master/examples/shared\commandline.c ****         CODE_TO_STRING(COAP_205_CONTENT);
 473:C:/Users/²Ü¼ÒºÀ/.iotlink/sdk/IoT_LINK/iot_link/network/lwm2m/wakaama_lwm2m/wakaama-master/examples/shared\commandline.c ****         CODE_TO_STRING(COAP_400_BAD_REQUEST);
 474:C:/Users/²Ü¼ÒºÀ/.iotlink/sdk/IoT_LINK/iot_link/network/lwm2m/wakaama_lwm2m/wakaama-master/examples/shared\commandline.c ****         CODE_TO_STRING(COAP_401_UNAUTHORIZED);
 475:C:/Users/²Ü¼ÒºÀ/.iotlink/sdk/IoT_LINK/iot_link/network/lwm2m/wakaama_lwm2m/wakaama-master/examples/shared\commandline.c ****         CODE_TO_STRING(COAP_404_NOT_FOUND);
 476:C:/Users/²Ü¼ÒºÀ/.iotlink/sdk/IoT_LINK/iot_link/network/lwm2m/wakaama_lwm2m/wakaama-master/examples/shared\commandline.c ****         CODE_TO_STRING(COAP_405_METHOD_NOT_ALLOWED);
 477:C:/Users/²Ü¼ÒºÀ/.iotlink/sdk/IoT_LINK/iot_link/network/lwm2m/wakaama_lwm2m/wakaama-master/examples/shared\commandline.c ****         CODE_TO_STRING(COAP_406_NOT_ACCEPTABLE);
 478:C:/Users/²Ü¼ÒºÀ/.iotlink/sdk/IoT_LINK/iot_link/network/lwm2m/wakaama_lwm2m/wakaama-master/examples/shared\commandline.c ****         CODE_TO_STRING(COAP_500_INTERNAL_SERVER_ERROR);
 479:C:/Users/²Ü¼ÒºÀ/.iotlink/sdk/IoT_LINK/iot_link/network/lwm2m/wakaama_lwm2m/wakaama-master/examples/shared\commandline.c ****         CODE_TO_STRING(COAP_501_NOT_IMPLEMENTED);
 480:C:/Users/²Ü¼ÒºÀ/.iotlink/sdk/IoT_LINK/iot_link/network/lwm2m/wakaama_lwm2m/wakaama-master/examples/shared\commandline.c ****         CODE_TO_STRING(COAP_503_SERVICE_UNAVAILABLE);
 481:C:/Users/²Ü¼ÒºÀ/.iotlink/sdk/IoT_LINK/iot_link/network/lwm2m/wakaama_lwm2m/wakaama-master/examples/shared\commandline.c ****     default:
 482:C:/Users/²Ü¼ÒºÀ/.iotlink/sdk/IoT_LINK/iot_link/network/lwm2m/wakaama_lwm2m/wakaama-master/examples/shared\commandline.c ****         return "";
 483:C:/Users/²Ü¼ÒºÀ/.iotlink/sdk/IoT_LINK/iot_link/network/lwm2m/wakaama_lwm2m/wakaama-master/examples/shared\commandline.c ****     }
 484:C:/Users/²Ü¼ÒºÀ/.iotlink/sdk/IoT_LINK/iot_link/network/lwm2m/wakaama_lwm2m/wakaama-master/examples/shared\commandline.c **** }
 485:C:/Users/²Ü¼ÒºÀ/.iotlink/sdk/IoT_LINK/iot_link/network/lwm2m/wakaama_lwm2m/wakaama-master/examples/shared\commandline.c **** 
 486:C:/Users/²Ü¼ÒºÀ/.iotlink/sdk/IoT_LINK/iot_link/network/lwm2m/wakaama_lwm2m/wakaama-master/examples/shared\commandline.c **** void print_status(FILE *stream,
 487:C:/Users/²Ü¼ÒºÀ/.iotlink/sdk/IoT_LINK/iot_link/network/lwm2m/wakaama_lwm2m/wakaama-master/examples/shared\commandline.c ****                   uint8_t status)
 488:C:/Users/²Ü¼ÒºÀ/.iotlink/sdk/IoT_LINK/iot_link/network/lwm2m/wakaama_lwm2m/wakaama-master/examples/shared\commandline.c **** {
 489:C:/Users/²Ü¼ÒºÀ/.iotlink/sdk/IoT_LINK/iot_link/network/lwm2m/wakaama_lwm2m/wakaama-master/examples/shared\commandline.c ****     fprintf(stream, "%d.%02d (%s)", (status & 0xE0) >> 5, status & 0x1F, prv_status_to_string(statu
 490:C:/Users/²Ü¼ÒºÀ/.iotlink/sdk/IoT_LINK/iot_link/network/lwm2m/wakaama_lwm2m/wakaama-master/examples/shared\commandline.c **** }
 491:C:/Users/²Ü¼ÒºÀ/.iotlink/sdk/IoT_LINK/iot_link/network/lwm2m/wakaama_lwm2m/wakaama-master/examples/shared\commandline.c **** 
 492:C:/Users/²Ü¼ÒºÀ/.iotlink/sdk/IoT_LINK/iot_link/network/lwm2m/wakaama_lwm2m/wakaama-master/examples/shared\commandline.c **** /**********************************************************
 493:C:/Users/²Ü¼ÒºÀ/.iotlink/sdk/IoT_LINK/iot_link/network/lwm2m/wakaama_lwm2m/wakaama-master/examples/shared\commandline.c **** * Base64 decoding function
 494:C:/Users/²Ü¼ÒºÀ/.iotlink/sdk/IoT_LINK/iot_link/network/lwm2m/wakaama_lwm2m/wakaama-master/examples/shared\commandline.c **** *
 495:C:/Users/²Ü¼ÒºÀ/.iotlink/sdk/IoT_LINK/iot_link/network/lwm2m/wakaama_lwm2m/wakaama-master/examples/shared\commandline.c **** * WARNING: Bugged for input strings with length < 4
 496:C:/Users/²Ü¼ÒºÀ/.iotlink/sdk/IoT_LINK/iot_link/network/lwm2m/wakaama_lwm2m/wakaama-master/examples/shared\commandline.c **** *
 497:C:/Users/²Ü¼ÒºÀ/.iotlink/sdk/IoT_LINK/iot_link/network/lwm2m/wakaama_lwm2m/wakaama-master/examples/shared\commandline.c **** */
 498:C:/Users/²Ü¼ÒºÀ/.iotlink/sdk/IoT_LINK/iot_link/network/lwm2m/wakaama_lwm2m/wakaama-master/examples/shared\commandline.c **** 
 499:C:/Users/²Ü¼ÒºÀ/.iotlink/sdk/IoT_LINK/iot_link/network/lwm2m/wakaama_lwm2m/wakaama-master/examples/shared\commandline.c **** #define PRV_B64_PADDING '='
 500:C:/Users/²Ü¼ÒºÀ/.iotlink/sdk/IoT_LINK/iot_link/network/lwm2m/wakaama_lwm2m/wakaama-master/examples/shared\commandline.c **** 
 501:C:/Users/²Ü¼ÒºÀ/.iotlink/sdk/IoT_LINK/iot_link/network/lwm2m/wakaama_lwm2m/wakaama-master/examples/shared\commandline.c **** static uint8_t prv_b64Revert(uint8_t value)
 502:C:/Users/²Ü¼ÒºÀ/.iotlink/sdk/IoT_LINK/iot_link/network/lwm2m/wakaama_lwm2m/wakaama-master/examples/shared\commandline.c **** {
  93              		.loc 1 502 1 is_stmt 1 view -0
  94              		.cfi_startproc
  95              		@ args = 0, pretend = 0, frame = 0
  96              		@ frame_needed = 0, uses_anonymous_args = 0
  97              		@ link register save eliminated.
 503:C:/Users/²Ü¼ÒºÀ/.iotlink/sdk/IoT_LINK/iot_link/network/lwm2m/wakaama_lwm2m/wakaama-master/examples/shared\commandline.c ****     if (value >= 'A' && value <= 'Z')
  98              		.loc 1 503 5 view .LVU15
  99              		.loc 1 503 22 is_stmt 0 view .LVU16
 100 0000 A0F14103 		sub	r3, r0, #65
 101 0004 DBB2     		uxtb	r3, r3
 102              		.loc 1 503 8 view .LVU17
 103 0006 192B     		cmp	r3, #25
 104 0008 05D9     		bls	.L7
 504:C:/Users/²Ü¼ÒºÀ/.iotlink/sdk/IoT_LINK/iot_link/network/lwm2m/wakaama_lwm2m/wakaama-master/examples/shared\commandline.c ****     {
 505:C:/Users/²Ü¼ÒºÀ/.iotlink/sdk/IoT_LINK/iot_link/network/lwm2m/wakaama_lwm2m/wakaama-master/examples/shared\commandline.c ****         return (value - 'A');
 506:C:/Users/²Ü¼ÒºÀ/.iotlink/sdk/IoT_LINK/iot_link/network/lwm2m/wakaama_lwm2m/wakaama-master/examples/shared\commandline.c ****     }
 507:C:/Users/²Ü¼ÒºÀ/.iotlink/sdk/IoT_LINK/iot_link/network/lwm2m/wakaama_lwm2m/wakaama-master/examples/shared\commandline.c ****     if (value >= 'a' && value <= 'z')
 105              		.loc 1 507 5 is_stmt 1 view .LVU18
 106              		.loc 1 507 8 is_stmt 0 view .LVU19
 107 000a A0F16103 		sub	r3, r0, #97
 108 000e 192B     		cmp	r3, #25
 109 0010 03D8     		bhi	.L8
 508:C:/Users/²Ü¼ÒºÀ/.iotlink/sdk/IoT_LINK/iot_link/network/lwm2m/wakaama_lwm2m/wakaama-master/examples/shared\commandline.c ****     {
 509:C:/Users/²Ü¼ÒºÀ/.iotlink/sdk/IoT_LINK/iot_link/network/lwm2m/wakaama_lwm2m/wakaama-master/examples/shared\commandline.c ****         return (26 + value - 'a');
 110              		.loc 1 509 9 is_stmt 1 view .LVU20
 111              		.loc 1 509 28 is_stmt 0 view .LVU21
ARM GAS  C:\Users\²Ü¼ÒºÀ\AppData\Local\Temp\ccEEsnMs.s 			page 12


 112 0012 4738     		subs	r0, r0, #71
 113              	.LVL6:
 114              	.L12:
 510:C:/Users/²Ü¼ÒºÀ/.iotlink/sdk/IoT_LINK/iot_link/network/lwm2m/wakaama_lwm2m/wakaama-master/examples/shared\commandline.c ****     }
 511:C:/Users/²Ü¼ÒºÀ/.iotlink/sdk/IoT_LINK/iot_link/network/lwm2m/wakaama_lwm2m/wakaama-master/examples/shared\commandline.c ****     if (value >= '0' && value <= '9')
 512:C:/Users/²Ü¼ÒºÀ/.iotlink/sdk/IoT_LINK/iot_link/network/lwm2m/wakaama_lwm2m/wakaama-master/examples/shared\commandline.c ****     {
 513:C:/Users/²Ü¼ÒºÀ/.iotlink/sdk/IoT_LINK/iot_link/network/lwm2m/wakaama_lwm2m/wakaama-master/examples/shared\commandline.c ****         return (52 + value - '0');
 115              		.loc 1 513 28 view .LVU22
 116 0014 C3B2     		uxtb	r3, r0
 117              	.L7:
 514:C:/Users/²Ü¼ÒºÀ/.iotlink/sdk/IoT_LINK/iot_link/network/lwm2m/wakaama_lwm2m/wakaama-master/examples/shared\commandline.c ****     }
 515:C:/Users/²Ü¼ÒºÀ/.iotlink/sdk/IoT_LINK/iot_link/network/lwm2m/wakaama_lwm2m/wakaama-master/examples/shared\commandline.c ****     switch (value)
 516:C:/Users/²Ü¼ÒºÀ/.iotlink/sdk/IoT_LINK/iot_link/network/lwm2m/wakaama_lwm2m/wakaama-master/examples/shared\commandline.c ****     {
 517:C:/Users/²Ü¼ÒºÀ/.iotlink/sdk/IoT_LINK/iot_link/network/lwm2m/wakaama_lwm2m/wakaama-master/examples/shared\commandline.c ****     case '+':
 518:C:/Users/²Ü¼ÒºÀ/.iotlink/sdk/IoT_LINK/iot_link/network/lwm2m/wakaama_lwm2m/wakaama-master/examples/shared\commandline.c ****         return 62;
 519:C:/Users/²Ü¼ÒºÀ/.iotlink/sdk/IoT_LINK/iot_link/network/lwm2m/wakaama_lwm2m/wakaama-master/examples/shared\commandline.c ****     case '/':
 520:C:/Users/²Ü¼ÒºÀ/.iotlink/sdk/IoT_LINK/iot_link/network/lwm2m/wakaama_lwm2m/wakaama-master/examples/shared\commandline.c ****         return 63;
 521:C:/Users/²Ü¼ÒºÀ/.iotlink/sdk/IoT_LINK/iot_link/network/lwm2m/wakaama_lwm2m/wakaama-master/examples/shared\commandline.c ****     default:
 522:C:/Users/²Ü¼ÒºÀ/.iotlink/sdk/IoT_LINK/iot_link/network/lwm2m/wakaama_lwm2m/wakaama-master/examples/shared\commandline.c ****         return 0;
 523:C:/Users/²Ü¼ÒºÀ/.iotlink/sdk/IoT_LINK/iot_link/network/lwm2m/wakaama_lwm2m/wakaama-master/examples/shared\commandline.c ****     }
 524:C:/Users/²Ü¼ÒºÀ/.iotlink/sdk/IoT_LINK/iot_link/network/lwm2m/wakaama_lwm2m/wakaama-master/examples/shared\commandline.c **** }
 118              		.loc 1 524 1 view .LVU23
 119 0016 1846     		mov	r0, r3
 120 0018 7047     		bx	lr
 121              	.LVL7:
 122              	.L8:
 511:C:/Users/²Ü¼ÒºÀ/.iotlink/sdk/IoT_LINK/iot_link/network/lwm2m/wakaama_lwm2m/wakaama-master/examples/shared\commandline.c ****     {
 123              		.loc 1 511 5 is_stmt 1 view .LVU24
 511:C:/Users/²Ü¼ÒºÀ/.iotlink/sdk/IoT_LINK/iot_link/network/lwm2m/wakaama_lwm2m/wakaama-master/examples/shared\commandline.c ****     {
 124              		.loc 1 511 8 is_stmt 0 view .LVU25
 125 001a A0F13003 		sub	r3, r0, #48
 126 001e 092B     		cmp	r3, #9
 127 0020 01D8     		bhi	.L9
 513:C:/Users/²Ü¼ÒºÀ/.iotlink/sdk/IoT_LINK/iot_link/network/lwm2m/wakaama_lwm2m/wakaama-master/examples/shared\commandline.c ****     }
 128              		.loc 1 513 9 is_stmt 1 view .LVU26
 513:C:/Users/²Ü¼ÒºÀ/.iotlink/sdk/IoT_LINK/iot_link/network/lwm2m/wakaama_lwm2m/wakaama-master/examples/shared\commandline.c ****     }
 129              		.loc 1 513 28 is_stmt 0 view .LVU27
 130 0022 0430     		adds	r0, r0, #4
 131              	.LVL8:
 513:C:/Users/²Ü¼ÒºÀ/.iotlink/sdk/IoT_LINK/iot_link/network/lwm2m/wakaama_lwm2m/wakaama-master/examples/shared\commandline.c ****     }
 132              		.loc 1 513 28 view .LVU28
 133 0024 F6E7     		b	.L12
 134              	.LVL9:
 135              	.L9:
 136              	.LBB15:
 137              	.LBI15:
 501:C:/Users/²Ü¼ÒºÀ/.iotlink/sdk/IoT_LINK/iot_link/network/lwm2m/wakaama_lwm2m/wakaama-master/examples/shared\commandline.c **** {
 138              		.loc 1 501 16 is_stmt 1 view .LVU29
 139              	.LBB16:
 515:C:/Users/²Ü¼ÒºÀ/.iotlink/sdk/IoT_LINK/iot_link/network/lwm2m/wakaama_lwm2m/wakaama-master/examples/shared\commandline.c ****     {
 140              		.loc 1 515 5 view .LVU30
 141 0026 2B28     		cmp	r0, #43
 142 0028 04D0     		beq	.L10
 143 002a 2F28     		cmp	r0, #47
 522:C:/Users/²Ü¼ÒºÀ/.iotlink/sdk/IoT_LINK/iot_link/network/lwm2m/wakaama_lwm2m/wakaama-master/examples/shared\commandline.c ****     }
 144              		.loc 1 522 16 is_stmt 0 view .LVU31
 145 002c 0CBF     		ite	eq
ARM GAS  C:\Users\²Ü¼ÒºÀ\AppData\Local\Temp\ccEEsnMs.s 			page 13


 146 002e 3F23     		moveq	r3, #63
 147 0030 0023     		movne	r3, #0
 148 0032 F0E7     		b	.L7
 149              	.L10:
 515:C:/Users/²Ü¼ÒºÀ/.iotlink/sdk/IoT_LINK/iot_link/network/lwm2m/wakaama_lwm2m/wakaama-master/examples/shared\commandline.c ****     {
 150              		.loc 1 515 5 view .LVU32
 151 0034 3E23     		movs	r3, #62
 152 0036 EEE7     		b	.L7
 153              	.LBE16:
 154              	.LBE15:
 155              		.cfi_endproc
 156              	.LFE18:
 158              		.section	.text.prv_find_command.part.0,"ax",%progbits
 159              		.align	1
 160              		.syntax unified
 161              		.thumb
 162              		.thumb_func
 163              		.fpu fpv4-sp-d16
 165              	prv_find_command.part.0:
 166              	.LVL10:
 167              	.LFB22:
  66:C:/Users/²Ü¼ÒºÀ/.iotlink/sdk/IoT_LINK/iot_link/network/lwm2m/wakaama_lwm2m/wakaama-master/examples/shared\commandline.c ****                                         char *buffer,
 168              		.loc 1 66 24 is_stmt 1 view -0
 169              		.cfi_startproc
 170              		@ args = 0, pretend = 0, frame = 8
 171              		@ frame_needed = 0, uses_anonymous_args = 0
  66:C:/Users/²Ü¼ÒºÀ/.iotlink/sdk/IoT_LINK/iot_link/network/lwm2m/wakaama_lwm2m/wakaama-master/examples/shared\commandline.c ****                                         char *buffer,
 172              		.loc 1 66 24 is_stmt 0 view .LVU34
 173 0000 73B5     		push	{r0, r1, r4, r5, r6, lr}
 174              	.LCFI1:
 175              		.cfi_def_cfa_offset 24
 176              		.cfi_offset 4, -16
 177              		.cfi_offset 5, -12
 178              		.cfi_offset 6, -8
 179              		.cfi_offset 14, -4
  66:C:/Users/²Ü¼ÒºÀ/.iotlink/sdk/IoT_LINK/iot_link/network/lwm2m/wakaama_lwm2m/wakaama-master/examples/shared\commandline.c ****                                         char *buffer,
 180              		.loc 1 66 24 view .LVU35
 181 0002 0E46     		mov	r6, r1
 182 0004 1546     		mov	r5, r2
 183 0006 0446     		mov	r4, r0
 184              	.LVL11:
 185              	.L14:
  75:C:/Users/²Ü¼ÒºÀ/.iotlink/sdk/IoT_LINK/iot_link/network/lwm2m/wakaama_lwm2m/wakaama-master/examples/shared\commandline.c ****             && (strlen(commandArray[i].name) != length || strncmp(buffer, commandArray[i].name, len
 186              		.loc 1 75 11 is_stmt 1 view .LVU36
  75:C:/Users/²Ü¼ÒºÀ/.iotlink/sdk/IoT_LINK/iot_link/network/lwm2m/wakaama_lwm2m/wakaama-master/examples/shared\commandline.c ****             && (strlen(commandArray[i].name) != length || strncmp(buffer, commandArray[i].name, len
 187              		.loc 1 75 27 is_stmt 0 view .LVU37
 188 0008 2168     		ldr	r1, [r4]
  75:C:/Users/²Ü¼ÒºÀ/.iotlink/sdk/IoT_LINK/iot_link/network/lwm2m/wakaama_lwm2m/wakaama-master/examples/shared\commandline.c ****             && (strlen(commandArray[i].name) != length || strncmp(buffer, commandArray[i].name, len
 189              		.loc 1 75 11 view .LVU38
 190 000a 61B1     		cbz	r1, .L13
  76:C:/Users/²Ü¼ÒºÀ/.iotlink/sdk/IoT_LINK/iot_link/network/lwm2m/wakaama_lwm2m/wakaama-master/examples/shared\commandline.c ****     {
 191              		.loc 1 76 17 view .LVU39
 192 000c 0846     		mov	r0, r1
 193 000e 0191     		str	r1, [sp, #4]
 194 0010 FFF7FEFF 		bl	strlen
 195              	.LVL12:
  76:C:/Users/²Ü¼ÒºÀ/.iotlink/sdk/IoT_LINK/iot_link/network/lwm2m/wakaama_lwm2m/wakaama-master/examples/shared\commandline.c ****     {
ARM GAS  C:\Users\²Ü¼ÒºÀ\AppData\Local\Temp\ccEEsnMs.s 			page 14


 196              		.loc 1 76 13 view .LVU40
 197 0014 A842     		cmp	r0, r5
 198 0016 0199     		ldr	r1, [sp, #4]
 199 0018 08D1     		bne	.L16
  76:C:/Users/²Ü¼ÒºÀ/.iotlink/sdk/IoT_LINK/iot_link/network/lwm2m/wakaama_lwm2m/wakaama-master/examples/shared\commandline.c ****     {
 200              		.loc 1 76 59 view .LVU41
 201 001a 2A46     		mov	r2, r5
 202 001c 3046     		mov	r0, r6
 203 001e FFF7FEFF 		bl	strncmp
 204              	.LVL13:
  76:C:/Users/²Ü¼ÒºÀ/.iotlink/sdk/IoT_LINK/iot_link/network/lwm2m/wakaama_lwm2m/wakaama-master/examples/shared\commandline.c ****     {
 205              		.loc 1 76 56 view .LVU42
 206 0022 18B9     		cbnz	r0, .L16
  75:C:/Users/²Ü¼ÒºÀ/.iotlink/sdk/IoT_LINK/iot_link/network/lwm2m/wakaama_lwm2m/wakaama-master/examples/shared\commandline.c ****             && (strlen(commandArray[i].name) != length || strncmp(buffer, commandArray[i].name, len
 207              		.loc 1 75 24 view .LVU43
 208 0024 2146     		mov	r1, r4
 209              	.L13:
  89:C:/Users/²Ü¼ÒºÀ/.iotlink/sdk/IoT_LINK/iot_link/network/lwm2m/wakaama_lwm2m/wakaama-master/examples/shared\commandline.c **** 
 210              		.loc 1 89 1 view .LVU44
 211 0026 0846     		mov	r0, r1
 212 0028 02B0     		add	sp, sp, #8
 213              	.LCFI2:
 214              		.cfi_remember_state
 215              		.cfi_def_cfa_offset 16
 216              		@ sp needed
 217 002a 70BD     		pop	{r4, r5, r6, pc}
 218              	.LVL14:
 219              	.L16:
 220              	.LCFI3:
 221              		.cfi_restore_state
  78:C:/Users/²Ü¼ÒºÀ/.iotlink/sdk/IoT_LINK/iot_link/network/lwm2m/wakaama_lwm2m/wakaama-master/examples/shared\commandline.c ****     }
 222              		.loc 1 78 9 is_stmt 1 view .LVU45
 223 002c 1434     		adds	r4, r4, #20
 224 002e EBE7     		b	.L14
 225              		.cfi_endproc
 226              	.LFE22:
 228              		.section	.rodata.handle_command.str1.1,"aMS",%progbits,1
 229              	.LC1:
 230 0000 68656C70 		.ascii	"help\000"
 230      00
 231              	.LC2:
 232 0005 68656C70 		.ascii	"help\011Type 'help [COMMAND]' for more details on a"
 232      09547970 
 232      65202768 
 232      656C7020 
 232      5B434F4D 
 233 0035 20636F6D 		.ascii	" command.\015\012\000"
 233      6D616E64 
 233      2E0D0A00 
 234              	.LC3:
 235 0041 25730925 		.ascii	"%s\011%s\015\012\000"
 235      730D0A00 
 236              	.LC4:
 237 0049 25730D0A 		.ascii	"%s\015\012\000"
 237      00
 238              	.LC5:
 239 004e 556E6B6E 		.ascii	"Unknown command. Type 'help' for help.\015\012\000"
ARM GAS  C:\Users\²Ü¼ÒºÀ\AppData\Local\Temp\ccEEsnMs.s 			page 15


 239      6F776E20 
 239      636F6D6D 
 239      616E642E 
 239      20547970 
 240              		.section	.text.handle_command,"ax",%progbits
 241              		.align	1
 242              		.global	handle_command
 243              		.syntax unified
 244              		.thumb
 245              		.thumb_func
 246              		.fpu fpv4-sp-d16
 248              	handle_command:
 249              	.LVL15:
 250              	.LFB6:
 124:C:/Users/²Ü¼ÒºÀ/.iotlink/sdk/IoT_LINK/iot_link/network/lwm2m/wakaama_lwm2m/wakaama-master/examples/shared\commandline.c ****     command_desc_t *cmdP;
 251              		.loc 1 124 1 view -0
 252              		.cfi_startproc
 253              		@ args = 0, pretend = 0, frame = 0
 254              		@ frame_needed = 0, uses_anonymous_args = 0
 130:C:/Users/²Ü¼ÒºÀ/.iotlink/sdk/IoT_LINK/iot_link/network/lwm2m/wakaama_lwm2m/wakaama-master/examples/shared\commandline.c ****         length++;
 255              		.loc 1 130 36 is_stmt 0 view .LVU47
 256 0000 334A     		ldr	r2, .L59
 124:C:/Users/²Ü¼ÒºÀ/.iotlink/sdk/IoT_LINK/iot_link/network/lwm2m/wakaama_lwm2m/wakaama-master/examples/shared\commandline.c ****     command_desc_t *cmdP;
 257              		.loc 1 124 1 view .LVU48
 258 0002 70B5     		push	{r4, r5, r6, lr}
 259              	.LCFI4:
 260              		.cfi_def_cfa_offset 16
 261              		.cfi_offset 4, -16
 262              		.cfi_offset 5, -12
 263              		.cfi_offset 6, -8
 264              		.cfi_offset 14, -4
 124:C:/Users/²Ü¼ÒºÀ/.iotlink/sdk/IoT_LINK/iot_link/network/lwm2m/wakaama_lwm2m/wakaama-master/examples/shared\commandline.c ****     command_desc_t *cmdP;
 265              		.loc 1 124 1 view .LVU49
 266 0004 0546     		mov	r5, r0
 125:C:/Users/²Ü¼ÒºÀ/.iotlink/sdk/IoT_LINK/iot_link/network/lwm2m/wakaama_lwm2m/wakaama-master/examples/shared\commandline.c ****     int length;
 267              		.loc 1 125 5 is_stmt 1 view .LVU50
 126:C:/Users/²Ü¼ÒºÀ/.iotlink/sdk/IoT_LINK/iot_link/network/lwm2m/wakaama_lwm2m/wakaama-master/examples/shared\commandline.c **** 
 268              		.loc 1 126 5 view .LVU51
 129:C:/Users/²Ü¼ÒºÀ/.iotlink/sdk/IoT_LINK/iot_link/network/lwm2m/wakaama_lwm2m/wakaama-master/examples/shared\commandline.c ****     while (buffer[length] != 0 && !isspace(buffer[length] & 0xFF))
 269              		.loc 1 129 5 view .LVU52
 270              	.LVL16:
 130:C:/Users/²Ü¼ÒºÀ/.iotlink/sdk/IoT_LINK/iot_link/network/lwm2m/wakaama_lwm2m/wakaama-master/examples/shared\commandline.c ****         length++;
 271              		.loc 1 130 5 view .LVU53
 124:C:/Users/²Ü¼ÒºÀ/.iotlink/sdk/IoT_LINK/iot_link/network/lwm2m/wakaama_lwm2m/wakaama-master/examples/shared\commandline.c ****     command_desc_t *cmdP;
 272              		.loc 1 124 1 is_stmt 0 view .LVU54
 273 0006 0C46     		mov	r4, r1
 129:C:/Users/²Ü¼ÒºÀ/.iotlink/sdk/IoT_LINK/iot_link/network/lwm2m/wakaama_lwm2m/wakaama-master/examples/shared\commandline.c ****     while (buffer[length] != 0 && !isspace(buffer[length] & 0xFF))
 274              		.loc 1 129 12 view .LVU55
 275 0008 0026     		movs	r6, #0
 276              	.LVL17:
 277              	.L21:
 130:C:/Users/²Ü¼ÒºÀ/.iotlink/sdk/IoT_LINK/iot_link/network/lwm2m/wakaama_lwm2m/wakaama-master/examples/shared\commandline.c ****         length++;
 278              		.loc 1 130 11 is_stmt 1 view .LVU56
 130:C:/Users/²Ü¼ÒºÀ/.iotlink/sdk/IoT_LINK/iot_link/network/lwm2m/wakaama_lwm2m/wakaama-master/examples/shared\commandline.c ****         length++;
 279              		.loc 1 130 18 is_stmt 0 view .LVU57
 280 000a A35D     		ldrb	r3, [r4, r6]	@ zero_extendqisi2
 130:C:/Users/²Ü¼ÒºÀ/.iotlink/sdk/IoT_LINK/iot_link/network/lwm2m/wakaama_lwm2m/wakaama-master/examples/shared\commandline.c ****         length++;
ARM GAS  C:\Users\²Ü¼ÒºÀ\AppData\Local\Temp\ccEEsnMs.s 			page 16


 281              		.loc 1 130 11 view .LVU58
 282 000c 13B1     		cbz	r3, .L22
 130:C:/Users/²Ü¼ÒºÀ/.iotlink/sdk/IoT_LINK/iot_link/network/lwm2m/wakaama_lwm2m/wakaama-master/examples/shared\commandline.c ****         length++;
 283              		.loc 1 130 32 discriminator 1 view .LVU59
 284 000e 9B5C     		ldrb	r3, [r3, r2]	@ zero_extendqisi2
 285 0010 1907     		lsls	r1, r3, #28
 286 0012 15D5     		bpl	.L23
 287              	.L22:
 133:C:/Users/²Ü¼ÒºÀ/.iotlink/sdk/IoT_LINK/iot_link/network/lwm2m/wakaama_lwm2m/wakaama-master/examples/shared\commandline.c ****     if (cmdP != NULL)
 288              		.loc 1 133 5 is_stmt 1 view .LVU60
 289              	.LVL18:
 290              	.LBB24:
 291              	.LBI24:
  66:C:/Users/²Ü¼ÒºÀ/.iotlink/sdk/IoT_LINK/iot_link/network/lwm2m/wakaama_lwm2m/wakaama-master/examples/shared\commandline.c ****                                         char *buffer,
 292              		.loc 1 66 24 view .LVU61
 293              	.LBB25:
  70:C:/Users/²Ü¼ÒºÀ/.iotlink/sdk/IoT_LINK/iot_link/network/lwm2m/wakaama_lwm2m/wakaama-master/examples/shared\commandline.c **** 
 294              		.loc 1 70 5 view .LVU62
  72:C:/Users/²Ü¼ÒºÀ/.iotlink/sdk/IoT_LINK/iot_link/network/lwm2m/wakaama_lwm2m/wakaama-master/examples/shared\commandline.c **** 
 295              		.loc 1 72 5 view .LVU63
  72:C:/Users/²Ü¼ÒºÀ/.iotlink/sdk/IoT_LINK/iot_link/network/lwm2m/wakaama_lwm2m/wakaama-master/examples/shared\commandline.c **** 
 296              		.loc 1 72 8 is_stmt 0 view .LVU64
 297 0014 EEB1     		cbz	r6, .L24
 298 0016 3246     		mov	r2, r6
 299 0018 2146     		mov	r1, r4
 300 001a 2846     		mov	r0, r5
 301              	.LVL19:
  72:C:/Users/²Ü¼ÒºÀ/.iotlink/sdk/IoT_LINK/iot_link/network/lwm2m/wakaama_lwm2m/wakaama-master/examples/shared\commandline.c **** 
 302              		.loc 1 72 8 view .LVU65
 303 001c FFF7FEFF 		bl	prv_find_command.part.0
 304              	.LVL20:
  72:C:/Users/²Ü¼ÒºÀ/.iotlink/sdk/IoT_LINK/iot_link/network/lwm2m/wakaama_lwm2m/wakaama-master/examples/shared\commandline.c **** 
 305              		.loc 1 72 8 view .LVU66
 306              	.LBE25:
 307              	.LBE24:
 134:C:/Users/²Ü¼ÒºÀ/.iotlink/sdk/IoT_LINK/iot_link/network/lwm2m/wakaama_lwm2m/wakaama-master/examples/shared\commandline.c ****     {
 308              		.loc 1 134 5 is_stmt 1 view .LVU67
 134:C:/Users/²Ü¼ÒºÀ/.iotlink/sdk/IoT_LINK/iot_link/network/lwm2m/wakaama_lwm2m/wakaama-master/examples/shared\commandline.c ****     {
 309              		.loc 1 134 8 is_stmt 0 view .LVU68
 310 0020 0346     		mov	r3, r0
 311 0022 78B1     		cbz	r0, .L25
 136:C:/Users/²Ü¼ÒºÀ/.iotlink/sdk/IoT_LINK/iot_link/network/lwm2m/wakaama_lwm2m/wakaama-master/examples/shared\commandline.c ****             length++;
 312              		.loc 1 136 39 view .LVU69
 313 0024 2A49     		ldr	r1, .L59
 314 0026 3444     		add	r4, r4, r6
 315              	.LVL21:
 316              	.L27:
 136:C:/Users/²Ü¼ÒºÀ/.iotlink/sdk/IoT_LINK/iot_link/network/lwm2m/wakaama_lwm2m/wakaama-master/examples/shared\commandline.c ****             length++;
 317              		.loc 1 136 15 is_stmt 1 view .LVU70
 136:C:/Users/²Ü¼ÒºÀ/.iotlink/sdk/IoT_LINK/iot_link/network/lwm2m/wakaama_lwm2m/wakaama-master/examples/shared\commandline.c ****             length++;
 318              		.loc 1 136 22 is_stmt 0 view .LVU71
 319 0028 2046     		mov	r0, r4
 320 002a 14F8012B 		ldrb	r2, [r4], #1	@ zero_extendqisi2
 321              	.LVL22:
 136:C:/Users/²Ü¼ÒºÀ/.iotlink/sdk/IoT_LINK/iot_link/network/lwm2m/wakaama_lwm2m/wakaama-master/examples/shared\commandline.c ****             length++;
 322              		.loc 1 136 15 view .LVU72
 323 002e 12B1     		cbz	r2, .L26
ARM GAS  C:\Users\²Ü¼ÒºÀ\AppData\Local\Temp\ccEEsnMs.s 			page 17


 136:C:/Users/²Ü¼ÒºÀ/.iotlink/sdk/IoT_LINK/iot_link/network/lwm2m/wakaama_lwm2m/wakaama-master/examples/shared\commandline.c ****             length++;
 324              		.loc 1 136 36 discriminator 1 view .LVU73
 325 0030 525C     		ldrb	r2, [r2, r1]	@ zero_extendqisi2
 326 0032 1207     		lsls	r2, r2, #28
 327 0034 F8D4     		bmi	.L27
 328              	.L26:
 138:C:/Users/²Ü¼ÒºÀ/.iotlink/sdk/IoT_LINK/iot_link/network/lwm2m/wakaama_lwm2m/wakaama-master/examples/shared\commandline.c ****     }
 329              		.loc 1 138 9 is_stmt 1 view .LVU74
 153:C:/Users/²Ü¼ÒºÀ/.iotlink/sdk/IoT_LINK/iot_link/network/lwm2m/wakaama_lwm2m/wakaama-master/examples/shared\commandline.c **** 
 330              		.loc 1 153 1 is_stmt 0 view .LVU75
 331 0036 BDE87040 		pop	{r4, r5, r6, lr}
 332              	.LCFI5:
 333              		.cfi_remember_state
 334              		.cfi_restore 14
 335              		.cfi_restore 6
 336              		.cfi_restore 5
 337              		.cfi_restore 4
 338              		.cfi_def_cfa_offset 0
 339              	.LVL23:
 138:C:/Users/²Ü¼ÒºÀ/.iotlink/sdk/IoT_LINK/iot_link/network/lwm2m/wakaama_lwm2m/wakaama-master/examples/shared\commandline.c ****     }
 340              		.loc 1 138 9 view .LVU76
 341 003a D3E90321 		ldrd	r2, r1, [r3, #12]
 342 003e 1047     		bx	r2	@ indirect register sibling call
 343              	.LVL24:
 344              	.L23:
 345              	.LCFI6:
 346              		.cfi_restore_state
 131:C:/Users/²Ü¼ÒºÀ/.iotlink/sdk/IoT_LINK/iot_link/network/lwm2m/wakaama_lwm2m/wakaama-master/examples/shared\commandline.c **** 
 347              		.loc 1 131 9 is_stmt 1 view .LVU77
 131:C:/Users/²Ü¼ÒºÀ/.iotlink/sdk/IoT_LINK/iot_link/network/lwm2m/wakaama_lwm2m/wakaama-master/examples/shared\commandline.c **** 
 348              		.loc 1 131 15 is_stmt 0 view .LVU78
 349 0040 0136     		adds	r6, r6, #1
 350              	.LVL25:
 131:C:/Users/²Ü¼ÒºÀ/.iotlink/sdk/IoT_LINK/iot_link/network/lwm2m/wakaama_lwm2m/wakaama-master/examples/shared\commandline.c **** 
 351              		.loc 1 131 15 view .LVU79
 352 0042 E2E7     		b	.L21
 353              	.LVL26:
 354              	.L25:
 142:C:/Users/²Ü¼ÒºÀ/.iotlink/sdk/IoT_LINK/iot_link/network/lwm2m/wakaama_lwm2m/wakaama-master/examples/shared\commandline.c ****         {
 355              		.loc 1 142 9 is_stmt 1 view .LVU80
 142:C:/Users/²Ü¼ÒºÀ/.iotlink/sdk/IoT_LINK/iot_link/network/lwm2m/wakaama_lwm2m/wakaama-master/examples/shared\commandline.c ****         {
 356              		.loc 1 142 14 is_stmt 0 view .LVU81
 357 0044 2349     		ldr	r1, .L59+4
 358 0046 3246     		mov	r2, r6
 359 0048 2046     		mov	r0, r4
 360 004a FFF7FEFF 		bl	strncmp
 361              	.LVL27:
 142:C:/Users/²Ü¼ÒºÀ/.iotlink/sdk/IoT_LINK/iot_link/network/lwm2m/wakaama_lwm2m/wakaama-master/examples/shared\commandline.c ****         {
 362              		.loc 1 142 12 view .LVU82
 363 004e 0028     		cmp	r0, #0
 364 0050 35D1     		bne	.L28
 365              	.L24:
 144:C:/Users/²Ü¼ÒºÀ/.iotlink/sdk/IoT_LINK/iot_link/network/lwm2m/wakaama_lwm2m/wakaama-master/examples/shared\commandline.c ****                 length++;
 366              		.loc 1 144 43 view .LVU83
 367 0052 1F4B     		ldr	r3, .L59
 368 0054 3444     		add	r4, r4, r6
 369              	.LVL28:
ARM GAS  C:\Users\²Ü¼ÒºÀ\AppData\Local\Temp\ccEEsnMs.s 			page 18


 370              	.L30:
 144:C:/Users/²Ü¼ÒºÀ/.iotlink/sdk/IoT_LINK/iot_link/network/lwm2m/wakaama_lwm2m/wakaama-master/examples/shared\commandline.c ****                 length++;
 371              		.loc 1 144 19 is_stmt 1 view .LVU84
 144:C:/Users/²Ü¼ÒºÀ/.iotlink/sdk/IoT_LINK/iot_link/network/lwm2m/wakaama_lwm2m/wakaama-master/examples/shared\commandline.c ****                 length++;
 372              		.loc 1 144 26 is_stmt 0 view .LVU85
 373 0056 2278     		ldrb	r2, [r4]	@ zero_extendqisi2
 374 0058 2146     		mov	r1, r4
 375 005a 0134     		adds	r4, r4, #1
 376              	.LVL29:
 144:C:/Users/²Ü¼ÒºÀ/.iotlink/sdk/IoT_LINK/iot_link/network/lwm2m/wakaama_lwm2m/wakaama-master/examples/shared\commandline.c ****                 length++;
 377              		.loc 1 144 19 view .LVU86
 378 005c 1AB1     		cbz	r2, .L29
 144:C:/Users/²Ü¼ÒºÀ/.iotlink/sdk/IoT_LINK/iot_link/network/lwm2m/wakaama_lwm2m/wakaama-master/examples/shared\commandline.c ****                 length++;
 379              		.loc 1 144 40 discriminator 1 view .LVU87
 380 005e D25C     		ldrb	r2, [r2, r3]	@ zero_extendqisi2
 381 0060 12F00802 		ands	r2, r2, #8
 382 0064 F7D1     		bne	.L30
 383              	.L29:
 384              	.LBB26:
 385              	.LBB27:
  99:C:/Users/²Ü¼ÒºÀ/.iotlink/sdk/IoT_LINK/iot_link/network/lwm2m/wakaama_lwm2m/wakaama-master/examples/shared\commandline.c ****         length++;
 386              		.loc 1 99 36 view .LVU88
 387 0066 1A48     		ldr	r0, .L59
 388 0068 00E0     		b	.L31
 389              	.LVL30:
 390              	.L33:
 100:C:/Users/²Ü¼ÒºÀ/.iotlink/sdk/IoT_LINK/iot_link/network/lwm2m/wakaama_lwm2m/wakaama-master/examples/shared\commandline.c **** 
 391              		.loc 1 100 9 is_stmt 1 view .LVU89
 100:C:/Users/²Ü¼ÒºÀ/.iotlink/sdk/IoT_LINK/iot_link/network/lwm2m/wakaama_lwm2m/wakaama-master/examples/shared\commandline.c **** 
 392              		.loc 1 100 15 is_stmt 0 view .LVU90
 393 006a 0132     		adds	r2, r2, #1
 394              	.LVL31:
 395              	.L31:
  99:C:/Users/²Ü¼ÒºÀ/.iotlink/sdk/IoT_LINK/iot_link/network/lwm2m/wakaama_lwm2m/wakaama-master/examples/shared\commandline.c ****         length++;
 396              		.loc 1 99 11 is_stmt 1 view .LVU91
  99:C:/Users/²Ü¼ÒºÀ/.iotlink/sdk/IoT_LINK/iot_link/network/lwm2m/wakaama_lwm2m/wakaama-master/examples/shared\commandline.c ****         length++;
 397              		.loc 1 99 18 is_stmt 0 view .LVU92
 398 006c 8B5C     		ldrb	r3, [r1, r2]	@ zero_extendqisi2
  99:C:/Users/²Ü¼ÒºÀ/.iotlink/sdk/IoT_LINK/iot_link/network/lwm2m/wakaama_lwm2m/wakaama-master/examples/shared\commandline.c ****         length++;
 399              		.loc 1 99 11 view .LVU93
 400 006e 13B1     		cbz	r3, .L32
  99:C:/Users/²Ü¼ÒºÀ/.iotlink/sdk/IoT_LINK/iot_link/network/lwm2m/wakaama_lwm2m/wakaama-master/examples/shared\commandline.c ****         length++;
 401              		.loc 1 99 32 view .LVU94
 402 0070 1B5C     		ldrb	r3, [r3, r0]	@ zero_extendqisi2
 403 0072 1B07     		lsls	r3, r3, #28
 404 0074 F9D5     		bpl	.L33
 405              	.L32:
 102:C:/Users/²Ü¼ÒºÀ/.iotlink/sdk/IoT_LINK/iot_link/network/lwm2m/wakaama_lwm2m/wakaama-master/examples/shared\commandline.c **** 
 406              		.loc 1 102 5 is_stmt 1 view .LVU95
 407              	.LVL32:
 408              	.LBB28:
 409              	.LBI28:
  66:C:/Users/²Ü¼ÒºÀ/.iotlink/sdk/IoT_LINK/iot_link/network/lwm2m/wakaama_lwm2m/wakaama-master/examples/shared\commandline.c ****                                         char *buffer,
 410              		.loc 1 66 24 view .LVU96
 411              	.LBB29:
  70:C:/Users/²Ü¼ÒºÀ/.iotlink/sdk/IoT_LINK/iot_link/network/lwm2m/wakaama_lwm2m/wakaama-master/examples/shared\commandline.c **** 
 412              		.loc 1 70 5 view .LVU97
ARM GAS  C:\Users\²Ü¼ÒºÀ\AppData\Local\Temp\ccEEsnMs.s 			page 19


  72:C:/Users/²Ü¼ÒºÀ/.iotlink/sdk/IoT_LINK/iot_link/network/lwm2m/wakaama_lwm2m/wakaama-master/examples/shared\commandline.c **** 
 413              		.loc 1 72 5 view .LVU98
 414 0076 184E     		ldr	r6, .L59+8
 415 0078 3368     		ldr	r3, [r6]
 416 007a 9C68     		ldr	r4, [r3, #8]
  72:C:/Users/²Ü¼ÒºÀ/.iotlink/sdk/IoT_LINK/iot_link/network/lwm2m/wakaama_lwm2m/wakaama-master/examples/shared\commandline.c **** 
 417              		.loc 1 72 8 is_stmt 0 view .LVU99
 418 007c 1AB1     		cbz	r2, .L34
 419 007e 2846     		mov	r0, r5
 420 0080 FFF7FEFF 		bl	prv_find_command.part.0
 421              	.LVL33:
  72:C:/Users/²Ü¼ÒºÀ/.iotlink/sdk/IoT_LINK/iot_link/network/lwm2m/wakaama_lwm2m/wakaama-master/examples/shared\commandline.c **** 
 422              		.loc 1 72 8 view .LVU100
 423              	.LBE29:
 424              	.LBE28:
 104:C:/Users/²Ü¼ÒºÀ/.iotlink/sdk/IoT_LINK/iot_link/network/lwm2m/wakaama_lwm2m/wakaama-master/examples/shared\commandline.c ****     {
 425              		.loc 1 104 5 is_stmt 1 view .LVU101
 104:C:/Users/²Ü¼ÒºÀ/.iotlink/sdk/IoT_LINK/iot_link/network/lwm2m/wakaama_lwm2m/wakaama-master/examples/shared\commandline.c ****     {
 426              		.loc 1 104 8 is_stmt 0 view .LVU102
 427 0084 90B9     		cbnz	r0, .L35
 428              	.LVL34:
 429              	.L34:
 430              	.LBB30:
 106:C:/Users/²Ü¼ÒºÀ/.iotlink/sdk/IoT_LINK/iot_link/network/lwm2m/wakaama_lwm2m/wakaama-master/examples/shared\commandline.c **** 
 431              		.loc 1 106 9 is_stmt 1 view .LVU103
 108:C:/Users/²Ü¼ÒºÀ/.iotlink/sdk/IoT_LINK/iot_link/network/lwm2m/wakaama_lwm2m/wakaama-master/examples/shared\commandline.c **** 
 432              		.loc 1 108 9 view .LVU104
 433 0086 2146     		mov	r1, r4
 434 0088 1448     		ldr	r0, .L59+12
 435 008a FFF7FEFF 		bl	fputs
 436              	.LVL35:
 110:C:/Users/²Ü¼ÒºÀ/.iotlink/sdk/IoT_LINK/iot_link/network/lwm2m/wakaama_lwm2m/wakaama-master/examples/shared\commandline.c ****         {
 437              		.loc 1 110 9 view .LVU105
 110:C:/Users/²Ü¼ÒºÀ/.iotlink/sdk/IoT_LINK/iot_link/network/lwm2m/wakaama_lwm2m/wakaama-master/examples/shared\commandline.c ****         {
 438              		.loc 1 110 9 is_stmt 0 view .LVU106
 439 008e 2C1D     		adds	r4, r5, #4
 112:C:/Users/²Ü¼ÒºÀ/.iotlink/sdk/IoT_LINK/iot_link/network/lwm2m/wakaama_lwm2m/wakaama-master/examples/shared\commandline.c ****         }
 440              		.loc 1 112 13 view .LVU107
 441 0090 134D     		ldr	r5, .L59+16
 442              	.LVL36:
 443              	.L36:
 110:C:/Users/²Ü¼ÒºÀ/.iotlink/sdk/IoT_LINK/iot_link/network/lwm2m/wakaama_lwm2m/wakaama-master/examples/shared\commandline.c ****         {
 444              		.loc 1 110 22 is_stmt 1 view .LVU108
 110:C:/Users/²Ü¼ÒºÀ/.iotlink/sdk/IoT_LINK/iot_link/network/lwm2m/wakaama_lwm2m/wakaama-master/examples/shared\commandline.c ****         {
 445              		.loc 1 110 37 is_stmt 0 view .LVU109
 446 0092 54F8042C 		ldr	r2, [r4, #-4]
 447 0096 1434     		adds	r4, r4, #20
 110:C:/Users/²Ü¼ÒºÀ/.iotlink/sdk/IoT_LINK/iot_link/network/lwm2m/wakaama_lwm2m/wakaama-master/examples/shared\commandline.c ****         {
 448              		.loc 1 110 9 view .LVU110
 449 0098 02B9     		cbnz	r2, .L37
 450              	.LBE30:
 451              	.LBE27:
 452              	.LBE26:
 153:C:/Users/²Ü¼ÒºÀ/.iotlink/sdk/IoT_LINK/iot_link/network/lwm2m/wakaama_lwm2m/wakaama-master/examples/shared\commandline.c **** 
 453              		.loc 1 153 1 view .LVU111
 454 009a 70BD     		pop	{r4, r5, r6, pc}
 455              	.L37:
ARM GAS  C:\Users\²Ü¼ÒºÀ\AppData\Local\Temp\ccEEsnMs.s 			page 20


 456              	.LBB34:
 457              	.LBB32:
 458              	.LBB31:
 112:C:/Users/²Ü¼ÒºÀ/.iotlink/sdk/IoT_LINK/iot_link/network/lwm2m/wakaama_lwm2m/wakaama-master/examples/shared\commandline.c ****         }
 459              		.loc 1 112 13 is_stmt 1 view .LVU112
 112:C:/Users/²Ü¼ÒºÀ/.iotlink/sdk/IoT_LINK/iot_link/network/lwm2m/wakaama_lwm2m/wakaama-master/examples/shared\commandline.c ****         }
 460              		.loc 1 112 21 is_stmt 0 view .LVU113
 461 009c 3068     		ldr	r0, [r6]
 112:C:/Users/²Ü¼ÒºÀ/.iotlink/sdk/IoT_LINK/iot_link/network/lwm2m/wakaama_lwm2m/wakaama-master/examples/shared\commandline.c ****         }
 462              		.loc 1 112 13 view .LVU114
 463 009e 54F8143C 		ldr	r3, [r4, #-20]
 464 00a2 8068     		ldr	r0, [r0, #8]
 465 00a4 2946     		mov	r1, r5
 466 00a6 FFF7FEFF 		bl	fprintf
 467              	.LVL37:
 110:C:/Users/²Ü¼ÒºÀ/.iotlink/sdk/IoT_LINK/iot_link/network/lwm2m/wakaama_lwm2m/wakaama-master/examples/shared\commandline.c ****         {
 468              		.loc 1 110 53 is_stmt 1 view .LVU115
 469 00aa F2E7     		b	.L36
 470              	.LVL38:
 471              	.L35:
 110:C:/Users/²Ü¼ÒºÀ/.iotlink/sdk/IoT_LINK/iot_link/network/lwm2m/wakaama_lwm2m/wakaama-master/examples/shared\commandline.c ****         {
 472              		.loc 1 110 53 is_stmt 0 view .LVU116
 473              	.LBE31:
 117:C:/Users/²Ü¼ÒºÀ/.iotlink/sdk/IoT_LINK/iot_link/network/lwm2m/wakaama_lwm2m/wakaama-master/examples/shared\commandline.c ****     }
 474              		.loc 1 117 9 is_stmt 1 view .LVU117
 117:C:/Users/²Ü¼ÒºÀ/.iotlink/sdk/IoT_LINK/iot_link/network/lwm2m/wakaama_lwm2m/wakaama-master/examples/shared\commandline.c ****     }
 475              		.loc 1 117 39 is_stmt 0 view .LVU118
 476 00ac 8268     		ldr	r2, [r0, #8]
 117:C:/Users/²Ü¼ÒºÀ/.iotlink/sdk/IoT_LINK/iot_link/network/lwm2m/wakaama_lwm2m/wakaama-master/examples/shared\commandline.c ****     }
 477              		.loc 1 117 9 view .LVU119
 478 00ae 02B9     		cbnz	r2, .L39
 479 00b0 4268     		ldr	r2, [r0, #4]
 480              	.L39:
 481 00b2 0C49     		ldr	r1, .L59+20
 482 00b4 2046     		mov	r0, r4
 483              	.LVL39:
 117:C:/Users/²Ü¼ÒºÀ/.iotlink/sdk/IoT_LINK/iot_link/network/lwm2m/wakaama_lwm2m/wakaama-master/examples/shared\commandline.c ****     }
 484              		.loc 1 117 9 view .LVU120
 485              	.LBE32:
 486              	.LBE34:
 153:C:/Users/²Ü¼ÒºÀ/.iotlink/sdk/IoT_LINK/iot_link/network/lwm2m/wakaama_lwm2m/wakaama-master/examples/shared\commandline.c **** 
 487              		.loc 1 153 1 view .LVU121
 488 00b6 BDE87040 		pop	{r4, r5, r6, lr}
 489              	.LCFI7:
 490              		.cfi_remember_state
 491              		.cfi_restore 14
 492              		.cfi_restore 6
 493              		.cfi_restore 5
 494              		.cfi_restore 4
 495              		.cfi_def_cfa_offset 0
 496              	.LVL40:
 497              	.LBB35:
 498              	.LBB33:
 117:C:/Users/²Ü¼ÒºÀ/.iotlink/sdk/IoT_LINK/iot_link/network/lwm2m/wakaama_lwm2m/wakaama-master/examples/shared\commandline.c ****     }
 499              		.loc 1 117 9 view .LVU122
 500 00ba FFF7FEBF 		b	fprintf
 501              	.LVL41:
ARM GAS  C:\Users\²Ü¼ÒºÀ\AppData\Local\Temp\ccEEsnMs.s 			page 21


 502              	.L28:
 503              	.LCFI8:
 504              		.cfi_restore_state
 117:C:/Users/²Ü¼ÒºÀ/.iotlink/sdk/IoT_LINK/iot_link/network/lwm2m/wakaama_lwm2m/wakaama-master/examples/shared\commandline.c ****     }
 505              		.loc 1 117 9 view .LVU123
 506              	.LBE33:
 507              	.LBE35:
 150:C:/Users/²Ü¼ÒºÀ/.iotlink/sdk/IoT_LINK/iot_link/network/lwm2m/wakaama_lwm2m/wakaama-master/examples/shared\commandline.c ****         }
 508              		.loc 1 150 13 is_stmt 1 view .LVU124
 509 00be 064B     		ldr	r3, .L59+8
 510 00c0 0948     		ldr	r0, .L59+24
 511 00c2 1B68     		ldr	r3, [r3]
 153:C:/Users/²Ü¼ÒºÀ/.iotlink/sdk/IoT_LINK/iot_link/network/lwm2m/wakaama_lwm2m/wakaama-master/examples/shared\commandline.c **** 
 512              		.loc 1 153 1 is_stmt 0 view .LVU125
 513 00c4 BDE87040 		pop	{r4, r5, r6, lr}
 514              	.LCFI9:
 515              		.cfi_restore 14
 516              		.cfi_restore 6
 517              		.cfi_restore 5
 518              		.cfi_restore 4
 519              		.cfi_def_cfa_offset 0
 520              	.LVL42:
 150:C:/Users/²Ü¼ÒºÀ/.iotlink/sdk/IoT_LINK/iot_link/network/lwm2m/wakaama_lwm2m/wakaama-master/examples/shared\commandline.c ****         }
 521              		.loc 1 150 13 view .LVU126
 522 00c8 9968     		ldr	r1, [r3, #8]
 523 00ca FFF7FEBF 		b	fputs
 524              	.LVL43:
 525              	.L60:
 526 00ce 00BF     		.align	2
 527              	.L59:
 528 00d0 01000000 		.word	_ctype_+1
 529 00d4 00000000 		.word	.LC1
 530 00d8 00000000 		.word	_impure_ptr
 531 00dc 05000000 		.word	.LC2
 532 00e0 41000000 		.word	.LC3
 533 00e4 49000000 		.word	.LC4
 534 00e8 4E000000 		.word	.LC5
 535              		.cfi_endproc
 536              	.LFE6:
 538              		.section	.text.get_end_of_arg,"ax",%progbits
 539              		.align	1
 540              		.global	get_end_of_arg
 541              		.syntax unified
 542              		.thumb
 543              		.thumb_func
 544              		.fpu fpv4-sp-d16
 546              	get_end_of_arg:
 547              	.LVL44:
 548              	.LFB8:
 165:C:/Users/²Ü¼ÒºÀ/.iotlink/sdk/IoT_LINK/iot_link/network/lwm2m/wakaama_lwm2m/wakaama-master/examples/shared\commandline.c ****     while (buffer[0] != 0 && !isspace(buffer[0] & 0xFF))
 549              		.loc 1 165 1 is_stmt 1 view -0
 550              		.cfi_startproc
 551              		@ args = 0, pretend = 0, frame = 0
 552              		@ frame_needed = 0, uses_anonymous_args = 0
 553              		@ link register save eliminated.
 166:C:/Users/²Ü¼ÒºÀ/.iotlink/sdk/IoT_LINK/iot_link/network/lwm2m/wakaama_lwm2m/wakaama-master/examples/shared\commandline.c ****     {
 554              		.loc 1 166 5 view .LVU128
ARM GAS  C:\Users\²Ü¼ÒºÀ\AppData\Local\Temp\ccEEsnMs.s 			page 22


 166:C:/Users/²Ü¼ÒºÀ/.iotlink/sdk/IoT_LINK/iot_link/network/lwm2m/wakaama_lwm2m/wakaama-master/examples/shared\commandline.c ****     {
 555              		.loc 1 166 31 is_stmt 0 view .LVU129
 556 0000 0449     		ldr	r1, .L67
 165:C:/Users/²Ü¼ÒºÀ/.iotlink/sdk/IoT_LINK/iot_link/network/lwm2m/wakaama_lwm2m/wakaama-master/examples/shared\commandline.c ****     while (buffer[0] != 0 && !isspace(buffer[0] & 0xFF))
 557              		.loc 1 165 1 view .LVU130
 558 0002 0346     		mov	r3, r0
 559              	.L63:
 560              	.LVL45:
 165:C:/Users/²Ü¼ÒºÀ/.iotlink/sdk/IoT_LINK/iot_link/network/lwm2m/wakaama_lwm2m/wakaama-master/examples/shared\commandline.c ****     while (buffer[0] != 0 && !isspace(buffer[0] & 0xFF))
 561              		.loc 1 165 1 view .LVU131
 562 0004 1846     		mov	r0, r3
 563              	.LVL46:
 166:C:/Users/²Ü¼ÒºÀ/.iotlink/sdk/IoT_LINK/iot_link/network/lwm2m/wakaama_lwm2m/wakaama-master/examples/shared\commandline.c ****     {
 564              		.loc 1 166 11 is_stmt 1 view .LVU132
 166:C:/Users/²Ü¼ÒºÀ/.iotlink/sdk/IoT_LINK/iot_link/network/lwm2m/wakaama_lwm2m/wakaama-master/examples/shared\commandline.c ****     {
 565              		.loc 1 166 18 is_stmt 0 view .LVU133
 566 0006 13F8012B 		ldrb	r2, [r3], #1	@ zero_extendqisi2
 166:C:/Users/²Ü¼ÒºÀ/.iotlink/sdk/IoT_LINK/iot_link/network/lwm2m/wakaama_lwm2m/wakaama-master/examples/shared\commandline.c ****     {
 567              		.loc 1 166 11 view .LVU134
 568 000a 12B1     		cbz	r2, .L61
 166:C:/Users/²Ü¼ÒºÀ/.iotlink/sdk/IoT_LINK/iot_link/network/lwm2m/wakaama_lwm2m/wakaama-master/examples/shared\commandline.c ****     {
 569              		.loc 1 166 27 discriminator 1 view .LVU135
 570 000c 525C     		ldrb	r2, [r2, r1]	@ zero_extendqisi2
 571 000e 1207     		lsls	r2, r2, #28
 572 0010 F8D5     		bpl	.L63
 573              	.L61:
 171:C:/Users/²Ü¼ÒºÀ/.iotlink/sdk/IoT_LINK/iot_link/network/lwm2m/wakaama_lwm2m/wakaama-master/examples/shared\commandline.c **** 
 574              		.loc 1 171 1 view .LVU136
 575 0012 7047     		bx	lr
 576              	.L68:
 577              		.align	2
 578              	.L67:
 579 0014 01000000 		.word	_ctype_+1
 580              		.cfi_endproc
 581              	.LFE8:
 583              		.section	.text.get_next_arg,"ax",%progbits
 584              		.align	1
 585              		.global	get_next_arg
 586              		.syntax unified
 587              		.thumb
 588              		.thumb_func
 589              		.fpu fpv4-sp-d16
 591              	get_next_arg:
 592              	.LVL47:
 593              	.LFB9:
 174:C:/Users/²Ü¼ÒºÀ/.iotlink/sdk/IoT_LINK/iot_link/network/lwm2m/wakaama_lwm2m/wakaama-master/examples/shared\commandline.c ****     // skip arg
 594              		.loc 1 174 1 is_stmt 1 view -0
 595              		.cfi_startproc
 596              		@ args = 0, pretend = 0, frame = 0
 597              		@ frame_needed = 0, uses_anonymous_args = 0
 176:C:/Users/²Ü¼ÒºÀ/.iotlink/sdk/IoT_LINK/iot_link/network/lwm2m/wakaama_lwm2m/wakaama-master/examples/shared\commandline.c ****     // skip space
 598              		.loc 1 176 5 view .LVU138
 174:C:/Users/²Ü¼ÒºÀ/.iotlink/sdk/IoT_LINK/iot_link/network/lwm2m/wakaama_lwm2m/wakaama-master/examples/shared\commandline.c ****     // skip arg
 599              		.loc 1 174 1 is_stmt 0 view .LVU139
 600 0000 38B5     		push	{r3, r4, r5, lr}
 601              	.LCFI10:
 602              		.cfi_def_cfa_offset 16
ARM GAS  C:\Users\²Ü¼ÒºÀ\AppData\Local\Temp\ccEEsnMs.s 			page 23


 603              		.cfi_offset 3, -16
 604              		.cfi_offset 4, -12
 605              		.cfi_offset 5, -8
 606              		.cfi_offset 14, -4
 174:C:/Users/²Ü¼ÒºÀ/.iotlink/sdk/IoT_LINK/iot_link/network/lwm2m/wakaama_lwm2m/wakaama-master/examples/shared\commandline.c ****     // skip arg
 607              		.loc 1 174 1 view .LVU140
 608 0002 0C46     		mov	r4, r1
 176:C:/Users/²Ü¼ÒºÀ/.iotlink/sdk/IoT_LINK/iot_link/network/lwm2m/wakaama_lwm2m/wakaama-master/examples/shared\commandline.c ****     // skip space
 609              		.loc 1 176 14 view .LVU141
 610 0004 FFF7FEFF 		bl	get_end_of_arg
 611              	.LVL48:
 178:C:/Users/²Ü¼ÒºÀ/.iotlink/sdk/IoT_LINK/iot_link/network/lwm2m/wakaama_lwm2m/wakaama-master/examples/shared\commandline.c ****     if (NULL != end)
 612              		.loc 1 178 5 is_stmt 1 view .LVU142
 613              	.LBB38:
 614              	.LBI38:
 155:C:/Users/²Ü¼ÒºÀ/.iotlink/sdk/IoT_LINK/iot_link/network/lwm2m/wakaama_lwm2m/wakaama-master/examples/shared\commandline.c **** {
 615              		.loc 1 155 14 view .LVU143
 616              	.LBB39:
 157:C:/Users/²Ü¼ÒºÀ/.iotlink/sdk/IoT_LINK/iot_link/network/lwm2m/wakaama_lwm2m/wakaama-master/examples/shared\commandline.c ****     {
 617              		.loc 1 157 5 view .LVU144
 157:C:/Users/²Ü¼ÒºÀ/.iotlink/sdk/IoT_LINK/iot_link/network/lwm2m/wakaama_lwm2m/wakaama-master/examples/shared\commandline.c ****     {
 618              		.loc 1 157 12 is_stmt 0 view .LVU145
 619 0008 064A     		ldr	r2, .L76
 620              	.L70:
 621 000a 0546     		mov	r5, r0
 622              	.LVL49:
 157:C:/Users/²Ü¼ÒºÀ/.iotlink/sdk/IoT_LINK/iot_link/network/lwm2m/wakaama_lwm2m/wakaama-master/examples/shared\commandline.c ****     {
 623              		.loc 1 157 11 is_stmt 1 view .LVU146
 157:C:/Users/²Ü¼ÒºÀ/.iotlink/sdk/IoT_LINK/iot_link/network/lwm2m/wakaama_lwm2m/wakaama-master/examples/shared\commandline.c ****     {
 624              		.loc 1 157 12 is_stmt 0 view .LVU147
 625 000c 10F8013B 		ldrb	r3, [r0], #1	@ zero_extendqisi2
 626              	.LVL50:
 157:C:/Users/²Ü¼ÒºÀ/.iotlink/sdk/IoT_LINK/iot_link/network/lwm2m/wakaama_lwm2m/wakaama-master/examples/shared\commandline.c ****     {
 627              		.loc 1 157 11 view .LVU148
 628 0010 9B5C     		ldrb	r3, [r3, r2]	@ zero_extendqisi2
 629 0012 1B07     		lsls	r3, r3, #28
 630 0014 F9D4     		bmi	.L70
 161:C:/Users/²Ü¼ÒºÀ/.iotlink/sdk/IoT_LINK/iot_link/network/lwm2m/wakaama_lwm2m/wakaama-master/examples/shared\commandline.c **** }
 631              		.loc 1 161 5 is_stmt 1 view .LVU149
 632              	.LVL51:
 161:C:/Users/²Ü¼ÒºÀ/.iotlink/sdk/IoT_LINK/iot_link/network/lwm2m/wakaama_lwm2m/wakaama-master/examples/shared\commandline.c **** }
 633              		.loc 1 161 5 is_stmt 0 view .LVU150
 634              	.LBE39:
 635              	.LBE38:
 179:C:/Users/²Ü¼ÒºÀ/.iotlink/sdk/IoT_LINK/iot_link/network/lwm2m/wakaama_lwm2m/wakaama-master/examples/shared\commandline.c ****     {
 636              		.loc 1 179 5 is_stmt 1 view .LVU151
 179:C:/Users/²Ü¼ÒºÀ/.iotlink/sdk/IoT_LINK/iot_link/network/lwm2m/wakaama_lwm2m/wakaama-master/examples/shared\commandline.c ****     {
 637              		.loc 1 179 8 is_stmt 0 view .LVU152
 638 0016 1CB1     		cbz	r4, .L69
 181:C:/Users/²Ü¼ÒºÀ/.iotlink/sdk/IoT_LINK/iot_link/network/lwm2m/wakaama_lwm2m/wakaama-master/examples/shared\commandline.c ****     }
 639              		.loc 1 181 9 is_stmt 1 view .LVU153
 181:C:/Users/²Ü¼ÒºÀ/.iotlink/sdk/IoT_LINK/iot_link/network/lwm2m/wakaama_lwm2m/wakaama-master/examples/shared\commandline.c ****     }
 640              		.loc 1 181 16 is_stmt 0 view .LVU154
 641 0018 2846     		mov	r0, r5
 642 001a FFF7FEFF 		bl	get_end_of_arg
 643              	.LVL52:
 181:C:/Users/²Ü¼ÒºÀ/.iotlink/sdk/IoT_LINK/iot_link/network/lwm2m/wakaama_lwm2m/wakaama-master/examples/shared\commandline.c ****     }
ARM GAS  C:\Users\²Ü¼ÒºÀ\AppData\Local\Temp\ccEEsnMs.s 			page 24


 644              		.loc 1 181 14 view .LVU155
 645 001e 2060     		str	r0, [r4]
 184:C:/Users/²Ü¼ÒºÀ/.iotlink/sdk/IoT_LINK/iot_link/network/lwm2m/wakaama_lwm2m/wakaama-master/examples/shared\commandline.c **** }
 646              		.loc 1 184 5 is_stmt 1 view .LVU156
 647              	.L69:
 185:C:/Users/²Ü¼ÒºÀ/.iotlink/sdk/IoT_LINK/iot_link/network/lwm2m/wakaama_lwm2m/wakaama-master/examples/shared\commandline.c **** 
 648              		.loc 1 185 1 is_stmt 0 view .LVU157
 649 0020 2846     		mov	r0, r5
 650 0022 38BD     		pop	{r3, r4, r5, pc}
 651              	.LVL53:
 652              	.L77:
 185:C:/Users/²Ü¼ÒºÀ/.iotlink/sdk/IoT_LINK/iot_link/network/lwm2m/wakaama_lwm2m/wakaama-master/examples/shared\commandline.c **** 
 653              		.loc 1 185 1 view .LVU158
 654              		.align	2
 655              	.L76:
 656 0024 01000000 		.word	_ctype_+1
 657              		.cfi_endproc
 658              	.LFE9:
 660              		.section	.text.check_end_of_args,"ax",%progbits
 661              		.align	1
 662              		.global	check_end_of_args
 663              		.syntax unified
 664              		.thumb
 665              		.thumb_func
 666              		.fpu fpv4-sp-d16
 668              	check_end_of_args:
 669              	.LVL54:
 670              	.LFB10:
 188:C:/Users/²Ü¼ÒºÀ/.iotlink/sdk/IoT_LINK/iot_link/network/lwm2m/wakaama_lwm2m/wakaama-master/examples/shared\commandline.c ****     buffer = prv_end_of_space(buffer);
 671              		.loc 1 188 1 is_stmt 1 view -0
 672              		.cfi_startproc
 673              		@ args = 0, pretend = 0, frame = 0
 674              		@ frame_needed = 0, uses_anonymous_args = 0
 675              		@ link register save eliminated.
 189:C:/Users/²Ü¼ÒºÀ/.iotlink/sdk/IoT_LINK/iot_link/network/lwm2m/wakaama_lwm2m/wakaama-master/examples/shared\commandline.c **** 
 676              		.loc 1 189 5 view .LVU160
 677              	.LBB42:
 678              	.LBI42:
 155:C:/Users/²Ü¼ÒºÀ/.iotlink/sdk/IoT_LINK/iot_link/network/lwm2m/wakaama_lwm2m/wakaama-master/examples/shared\commandline.c **** {
 679              		.loc 1 155 14 view .LVU161
 680              	.LBB43:
 157:C:/Users/²Ü¼ÒºÀ/.iotlink/sdk/IoT_LINK/iot_link/network/lwm2m/wakaama_lwm2m/wakaama-master/examples/shared\commandline.c ****     {
 681              		.loc 1 157 5 view .LVU162
 157:C:/Users/²Ü¼ÒºÀ/.iotlink/sdk/IoT_LINK/iot_link/network/lwm2m/wakaama_lwm2m/wakaama-master/examples/shared\commandline.c ****     {
 682              		.loc 1 157 12 is_stmt 0 view .LVU163
 683 0000 0549     		ldr	r1, .L81
 684 0002 0138     		subs	r0, r0, #1
 685              	.LVL55:
 686              	.L79:
 157:C:/Users/²Ü¼ÒºÀ/.iotlink/sdk/IoT_LINK/iot_link/network/lwm2m/wakaama_lwm2m/wakaama-master/examples/shared\commandline.c ****     {
 687              		.loc 1 157 11 is_stmt 1 view .LVU164
 157:C:/Users/²Ü¼ÒºÀ/.iotlink/sdk/IoT_LINK/iot_link/network/lwm2m/wakaama_lwm2m/wakaama-master/examples/shared\commandline.c ****     {
 688              		.loc 1 157 12 is_stmt 0 view .LVU165
 689 0004 10F8013F 		ldrb	r3, [r0, #1]!	@ zero_extendqisi2
 690              	.LVL56:
 157:C:/Users/²Ü¼ÒºÀ/.iotlink/sdk/IoT_LINK/iot_link/network/lwm2m/wakaama_lwm2m/wakaama-master/examples/shared\commandline.c ****     {
 691              		.loc 1 157 11 view .LVU166
ARM GAS  C:\Users\²Ü¼ÒºÀ\AppData\Local\Temp\ccEEsnMs.s 			page 25


 692 0008 5A5C     		ldrb	r2, [r3, r1]	@ zero_extendqisi2
 693 000a 1207     		lsls	r2, r2, #28
 694 000c FAD4     		bmi	.L79
 161:C:/Users/²Ü¼ÒºÀ/.iotlink/sdk/IoT_LINK/iot_link/network/lwm2m/wakaama_lwm2m/wakaama-master/examples/shared\commandline.c **** }
 695              		.loc 1 161 5 is_stmt 1 view .LVU167
 696              	.LVL57:
 161:C:/Users/²Ü¼ÒºÀ/.iotlink/sdk/IoT_LINK/iot_link/network/lwm2m/wakaama_lwm2m/wakaama-master/examples/shared\commandline.c **** }
 697              		.loc 1 161 5 is_stmt 0 view .LVU168
 698              	.LBE43:
 699              	.LBE42:
 191:C:/Users/²Ü¼ÒºÀ/.iotlink/sdk/IoT_LINK/iot_link/network/lwm2m/wakaama_lwm2m/wakaama-master/examples/shared\commandline.c **** }
 700              		.loc 1 191 5 is_stmt 1 view .LVU169
 192:C:/Users/²Ü¼ÒºÀ/.iotlink/sdk/IoT_LINK/iot_link/network/lwm2m/wakaama_lwm2m/wakaama-master/examples/shared\commandline.c **** 
 701              		.loc 1 192 1 is_stmt 0 view .LVU170
 702 000e B3FA83F0 		clz	r0, r3
 703              	.LVL58:
 192:C:/Users/²Ü¼ÒºÀ/.iotlink/sdk/IoT_LINK/iot_link/network/lwm2m/wakaama_lwm2m/wakaama-master/examples/shared\commandline.c **** 
 704              		.loc 1 192 1 view .LVU171
 705 0012 4009     		lsrs	r0, r0, #5
 706 0014 7047     		bx	lr
 707              	.L82:
 708 0016 00BF     		.align	2
 709              	.L81:
 710 0018 01000000 		.word	_ctype_+1
 711              		.cfi_endproc
 712              	.LFE10:
 714              		.section	.text.output_buffer,"ax",%progbits
 715              		.align	1
 716              		.global	output_buffer
 717              		.syntax unified
 718              		.thumb
 719              		.thumb_func
 720              		.fpu fpv4-sp-d16
 722              	output_buffer:
 723              	.LVL59:
 724              	.LFB12:
 257:C:/Users/²Ü¼ÒºÀ/.iotlink/sdk/IoT_LINK/iot_link/network/lwm2m/wakaama_lwm2m/wakaama-master/examples/shared\commandline.c **** }
 725              		.loc 1 257 1 is_stmt 1 view -0
 726              		.cfi_startproc
 727              		@ args = 0, pretend = 0, frame = 0
 728              		@ frame_needed = 0, uses_anonymous_args = 0
 729              		@ link register save eliminated.
 258:C:/Users/²Ü¼ÒºÀ/.iotlink/sdk/IoT_LINK/iot_link/network/lwm2m/wakaama_lwm2m/wakaama-master/examples/shared\commandline.c **** #endif
 730              		.loc 1 258 1 view .LVU173
 731 0000 7047     		bx	lr
 732              		.cfi_endproc
 733              	.LFE12:
 735              		.section	.rodata.output_tlv.str1.1,"aMS",%progbits,1
 736              	.LC6:
 737 0000 7B0D0A00 		.ascii	"{\015\012\000"
 738              	.LC7:
 739 0004 49443A20 		.ascii	"ID: %d\000"
 739      256400
 740              	.LC8:
 741 000b 20747970 		.ascii	" type: \000"
 741      653A2000 
 742              	.LC9:
ARM GAS  C:\Users\²Ü¼ÒºÀ\AppData\Local\Temp\ccEEsnMs.s 			page 26


 743 0013 4F626A65 		.ascii	"Object Instance\000"
 743      63742049 
 743      6E737461 
 743      6E636500 
 744              	.LC10:
 745 0023 4D756C74 		.ascii	"Multiple Instances\000"
 745      69706C65 
 745      20496E73 
 745      74616E63 
 745      657300
 746              	.LC11:
 747 0036 5265736F 		.ascii	"Resource Value\000"
 747      75726365 
 747      2056616C 
 747      756500
 748              	.LC12:
 749 0045 756E6B6E 		.ascii	"unknown (%d)\000"
 749      6F776E20 
 749      28256429 
 749      00
 750              	.LC13:
 751 0052 7B0A00   		.ascii	"{\012\000"
 752              	.LC14:
 753 0055 64617461 		.ascii	"data (%d bytes):\015\012\000"
 753      20282564 
 753      20627974 
 753      6573293A 
 753      0D0A00
 754              	.LC15:
 755 0068 256C6C64 		.ascii	"%lld\000"
 755      00
 756              	.LC16:
 757 006d 64617461 		.ascii	"data as Integer: %lld\015\012\000"
 757      20617320 
 757      496E7465 
 757      6765723A 
 757      20256C6C 
 758              	.LC17:
 759 0085 256C6700 		.ascii	"%lg\000"
 760              	.LC18:
 761 0089 64617461 		.ascii	"data as Float: %.16g\015\012\000"
 761      20617320 
 761      466C6F61 
 761      743A2025 
 761      2E313667 
 762              	.LC19:
 763 00a0 7D0D0A00 		.ascii	"}\015\012\000"
 764              		.section	.text.output_tlv,"ax",%progbits
 765              		.align	1
 766              		.global	output_tlv
 767              		.syntax unified
 768              		.thumb
 769              		.thumb_func
 770              		.fpu fpv4-sp-d16
 772              	output_tlv:
 773              	.LVL60:
 774              	.LFB13:
ARM GAS  C:\Users\²Ü¼ÒºÀ\AppData\Local\Temp\ccEEsnMs.s 			page 27


 264:C:/Users/²Ü¼ÒºÀ/.iotlink/sdk/IoT_LINK/iot_link/network/lwm2m/wakaama_lwm2m/wakaama-master/examples/shared\commandline.c ****     lwm2m_data_type_t type;
 775              		.loc 1 264 1 view -0
 776              		.cfi_startproc
 777              		@ args = 0, pretend = 0, frame = 40
 778              		@ frame_needed = 0, uses_anonymous_args = 0
 265:C:/Users/²Ü¼ÒºÀ/.iotlink/sdk/IoT_LINK/iot_link/network/lwm2m/wakaama_lwm2m/wakaama-master/examples/shared\commandline.c ****     uint16_t id;
 779              		.loc 1 265 5 view .LVU175
 266:C:/Users/²Ü¼ÒºÀ/.iotlink/sdk/IoT_LINK/iot_link/network/lwm2m/wakaama_lwm2m/wakaama-master/examples/shared\commandline.c ****     size_t dataIndex;
 780              		.loc 1 266 5 view .LVU176
 267:C:/Users/²Ü¼ÒºÀ/.iotlink/sdk/IoT_LINK/iot_link/network/lwm2m/wakaama_lwm2m/wakaama-master/examples/shared\commandline.c ****     size_t dataLen;
 781              		.loc 1 267 5 view .LVU177
 268:C:/Users/²Ü¼ÒºÀ/.iotlink/sdk/IoT_LINK/iot_link/network/lwm2m/wakaama_lwm2m/wakaama-master/examples/shared\commandline.c ****     int length = 0;
 782              		.loc 1 268 5 view .LVU178
 269:C:/Users/²Ü¼ÒºÀ/.iotlink/sdk/IoT_LINK/iot_link/network/lwm2m/wakaama_lwm2m/wakaama-master/examples/shared\commandline.c ****     int result;
 783              		.loc 1 269 5 view .LVU179
 270:C:/Users/²Ü¼ÒºÀ/.iotlink/sdk/IoT_LINK/iot_link/network/lwm2m/wakaama_lwm2m/wakaama-master/examples/shared\commandline.c **** 
 784              		.loc 1 270 5 view .LVU180
 272:C:/Users/²Ü¼ÒºÀ/.iotlink/sdk/IoT_LINK/iot_link/network/lwm2m/wakaama_lwm2m/wakaama-master/examples/shared\commandline.c ****     {
 785              		.loc 1 272 5 view .LVU181
 264:C:/Users/²Ü¼ÒºÀ/.iotlink/sdk/IoT_LINK/iot_link/network/lwm2m/wakaama_lwm2m/wakaama-master/examples/shared\commandline.c ****     lwm2m_data_type_t type;
 786              		.loc 1 264 1 is_stmt 0 view .LVU182
 787 0000 2DE9F04F 		push	{r4, r5, r6, r7, r8, r9, r10, fp, lr}
 788              	.LCFI11:
 789              		.cfi_def_cfa_offset 36
 790              		.cfi_offset 4, -36
 791              		.cfi_offset 5, -32
 792              		.cfi_offset 6, -28
 793              		.cfi_offset 7, -24
 794              		.cfi_offset 8, -20
 795              		.cfi_offset 9, -16
 796              		.cfi_offset 10, -12
 797              		.cfi_offset 11, -8
 798              		.cfi_offset 14, -4
 799 0004 8DB0     		sub	sp, sp, #52
 800              	.LCFI12:
 801              		.cfi_def_cfa_offset 88
 264:C:/Users/²Ü¼ÒºÀ/.iotlink/sdk/IoT_LINK/iot_link/network/lwm2m/wakaama_lwm2m/wakaama-master/examples/shared\commandline.c ****     lwm2m_data_type_t type;
 802              		.loc 1 264 1 view .LVU183
 803 0006 0446     		mov	r4, r0
 804 0008 0D46     		mov	r5, r1
 805 000a 0392     		str	r2, [sp, #12]
 806 000c 1F46     		mov	r7, r3
 269:C:/Users/²Ü¼ÒºÀ/.iotlink/sdk/IoT_LINK/iot_link/network/lwm2m/wakaama_lwm2m/wakaama-master/examples/shared\commandline.c ****     int result;
 807              		.loc 1 269 9 view .LVU184
 808 000e 0026     		movs	r6, #0
 809              	.LVL61:
 810              	.L85:
 272:C:/Users/²Ü¼ÒºÀ/.iotlink/sdk/IoT_LINK/iot_link/network/lwm2m/wakaama_lwm2m/wakaama-master/examples/shared\commandline.c ****     {
 811              		.loc 1 272 11 is_stmt 1 view .LVU185
 272:C:/Users/²Ü¼ÒºÀ/.iotlink/sdk/IoT_LINK/iot_link/network/lwm2m/wakaama_lwm2m/wakaama-master/examples/shared\commandline.c ****     {
 812              		.loc 1 272 27 is_stmt 0 view .LVU186
 813 0010 0399     		ldr	r1, [sp, #12]
 814 0012 07AB     		add	r3, sp, #28
 815 0014 0193     		str	r3, [sp, #4]
 272:C:/Users/²Ü¼ÒºÀ/.iotlink/sdk/IoT_LINK/iot_link/network/lwm2m/wakaama_lwm2m/wakaama-master/examples/shared\commandline.c ****     {
 816              		.loc 1 272 62 view .LVU187
 817 0016 05EB060B 		add	fp, r5, r6
ARM GAS  C:\Users\²Ü¼ÒºÀ\AppData\Local\Temp\ccEEsnMs.s 			page 28


 272:C:/Users/²Ü¼ÒºÀ/.iotlink/sdk/IoT_LINK/iot_link/network/lwm2m/wakaama_lwm2m/wakaama-master/examples/shared\commandline.c ****     {
 818              		.loc 1 272 27 view .LVU188
 819 001a 06AB     		add	r3, sp, #24
 820 001c 0093     		str	r3, [sp]
 821 001e 0DF11502 		add	r2, sp, #21
 822 0022 0DF11603 		add	r3, sp, #22
 823 0026 891B     		subs	r1, r1, r6
 824 0028 5846     		mov	r0, fp
 825 002a FFF7FEFF 		bl	lwm2m_decode_TLV
 826              	.LVL62:
 272:C:/Users/²Ü¼ÒºÀ/.iotlink/sdk/IoT_LINK/iot_link/network/lwm2m/wakaama_lwm2m/wakaama-master/examples/shared\commandline.c ****     {
 827              		.loc 1 272 11 view .LVU189
 828 002e 8046     		mov	r8, r0
 829 0030 10B9     		cbnz	r0, .L94
 333:C:/Users/²Ü¼ÒºÀ/.iotlink/sdk/IoT_LINK/iot_link/network/lwm2m/wakaama_lwm2m/wakaama-master/examples/shared\commandline.c **** 
 830              		.loc 1 333 1 view .LVU190
 831 0032 0DB0     		add	sp, sp, #52
 832              	.LCFI13:
 833              		.cfi_remember_state
 834              		.cfi_def_cfa_offset 36
 835              		@ sp needed
 836 0034 BDE8F08F 		pop	{r4, r5, r6, r7, r8, r9, r10, fp, pc}
 837              	.LVL63:
 838              	.L94:
 839              	.LCFI14:
 840              		.cfi_restore_state
 274:C:/Users/²Ü¼ÒºÀ/.iotlink/sdk/IoT_LINK/iot_link/network/lwm2m/wakaama_lwm2m/wakaama-master/examples/shared\commandline.c ****         fprintf(stream, "{\r\n");
 841              		.loc 1 274 9 is_stmt 1 view .LVU191
 842 0038 3946     		mov	r1, r7
 843 003a 2046     		mov	r0, r4
 844              	.LVL64:
 274:C:/Users/²Ü¼ÒºÀ/.iotlink/sdk/IoT_LINK/iot_link/network/lwm2m/wakaama_lwm2m/wakaama-master/examples/shared\commandline.c ****         fprintf(stream, "{\r\n");
 845              		.loc 1 274 9 is_stmt 0 view .LVU192
 846 003c FFF7FEFF 		bl	print_indent
 847              	.LVL65:
 275:C:/Users/²Ü¼ÒºÀ/.iotlink/sdk/IoT_LINK/iot_link/network/lwm2m/wakaama_lwm2m/wakaama-master/examples/shared\commandline.c ****         print_indent(stream, indent + 1);
 848              		.loc 1 275 9 is_stmt 1 view .LVU193
 276:C:/Users/²Ü¼ÒºÀ/.iotlink/sdk/IoT_LINK/iot_link/network/lwm2m/wakaama_lwm2m/wakaama-master/examples/shared\commandline.c ****         fprintf(stream, "ID: %d", id);
 849              		.loc 1 276 9 is_stmt 0 view .LVU194
 850 0040 07F10109 		add	r9, r7, #1
 275:C:/Users/²Ü¼ÒºÀ/.iotlink/sdk/IoT_LINK/iot_link/network/lwm2m/wakaama_lwm2m/wakaama-master/examples/shared\commandline.c ****         print_indent(stream, indent + 1);
 851              		.loc 1 275 9 view .LVU195
 852 0044 2146     		mov	r1, r4
 853 0046 4748     		ldr	r0, .L96
 854 0048 FFF7FEFF 		bl	fputs
 855              	.LVL66:
 276:C:/Users/²Ü¼ÒºÀ/.iotlink/sdk/IoT_LINK/iot_link/network/lwm2m/wakaama_lwm2m/wakaama-master/examples/shared\commandline.c ****         fprintf(stream, "ID: %d", id);
 856              		.loc 1 276 9 is_stmt 1 view .LVU196
 857 004c 4946     		mov	r1, r9
 858 004e 2046     		mov	r0, r4
 859 0050 FFF7FEFF 		bl	print_indent
 860              	.LVL67:
 277:C:/Users/²Ü¼ÒºÀ/.iotlink/sdk/IoT_LINK/iot_link/network/lwm2m/wakaama_lwm2m/wakaama-master/examples/shared\commandline.c **** 
 861              		.loc 1 277 9 view .LVU197
 862 0054 BDF81620 		ldrh	r2, [sp, #22]
 863 0058 4349     		ldr	r1, .L96+4
 864 005a 2046     		mov	r0, r4
ARM GAS  C:\Users\²Ü¼ÒºÀ\AppData\Local\Temp\ccEEsnMs.s 			page 29


 865 005c FFF7FEFF 		bl	fprintf
 866              	.LVL68:
 279:C:/Users/²Ü¼ÒºÀ/.iotlink/sdk/IoT_LINK/iot_link/network/lwm2m/wakaama_lwm2m/wakaama-master/examples/shared\commandline.c ****         switch (type)
 867              		.loc 1 279 9 view .LVU198
 868 0060 2146     		mov	r1, r4
 869 0062 4248     		ldr	r0, .L96+8
 870 0064 FFF7FEFF 		bl	fputs
 871              	.LVL69:
 280:C:/Users/²Ü¼ÒºÀ/.iotlink/sdk/IoT_LINK/iot_link/network/lwm2m/wakaama_lwm2m/wakaama-master/examples/shared\commandline.c ****         {
 872              		.loc 1 280 9 view .LVU199
 873 0068 9DF81510 		ldrb	r1, [sp, #21]	@ zero_extendqisi2
 874 006c 0329     		cmp	r1, #3
 875 006e 32D0     		beq	.L86
 876 0070 0529     		cmp	r1, #5
 877 0072 33D0     		beq	.L87
 878 0074 0229     		cmp	r1, #2
 879 0076 34D1     		bne	.L88
 283:C:/Users/²Ü¼ÒºÀ/.iotlink/sdk/IoT_LINK/iot_link/network/lwm2m/wakaama_lwm2m/wakaama-master/examples/shared\commandline.c ****             break;
 880              		.loc 1 283 13 view .LVU200
 881 0078 3D48     		ldr	r0, .L96+12
 882 007a 2146     		mov	r1, r4
 883              	.LVL70:
 884              	.L95:
 286:C:/Users/²Ü¼ÒºÀ/.iotlink/sdk/IoT_LINK/iot_link/network/lwm2m/wakaama_lwm2m/wakaama-master/examples/shared\commandline.c ****             break;
 885              		.loc 1 286 13 is_stmt 0 view .LVU201
 886 007c FFF7FEFF 		bl	fputs
 887              	.LVL71:
 287:C:/Users/²Ü¼ÒºÀ/.iotlink/sdk/IoT_LINK/iot_link/network/lwm2m/wakaama_lwm2m/wakaama-master/examples/shared\commandline.c ****         case LWM2M_TYPE_OPAQUE:
 888              		.loc 1 287 13 is_stmt 1 view .LVU202
 889              	.L89:
 295:C:/Users/²Ü¼ÒºÀ/.iotlink/sdk/IoT_LINK/iot_link/network/lwm2m/wakaama_lwm2m/wakaama-master/examples/shared\commandline.c **** 
 890              		.loc 1 295 9 view .LVU203
 891 0080 2146     		mov	r1, r4
 892 0082 0A20     		movs	r0, #10
 893 0084 FFF7FEFF 		bl	fputc
 894              	.LVL72:
 297:C:/Users/²Ü¼ÒºÀ/.iotlink/sdk/IoT_LINK/iot_link/network/lwm2m/wakaama_lwm2m/wakaama-master/examples/shared\commandline.c ****         fprintf(stream, "{\n");
 895              		.loc 1 297 9 view .LVU204
 896 0088 4946     		mov	r1, r9
 897 008a 2046     		mov	r0, r4
 898 008c FFF7FEFF 		bl	print_indent
 899              	.LVL73:
 298:C:/Users/²Ü¼ÒºÀ/.iotlink/sdk/IoT_LINK/iot_link/network/lwm2m/wakaama_lwm2m/wakaama-master/examples/shared\commandline.c ****         if (type == LWM2M_TYPE_OBJECT_INSTANCE || type == LWM2M_TYPE_MULTIPLE_RESOURCE)
 900              		.loc 1 298 9 view .LVU205
 901 0090 3848     		ldr	r0, .L96+16
 902 0092 2146     		mov	r1, r4
 903 0094 FFF7FEFF 		bl	fputs
 904              	.LVL74:
 299:C:/Users/²Ü¼ÒºÀ/.iotlink/sdk/IoT_LINK/iot_link/network/lwm2m/wakaama_lwm2m/wakaama-master/examples/shared\commandline.c ****         {
 905              		.loc 1 299 9 view .LVU206
 299:C:/Users/²Ü¼ÒºÀ/.iotlink/sdk/IoT_LINK/iot_link/network/lwm2m/wakaama_lwm2m/wakaama-master/examples/shared\commandline.c ****         {
 906              		.loc 1 299 48 is_stmt 0 view .LVU207
 907 0098 9DF81530 		ldrb	r3, [sp, #21]	@ zero_extendqisi2
 299:C:/Users/²Ü¼ÒºÀ/.iotlink/sdk/IoT_LINK/iot_link/network/lwm2m/wakaama_lwm2m/wakaama-master/examples/shared\commandline.c ****         {
 908              		.loc 1 299 12 view .LVU208
 909 009c 023B     		subs	r3, r3, #2
 910 009e 012B     		cmp	r3, #1
ARM GAS  C:\Users\²Ü¼ÒºÀ\AppData\Local\Temp\ccEEsnMs.s 			page 30


 911 00a0 23D8     		bhi	.L90
 301:C:/Users/²Ü¼ÒºÀ/.iotlink/sdk/IoT_LINK/iot_link/network/lwm2m/wakaama_lwm2m/wakaama-master/examples/shared\commandline.c ****         }
 912              		.loc 1 301 13 is_stmt 1 view .LVU209
 301:C:/Users/²Ü¼ÒºÀ/.iotlink/sdk/IoT_LINK/iot_link/network/lwm2m/wakaama_lwm2m/wakaama-master/examples/shared\commandline.c ****         }
 913              		.loc 1 301 48 is_stmt 0 view .LVU210
 914 00a2 0699     		ldr	r1, [sp, #24]
 301:C:/Users/²Ü¼ÒºÀ/.iotlink/sdk/IoT_LINK/iot_link/network/lwm2m/wakaama_lwm2m/wakaama-master/examples/shared\commandline.c ****         }
 915              		.loc 1 301 13 view .LVU211
 916 00a4 079A     		ldr	r2, [sp, #28]
 301:C:/Users/²Ü¼ÒºÀ/.iotlink/sdk/IoT_LINK/iot_link/network/lwm2m/wakaama_lwm2m/wakaama-master/examples/shared\commandline.c ****         }
 917              		.loc 1 301 48 view .LVU212
 918 00a6 3144     		add	r1, r1, r6
 301:C:/Users/²Ü¼ÒºÀ/.iotlink/sdk/IoT_LINK/iot_link/network/lwm2m/wakaama_lwm2m/wakaama-master/examples/shared\commandline.c ****         }
 919              		.loc 1 301 13 view .LVU213
 920 00a8 4B46     		mov	r3, r9
 921 00aa 2944     		add	r1, r1, r5
 922 00ac 2046     		mov	r0, r4
 923 00ae FFF7FEFF 		bl	output_tlv
 924              	.LVL75:
 925              	.L91:
 327:C:/Users/²Ü¼ÒºÀ/.iotlink/sdk/IoT_LINK/iot_link/network/lwm2m/wakaama_lwm2m/wakaama-master/examples/shared\commandline.c ****         fprintf(stream, "}\r\n");
 926              		.loc 1 327 9 is_stmt 1 view .LVU214
 927 00b2 4946     		mov	r1, r9
 928 00b4 2046     		mov	r0, r4
 929 00b6 FFF7FEFF 		bl	print_indent
 930              	.LVL76:
 328:C:/Users/²Ü¼ÒºÀ/.iotlink/sdk/IoT_LINK/iot_link/network/lwm2m/wakaama_lwm2m/wakaama-master/examples/shared\commandline.c ****         length += result;
 931              		.loc 1 328 9 view .LVU215
 932 00ba 2146     		mov	r1, r4
 933 00bc 2E48     		ldr	r0, .L96+20
 934 00be FFF7FEFF 		bl	fputs
 935              	.LVL77:
 329:C:/Users/²Ü¼ÒºÀ/.iotlink/sdk/IoT_LINK/iot_link/network/lwm2m/wakaama_lwm2m/wakaama-master/examples/shared\commandline.c ****         print_indent(stream, indent);
 936              		.loc 1 329 9 view .LVU216
 330:C:/Users/²Ü¼ÒºÀ/.iotlink/sdk/IoT_LINK/iot_link/network/lwm2m/wakaama_lwm2m/wakaama-master/examples/shared\commandline.c ****         fprintf(stream, "}\r\n");
 937              		.loc 1 330 9 is_stmt 0 view .LVU217
 938 00c2 3946     		mov	r1, r7
 939 00c4 2046     		mov	r0, r4
 940 00c6 FFF7FEFF 		bl	print_indent
 941              	.LVL78:
 331:C:/Users/²Ü¼ÒºÀ/.iotlink/sdk/IoT_LINK/iot_link/network/lwm2m/wakaama_lwm2m/wakaama-master/examples/shared\commandline.c ****     }
 942              		.loc 1 331 9 view .LVU218
 943 00ca 2146     		mov	r1, r4
 944 00cc 2A48     		ldr	r0, .L96+20
 329:C:/Users/²Ü¼ÒºÀ/.iotlink/sdk/IoT_LINK/iot_link/network/lwm2m/wakaama_lwm2m/wakaama-master/examples/shared\commandline.c ****         print_indent(stream, indent);
 945              		.loc 1 329 16 view .LVU219
 946 00ce 4644     		add	r6, r6, r8
 947              	.LVL79:
 330:C:/Users/²Ü¼ÒºÀ/.iotlink/sdk/IoT_LINK/iot_link/network/lwm2m/wakaama_lwm2m/wakaama-master/examples/shared\commandline.c ****         fprintf(stream, "}\r\n");
 948              		.loc 1 330 9 is_stmt 1 view .LVU220
 331:C:/Users/²Ü¼ÒºÀ/.iotlink/sdk/IoT_LINK/iot_link/network/lwm2m/wakaama_lwm2m/wakaama-master/examples/shared\commandline.c ****     }
 949              		.loc 1 331 9 view .LVU221
 950 00d0 FFF7FEFF 		bl	fputs
 951              	.LVL80:
 952 00d4 9CE7     		b	.L85
 953              	.L86:
 286:C:/Users/²Ü¼ÒºÀ/.iotlink/sdk/IoT_LINK/iot_link/network/lwm2m/wakaama_lwm2m/wakaama-master/examples/shared\commandline.c ****             break;
ARM GAS  C:\Users\²Ü¼ÒºÀ\AppData\Local\Temp\ccEEsnMs.s 			page 31


 954              		.loc 1 286 13 view .LVU222
 955 00d6 2948     		ldr	r0, .L96+24
 956 00d8 2146     		mov	r1, r4
 957 00da CFE7     		b	.L95
 958              	.L87:
 289:C:/Users/²Ü¼ÒºÀ/.iotlink/sdk/IoT_LINK/iot_link/network/lwm2m/wakaama_lwm2m/wakaama-master/examples/shared\commandline.c ****             break;
 959              		.loc 1 289 13 view .LVU223
 960 00dc 2848     		ldr	r0, .L96+28
 961 00de 2146     		mov	r1, r4
 962 00e0 CCE7     		b	.L95
 963              	.L88:
 292:C:/Users/²Ü¼ÒºÀ/.iotlink/sdk/IoT_LINK/iot_link/network/lwm2m/wakaama_lwm2m/wakaama-master/examples/shared\commandline.c ****             break;
 964              		.loc 1 292 13 view .LVU224
 965 00e2 2848     		ldr	r0, .L96+32
 966 00e4 FFF7FEFF 		bl	printf
 967              	.LVL81:
 293:C:/Users/²Ü¼ÒºÀ/.iotlink/sdk/IoT_LINK/iot_link/network/lwm2m/wakaama_lwm2m/wakaama-master/examples/shared\commandline.c ****         }
 968              		.loc 1 293 13 view .LVU225
 969 00e8 CAE7     		b	.L89
 970              	.L90:
 971              	.LBB44:
 305:C:/Users/²Ü¼ÒºÀ/.iotlink/sdk/IoT_LINK/iot_link/network/lwm2m/wakaama_lwm2m/wakaama-master/examples/shared\commandline.c ****             double floatValue;
 972              		.loc 1 305 13 view .LVU226
 306:C:/Users/²Ü¼ÒºÀ/.iotlink/sdk/IoT_LINK/iot_link/network/lwm2m/wakaama_lwm2m/wakaama-master/examples/shared\commandline.c ****             uint8_t tmp;
 973              		.loc 1 306 13 view .LVU227
 307:C:/Users/²Ü¼ÒºÀ/.iotlink/sdk/IoT_LINK/iot_link/network/lwm2m/wakaama_lwm2m/wakaama-master/examples/shared\commandline.c **** 
 974              		.loc 1 307 13 view .LVU228
 309:C:/Users/²Ü¼ÒºÀ/.iotlink/sdk/IoT_LINK/iot_link/network/lwm2m/wakaama_lwm2m/wakaama-master/examples/shared\commandline.c ****             fprintf(stream, "data (%d bytes):\r\n", dataLen);
 975              		.loc 1 309 13 view .LVU229
 976 00ea 07F1020A 		add	r10, r7, #2
 977 00ee 5146     		mov	r1, r10
 978 00f0 2046     		mov	r0, r4
 979 00f2 FFF7FEFF 		bl	print_indent
 980              	.LVL82:
 310:C:/Users/²Ü¼ÒºÀ/.iotlink/sdk/IoT_LINK/iot_link/network/lwm2m/wakaama_lwm2m/wakaama-master/examples/shared\commandline.c ****             output_buffer(stream, (uint8_t *)buffer + length + dataIndex, dataLen, indent + 2);
 981              		.loc 1 310 13 view .LVU230
 982 00f6 079A     		ldr	r2, [sp, #28]
 983 00f8 2349     		ldr	r1, .L96+36
 984 00fa 2046     		mov	r0, r4
 985 00fc FFF7FEFF 		bl	fprintf
 986              	.LVL83:
 311:C:/Users/²Ü¼ÒºÀ/.iotlink/sdk/IoT_LINK/iot_link/network/lwm2m/wakaama_lwm2m/wakaama-master/examples/shared\commandline.c **** 
 987              		.loc 1 311 13 view .LVU231
 311:C:/Users/²Ü¼ÒºÀ/.iotlink/sdk/IoT_LINK/iot_link/network/lwm2m/wakaama_lwm2m/wakaama-master/examples/shared\commandline.c **** 
 988              		.loc 1 311 62 is_stmt 0 view .LVU232
 989 0100 0698     		ldr	r0, [sp, #24]
 313:C:/Users/²Ü¼ÒºÀ/.iotlink/sdk/IoT_LINK/iot_link/network/lwm2m/wakaama_lwm2m/wakaama-master/examples/shared\commandline.c ****             buffer[length + dataIndex + dataLen] = 0;
 990              		.loc 1 313 45 view .LVU233
 991 0102 079B     		ldr	r3, [sp, #28]
 315:C:/Users/²Ü¼ÒºÀ/.iotlink/sdk/IoT_LINK/iot_link/network/lwm2m/wakaama_lwm2m/wakaama-master/examples/shared\commandline.c ****             {
 992              		.loc 1 315 21 view .LVU234
 993 0104 2149     		ldr	r1, .L96+40
 311:C:/Users/²Ü¼ÒºÀ/.iotlink/sdk/IoT_LINK/iot_link/network/lwm2m/wakaama_lwm2m/wakaama-master/examples/shared\commandline.c **** 
 994              		.loc 1 311 62 view .LVU235
 995 0106 3044     		add	r0, r0, r6
 996              	.LVL84:
 311:C:/Users/²Ü¼ÒºÀ/.iotlink/sdk/IoT_LINK/iot_link/network/lwm2m/wakaama_lwm2m/wakaama-master/examples/shared\commandline.c **** 
ARM GAS  C:\Users\²Ü¼ÒºÀ\AppData\Local\Temp\ccEEsnMs.s 			page 32


 997              		.loc 1 311 62 view .LVU236
 998              	.LBE44:
 258:C:/Users/²Ü¼ÒºÀ/.iotlink/sdk/IoT_LINK/iot_link/network/lwm2m/wakaama_lwm2m/wakaama-master/examples/shared\commandline.c **** #endif
 999              		.loc 1 258 1 is_stmt 1 view .LVU237
 1000              	.LBB45:
 313:C:/Users/²Ü¼ÒºÀ/.iotlink/sdk/IoT_LINK/iot_link/network/lwm2m/wakaama_lwm2m/wakaama-master/examples/shared\commandline.c ****             buffer[length + dataIndex + dataLen] = 0;
 1001              		.loc 1 313 13 view .LVU238
 313:C:/Users/²Ü¼ÒºÀ/.iotlink/sdk/IoT_LINK/iot_link/network/lwm2m/wakaama_lwm2m/wakaama-master/examples/shared\commandline.c ****             buffer[length + dataIndex + dataLen] = 0;
 1002              		.loc 1 313 45 is_stmt 0 view .LVU239
 1003 0108 0344     		add	r3, r3, r0
 315:C:/Users/²Ü¼ÒºÀ/.iotlink/sdk/IoT_LINK/iot_link/network/lwm2m/wakaama_lwm2m/wakaama-master/examples/shared\commandline.c ****             {
 1004              		.loc 1 315 21 view .LVU240
 1005 010a 2844     		add	r0, r0, r5
 313:C:/Users/²Ü¼ÒºÀ/.iotlink/sdk/IoT_LINK/iot_link/network/lwm2m/wakaama_lwm2m/wakaama-master/examples/shared\commandline.c ****             buffer[length + dataIndex + dataLen] = 0;
 1006              		.loc 1 313 17 view .LVU241
 1007 010c EA5C     		ldrb	r2, [r5, r3]	@ zero_extendqisi2
 1008 010e 0292     		str	r2, [sp, #8]
 1009              	.LVL85:
 314:C:/Users/²Ü¼ÒºÀ/.iotlink/sdk/IoT_LINK/iot_link/network/lwm2m/wakaama_lwm2m/wakaama-master/examples/shared\commandline.c ****             if (0 < sscanf((const char *)buffer + length + dataIndex, "%"PRId64, &intValue))
 1010              		.loc 1 314 13 is_stmt 1 view .LVU242
 314:C:/Users/²Ü¼ÒºÀ/.iotlink/sdk/IoT_LINK/iot_link/network/lwm2m/wakaama_lwm2m/wakaama-master/examples/shared\commandline.c ****             if (0 < sscanf((const char *)buffer + length + dataIndex, "%"PRId64, &intValue))
 1011              		.loc 1 314 50 is_stmt 0 view .LVU243
 1012 0110 0022     		movs	r2, #0
 1013 0112 EA54     		strb	r2, [r5, r3]
 315:C:/Users/²Ü¼ÒºÀ/.iotlink/sdk/IoT_LINK/iot_link/network/lwm2m/wakaama_lwm2m/wakaama-master/examples/shared\commandline.c ****             {
 1014              		.loc 1 315 13 is_stmt 1 view .LVU244
 315:C:/Users/²Ü¼ÒºÀ/.iotlink/sdk/IoT_LINK/iot_link/network/lwm2m/wakaama_lwm2m/wakaama-master/examples/shared\commandline.c ****             {
 1015              		.loc 1 315 21 is_stmt 0 view .LVU245
 1016 0114 08AA     		add	r2, sp, #32
 1017 0116 FFF7FEFF 		bl	sscanf
 1018              	.LVL86:
 315:C:/Users/²Ü¼ÒºÀ/.iotlink/sdk/IoT_LINK/iot_link/network/lwm2m/wakaama_lwm2m/wakaama-master/examples/shared\commandline.c ****             {
 1019              		.loc 1 315 16 view .LVU246
 1020 011a 0028     		cmp	r0, #0
 1021 011c 09DD     		ble	.L92
 317:C:/Users/²Ü¼ÒºÀ/.iotlink/sdk/IoT_LINK/iot_link/network/lwm2m/wakaama_lwm2m/wakaama-master/examples/shared\commandline.c ****                 fprintf(stream, "data as Integer: %" PRId64 "\r\n", intValue);
 1022              		.loc 1 317 17 is_stmt 1 view .LVU247
 1023 011e 5146     		mov	r1, r10
 1024 0120 2046     		mov	r0, r4
 1025 0122 FFF7FEFF 		bl	print_indent
 1026              	.LVL87:
 318:C:/Users/²Ü¼ÒºÀ/.iotlink/sdk/IoT_LINK/iot_link/network/lwm2m/wakaama_lwm2m/wakaama-master/examples/shared\commandline.c ****             }
 1027              		.loc 1 318 17 view .LVU248
 1028 0126 DDE90823 		ldrd	r2, [sp, #32]
 1029 012a 1949     		ldr	r1, .L96+44
 1030 012c 2046     		mov	r0, r4
 1031 012e FFF7FEFF 		bl	fprintf
 1032              	.LVL88:
 1033              	.L92:
 320:C:/Users/²Ü¼ÒºÀ/.iotlink/sdk/IoT_LINK/iot_link/network/lwm2m/wakaama_lwm2m/wakaama-master/examples/shared\commandline.c ****             {
 1034              		.loc 1 320 13 view .LVU249
 320:C:/Users/²Ü¼ÒºÀ/.iotlink/sdk/IoT_LINK/iot_link/network/lwm2m/wakaama_lwm2m/wakaama-master/examples/shared\commandline.c ****             {
 1035              		.loc 1 320 58 is_stmt 0 view .LVU250
 1036 0132 0698     		ldr	r0, [sp, #24]
 320:C:/Users/²Ü¼ÒºÀ/.iotlink/sdk/IoT_LINK/iot_link/network/lwm2m/wakaama_lwm2m/wakaama-master/examples/shared\commandline.c ****             {
 1037              		.loc 1 320 21 view .LVU251
 1038 0134 1749     		ldr	r1, .L96+48
ARM GAS  C:\Users\²Ü¼ÒºÀ\AppData\Local\Temp\ccEEsnMs.s 			page 33


 320:C:/Users/²Ü¼ÒºÀ/.iotlink/sdk/IoT_LINK/iot_link/network/lwm2m/wakaama_lwm2m/wakaama-master/examples/shared\commandline.c ****             {
 1039              		.loc 1 320 58 view .LVU252
 1040 0136 3044     		add	r0, r0, r6
 320:C:/Users/²Ü¼ÒºÀ/.iotlink/sdk/IoT_LINK/iot_link/network/lwm2m/wakaama_lwm2m/wakaama-master/examples/shared\commandline.c ****             {
 1041              		.loc 1 320 21 view .LVU253
 1042 0138 0AAA     		add	r2, sp, #40
 1043 013a 2844     		add	r0, r0, r5
 1044 013c FFF7FEFF 		bl	sscanf
 1045              	.LVL89:
 320:C:/Users/²Ü¼ÒºÀ/.iotlink/sdk/IoT_LINK/iot_link/network/lwm2m/wakaama_lwm2m/wakaama-master/examples/shared\commandline.c ****             {
 1046              		.loc 1 320 16 view .LVU254
 1047 0140 0028     		cmp	r0, #0
 1048 0142 09DD     		ble	.L93
 322:C:/Users/²Ü¼ÒºÀ/.iotlink/sdk/IoT_LINK/iot_link/network/lwm2m/wakaama_lwm2m/wakaama-master/examples/shared\commandline.c ****                 fprintf(stream, "data as Float: %.16g\r\n", floatValue);
 1049              		.loc 1 322 17 is_stmt 1 view .LVU255
 1050 0144 5146     		mov	r1, r10
 1051 0146 2046     		mov	r0, r4
 1052 0148 FFF7FEFF 		bl	print_indent
 1053              	.LVL90:
 323:C:/Users/²Ü¼ÒºÀ/.iotlink/sdk/IoT_LINK/iot_link/network/lwm2m/wakaama_lwm2m/wakaama-master/examples/shared\commandline.c ****             }
 1054              		.loc 1 323 17 view .LVU256
 1055 014c DDE90A23 		ldrd	r2, [sp, #40]
 1056 0150 1149     		ldr	r1, .L96+52
 1057 0152 2046     		mov	r0, r4
 1058 0154 FFF7FEFF 		bl	fprintf
 1059              	.LVL91:
 1060              	.L93:
 325:C:/Users/²Ü¼ÒºÀ/.iotlink/sdk/IoT_LINK/iot_link/network/lwm2m/wakaama_lwm2m/wakaama-master/examples/shared\commandline.c ****         }
 1061              		.loc 1 325 13 view .LVU257
 325:C:/Users/²Ü¼ÒºÀ/.iotlink/sdk/IoT_LINK/iot_link/network/lwm2m/wakaama_lwm2m/wakaama-master/examples/shared\commandline.c ****         }
 1062              		.loc 1 325 50 is_stmt 0 view .LVU258
 1063 0158 069B     		ldr	r3, [sp, #24]
 1064 015a 079A     		ldr	r2, [sp, #28]
 1065 015c 0299     		ldr	r1, [sp, #8]
 1066 015e 5B44     		add	r3, r3, fp
 1067 0160 9954     		strb	r1, [r3, r2]
 1068 0162 A6E7     		b	.L91
 1069              	.L97:
 1070              		.align	2
 1071              	.L96:
 1072 0164 00000000 		.word	.LC6
 1073 0168 04000000 		.word	.LC7
 1074 016c 0B000000 		.word	.LC8
 1075 0170 13000000 		.word	.LC9
 1076 0174 52000000 		.word	.LC13
 1077 0178 A0000000 		.word	.LC19
 1078 017c 23000000 		.word	.LC10
 1079 0180 36000000 		.word	.LC11
 1080 0184 45000000 		.word	.LC12
 1081 0188 55000000 		.word	.LC14
 1082 018c 68000000 		.word	.LC15
 1083 0190 6D000000 		.word	.LC16
 1084 0194 85000000 		.word	.LC17
 1085 0198 89000000 		.word	.LC18
 1086              	.LBE45:
 1087              		.cfi_endproc
 1088              	.LFE13:
ARM GAS  C:\Users\²Ü¼ÒºÀ\AppData\Local\Temp\ccEEsnMs.s 			page 34


 1090              		.section	.rodata.output_data.str1.1,"aMS",%progbits,1
 1091              	.LC20:
 1092 0000 25642062 		.ascii	"%d bytes received of type \000"
 1092      79746573 
 1092      20726563 
 1092      65697665 
 1092      64206F66 
 1093              	.LC21:
 1094 001b 74657874 		.ascii	"text/plain:\015\012\000"
 1094      2F706C61 
 1094      696E3A0D 
 1094      0A00
 1095              	.LC22:
 1096 0029 6170706C 		.ascii	"application/octet-stream:\015\012\000"
 1096      69636174 
 1096      696F6E2F 
 1096      6F637465 
 1096      742D7374 
 1097              	.LC23:
 1098 0045 6170706C 		.ascii	"application/vnd.oma.lwm2m+tlv:\015\012\000"
 1098      69636174 
 1098      696F6E2F 
 1098      766E642E 
 1098      6F6D612E 
 1099              	.LC24:
 1100 0066 6170706C 		.ascii	"application/vnd.oma.lwm2m+json:\015\012\000"
 1100      69636174 
 1100      696F6E2F 
 1100      766E642E 
 1100      6F6D612E 
 1101              	.LC25:
 1102 0088 6170706C 		.ascii	"application/link-format:\015\012\000"
 1102      69636174 
 1102      696F6E2F 
 1102      6C696E6B 
 1102      2D666F72 
 1103              	.LC26:
 1104 00a3 556E6B6E 		.ascii	"Unknown (%d):\015\012\000"
 1104      6F776E20 
 1104      28256429 
 1104      3A0D0A00 
 1105              		.section	.text.output_data,"ax",%progbits
 1106              		.align	1
 1107              		.global	output_data
 1108              		.syntax unified
 1109              		.thumb
 1110              		.thumb_func
 1111              		.fpu fpv4-sp-d16
 1113              	output_data:
 1114              	.LVL92:
 1115              	.LFB14:
 340:C:/Users/²Ü¼ÒºÀ/.iotlink/sdk/IoT_LINK/iot_link/network/lwm2m/wakaama_lwm2m/wakaama-master/examples/shared\commandline.c ****     int i;
 1116              		.loc 1 340 1 is_stmt 1 view -0
 1117              		.cfi_startproc
 1118              		@ args = 4, pretend = 0, frame = 0
 1119              		@ frame_needed = 0, uses_anonymous_args = 0
 341:C:/Users/²Ü¼ÒºÀ/.iotlink/sdk/IoT_LINK/iot_link/network/lwm2m/wakaama_lwm2m/wakaama-master/examples/shared\commandline.c **** 
ARM GAS  C:\Users\²Ü¼ÒºÀ\AppData\Local\Temp\ccEEsnMs.s 			page 35


 1120              		.loc 1 341 5 view .LVU260
 343:C:/Users/²Ü¼ÒºÀ/.iotlink/sdk/IoT_LINK/iot_link/network/lwm2m/wakaama_lwm2m/wakaama-master/examples/shared\commandline.c ****     fprintf(stream, "%d bytes received of type ", dataLength);
 1121              		.loc 1 343 5 view .LVU261
 340:C:/Users/²Ü¼ÒºÀ/.iotlink/sdk/IoT_LINK/iot_link/network/lwm2m/wakaama_lwm2m/wakaama-master/examples/shared\commandline.c ****     int i;
 1122              		.loc 1 340 1 is_stmt 0 view .LVU262
 1123 0000 2DE9F041 		push	{r4, r5, r6, r7, r8, lr}
 1124              	.LCFI15:
 1125              		.cfi_def_cfa_offset 24
 1126              		.cfi_offset 4, -24
 1127              		.cfi_offset 5, -20
 1128              		.cfi_offset 6, -16
 1129              		.cfi_offset 7, -12
 1130              		.cfi_offset 8, -8
 1131              		.cfi_offset 14, -4
 340:C:/Users/²Ü¼ÒºÀ/.iotlink/sdk/IoT_LINK/iot_link/network/lwm2m/wakaama_lwm2m/wakaama-master/examples/shared\commandline.c ****     int i;
 1132              		.loc 1 340 1 view .LVU263
 1133 0004 DDF81880 		ldr	r8, [sp, #24]
 1134 0008 1E46     		mov	r6, r3
 1135 000a 0446     		mov	r4, r0
 1136 000c 0D46     		mov	r5, r1
 343:C:/Users/²Ü¼ÒºÀ/.iotlink/sdk/IoT_LINK/iot_link/network/lwm2m/wakaama_lwm2m/wakaama-master/examples/shared\commandline.c ****     fprintf(stream, "%d bytes received of type ", dataLength);
 1137              		.loc 1 343 5 view .LVU264
 1138 000e 4146     		mov	r1, r8
 1139              	.LVL93:
 340:C:/Users/²Ü¼ÒºÀ/.iotlink/sdk/IoT_LINK/iot_link/network/lwm2m/wakaama_lwm2m/wakaama-master/examples/shared\commandline.c ****     int i;
 1140              		.loc 1 340 1 view .LVU265
 1141 0010 1746     		mov	r7, r2
 343:C:/Users/²Ü¼ÒºÀ/.iotlink/sdk/IoT_LINK/iot_link/network/lwm2m/wakaama_lwm2m/wakaama-master/examples/shared\commandline.c ****     fprintf(stream, "%d bytes received of type ", dataLength);
 1142              		.loc 1 343 5 view .LVU266
 1143 0012 FFF7FEFF 		bl	print_indent
 1144              	.LVL94:
 344:C:/Users/²Ü¼ÒºÀ/.iotlink/sdk/IoT_LINK/iot_link/network/lwm2m/wakaama_lwm2m/wakaama-master/examples/shared\commandline.c **** 
 1145              		.loc 1 344 5 is_stmt 1 view .LVU267
 1146 0016 2B49     		ldr	r1, .L112
 1147 0018 3246     		mov	r2, r6
 1148 001a 2046     		mov	r0, r4
 1149 001c FFF7FEFF 		bl	fprintf
 1150              	.LVL95:
 346:C:/Users/²Ü¼ÒºÀ/.iotlink/sdk/IoT_LINK/iot_link/network/lwm2m/wakaama_lwm2m/wakaama-master/examples/shared\commandline.c ****     {
 1151              		.loc 1 346 5 view .LVU268
 1152 0020 2A2D     		cmp	r5, #42
 1153 0022 29D0     		beq	.L99
 1154 0024 09D8     		bhi	.L100
 1155 0026 0DB3     		cbz	r5, .L101
 1156 0028 282D     		cmp	r5, #40
 1157 002a 3AD0     		beq	.L102
 1158              	.L103:
 384:C:/Users/²Ü¼ÒºÀ/.iotlink/sdk/IoT_LINK/iot_link/network/lwm2m/wakaama_lwm2m/wakaama-master/examples/shared\commandline.c ****         output_buffer(stream, data, dataLength, indent);
 1159              		.loc 1 384 9 view .LVU269
 1160 002c 2A46     		mov	r2, r5
 1161 002e 2046     		mov	r0, r4
 1162 0030 2549     		ldr	r1, .L112+4
 388:C:/Users/²Ü¼ÒºÀ/.iotlink/sdk/IoT_LINK/iot_link/network/lwm2m/wakaama_lwm2m/wakaama-master/examples/shared\commandline.c **** 
 1163              		.loc 1 388 1 is_stmt 0 view .LVU270
 1164 0032 BDE8F041 		pop	{r4, r5, r6, r7, r8, lr}
 1165              	.LCFI16:
 1166              		.cfi_remember_state
ARM GAS  C:\Users\²Ü¼ÒºÀ\AppData\Local\Temp\ccEEsnMs.s 			page 36


 1167              		.cfi_restore 14
 1168              		.cfi_restore 8
 1169              		.cfi_restore 7
 1170              		.cfi_restore 6
 1171              		.cfi_restore 5
 1172              		.cfi_restore 4
 1173              		.cfi_def_cfa_offset 0
 1174              	.LVL96:
 384:C:/Users/²Ü¼ÒºÀ/.iotlink/sdk/IoT_LINK/iot_link/network/lwm2m/wakaama_lwm2m/wakaama-master/examples/shared\commandline.c ****         output_buffer(stream, data, dataLength, indent);
 1175              		.loc 1 384 9 view .LVU271
 1176 0036 FFF7FEBF 		b	fprintf
 1177              	.LVL97:
 1178              	.L100:
 1179              	.LCFI17:
 1180              		.cfi_restore_state
 346:C:/Users/²Ü¼ÒºÀ/.iotlink/sdk/IoT_LINK/iot_link/network/lwm2m/wakaama_lwm2m/wakaama-master/examples/shared\commandline.c ****     {
 1181              		.loc 1 346 5 view .LVU272
 1182 003a 42F61653 		movw	r3, #11542
 1183 003e 9D42     		cmp	r5, r3
 1184 0040 1DD0     		beq	.L104
 1185 0042 42F61753 		movw	r3, #11543
 1186 0046 9D42     		cmp	r5, r3
 1187 0048 F0D1     		bne	.L103
 364:C:/Users/²Ü¼ÒºÀ/.iotlink/sdk/IoT_LINK/iot_link/network/lwm2m/wakaama_lwm2m/wakaama-master/examples/shared\commandline.c ****         print_indent(stream, indent);
 1188              		.loc 1 364 9 is_stmt 1 view .LVU273
 1189 004a 2146     		mov	r1, r4
 1190 004c 1F48     		ldr	r0, .L112+8
 1191 004e FFF7FEFF 		bl	fputs
 1192              	.LVL98:
 365:C:/Users/²Ü¼ÒºÀ/.iotlink/sdk/IoT_LINK/iot_link/network/lwm2m/wakaama_lwm2m/wakaama-master/examples/shared\commandline.c ****         for (i = 0 ; i < dataLength ; i++)
 1193              		.loc 1 365 9 view .LVU274
 1194 0052 4146     		mov	r1, r8
 1195 0054 2046     		mov	r0, r4
 1196 0056 FFF7FEFF 		bl	print_indent
 1197              	.LVL99:
 366:C:/Users/²Ü¼ÒºÀ/.iotlink/sdk/IoT_LINK/iot_link/network/lwm2m/wakaama_lwm2m/wakaama-master/examples/shared\commandline.c ****         {
 1198              		.loc 1 366 9 view .LVU275
 366:C:/Users/²Ü¼ÒºÀ/.iotlink/sdk/IoT_LINK/iot_link/network/lwm2m/wakaama_lwm2m/wakaama-master/examples/shared\commandline.c ****         {
 1199              		.loc 1 366 16 is_stmt 0 view .LVU276
 1200 005a 0025     		movs	r5, #0
 1201              	.LVL100:
 1202              	.L106:
 366:C:/Users/²Ü¼ÒºÀ/.iotlink/sdk/IoT_LINK/iot_link/network/lwm2m/wakaama_lwm2m/wakaama-master/examples/shared\commandline.c ****         {
 1203              		.loc 1 366 22 is_stmt 1 discriminator 1 view .LVU277
 366:C:/Users/²Ü¼ÒºÀ/.iotlink/sdk/IoT_LINK/iot_link/network/lwm2m/wakaama_lwm2m/wakaama-master/examples/shared\commandline.c ****         {
 1204              		.loc 1 366 9 is_stmt 0 discriminator 1 view .LVU278
 1205 005c B542     		cmp	r5, r6
 1206 005e 1ADB     		blt	.L107
 1207              	.L110:
 370:C:/Users/²Ü¼ÒºÀ/.iotlink/sdk/IoT_LINK/iot_link/network/lwm2m/wakaama_lwm2m/wakaama-master/examples/shared\commandline.c ****         break;
 1208              		.loc 1 370 9 is_stmt 1 view .LVU279
 1209 0060 2146     		mov	r1, r4
 1210 0062 0A20     		movs	r0, #10
 388:C:/Users/²Ü¼ÒºÀ/.iotlink/sdk/IoT_LINK/iot_link/network/lwm2m/wakaama_lwm2m/wakaama-master/examples/shared\commandline.c **** 
 1211              		.loc 1 388 1 is_stmt 0 view .LVU280
 1212 0064 BDE8F041 		pop	{r4, r5, r6, r7, r8, lr}
 1213              	.LCFI18:
ARM GAS  C:\Users\²Ü¼ÒºÀ\AppData\Local\Temp\ccEEsnMs.s 			page 37


 1214              		.cfi_remember_state
 1215              		.cfi_restore 14
 1216              		.cfi_restore 8
 1217              		.cfi_restore 7
 1218              		.cfi_restore 6
 1219              		.cfi_restore 5
 1220              		.cfi_restore 4
 1221              		.cfi_def_cfa_offset 0
 1222              	.LVL101:
 370:C:/Users/²Ü¼ÒºÀ/.iotlink/sdk/IoT_LINK/iot_link/network/lwm2m/wakaama_lwm2m/wakaama-master/examples/shared\commandline.c ****         break;
 1223              		.loc 1 370 9 view .LVU281
 1224 0068 FFF7FEBF 		b	fputc
 1225              	.LVL102:
 1226              	.L101:
 1227              	.LCFI19:
 1228              		.cfi_restore_state
 349:C:/Users/²Ü¼ÒºÀ/.iotlink/sdk/IoT_LINK/iot_link/network/lwm2m/wakaama_lwm2m/wakaama-master/examples/shared\commandline.c ****         output_buffer(stream, data, dataLength, indent);
 1229              		.loc 1 349 9 is_stmt 1 view .LVU282
 1230 006c 1848     		ldr	r0, .L112+12
 1231 006e 2146     		mov	r1, r4
 1232              	.LVL103:
 1233              	.L111:
 388:C:/Users/²Ü¼ÒºÀ/.iotlink/sdk/IoT_LINK/iot_link/network/lwm2m/wakaama_lwm2m/wakaama-master/examples/shared\commandline.c **** 
 1234              		.loc 1 388 1 is_stmt 0 view .LVU283
 1235 0070 BDE8F041 		pop	{r4, r5, r6, r7, r8, lr}
 1236              	.LCFI20:
 1237              		.cfi_remember_state
 1238              		.cfi_restore 14
 1239              		.cfi_restore 8
 1240              		.cfi_restore 7
 1241              		.cfi_restore 6
 1242              		.cfi_restore 5
 1243              		.cfi_restore 4
 1244              		.cfi_def_cfa_offset 0
 1245              	.LVL104:
 354:C:/Users/²Ü¼ÒºÀ/.iotlink/sdk/IoT_LINK/iot_link/network/lwm2m/wakaama_lwm2m/wakaama-master/examples/shared\commandline.c ****         output_buffer(stream, data, dataLength, indent);
 1246              		.loc 1 354 9 view .LVU284
 1247 0074 FFF7FEBF 		b	fputs
 1248              	.LVL105:
 1249              	.L99:
 1250              	.LCFI21:
 1251              		.cfi_restore_state
 354:C:/Users/²Ü¼ÒºÀ/.iotlink/sdk/IoT_LINK/iot_link/network/lwm2m/wakaama_lwm2m/wakaama-master/examples/shared\commandline.c ****         output_buffer(stream, data, dataLength, indent);
 1252              		.loc 1 354 9 is_stmt 1 view .LVU285
 1253 0078 1648     		ldr	r0, .L112+16
 1254 007a 2146     		mov	r1, r4
 1255 007c F8E7     		b	.L111
 1256              	.L104:
 359:C:/Users/²Ü¼ÒºÀ/.iotlink/sdk/IoT_LINK/iot_link/network/lwm2m/wakaama_lwm2m/wakaama-master/examples/shared\commandline.c ****         output_tlv(stream, data, dataLength, indent);
 1257              		.loc 1 359 9 view .LVU286
 1258 007e 2146     		mov	r1, r4
 1259 0080 1548     		ldr	r0, .L112+20
 1260 0082 FFF7FEFF 		bl	fputs
 1261              	.LVL106:
 360:C:/Users/²Ü¼ÒºÀ/.iotlink/sdk/IoT_LINK/iot_link/network/lwm2m/wakaama_lwm2m/wakaama-master/examples/shared\commandline.c ****         break;
 1262              		.loc 1 360 9 view .LVU287
 1263 0086 4346     		mov	r3, r8
ARM GAS  C:\Users\²Ü¼ÒºÀ\AppData\Local\Temp\ccEEsnMs.s 			page 38


 1264 0088 3246     		mov	r2, r6
 1265 008a 3946     		mov	r1, r7
 1266 008c 2046     		mov	r0, r4
 388:C:/Users/²Ü¼ÒºÀ/.iotlink/sdk/IoT_LINK/iot_link/network/lwm2m/wakaama_lwm2m/wakaama-master/examples/shared\commandline.c **** 
 1267              		.loc 1 388 1 is_stmt 0 view .LVU288
 1268 008e BDE8F041 		pop	{r4, r5, r6, r7, r8, lr}
 1269              	.LCFI22:
 1270              		.cfi_remember_state
 1271              		.cfi_restore 14
 1272              		.cfi_restore 8
 1273              		.cfi_restore 7
 1274              		.cfi_restore 6
 1275              		.cfi_restore 5
 1276              		.cfi_restore 4
 1277              		.cfi_def_cfa_offset 0
 1278              	.LVL107:
 360:C:/Users/²Ü¼ÒºÀ/.iotlink/sdk/IoT_LINK/iot_link/network/lwm2m/wakaama_lwm2m/wakaama-master/examples/shared\commandline.c ****         break;
 1279              		.loc 1 360 9 view .LVU289
 1280 0092 FFF7FEBF 		b	output_tlv
 1281              	.LVL108:
 1282              	.L107:
 1283              	.LCFI23:
 1284              		.cfi_restore_state
 368:C:/Users/²Ü¼ÒºÀ/.iotlink/sdk/IoT_LINK/iot_link/network/lwm2m/wakaama_lwm2m/wakaama-master/examples/shared\commandline.c ****         }
 1285              		.loc 1 368 13 is_stmt 1 discriminator 3 view .LVU290
 1286 0096 785D     		ldrb	r0, [r7, r5]	@ zero_extendqisi2
 1287 0098 2146     		mov	r1, r4
 1288 009a FFF7FEFF 		bl	fputc
 1289              	.LVL109:
 366:C:/Users/²Ü¼ÒºÀ/.iotlink/sdk/IoT_LINK/iot_link/network/lwm2m/wakaama_lwm2m/wakaama-master/examples/shared\commandline.c ****         {
 1290              		.loc 1 366 39 discriminator 3 view .LVU291
 366:C:/Users/²Ü¼ÒºÀ/.iotlink/sdk/IoT_LINK/iot_link/network/lwm2m/wakaama_lwm2m/wakaama-master/examples/shared\commandline.c ****         {
 1291              		.loc 1 366 40 is_stmt 0 discriminator 3 view .LVU292
 1292 009e 0135     		adds	r5, r5, #1
 1293              	.LVL110:
 366:C:/Users/²Ü¼ÒºÀ/.iotlink/sdk/IoT_LINK/iot_link/network/lwm2m/wakaama_lwm2m/wakaama-master/examples/shared\commandline.c ****         {
 1294              		.loc 1 366 40 discriminator 3 view .LVU293
 1295 00a0 DCE7     		b	.L106
 1296              	.LVL111:
 1297              	.L102:
 374:C:/Users/²Ü¼ÒºÀ/.iotlink/sdk/IoT_LINK/iot_link/network/lwm2m/wakaama_lwm2m/wakaama-master/examples/shared\commandline.c ****         print_indent(stream, indent);
 1298              		.loc 1 374 9 is_stmt 1 view .LVU294
 1299 00a2 2146     		mov	r1, r4
 1300 00a4 0D48     		ldr	r0, .L112+24
 1301 00a6 FFF7FEFF 		bl	fputs
 1302              	.LVL112:
 375:C:/Users/²Ü¼ÒºÀ/.iotlink/sdk/IoT_LINK/iot_link/network/lwm2m/wakaama_lwm2m/wakaama-master/examples/shared\commandline.c ****         for (i = 0 ; i < dataLength ; i++)
 1303              		.loc 1 375 9 view .LVU295
 1304 00aa 4146     		mov	r1, r8
 1305 00ac 2046     		mov	r0, r4
 1306 00ae FFF7FEFF 		bl	print_indent
 1307              	.LVL113:
 376:C:/Users/²Ü¼ÒºÀ/.iotlink/sdk/IoT_LINK/iot_link/network/lwm2m/wakaama_lwm2m/wakaama-master/examples/shared\commandline.c ****         {
 1308              		.loc 1 376 9 view .LVU296
 376:C:/Users/²Ü¼ÒºÀ/.iotlink/sdk/IoT_LINK/iot_link/network/lwm2m/wakaama_lwm2m/wakaama-master/examples/shared\commandline.c ****         {
 1309              		.loc 1 376 16 is_stmt 0 view .LVU297
 1310 00b2 0025     		movs	r5, #0
ARM GAS  C:\Users\²Ü¼ÒºÀ\AppData\Local\Temp\ccEEsnMs.s 			page 39


 1311              	.LVL114:
 1312              	.L108:
 376:C:/Users/²Ü¼ÒºÀ/.iotlink/sdk/IoT_LINK/iot_link/network/lwm2m/wakaama_lwm2m/wakaama-master/examples/shared\commandline.c ****         {
 1313              		.loc 1 376 22 is_stmt 1 discriminator 1 view .LVU298
 376:C:/Users/²Ü¼ÒºÀ/.iotlink/sdk/IoT_LINK/iot_link/network/lwm2m/wakaama_lwm2m/wakaama-master/examples/shared\commandline.c ****         {
 1314              		.loc 1 376 9 is_stmt 0 discriminator 1 view .LVU299
 1315 00b4 B542     		cmp	r5, r6
 1316 00b6 D3DA     		bge	.L110
 378:C:/Users/²Ü¼ÒºÀ/.iotlink/sdk/IoT_LINK/iot_link/network/lwm2m/wakaama_lwm2m/wakaama-master/examples/shared\commandline.c ****         }
 1317              		.loc 1 378 13 is_stmt 1 discriminator 3 view .LVU300
 1318 00b8 785D     		ldrb	r0, [r7, r5]	@ zero_extendqisi2
 1319 00ba 2146     		mov	r1, r4
 1320 00bc FFF7FEFF 		bl	fputc
 1321              	.LVL115:
 376:C:/Users/²Ü¼ÒºÀ/.iotlink/sdk/IoT_LINK/iot_link/network/lwm2m/wakaama_lwm2m/wakaama-master/examples/shared\commandline.c ****         {
 1322              		.loc 1 376 39 discriminator 3 view .LVU301
 376:C:/Users/²Ü¼ÒºÀ/.iotlink/sdk/IoT_LINK/iot_link/network/lwm2m/wakaama_lwm2m/wakaama-master/examples/shared\commandline.c ****         {
 1323              		.loc 1 376 40 is_stmt 0 discriminator 3 view .LVU302
 1324 00c0 0135     		adds	r5, r5, #1
 1325              	.LVL116:
 376:C:/Users/²Ü¼ÒºÀ/.iotlink/sdk/IoT_LINK/iot_link/network/lwm2m/wakaama_lwm2m/wakaama-master/examples/shared\commandline.c ****         {
 1326              		.loc 1 376 40 discriminator 3 view .LVU303
 1327 00c2 F7E7     		b	.L108
 1328              	.L113:
 1329              		.align	2
 1330              	.L112:
 1331 00c4 00000000 		.word	.LC20
 1332 00c8 A3000000 		.word	.LC26
 1333 00cc 66000000 		.word	.LC24
 1334 00d0 1B000000 		.word	.LC21
 1335 00d4 29000000 		.word	.LC22
 1336 00d8 45000000 		.word	.LC23
 1337 00dc 88000000 		.word	.LC25
 1338              		.cfi_endproc
 1339              	.LFE14:
 1341              		.section	.rodata.dump_tlv.str1.1,"aMS",%progbits,1
 1342              	.LC27:
 1343 0000 74727565 		.ascii	"true\000"
 1343      00
 1344              	.LC28:
 1345 0005 66616C73 		.ascii	"false\000"
 1345      6500
 1346              	.LC29:
 1347 000b 69643A20 		.ascii	"id: %d\015\012\000"
 1347      25640D0A 
 1347      00
 1348              	.LC30:
 1349 0014 74797065 		.ascii	"type: \000"
 1349      3A2000
 1350              	.LC31:
 1351 001b 4C574D32 		.ascii	"LWM2M_TYPE_OBJECT\015\012\000"
 1351      4D5F5459 
 1351      50455F4F 
 1351      424A4543 
 1351      540D0A00 
 1352              	.LC32:
 1353 002f 4C574D32 		.ascii	"LWM2M_TYPE_OBJECT_INSTANCE\015\012\000"
ARM GAS  C:\Users\²Ü¼ÒºÀ\AppData\Local\Temp\ccEEsnMs.s 			page 40


 1353      4D5F5459 
 1353      50455F4F 
 1353      424A4543 
 1353      545F494E 
 1354              	.LC33:
 1355 004c 4C574D32 		.ascii	"LWM2M_TYPE_MULTIPLE_RESOURCE\015\012\000"
 1355      4D5F5459 
 1355      50455F4D 
 1355      554C5449 
 1355      504C455F 
 1356              	.LC34:
 1357 006b 4C574D32 		.ascii	"LWM2M_TYPE_UNDEFINED\015\012\000"
 1357      4D5F5459 
 1357      50455F55 
 1357      4E444546 
 1357      494E4544 
 1358              	.LC35:
 1359 0082 4C574D32 		.ascii	"LWM2M_TYPE_STRING\015\012\000"
 1359      4D5F5459 
 1359      50455F53 
 1359      5452494E 
 1359      470D0A00 
 1360              	.LC36:
 1361 0096 22252E2A 		.ascii	"\"%.*s\"\015\012\000"
 1361      73220D0A 
 1361      00
 1362              	.LC37:
 1363 009f 4C574D32 		.ascii	"LWM2M_TYPE_OPAQUE\015\012\000"
 1363      4D5F5459 
 1363      50455F4F 
 1363      50415155 
 1363      450D0A00 
 1364              	.LC38:
 1365 00b3 4C574D32 		.ascii	"LWM2M_TYPE_INTEGER: \000"
 1365      4D5F5459 
 1365      50455F49 
 1365      4E544547 
 1365      45523A20 
 1366              	.LC39:
 1367 00c8 0D0A00   		.ascii	"\015\012\000"
 1368              	.LC40:
 1369 00cb 4C574D32 		.ascii	"LWM2M_TYPE_FLOAT: \000"
 1369      4D5F5459 
 1369      50455F46 
 1369      4C4F4154 
 1369      3A2000
 1370              	.LC41:
 1371 00de 4C574D32 		.ascii	"LWM2M_TYPE_BOOLEAN: \000"
 1371      4D5F5459 
 1371      50455F42 
 1371      4F4F4C45 
 1371      414E3A20 
 1372              	.LC42:
 1373 00f3 4C574D32 		.ascii	"LWM2M_TYPE_OBJECT_LINK\015\012\000"
 1373      4D5F5459 
 1373      50455F4F 
 1373      424A4543 
ARM GAS  C:\Users\²Ü¼ÒºÀ\AppData\Local\Temp\ccEEsnMs.s 			page 41


 1373      545F4C49 
 1374              	.LC43:
 1375 010c 756E6B6E 		.ascii	"unknown (%d)\015\012\000"
 1375      6F776E20 
 1375      28256429 
 1375      0D0A00
 1376              		.section	.text.dump_tlv,"ax",%progbits
 1377              		.align	1
 1378              		.global	dump_tlv
 1379              		.syntax unified
 1380              		.thumb
 1381              		.thumb_func
 1382              		.fpu fpv4-sp-d16
 1384              	dump_tlv:
 1385              	.LVL117:
 1386              	.LFB15:
 394:C:/Users/²Ü¼ÒºÀ/.iotlink/sdk/IoT_LINK/iot_link/network/lwm2m/wakaama_lwm2m/wakaama-master/examples/shared\commandline.c ****     int i;
 1387              		.loc 1 394 1 is_stmt 1 view -0
 1388              		.cfi_startproc
 1389              		@ args = 0, pretend = 0, frame = 8
 1390              		@ frame_needed = 0, uses_anonymous_args = 0
 395:C:/Users/²Ü¼ÒºÀ/.iotlink/sdk/IoT_LINK/iot_link/network/lwm2m/wakaama_lwm2m/wakaama-master/examples/shared\commandline.c **** 
 1391              		.loc 1 395 5 view .LVU305
 397:C:/Users/²Ü¼ÒºÀ/.iotlink/sdk/IoT_LINK/iot_link/network/lwm2m/wakaama_lwm2m/wakaama-master/examples/shared\commandline.c ****     {
 1392              		.loc 1 397 5 view .LVU306
 394:C:/Users/²Ü¼ÒºÀ/.iotlink/sdk/IoT_LINK/iot_link/network/lwm2m/wakaama_lwm2m/wakaama-master/examples/shared\commandline.c ****     int i;
 1393              		.loc 1 394 1 is_stmt 0 view .LVU307
 1394 0000 2DE9F74F 		push	{r0, r1, r2, r4, r5, r6, r7, r8, r9, r10, fp, lr}
 1395              	.LCFI24:
 1396              		.cfi_def_cfa_offset 48
 1397              		.cfi_offset 4, -36
 1398              		.cfi_offset 5, -32
 1399              		.cfi_offset 6, -28
 1400              		.cfi_offset 7, -24
 1401              		.cfi_offset 8, -20
 1402              		.cfi_offset 9, -16
 1403              		.cfi_offset 10, -12
 1404              		.cfi_offset 11, -8
 1405              		.cfi_offset 14, -4
 400:C:/Users/²Ü¼ÒºÀ/.iotlink/sdk/IoT_LINK/iot_link/network/lwm2m/wakaama_lwm2m/wakaama-master/examples/shared\commandline.c ****         print_indent(stream, indent + 1);
 1406              		.loc 1 400 9 view .LVU308
 1407 0004 DFF86891 		ldr	r9, .L136+68
 402:C:/Users/²Ü¼ÒºÀ/.iotlink/sdk/IoT_LINK/iot_link/network/lwm2m/wakaama_lwm2m/wakaama-master/examples/shared\commandline.c **** 
 1408              		.loc 1 402 9 view .LVU309
 1409 0008 DFF868A1 		ldr	r10, .L136+72
 405:C:/Users/²Ü¼ÒºÀ/.iotlink/sdk/IoT_LINK/iot_link/network/lwm2m/wakaama_lwm2m/wakaama-master/examples/shared\commandline.c ****         switch (dataP[i].type)
 1410              		.loc 1 405 9 view .LVU310
 1411 000c DFF868B1 		ldr	fp, .L136+76
 394:C:/Users/²Ü¼ÒºÀ/.iotlink/sdk/IoT_LINK/iot_link/network/lwm2m/wakaama_lwm2m/wakaama-master/examples/shared\commandline.c ****     int i;
 1412              		.loc 1 394 1 view .LVU311
 1413 0010 0191     		str	r1, [sp, #4]
 1414 0012 0446     		mov	r4, r0
 1415 0014 1E46     		mov	r6, r3
 1416 0016 1546     		mov	r5, r2
 397:C:/Users/²Ü¼ÒºÀ/.iotlink/sdk/IoT_LINK/iot_link/network/lwm2m/wakaama_lwm2m/wakaama-master/examples/shared\commandline.c ****     {
 1417              		.loc 1 397 11 view .LVU312
 1418 0018 4FF00008 		mov	r8, #0
ARM GAS  C:\Users\²Ü¼ÒºÀ\AppData\Local\Temp\ccEEsnMs.s 			page 42


 1419              	.LVL118:
 1420              	.L115:
 397:C:/Users/²Ü¼ÒºÀ/.iotlink/sdk/IoT_LINK/iot_link/network/lwm2m/wakaama_lwm2m/wakaama-master/examples/shared\commandline.c ****     {
 1421              		.loc 1 397 17 is_stmt 1 discriminator 1 view .LVU313
 397:C:/Users/²Ü¼ÒºÀ/.iotlink/sdk/IoT_LINK/iot_link/network/lwm2m/wakaama_lwm2m/wakaama-master/examples/shared\commandline.c ****     {
 1422              		.loc 1 397 5 is_stmt 0 discriminator 1 view .LVU314
 1423 001c 019B     		ldr	r3, [sp, #4]
 1424 001e 9845     		cmp	r8, r3
 1425 0020 02DB     		blt	.L130
 459:C:/Users/²Ü¼ÒºÀ/.iotlink/sdk/IoT_LINK/iot_link/network/lwm2m/wakaama_lwm2m/wakaama-master/examples/shared\commandline.c **** 
 1426              		.loc 1 459 1 view .LVU315
 1427 0022 03B0     		add	sp, sp, #12
 1428              	.LCFI25:
 1429              		.cfi_remember_state
 1430              		.cfi_def_cfa_offset 36
 1431              		@ sp needed
 1432 0024 BDE8F08F 		pop	{r4, r5, r6, r7, r8, r9, r10, fp, pc}
 1433              	.LVL119:
 1434              	.L130:
 1435              	.LCFI26:
 1436              		.cfi_restore_state
 399:C:/Users/²Ü¼ÒºÀ/.iotlink/sdk/IoT_LINK/iot_link/network/lwm2m/wakaama_lwm2m/wakaama-master/examples/shared\commandline.c ****         fprintf(stream, "{\r\n");
 1437              		.loc 1 399 9 is_stmt 1 view .LVU316
 1438 0028 3146     		mov	r1, r6
 1439 002a 2046     		mov	r0, r4
 1440 002c FFF7FEFF 		bl	print_indent
 1441              	.LVL120:
 400:C:/Users/²Ü¼ÒºÀ/.iotlink/sdk/IoT_LINK/iot_link/network/lwm2m/wakaama_lwm2m/wakaama-master/examples/shared\commandline.c ****         print_indent(stream, indent + 1);
 1442              		.loc 1 400 9 view .LVU317
 401:C:/Users/²Ü¼ÒºÀ/.iotlink/sdk/IoT_LINK/iot_link/network/lwm2m/wakaama_lwm2m/wakaama-master/examples/shared\commandline.c ****         fprintf(stream, "id: %d\r\n", dataP[i].id);
 1443              		.loc 1 401 9 is_stmt 0 view .LVU318
 1444 0030 771C     		adds	r7, r6, #1
 400:C:/Users/²Ü¼ÒºÀ/.iotlink/sdk/IoT_LINK/iot_link/network/lwm2m/wakaama_lwm2m/wakaama-master/examples/shared\commandline.c ****         print_indent(stream, indent + 1);
 1445              		.loc 1 400 9 view .LVU319
 1446 0032 2146     		mov	r1, r4
 1447 0034 4846     		mov	r0, r9
 1448 0036 FFF7FEFF 		bl	fputs
 1449              	.LVL121:
 401:C:/Users/²Ü¼ÒºÀ/.iotlink/sdk/IoT_LINK/iot_link/network/lwm2m/wakaama_lwm2m/wakaama-master/examples/shared\commandline.c ****         fprintf(stream, "id: %d\r\n", dataP[i].id);
 1450              		.loc 1 401 9 is_stmt 1 view .LVU320
 1451 003a 3946     		mov	r1, r7
 1452 003c 2046     		mov	r0, r4
 1453 003e FFF7FEFF 		bl	print_indent
 1454              	.LVL122:
 402:C:/Users/²Ü¼ÒºÀ/.iotlink/sdk/IoT_LINK/iot_link/network/lwm2m/wakaama_lwm2m/wakaama-master/examples/shared\commandline.c **** 
 1455              		.loc 1 402 9 view .LVU321
 1456 0042 6A88     		ldrh	r2, [r5, #2]
 1457 0044 5146     		mov	r1, r10
 1458 0046 2046     		mov	r0, r4
 1459 0048 FFF7FEFF 		bl	fprintf
 1460              	.LVL123:
 404:C:/Users/²Ü¼ÒºÀ/.iotlink/sdk/IoT_LINK/iot_link/network/lwm2m/wakaama_lwm2m/wakaama-master/examples/shared\commandline.c ****         fprintf(stream, "type: ");
 1461              		.loc 1 404 9 view .LVU322
 1462 004c 3946     		mov	r1, r7
 1463 004e 2046     		mov	r0, r4
 1464 0050 FFF7FEFF 		bl	print_indent
 1465              	.LVL124:
ARM GAS  C:\Users\²Ü¼ÒºÀ\AppData\Local\Temp\ccEEsnMs.s 			page 43


 405:C:/Users/²Ü¼ÒºÀ/.iotlink/sdk/IoT_LINK/iot_link/network/lwm2m/wakaama_lwm2m/wakaama-master/examples/shared\commandline.c ****         switch (dataP[i].type)
 1466              		.loc 1 405 9 view .LVU323
 1467 0054 2146     		mov	r1, r4
 1468 0056 5846     		mov	r0, fp
 1469 0058 FFF7FEFF 		bl	fputs
 1470              	.LVL125:
 406:C:/Users/²Ü¼ÒºÀ/.iotlink/sdk/IoT_LINK/iot_link/network/lwm2m/wakaama_lwm2m/wakaama-master/examples/shared\commandline.c ****         {
 1471              		.loc 1 406 9 view .LVU324
 406:C:/Users/²Ü¼ÒºÀ/.iotlink/sdk/IoT_LINK/iot_link/network/lwm2m/wakaama_lwm2m/wakaama-master/examples/shared\commandline.c ****         {
 1472              		.loc 1 406 25 is_stmt 0 view .LVU325
 1473 005c 2A78     		ldrb	r2, [r5]	@ zero_extendqisi2
 1474 005e 092A     		cmp	r2, #9
 1475 0060 5FD8     		bhi	.L116
 1476 0062 DFE802F0 		tbb	[pc, r2]
 1477              	.L118:
 1478 0066 21       		.byte	(.L127-.L118)/2
 1479 0067 05       		.byte	(.L126-.L118)/2
 1480 0068 1B       		.byte	(.L125-.L118)/2
 1481 0069 1E       		.byte	(.L124-.L118)/2
 1482 006a 26       		.byte	(.L123-.L118)/2
 1483 006b 35       		.byte	(.L122-.L118)/2
 1484 006c 38       		.byte	(.L121-.L118)/2
 1485 006d 49       		.byte	(.L120-.L118)/2
 1486 006e 4C       		.byte	(.L119-.L118)/2
 1487 006f 5B       		.byte	(.L117-.L118)/2
 1488              		.p2align 1
 1489              	.L126:
 409:C:/Users/²Ü¼ÒºÀ/.iotlink/sdk/IoT_LINK/iot_link/network/lwm2m/wakaama_lwm2m/wakaama-master/examples/shared\commandline.c ****             dump_tlv(stream, dataP[i].value.asChildren.count, dataP[i].value.asChildren.array, inde
 1490              		.loc 1 409 13 is_stmt 1 view .LVU326
 1491 0070 2E48     		ldr	r0, .L136
 1492 0072 2146     		mov	r1, r4
 1493              	.LVL126:
 1494              	.L132:
 413:C:/Users/²Ü¼ÒºÀ/.iotlink/sdk/IoT_LINK/iot_link/network/lwm2m/wakaama_lwm2m/wakaama-master/examples/shared\commandline.c ****             dump_tlv(stream, dataP[i].value.asChildren.count, dataP[i].value.asChildren.array, inde
 1495              		.loc 1 413 13 is_stmt 0 view .LVU327
 1496 0074 FFF7FEFF 		bl	fputs
 1497              	.LVL127:
 414:C:/Users/²Ü¼ÒºÀ/.iotlink/sdk/IoT_LINK/iot_link/network/lwm2m/wakaama_lwm2m/wakaama-master/examples/shared\commandline.c ****             break;
 1498              		.loc 1 414 13 is_stmt 1 view .LVU328
 1499 0078 D5E90212 		ldrd	r1, r2, [r5, #8]
 1500 007c 3B46     		mov	r3, r7
 1501 007e 2046     		mov	r0, r4
 1502 0080 FFF7FEFF 		bl	dump_tlv
 1503              	.LVL128:
 415:C:/Users/²Ü¼ÒºÀ/.iotlink/sdk/IoT_LINK/iot_link/network/lwm2m/wakaama_lwm2m/wakaama-master/examples/shared\commandline.c ****         case LWM2M_TYPE_MULTIPLE_RESOURCE:
 1504              		.loc 1 415 13 view .LVU329
 1505              	.L128:
 456:C:/Users/²Ü¼ÒºÀ/.iotlink/sdk/IoT_LINK/iot_link/network/lwm2m/wakaama_lwm2m/wakaama-master/examples/shared\commandline.c ****         fprintf(stream, "}\r\n");
 1506              		.loc 1 456 9 discriminator 2 view .LVU330
 1507 0084 3146     		mov	r1, r6
 1508 0086 2046     		mov	r0, r4
 1509 0088 FFF7FEFF 		bl	print_indent
 1510              	.LVL129:
 457:C:/Users/²Ü¼ÒºÀ/.iotlink/sdk/IoT_LINK/iot_link/network/lwm2m/wakaama_lwm2m/wakaama-master/examples/shared\commandline.c ****     }
 1511              		.loc 1 457 9 discriminator 2 view .LVU331
 1512 008c 2848     		ldr	r0, .L136+4
 1513 008e 2146     		mov	r1, r4
ARM GAS  C:\Users\²Ü¼ÒºÀ\AppData\Local\Temp\ccEEsnMs.s 			page 44


 1514 0090 FFF7FEFF 		bl	fputs
 1515              	.LVL130:
 397:C:/Users/²Ü¼ÒºÀ/.iotlink/sdk/IoT_LINK/iot_link/network/lwm2m/wakaama_lwm2m/wakaama-master/examples/shared\commandline.c ****     {
 1516              		.loc 1 397 28 discriminator 2 view .LVU332
 397:C:/Users/²Ü¼ÒºÀ/.iotlink/sdk/IoT_LINK/iot_link/network/lwm2m/wakaama_lwm2m/wakaama-master/examples/shared\commandline.c ****     {
 1517              		.loc 1 397 29 is_stmt 0 discriminator 2 view .LVU333
 1518 0094 08F10108 		add	r8, r8, #1
 1519              	.LVL131:
 397:C:/Users/²Ü¼ÒºÀ/.iotlink/sdk/IoT_LINK/iot_link/network/lwm2m/wakaama_lwm2m/wakaama-master/examples/shared\commandline.c ****     {
 1520              		.loc 1 397 29 discriminator 2 view .LVU334
 1521 0098 1035     		adds	r5, r5, #16
 1522 009a BFE7     		b	.L115
 1523              	.L125:
 413:C:/Users/²Ü¼ÒºÀ/.iotlink/sdk/IoT_LINK/iot_link/network/lwm2m/wakaama_lwm2m/wakaama-master/examples/shared\commandline.c ****             dump_tlv(stream, dataP[i].value.asChildren.count, dataP[i].value.asChildren.array, inde
 1524              		.loc 1 413 13 is_stmt 1 view .LVU335
 1525 009c 2548     		ldr	r0, .L136+8
 1526 009e 2146     		mov	r1, r4
 1527 00a0 E8E7     		b	.L132
 1528              	.L124:
 417:C:/Users/²Ü¼ÒºÀ/.iotlink/sdk/IoT_LINK/iot_link/network/lwm2m/wakaama_lwm2m/wakaama-master/examples/shared\commandline.c ****             dump_tlv(stream, dataP[i].value.asChildren.count, dataP[i].value.asChildren.array, inde
 1529              		.loc 1 417 13 view .LVU336
 1530 00a2 2548     		ldr	r0, .L136+12
 1531 00a4 2146     		mov	r1, r4
 1532 00a6 E5E7     		b	.L132
 1533              	.L127:
 421:C:/Users/²Ü¼ÒºÀ/.iotlink/sdk/IoT_LINK/iot_link/network/lwm2m/wakaama_lwm2m/wakaama-master/examples/shared\commandline.c ****             break;
 1534              		.loc 1 421 13 view .LVU337
 1535 00a8 2448     		ldr	r0, .L136+16
 1536 00aa 2146     		mov	r1, r4
 1537              	.LVL132:
 1538              	.L133:
 450:C:/Users/²Ü¼ÒºÀ/.iotlink/sdk/IoT_LINK/iot_link/network/lwm2m/wakaama_lwm2m/wakaama-master/examples/shared\commandline.c ****             break;
 1539              		.loc 1 450 13 is_stmt 0 view .LVU338
 1540 00ac FFF7FEFF 		bl	fputs
 1541              	.LVL133:
 451:C:/Users/²Ü¼ÒºÀ/.iotlink/sdk/IoT_LINK/iot_link/network/lwm2m/wakaama_lwm2m/wakaama-master/examples/shared\commandline.c ****         default:
 1542              		.loc 1 451 13 is_stmt 1 view .LVU339
 1543 00b0 E8E7     		b	.L128
 1544              	.L123:
 424:C:/Users/²Ü¼ÒºÀ/.iotlink/sdk/IoT_LINK/iot_link/network/lwm2m/wakaama_lwm2m/wakaama-master/examples/shared\commandline.c ****             print_indent(stream, indent + 1);
 1545              		.loc 1 424 13 view .LVU340
 1546 00b2 2146     		mov	r1, r4
 1547 00b4 2248     		ldr	r0, .L136+20
 1548 00b6 FFF7FEFF 		bl	fputs
 1549              	.LVL134:
 425:C:/Users/²Ü¼ÒºÀ/.iotlink/sdk/IoT_LINK/iot_link/network/lwm2m/wakaama_lwm2m/wakaama-master/examples/shared\commandline.c ****             fprintf(stream, "\"%.*s\"\r\n", (int)dataP[i].value.asBuffer.length, dataP[i].value.asB
 1550              		.loc 1 425 13 view .LVU341
 1551 00ba 3946     		mov	r1, r7
 1552 00bc 2046     		mov	r0, r4
 1553 00be FFF7FEFF 		bl	print_indent
 1554              	.LVL135:
 426:C:/Users/²Ü¼ÒºÀ/.iotlink/sdk/IoT_LINK/iot_link/network/lwm2m/wakaama_lwm2m/wakaama-master/examples/shared\commandline.c ****             break;
 1555              		.loc 1 426 13 view .LVU342
 1556 00c2 D5E90223 		ldrd	r2, r3, [r5, #8]
 1557 00c6 1F49     		ldr	r1, .L136+24
 1558 00c8 2046     		mov	r0, r4
 1559 00ca FFF7FEFF 		bl	fprintf
ARM GAS  C:\Users\²Ü¼ÒºÀ\AppData\Local\Temp\ccEEsnMs.s 			page 45


 1560              	.LVL136:
 427:C:/Users/²Ü¼ÒºÀ/.iotlink/sdk/IoT_LINK/iot_link/network/lwm2m/wakaama_lwm2m/wakaama-master/examples/shared\commandline.c ****         case LWM2M_TYPE_OPAQUE:
 1561              		.loc 1 427 13 view .LVU343
 1562 00ce D9E7     		b	.L128
 1563              	.L122:
 429:C:/Users/²Ü¼ÒºÀ/.iotlink/sdk/IoT_LINK/iot_link/network/lwm2m/wakaama_lwm2m/wakaama-master/examples/shared\commandline.c ****             output_buffer(stream, dataP[i].value.asBuffer.buffer, dataP[i].value.asBuffer.length, i
 1564              		.loc 1 429 13 view .LVU344
 1565 00d0 1D48     		ldr	r0, .L136+28
 1566 00d2 2146     		mov	r1, r4
 1567 00d4 EAE7     		b	.L133
 1568              	.L121:
 433:C:/Users/²Ü¼ÒºÀ/.iotlink/sdk/IoT_LINK/iot_link/network/lwm2m/wakaama_lwm2m/wakaama-master/examples/shared\commandline.c ****             print_indent(stream, indent + 1);
 1569              		.loc 1 433 13 view .LVU345
 1570 00d6 1D48     		ldr	r0, .L136+32
 1571 00d8 2146     		mov	r1, r4
 1572              	.LVL137:
 1573              	.L135:
 439:C:/Users/²Ü¼ÒºÀ/.iotlink/sdk/IoT_LINK/iot_link/network/lwm2m/wakaama_lwm2m/wakaama-master/examples/shared\commandline.c ****             print_indent(stream, indent + 1);
 1574              		.loc 1 439 13 is_stmt 0 view .LVU346
 1575 00da FFF7FEFF 		bl	fputs
 1576              	.LVL138:
 440:C:/Users/²Ü¼ÒºÀ/.iotlink/sdk/IoT_LINK/iot_link/network/lwm2m/wakaama_lwm2m/wakaama-master/examples/shared\commandline.c ****             fprintf(stream, "%" PRId64, dataP[i].value.asInteger);
 1577              		.loc 1 440 13 is_stmt 1 view .LVU347
 1578 00de 3946     		mov	r1, r7
 1579 00e0 2046     		mov	r0, r4
 1580 00e2 FFF7FEFF 		bl	print_indent
 1581              	.LVL139:
 441:C:/Users/²Ü¼ÒºÀ/.iotlink/sdk/IoT_LINK/iot_link/network/lwm2m/wakaama_lwm2m/wakaama-master/examples/shared\commandline.c ****             fprintf(stream, "\r\n");
 1582              		.loc 1 441 13 view .LVU348
 1583 00e6 D5E90223 		ldrd	r2, [r5, #8]
 1584 00ea 1949     		ldr	r1, .L136+36
 1585 00ec 2046     		mov	r0, r4
 1586 00ee FFF7FEFF 		bl	fprintf
 1587              	.LVL140:
 442:C:/Users/²Ü¼ÒºÀ/.iotlink/sdk/IoT_LINK/iot_link/network/lwm2m/wakaama_lwm2m/wakaama-master/examples/shared\commandline.c ****             break;
 1588              		.loc 1 442 13 view .LVU349
 1589              	.L134:
 447:C:/Users/²Ü¼ÒºÀ/.iotlink/sdk/IoT_LINK/iot_link/network/lwm2m/wakaama_lwm2m/wakaama-master/examples/shared\commandline.c ****             break;
 1590              		.loc 1 447 13 view .LVU350
 1591 00f2 1848     		ldr	r0, .L136+40
 1592 00f4 2146     		mov	r1, r4
 1593 00f6 D9E7     		b	.L133
 1594              	.L120:
 439:C:/Users/²Ü¼ÒºÀ/.iotlink/sdk/IoT_LINK/iot_link/network/lwm2m/wakaama_lwm2m/wakaama-master/examples/shared\commandline.c ****             print_indent(stream, indent + 1);
 1595              		.loc 1 439 13 view .LVU351
 1596 00f8 1748     		ldr	r0, .L136+44
 1597 00fa 2146     		mov	r1, r4
 1598 00fc EDE7     		b	.L135
 1599              	.L119:
 445:C:/Users/²Ü¼ÒºÀ/.iotlink/sdk/IoT_LINK/iot_link/network/lwm2m/wakaama_lwm2m/wakaama-master/examples/shared\commandline.c ****             fprintf(stream, "%s", dataP[i].value.asBoolean ? "true" : "false");
 1600              		.loc 1 445 13 view .LVU352
 1601 00fe 2146     		mov	r1, r4
 1602 0100 1648     		ldr	r0, .L136+48
 1603 0102 FFF7FEFF 		bl	fputs
 1604              	.LVL141:
 446:C:/Users/²Ü¼ÒºÀ/.iotlink/sdk/IoT_LINK/iot_link/network/lwm2m/wakaama_lwm2m/wakaama-master/examples/shared\commandline.c ****             fprintf(stream, "\r\n");
 1605              		.loc 1 446 13 view .LVU353
ARM GAS  C:\Users\²Ü¼ÒºÀ\AppData\Local\Temp\ccEEsnMs.s 			page 46


 1606 0106 287A     		ldrb	r0, [r5, #8]	@ zero_extendqisi2
 1607 0108 154A     		ldr	r2, .L136+52
 1608 010a 164B     		ldr	r3, .L136+56
 1609 010c 2146     		mov	r1, r4
 1610 010e 0028     		cmp	r0, #0
 1611 0110 14BF     		ite	ne
 1612 0112 1046     		movne	r0, r2
 1613 0114 1846     		moveq	r0, r3
 1614 0116 FFF7FEFF 		bl	fputs
 1615              	.LVL142:
 1616 011a EAE7     		b	.L134
 1617              	.L117:
 450:C:/Users/²Ü¼ÒºÀ/.iotlink/sdk/IoT_LINK/iot_link/network/lwm2m/wakaama_lwm2m/wakaama-master/examples/shared\commandline.c ****             break;
 1618              		.loc 1 450 13 view .LVU354
 1619 011c 1248     		ldr	r0, .L136+60
 1620 011e 2146     		mov	r1, r4
 1621 0120 C4E7     		b	.L133
 1622              	.L116:
 453:C:/Users/²Ü¼ÒºÀ/.iotlink/sdk/IoT_LINK/iot_link/network/lwm2m/wakaama_lwm2m/wakaama-master/examples/shared\commandline.c ****             break;
 1623              		.loc 1 453 13 view .LVU355
 1624 0122 1249     		ldr	r1, .L136+64
 1625 0124 2046     		mov	r0, r4
 1626 0126 FFF7FEFF 		bl	fprintf
 1627              	.LVL143:
 454:C:/Users/²Ü¼ÒºÀ/.iotlink/sdk/IoT_LINK/iot_link/network/lwm2m/wakaama_lwm2m/wakaama-master/examples/shared\commandline.c ****         }
 1628              		.loc 1 454 13 view .LVU356
 1629 012a ABE7     		b	.L128
 1630              	.L137:
 1631              		.align	2
 1632              	.L136:
 1633 012c 1B000000 		.word	.LC31
 1634 0130 A0000000 		.word	.LC19
 1635 0134 2F000000 		.word	.LC32
 1636 0138 4C000000 		.word	.LC33
 1637 013c 6B000000 		.word	.LC34
 1638 0140 82000000 		.word	.LC35
 1639 0144 96000000 		.word	.LC36
 1640 0148 9F000000 		.word	.LC37
 1641 014c B3000000 		.word	.LC38
 1642 0150 68000000 		.word	.LC15
 1643 0154 C8000000 		.word	.LC39
 1644 0158 CB000000 		.word	.LC40
 1645 015c DE000000 		.word	.LC41
 1646 0160 00000000 		.word	.LC27
 1647 0164 05000000 		.word	.LC28
 1648 0168 F3000000 		.word	.LC42
 1649 016c 0C010000 		.word	.LC43
 1650 0170 00000000 		.word	.LC6
 1651 0174 0B000000 		.word	.LC29
 1652 0178 14000000 		.word	.LC30
 1653              		.cfi_endproc
 1654              	.LFE15:
 1656              		.section	.rodata.print_status.str1.1,"aMS",%progbits,1
 1657              	.LC44:
 1658 0000 00       		.ascii	"\000"
 1659              	.LC45:
 1660 0001 434F4150 		.ascii	"COAP_NO_ERROR\000"
ARM GAS  C:\Users\²Ü¼ÒºÀ\AppData\Local\Temp\ccEEsnMs.s 			page 47


 1660      5F4E4F5F 
 1660      4552524F 
 1660      5200
 1661              	.LC46:
 1662 000f 434F4150 		.ascii	"COAP_400_BAD_REQUEST\000"
 1662      5F343030 
 1662      5F424144 
 1662      5F524551 
 1662      55455354 
 1663              	.LC47:
 1664 0024 434F4150 		.ascii	"COAP_202_DELETED\000"
 1664      5F323032 
 1664      5F44454C 
 1664      45544544 
 1664      00
 1665              	.LC48:
 1666 0035 434F4150 		.ascii	"COAP_204_CHANGED\000"
 1666      5F323034 
 1666      5F434841 
 1666      4E474544 
 1666      00
 1667              	.LC49:
 1668 0046 434F4150 		.ascii	"COAP_205_CONTENT\000"
 1668      5F323035 
 1668      5F434F4E 
 1668      54454E54 
 1668      00
 1669              	.LC50:
 1670 0057 434F4150 		.ascii	"COAP_IGNORE\000"
 1670      5F49474E 
 1670      4F524500 
 1671              	.LC51:
 1672 0063 434F4150 		.ascii	"COAP_401_UNAUTHORIZED\000"
 1672      5F343031 
 1672      5F554E41 
 1672      5554484F 
 1672      52495A45 
 1673              	.LC52:
 1674 0079 434F4150 		.ascii	"COAP_404_NOT_FOUND\000"
 1674      5F343034 
 1674      5F4E4F54 
 1674      5F464F55 
 1674      4E4400
 1675              	.LC53:
 1676 008c 434F4150 		.ascii	"COAP_405_METHOD_NOT_ALLOWED\000"
 1676      5F343035 
 1676      5F4D4554 
 1676      484F445F 
 1676      4E4F545F 
 1677              	.LC54:
 1678 00a8 434F4150 		.ascii	"COAP_406_NOT_ACCEPTABLE\000"
 1678      5F343036 
 1678      5F4E4F54 
 1678      5F414343 
 1678      45505441 
 1679              	.LC55:
 1680 00c0 434F4150 		.ascii	"COAP_503_SERVICE_UNAVAILABLE\000"
ARM GAS  C:\Users\²Ü¼ÒºÀ\AppData\Local\Temp\ccEEsnMs.s 			page 48


 1680      5F353033 
 1680      5F534552 
 1680      56494345 
 1680      5F554E41 
 1681              	.LC56:
 1682 00dd 434F4150 		.ascii	"COAP_201_CREATED\000"
 1682      5F323031 
 1682      5F435245 
 1682      41544544 
 1682      00
 1683              	.LC57:
 1684 00ee 434F4150 		.ascii	"COAP_501_NOT_IMPLEMENTED\000"
 1684      5F353031 
 1684      5F4E4F54 
 1684      5F494D50 
 1684      4C454D45 
 1685              	.LC58:
 1686 0107 434F4150 		.ascii	"COAP_500_INTERNAL_SERVER_ERROR\000"
 1686      5F353030 
 1686      5F494E54 
 1686      45524E41 
 1686      4C5F5345 
 1687              	.LC59:
 1688 0126 25642E25 		.ascii	"%d.%02d (%s)\000"
 1688      30326420 
 1688      28257329 
 1688      00
 1689              		.section	.text.print_status,"ax",%progbits
 1690              		.align	1
 1691              		.global	print_status
 1692              		.syntax unified
 1693              		.thumb
 1694              		.thumb_func
 1695              		.fpu fpv4-sp-d16
 1697              	print_status:
 1698              	.LVL144:
 1699              	.LFB17:
 488:C:/Users/²Ü¼ÒºÀ/.iotlink/sdk/IoT_LINK/iot_link/network/lwm2m/wakaama_lwm2m/wakaama-master/examples/shared\commandline.c ****     fprintf(stream, "%d.%02d (%s)", (status & 0xE0) >> 5, status & 0x1F, prv_status_to_string(statu
 1700              		.loc 1 488 1 view -0
 1701              		.cfi_startproc
 1702              		@ args = 0, pretend = 0, frame = 0
 1703              		@ frame_needed = 0, uses_anonymous_args = 0
 489:C:/Users/²Ü¼ÒºÀ/.iotlink/sdk/IoT_LINK/iot_link/network/lwm2m/wakaama_lwm2m/wakaama-master/examples/shared\commandline.c **** }
 1704              		.loc 1 489 5 view .LVU358
 1705              	.LBB48:
 1706              	.LBB49:
 465:C:/Users/²Ü¼ÒºÀ/.iotlink/sdk/IoT_LINK/iot_link/network/lwm2m/wakaama_lwm2m/wakaama-master/examples/shared\commandline.c ****     {
 1707              		.loc 1 465 5 is_stmt 0 view .LVU359
 1708 0000 8629     		cmp	r1, #134
 1709              	.LBE49:
 1710              	.LBE48:
 488:C:/Users/²Ü¼ÒºÀ/.iotlink/sdk/IoT_LINK/iot_link/network/lwm2m/wakaama_lwm2m/wakaama-master/examples/shared\commandline.c ****     fprintf(stream, "%d.%02d (%s)", (status & 0xE0) >> 5, status & 0x1F, prv_status_to_string(statu
 1711              		.loc 1 488 1 view .LVU360
 1712 0002 37B5     		push	{r0, r1, r2, r4, r5, lr}
 1713              	.LCFI27:
 1714              		.cfi_def_cfa_offset 24
 1715              		.cfi_offset 4, -12
ARM GAS  C:\Users\²Ü¼ÒºÀ\AppData\Local\Temp\ccEEsnMs.s 			page 49


 1716              		.cfi_offset 5, -8
 1717              		.cfi_offset 14, -4
 489:C:/Users/²Ü¼ÒºÀ/.iotlink/sdk/IoT_LINK/iot_link/network/lwm2m/wakaama_lwm2m/wakaama-master/examples/shared\commandline.c **** }
 1718              		.loc 1 489 5 view .LVU361
 1719 0004 01F01F03 		and	r3, r1, #31
 1720              	.LVL145:
 1721              	.LBB53:
 1722              	.LBI48:
 463:C:/Users/²Ü¼ÒºÀ/.iotlink/sdk/IoT_LINK/iot_link/network/lwm2m/wakaama_lwm2m/wakaama-master/examples/shared\commandline.c **** {
 1723              		.loc 1 463 20 is_stmt 1 view .LVU362
 1724              	.LBB50:
 465:C:/Users/²Ü¼ÒºÀ/.iotlink/sdk/IoT_LINK/iot_link/network/lwm2m/wakaama_lwm2m/wakaama-master/examples/shared\commandline.c ****     {
 1725              		.loc 1 465 5 view .LVU363
 1726              	.LBE50:
 1727              	.LBE53:
 489:C:/Users/²Ü¼ÒºÀ/.iotlink/sdk/IoT_LINK/iot_link/network/lwm2m/wakaama_lwm2m/wakaama-master/examples/shared\commandline.c **** }
 1728              		.loc 1 489 5 is_stmt 0 view .LVU364
 1729 0008 4FEA5112 		lsr	r2, r1, #5
 1730              	.LBB54:
 1731              	.LBB51:
 465:C:/Users/²Ü¼ÒºÀ/.iotlink/sdk/IoT_LINK/iot_link/network/lwm2m/wakaama_lwm2m/wakaama-master/examples/shared\commandline.c ****     {
 1732              		.loc 1 465 5 view .LVU365
 1733 000c 28D8     		bhi	.L139
 1734 000e 0C06     		lsls	r4, r1, #24
 1735 0010 11D4     		bmi	.L140
 1736 0012 4529     		cmp	r1, #69
 1737 0014 39D8     		bhi	.L154
 1738 0016 4029     		cmp	r1, #64
 1739 0018 18D8     		bhi	.L142
 1740 001a 0029     		cmp	r1, #0
 1741 001c 37D0     		beq	.L155
 1742 001e 214D     		ldr	r5, .L162
 1743 0020 214C     		ldr	r4, .L162+4
 1744 0022 0129     		cmp	r1, #1
 1745 0024 14BF     		ite	ne
 1746 0026 2946     		movne	r1, r5
 1747 0028 2146     		moveq	r1, r4
 1748              	.LVL146:
 1749              	.L141:
 465:C:/Users/²Ü¼ÒºÀ/.iotlink/sdk/IoT_LINK/iot_link/network/lwm2m/wakaama_lwm2m/wakaama-master/examples/shared\commandline.c ****     {
 1750              		.loc 1 465 5 view .LVU366
 1751              	.LBE51:
 1752              	.LBE54:
 489:C:/Users/²Ü¼ÒºÀ/.iotlink/sdk/IoT_LINK/iot_link/network/lwm2m/wakaama_lwm2m/wakaama-master/examples/shared\commandline.c **** }
 1753              		.loc 1 489 5 view .LVU367
 1754 002a 0091     		str	r1, [sp]
 1755 002c 1F49     		ldr	r1, .L162+8
 1756 002e FFF7FEFF 		bl	fprintf
 1757              	.LVL147:
 490:C:/Users/²Ü¼ÒºÀ/.iotlink/sdk/IoT_LINK/iot_link/network/lwm2m/wakaama_lwm2m/wakaama-master/examples/shared\commandline.c **** 
 1758              		.loc 1 490 1 view .LVU368
 1759 0032 03B0     		add	sp, sp, #12
 1760              	.LCFI28:
 1761              		.cfi_remember_state
 1762              		.cfi_def_cfa_offset 12
 1763              		@ sp needed
 1764 0034 30BD     		pop	{r4, r5, pc}
ARM GAS  C:\Users\²Ü¼ÒºÀ\AppData\Local\Temp\ccEEsnMs.s 			page 50


 1765              	.LVL148:
 1766              	.L140:
 1767              	.LCFI29:
 1768              		.cfi_restore_state
 490:C:/Users/²Ü¼ÒºÀ/.iotlink/sdk/IoT_LINK/iot_link/network/lwm2m/wakaama_lwm2m/wakaama-master/examples/shared\commandline.c **** 
 1769              		.loc 1 490 1 view .LVU369
 1770 0036 8039     		subs	r1, r1, #128
 1771              	.LVL149:
 490:C:/Users/²Ü¼ÒºÀ/.iotlink/sdk/IoT_LINK/iot_link/network/lwm2m/wakaama_lwm2m/wakaama-master/examples/shared\commandline.c **** 
 1772              		.loc 1 490 1 view .LVU370
 1773 0038 0629     		cmp	r1, #6
 1774 003a 26D8     		bhi	.L154
 1775 003c DFE801F0 		tbb	[pc, r1]
 1776              	.L145:
 1777 0040 04       		.byte	(.L148-.L145)/2
 1778 0041 29       		.byte	(.L157-.L145)/2
 1779 0042 25       		.byte	(.L154-.L145)/2
 1780 0043 25       		.byte	(.L154-.L145)/2
 1781 0044 1F       		.byte	(.L147-.L145)/2
 1782 0045 21       		.byte	(.L146-.L145)/2
 1783 0046 23       		.byte	(.L144-.L145)/2
 1784 0047 00       		.p2align 1
 1785              	.L148:
 1786              	.LBB55:
 1787              	.LBB52:
 473:C:/Users/²Ü¼ÒºÀ/.iotlink/sdk/IoT_LINK/iot_link/network/lwm2m/wakaama_lwm2m/wakaama-master/examples/shared\commandline.c ****         CODE_TO_STRING(COAP_401_UNAUTHORIZED);
 1788              		.loc 1 473 9 view .LVU371
 1789 0048 1949     		ldr	r1, .L162+12
 1790 004a EEE7     		b	.L141
 1791              	.LVL150:
 1792              	.L142:
 473:C:/Users/²Ü¼ÒºÀ/.iotlink/sdk/IoT_LINK/iot_link/network/lwm2m/wakaama_lwm2m/wakaama-master/examples/shared\commandline.c ****         CODE_TO_STRING(COAP_401_UNAUTHORIZED);
 1793              		.loc 1 473 9 view .LVU372
 1794 004c 4139     		subs	r1, r1, #65
 1795              	.LVL151:
 473:C:/Users/²Ü¼ÒºÀ/.iotlink/sdk/IoT_LINK/iot_link/network/lwm2m/wakaama_lwm2m/wakaama-master/examples/shared\commandline.c ****         CODE_TO_STRING(COAP_401_UNAUTHORIZED);
 1796              		.loc 1 473 9 view .LVU373
 1797 004e 0429     		cmp	r1, #4
 1798 0050 1BD8     		bhi	.L154
 1799 0052 DFE801F0 		tbb	[pc, r1]
 1800              	.L151:
 1801 0056 03       		.byte	(.L153-.L151)/2
 1802 0057 20       		.byte	(.L158-.L151)/2
 1803 0058 1A       		.byte	(.L154-.L151)/2
 1804 0059 10       		.byte	(.L152-.L151)/2
 1805 005a 12       		.byte	(.L150-.L151)/2
 1806 005b 00       		.p2align 1
 1807              	.L153:
 469:C:/Users/²Ü¼ÒºÀ/.iotlink/sdk/IoT_LINK/iot_link/network/lwm2m/wakaama_lwm2m/wakaama-master/examples/shared\commandline.c ****         CODE_TO_STRING(COAP_202_DELETED);
 1808              		.loc 1 469 9 view .LVU374
 1809 005c 1549     		ldr	r1, .L162+16
 1810 005e E4E7     		b	.L141
 1811              	.LVL152:
 1812              	.L139:
 465:C:/Users/²Ü¼ÒºÀ/.iotlink/sdk/IoT_LINK/iot_link/network/lwm2m/wakaama_lwm2m/wakaama-master/examples/shared\commandline.c ****     {
 1813              		.loc 1 465 5 view .LVU375
 1814 0060 A129     		cmp	r1, #161
ARM GAS  C:\Users\²Ü¼ÒºÀ\AppData\Local\Temp\ccEEsnMs.s 			page 51


 1815 0062 1AD0     		beq	.L159
 1816 0064 A329     		cmp	r1, #163
 1817 0066 1AD0     		beq	.L160
 478:C:/Users/²Ü¼ÒºÀ/.iotlink/sdk/IoT_LINK/iot_link/network/lwm2m/wakaama_lwm2m/wakaama-master/examples/shared\commandline.c ****         CODE_TO_STRING(COAP_501_NOT_IMPLEMENTED);
 1818              		.loc 1 478 9 view .LVU376
 1819 0068 0E4D     		ldr	r5, .L162
 1820 006a 134C     		ldr	r4, .L162+20
 1821 006c A029     		cmp	r1, #160
 1822 006e 14BF     		ite	ne
 1823 0070 2946     		movne	r1, r5
 1824 0072 2146     		moveq	r1, r4
 1825              	.LVL153:
 478:C:/Users/²Ü¼ÒºÀ/.iotlink/sdk/IoT_LINK/iot_link/network/lwm2m/wakaama_lwm2m/wakaama-master/examples/shared\commandline.c ****         CODE_TO_STRING(COAP_501_NOT_IMPLEMENTED);
 1826              		.loc 1 478 9 view .LVU377
 1827 0074 D9E7     		b	.L141
 1828              	.L152:
 471:C:/Users/²Ü¼ÒºÀ/.iotlink/sdk/IoT_LINK/iot_link/network/lwm2m/wakaama_lwm2m/wakaama-master/examples/shared\commandline.c ****         CODE_TO_STRING(COAP_205_CONTENT);
 1829              		.loc 1 471 9 is_stmt 1 view .LVU378
 1830 0076 1149     		ldr	r1, .L162+24
 1831 0078 D7E7     		b	.L141
 1832              	.L150:
 472:C:/Users/²Ü¼ÒºÀ/.iotlink/sdk/IoT_LINK/iot_link/network/lwm2m/wakaama_lwm2m/wakaama-master/examples/shared\commandline.c ****         CODE_TO_STRING(COAP_400_BAD_REQUEST);
 1833              		.loc 1 472 9 view .LVU379
 1834 007a 1149     		ldr	r1, .L162+28
 1835 007c D5E7     		b	.L141
 1836              	.L147:
 475:C:/Users/²Ü¼ÒºÀ/.iotlink/sdk/IoT_LINK/iot_link/network/lwm2m/wakaama_lwm2m/wakaama-master/examples/shared\commandline.c ****         CODE_TO_STRING(COAP_405_METHOD_NOT_ALLOWED);
 1837              		.loc 1 475 9 view .LVU380
 1838 007e 1149     		ldr	r1, .L162+32
 1839 0080 D3E7     		b	.L141
 1840              	.L146:
 476:C:/Users/²Ü¼ÒºÀ/.iotlink/sdk/IoT_LINK/iot_link/network/lwm2m/wakaama_lwm2m/wakaama-master/examples/shared\commandline.c ****         CODE_TO_STRING(COAP_406_NOT_ACCEPTABLE);
 1841              		.loc 1 476 9 view .LVU381
 1842 0082 1149     		ldr	r1, .L162+36
 1843 0084 D1E7     		b	.L141
 1844              	.L144:
 477:C:/Users/²Ü¼ÒºÀ/.iotlink/sdk/IoT_LINK/iot_link/network/lwm2m/wakaama_lwm2m/wakaama-master/examples/shared\commandline.c ****         CODE_TO_STRING(COAP_500_INTERNAL_SERVER_ERROR);
 1845              		.loc 1 477 9 view .LVU382
 1846 0086 1149     		ldr	r1, .L162+40
 1847 0088 CFE7     		b	.L141
 1848              	.L154:
 482:C:/Users/²Ü¼ÒºÀ/.iotlink/sdk/IoT_LINK/iot_link/network/lwm2m/wakaama_lwm2m/wakaama-master/examples/shared\commandline.c ****     }
 1849              		.loc 1 482 16 is_stmt 0 view .LVU383
 1850 008a 0649     		ldr	r1, .L162
 1851 008c CDE7     		b	.L141
 1852              	.LVL154:
 1853              	.L155:
 467:C:/Users/²Ü¼ÒºÀ/.iotlink/sdk/IoT_LINK/iot_link/network/lwm2m/wakaama_lwm2m/wakaama-master/examples/shared\commandline.c ****         CODE_TO_STRING(COAP_IGNORE);
 1854              		.loc 1 467 9 view .LVU384
 1855 008e 1049     		ldr	r1, .L162+44
 1856              	.LVL155:
 467:C:/Users/²Ü¼ÒºÀ/.iotlink/sdk/IoT_LINK/iot_link/network/lwm2m/wakaama_lwm2m/wakaama-master/examples/shared\commandline.c ****         CODE_TO_STRING(COAP_IGNORE);
 1857              		.loc 1 467 9 view .LVU385
 1858 0090 CBE7     		b	.L141
 1859              	.L157:
 474:C:/Users/²Ü¼ÒºÀ/.iotlink/sdk/IoT_LINK/iot_link/network/lwm2m/wakaama_lwm2m/wakaama-master/examples/shared\commandline.c ****         CODE_TO_STRING(COAP_404_NOT_FOUND);
 1860              		.loc 1 474 9 view .LVU386
ARM GAS  C:\Users\²Ü¼ÒºÀ\AppData\Local\Temp\ccEEsnMs.s 			page 52


 1861 0092 1049     		ldr	r1, .L162+48
 1862 0094 C9E7     		b	.L141
 1863              	.L158:
 470:C:/Users/²Ü¼ÒºÀ/.iotlink/sdk/IoT_LINK/iot_link/network/lwm2m/wakaama_lwm2m/wakaama-master/examples/shared\commandline.c ****         CODE_TO_STRING(COAP_204_CHANGED);
 1864              		.loc 1 470 9 view .LVU387
 1865 0096 1049     		ldr	r1, .L162+52
 1866 0098 C7E7     		b	.L141
 1867              	.LVL156:
 1868              	.L159:
 479:C:/Users/²Ü¼ÒºÀ/.iotlink/sdk/IoT_LINK/iot_link/network/lwm2m/wakaama_lwm2m/wakaama-master/examples/shared\commandline.c ****         CODE_TO_STRING(COAP_503_SERVICE_UNAVAILABLE);
 1869              		.loc 1 479 9 view .LVU388
 1870 009a 1049     		ldr	r1, .L162+56
 1871              	.LVL157:
 479:C:/Users/²Ü¼ÒºÀ/.iotlink/sdk/IoT_LINK/iot_link/network/lwm2m/wakaama_lwm2m/wakaama-master/examples/shared\commandline.c ****         CODE_TO_STRING(COAP_503_SERVICE_UNAVAILABLE);
 1872              		.loc 1 479 9 view .LVU389
 1873 009c C5E7     		b	.L141
 1874              	.LVL158:
 1875              	.L160:
 480:C:/Users/²Ü¼ÒºÀ/.iotlink/sdk/IoT_LINK/iot_link/network/lwm2m/wakaama_lwm2m/wakaama-master/examples/shared\commandline.c ****     default:
 1876              		.loc 1 480 9 view .LVU390
 1877 009e 1049     		ldr	r1, .L162+60
 1878              	.LVL159:
 480:C:/Users/²Ü¼ÒºÀ/.iotlink/sdk/IoT_LINK/iot_link/network/lwm2m/wakaama_lwm2m/wakaama-master/examples/shared\commandline.c ****     default:
 1879              		.loc 1 480 9 view .LVU391
 1880 00a0 C3E7     		b	.L141
 1881              	.L163:
 1882 00a2 00BF     		.align	2
 1883              	.L162:
 1884 00a4 00000000 		.word	.LC44
 1885 00a8 57000000 		.word	.LC50
 1886 00ac 26010000 		.word	.LC59
 1887 00b0 0F000000 		.word	.LC46
 1888 00b4 DD000000 		.word	.LC56
 1889 00b8 07010000 		.word	.LC58
 1890 00bc 35000000 		.word	.LC48
 1891 00c0 46000000 		.word	.LC49
 1892 00c4 79000000 		.word	.LC52
 1893 00c8 8C000000 		.word	.LC53
 1894 00cc A8000000 		.word	.LC54
 1895 00d0 01000000 		.word	.LC45
 1896 00d4 63000000 		.word	.LC51
 1897 00d8 24000000 		.word	.LC47
 1898 00dc EE000000 		.word	.LC57
 1899 00e0 C0000000 		.word	.LC55
 1900              	.LBE52:
 1901              	.LBE55:
 1902              		.cfi_endproc
 1903              	.LFE17:
 1905              		.section	.text.base64_decode,"ax",%progbits
 1906              		.align	1
 1907              		.global	base64_decode
 1908              		.syntax unified
 1909              		.thumb
 1910              		.thumb_func
 1911              		.fpu fpv4-sp-d16
 1913              	base64_decode:
 1914              	.LVL160:
ARM GAS  C:\Users\²Ü¼ÒºÀ\AppData\Local\Temp\ccEEsnMs.s 			page 53


 1915              	.LFB20:
 525:C:/Users/²Ü¼ÒºÀ/.iotlink/sdk/IoT_LINK/iot_link/network/lwm2m/wakaama_lwm2m/wakaama-master/examples/shared\commandline.c **** 
 526:C:/Users/²Ü¼ÒºÀ/.iotlink/sdk/IoT_LINK/iot_link/network/lwm2m/wakaama_lwm2m/wakaama-master/examples/shared\commandline.c **** static void prv_decodeBlock(uint8_t input[4],
 527:C:/Users/²Ü¼ÒºÀ/.iotlink/sdk/IoT_LINK/iot_link/network/lwm2m/wakaama_lwm2m/wakaama-master/examples/shared\commandline.c ****                             uint8_t output[3])
 528:C:/Users/²Ü¼ÒºÀ/.iotlink/sdk/IoT_LINK/iot_link/network/lwm2m/wakaama_lwm2m/wakaama-master/examples/shared\commandline.c **** {
 529:C:/Users/²Ü¼ÒºÀ/.iotlink/sdk/IoT_LINK/iot_link/network/lwm2m/wakaama_lwm2m/wakaama-master/examples/shared\commandline.c ****     uint8_t tmp[4];
 530:C:/Users/²Ü¼ÒºÀ/.iotlink/sdk/IoT_LINK/iot_link/network/lwm2m/wakaama_lwm2m/wakaama-master/examples/shared\commandline.c ****     int i;
 531:C:/Users/²Ü¼ÒºÀ/.iotlink/sdk/IoT_LINK/iot_link/network/lwm2m/wakaama_lwm2m/wakaama-master/examples/shared\commandline.c **** 
 532:C:/Users/²Ü¼ÒºÀ/.iotlink/sdk/IoT_LINK/iot_link/network/lwm2m/wakaama_lwm2m/wakaama-master/examples/shared\commandline.c ****     memset(output, 0, 3);
 533:C:/Users/²Ü¼ÒºÀ/.iotlink/sdk/IoT_LINK/iot_link/network/lwm2m/wakaama_lwm2m/wakaama-master/examples/shared\commandline.c **** 
 534:C:/Users/²Ü¼ÒºÀ/.iotlink/sdk/IoT_LINK/iot_link/network/lwm2m/wakaama_lwm2m/wakaama-master/examples/shared\commandline.c ****     for (i = 0; i < 4; i++)
 535:C:/Users/²Ü¼ÒºÀ/.iotlink/sdk/IoT_LINK/iot_link/network/lwm2m/wakaama_lwm2m/wakaama-master/examples/shared\commandline.c ****     {
 536:C:/Users/²Ü¼ÒºÀ/.iotlink/sdk/IoT_LINK/iot_link/network/lwm2m/wakaama_lwm2m/wakaama-master/examples/shared\commandline.c ****         tmp[i] = prv_b64Revert(input[i]);
 537:C:/Users/²Ü¼ÒºÀ/.iotlink/sdk/IoT_LINK/iot_link/network/lwm2m/wakaama_lwm2m/wakaama-master/examples/shared\commandline.c ****     }
 538:C:/Users/²Ü¼ÒºÀ/.iotlink/sdk/IoT_LINK/iot_link/network/lwm2m/wakaama_lwm2m/wakaama-master/examples/shared\commandline.c **** 
 539:C:/Users/²Ü¼ÒºÀ/.iotlink/sdk/IoT_LINK/iot_link/network/lwm2m/wakaama_lwm2m/wakaama-master/examples/shared\commandline.c ****     output[0] = (tmp[0] << 2) | (tmp[1] >> 4);
 540:C:/Users/²Ü¼ÒºÀ/.iotlink/sdk/IoT_LINK/iot_link/network/lwm2m/wakaama_lwm2m/wakaama-master/examples/shared\commandline.c ****     output[1] = (tmp[1] << 4) | (tmp[2] >> 2);
 541:C:/Users/²Ü¼ÒºÀ/.iotlink/sdk/IoT_LINK/iot_link/network/lwm2m/wakaama_lwm2m/wakaama-master/examples/shared\commandline.c ****     output[2] = (tmp[2] << 6) | tmp[3];
 542:C:/Users/²Ü¼ÒºÀ/.iotlink/sdk/IoT_LINK/iot_link/network/lwm2m/wakaama_lwm2m/wakaama-master/examples/shared\commandline.c **** }
 543:C:/Users/²Ü¼ÒºÀ/.iotlink/sdk/IoT_LINK/iot_link/network/lwm2m/wakaama_lwm2m/wakaama-master/examples/shared\commandline.c **** 
 544:C:/Users/²Ü¼ÒºÀ/.iotlink/sdk/IoT_LINK/iot_link/network/lwm2m/wakaama_lwm2m/wakaama-master/examples/shared\commandline.c **** size_t base64_decode(uint8_t *dataP,
 545:C:/Users/²Ü¼ÒºÀ/.iotlink/sdk/IoT_LINK/iot_link/network/lwm2m/wakaama_lwm2m/wakaama-master/examples/shared\commandline.c ****                      size_t dataLen,
 546:C:/Users/²Ü¼ÒºÀ/.iotlink/sdk/IoT_LINK/iot_link/network/lwm2m/wakaama_lwm2m/wakaama-master/examples/shared\commandline.c ****                      uint8_t **bufferP)
 547:C:/Users/²Ü¼ÒºÀ/.iotlink/sdk/IoT_LINK/iot_link/network/lwm2m/wakaama_lwm2m/wakaama-master/examples/shared\commandline.c **** {
 1916              		.loc 1 547 1 is_stmt 1 view -0
 1917              		.cfi_startproc
 1918              		@ args = 0, pretend = 0, frame = 24
 1919              		@ frame_needed = 0, uses_anonymous_args = 0
 548:C:/Users/²Ü¼ÒºÀ/.iotlink/sdk/IoT_LINK/iot_link/network/lwm2m/wakaama_lwm2m/wakaama-master/examples/shared\commandline.c ****     size_t data_index;
 1920              		.loc 1 548 5 view .LVU393
 549:C:/Users/²Ü¼ÒºÀ/.iotlink/sdk/IoT_LINK/iot_link/network/lwm2m/wakaama_lwm2m/wakaama-master/examples/shared\commandline.c ****     size_t result_index;
 1921              		.loc 1 549 5 view .LVU394
 550:C:/Users/²Ü¼ÒºÀ/.iotlink/sdk/IoT_LINK/iot_link/network/lwm2m/wakaama_lwm2m/wakaama-master/examples/shared\commandline.c ****     size_t result_len;
 1922              		.loc 1 550 5 view .LVU395
 551:C:/Users/²Ü¼ÒºÀ/.iotlink/sdk/IoT_LINK/iot_link/network/lwm2m/wakaama_lwm2m/wakaama-master/examples/shared\commandline.c **** 
 552:C:/Users/²Ü¼ÒºÀ/.iotlink/sdk/IoT_LINK/iot_link/network/lwm2m/wakaama_lwm2m/wakaama-master/examples/shared\commandline.c ****     if (dataLen % 4) return 0;
 1923              		.loc 1 552 5 view .LVU396
 547:C:/Users/²Ü¼ÒºÀ/.iotlink/sdk/IoT_LINK/iot_link/network/lwm2m/wakaama_lwm2m/wakaama-master/examples/shared\commandline.c ****     size_t data_index;
 1924              		.loc 1 547 1 is_stmt 0 view .LVU397
 1925 0000 2DE9F04F 		push	{r4, r5, r6, r7, r8, r9, r10, fp, lr}
 1926              	.LCFI30:
 1927              		.cfi_def_cfa_offset 36
 1928              		.cfi_offset 4, -36
 1929              		.cfi_offset 5, -32
 1930              		.cfi_offset 6, -28
 1931              		.cfi_offset 7, -24
 1932              		.cfi_offset 8, -20
 1933              		.cfi_offset 9, -16
 1934              		.cfi_offset 10, -12
 1935              		.cfi_offset 11, -8
 1936              		.cfi_offset 14, -4
 1937 0004 8846     		mov	r8, r1
 1938              		.loc 1 552 8 view .LVU398
 1939 0006 11F00301 		ands	r1, r1, #3
 1940              	.LVL161:
 547:C:/Users/²Ü¼ÒºÀ/.iotlink/sdk/IoT_LINK/iot_link/network/lwm2m/wakaama_lwm2m/wakaama-master/examples/shared\commandline.c ****     size_t data_index;
 1941              		.loc 1 547 1 view .LVU399
ARM GAS  C:\Users\²Ü¼ÒºÀ\AppData\Local\Temp\ccEEsnMs.s 			page 54


 1942 000a 87B0     		sub	sp, sp, #28
 1943              	.LCFI31:
 1944              		.cfi_def_cfa_offset 64
 547:C:/Users/²Ü¼ÒºÀ/.iotlink/sdk/IoT_LINK/iot_link/network/lwm2m/wakaama_lwm2m/wakaama-master/examples/shared\commandline.c ****     size_t data_index;
 1945              		.loc 1 547 1 view .LVU400
 1946 000c 0546     		mov	r5, r0
 1947 000e 1646     		mov	r6, r2
 1948              		.loc 1 552 8 view .LVU401
 1949 0010 04D0     		beq	.L165
 1950              	.LVL162:
 1951              	.L167:
 1952              		.loc 1 552 29 view .LVU402
 1953 0012 0024     		movs	r4, #0
 1954              	.LVL163:
 1955              	.L164:
 553:C:/Users/²Ü¼ÒºÀ/.iotlink/sdk/IoT_LINK/iot_link/network/lwm2m/wakaama_lwm2m/wakaama-master/examples/shared\commandline.c **** 
 554:C:/Users/²Ü¼ÒºÀ/.iotlink/sdk/IoT_LINK/iot_link/network/lwm2m/wakaama_lwm2m/wakaama-master/examples/shared\commandline.c ****     result_len = (dataLen >> 2) * 3;
 555:C:/Users/²Ü¼ÒºÀ/.iotlink/sdk/IoT_LINK/iot_link/network/lwm2m/wakaama_lwm2m/wakaama-master/examples/shared\commandline.c ****     *bufferP = (uint8_t *)lwm2m_malloc(result_len);
 556:C:/Users/²Ü¼ÒºÀ/.iotlink/sdk/IoT_LINK/iot_link/network/lwm2m/wakaama_lwm2m/wakaama-master/examples/shared\commandline.c ****     if (NULL == *bufferP) return 0;
 557:C:/Users/²Ü¼ÒºÀ/.iotlink/sdk/IoT_LINK/iot_link/network/lwm2m/wakaama_lwm2m/wakaama-master/examples/shared\commandline.c ****     memset(*bufferP, 0, result_len);
 558:C:/Users/²Ü¼ÒºÀ/.iotlink/sdk/IoT_LINK/iot_link/network/lwm2m/wakaama_lwm2m/wakaama-master/examples/shared\commandline.c **** 
 559:C:/Users/²Ü¼ÒºÀ/.iotlink/sdk/IoT_LINK/iot_link/network/lwm2m/wakaama_lwm2m/wakaama-master/examples/shared\commandline.c ****     // remove padding
 560:C:/Users/²Ü¼ÒºÀ/.iotlink/sdk/IoT_LINK/iot_link/network/lwm2m/wakaama_lwm2m/wakaama-master/examples/shared\commandline.c ****     while (dataP[dataLen - 1] == PRV_B64_PADDING)
 561:C:/Users/²Ü¼ÒºÀ/.iotlink/sdk/IoT_LINK/iot_link/network/lwm2m/wakaama_lwm2m/wakaama-master/examples/shared\commandline.c ****     {
 562:C:/Users/²Ü¼ÒºÀ/.iotlink/sdk/IoT_LINK/iot_link/network/lwm2m/wakaama_lwm2m/wakaama-master/examples/shared\commandline.c ****         dataLen--;
 563:C:/Users/²Ü¼ÒºÀ/.iotlink/sdk/IoT_LINK/iot_link/network/lwm2m/wakaama_lwm2m/wakaama-master/examples/shared\commandline.c ****     }
 564:C:/Users/²Ü¼ÒºÀ/.iotlink/sdk/IoT_LINK/iot_link/network/lwm2m/wakaama_lwm2m/wakaama-master/examples/shared\commandline.c **** 
 565:C:/Users/²Ü¼ÒºÀ/.iotlink/sdk/IoT_LINK/iot_link/network/lwm2m/wakaama_lwm2m/wakaama-master/examples/shared\commandline.c ****     data_index = 0;
 566:C:/Users/²Ü¼ÒºÀ/.iotlink/sdk/IoT_LINK/iot_link/network/lwm2m/wakaama_lwm2m/wakaama-master/examples/shared\commandline.c ****     result_index = 0;
 567:C:/Users/²Ü¼ÒºÀ/.iotlink/sdk/IoT_LINK/iot_link/network/lwm2m/wakaama_lwm2m/wakaama-master/examples/shared\commandline.c ****     while (data_index < dataLen)
 568:C:/Users/²Ü¼ÒºÀ/.iotlink/sdk/IoT_LINK/iot_link/network/lwm2m/wakaama_lwm2m/wakaama-master/examples/shared\commandline.c ****     {
 569:C:/Users/²Ü¼ÒºÀ/.iotlink/sdk/IoT_LINK/iot_link/network/lwm2m/wakaama_lwm2m/wakaama-master/examples/shared\commandline.c ****         prv_decodeBlock(dataP + data_index, *bufferP + result_index);
 570:C:/Users/²Ü¼ÒºÀ/.iotlink/sdk/IoT_LINK/iot_link/network/lwm2m/wakaama_lwm2m/wakaama-master/examples/shared\commandline.c ****         data_index += 4;
 571:C:/Users/²Ü¼ÒºÀ/.iotlink/sdk/IoT_LINK/iot_link/network/lwm2m/wakaama_lwm2m/wakaama-master/examples/shared\commandline.c ****         result_index += 3;
 572:C:/Users/²Ü¼ÒºÀ/.iotlink/sdk/IoT_LINK/iot_link/network/lwm2m/wakaama_lwm2m/wakaama-master/examples/shared\commandline.c ****     }
 573:C:/Users/²Ü¼ÒºÀ/.iotlink/sdk/IoT_LINK/iot_link/network/lwm2m/wakaama_lwm2m/wakaama-master/examples/shared\commandline.c ****     switch (data_index - dataLen)
 574:C:/Users/²Ü¼ÒºÀ/.iotlink/sdk/IoT_LINK/iot_link/network/lwm2m/wakaama_lwm2m/wakaama-master/examples/shared\commandline.c ****     {
 575:C:/Users/²Ü¼ÒºÀ/.iotlink/sdk/IoT_LINK/iot_link/network/lwm2m/wakaama_lwm2m/wakaama-master/examples/shared\commandline.c ****     case 0:
 576:C:/Users/²Ü¼ÒºÀ/.iotlink/sdk/IoT_LINK/iot_link/network/lwm2m/wakaama_lwm2m/wakaama-master/examples/shared\commandline.c ****         break;
 577:C:/Users/²Ü¼ÒºÀ/.iotlink/sdk/IoT_LINK/iot_link/network/lwm2m/wakaama_lwm2m/wakaama-master/examples/shared\commandline.c ****     case 2:
 578:C:/Users/²Ü¼ÒºÀ/.iotlink/sdk/IoT_LINK/iot_link/network/lwm2m/wakaama_lwm2m/wakaama-master/examples/shared\commandline.c ****     {
 579:C:/Users/²Ü¼ÒºÀ/.iotlink/sdk/IoT_LINK/iot_link/network/lwm2m/wakaama_lwm2m/wakaama-master/examples/shared\commandline.c ****         uint8_t tmp[2];
 580:C:/Users/²Ü¼ÒºÀ/.iotlink/sdk/IoT_LINK/iot_link/network/lwm2m/wakaama_lwm2m/wakaama-master/examples/shared\commandline.c **** 
 581:C:/Users/²Ü¼ÒºÀ/.iotlink/sdk/IoT_LINK/iot_link/network/lwm2m/wakaama_lwm2m/wakaama-master/examples/shared\commandline.c ****         tmp[0] = prv_b64Revert(dataP[dataLen - 2]);
 582:C:/Users/²Ü¼ÒºÀ/.iotlink/sdk/IoT_LINK/iot_link/network/lwm2m/wakaama_lwm2m/wakaama-master/examples/shared\commandline.c ****         tmp[1] = prv_b64Revert(dataP[dataLen - 1]);
 583:C:/Users/²Ü¼ÒºÀ/.iotlink/sdk/IoT_LINK/iot_link/network/lwm2m/wakaama_lwm2m/wakaama-master/examples/shared\commandline.c **** 
 584:C:/Users/²Ü¼ÒºÀ/.iotlink/sdk/IoT_LINK/iot_link/network/lwm2m/wakaama_lwm2m/wakaama-master/examples/shared\commandline.c ****         *bufferP[result_index - 3] = (tmp[0] << 2) | (tmp[1] >> 4);
 585:C:/Users/²Ü¼ÒºÀ/.iotlink/sdk/IoT_LINK/iot_link/network/lwm2m/wakaama_lwm2m/wakaama-master/examples/shared\commandline.c ****         *bufferP[result_index - 2] = (tmp[1] << 4);
 586:C:/Users/²Ü¼ÒºÀ/.iotlink/sdk/IoT_LINK/iot_link/network/lwm2m/wakaama_lwm2m/wakaama-master/examples/shared\commandline.c ****         result_len -= 2;
 587:C:/Users/²Ü¼ÒºÀ/.iotlink/sdk/IoT_LINK/iot_link/network/lwm2m/wakaama_lwm2m/wakaama-master/examples/shared\commandline.c ****     }
 588:C:/Users/²Ü¼ÒºÀ/.iotlink/sdk/IoT_LINK/iot_link/network/lwm2m/wakaama_lwm2m/wakaama-master/examples/shared\commandline.c ****     break;
 589:C:/Users/²Ü¼ÒºÀ/.iotlink/sdk/IoT_LINK/iot_link/network/lwm2m/wakaama_lwm2m/wakaama-master/examples/shared\commandline.c ****     case 3:
 590:C:/Users/²Ü¼ÒºÀ/.iotlink/sdk/IoT_LINK/iot_link/network/lwm2m/wakaama_lwm2m/wakaama-master/examples/shared\commandline.c ****     {
 591:C:/Users/²Ü¼ÒºÀ/.iotlink/sdk/IoT_LINK/iot_link/network/lwm2m/wakaama_lwm2m/wakaama-master/examples/shared\commandline.c ****         uint8_t tmp[3];
 592:C:/Users/²Ü¼ÒºÀ/.iotlink/sdk/IoT_LINK/iot_link/network/lwm2m/wakaama_lwm2m/wakaama-master/examples/shared\commandline.c **** 
 593:C:/Users/²Ü¼ÒºÀ/.iotlink/sdk/IoT_LINK/iot_link/network/lwm2m/wakaama_lwm2m/wakaama-master/examples/shared\commandline.c ****         tmp[0] = prv_b64Revert(dataP[dataLen - 3]);
 594:C:/Users/²Ü¼ÒºÀ/.iotlink/sdk/IoT_LINK/iot_link/network/lwm2m/wakaama_lwm2m/wakaama-master/examples/shared\commandline.c ****         tmp[1] = prv_b64Revert(dataP[dataLen - 2]);
ARM GAS  C:\Users\²Ü¼ÒºÀ\AppData\Local\Temp\ccEEsnMs.s 			page 55


 595:C:/Users/²Ü¼ÒºÀ/.iotlink/sdk/IoT_LINK/iot_link/network/lwm2m/wakaama_lwm2m/wakaama-master/examples/shared\commandline.c ****         tmp[2] = prv_b64Revert(dataP[dataLen - 1]);
 596:C:/Users/²Ü¼ÒºÀ/.iotlink/sdk/IoT_LINK/iot_link/network/lwm2m/wakaama_lwm2m/wakaama-master/examples/shared\commandline.c **** 
 597:C:/Users/²Ü¼ÒºÀ/.iotlink/sdk/IoT_LINK/iot_link/network/lwm2m/wakaama_lwm2m/wakaama-master/examples/shared\commandline.c ****         *bufferP[result_index - 3] = (tmp[0] << 2) | (tmp[1] >> 4);
 598:C:/Users/²Ü¼ÒºÀ/.iotlink/sdk/IoT_LINK/iot_link/network/lwm2m/wakaama_lwm2m/wakaama-master/examples/shared\commandline.c ****         *bufferP[result_index - 2] = (tmp[1] << 4) | (tmp[2] >> 2);
 599:C:/Users/²Ü¼ÒºÀ/.iotlink/sdk/IoT_LINK/iot_link/network/lwm2m/wakaama_lwm2m/wakaama-master/examples/shared\commandline.c ****         *bufferP[result_index - 1] = (tmp[2] << 6);
 600:C:/Users/²Ü¼ÒºÀ/.iotlink/sdk/IoT_LINK/iot_link/network/lwm2m/wakaama_lwm2m/wakaama-master/examples/shared\commandline.c ****         result_len -= 1;
 601:C:/Users/²Ü¼ÒºÀ/.iotlink/sdk/IoT_LINK/iot_link/network/lwm2m/wakaama_lwm2m/wakaama-master/examples/shared\commandline.c ****     }
 602:C:/Users/²Ü¼ÒºÀ/.iotlink/sdk/IoT_LINK/iot_link/network/lwm2m/wakaama_lwm2m/wakaama-master/examples/shared\commandline.c ****     break;
 603:C:/Users/²Ü¼ÒºÀ/.iotlink/sdk/IoT_LINK/iot_link/network/lwm2m/wakaama_lwm2m/wakaama-master/examples/shared\commandline.c ****     default:
 604:C:/Users/²Ü¼ÒºÀ/.iotlink/sdk/IoT_LINK/iot_link/network/lwm2m/wakaama_lwm2m/wakaama-master/examples/shared\commandline.c ****         // error
 605:C:/Users/²Ü¼ÒºÀ/.iotlink/sdk/IoT_LINK/iot_link/network/lwm2m/wakaama_lwm2m/wakaama-master/examples/shared\commandline.c ****         lwm2m_free(*bufferP);
 606:C:/Users/²Ü¼ÒºÀ/.iotlink/sdk/IoT_LINK/iot_link/network/lwm2m/wakaama_lwm2m/wakaama-master/examples/shared\commandline.c ****         *bufferP = NULL;
 607:C:/Users/²Ü¼ÒºÀ/.iotlink/sdk/IoT_LINK/iot_link/network/lwm2m/wakaama_lwm2m/wakaama-master/examples/shared\commandline.c ****         result_len = 0;
 608:C:/Users/²Ü¼ÒºÀ/.iotlink/sdk/IoT_LINK/iot_link/network/lwm2m/wakaama_lwm2m/wakaama-master/examples/shared\commandline.c ****         break;
 609:C:/Users/²Ü¼ÒºÀ/.iotlink/sdk/IoT_LINK/iot_link/network/lwm2m/wakaama_lwm2m/wakaama-master/examples/shared\commandline.c ****     }
 610:C:/Users/²Ü¼ÒºÀ/.iotlink/sdk/IoT_LINK/iot_link/network/lwm2m/wakaama_lwm2m/wakaama-master/examples/shared\commandline.c **** 
 611:C:/Users/²Ü¼ÒºÀ/.iotlink/sdk/IoT_LINK/iot_link/network/lwm2m/wakaama_lwm2m/wakaama-master/examples/shared\commandline.c ****     return result_len;
 612:C:/Users/²Ü¼ÒºÀ/.iotlink/sdk/IoT_LINK/iot_link/network/lwm2m/wakaama_lwm2m/wakaama-master/examples/shared\commandline.c **** }
 1956              		.loc 1 612 1 view .LVU403
 1957 0014 2046     		mov	r0, r4
 1958 0016 07B0     		add	sp, sp, #28
 1959              	.LCFI32:
 1960              		.cfi_remember_state
 1961              		.cfi_def_cfa_offset 36
 1962              		@ sp needed
 1963 0018 BDE8F08F 		pop	{r4, r5, r6, r7, r8, r9, r10, fp, pc}
 1964              	.LVL164:
 1965              	.L165:
 1966              	.LCFI33:
 1967              		.cfi_restore_state
 554:C:/Users/²Ü¼ÒºÀ/.iotlink/sdk/IoT_LINK/iot_link/network/lwm2m/wakaama_lwm2m/wakaama-master/examples/shared\commandline.c ****     *bufferP = (uint8_t *)lwm2m_malloc(result_len);
 1968              		.loc 1 554 27 view .LVU404
 1969 001c 4FEA9804 		lsr	r4, r8, #2
 554:C:/Users/²Ü¼ÒºÀ/.iotlink/sdk/IoT_LINK/iot_link/network/lwm2m/wakaama_lwm2m/wakaama-master/examples/shared\commandline.c ****     *bufferP = (uint8_t *)lwm2m_malloc(result_len);
 1970              		.loc 1 554 16 view .LVU405
 1971 0020 04EB4404 		add	r4, r4, r4, lsl #1
 555:C:/Users/²Ü¼ÒºÀ/.iotlink/sdk/IoT_LINK/iot_link/network/lwm2m/wakaama_lwm2m/wakaama-master/examples/shared\commandline.c ****     if (NULL == *bufferP) return 0;
 1972              		.loc 1 555 27 view .LVU406
 1973 0024 2046     		mov	r0, r4
 1974              	.LVL165:
 555:C:/Users/²Ü¼ÒºÀ/.iotlink/sdk/IoT_LINK/iot_link/network/lwm2m/wakaama_lwm2m/wakaama-master/examples/shared\commandline.c ****     if (NULL == *bufferP) return 0;
 1975              		.loc 1 555 27 view .LVU407
 1976 0026 0191     		str	r1, [sp, #4]
 554:C:/Users/²Ü¼ÒºÀ/.iotlink/sdk/IoT_LINK/iot_link/network/lwm2m/wakaama_lwm2m/wakaama-master/examples/shared\commandline.c ****     *bufferP = (uint8_t *)lwm2m_malloc(result_len);
 1977              		.loc 1 554 5 is_stmt 1 view .LVU408
 1978              	.LVL166:
 555:C:/Users/²Ü¼ÒºÀ/.iotlink/sdk/IoT_LINK/iot_link/network/lwm2m/wakaama_lwm2m/wakaama-master/examples/shared\commandline.c ****     if (NULL == *bufferP) return 0;
 1979              		.loc 1 555 5 view .LVU409
 555:C:/Users/²Ü¼ÒºÀ/.iotlink/sdk/IoT_LINK/iot_link/network/lwm2m/wakaama_lwm2m/wakaama-master/examples/shared\commandline.c ****     if (NULL == *bufferP) return 0;
 1980              		.loc 1 555 27 is_stmt 0 view .LVU410
 1981 0028 FFF7FEFF 		bl	lwm2m_malloc
 1982              	.LVL167:
 555:C:/Users/²Ü¼ÒºÀ/.iotlink/sdk/IoT_LINK/iot_link/network/lwm2m/wakaama_lwm2m/wakaama-master/examples/shared\commandline.c ****     if (NULL == *bufferP) return 0;
 1983              		.loc 1 555 14 view .LVU411
 1984 002c 3060     		str	r0, [r6]
 556:C:/Users/²Ü¼ÒºÀ/.iotlink/sdk/IoT_LINK/iot_link/network/lwm2m/wakaama_lwm2m/wakaama-master/examples/shared\commandline.c ****     memset(*bufferP, 0, result_len);
 1985              		.loc 1 556 5 is_stmt 1 view .LVU412
ARM GAS  C:\Users\²Ü¼ÒºÀ\AppData\Local\Temp\ccEEsnMs.s 			page 56


 556:C:/Users/²Ü¼ÒºÀ/.iotlink/sdk/IoT_LINK/iot_link/network/lwm2m/wakaama_lwm2m/wakaama-master/examples/shared\commandline.c ****     memset(*bufferP, 0, result_len);
 1986              		.loc 1 556 8 is_stmt 0 view .LVU413
 1987 002e 0028     		cmp	r0, #0
 1988 0030 EFD0     		beq	.L167
 557:C:/Users/²Ü¼ÒºÀ/.iotlink/sdk/IoT_LINK/iot_link/network/lwm2m/wakaama_lwm2m/wakaama-master/examples/shared\commandline.c **** 
 1989              		.loc 1 557 5 is_stmt 1 view .LVU414
 1990 0032 0199     		ldr	r1, [sp, #4]
 1991 0034 2246     		mov	r2, r4
 1992 0036 FFF7FEFF 		bl	memset
 1993              	.LVL168:
 560:C:/Users/²Ü¼ÒºÀ/.iotlink/sdk/IoT_LINK/iot_link/network/lwm2m/wakaama_lwm2m/wakaama-master/examples/shared\commandline.c ****     {
 1994              		.loc 1 560 5 view .LVU415
 1995              	.L168:
 560:C:/Users/²Ü¼ÒºÀ/.iotlink/sdk/IoT_LINK/iot_link/network/lwm2m/wakaama_lwm2m/wakaama-master/examples/shared\commandline.c ****     {
 1996              		.loc 1 560 11 view .LVU416
 1997 003a 4746     		mov	r7, r8
 560:C:/Users/²Ü¼ÒºÀ/.iotlink/sdk/IoT_LINK/iot_link/network/lwm2m/wakaama_lwm2m/wakaama-master/examples/shared\commandline.c ****     {
 1998              		.loc 1 560 17 is_stmt 0 view .LVU417
 1999 003c 08F1FF38 		add	r8, r8, #-1
 2000              	.LVL169:
 560:C:/Users/²Ü¼ÒºÀ/.iotlink/sdk/IoT_LINK/iot_link/network/lwm2m/wakaama_lwm2m/wakaama-master/examples/shared\commandline.c ****     {
 2001              		.loc 1 560 17 view .LVU418
 2002 0040 08EB0503 		add	r3, r8, r5
 2003 0044 0193     		str	r3, [sp, #4]
 560:C:/Users/²Ü¼ÒºÀ/.iotlink/sdk/IoT_LINK/iot_link/network/lwm2m/wakaama_lwm2m/wakaama-master/examples/shared\commandline.c ****     {
 2004              		.loc 1 560 11 view .LVU419
 2005 0046 15F80830 		ldrb	r3, [r5, r8]	@ zero_extendqisi2
 2006 004a 3D2B     		cmp	r3, #61
 2007 004c F5D0     		beq	.L168
 566:C:/Users/²Ü¼ÒºÀ/.iotlink/sdk/IoT_LINK/iot_link/network/lwm2m/wakaama_lwm2m/wakaama-master/examples/shared\commandline.c ****     while (data_index < dataLen)
 2008              		.loc 1 566 18 view .LVU420
 2009 004e 0021     		movs	r1, #0
 2010              	.LBB60:
 2011              	.LBB61:
 534:C:/Users/²Ü¼ÒºÀ/.iotlink/sdk/IoT_LINK/iot_link/network/lwm2m/wakaama_lwm2m/wakaama-master/examples/shared\commandline.c ****     {
 2012              		.loc 1 534 5 view .LVU421
 2013 0050 2B1D     		adds	r3, r5, #4
 2014              	.LBE61:
 2015              	.LBE60:
 565:C:/Users/²Ü¼ÒºÀ/.iotlink/sdk/IoT_LINK/iot_link/network/lwm2m/wakaama_lwm2m/wakaama-master/examples/shared\commandline.c ****     result_index = 0;
 2016              		.loc 1 565 16 view .LVU422
 2017 0052 0A46     		mov	r2, r1
 2018              	.LBB65:
 2019              	.LBB62:
 532:C:/Users/²Ü¼ÒºÀ/.iotlink/sdk/IoT_LINK/iot_link/network/lwm2m/wakaama_lwm2m/wakaama-master/examples/shared\commandline.c **** 
 2020              		.loc 1 532 5 view .LVU423
 2021 0054 8A46     		mov	r10, r1
 534:C:/Users/²Ü¼ÒºÀ/.iotlink/sdk/IoT_LINK/iot_link/network/lwm2m/wakaama_lwm2m/wakaama-master/examples/shared\commandline.c ****     {
 2022              		.loc 1 534 5 view .LVU424
 2023 0056 0293     		str	r3, [sp, #8]
 2024              	.L169:
 2025              	.LVL170:
 534:C:/Users/²Ü¼ÒºÀ/.iotlink/sdk/IoT_LINK/iot_link/network/lwm2m/wakaama_lwm2m/wakaama-master/examples/shared\commandline.c ****     {
 2026              		.loc 1 534 5 view .LVU425
 2027              	.LBE62:
 2028              	.LBE65:
 567:C:/Users/²Ü¼ÒºÀ/.iotlink/sdk/IoT_LINK/iot_link/network/lwm2m/wakaama_lwm2m/wakaama-master/examples/shared\commandline.c ****     {
ARM GAS  C:\Users\²Ü¼ÒºÀ\AppData\Local\Temp\ccEEsnMs.s 			page 57


 2029              		.loc 1 567 11 is_stmt 1 view .LVU426
 2030 0058 9742     		cmp	r7, r2
 2031 005a 0CD8     		bhi	.L171
 573:C:/Users/²Ü¼ÒºÀ/.iotlink/sdk/IoT_LINK/iot_link/network/lwm2m/wakaama_lwm2m/wakaama-master/examples/shared\commandline.c ****     {
 2032              		.loc 1 573 5 view .LVU427
 573:C:/Users/²Ü¼ÒºÀ/.iotlink/sdk/IoT_LINK/iot_link/network/lwm2m/wakaama_lwm2m/wakaama-master/examples/shared\commandline.c ****     {
 2033              		.loc 1 573 24 is_stmt 0 view .LVU428
 2034 005c D21B     		subs	r2, r2, r7
 2035              	.LVL171:
 573:C:/Users/²Ü¼ÒºÀ/.iotlink/sdk/IoT_LINK/iot_link/network/lwm2m/wakaama_lwm2m/wakaama-master/examples/shared\commandline.c ****     {
 2036              		.loc 1 573 5 view .LVU429
 2037 005e 022A     		cmp	r2, #2
 2038 0060 3BD0     		beq	.L172
 2039 0062 032A     		cmp	r2, #3
 2040 0064 53D0     		beq	.L173
 2041 0066 002A     		cmp	r2, #0
 2042 0068 D4D0     		beq	.L164
 605:C:/Users/²Ü¼ÒºÀ/.iotlink/sdk/IoT_LINK/iot_link/network/lwm2m/wakaama_lwm2m/wakaama-master/examples/shared\commandline.c ****         *bufferP = NULL;
 2043              		.loc 1 605 9 is_stmt 1 view .LVU430
 2044 006a 3068     		ldr	r0, [r6]
 606:C:/Users/²Ü¼ÒºÀ/.iotlink/sdk/IoT_LINK/iot_link/network/lwm2m/wakaama_lwm2m/wakaama-master/examples/shared\commandline.c ****         result_len = 0;
 2045              		.loc 1 606 18 is_stmt 0 view .LVU431
 2046 006c 0024     		movs	r4, #0
 2047              	.LVL172:
 605:C:/Users/²Ü¼ÒºÀ/.iotlink/sdk/IoT_LINK/iot_link/network/lwm2m/wakaama_lwm2m/wakaama-master/examples/shared\commandline.c ****         *bufferP = NULL;
 2048              		.loc 1 605 9 view .LVU432
 2049 006e FFF7FEFF 		bl	lwm2m_free
 2050              	.LVL173:
 606:C:/Users/²Ü¼ÒºÀ/.iotlink/sdk/IoT_LINK/iot_link/network/lwm2m/wakaama_lwm2m/wakaama-master/examples/shared\commandline.c ****         result_len = 0;
 2051              		.loc 1 606 9 is_stmt 1 view .LVU433
 606:C:/Users/²Ü¼ÒºÀ/.iotlink/sdk/IoT_LINK/iot_link/network/lwm2m/wakaama_lwm2m/wakaama-master/examples/shared\commandline.c ****         result_len = 0;
 2052              		.loc 1 606 18 is_stmt 0 view .LVU434
 2053 0072 3460     		str	r4, [r6]
 607:C:/Users/²Ü¼ÒºÀ/.iotlink/sdk/IoT_LINK/iot_link/network/lwm2m/wakaama_lwm2m/wakaama-master/examples/shared\commandline.c ****         break;
 2054              		.loc 1 607 9 is_stmt 1 view .LVU435
 2055              	.LVL174:
 608:C:/Users/²Ü¼ÒºÀ/.iotlink/sdk/IoT_LINK/iot_link/network/lwm2m/wakaama_lwm2m/wakaama-master/examples/shared\commandline.c ****     }
 2056              		.loc 1 608 9 view .LVU436
 608:C:/Users/²Ü¼ÒºÀ/.iotlink/sdk/IoT_LINK/iot_link/network/lwm2m/wakaama_lwm2m/wakaama-master/examples/shared\commandline.c ****     }
 2057              		.loc 1 608 9 is_stmt 0 view .LVU437
 2058 0074 CEE7     		b	.L164
 2059              	.LVL175:
 2060              	.L171:
 569:C:/Users/²Ü¼ÒºÀ/.iotlink/sdk/IoT_LINK/iot_link/network/lwm2m/wakaama_lwm2m/wakaama-master/examples/shared\commandline.c ****         data_index += 4;
 2061              		.loc 1 569 9 is_stmt 1 view .LVU438
 2062 0076 3368     		ldr	r3, [r6]
 2063              	.LBB66:
 2064              	.LBB63:
 532:C:/Users/²Ü¼ÒºÀ/.iotlink/sdk/IoT_LINK/iot_link/network/lwm2m/wakaama_lwm2m/wakaama-master/examples/shared\commandline.c **** 
 2065              		.loc 1 532 5 is_stmt 0 view .LVU439
 2066 0078 23F801A0 		strh	r10, [r3, r1]	@ unaligned
 2067              	.LBE63:
 2068              	.LBE66:
 569:C:/Users/²Ü¼ÒºÀ/.iotlink/sdk/IoT_LINK/iot_link/network/lwm2m/wakaama_lwm2m/wakaama-master/examples/shared\commandline.c ****         data_index += 4;
 2069              		.loc 1 569 9 view .LVU440
 2070 007c 03EB0108 		add	r8, r3, r1
 2071              	.LVL176:
ARM GAS  C:\Users\²Ü¼ÒºÀ\AppData\Local\Temp\ccEEsnMs.s 			page 58


 2072              	.LBB67:
 2073              	.LBI60:
 526:C:/Users/²Ü¼ÒºÀ/.iotlink/sdk/IoT_LINK/iot_link/network/lwm2m/wakaama_lwm2m/wakaama-master/examples/shared\commandline.c ****                             uint8_t output[3])
 2074              		.loc 1 526 13 is_stmt 1 view .LVU441
 2075              	.LBB64:
 529:C:/Users/²Ü¼ÒºÀ/.iotlink/sdk/IoT_LINK/iot_link/network/lwm2m/wakaama_lwm2m/wakaama-master/examples/shared\commandline.c ****     int i;
 2076              		.loc 1 529 5 view .LVU442
 530:C:/Users/²Ü¼ÒºÀ/.iotlink/sdk/IoT_LINK/iot_link/network/lwm2m/wakaama_lwm2m/wakaama-master/examples/shared\commandline.c **** 
 2077              		.loc 1 530 5 view .LVU443
 532:C:/Users/²Ü¼ÒºÀ/.iotlink/sdk/IoT_LINK/iot_link/network/lwm2m/wakaama_lwm2m/wakaama-master/examples/shared\commandline.c **** 
 2078              		.loc 1 532 5 view .LVU444
 534:C:/Users/²Ü¼ÒºÀ/.iotlink/sdk/IoT_LINK/iot_link/network/lwm2m/wakaama_lwm2m/wakaama-master/examples/shared\commandline.c ****     {
 2079              		.loc 1 534 5 is_stmt 0 view .LVU445
 2080 0080 029B     		ldr	r3, [sp, #8]
 532:C:/Users/²Ü¼ÒºÀ/.iotlink/sdk/IoT_LINK/iot_link/network/lwm2m/wakaama_lwm2m/wakaama-master/examples/shared\commandline.c **** 
 2081              		.loc 1 532 5 view .LVU446
 2082 0082 88F802A0 		strb	r10, [r8, #2]
 534:C:/Users/²Ü¼ÒºÀ/.iotlink/sdk/IoT_LINK/iot_link/network/lwm2m/wakaama_lwm2m/wakaama-master/examples/shared\commandline.c ****     {
 2083              		.loc 1 534 5 is_stmt 1 view .LVU447
 2084              	.LVL177:
 534:C:/Users/²Ü¼ÒºÀ/.iotlink/sdk/IoT_LINK/iot_link/network/lwm2m/wakaama_lwm2m/wakaama-master/examples/shared\commandline.c ****     {
 2085              		.loc 1 534 17 view .LVU448
 2086 0086 05EB0209 		add	r9, r5, r2
 2087              	.LVL178:
 534:C:/Users/²Ü¼ÒºÀ/.iotlink/sdk/IoT_LINK/iot_link/network/lwm2m/wakaama_lwm2m/wakaama-master/examples/shared\commandline.c ****     {
 2088              		.loc 1 534 17 is_stmt 0 view .LVU449
 2089 008a 0DF1140B 		add	fp, sp, #20
 534:C:/Users/²Ü¼ÒºÀ/.iotlink/sdk/IoT_LINK/iot_link/network/lwm2m/wakaama_lwm2m/wakaama-master/examples/shared\commandline.c ****     {
 2090              		.loc 1 534 5 view .LVU450
 2091 008e 1344     		add	r3, r3, r2
 2092              	.LVL179:
 2093              	.L170:
 536:C:/Users/²Ü¼ÒºÀ/.iotlink/sdk/IoT_LINK/iot_link/network/lwm2m/wakaama_lwm2m/wakaama-master/examples/shared\commandline.c ****     }
 2094              		.loc 1 536 18 view .LVU451
 2095 0090 19F8010B 		ldrb	r0, [r9], #1	@ zero_extendqisi2
 2096 0094 0393     		str	r3, [sp, #12]
 536:C:/Users/²Ü¼ÒºÀ/.iotlink/sdk/IoT_LINK/iot_link/network/lwm2m/wakaama_lwm2m/wakaama-master/examples/shared\commandline.c ****     }
 2097              		.loc 1 536 9 is_stmt 1 view .LVU452
 536:C:/Users/²Ü¼ÒºÀ/.iotlink/sdk/IoT_LINK/iot_link/network/lwm2m/wakaama_lwm2m/wakaama-master/examples/shared\commandline.c ****     }
