ARM GAS  C:\Users\²Ü¼ÒºÀ\AppData\Local\Temp\ccNEdvd8.s 			page 1


   1              		.cpu cortex-m4
   2              		.eabi_attribute 27, 1
   3              		.eabi_attribute 28, 1
   4              		.eabi_attribute 20, 1
   5              		.eabi_attribute 21, 1
   6              		.eabi_attribute 23, 3
   7              		.eabi_attribute 24, 1
   8              		.eabi_attribute 25, 1
   9              		.eabi_attribute 26, 1
  10              		.eabi_attribute 30, 4
  11              		.eabi_attribute 34, 1
  12              		.eabi_attribute 18, 4
  13              		.file	"stm32l4xx_hal_flash_ramfunc.c"
  14              		.text
  15              	.Ltext0:
  16              		.cfi_sections	.debug_frame
  17              		.section	.RamFunc,"ax",%progbits
  18              		.align	1
  19              		.global	HAL_FLASHEx_EnableRunPowerDown
  20              		.arch armv7e-m
  21              		.syntax unified
  22              		.thumb
  23              		.thumb_func
  24              		.fpu fpv4-sp-d16
  26              	HAL_FLASHEx_EnableRunPowerDown:
  27              	.LFB287:
  28              		.file 1 "C:/Users/\262\334\274\322\272\300/.iotlink/sdk/IoT_LINK/drivers/third_party/ST/STM32L4xx_
   1:C:/Users/²Ü¼ÒºÀ/.iotlink/sdk/IoT_LINK/drivers/third_party/ST/STM32L4xx_HAL_Driver/Src\stm32l4xx_hal_flash_ramfunc.c **** /**
   2:C:/Users/²Ü¼ÒºÀ/.iotlink/sdk/IoT_LINK/drivers/third_party/ST/STM32L4xx_HAL_Driver/Src\stm32l4xx_hal_flash_ramfunc.c ****   ******************************************************************************
   3:C:/Users/²Ü¼ÒºÀ/.iotlink/sdk/IoT_LINK/drivers/third_party/ST/STM32L4xx_HAL_Driver/Src\stm32l4xx_hal_flash_ramfunc.c ****   * @file    stm32l4xx_hal_flash_ramfunc.c
   4:C:/Users/²Ü¼ÒºÀ/.iotlink/sdk/IoT_LINK/drivers/third_party/ST/STM32L4xx_HAL_Driver/Src\stm32l4xx_hal_flash_ramfunc.c ****   * @author  MCD Application Team
   5:C:/Users/²Ü¼ÒºÀ/.iotlink/sdk/IoT_LINK/drivers/third_party/ST/STM32L4xx_HAL_Driver/Src\stm32l4xx_hal_flash_ramfunc.c ****   * @brief   FLASH RAMFUNC driver.
   6:C:/Users/²Ü¼ÒºÀ/.iotlink/sdk/IoT_LINK/drivers/third_party/ST/STM32L4xx_HAL_Driver/Src\stm32l4xx_hal_flash_ramfunc.c ****   *          This file provides a Flash firmware functions which should be 
   7:C:/Users/²Ü¼ÒºÀ/.iotlink/sdk/IoT_LINK/drivers/third_party/ST/STM32L4xx_HAL_Driver/Src\stm32l4xx_hal_flash_ramfunc.c ****   *          executed from internal SRAM
   8:C:/Users/²Ü¼ÒºÀ/.iotlink/sdk/IoT_LINK/drivers/third_party/ST/STM32L4xx_HAL_Driver/Src\stm32l4xx_hal_flash_ramfunc.c ****   *            + FLASH HalfPage Programming
   9:C:/Users/²Ü¼ÒºÀ/.iotlink/sdk/IoT_LINK/drivers/third_party/ST/STM32L4xx_HAL_Driver/Src\stm32l4xx_hal_flash_ramfunc.c ****   *            + FLASH Power Down in Run mode
  10:C:/Users/²Ü¼ÒºÀ/.iotlink/sdk/IoT_LINK/drivers/third_party/ST/STM32L4xx_HAL_Driver/Src\stm32l4xx_hal_flash_ramfunc.c ****   *
  11:C:/Users/²Ü¼ÒºÀ/.iotlink/sdk/IoT_LINK/drivers/third_party/ST/STM32L4xx_HAL_Driver/Src\stm32l4xx_hal_flash_ramfunc.c ****   *  @verbatim
  12:C:/Users/²Ü¼ÒºÀ/.iotlink/sdk/IoT_LINK/drivers/third_party/ST/STM32L4xx_HAL_Driver/Src\stm32l4xx_hal_flash_ramfunc.c ****   ==============================================================================
  13:C:/Users/²Ü¼ÒºÀ/.iotlink/sdk/IoT_LINK/drivers/third_party/ST/STM32L4xx_HAL_Driver/Src\stm32l4xx_hal_flash_ramfunc.c ****                    ##### Flash RAM functions #####
  14:C:/Users/²Ü¼ÒºÀ/.iotlink/sdk/IoT_LINK/drivers/third_party/ST/STM32L4xx_HAL_Driver/Src\stm32l4xx_hal_flash_ramfunc.c ****   ==============================================================================    
  15:C:/Users/²Ü¼ÒºÀ/.iotlink/sdk/IoT_LINK/drivers/third_party/ST/STM32L4xx_HAL_Driver/Src\stm32l4xx_hal_flash_ramfunc.c **** 
  16:C:/Users/²Ü¼ÒºÀ/.iotlink/sdk/IoT_LINK/drivers/third_party/ST/STM32L4xx_HAL_Driver/Src\stm32l4xx_hal_flash_ramfunc.c ****     *** ARM Compiler ***
  17:C:/Users/²Ü¼ÒºÀ/.iotlink/sdk/IoT_LINK/drivers/third_party/ST/STM32L4xx_HAL_Driver/Src\stm32l4xx_hal_flash_ramfunc.c ****     --------------------
  18:C:/Users/²Ü¼ÒºÀ/.iotlink/sdk/IoT_LINK/drivers/third_party/ST/STM32L4xx_HAL_Driver/Src\stm32l4xx_hal_flash_ramfunc.c ****     [..] RAM functions are defined using the toolchain options. 
  19:C:/Users/²Ü¼ÒºÀ/.iotlink/sdk/IoT_LINK/drivers/third_party/ST/STM32L4xx_HAL_Driver/Src\stm32l4xx_hal_flash_ramfunc.c ****          Functions that are executed in RAM should reside in a separate
  20:C:/Users/²Ü¼ÒºÀ/.iotlink/sdk/IoT_LINK/drivers/third_party/ST/STM32L4xx_HAL_Driver/Src\stm32l4xx_hal_flash_ramfunc.c ****          source module. Using the 'Options for File' dialog you can simply change
  21:C:/Users/²Ü¼ÒºÀ/.iotlink/sdk/IoT_LINK/drivers/third_party/ST/STM32L4xx_HAL_Driver/Src\stm32l4xx_hal_flash_ramfunc.c ****          the 'Code / Const' area of a module to a memory space in physical RAM.
  22:C:/Users/²Ü¼ÒºÀ/.iotlink/sdk/IoT_LINK/drivers/third_party/ST/STM32L4xx_HAL_Driver/Src\stm32l4xx_hal_flash_ramfunc.c ****          Available memory areas are declared in the 'Target' tab of the 
  23:C:/Users/²Ü¼ÒºÀ/.iotlink/sdk/IoT_LINK/drivers/third_party/ST/STM32L4xx_HAL_Driver/Src\stm32l4xx_hal_flash_ramfunc.c ****          Options for Target' dialog.
  24:C:/Users/²Ü¼ÒºÀ/.iotlink/sdk/IoT_LINK/drivers/third_party/ST/STM32L4xx_HAL_Driver/Src\stm32l4xx_hal_flash_ramfunc.c **** 
  25:C:/Users/²Ü¼ÒºÀ/.iotlink/sdk/IoT_LINK/drivers/third_party/ST/STM32L4xx_HAL_Driver/Src\stm32l4xx_hal_flash_ramfunc.c ****     *** ICCARM Compiler ***
  26:C:/Users/²Ü¼ÒºÀ/.iotlink/sdk/IoT_LINK/drivers/third_party/ST/STM32L4xx_HAL_Driver/Src\stm32l4xx_hal_flash_ramfunc.c ****     -----------------------
  27:C:/Users/²Ü¼ÒºÀ/.iotlink/sdk/IoT_LINK/drivers/third_party/ST/STM32L4xx_HAL_Driver/Src\stm32l4xx_hal_flash_ramfunc.c ****     [..] RAM functions are defined using a specific toolchain keyword "__ramfunc".
  28:C:/Users/²Ü¼ÒºÀ/.iotlink/sdk/IoT_LINK/drivers/third_party/ST/STM32L4xx_HAL_Driver/Src\stm32l4xx_hal_flash_ramfunc.c **** 
  29:C:/Users/²Ü¼ÒºÀ/.iotlink/sdk/IoT_LINK/drivers/third_party/ST/STM32L4xx_HAL_Driver/Src\stm32l4xx_hal_flash_ramfunc.c ****     *** GNU Compiler ***
  30:C:/Users/²Ü¼ÒºÀ/.iotlink/sdk/IoT_LINK/drivers/third_party/ST/STM32L4xx_HAL_Driver/Src\stm32l4xx_hal_flash_ramfunc.c ****     --------------------
ARM GAS  C:\Users\²Ü¼ÒºÀ\AppData\Local\Temp\ccNEdvd8.s 			page 2


  31:C:/Users/²Ü¼ÒºÀ/.iotlink/sdk/IoT_LINK/drivers/third_party/ST/STM32L4xx_HAL_Driver/Src\stm32l4xx_hal_flash_ramfunc.c ****     [..] RAM functions are defined using a specific toolchain attribute
  32:C:/Users/²Ü¼ÒºÀ/.iotlink/sdk/IoT_LINK/drivers/third_party/ST/STM32L4xx_HAL_Driver/Src\stm32l4xx_hal_flash_ramfunc.c ****          "__attribute__((section(".RamFunc")))".
  33:C:/Users/²Ü¼ÒºÀ/.iotlink/sdk/IoT_LINK/drivers/third_party/ST/STM32L4xx_HAL_Driver/Src\stm32l4xx_hal_flash_ramfunc.c ****   
  34:C:/Users/²Ü¼ÒºÀ/.iotlink/sdk/IoT_LINK/drivers/third_party/ST/STM32L4xx_HAL_Driver/Src\stm32l4xx_hal_flash_ramfunc.c ****   @endverbatim
  35:C:/Users/²Ü¼ÒºÀ/.iotlink/sdk/IoT_LINK/drivers/third_party/ST/STM32L4xx_HAL_Driver/Src\stm32l4xx_hal_flash_ramfunc.c ****   ******************************************************************************
  36:C:/Users/²Ü¼ÒºÀ/.iotlink/sdk/IoT_LINK/drivers/third_party/ST/STM32L4xx_HAL_Driver/Src\stm32l4xx_hal_flash_ramfunc.c ****   * @attention
  37:C:/Users/²Ü¼ÒºÀ/.iotlink/sdk/IoT_LINK/drivers/third_party/ST/STM32L4xx_HAL_Driver/Src\stm32l4xx_hal_flash_ramfunc.c ****   *
  38:C:/Users/²Ü¼ÒºÀ/.iotlink/sdk/IoT_LINK/drivers/third_party/ST/STM32L4xx_HAL_Driver/Src\stm32l4xx_hal_flash_ramfunc.c ****   * <h2><center>&copy; COPYRIGHT(c) 2017 STMicroelectronics</center></h2>
  39:C:/Users/²Ü¼ÒºÀ/.iotlink/sdk/IoT_LINK/drivers/third_party/ST/STM32L4xx_HAL_Driver/Src\stm32l4xx_hal_flash_ramfunc.c ****   *
  40:C:/Users/²Ü¼ÒºÀ/.iotlink/sdk/IoT_LINK/drivers/third_party/ST/STM32L4xx_HAL_Driver/Src\stm32l4xx_hal_flash_ramfunc.c ****   * Redistribution and use in source and binary forms, with or without modification,
  41:C:/Users/²Ü¼ÒºÀ/.iotlink/sdk/IoT_LINK/drivers/third_party/ST/STM32L4xx_HAL_Driver/Src\stm32l4xx_hal_flash_ramfunc.c ****   * are permitted provided that the following conditions are met:
  42:C:/Users/²Ü¼ÒºÀ/.iotlink/sdk/IoT_LINK/drivers/third_party/ST/STM32L4xx_HAL_Driver/Src\stm32l4xx_hal_flash_ramfunc.c ****   *   1. Redistributions of source code must retain the above copyright notice,
  43:C:/Users/²Ü¼ÒºÀ/.iotlink/sdk/IoT_LINK/drivers/third_party/ST/STM32L4xx_HAL_Driver/Src\stm32l4xx_hal_flash_ramfunc.c ****   *      this list of conditions and the following disclaimer.
  44:C:/Users/²Ü¼ÒºÀ/.iotlink/sdk/IoT_LINK/drivers/third_party/ST/STM32L4xx_HAL_Driver/Src\stm32l4xx_hal_flash_ramfunc.c ****   *   2. Redistributions in binary form must reproduce the above copyright notice,
  45:C:/Users/²Ü¼ÒºÀ/.iotlink/sdk/IoT_LINK/drivers/third_party/ST/STM32L4xx_HAL_Driver/Src\stm32l4xx_hal_flash_ramfunc.c ****   *      this list of conditions and the following disclaimer in the documentation
  46:C:/Users/²Ü¼ÒºÀ/.iotlink/sdk/IoT_LINK/drivers/third_party/ST/STM32L4xx_HAL_Driver/Src\stm32l4xx_hal_flash_ramfunc.c ****   *      and/or other materials provided with the distribution.
  47:C:/Users/²Ü¼ÒºÀ/.iotlink/sdk/IoT_LINK/drivers/third_party/ST/STM32L4xx_HAL_Driver/Src\stm32l4xx_hal_flash_ramfunc.c ****   *   3. Neither the name of STMicroelectronics nor the names of its contributors
  48:C:/Users/²Ü¼ÒºÀ/.iotlink/sdk/IoT_LINK/drivers/third_party/ST/STM32L4xx_HAL_Driver/Src\stm32l4xx_hal_flash_ramfunc.c ****   *      may be used to endorse or promote products derived from this software
  49:C:/Users/²Ü¼ÒºÀ/.iotlink/sdk/IoT_LINK/drivers/third_party/ST/STM32L4xx_HAL_Driver/Src\stm32l4xx_hal_flash_ramfunc.c ****   *      without specific prior written permission.
  50:C:/Users/²Ü¼ÒºÀ/.iotlink/sdk/IoT_LINK/drivers/third_party/ST/STM32L4xx_HAL_Driver/Src\stm32l4xx_hal_flash_ramfunc.c ****   *
  51:C:/Users/²Ü¼ÒºÀ/.iotlink/sdk/IoT_LINK/drivers/third_party/ST/STM32L4xx_HAL_Driver/Src\stm32l4xx_hal_flash_ramfunc.c ****   * THIS SOFTWARE IS PROVIDED BY THE COPYRIGHT HOLDERS AND CONTRIBUTORS "AS IS"
  52:C:/Users/²Ü¼ÒºÀ/.iotlink/sdk/IoT_LINK/drivers/third_party/ST/STM32L4xx_HAL_Driver/Src\stm32l4xx_hal_flash_ramfunc.c ****   * AND ANY EXPRESS OR IMPLIED WARRANTIES, INCLUDING, BUT NOT LIMITED TO, THE
  53:C:/Users/²Ü¼ÒºÀ/.iotlink/sdk/IoT_LINK/drivers/third_party/ST/STM32L4xx_HAL_Driver/Src\stm32l4xx_hal_flash_ramfunc.c ****   * IMPLIED WARRANTIES OF MERCHANTABILITY AND FITNESS FOR A PARTICULAR PURPOSE ARE
  54:C:/Users/²Ü¼ÒºÀ/.iotlink/sdk/IoT_LINK/drivers/third_party/ST/STM32L4xx_HAL_Driver/Src\stm32l4xx_hal_flash_ramfunc.c ****   * DISCLAIMED. IN NO EVENT SHALL THE COPYRIGHT HOLDER OR CONTRIBUTORS BE LIABLE
  55:C:/Users/²Ü¼ÒºÀ/.iotlink/sdk/IoT_LINK/drivers/third_party/ST/STM32L4xx_HAL_Driver/Src\stm32l4xx_hal_flash_ramfunc.c ****   * FOR ANY DIRECT, INDIRECT, INCIDENTAL, SPECIAL, EXEMPLARY, OR CONSEQUENTIAL
  56:C:/Users/²Ü¼ÒºÀ/.iotlink/sdk/IoT_LINK/drivers/third_party/ST/STM32L4xx_HAL_Driver/Src\stm32l4xx_hal_flash_ramfunc.c ****   * DAMAGES (INCLUDING, BUT NOT LIMITED TO, PROCUREMENT OF SUBSTITUTE GOODS OR
  57:C:/Users/²Ü¼ÒºÀ/.iotlink/sdk/IoT_LINK/drivers/third_party/ST/STM32L4xx_HAL_Driver/Src\stm32l4xx_hal_flash_ramfunc.c ****   * SERVICES; LOSS OF USE, DATA, OR PROFITS; OR BUSINESS INTERRUPTION) HOWEVER
  58:C:/Users/²Ü¼ÒºÀ/.iotlink/sdk/IoT_LINK/drivers/third_party/ST/STM32L4xx_HAL_Driver/Src\stm32l4xx_hal_flash_ramfunc.c ****   * CAUSED AND ON ANY THEORY OF LIABILITY, WHETHER IN CONTRACT, STRICT LIABILITY,
  59:C:/Users/²Ü¼ÒºÀ/.iotlink/sdk/IoT_LINK/drivers/third_party/ST/STM32L4xx_HAL_Driver/Src\stm32l4xx_hal_flash_ramfunc.c ****   * OR TORT (INCLUDING NEGLIGENCE OR OTHERWISE) ARISING IN ANY WAY OUT OF THE USE
  60:C:/Users/²Ü¼ÒºÀ/.iotlink/sdk/IoT_LINK/drivers/third_party/ST/STM32L4xx_HAL_Driver/Src\stm32l4xx_hal_flash_ramfunc.c ****   * OF THIS SOFTWARE, EVEN IF ADVISED OF THE POSSIBILITY OF SUCH DAMAGE.
  61:C:/Users/²Ü¼ÒºÀ/.iotlink/sdk/IoT_LINK/drivers/third_party/ST/STM32L4xx_HAL_Driver/Src\stm32l4xx_hal_flash_ramfunc.c ****   *
  62:C:/Users/²Ü¼ÒºÀ/.iotlink/sdk/IoT_LINK/drivers/third_party/ST/STM32L4xx_HAL_Driver/Src\stm32l4xx_hal_flash_ramfunc.c ****   ******************************************************************************
  63:C:/Users/²Ü¼ÒºÀ/.iotlink/sdk/IoT_LINK/drivers/third_party/ST/STM32L4xx_HAL_Driver/Src\stm32l4xx_hal_flash_ramfunc.c ****   */ 
  64:C:/Users/²Ü¼ÒºÀ/.iotlink/sdk/IoT_LINK/drivers/third_party/ST/STM32L4xx_HAL_Driver/Src\stm32l4xx_hal_flash_ramfunc.c **** 
  65:C:/Users/²Ü¼ÒºÀ/.iotlink/sdk/IoT_LINK/drivers/third_party/ST/STM32L4xx_HAL_Driver/Src\stm32l4xx_hal_flash_ramfunc.c **** /* Includes ------------------------------------------------------------------*/
  66:C:/Users/²Ü¼ÒºÀ/.iotlink/sdk/IoT_LINK/drivers/third_party/ST/STM32L4xx_HAL_Driver/Src\stm32l4xx_hal_flash_ramfunc.c **** #include "stm32l4xx_hal.h"
  67:C:/Users/²Ü¼ÒºÀ/.iotlink/sdk/IoT_LINK/drivers/third_party/ST/STM32L4xx_HAL_Driver/Src\stm32l4xx_hal_flash_ramfunc.c **** 
  68:C:/Users/²Ü¼ÒºÀ/.iotlink/sdk/IoT_LINK/drivers/third_party/ST/STM32L4xx_HAL_Driver/Src\stm32l4xx_hal_flash_ramfunc.c **** /** @addtogroup STM32L4xx_HAL_Driver
  69:C:/Users/²Ü¼ÒºÀ/.iotlink/sdk/IoT_LINK/drivers/third_party/ST/STM32L4xx_HAL_Driver/Src\stm32l4xx_hal_flash_ramfunc.c ****   * @{
  70:C:/Users/²Ü¼ÒºÀ/.iotlink/sdk/IoT_LINK/drivers/third_party/ST/STM32L4xx_HAL_Driver/Src\stm32l4xx_hal_flash_ramfunc.c ****   */
  71:C:/Users/²Ü¼ÒºÀ/.iotlink/sdk/IoT_LINK/drivers/third_party/ST/STM32L4xx_HAL_Driver/Src\stm32l4xx_hal_flash_ramfunc.c **** 
  72:C:/Users/²Ü¼ÒºÀ/.iotlink/sdk/IoT_LINK/drivers/third_party/ST/STM32L4xx_HAL_Driver/Src\stm32l4xx_hal_flash_ramfunc.c **** /** @defgroup FLASH_RAMFUNC FLASH_RAMFUNC
  73:C:/Users/²Ü¼ÒºÀ/.iotlink/sdk/IoT_LINK/drivers/third_party/ST/STM32L4xx_HAL_Driver/Src\stm32l4xx_hal_flash_ramfunc.c ****   * @brief FLASH functions executed from RAM
  74:C:/Users/²Ü¼ÒºÀ/.iotlink/sdk/IoT_LINK/drivers/third_party/ST/STM32L4xx_HAL_Driver/Src\stm32l4xx_hal_flash_ramfunc.c ****   * @{
  75:C:/Users/²Ü¼ÒºÀ/.iotlink/sdk/IoT_LINK/drivers/third_party/ST/STM32L4xx_HAL_Driver/Src\stm32l4xx_hal_flash_ramfunc.c ****   */
  76:C:/Users/²Ü¼ÒºÀ/.iotlink/sdk/IoT_LINK/drivers/third_party/ST/STM32L4xx_HAL_Driver/Src\stm32l4xx_hal_flash_ramfunc.c **** 
  77:C:/Users/²Ü¼ÒºÀ/.iotlink/sdk/IoT_LINK/drivers/third_party/ST/STM32L4xx_HAL_Driver/Src\stm32l4xx_hal_flash_ramfunc.c **** #ifdef HAL_FLASH_MODULE_ENABLED
  78:C:/Users/²Ü¼ÒºÀ/.iotlink/sdk/IoT_LINK/drivers/third_party/ST/STM32L4xx_HAL_Driver/Src\stm32l4xx_hal_flash_ramfunc.c **** 
  79:C:/Users/²Ü¼ÒºÀ/.iotlink/sdk/IoT_LINK/drivers/third_party/ST/STM32L4xx_HAL_Driver/Src\stm32l4xx_hal_flash_ramfunc.c **** /* Private typedef -----------------------------------------------------------*/
  80:C:/Users/²Ü¼ÒºÀ/.iotlink/sdk/IoT_LINK/drivers/third_party/ST/STM32L4xx_HAL_Driver/Src\stm32l4xx_hal_flash_ramfunc.c **** /* Private define ------------------------------------------------------------*/
  81:C:/Users/²Ü¼ÒºÀ/.iotlink/sdk/IoT_LINK/drivers/third_party/ST/STM32L4xx_HAL_Driver/Src\stm32l4xx_hal_flash_ramfunc.c **** /* Private macro -------------------------------------------------------------*/
  82:C:/Users/²Ü¼ÒºÀ/.iotlink/sdk/IoT_LINK/drivers/third_party/ST/STM32L4xx_HAL_Driver/Src\stm32l4xx_hal_flash_ramfunc.c **** /* Private variables ---------------------------------------------------------*/
  83:C:/Users/²Ü¼ÒºÀ/.iotlink/sdk/IoT_LINK/drivers/third_party/ST/STM32L4xx_HAL_Driver/Src\stm32l4xx_hal_flash_ramfunc.c **** extern FLASH_ProcessTypeDef pFlash;
  84:C:/Users/²Ü¼ÒºÀ/.iotlink/sdk/IoT_LINK/drivers/third_party/ST/STM32L4xx_HAL_Driver/Src\stm32l4xx_hal_flash_ramfunc.c **** 
  85:C:/Users/²Ü¼ÒºÀ/.iotlink/sdk/IoT_LINK/drivers/third_party/ST/STM32L4xx_HAL_Driver/Src\stm32l4xx_hal_flash_ramfunc.c **** /* Private function prototypes -----------------------------------------------*/
  86:C:/Users/²Ü¼ÒºÀ/.iotlink/sdk/IoT_LINK/drivers/third_party/ST/STM32L4xx_HAL_Driver/Src\stm32l4xx_hal_flash_ramfunc.c **** /* Exported functions -------------------------------------------------------*/
  87:C:/Users/²Ü¼ÒºÀ/.iotlink/sdk/IoT_LINK/drivers/third_party/ST/STM32L4xx_HAL_Driver/Src\stm32l4xx_hal_flash_ramfunc.c **** 
ARM GAS  C:\Users\²Ü¼ÒºÀ\AppData\Local\Temp\ccNEdvd8.s 			page 3


  88:C:/Users/²Ü¼ÒºÀ/.iotlink/sdk/IoT_LINK/drivers/third_party/ST/STM32L4xx_HAL_Driver/Src\stm32l4xx_hal_flash_ramfunc.c **** /** @defgroup FLASH_RAMFUNC_Exported_Functions FLASH in RAM function Exported Functions
  89:C:/Users/²Ü¼ÒºÀ/.iotlink/sdk/IoT_LINK/drivers/third_party/ST/STM32L4xx_HAL_Driver/Src\stm32l4xx_hal_flash_ramfunc.c ****   * @{
  90:C:/Users/²Ü¼ÒºÀ/.iotlink/sdk/IoT_LINK/drivers/third_party/ST/STM32L4xx_HAL_Driver/Src\stm32l4xx_hal_flash_ramfunc.c ****   */
  91:C:/Users/²Ü¼ÒºÀ/.iotlink/sdk/IoT_LINK/drivers/third_party/ST/STM32L4xx_HAL_Driver/Src\stm32l4xx_hal_flash_ramfunc.c **** 
  92:C:/Users/²Ü¼ÒºÀ/.iotlink/sdk/IoT_LINK/drivers/third_party/ST/STM32L4xx_HAL_Driver/Src\stm32l4xx_hal_flash_ramfunc.c **** /** @defgroup FLASH_RAMFUNC_Exported_Functions_Group1 Peripheral features functions 
  93:C:/Users/²Ü¼ÒºÀ/.iotlink/sdk/IoT_LINK/drivers/third_party/ST/STM32L4xx_HAL_Driver/Src\stm32l4xx_hal_flash_ramfunc.c ****  *  @brief   Data transfers functions 
  94:C:/Users/²Ü¼ÒºÀ/.iotlink/sdk/IoT_LINK/drivers/third_party/ST/STM32L4xx_HAL_Driver/Src\stm32l4xx_hal_flash_ramfunc.c ****  *
  95:C:/Users/²Ü¼ÒºÀ/.iotlink/sdk/IoT_LINK/drivers/third_party/ST/STM32L4xx_HAL_Driver/Src\stm32l4xx_hal_flash_ramfunc.c **** @verbatim   
  96:C:/Users/²Ü¼ÒºÀ/.iotlink/sdk/IoT_LINK/drivers/third_party/ST/STM32L4xx_HAL_Driver/Src\stm32l4xx_hal_flash_ramfunc.c ****  ===============================================================================
  97:C:/Users/²Ü¼ÒºÀ/.iotlink/sdk/IoT_LINK/drivers/third_party/ST/STM32L4xx_HAL_Driver/Src\stm32l4xx_hal_flash_ramfunc.c ****                       ##### ramfunc functions #####
  98:C:/Users/²Ü¼ÒºÀ/.iotlink/sdk/IoT_LINK/drivers/third_party/ST/STM32L4xx_HAL_Driver/Src\stm32l4xx_hal_flash_ramfunc.c ****  ===============================================================================  
  99:C:/Users/²Ü¼ÒºÀ/.iotlink/sdk/IoT_LINK/drivers/third_party/ST/STM32L4xx_HAL_Driver/Src\stm32l4xx_hal_flash_ramfunc.c ****     [..]
 100:C:/Users/²Ü¼ÒºÀ/.iotlink/sdk/IoT_LINK/drivers/third_party/ST/STM32L4xx_HAL_Driver/Src\stm32l4xx_hal_flash_ramfunc.c ****     This subsection provides a set of functions that should be executed from RAM.
 101:C:/Users/²Ü¼ÒºÀ/.iotlink/sdk/IoT_LINK/drivers/third_party/ST/STM32L4xx_HAL_Driver/Src\stm32l4xx_hal_flash_ramfunc.c **** 
 102:C:/Users/²Ü¼ÒºÀ/.iotlink/sdk/IoT_LINK/drivers/third_party/ST/STM32L4xx_HAL_Driver/Src\stm32l4xx_hal_flash_ramfunc.c **** @endverbatim
 103:C:/Users/²Ü¼ÒºÀ/.iotlink/sdk/IoT_LINK/drivers/third_party/ST/STM32L4xx_HAL_Driver/Src\stm32l4xx_hal_flash_ramfunc.c ****   * @{
 104:C:/Users/²Ü¼ÒºÀ/.iotlink/sdk/IoT_LINK/drivers/third_party/ST/STM32L4xx_HAL_Driver/Src\stm32l4xx_hal_flash_ramfunc.c ****   */
 105:C:/Users/²Ü¼ÒºÀ/.iotlink/sdk/IoT_LINK/drivers/third_party/ST/STM32L4xx_HAL_Driver/Src\stm32l4xx_hal_flash_ramfunc.c **** 
 106:C:/Users/²Ü¼ÒºÀ/.iotlink/sdk/IoT_LINK/drivers/third_party/ST/STM32L4xx_HAL_Driver/Src\stm32l4xx_hal_flash_ramfunc.c **** /**
 107:C:/Users/²Ü¼ÒºÀ/.iotlink/sdk/IoT_LINK/drivers/third_party/ST/STM32L4xx_HAL_Driver/Src\stm32l4xx_hal_flash_ramfunc.c ****   * @brief   Enable the Power down in Run Mode
 108:C:/Users/²Ü¼ÒºÀ/.iotlink/sdk/IoT_LINK/drivers/third_party/ST/STM32L4xx_HAL_Driver/Src\stm32l4xx_hal_flash_ramfunc.c ****   * @note    This function should be called and executed from SRAM memory
 109:C:/Users/²Ü¼ÒºÀ/.iotlink/sdk/IoT_LINK/drivers/third_party/ST/STM32L4xx_HAL_Driver/Src\stm32l4xx_hal_flash_ramfunc.c ****   * @retval None
 110:C:/Users/²Ü¼ÒºÀ/.iotlink/sdk/IoT_LINK/drivers/third_party/ST/STM32L4xx_HAL_Driver/Src\stm32l4xx_hal_flash_ramfunc.c ****   */
 111:C:/Users/²Ü¼ÒºÀ/.iotlink/sdk/IoT_LINK/drivers/third_party/ST/STM32L4xx_HAL_Driver/Src\stm32l4xx_hal_flash_ramfunc.c **** __RAM_FUNC HAL_FLASHEx_EnableRunPowerDown(void)
 112:C:/Users/²Ü¼ÒºÀ/.iotlink/sdk/IoT_LINK/drivers/third_party/ST/STM32L4xx_HAL_Driver/Src\stm32l4xx_hal_flash_ramfunc.c **** {
  29              		.loc 1 112 1 view -0
  30              		.cfi_startproc
  31              		@ args = 0, pretend = 0, frame = 0
  32              		@ frame_needed = 0, uses_anonymous_args = 0
  33              		@ link register save eliminated.
 113:C:/Users/²Ü¼ÒºÀ/.iotlink/sdk/IoT_LINK/drivers/third_party/ST/STM32L4xx_HAL_Driver/Src\stm32l4xx_hal_flash_ramfunc.c ****   /* Enable the Power Down in Run mode*/
 114:C:/Users/²Ü¼ÒºÀ/.iotlink/sdk/IoT_LINK/drivers/third_party/ST/STM32L4xx_HAL_Driver/Src\stm32l4xx_hal_flash_ramfunc.c ****   __HAL_FLASH_POWER_DOWN_ENABLE();
  34              		.loc 1 114 3 view .LVU1
  35              		.loc 1 114 3 view .LVU2
  36 0000 054B     		ldr	r3, .L2
  37 0002 064A     		ldr	r2, .L2+4
  38 0004 5A60     		str	r2, [r3, #4]
  39              		.loc 1 114 3 view .LVU3
  40 0006 064A     		ldr	r2, .L2+8
  41 0008 5A60     		str	r2, [r3, #4]
  42              		.loc 1 114 3 view .LVU4
  43 000a 1A68     		ldr	r2, [r3]
  44 000c 42F40052 		orr	r2, r2, #8192
  45 0010 1A60     		str	r2, [r3]
  46              		.loc 1 114 3 view .LVU5
 115:C:/Users/²Ü¼ÒºÀ/.iotlink/sdk/IoT_LINK/drivers/third_party/ST/STM32L4xx_HAL_Driver/Src\stm32l4xx_hal_flash_ramfunc.c ****   
 116:C:/Users/²Ü¼ÒºÀ/.iotlink/sdk/IoT_LINK/drivers/third_party/ST/STM32L4xx_HAL_Driver/Src\stm32l4xx_hal_flash_ramfunc.c ****   return HAL_OK;
  47              		.loc 1 116 3 view .LVU6
 117:C:/Users/²Ü¼ÒºÀ/.iotlink/sdk/IoT_LINK/drivers/third_party/ST/STM32L4xx_HAL_Driver/Src\stm32l4xx_hal_flash_ramfunc.c ****   
 118:C:/Users/²Ü¼ÒºÀ/.iotlink/sdk/IoT_LINK/drivers/third_party/ST/STM32L4xx_HAL_Driver/Src\stm32l4xx_hal_flash_ramfunc.c **** }
  48              		.loc 1 118 1 is_stmt 0 view .LVU7
  49 0012 0020     		movs	r0, #0
  50 0014 7047     		bx	lr
  51              	.L3:
  52 0016 00BF     		.align	2
  53              	.L2:
  54 0018 00200240 		.word	1073881088
ARM GAS  C:\Users\²Ü¼ÒºÀ\AppData\Local\Temp\ccNEdvd8.s 			page 4


  55 001c 37261504 		.word	68494903
  56 0020 FDFCFBFA 		.word	-84148995
  57              		.cfi_endproc
  58              	.LFE287:
  60              		.align	1
  61              		.global	HAL_FLASHEx_DisableRunPowerDown
  62              		.syntax unified
  63              		.thumb
  64              		.thumb_func
  65              		.fpu fpv4-sp-d16
  67              	HAL_FLASHEx_DisableRunPowerDown:
  68              	.LFB288:
 119:C:/Users/²Ü¼ÒºÀ/.iotlink/sdk/IoT_LINK/drivers/third_party/ST/STM32L4xx_HAL_Driver/Src\stm32l4xx_hal_flash_ramfunc.c **** 
 120:C:/Users/²Ü¼ÒºÀ/.iotlink/sdk/IoT_LINK/drivers/third_party/ST/STM32L4xx_HAL_Driver/Src\stm32l4xx_hal_flash_ramfunc.c **** /**
 121:C:/Users/²Ü¼ÒºÀ/.iotlink/sdk/IoT_LINK/drivers/third_party/ST/STM32L4xx_HAL_Driver/Src\stm32l4xx_hal_flash_ramfunc.c ****   * @brief   Disable the Power down in Run Mode
 122:C:/Users/²Ü¼ÒºÀ/.iotlink/sdk/IoT_LINK/drivers/third_party/ST/STM32L4xx_HAL_Driver/Src\stm32l4xx_hal_flash_ramfunc.c ****   * @note    This function should be called and executed from SRAM memory
 123:C:/Users/²Ü¼ÒºÀ/.iotlink/sdk/IoT_LINK/drivers/third_party/ST/STM32L4xx_HAL_Driver/Src\stm32l4xx_hal_flash_ramfunc.c ****   * @retval None
 124:C:/Users/²Ü¼ÒºÀ/.iotlink/sdk/IoT_LINK/drivers/third_party/ST/STM32L4xx_HAL_Driver/Src\stm32l4xx_hal_flash_ramfunc.c ****   */
 125:C:/Users/²Ü¼ÒºÀ/.iotlink/sdk/IoT_LINK/drivers/third_party/ST/STM32L4xx_HAL_Driver/Src\stm32l4xx_hal_flash_ramfunc.c **** __RAM_FUNC HAL_FLASHEx_DisableRunPowerDown(void)
 126:C:/Users/²Ü¼ÒºÀ/.iotlink/sdk/IoT_LINK/drivers/third_party/ST/STM32L4xx_HAL_Driver/Src\stm32l4xx_hal_flash_ramfunc.c **** {
  69              		.loc 1 126 1 is_stmt 1 view -0
  70              		.cfi_startproc
  71              		@ args = 0, pretend = 0, frame = 0
  72              		@ frame_needed = 0, uses_anonymous_args = 0
  73              		@ link register save eliminated.
 127:C:/Users/²Ü¼ÒºÀ/.iotlink/sdk/IoT_LINK/drivers/third_party/ST/STM32L4xx_HAL_Driver/Src\stm32l4xx_hal_flash_ramfunc.c ****   /* Disable the Power Down in Run mode*/
 128:C:/Users/²Ü¼ÒºÀ/.iotlink/sdk/IoT_LINK/drivers/third_party/ST/STM32L4xx_HAL_Driver/Src\stm32l4xx_hal_flash_ramfunc.c ****   __HAL_FLASH_POWER_DOWN_DISABLE();
  74              		.loc 1 128 3 view .LVU9
  75              		.loc 1 128 3 view .LVU10
  76 0024 054B     		ldr	r3, .L5
  77 0026 064A     		ldr	r2, .L5+4
  78 0028 5A60     		str	r2, [r3, #4]
  79              		.loc 1 128 3 view .LVU11
  80 002a 064A     		ldr	r2, .L5+8
  81 002c 5A60     		str	r2, [r3, #4]
  82              		.loc 1 128 3 view .LVU12
  83 002e 1A68     		ldr	r2, [r3]
  84 0030 22F40052 		bic	r2, r2, #8192
  85 0034 1A60     		str	r2, [r3]
  86              		.loc 1 128 3 view .LVU13
 129:C:/Users/²Ü¼ÒºÀ/.iotlink/sdk/IoT_LINK/drivers/third_party/ST/STM32L4xx_HAL_Driver/Src\stm32l4xx_hal_flash_ramfunc.c **** 
 130:C:/Users/²Ü¼ÒºÀ/.iotlink/sdk/IoT_LINK/drivers/third_party/ST/STM32L4xx_HAL_Driver/Src\stm32l4xx_hal_flash_ramfunc.c ****   return HAL_OK;  
  87              		.loc 1 130 3 view .LVU14
 131:C:/Users/²Ü¼ÒºÀ/.iotlink/sdk/IoT_LINK/drivers/third_party/ST/STM32L4xx_HAL_Driver/Src\stm32l4xx_hal_flash_ramfunc.c **** }
  88              		.loc 1 131 1 is_stmt 0 view .LVU15
  89 0036 0020     		movs	r0, #0
  90 0038 7047     		bx	lr
  91              	.L6:
  92 003a 00BF     		.align	2
  93              	.L5:
  94 003c 00200240 		.word	1073881088
  95 0040 37261504 		.word	68494903
  96 0044 FDFCFBFA 		.word	-84148995
  97              		.cfi_endproc
  98              	.LFE288:
 100              		.text
 101              	.Letext0:
ARM GAS  C:\Users\²Ü¼ÒºÀ\AppData\Local\Temp\ccNEdvd8.s 			page 5


 102              		.file 2 "c:\\users\\\262\334\274\322\272\300\\.iotlink\\tools\\gcc-arm-none-eabi\\arm-none-eabi\\i
 103              		.file 3 "c:\\users\\\262\334\274\322\272\300\\.iotlink\\tools\\gcc-arm-none-eabi\\arm-none-eabi\\i
 104              		.file 4 "c:\\users\\\262\334\274\322\272\300\\.iotlink\\tools\\gcc-arm-none-eabi\\arm-none-eabi\\i
 105              		.file 5 "c:\\users\\\262\334\274\322\272\300\\.iotlink\\tools\\gcc-arm-none-eabi\\lib\\gcc\\arm-no
 106              		.file 6 "c:\\users\\\262\334\274\322\272\300\\.iotlink\\tools\\gcc-arm-none-eabi\\arm-none-eabi\\i
 107              		.file 7 "C:/Users/\262\334\274\322\272\300/.iotlink/sdk/IoT_LINK/iot_link/os/liteos/include/los_ty
 108              		.file 8 "c:\\users\\\262\334\274\322\272\300\\.iotlink\\tools\\gcc-arm-none-eabi\\arm-none-eabi\\i
 109              		.file 9 "C:/Users/\262\334\274\322\272\300/.iotlink/sdk/IoT_LINK/iot_link/os/liteos/arch/arm/commo
 110              		.file 10 "d:/liteos/code/WIFI2/Inc/system_stm32l4xx.h"
 111              		.file 11 "d:/liteos/code/WIFI2/Inc/stm32l431xx.h"
 112              		.file 12 "C:/Users/\262\334\274\322\272\300/.iotlink/sdk/IoT_LINK/iot_link/os/liteos/include/los_c
 113              		.file 13 "C:/Users/\262\334\274\322\272\300/.iotlink/sdk/IoT_LINK/iot_link/os/liteos/include/los_e
 114              		.file 14 "C:/Users/\262\334\274\322\272\300/.iotlink/sdk/IoT_LINK/iot_link/os/liteos/arch/arm/arm-
 115              		.file 15 "C:/Users/\262\334\274\322\272\300/.iotlink/sdk/IoT_LINK/drivers/third_party/ST/STM32L4xx
 116              		.file 16 "C:/Users/\262\334\274\322\272\300/.iotlink/sdk/IoT_LINK/drivers/third_party/ST/STM32L4xx
ARM GAS  C:\Users\²Ü¼ÒºÀ\AppData\Local\Temp\ccNEdvd8.s 			page 6


DEFINED SYMBOLS
                            *ABS*:00000000 stm32l4xx_hal_flash_ramfunc.c
C:\Users\²Ü¼ÒºÀ\AppData\Local\Temp\ccNEdvd8.s:18     .RamFunc:00000000 $t
C:\Users\²Ü¼ÒºÀ\AppData\Local\Temp\ccNEdvd8.s:26     .RamFunc:00000000 HAL_FLASHEx_EnableRunPowerDown
C:\Users\²Ü¼ÒºÀ\AppData\Local\Temp\ccNEdvd8.s:54     .RamFunc:00000018 $d
C:\Users\²Ü¼ÒºÀ\AppData\Local\Temp\ccNEdvd8.s:60     .RamFunc:00000024 $t
C:\Users\²Ü¼ÒºÀ\AppData\Local\Temp\ccNEdvd8.s:67     .RamFunc:00000024 HAL_FLASHEx_DisableRunPowerDown
C:\Users\²Ü¼ÒºÀ\AppData\Local\Temp\ccNEdvd8.s:94     .RamFunc:0000003c $d

NO UNDEFINED SYMBOLS
