ARM GAS  C:\Users\²Ü¼ÒºÀ\AppData\Local\Temp\cczPott0.s 			page 1


   1              		.cpu cortex-m4
   2              		.eabi_attribute 27, 1
   3              		.eabi_attribute 28, 1
   4              		.eabi_attribute 20, 1
   5              		.eabi_attribute 21, 1
   6              		.eabi_attribute 23, 3
   7              		.eabi_attribute 24, 1
   8              		.eabi_attribute 25, 1
   9              		.eabi_attribute 26, 1
  10              		.eabi_attribute 30, 4
  11              		.eabi_attribute 34, 1
  12              		.eabi_attribute 18, 4
  13              		.file	"stm32l4xx_hal_pwr_ex.c"
  14              		.text
  15              	.Ltext0:
  16              		.cfi_sections	.debug_frame
  17              		.section	.text.HAL_PWREx_GetVoltageRange,"ax",%progbits
  18              		.align	1
  19              		.global	HAL_PWREx_GetVoltageRange
  20              		.arch armv7e-m
  21              		.syntax unified
  22              		.thumb
  23              		.thumb_func
  24              		.fpu fpv4-sp-d16
  26              	HAL_PWREx_GetVoltageRange:
  27              	.LFB287:
  28              		.file 1 "C:/Users/\262\334\274\322\272\300/.iotlink/sdk/IoT_LINK/drivers/third_party/ST/STM32L4xx_
   1:C:/Users/²Ü¼ÒºÀ/.iotlink/sdk/IoT_LINK/drivers/third_party/ST/STM32L4xx_HAL_Driver/Src\stm32l4xx_hal_pwr_ex.c **** /**
   2:C:/Users/²Ü¼ÒºÀ/.iotlink/sdk/IoT_LINK/drivers/third_party/ST/STM32L4xx_HAL_Driver/Src\stm32l4xx_hal_pwr_ex.c ****   ******************************************************************************
   3:C:/Users/²Ü¼ÒºÀ/.iotlink/sdk/IoT_LINK/drivers/third_party/ST/STM32L4xx_HAL_Driver/Src\stm32l4xx_hal_pwr_ex.c ****   * @file    stm32l4xx_hal_pwr_ex.c
   4:C:/Users/²Ü¼ÒºÀ/.iotlink/sdk/IoT_LINK/drivers/third_party/ST/STM32L4xx_HAL_Driver/Src\stm32l4xx_hal_pwr_ex.c ****   * @author  MCD Application Team
   5:C:/Users/²Ü¼ÒºÀ/.iotlink/sdk/IoT_LINK/drivers/third_party/ST/STM32L4xx_HAL_Driver/Src\stm32l4xx_hal_pwr_ex.c ****   * @brief   Extended PWR HAL module driver.
   6:C:/Users/²Ü¼ÒºÀ/.iotlink/sdk/IoT_LINK/drivers/third_party/ST/STM32L4xx_HAL_Driver/Src\stm32l4xx_hal_pwr_ex.c ****   *          This file provides firmware functions to manage the following
   7:C:/Users/²Ü¼ÒºÀ/.iotlink/sdk/IoT_LINK/drivers/third_party/ST/STM32L4xx_HAL_Driver/Src\stm32l4xx_hal_pwr_ex.c ****   *          functionalities of the Power Controller (PWR) peripheral:
   8:C:/Users/²Ü¼ÒºÀ/.iotlink/sdk/IoT_LINK/drivers/third_party/ST/STM32L4xx_HAL_Driver/Src\stm32l4xx_hal_pwr_ex.c ****   *           + Extended Initialization and de-initialization functions
   9:C:/Users/²Ü¼ÒºÀ/.iotlink/sdk/IoT_LINK/drivers/third_party/ST/STM32L4xx_HAL_Driver/Src\stm32l4xx_hal_pwr_ex.c ****   *           + Extended Peripheral Control functions
  10:C:/Users/²Ü¼ÒºÀ/.iotlink/sdk/IoT_LINK/drivers/third_party/ST/STM32L4xx_HAL_Driver/Src\stm32l4xx_hal_pwr_ex.c ****   *         
  11:C:/Users/²Ü¼ÒºÀ/.iotlink/sdk/IoT_LINK/drivers/third_party/ST/STM32L4xx_HAL_Driver/Src\stm32l4xx_hal_pwr_ex.c ****   ******************************************************************************
  12:C:/Users/²Ü¼ÒºÀ/.iotlink/sdk/IoT_LINK/drivers/third_party/ST/STM32L4xx_HAL_Driver/Src\stm32l4xx_hal_pwr_ex.c ****   * @attention
  13:C:/Users/²Ü¼ÒºÀ/.iotlink/sdk/IoT_LINK/drivers/third_party/ST/STM32L4xx_HAL_Driver/Src\stm32l4xx_hal_pwr_ex.c ****   *
  14:C:/Users/²Ü¼ÒºÀ/.iotlink/sdk/IoT_LINK/drivers/third_party/ST/STM32L4xx_HAL_Driver/Src\stm32l4xx_hal_pwr_ex.c ****   * <h2><center>&copy; COPYRIGHT(c) 2017 STMicroelectronics</center></h2>
  15:C:/Users/²Ü¼ÒºÀ/.iotlink/sdk/IoT_LINK/drivers/third_party/ST/STM32L4xx_HAL_Driver/Src\stm32l4xx_hal_pwr_ex.c ****   *
  16:C:/Users/²Ü¼ÒºÀ/.iotlink/sdk/IoT_LINK/drivers/third_party/ST/STM32L4xx_HAL_Driver/Src\stm32l4xx_hal_pwr_ex.c ****   * Redistribution and use in source and binary forms, with or without modification,
  17:C:/Users/²Ü¼ÒºÀ/.iotlink/sdk/IoT_LINK/drivers/third_party/ST/STM32L4xx_HAL_Driver/Src\stm32l4xx_hal_pwr_ex.c ****   * are permitted provided that the following conditions are met:
  18:C:/Users/²Ü¼ÒºÀ/.iotlink/sdk/IoT_LINK/drivers/third_party/ST/STM32L4xx_HAL_Driver/Src\stm32l4xx_hal_pwr_ex.c ****   *   1. Redistributions of source code must retain the above copyright notice,
  19:C:/Users/²Ü¼ÒºÀ/.iotlink/sdk/IoT_LINK/drivers/third_party/ST/STM32L4xx_HAL_Driver/Src\stm32l4xx_hal_pwr_ex.c ****   *      this list of conditions and the following disclaimer.
  20:C:/Users/²Ü¼ÒºÀ/.iotlink/sdk/IoT_LINK/drivers/third_party/ST/STM32L4xx_HAL_Driver/Src\stm32l4xx_hal_pwr_ex.c ****   *   2. Redistributions in binary form must reproduce the above copyright notice,
  21:C:/Users/²Ü¼ÒºÀ/.iotlink/sdk/IoT_LINK/drivers/third_party/ST/STM32L4xx_HAL_Driver/Src\stm32l4xx_hal_pwr_ex.c ****   *      this list of conditions and the following disclaimer in the documentation
  22:C:/Users/²Ü¼ÒºÀ/.iotlink/sdk/IoT_LINK/drivers/third_party/ST/STM32L4xx_HAL_Driver/Src\stm32l4xx_hal_pwr_ex.c ****   *      and/or other materials provided with the distribution.
  23:C:/Users/²Ü¼ÒºÀ/.iotlink/sdk/IoT_LINK/drivers/third_party/ST/STM32L4xx_HAL_Driver/Src\stm32l4xx_hal_pwr_ex.c ****   *   3. Neither the name of STMicroelectronics nor the names of its contributors
  24:C:/Users/²Ü¼ÒºÀ/.iotlink/sdk/IoT_LINK/drivers/third_party/ST/STM32L4xx_HAL_Driver/Src\stm32l4xx_hal_pwr_ex.c ****   *      may be used to endorse or promote products derived from this software
  25:C:/Users/²Ü¼ÒºÀ/.iotlink/sdk/IoT_LINK/drivers/third_party/ST/STM32L4xx_HAL_Driver/Src\stm32l4xx_hal_pwr_ex.c ****   *      without specific prior written permission.
  26:C:/Users/²Ü¼ÒºÀ/.iotlink/sdk/IoT_LINK/drivers/third_party/ST/STM32L4xx_HAL_Driver/Src\stm32l4xx_hal_pwr_ex.c ****   *
  27:C:/Users/²Ü¼ÒºÀ/.iotlink/sdk/IoT_LINK/drivers/third_party/ST/STM32L4xx_HAL_Driver/Src\stm32l4xx_hal_pwr_ex.c ****   * THIS SOFTWARE IS PROVIDED BY THE COPYRIGHT HOLDERS AND CONTRIBUTORS "AS IS"
  28:C:/Users/²Ü¼ÒºÀ/.iotlink/sdk/IoT_LINK/drivers/third_party/ST/STM32L4xx_HAL_Driver/Src\stm32l4xx_hal_pwr_ex.c ****   * AND ANY EXPRESS OR IMPLIED WARRANTIES, INCLUDING, BUT NOT LIMITED TO, THE
  29:C:/Users/²Ü¼ÒºÀ/.iotlink/sdk/IoT_LINK/drivers/third_party/ST/STM32L4xx_HAL_Driver/Src\stm32l4xx_hal_pwr_ex.c ****   * IMPLIED WARRANTIES OF MERCHANTABILITY AND FITNESS FOR A PARTICULAR PURPOSE ARE
  30:C:/Users/²Ü¼ÒºÀ/.iotlink/sdk/IoT_LINK/drivers/third_party/ST/STM32L4xx_HAL_Driver/Src\stm32l4xx_hal_pwr_ex.c ****   * DISCLAIMED. IN NO EVENT SHALL THE COPYRIGHT HOLDER OR CONTRIBUTORS BE LIABLE
ARM GAS  C:\Users\²Ü¼ÒºÀ\AppData\Local\Temp\cczPott0.s 			page 2


  31:C:/Users/²Ü¼ÒºÀ/.iotlink/sdk/IoT_LINK/drivers/third_party/ST/STM32L4xx_HAL_Driver/Src\stm32l4xx_hal_pwr_ex.c ****   * FOR ANY DIRECT, INDIRECT, INCIDENTAL, SPECIAL, EXEMPLARY, OR CONSEQUENTIAL
  32:C:/Users/²Ü¼ÒºÀ/.iotlink/sdk/IoT_LINK/drivers/third_party/ST/STM32L4xx_HAL_Driver/Src\stm32l4xx_hal_pwr_ex.c ****   * DAMAGES (INCLUDING, BUT NOT LIMITED TO, PROCUREMENT OF SUBSTITUTE GOODS OR
  33:C:/Users/²Ü¼ÒºÀ/.iotlink/sdk/IoT_LINK/drivers/third_party/ST/STM32L4xx_HAL_Driver/Src\stm32l4xx_hal_pwr_ex.c ****   * SERVICES; LOSS OF USE, DATA, OR PROFITS; OR BUSINESS INTERRUPTION) HOWEVER
  34:C:/Users/²Ü¼ÒºÀ/.iotlink/sdk/IoT_LINK/drivers/third_party/ST/STM32L4xx_HAL_Driver/Src\stm32l4xx_hal_pwr_ex.c ****   * CAUSED AND ON ANY THEORY OF LIABILITY, WHETHER IN CONTRACT, STRICT LIABILITY,
  35:C:/Users/²Ü¼ÒºÀ/.iotlink/sdk/IoT_LINK/drivers/third_party/ST/STM32L4xx_HAL_Driver/Src\stm32l4xx_hal_pwr_ex.c ****   * OR TORT (INCLUDING NEGLIGENCE OR OTHERWISE) ARISING IN ANY WAY OUT OF THE USE
  36:C:/Users/²Ü¼ÒºÀ/.iotlink/sdk/IoT_LINK/drivers/third_party/ST/STM32L4xx_HAL_Driver/Src\stm32l4xx_hal_pwr_ex.c ****   * OF THIS SOFTWARE, EVEN IF ADVISED OF THE POSSIBILITY OF SUCH DAMAGE.
  37:C:/Users/²Ü¼ÒºÀ/.iotlink/sdk/IoT_LINK/drivers/third_party/ST/STM32L4xx_HAL_Driver/Src\stm32l4xx_hal_pwr_ex.c ****   *
  38:C:/Users/²Ü¼ÒºÀ/.iotlink/sdk/IoT_LINK/drivers/third_party/ST/STM32L4xx_HAL_Driver/Src\stm32l4xx_hal_pwr_ex.c ****   ******************************************************************************
  39:C:/Users/²Ü¼ÒºÀ/.iotlink/sdk/IoT_LINK/drivers/third_party/ST/STM32L4xx_HAL_Driver/Src\stm32l4xx_hal_pwr_ex.c ****   */
  40:C:/Users/²Ü¼ÒºÀ/.iotlink/sdk/IoT_LINK/drivers/third_party/ST/STM32L4xx_HAL_Driver/Src\stm32l4xx_hal_pwr_ex.c **** 
  41:C:/Users/²Ü¼ÒºÀ/.iotlink/sdk/IoT_LINK/drivers/third_party/ST/STM32L4xx_HAL_Driver/Src\stm32l4xx_hal_pwr_ex.c **** /* Includes ------------------------------------------------------------------*/
  42:C:/Users/²Ü¼ÒºÀ/.iotlink/sdk/IoT_LINK/drivers/third_party/ST/STM32L4xx_HAL_Driver/Src\stm32l4xx_hal_pwr_ex.c **** #include "stm32l4xx_hal.h"
  43:C:/Users/²Ü¼ÒºÀ/.iotlink/sdk/IoT_LINK/drivers/third_party/ST/STM32L4xx_HAL_Driver/Src\stm32l4xx_hal_pwr_ex.c **** 
  44:C:/Users/²Ü¼ÒºÀ/.iotlink/sdk/IoT_LINK/drivers/third_party/ST/STM32L4xx_HAL_Driver/Src\stm32l4xx_hal_pwr_ex.c **** /** @addtogroup STM32L4xx_HAL_Driver
  45:C:/Users/²Ü¼ÒºÀ/.iotlink/sdk/IoT_LINK/drivers/third_party/ST/STM32L4xx_HAL_Driver/Src\stm32l4xx_hal_pwr_ex.c ****   * @{
  46:C:/Users/²Ü¼ÒºÀ/.iotlink/sdk/IoT_LINK/drivers/third_party/ST/STM32L4xx_HAL_Driver/Src\stm32l4xx_hal_pwr_ex.c ****   */
  47:C:/Users/²Ü¼ÒºÀ/.iotlink/sdk/IoT_LINK/drivers/third_party/ST/STM32L4xx_HAL_Driver/Src\stm32l4xx_hal_pwr_ex.c **** 
  48:C:/Users/²Ü¼ÒºÀ/.iotlink/sdk/IoT_LINK/drivers/third_party/ST/STM32L4xx_HAL_Driver/Src\stm32l4xx_hal_pwr_ex.c **** /** @defgroup PWREx PWREx
  49:C:/Users/²Ü¼ÒºÀ/.iotlink/sdk/IoT_LINK/drivers/third_party/ST/STM32L4xx_HAL_Driver/Src\stm32l4xx_hal_pwr_ex.c ****   * @brief PWR Extended HAL module driver
  50:C:/Users/²Ü¼ÒºÀ/.iotlink/sdk/IoT_LINK/drivers/third_party/ST/STM32L4xx_HAL_Driver/Src\stm32l4xx_hal_pwr_ex.c ****   * @{
  51:C:/Users/²Ü¼ÒºÀ/.iotlink/sdk/IoT_LINK/drivers/third_party/ST/STM32L4xx_HAL_Driver/Src\stm32l4xx_hal_pwr_ex.c ****   */
  52:C:/Users/²Ü¼ÒºÀ/.iotlink/sdk/IoT_LINK/drivers/third_party/ST/STM32L4xx_HAL_Driver/Src\stm32l4xx_hal_pwr_ex.c **** 
  53:C:/Users/²Ü¼ÒºÀ/.iotlink/sdk/IoT_LINK/drivers/third_party/ST/STM32L4xx_HAL_Driver/Src\stm32l4xx_hal_pwr_ex.c **** #ifdef HAL_PWR_MODULE_ENABLED
  54:C:/Users/²Ü¼ÒºÀ/.iotlink/sdk/IoT_LINK/drivers/third_party/ST/STM32L4xx_HAL_Driver/Src\stm32l4xx_hal_pwr_ex.c **** 
  55:C:/Users/²Ü¼ÒºÀ/.iotlink/sdk/IoT_LINK/drivers/third_party/ST/STM32L4xx_HAL_Driver/Src\stm32l4xx_hal_pwr_ex.c **** /* Private typedef -----------------------------------------------------------*/
  56:C:/Users/²Ü¼ÒºÀ/.iotlink/sdk/IoT_LINK/drivers/third_party/ST/STM32L4xx_HAL_Driver/Src\stm32l4xx_hal_pwr_ex.c **** /* Private define ------------------------------------------------------------*/
  57:C:/Users/²Ü¼ÒºÀ/.iotlink/sdk/IoT_LINK/drivers/third_party/ST/STM32L4xx_HAL_Driver/Src\stm32l4xx_hal_pwr_ex.c **** 
  58:C:/Users/²Ü¼ÒºÀ/.iotlink/sdk/IoT_LINK/drivers/third_party/ST/STM32L4xx_HAL_Driver/Src\stm32l4xx_hal_pwr_ex.c **** #if defined (STM32L431xx) || defined (STM32L432xx) || defined (STM32L433xx) || defined (STM32L442xx
  59:C:/Users/²Ü¼ÒºÀ/.iotlink/sdk/IoT_LINK/drivers/third_party/ST/STM32L4xx_HAL_Driver/Src\stm32l4xx_hal_pwr_ex.c **** #define PWR_PORTH_AVAILABLE_PINS   ((uint32_t)0x0000000B) /* PH0/PH1/PH3 */
  60:C:/Users/²Ü¼ÒºÀ/.iotlink/sdk/IoT_LINK/drivers/third_party/ST/STM32L4xx_HAL_Driver/Src\stm32l4xx_hal_pwr_ex.c **** #elif defined (STM32L451xx) || defined (STM32L452xx) || defined (STM32L462xx)
  61:C:/Users/²Ü¼ÒºÀ/.iotlink/sdk/IoT_LINK/drivers/third_party/ST/STM32L4xx_HAL_Driver/Src\stm32l4xx_hal_pwr_ex.c **** #define PWR_PORTH_AVAILABLE_PINS   ((uint32_t)0x0000000B) /* PH0/PH1/PH3 */
  62:C:/Users/²Ü¼ÒºÀ/.iotlink/sdk/IoT_LINK/drivers/third_party/ST/STM32L4xx_HAL_Driver/Src\stm32l4xx_hal_pwr_ex.c **** #elif defined (STM32L471xx) || defined (STM32L475xx) || defined (STM32L476xx) || defined (STM32L485
  63:C:/Users/²Ü¼ÒºÀ/.iotlink/sdk/IoT_LINK/drivers/third_party/ST/STM32L4xx_HAL_Driver/Src\stm32l4xx_hal_pwr_ex.c **** #define PWR_PORTH_AVAILABLE_PINS   ((uint32_t)0x00000003) /* PH0/PH1 */
  64:C:/Users/²Ü¼ÒºÀ/.iotlink/sdk/IoT_LINK/drivers/third_party/ST/STM32L4xx_HAL_Driver/Src\stm32l4xx_hal_pwr_ex.c **** #elif defined (STM32L496xx) || defined (STM32L4A6xx) || defined (STM32L4R5xx) || defined (STM32L4R7
  65:C:/Users/²Ü¼ÒºÀ/.iotlink/sdk/IoT_LINK/drivers/third_party/ST/STM32L4xx_HAL_Driver/Src\stm32l4xx_hal_pwr_ex.c **** #define PWR_PORTH_AVAILABLE_PINS   ((uint32_t)0x0000FFFF) /* PH0..PH15 */
  66:C:/Users/²Ü¼ÒºÀ/.iotlink/sdk/IoT_LINK/drivers/third_party/ST/STM32L4xx_HAL_Driver/Src\stm32l4xx_hal_pwr_ex.c **** #endif
  67:C:/Users/²Ü¼ÒºÀ/.iotlink/sdk/IoT_LINK/drivers/third_party/ST/STM32L4xx_HAL_Driver/Src\stm32l4xx_hal_pwr_ex.c **** 
  68:C:/Users/²Ü¼ÒºÀ/.iotlink/sdk/IoT_LINK/drivers/third_party/ST/STM32L4xx_HAL_Driver/Src\stm32l4xx_hal_pwr_ex.c **** #if defined (STM32L496xx) || defined (STM32L4A6xx) || defined (STM32L4R5xx) || defined (STM32L4R7xx
  69:C:/Users/²Ü¼ÒºÀ/.iotlink/sdk/IoT_LINK/drivers/third_party/ST/STM32L4xx_HAL_Driver/Src\stm32l4xx_hal_pwr_ex.c **** #define PWR_PORTI_AVAILABLE_PINS   ((uint32_t)0x00000FFF) /* PI0..PI11 */
  70:C:/Users/²Ü¼ÒºÀ/.iotlink/sdk/IoT_LINK/drivers/third_party/ST/STM32L4xx_HAL_Driver/Src\stm32l4xx_hal_pwr_ex.c **** #endif
  71:C:/Users/²Ü¼ÒºÀ/.iotlink/sdk/IoT_LINK/drivers/third_party/ST/STM32L4xx_HAL_Driver/Src\stm32l4xx_hal_pwr_ex.c **** 
  72:C:/Users/²Ü¼ÒºÀ/.iotlink/sdk/IoT_LINK/drivers/third_party/ST/STM32L4xx_HAL_Driver/Src\stm32l4xx_hal_pwr_ex.c **** /** @defgroup PWR_Extended_Private_Defines PWR Extended Private Defines
  73:C:/Users/²Ü¼ÒºÀ/.iotlink/sdk/IoT_LINK/drivers/third_party/ST/STM32L4xx_HAL_Driver/Src\stm32l4xx_hal_pwr_ex.c ****   * @{
  74:C:/Users/²Ü¼ÒºÀ/.iotlink/sdk/IoT_LINK/drivers/third_party/ST/STM32L4xx_HAL_Driver/Src\stm32l4xx_hal_pwr_ex.c ****   */
  75:C:/Users/²Ü¼ÒºÀ/.iotlink/sdk/IoT_LINK/drivers/third_party/ST/STM32L4xx_HAL_Driver/Src\stm32l4xx_hal_pwr_ex.c ****   
  76:C:/Users/²Ü¼ÒºÀ/.iotlink/sdk/IoT_LINK/drivers/third_party/ST/STM32L4xx_HAL_Driver/Src\stm32l4xx_hal_pwr_ex.c **** /** @defgroup PWREx_PVM_Mode_Mask PWR PVM Mode Mask
  77:C:/Users/²Ü¼ÒºÀ/.iotlink/sdk/IoT_LINK/drivers/third_party/ST/STM32L4xx_HAL_Driver/Src\stm32l4xx_hal_pwr_ex.c ****   * @{
  78:C:/Users/²Ü¼ÒºÀ/.iotlink/sdk/IoT_LINK/drivers/third_party/ST/STM32L4xx_HAL_Driver/Src\stm32l4xx_hal_pwr_ex.c ****   */ 
  79:C:/Users/²Ü¼ÒºÀ/.iotlink/sdk/IoT_LINK/drivers/third_party/ST/STM32L4xx_HAL_Driver/Src\stm32l4xx_hal_pwr_ex.c **** #define PVM_MODE_IT               ((uint32_t)0x00010000)  /*!< Mask for interruption yielded by PVM
  80:C:/Users/²Ü¼ÒºÀ/.iotlink/sdk/IoT_LINK/drivers/third_party/ST/STM32L4xx_HAL_Driver/Src\stm32l4xx_hal_pwr_ex.c **** #define PVM_MODE_EVT              ((uint32_t)0x00020000)  /*!< Mask for event yielded by PVM thresh
  81:C:/Users/²Ü¼ÒºÀ/.iotlink/sdk/IoT_LINK/drivers/third_party/ST/STM32L4xx_HAL_Driver/Src\stm32l4xx_hal_pwr_ex.c **** #define PVM_RISING_EDGE           ((uint32_t)0x00000001)  /*!< Mask for rising edge set as PVM trig
  82:C:/Users/²Ü¼ÒºÀ/.iotlink/sdk/IoT_LINK/drivers/third_party/ST/STM32L4xx_HAL_Driver/Src\stm32l4xx_hal_pwr_ex.c **** #define PVM_FALLING_EDGE          ((uint32_t)0x00000002)  /*!< Mask for falling edge set as PVM tri
  83:C:/Users/²Ü¼ÒºÀ/.iotlink/sdk/IoT_LINK/drivers/third_party/ST/STM32L4xx_HAL_Driver/Src\stm32l4xx_hal_pwr_ex.c **** /**
  84:C:/Users/²Ü¼ÒºÀ/.iotlink/sdk/IoT_LINK/drivers/third_party/ST/STM32L4xx_HAL_Driver/Src\stm32l4xx_hal_pwr_ex.c ****   * @}
  85:C:/Users/²Ü¼ÒºÀ/.iotlink/sdk/IoT_LINK/drivers/third_party/ST/STM32L4xx_HAL_Driver/Src\stm32l4xx_hal_pwr_ex.c ****   */
  86:C:/Users/²Ü¼ÒºÀ/.iotlink/sdk/IoT_LINK/drivers/third_party/ST/STM32L4xx_HAL_Driver/Src\stm32l4xx_hal_pwr_ex.c ****   
  87:C:/Users/²Ü¼ÒºÀ/.iotlink/sdk/IoT_LINK/drivers/third_party/ST/STM32L4xx_HAL_Driver/Src\stm32l4xx_hal_pwr_ex.c **** /** @defgroup PWREx_TimeOut_Value PWR Extended Flag Setting Time Out Value
ARM GAS  C:\Users\²Ü¼ÒºÀ\AppData\Local\Temp\cczPott0.s 			page 3


  88:C:/Users/²Ü¼ÒºÀ/.iotlink/sdk/IoT_LINK/drivers/third_party/ST/STM32L4xx_HAL_Driver/Src\stm32l4xx_hal_pwr_ex.c ****   * @{
  89:C:/Users/²Ü¼ÒºÀ/.iotlink/sdk/IoT_LINK/drivers/third_party/ST/STM32L4xx_HAL_Driver/Src\stm32l4xx_hal_pwr_ex.c ****   */ 
  90:C:/Users/²Ü¼ÒºÀ/.iotlink/sdk/IoT_LINK/drivers/third_party/ST/STM32L4xx_HAL_Driver/Src\stm32l4xx_hal_pwr_ex.c **** #define PWR_FLAG_SETTING_DELAY_US                      50   /*!< Time out value for REGLPF and VOSF
  91:C:/Users/²Ü¼ÒºÀ/.iotlink/sdk/IoT_LINK/drivers/third_party/ST/STM32L4xx_HAL_Driver/Src\stm32l4xx_hal_pwr_ex.c **** /**
  92:C:/Users/²Ü¼ÒºÀ/.iotlink/sdk/IoT_LINK/drivers/third_party/ST/STM32L4xx_HAL_Driver/Src\stm32l4xx_hal_pwr_ex.c ****   * @}
  93:C:/Users/²Ü¼ÒºÀ/.iotlink/sdk/IoT_LINK/drivers/third_party/ST/STM32L4xx_HAL_Driver/Src\stm32l4xx_hal_pwr_ex.c ****   */
  94:C:/Users/²Ü¼ÒºÀ/.iotlink/sdk/IoT_LINK/drivers/third_party/ST/STM32L4xx_HAL_Driver/Src\stm32l4xx_hal_pwr_ex.c ****     
  95:C:/Users/²Ü¼ÒºÀ/.iotlink/sdk/IoT_LINK/drivers/third_party/ST/STM32L4xx_HAL_Driver/Src\stm32l4xx_hal_pwr_ex.c ****   
  96:C:/Users/²Ü¼ÒºÀ/.iotlink/sdk/IoT_LINK/drivers/third_party/ST/STM32L4xx_HAL_Driver/Src\stm32l4xx_hal_pwr_ex.c **** 
  97:C:/Users/²Ü¼ÒºÀ/.iotlink/sdk/IoT_LINK/drivers/third_party/ST/STM32L4xx_HAL_Driver/Src\stm32l4xx_hal_pwr_ex.c **** /**
  98:C:/Users/²Ü¼ÒºÀ/.iotlink/sdk/IoT_LINK/drivers/third_party/ST/STM32L4xx_HAL_Driver/Src\stm32l4xx_hal_pwr_ex.c ****   * @}
  99:C:/Users/²Ü¼ÒºÀ/.iotlink/sdk/IoT_LINK/drivers/third_party/ST/STM32L4xx_HAL_Driver/Src\stm32l4xx_hal_pwr_ex.c ****   */
 100:C:/Users/²Ü¼ÒºÀ/.iotlink/sdk/IoT_LINK/drivers/third_party/ST/STM32L4xx_HAL_Driver/Src\stm32l4xx_hal_pwr_ex.c **** 
 101:C:/Users/²Ü¼ÒºÀ/.iotlink/sdk/IoT_LINK/drivers/third_party/ST/STM32L4xx_HAL_Driver/Src\stm32l4xx_hal_pwr_ex.c **** 
 102:C:/Users/²Ü¼ÒºÀ/.iotlink/sdk/IoT_LINK/drivers/third_party/ST/STM32L4xx_HAL_Driver/Src\stm32l4xx_hal_pwr_ex.c **** 
 103:C:/Users/²Ü¼ÒºÀ/.iotlink/sdk/IoT_LINK/drivers/third_party/ST/STM32L4xx_HAL_Driver/Src\stm32l4xx_hal_pwr_ex.c **** /* Private macro -------------------------------------------------------------*/
 104:C:/Users/²Ü¼ÒºÀ/.iotlink/sdk/IoT_LINK/drivers/third_party/ST/STM32L4xx_HAL_Driver/Src\stm32l4xx_hal_pwr_ex.c **** /* Private variables ---------------------------------------------------------*/
 105:C:/Users/²Ü¼ÒºÀ/.iotlink/sdk/IoT_LINK/drivers/third_party/ST/STM32L4xx_HAL_Driver/Src\stm32l4xx_hal_pwr_ex.c **** /* Private function prototypes -----------------------------------------------*/
 106:C:/Users/²Ü¼ÒºÀ/.iotlink/sdk/IoT_LINK/drivers/third_party/ST/STM32L4xx_HAL_Driver/Src\stm32l4xx_hal_pwr_ex.c **** /* Exported functions --------------------------------------------------------*/
 107:C:/Users/²Ü¼ÒºÀ/.iotlink/sdk/IoT_LINK/drivers/third_party/ST/STM32L4xx_HAL_Driver/Src\stm32l4xx_hal_pwr_ex.c ****   
 108:C:/Users/²Ü¼ÒºÀ/.iotlink/sdk/IoT_LINK/drivers/third_party/ST/STM32L4xx_HAL_Driver/Src\stm32l4xx_hal_pwr_ex.c **** /** @defgroup PWREx_Exported_Functions PWR Extended Exported Functions
 109:C:/Users/²Ü¼ÒºÀ/.iotlink/sdk/IoT_LINK/drivers/third_party/ST/STM32L4xx_HAL_Driver/Src\stm32l4xx_hal_pwr_ex.c ****   * @{
 110:C:/Users/²Ü¼ÒºÀ/.iotlink/sdk/IoT_LINK/drivers/third_party/ST/STM32L4xx_HAL_Driver/Src\stm32l4xx_hal_pwr_ex.c ****   */
 111:C:/Users/²Ü¼ÒºÀ/.iotlink/sdk/IoT_LINK/drivers/third_party/ST/STM32L4xx_HAL_Driver/Src\stm32l4xx_hal_pwr_ex.c **** 
 112:C:/Users/²Ü¼ÒºÀ/.iotlink/sdk/IoT_LINK/drivers/third_party/ST/STM32L4xx_HAL_Driver/Src\stm32l4xx_hal_pwr_ex.c **** /** @defgroup PWREx_Exported_Functions_Group1 Extended Peripheral Control functions
 113:C:/Users/²Ü¼ÒºÀ/.iotlink/sdk/IoT_LINK/drivers/third_party/ST/STM32L4xx_HAL_Driver/Src\stm32l4xx_hal_pwr_ex.c ****   *  @brief   Extended Peripheral Control functions
 114:C:/Users/²Ü¼ÒºÀ/.iotlink/sdk/IoT_LINK/drivers/third_party/ST/STM32L4xx_HAL_Driver/Src\stm32l4xx_hal_pwr_ex.c ****   *
 115:C:/Users/²Ü¼ÒºÀ/.iotlink/sdk/IoT_LINK/drivers/third_party/ST/STM32L4xx_HAL_Driver/Src\stm32l4xx_hal_pwr_ex.c **** @verbatim
 116:C:/Users/²Ü¼ÒºÀ/.iotlink/sdk/IoT_LINK/drivers/third_party/ST/STM32L4xx_HAL_Driver/Src\stm32l4xx_hal_pwr_ex.c ****  ===============================================================================
 117:C:/Users/²Ü¼ÒºÀ/.iotlink/sdk/IoT_LINK/drivers/third_party/ST/STM32L4xx_HAL_Driver/Src\stm32l4xx_hal_pwr_ex.c ****               ##### Extended Peripheral Initialization and de-initialization functions #####
 118:C:/Users/²Ü¼ÒºÀ/.iotlink/sdk/IoT_LINK/drivers/third_party/ST/STM32L4xx_HAL_Driver/Src\stm32l4xx_hal_pwr_ex.c ****  ===============================================================================
 119:C:/Users/²Ü¼ÒºÀ/.iotlink/sdk/IoT_LINK/drivers/third_party/ST/STM32L4xx_HAL_Driver/Src\stm32l4xx_hal_pwr_ex.c ****     [..]
 120:C:/Users/²Ü¼ÒºÀ/.iotlink/sdk/IoT_LINK/drivers/third_party/ST/STM32L4xx_HAL_Driver/Src\stm32l4xx_hal_pwr_ex.c **** 
 121:C:/Users/²Ü¼ÒºÀ/.iotlink/sdk/IoT_LINK/drivers/third_party/ST/STM32L4xx_HAL_Driver/Src\stm32l4xx_hal_pwr_ex.c **** @endverbatim
 122:C:/Users/²Ü¼ÒºÀ/.iotlink/sdk/IoT_LINK/drivers/third_party/ST/STM32L4xx_HAL_Driver/Src\stm32l4xx_hal_pwr_ex.c ****   * @{
 123:C:/Users/²Ü¼ÒºÀ/.iotlink/sdk/IoT_LINK/drivers/third_party/ST/STM32L4xx_HAL_Driver/Src\stm32l4xx_hal_pwr_ex.c ****   */
 124:C:/Users/²Ü¼ÒºÀ/.iotlink/sdk/IoT_LINK/drivers/third_party/ST/STM32L4xx_HAL_Driver/Src\stm32l4xx_hal_pwr_ex.c ****   
 125:C:/Users/²Ü¼ÒºÀ/.iotlink/sdk/IoT_LINK/drivers/third_party/ST/STM32L4xx_HAL_Driver/Src\stm32l4xx_hal_pwr_ex.c **** 
 126:C:/Users/²Ü¼ÒºÀ/.iotlink/sdk/IoT_LINK/drivers/third_party/ST/STM32L4xx_HAL_Driver/Src\stm32l4xx_hal_pwr_ex.c **** /**
 127:C:/Users/²Ü¼ÒºÀ/.iotlink/sdk/IoT_LINK/drivers/third_party/ST/STM32L4xx_HAL_Driver/Src\stm32l4xx_hal_pwr_ex.c ****   * @brief Return Voltage Scaling Range.
 128:C:/Users/²Ü¼ÒºÀ/.iotlink/sdk/IoT_LINK/drivers/third_party/ST/STM32L4xx_HAL_Driver/Src\stm32l4xx_hal_pwr_ex.c ****   * @retval VOS bit field (PWR_REGULATOR_VOLTAGE_RANGE1 or PWR_REGULATOR_VOLTAGE_RANGE2 
 129:C:/Users/²Ü¼ÒºÀ/.iotlink/sdk/IoT_LINK/drivers/third_party/ST/STM32L4xx_HAL_Driver/Src\stm32l4xx_hal_pwr_ex.c ****   *         or PWR_REGULATOR_VOLTAGE_SCALE1_BOOST when applicable)
 130:C:/Users/²Ü¼ÒºÀ/.iotlink/sdk/IoT_LINK/drivers/third_party/ST/STM32L4xx_HAL_Driver/Src\stm32l4xx_hal_pwr_ex.c ****   */  
 131:C:/Users/²Ü¼ÒºÀ/.iotlink/sdk/IoT_LINK/drivers/third_party/ST/STM32L4xx_HAL_Driver/Src\stm32l4xx_hal_pwr_ex.c **** uint32_t HAL_PWREx_GetVoltageRange(void)
 132:C:/Users/²Ü¼ÒºÀ/.iotlink/sdk/IoT_LINK/drivers/third_party/ST/STM32L4xx_HAL_Driver/Src\stm32l4xx_hal_pwr_ex.c **** {
  29              		.loc 1 132 1 view -0
  30              		.cfi_startproc
  31              		@ args = 0, pretend = 0, frame = 0
  32              		@ frame_needed = 0, uses_anonymous_args = 0
  33              		@ link register save eliminated.
 133:C:/Users/²Ü¼ÒºÀ/.iotlink/sdk/IoT_LINK/drivers/third_party/ST/STM32L4xx_HAL_Driver/Src\stm32l4xx_hal_pwr_ex.c **** #if defined(PWR_CR5_R1MODE)
 134:C:/Users/²Ü¼ÒºÀ/.iotlink/sdk/IoT_LINK/drivers/third_party/ST/STM32L4xx_HAL_Driver/Src\stm32l4xx_hal_pwr_ex.c ****     if (READ_BIT(PWR->CR1, PWR_CR1_VOS) == PWR_REGULATOR_VOLTAGE_SCALE2)
 135:C:/Users/²Ü¼ÒºÀ/.iotlink/sdk/IoT_LINK/drivers/third_party/ST/STM32L4xx_HAL_Driver/Src\stm32l4xx_hal_pwr_ex.c ****     {
 136:C:/Users/²Ü¼ÒºÀ/.iotlink/sdk/IoT_LINK/drivers/third_party/ST/STM32L4xx_HAL_Driver/Src\stm32l4xx_hal_pwr_ex.c ****       return PWR_REGULATOR_VOLTAGE_SCALE2;
 137:C:/Users/²Ü¼ÒºÀ/.iotlink/sdk/IoT_LINK/drivers/third_party/ST/STM32L4xx_HAL_Driver/Src\stm32l4xx_hal_pwr_ex.c ****     }
 138:C:/Users/²Ü¼ÒºÀ/.iotlink/sdk/IoT_LINK/drivers/third_party/ST/STM32L4xx_HAL_Driver/Src\stm32l4xx_hal_pwr_ex.c ****     else if (READ_BIT(PWR->CR5, PWR_CR5_R1MODE) == PWR_CR5_R1MODE)
 139:C:/Users/²Ü¼ÒºÀ/.iotlink/sdk/IoT_LINK/drivers/third_party/ST/STM32L4xx_HAL_Driver/Src\stm32l4xx_hal_pwr_ex.c ****     {
ARM GAS  C:\Users\²Ü¼ÒºÀ\AppData\Local\Temp\cczPott0.s 			page 4


 140:C:/Users/²Ü¼ÒºÀ/.iotlink/sdk/IoT_LINK/drivers/third_party/ST/STM32L4xx_HAL_Driver/Src\stm32l4xx_hal_pwr_ex.c ****       /* PWR_CR5_R1MODE bit set means that Range 1 Boost is disabled */
 141:C:/Users/²Ü¼ÒºÀ/.iotlink/sdk/IoT_LINK/drivers/third_party/ST/STM32L4xx_HAL_Driver/Src\stm32l4xx_hal_pwr_ex.c ****       return PWR_REGULATOR_VOLTAGE_SCALE1;
 142:C:/Users/²Ü¼ÒºÀ/.iotlink/sdk/IoT_LINK/drivers/third_party/ST/STM32L4xx_HAL_Driver/Src\stm32l4xx_hal_pwr_ex.c ****     }
 143:C:/Users/²Ü¼ÒºÀ/.iotlink/sdk/IoT_LINK/drivers/third_party/ST/STM32L4xx_HAL_Driver/Src\stm32l4xx_hal_pwr_ex.c ****     else
 144:C:/Users/²Ü¼ÒºÀ/.iotlink/sdk/IoT_LINK/drivers/third_party/ST/STM32L4xx_HAL_Driver/Src\stm32l4xx_hal_pwr_ex.c ****     {
 145:C:/Users/²Ü¼ÒºÀ/.iotlink/sdk/IoT_LINK/drivers/third_party/ST/STM32L4xx_HAL_Driver/Src\stm32l4xx_hal_pwr_ex.c ****       return PWR_REGULATOR_VOLTAGE_SCALE1_BOOST;
 146:C:/Users/²Ü¼ÒºÀ/.iotlink/sdk/IoT_LINK/drivers/third_party/ST/STM32L4xx_HAL_Driver/Src\stm32l4xx_hal_pwr_ex.c ****     }
 147:C:/Users/²Ü¼ÒºÀ/.iotlink/sdk/IoT_LINK/drivers/third_party/ST/STM32L4xx_HAL_Driver/Src\stm32l4xx_hal_pwr_ex.c **** #else
 148:C:/Users/²Ü¼ÒºÀ/.iotlink/sdk/IoT_LINK/drivers/third_party/ST/STM32L4xx_HAL_Driver/Src\stm32l4xx_hal_pwr_ex.c ****   return  (PWR->CR1 & PWR_CR1_VOS);
  34              		.loc 1 148 3 view .LVU1
  35              		.loc 1 148 15 is_stmt 0 view .LVU2
  36 0000 024B     		ldr	r3, .L2
  37 0002 1868     		ldr	r0, [r3]
 149:C:/Users/²Ü¼ÒºÀ/.iotlink/sdk/IoT_LINK/drivers/third_party/ST/STM32L4xx_HAL_Driver/Src\stm32l4xx_hal_pwr_ex.c **** #endif  
 150:C:/Users/²Ü¼ÒºÀ/.iotlink/sdk/IoT_LINK/drivers/third_party/ST/STM32L4xx_HAL_Driver/Src\stm32l4xx_hal_pwr_ex.c **** }
  38              		.loc 1 150 1 view .LVU3
  39 0004 00F4C060 		and	r0, r0, #1536
  40 0008 7047     		bx	lr
  41              	.L3:
  42 000a 00BF     		.align	2
  43              	.L2:
  44 000c 00700040 		.word	1073770496
  45              		.cfi_endproc
  46              	.LFE287:
  48              		.section	.text.HAL_PWREx_ControlVoltageScaling,"ax",%progbits
  49              		.align	1
  50              		.global	HAL_PWREx_ControlVoltageScaling
  51              		.syntax unified
  52              		.thumb
  53              		.thumb_func
  54              		.fpu fpv4-sp-d16
  56              	HAL_PWREx_ControlVoltageScaling:
  57              	.LVL0:
  58              	.LFB288:
 151:C:/Users/²Ü¼ÒºÀ/.iotlink/sdk/IoT_LINK/drivers/third_party/ST/STM32L4xx_HAL_Driver/Src\stm32l4xx_hal_pwr_ex.c **** 
 152:C:/Users/²Ü¼ÒºÀ/.iotlink/sdk/IoT_LINK/drivers/third_party/ST/STM32L4xx_HAL_Driver/Src\stm32l4xx_hal_pwr_ex.c ****   
 153:C:/Users/²Ü¼ÒºÀ/.iotlink/sdk/IoT_LINK/drivers/third_party/ST/STM32L4xx_HAL_Driver/Src\stm32l4xx_hal_pwr_ex.c **** 
 154:C:/Users/²Ü¼ÒºÀ/.iotlink/sdk/IoT_LINK/drivers/third_party/ST/STM32L4xx_HAL_Driver/Src\stm32l4xx_hal_pwr_ex.c **** /**
 155:C:/Users/²Ü¼ÒºÀ/.iotlink/sdk/IoT_LINK/drivers/third_party/ST/STM32L4xx_HAL_Driver/Src\stm32l4xx_hal_pwr_ex.c ****   * @brief Configure the main internal regulator output voltage.
 156:C:/Users/²Ü¼ÒºÀ/.iotlink/sdk/IoT_LINK/drivers/third_party/ST/STM32L4xx_HAL_Driver/Src\stm32l4xx_hal_pwr_ex.c ****   * @param  VoltageScaling: specifies the regulator output voltage to achieve
 157:C:/Users/²Ü¼ÒºÀ/.iotlink/sdk/IoT_LINK/drivers/third_party/ST/STM32L4xx_HAL_Driver/Src\stm32l4xx_hal_pwr_ex.c ****   *         a tradeoff between performance and power consumption.
 158:C:/Users/²Ü¼ÒºÀ/.iotlink/sdk/IoT_LINK/drivers/third_party/ST/STM32L4xx_HAL_Driver/Src\stm32l4xx_hal_pwr_ex.c ****   *          This parameter can be one of the following values:
 159:C:/Users/²Ü¼ÒºÀ/.iotlink/sdk/IoT_LINK/drivers/third_party/ST/STM32L4xx_HAL_Driver/Src\stm32l4xx_hal_pwr_ex.c ****   @if STM32L4S9xx
 160:C:/Users/²Ü¼ÒºÀ/.iotlink/sdk/IoT_LINK/drivers/third_party/ST/STM32L4xx_HAL_Driver/Src\stm32l4xx_hal_pwr_ex.c ****   *            @arg @ref PWR_REGULATOR_VOLTAGE_SCALE1_BOOST when available, Regulator voltage outpu
 161:C:/Users/²Ü¼ÒºÀ/.iotlink/sdk/IoT_LINK/drivers/third_party/ST/STM32L4xx_HAL_Driver/Src\stm32l4xx_hal_pwr_ex.c ****   *                                                typical output voltage at 1.2 V,                
 162:C:/Users/²Ü¼ÒºÀ/.iotlink/sdk/IoT_LINK/drivers/third_party/ST/STM32L4xx_HAL_Driver/Src\stm32l4xx_hal_pwr_ex.c ****   *                                                system frequency up to 120 MHz.  
 163:C:/Users/²Ü¼ÒºÀ/.iotlink/sdk/IoT_LINK/drivers/third_party/ST/STM32L4xx_HAL_Driver/Src\stm32l4xx_hal_pwr_ex.c ****   @endif
 164:C:/Users/²Ü¼ÒºÀ/.iotlink/sdk/IoT_LINK/drivers/third_party/ST/STM32L4xx_HAL_Driver/Src\stm32l4xx_hal_pwr_ex.c ****   *            @arg @ref PWR_REGULATOR_VOLTAGE_SCALE1 Regulator voltage output range 1 mode,
 165:C:/Users/²Ü¼ÒºÀ/.iotlink/sdk/IoT_LINK/drivers/third_party/ST/STM32L4xx_HAL_Driver/Src\stm32l4xx_hal_pwr_ex.c ****   *                                                typical output voltage at 1.2 V,  
 166:C:/Users/²Ü¼ÒºÀ/.iotlink/sdk/IoT_LINK/drivers/third_party/ST/STM32L4xx_HAL_Driver/Src\stm32l4xx_hal_pwr_ex.c ****   *                                                system frequency up to 80 MHz.
 167:C:/Users/²Ü¼ÒºÀ/.iotlink/sdk/IoT_LINK/drivers/third_party/ST/STM32L4xx_HAL_Driver/Src\stm32l4xx_hal_pwr_ex.c ****   *            @arg @ref PWR_REGULATOR_VOLTAGE_SCALE2 Regulator voltage output range 2 mode,
 168:C:/Users/²Ü¼ÒºÀ/.iotlink/sdk/IoT_LINK/drivers/third_party/ST/STM32L4xx_HAL_Driver/Src\stm32l4xx_hal_pwr_ex.c ****   *                                                typical output voltage at 1.0 V,                
 169:C:/Users/²Ü¼ÒºÀ/.iotlink/sdk/IoT_LINK/drivers/third_party/ST/STM32L4xx_HAL_Driver/Src\stm32l4xx_hal_pwr_ex.c ****   *                                                system frequency up to 26 MHz.
 170:C:/Users/²Ü¼ÒºÀ/.iotlink/sdk/IoT_LINK/drivers/third_party/ST/STM32L4xx_HAL_Driver/Src\stm32l4xx_hal_pwr_ex.c ****   * @note  When moving from Range 1 to Range 2, the system frequency must be decreased to
 171:C:/Users/²Ü¼ÒºÀ/.iotlink/sdk/IoT_LINK/drivers/third_party/ST/STM32L4xx_HAL_Driver/Src\stm32l4xx_hal_pwr_ex.c ****   *        a value below 26 MHz before calling HAL_PWREx_ControlVoltageScaling() API.
 172:C:/Users/²Ü¼ÒºÀ/.iotlink/sdk/IoT_LINK/drivers/third_party/ST/STM32L4xx_HAL_Driver/Src\stm32l4xx_hal_pwr_ex.c ****   *        When moving from Range 2 to Range 1, the system frequency can be increased to
 173:C:/Users/²Ü¼ÒºÀ/.iotlink/sdk/IoT_LINK/drivers/third_party/ST/STM32L4xx_HAL_Driver/Src\stm32l4xx_hal_pwr_ex.c ****   *        a value up to 80 MHz after calling HAL_PWREx_ControlVoltageScaling() API. For
ARM GAS  C:\Users\²Ü¼ÒºÀ\AppData\Local\Temp\cczPott0.s 			page 5


 174:C:/Users/²Ü¼ÒºÀ/.iotlink/sdk/IoT_LINK/drivers/third_party/ST/STM32L4xx_HAL_Driver/Src\stm32l4xx_hal_pwr_ex.c ****   *        some devices, the system frequency can be increased up to 120 MHz.  
 175:C:/Users/²Ü¼ÒºÀ/.iotlink/sdk/IoT_LINK/drivers/third_party/ST/STM32L4xx_HAL_Driver/Src\stm32l4xx_hal_pwr_ex.c ****   * @note  When moving from Range 2 to Range 1, the API waits for VOSF flag to be
 176:C:/Users/²Ü¼ÒºÀ/.iotlink/sdk/IoT_LINK/drivers/third_party/ST/STM32L4xx_HAL_Driver/Src\stm32l4xx_hal_pwr_ex.c ****   *        cleared before returning the status. If the flag is not cleared within
 177:C:/Users/²Ü¼ÒºÀ/.iotlink/sdk/IoT_LINK/drivers/third_party/ST/STM32L4xx_HAL_Driver/Src\stm32l4xx_hal_pwr_ex.c ****   *        50 microseconds, HAL_TIMEOUT status is reported.                    
 178:C:/Users/²Ü¼ÒºÀ/.iotlink/sdk/IoT_LINK/drivers/third_party/ST/STM32L4xx_HAL_Driver/Src\stm32l4xx_hal_pwr_ex.c ****   * @retval HAL Status
 179:C:/Users/²Ü¼ÒºÀ/.iotlink/sdk/IoT_LINK/drivers/third_party/ST/STM32L4xx_HAL_Driver/Src\stm32l4xx_hal_pwr_ex.c ****   */
 180:C:/Users/²Ü¼ÒºÀ/.iotlink/sdk/IoT_LINK/drivers/third_party/ST/STM32L4xx_HAL_Driver/Src\stm32l4xx_hal_pwr_ex.c **** HAL_StatusTypeDef HAL_PWREx_ControlVoltageScaling(uint32_t VoltageScaling)
 181:C:/Users/²Ü¼ÒºÀ/.iotlink/sdk/IoT_LINK/drivers/third_party/ST/STM32L4xx_HAL_Driver/Src\stm32l4xx_hal_pwr_ex.c **** {
  59              		.loc 1 181 1 is_stmt 1 view -0
  60              		.cfi_startproc
  61              		@ args = 0, pretend = 0, frame = 0
  62              		@ frame_needed = 0, uses_anonymous_args = 0
  63              		@ link register save eliminated.
 182:C:/Users/²Ü¼ÒºÀ/.iotlink/sdk/IoT_LINK/drivers/third_party/ST/STM32L4xx_HAL_Driver/Src\stm32l4xx_hal_pwr_ex.c ****   uint32_t wait_loop_index = 0;  
  64              		.loc 1 182 3 view .LVU5
 183:C:/Users/²Ü¼ÒºÀ/.iotlink/sdk/IoT_LINK/drivers/third_party/ST/STM32L4xx_HAL_Driver/Src\stm32l4xx_hal_pwr_ex.c **** 
 184:C:/Users/²Ü¼ÒºÀ/.iotlink/sdk/IoT_LINK/drivers/third_party/ST/STM32L4xx_HAL_Driver/Src\stm32l4xx_hal_pwr_ex.c ****   assert_param(IS_PWR_VOLTAGE_SCALING_RANGE(VoltageScaling));
  65              		.loc 1 184 3 view .LVU6
 185:C:/Users/²Ü¼ÒºÀ/.iotlink/sdk/IoT_LINK/drivers/third_party/ST/STM32L4xx_HAL_Driver/Src\stm32l4xx_hal_pwr_ex.c **** 
 186:C:/Users/²Ü¼ÒºÀ/.iotlink/sdk/IoT_LINK/drivers/third_party/ST/STM32L4xx_HAL_Driver/Src\stm32l4xx_hal_pwr_ex.c **** #if defined(PWR_CR5_R1MODE)
 187:C:/Users/²Ü¼ÒºÀ/.iotlink/sdk/IoT_LINK/drivers/third_party/ST/STM32L4xx_HAL_Driver/Src\stm32l4xx_hal_pwr_ex.c ****   if (VoltageScaling == PWR_REGULATOR_VOLTAGE_SCALE1_BOOST)
 188:C:/Users/²Ü¼ÒºÀ/.iotlink/sdk/IoT_LINK/drivers/third_party/ST/STM32L4xx_HAL_Driver/Src\stm32l4xx_hal_pwr_ex.c ****   {
 189:C:/Users/²Ü¼ÒºÀ/.iotlink/sdk/IoT_LINK/drivers/third_party/ST/STM32L4xx_HAL_Driver/Src\stm32l4xx_hal_pwr_ex.c ****     /* If current range is range 2 */
 190:C:/Users/²Ü¼ÒºÀ/.iotlink/sdk/IoT_LINK/drivers/third_party/ST/STM32L4xx_HAL_Driver/Src\stm32l4xx_hal_pwr_ex.c ****     if (READ_BIT(PWR->CR1, PWR_CR1_VOS) == PWR_REGULATOR_VOLTAGE_SCALE2)
 191:C:/Users/²Ü¼ÒºÀ/.iotlink/sdk/IoT_LINK/drivers/third_party/ST/STM32L4xx_HAL_Driver/Src\stm32l4xx_hal_pwr_ex.c ****     {
 192:C:/Users/²Ü¼ÒºÀ/.iotlink/sdk/IoT_LINK/drivers/third_party/ST/STM32L4xx_HAL_Driver/Src\stm32l4xx_hal_pwr_ex.c ****       /* Make sure Range 1 Boost is enabled */
 193:C:/Users/²Ü¼ÒºÀ/.iotlink/sdk/IoT_LINK/drivers/third_party/ST/STM32L4xx_HAL_Driver/Src\stm32l4xx_hal_pwr_ex.c ****       CLEAR_BIT(PWR->CR5, PWR_CR5_R1MODE);
 194:C:/Users/²Ü¼ÒºÀ/.iotlink/sdk/IoT_LINK/drivers/third_party/ST/STM32L4xx_HAL_Driver/Src\stm32l4xx_hal_pwr_ex.c ****       
 195:C:/Users/²Ü¼ÒºÀ/.iotlink/sdk/IoT_LINK/drivers/third_party/ST/STM32L4xx_HAL_Driver/Src\stm32l4xx_hal_pwr_ex.c ****       /* Set Range 1 */
 196:C:/Users/²Ü¼ÒºÀ/.iotlink/sdk/IoT_LINK/drivers/third_party/ST/STM32L4xx_HAL_Driver/Src\stm32l4xx_hal_pwr_ex.c ****       MODIFY_REG(PWR->CR1, PWR_CR1_VOS, PWR_REGULATOR_VOLTAGE_SCALE1);
 197:C:/Users/²Ü¼ÒºÀ/.iotlink/sdk/IoT_LINK/drivers/third_party/ST/STM32L4xx_HAL_Driver/Src\stm32l4xx_hal_pwr_ex.c ****       
 198:C:/Users/²Ü¼ÒºÀ/.iotlink/sdk/IoT_LINK/drivers/third_party/ST/STM32L4xx_HAL_Driver/Src\stm32l4xx_hal_pwr_ex.c ****       /* Wait until VOSF is cleared */      
 199:C:/Users/²Ü¼ÒºÀ/.iotlink/sdk/IoT_LINK/drivers/third_party/ST/STM32L4xx_HAL_Driver/Src\stm32l4xx_hal_pwr_ex.c ****       wait_loop_index = (PWR_FLAG_SETTING_DELAY_US * (SystemCoreClock / 1000000));
 200:C:/Users/²Ü¼ÒºÀ/.iotlink/sdk/IoT_LINK/drivers/third_party/ST/STM32L4xx_HAL_Driver/Src\stm32l4xx_hal_pwr_ex.c ****       while ((wait_loop_index != 0) && (HAL_IS_BIT_SET(PWR->SR2, PWR_SR2_VOSF)))
 201:C:/Users/²Ü¼ÒºÀ/.iotlink/sdk/IoT_LINK/drivers/third_party/ST/STM32L4xx_HAL_Driver/Src\stm32l4xx_hal_pwr_ex.c ****       {
 202:C:/Users/²Ü¼ÒºÀ/.iotlink/sdk/IoT_LINK/drivers/third_party/ST/STM32L4xx_HAL_Driver/Src\stm32l4xx_hal_pwr_ex.c ****         wait_loop_index--;
 203:C:/Users/²Ü¼ÒºÀ/.iotlink/sdk/IoT_LINK/drivers/third_party/ST/STM32L4xx_HAL_Driver/Src\stm32l4xx_hal_pwr_ex.c ****       }
 204:C:/Users/²Ü¼ÒºÀ/.iotlink/sdk/IoT_LINK/drivers/third_party/ST/STM32L4xx_HAL_Driver/Src\stm32l4xx_hal_pwr_ex.c ****       if (HAL_IS_BIT_SET(PWR->SR2, PWR_SR2_VOSF))
 205:C:/Users/²Ü¼ÒºÀ/.iotlink/sdk/IoT_LINK/drivers/third_party/ST/STM32L4xx_HAL_Driver/Src\stm32l4xx_hal_pwr_ex.c ****       {
 206:C:/Users/²Ü¼ÒºÀ/.iotlink/sdk/IoT_LINK/drivers/third_party/ST/STM32L4xx_HAL_Driver/Src\stm32l4xx_hal_pwr_ex.c ****         return HAL_TIMEOUT;
 207:C:/Users/²Ü¼ÒºÀ/.iotlink/sdk/IoT_LINK/drivers/third_party/ST/STM32L4xx_HAL_Driver/Src\stm32l4xx_hal_pwr_ex.c ****       }    
 208:C:/Users/²Ü¼ÒºÀ/.iotlink/sdk/IoT_LINK/drivers/third_party/ST/STM32L4xx_HAL_Driver/Src\stm32l4xx_hal_pwr_ex.c ****     } 
 209:C:/Users/²Ü¼ÒºÀ/.iotlink/sdk/IoT_LINK/drivers/third_party/ST/STM32L4xx_HAL_Driver/Src\stm32l4xx_hal_pwr_ex.c ****     /* If current range is range 1 normal or boost mode */
 210:C:/Users/²Ü¼ÒºÀ/.iotlink/sdk/IoT_LINK/drivers/third_party/ST/STM32L4xx_HAL_Driver/Src\stm32l4xx_hal_pwr_ex.c ****     else
 211:C:/Users/²Ü¼ÒºÀ/.iotlink/sdk/IoT_LINK/drivers/third_party/ST/STM32L4xx_HAL_Driver/Src\stm32l4xx_hal_pwr_ex.c ****     {
 212:C:/Users/²Ü¼ÒºÀ/.iotlink/sdk/IoT_LINK/drivers/third_party/ST/STM32L4xx_HAL_Driver/Src\stm32l4xx_hal_pwr_ex.c ****       /* Enable Range 1 Boost (no issue if bit already reset) */
 213:C:/Users/²Ü¼ÒºÀ/.iotlink/sdk/IoT_LINK/drivers/third_party/ST/STM32L4xx_HAL_Driver/Src\stm32l4xx_hal_pwr_ex.c ****       CLEAR_BIT(PWR->CR5, PWR_CR5_R1MODE);
 214:C:/Users/²Ü¼ÒºÀ/.iotlink/sdk/IoT_LINK/drivers/third_party/ST/STM32L4xx_HAL_Driver/Src\stm32l4xx_hal_pwr_ex.c ****     }
 215:C:/Users/²Ü¼ÒºÀ/.iotlink/sdk/IoT_LINK/drivers/third_party/ST/STM32L4xx_HAL_Driver/Src\stm32l4xx_hal_pwr_ex.c ****   }
 216:C:/Users/²Ü¼ÒºÀ/.iotlink/sdk/IoT_LINK/drivers/third_party/ST/STM32L4xx_HAL_Driver/Src\stm32l4xx_hal_pwr_ex.c ****   else if (VoltageScaling == PWR_REGULATOR_VOLTAGE_SCALE1)
 217:C:/Users/²Ü¼ÒºÀ/.iotlink/sdk/IoT_LINK/drivers/third_party/ST/STM32L4xx_HAL_Driver/Src\stm32l4xx_hal_pwr_ex.c ****   {
 218:C:/Users/²Ü¼ÒºÀ/.iotlink/sdk/IoT_LINK/drivers/third_party/ST/STM32L4xx_HAL_Driver/Src\stm32l4xx_hal_pwr_ex.c ****     /* If current range is range 2 */
 219:C:/Users/²Ü¼ÒºÀ/.iotlink/sdk/IoT_LINK/drivers/third_party/ST/STM32L4xx_HAL_Driver/Src\stm32l4xx_hal_pwr_ex.c ****     if (READ_BIT(PWR->CR1, PWR_CR1_VOS) == PWR_REGULATOR_VOLTAGE_SCALE2)
 220:C:/Users/²Ü¼ÒºÀ/.iotlink/sdk/IoT_LINK/drivers/third_party/ST/STM32L4xx_HAL_Driver/Src\stm32l4xx_hal_pwr_ex.c ****     {
 221:C:/Users/²Ü¼ÒºÀ/.iotlink/sdk/IoT_LINK/drivers/third_party/ST/STM32L4xx_HAL_Driver/Src\stm32l4xx_hal_pwr_ex.c ****       /* Make sure Range 1 Boost is disabled */
 222:C:/Users/²Ü¼ÒºÀ/.iotlink/sdk/IoT_LINK/drivers/third_party/ST/STM32L4xx_HAL_Driver/Src\stm32l4xx_hal_pwr_ex.c ****       SET_BIT(PWR->CR5, PWR_CR5_R1MODE);
 223:C:/Users/²Ü¼ÒºÀ/.iotlink/sdk/IoT_LINK/drivers/third_party/ST/STM32L4xx_HAL_Driver/Src\stm32l4xx_hal_pwr_ex.c ****       
ARM GAS  C:\Users\²Ü¼ÒºÀ\AppData\Local\Temp\cczPott0.s 			page 6


 224:C:/Users/²Ü¼ÒºÀ/.iotlink/sdk/IoT_LINK/drivers/third_party/ST/STM32L4xx_HAL_Driver/Src\stm32l4xx_hal_pwr_ex.c ****       /* Set Range 1 */
 225:C:/Users/²Ü¼ÒºÀ/.iotlink/sdk/IoT_LINK/drivers/third_party/ST/STM32L4xx_HAL_Driver/Src\stm32l4xx_hal_pwr_ex.c ****       MODIFY_REG(PWR->CR1, PWR_CR1_VOS, PWR_REGULATOR_VOLTAGE_SCALE1);
 226:C:/Users/²Ü¼ÒºÀ/.iotlink/sdk/IoT_LINK/drivers/third_party/ST/STM32L4xx_HAL_Driver/Src\stm32l4xx_hal_pwr_ex.c ****       
 227:C:/Users/²Ü¼ÒºÀ/.iotlink/sdk/IoT_LINK/drivers/third_party/ST/STM32L4xx_HAL_Driver/Src\stm32l4xx_hal_pwr_ex.c ****       /* Wait until VOSF is cleared */      
 228:C:/Users/²Ü¼ÒºÀ/.iotlink/sdk/IoT_LINK/drivers/third_party/ST/STM32L4xx_HAL_Driver/Src\stm32l4xx_hal_pwr_ex.c ****       wait_loop_index = (PWR_FLAG_SETTING_DELAY_US * (SystemCoreClock / 1000000));
 229:C:/Users/²Ü¼ÒºÀ/.iotlink/sdk/IoT_LINK/drivers/third_party/ST/STM32L4xx_HAL_Driver/Src\stm32l4xx_hal_pwr_ex.c ****       while ((wait_loop_index != 0) && (HAL_IS_BIT_SET(PWR->SR2, PWR_SR2_VOSF)))
 230:C:/Users/²Ü¼ÒºÀ/.iotlink/sdk/IoT_LINK/drivers/third_party/ST/STM32L4xx_HAL_Driver/Src\stm32l4xx_hal_pwr_ex.c ****       {
 231:C:/Users/²Ü¼ÒºÀ/.iotlink/sdk/IoT_LINK/drivers/third_party/ST/STM32L4xx_HAL_Driver/Src\stm32l4xx_hal_pwr_ex.c ****         wait_loop_index--;
 232:C:/Users/²Ü¼ÒºÀ/.iotlink/sdk/IoT_LINK/drivers/third_party/ST/STM32L4xx_HAL_Driver/Src\stm32l4xx_hal_pwr_ex.c ****       }
 233:C:/Users/²Ü¼ÒºÀ/.iotlink/sdk/IoT_LINK/drivers/third_party/ST/STM32L4xx_HAL_Driver/Src\stm32l4xx_hal_pwr_ex.c ****       if (HAL_IS_BIT_SET(PWR->SR2, PWR_SR2_VOSF))
 234:C:/Users/²Ü¼ÒºÀ/.iotlink/sdk/IoT_LINK/drivers/third_party/ST/STM32L4xx_HAL_Driver/Src\stm32l4xx_hal_pwr_ex.c ****       {
 235:C:/Users/²Ü¼ÒºÀ/.iotlink/sdk/IoT_LINK/drivers/third_party/ST/STM32L4xx_HAL_Driver/Src\stm32l4xx_hal_pwr_ex.c ****         return HAL_TIMEOUT;
 236:C:/Users/²Ü¼ÒºÀ/.iotlink/sdk/IoT_LINK/drivers/third_party/ST/STM32L4xx_HAL_Driver/Src\stm32l4xx_hal_pwr_ex.c ****       }    
 237:C:/Users/²Ü¼ÒºÀ/.iotlink/sdk/IoT_LINK/drivers/third_party/ST/STM32L4xx_HAL_Driver/Src\stm32l4xx_hal_pwr_ex.c ****     } 
 238:C:/Users/²Ü¼ÒºÀ/.iotlink/sdk/IoT_LINK/drivers/third_party/ST/STM32L4xx_HAL_Driver/Src\stm32l4xx_hal_pwr_ex.c ****      /* If current range is range 1 normal or boost mode */
 239:C:/Users/²Ü¼ÒºÀ/.iotlink/sdk/IoT_LINK/drivers/third_party/ST/STM32L4xx_HAL_Driver/Src\stm32l4xx_hal_pwr_ex.c ****     else
 240:C:/Users/²Ü¼ÒºÀ/.iotlink/sdk/IoT_LINK/drivers/third_party/ST/STM32L4xx_HAL_Driver/Src\stm32l4xx_hal_pwr_ex.c ****     {
 241:C:/Users/²Ü¼ÒºÀ/.iotlink/sdk/IoT_LINK/drivers/third_party/ST/STM32L4xx_HAL_Driver/Src\stm32l4xx_hal_pwr_ex.c ****       /* Disable Range 1 Boost (no issue if bit already set) */
 242:C:/Users/²Ü¼ÒºÀ/.iotlink/sdk/IoT_LINK/drivers/third_party/ST/STM32L4xx_HAL_Driver/Src\stm32l4xx_hal_pwr_ex.c ****       SET_BIT(PWR->CR5, PWR_CR5_R1MODE);
 243:C:/Users/²Ü¼ÒºÀ/.iotlink/sdk/IoT_LINK/drivers/third_party/ST/STM32L4xx_HAL_Driver/Src\stm32l4xx_hal_pwr_ex.c ****     } 
 244:C:/Users/²Ü¼ÒºÀ/.iotlink/sdk/IoT_LINK/drivers/third_party/ST/STM32L4xx_HAL_Driver/Src\stm32l4xx_hal_pwr_ex.c ****   }
 245:C:/Users/²Ü¼ÒºÀ/.iotlink/sdk/IoT_LINK/drivers/third_party/ST/STM32L4xx_HAL_Driver/Src\stm32l4xx_hal_pwr_ex.c ****   else
 246:C:/Users/²Ü¼ÒºÀ/.iotlink/sdk/IoT_LINK/drivers/third_party/ST/STM32L4xx_HAL_Driver/Src\stm32l4xx_hal_pwr_ex.c ****   {
 247:C:/Users/²Ü¼ÒºÀ/.iotlink/sdk/IoT_LINK/drivers/third_party/ST/STM32L4xx_HAL_Driver/Src\stm32l4xx_hal_pwr_ex.c ****     /* Set Range 2 */
 248:C:/Users/²Ü¼ÒºÀ/.iotlink/sdk/IoT_LINK/drivers/third_party/ST/STM32L4xx_HAL_Driver/Src\stm32l4xx_hal_pwr_ex.c ****     MODIFY_REG(PWR->CR1, PWR_CR1_VOS, PWR_REGULATOR_VOLTAGE_SCALE2);
 249:C:/Users/²Ü¼ÒºÀ/.iotlink/sdk/IoT_LINK/drivers/third_party/ST/STM32L4xx_HAL_Driver/Src\stm32l4xx_hal_pwr_ex.c ****     /* No need to wait for VOSF to be cleared for this transition */
 250:C:/Users/²Ü¼ÒºÀ/.iotlink/sdk/IoT_LINK/drivers/third_party/ST/STM32L4xx_HAL_Driver/Src\stm32l4xx_hal_pwr_ex.c ****     /* PWR_CR5_R1MODE bit setting has no effect in Range 2        */    
 251:C:/Users/²Ü¼ÒºÀ/.iotlink/sdk/IoT_LINK/drivers/third_party/ST/STM32L4xx_HAL_Driver/Src\stm32l4xx_hal_pwr_ex.c ****   }
 252:C:/Users/²Ü¼ÒºÀ/.iotlink/sdk/IoT_LINK/drivers/third_party/ST/STM32L4xx_HAL_Driver/Src\stm32l4xx_hal_pwr_ex.c ****   
 253:C:/Users/²Ü¼ÒºÀ/.iotlink/sdk/IoT_LINK/drivers/third_party/ST/STM32L4xx_HAL_Driver/Src\stm32l4xx_hal_pwr_ex.c **** #else
 254:C:/Users/²Ü¼ÒºÀ/.iotlink/sdk/IoT_LINK/drivers/third_party/ST/STM32L4xx_HAL_Driver/Src\stm32l4xx_hal_pwr_ex.c **** 
 255:C:/Users/²Ü¼ÒºÀ/.iotlink/sdk/IoT_LINK/drivers/third_party/ST/STM32L4xx_HAL_Driver/Src\stm32l4xx_hal_pwr_ex.c ****   /* If Set Range 1 */
 256:C:/Users/²Ü¼ÒºÀ/.iotlink/sdk/IoT_LINK/drivers/third_party/ST/STM32L4xx_HAL_Driver/Src\stm32l4xx_hal_pwr_ex.c ****   if (VoltageScaling == PWR_REGULATOR_VOLTAGE_SCALE1)
  66              		.loc 1 256 3 view .LVU7
  67 0000 164B     		ldr	r3, .L21
 257:C:/Users/²Ü¼ÒºÀ/.iotlink/sdk/IoT_LINK/drivers/third_party/ST/STM32L4xx_HAL_Driver/Src\stm32l4xx_hal_pwr_ex.c ****   {
 258:C:/Users/²Ü¼ÒºÀ/.iotlink/sdk/IoT_LINK/drivers/third_party/ST/STM32L4xx_HAL_Driver/Src\stm32l4xx_hal_pwr_ex.c ****     if (READ_BIT(PWR->CR1, PWR_CR1_VOS) != PWR_REGULATOR_VOLTAGE_SCALE1)
  68              		.loc 1 258 9 is_stmt 0 view .LVU8
  69 0002 1A68     		ldr	r2, [r3]
 256:C:/Users/²Ü¼ÒºÀ/.iotlink/sdk/IoT_LINK/drivers/third_party/ST/STM32L4xx_HAL_Driver/Src\stm32l4xx_hal_pwr_ex.c ****   {
  70              		.loc 1 256 6 view .LVU9
  71 0004 B0F5007F 		cmp	r0, #512
  72              		.loc 1 258 9 view .LVU10
  73 0008 02F4C062 		and	r2, r2, #1536
 256:C:/Users/²Ü¼ÒºÀ/.iotlink/sdk/IoT_LINK/drivers/third_party/ST/STM32L4xx_HAL_Driver/Src\stm32l4xx_hal_pwr_ex.c ****   {
  74              		.loc 1 256 6 view .LVU11
  75 000c 1CD1     		bne	.L5
  76              		.loc 1 258 5 is_stmt 1 view .LVU12
  77              		.loc 1 258 8 is_stmt 0 view .LVU13
  78 000e B2F5007F 		cmp	r2, #512
  79 0012 01D1     		bne	.L6
  80              	.LVL1:
  81              	.L20:
 259:C:/Users/²Ü¼ÒºÀ/.iotlink/sdk/IoT_LINK/drivers/third_party/ST/STM32L4xx_HAL_Driver/Src\stm32l4xx_hal_pwr_ex.c ****     {
 260:C:/Users/²Ü¼ÒºÀ/.iotlink/sdk/IoT_LINK/drivers/third_party/ST/STM32L4xx_HAL_Driver/Src\stm32l4xx_hal_pwr_ex.c ****       /* Set Range 1 */
 261:C:/Users/²Ü¼ÒºÀ/.iotlink/sdk/IoT_LINK/drivers/third_party/ST/STM32L4xx_HAL_Driver/Src\stm32l4xx_hal_pwr_ex.c ****       MODIFY_REG(PWR->CR1, PWR_CR1_VOS, PWR_REGULATOR_VOLTAGE_SCALE1);
 262:C:/Users/²Ü¼ÒºÀ/.iotlink/sdk/IoT_LINK/drivers/third_party/ST/STM32L4xx_HAL_Driver/Src\stm32l4xx_hal_pwr_ex.c ****       
ARM GAS  C:\Users\²Ü¼ÒºÀ\AppData\Local\Temp\cczPott0.s 			page 7


 263:C:/Users/²Ü¼ÒºÀ/.iotlink/sdk/IoT_LINK/drivers/third_party/ST/STM32L4xx_HAL_Driver/Src\stm32l4xx_hal_pwr_ex.c ****       /* Wait until VOSF is cleared */      
 264:C:/Users/²Ü¼ÒºÀ/.iotlink/sdk/IoT_LINK/drivers/third_party/ST/STM32L4xx_HAL_Driver/Src\stm32l4xx_hal_pwr_ex.c ****       wait_loop_index = (PWR_FLAG_SETTING_DELAY_US * (SystemCoreClock / 1000000));
 265:C:/Users/²Ü¼ÒºÀ/.iotlink/sdk/IoT_LINK/drivers/third_party/ST/STM32L4xx_HAL_Driver/Src\stm32l4xx_hal_pwr_ex.c ****       while ((wait_loop_index != 0) && (HAL_IS_BIT_SET(PWR->SR2, PWR_SR2_VOSF)))
 266:C:/Users/²Ü¼ÒºÀ/.iotlink/sdk/IoT_LINK/drivers/third_party/ST/STM32L4xx_HAL_Driver/Src\stm32l4xx_hal_pwr_ex.c ****       {
 267:C:/Users/²Ü¼ÒºÀ/.iotlink/sdk/IoT_LINK/drivers/third_party/ST/STM32L4xx_HAL_Driver/Src\stm32l4xx_hal_pwr_ex.c ****         wait_loop_index--;
 268:C:/Users/²Ü¼ÒºÀ/.iotlink/sdk/IoT_LINK/drivers/third_party/ST/STM32L4xx_HAL_Driver/Src\stm32l4xx_hal_pwr_ex.c ****       }
 269:C:/Users/²Ü¼ÒºÀ/.iotlink/sdk/IoT_LINK/drivers/third_party/ST/STM32L4xx_HAL_Driver/Src\stm32l4xx_hal_pwr_ex.c ****       if (HAL_IS_BIT_SET(PWR->SR2, PWR_SR2_VOSF))
 270:C:/Users/²Ü¼ÒºÀ/.iotlink/sdk/IoT_LINK/drivers/third_party/ST/STM32L4xx_HAL_Driver/Src\stm32l4xx_hal_pwr_ex.c ****       {
 271:C:/Users/²Ü¼ÒºÀ/.iotlink/sdk/IoT_LINK/drivers/third_party/ST/STM32L4xx_HAL_Driver/Src\stm32l4xx_hal_pwr_ex.c ****         return HAL_TIMEOUT;
 272:C:/Users/²Ü¼ÒºÀ/.iotlink/sdk/IoT_LINK/drivers/third_party/ST/STM32L4xx_HAL_Driver/Src\stm32l4xx_hal_pwr_ex.c ****       }
 273:C:/Users/²Ü¼ÒºÀ/.iotlink/sdk/IoT_LINK/drivers/third_party/ST/STM32L4xx_HAL_Driver/Src\stm32l4xx_hal_pwr_ex.c ****     }
 274:C:/Users/²Ü¼ÒºÀ/.iotlink/sdk/IoT_LINK/drivers/third_party/ST/STM32L4xx_HAL_Driver/Src\stm32l4xx_hal_pwr_ex.c ****   }
 275:C:/Users/²Ü¼ÒºÀ/.iotlink/sdk/IoT_LINK/drivers/third_party/ST/STM32L4xx_HAL_Driver/Src\stm32l4xx_hal_pwr_ex.c ****   else
 276:C:/Users/²Ü¼ÒºÀ/.iotlink/sdk/IoT_LINK/drivers/third_party/ST/STM32L4xx_HAL_Driver/Src\stm32l4xx_hal_pwr_ex.c ****   {
 277:C:/Users/²Ü¼ÒºÀ/.iotlink/sdk/IoT_LINK/drivers/third_party/ST/STM32L4xx_HAL_Driver/Src\stm32l4xx_hal_pwr_ex.c ****     if (READ_BIT(PWR->CR1, PWR_CR1_VOS) != PWR_REGULATOR_VOLTAGE_SCALE2)
 278:C:/Users/²Ü¼ÒºÀ/.iotlink/sdk/IoT_LINK/drivers/third_party/ST/STM32L4xx_HAL_Driver/Src\stm32l4xx_hal_pwr_ex.c ****     {
 279:C:/Users/²Ü¼ÒºÀ/.iotlink/sdk/IoT_LINK/drivers/third_party/ST/STM32L4xx_HAL_Driver/Src\stm32l4xx_hal_pwr_ex.c ****       /* Set Range 2 */
 280:C:/Users/²Ü¼ÒºÀ/.iotlink/sdk/IoT_LINK/drivers/third_party/ST/STM32L4xx_HAL_Driver/Src\stm32l4xx_hal_pwr_ex.c ****       MODIFY_REG(PWR->CR1, PWR_CR1_VOS, PWR_REGULATOR_VOLTAGE_SCALE2);
 281:C:/Users/²Ü¼ÒºÀ/.iotlink/sdk/IoT_LINK/drivers/third_party/ST/STM32L4xx_HAL_Driver/Src\stm32l4xx_hal_pwr_ex.c ****       /* No need to wait for VOSF to be cleared for this transition */
 282:C:/Users/²Ü¼ÒºÀ/.iotlink/sdk/IoT_LINK/drivers/third_party/ST/STM32L4xx_HAL_Driver/Src\stm32l4xx_hal_pwr_ex.c ****     }
 283:C:/Users/²Ü¼ÒºÀ/.iotlink/sdk/IoT_LINK/drivers/third_party/ST/STM32L4xx_HAL_Driver/Src\stm32l4xx_hal_pwr_ex.c ****   }
 284:C:/Users/²Ü¼ÒºÀ/.iotlink/sdk/IoT_LINK/drivers/third_party/ST/STM32L4xx_HAL_Driver/Src\stm32l4xx_hal_pwr_ex.c **** #endif  
 285:C:/Users/²Ü¼ÒºÀ/.iotlink/sdk/IoT_LINK/drivers/third_party/ST/STM32L4xx_HAL_Driver/Src\stm32l4xx_hal_pwr_ex.c ****   
 286:C:/Users/²Ü¼ÒºÀ/.iotlink/sdk/IoT_LINK/drivers/third_party/ST/STM32L4xx_HAL_Driver/Src\stm32l4xx_hal_pwr_ex.c ****   return HAL_OK;
  82              		.loc 1 286 10 view .LVU14
  83 0014 0020     		movs	r0, #0
  84              	.LVL2:
  85              		.loc 1 286 10 view .LVU15
  86 0016 7047     		bx	lr
  87              	.LVL3:
  88              	.L6:
 261:C:/Users/²Ü¼ÒºÀ/.iotlink/sdk/IoT_LINK/drivers/third_party/ST/STM32L4xx_HAL_Driver/Src\stm32l4xx_hal_pwr_ex.c ****       
  89              		.loc 1 261 7 is_stmt 1 view .LVU16
  90 0018 1A68     		ldr	r2, [r3]
 264:C:/Users/²Ü¼ÒºÀ/.iotlink/sdk/IoT_LINK/drivers/third_party/ST/STM32L4xx_HAL_Driver/Src\stm32l4xx_hal_pwr_ex.c ****       while ((wait_loop_index != 0) && (HAL_IS_BIT_SET(PWR->SR2, PWR_SR2_VOSF)))
  91              		.loc 1 264 71 is_stmt 0 view .LVU17
  92 001a 1149     		ldr	r1, .L21+4
 261:C:/Users/²Ü¼ÒºÀ/.iotlink/sdk/IoT_LINK/drivers/third_party/ST/STM32L4xx_HAL_Driver/Src\stm32l4xx_hal_pwr_ex.c ****       
  93              		.loc 1 261 7 view .LVU18
  94 001c 22F4C062 		bic	r2, r2, #1536
  95 0020 42F40072 		orr	r2, r2, #512
  96 0024 1A60     		str	r2, [r3]
 264:C:/Users/²Ü¼ÒºÀ/.iotlink/sdk/IoT_LINK/drivers/third_party/ST/STM32L4xx_HAL_Driver/Src\stm32l4xx_hal_pwr_ex.c ****       while ((wait_loop_index != 0) && (HAL_IS_BIT_SET(PWR->SR2, PWR_SR2_VOSF)))
  97              		.loc 1 264 7 is_stmt 1 view .LVU19
 264:C:/Users/²Ü¼ÒºÀ/.iotlink/sdk/IoT_LINK/drivers/third_party/ST/STM32L4xx_HAL_Driver/Src\stm32l4xx_hal_pwr_ex.c ****       while ((wait_loop_index != 0) && (HAL_IS_BIT_SET(PWR->SR2, PWR_SR2_VOSF)))
  98              		.loc 1 264 71 is_stmt 0 view .LVU20
  99 0026 0F4A     		ldr	r2, .L21+8
 100 0028 1268     		ldr	r2, [r2]
 101 002a B2FBF1F1 		udiv	r1, r2, r1
 264:C:/Users/²Ü¼ÒºÀ/.iotlink/sdk/IoT_LINK/drivers/third_party/ST/STM32L4xx_HAL_Driver/Src\stm32l4xx_hal_pwr_ex.c ****       while ((wait_loop_index != 0) && (HAL_IS_BIT_SET(PWR->SR2, PWR_SR2_VOSF)))
 102              		.loc 1 264 23 view .LVU21
 103 002e 3222     		movs	r2, #50
 104 0030 4A43     		muls	r2, r1, r2
 105              	.LVL4:
 265:C:/Users/²Ü¼ÒºÀ/.iotlink/sdk/IoT_LINK/drivers/third_party/ST/STM32L4xx_HAL_Driver/Src\stm32l4xx_hal_pwr_ex.c ****       {
 106              		.loc 1 265 7 is_stmt 1 view .LVU22
 107              	.L8:
ARM GAS  C:\Users\²Ü¼ÒºÀ\AppData\Local\Temp\cczPott0.s 			page 8


 265:C:/Users/²Ü¼ÒºÀ/.iotlink/sdk/IoT_LINK/drivers/third_party/ST/STM32L4xx_HAL_Driver/Src\stm32l4xx_hal_pwr_ex.c ****       {
 108              		.loc 1 265 13 view .LVU23
 109 0032 12B1     		cbz	r2, .L9
 265:C:/Users/²Ü¼ÒºÀ/.iotlink/sdk/IoT_LINK/drivers/third_party/ST/STM32L4xx_HAL_Driver/Src\stm32l4xx_hal_pwr_ex.c ****       {
 110              		.loc 1 265 41 is_stmt 0 discriminator 1 view .LVU24
 111 0034 5969     		ldr	r1, [r3, #20]
 265:C:/Users/²Ü¼ÒºÀ/.iotlink/sdk/IoT_LINK/drivers/third_party/ST/STM32L4xx_HAL_Driver/Src\stm32l4xx_hal_pwr_ex.c ****       {
 112              		.loc 1 265 37 discriminator 1 view .LVU25
 113 0036 4905     		lsls	r1, r1, #21
 114 0038 04D4     		bmi	.L10
 115              	.L9:
 269:C:/Users/²Ü¼ÒºÀ/.iotlink/sdk/IoT_LINK/drivers/third_party/ST/STM32L4xx_HAL_Driver/Src\stm32l4xx_hal_pwr_ex.c ****       {
 116              		.loc 1 269 7 is_stmt 1 view .LVU26
 269:C:/Users/²Ü¼ÒºÀ/.iotlink/sdk/IoT_LINK/drivers/third_party/ST/STM32L4xx_HAL_Driver/Src\stm32l4xx_hal_pwr_ex.c ****       {
 117              		.loc 1 269 11 is_stmt 0 view .LVU27
 118 003a 5B69     		ldr	r3, [r3, #20]
 269:C:/Users/²Ü¼ÒºÀ/.iotlink/sdk/IoT_LINK/drivers/third_party/ST/STM32L4xx_HAL_Driver/Src\stm32l4xx_hal_pwr_ex.c ****       {
 119              		.loc 1 269 10 view .LVU28
 120 003c 5B05     		lsls	r3, r3, #21
 121 003e E9D5     		bpl	.L20
 271:C:/Users/²Ü¼ÒºÀ/.iotlink/sdk/IoT_LINK/drivers/third_party/ST/STM32L4xx_HAL_Driver/Src\stm32l4xx_hal_pwr_ex.c ****       }
 122              		.loc 1 271 16 view .LVU29
 123 0040 0320     		movs	r0, #3
 124              	.LVL5:
 287:C:/Users/²Ü¼ÒºÀ/.iotlink/sdk/IoT_LINK/drivers/third_party/ST/STM32L4xx_HAL_Driver/Src\stm32l4xx_hal_pwr_ex.c **** }  
 125              		.loc 1 287 1 view .LVU30
 126 0042 7047     		bx	lr
 127              	.LVL6:
 128              	.L10:
 267:C:/Users/²Ü¼ÒºÀ/.iotlink/sdk/IoT_LINK/drivers/third_party/ST/STM32L4xx_HAL_Driver/Src\stm32l4xx_hal_pwr_ex.c ****       }
 129              		.loc 1 267 9 is_stmt 1 view .LVU31
 267:C:/Users/²Ü¼ÒºÀ/.iotlink/sdk/IoT_LINK/drivers/third_party/ST/STM32L4xx_HAL_Driver/Src\stm32l4xx_hal_pwr_ex.c ****       }
 130              		.loc 1 267 24 is_stmt 0 view .LVU32
 131 0044 013A     		subs	r2, r2, #1
 132              	.LVL7:
 267:C:/Users/²Ü¼ÒºÀ/.iotlink/sdk/IoT_LINK/drivers/third_party/ST/STM32L4xx_HAL_Driver/Src\stm32l4xx_hal_pwr_ex.c ****       }
 133              		.loc 1 267 24 view .LVU33
 134 0046 F4E7     		b	.L8
 135              	.LVL8:
 136              	.L5:
 277:C:/Users/²Ü¼ÒºÀ/.iotlink/sdk/IoT_LINK/drivers/third_party/ST/STM32L4xx_HAL_Driver/Src\stm32l4xx_hal_pwr_ex.c ****     {
 137              		.loc 1 277 5 is_stmt 1 view .LVU34
 277:C:/Users/²Ü¼ÒºÀ/.iotlink/sdk/IoT_LINK/drivers/third_party/ST/STM32L4xx_HAL_Driver/Src\stm32l4xx_hal_pwr_ex.c ****     {
 138              		.loc 1 277 8 is_stmt 0 view .LVU35
 139 0048 B2F5806F 		cmp	r2, #1024
 280:C:/Users/²Ü¼ÒºÀ/.iotlink/sdk/IoT_LINK/drivers/third_party/ST/STM32L4xx_HAL_Driver/Src\stm32l4xx_hal_pwr_ex.c ****       /* No need to wait for VOSF to be cleared for this transition */
 140              		.loc 1 280 7 is_stmt 1 view .LVU36
 141 004c 1FBF     		itttt	ne
 142 004e 1A68     		ldrne	r2, [r3]
 143 0050 22F4C062 		bicne	r2, r2, #1536
 144 0054 42F48062 		orrne	r2, r2, #1024
 145 0058 1A60     		strne	r2, [r3]
 146 005a DBE7     		b	.L20
 147              	.L22:
 148              		.align	2
 149              	.L21:
 150 005c 00700040 		.word	1073770496
ARM GAS  C:\Users\²Ü¼ÒºÀ\AppData\Local\Temp\cczPott0.s 			page 9


 151 0060 40420F00 		.word	1000000
 152 0064 00000000 		.word	SystemCoreClock
 153              		.cfi_endproc
 154              	.LFE288:
 156              		.section	.text.HAL_PWREx_EnableBatteryCharging,"ax",%progbits
 157              		.align	1
 158              		.global	HAL_PWREx_EnableBatteryCharging
 159              		.syntax unified
 160              		.thumb
 161              		.thumb_func
 162              		.fpu fpv4-sp-d16
 164              	HAL_PWREx_EnableBatteryCharging:
 165              	.LVL9:
 166              	.LFB289:
 288:C:/Users/²Ü¼ÒºÀ/.iotlink/sdk/IoT_LINK/drivers/third_party/ST/STM32L4xx_HAL_Driver/Src\stm32l4xx_hal_pwr_ex.c **** 
 289:C:/Users/²Ü¼ÒºÀ/.iotlink/sdk/IoT_LINK/drivers/third_party/ST/STM32L4xx_HAL_Driver/Src\stm32l4xx_hal_pwr_ex.c **** 
 290:C:/Users/²Ü¼ÒºÀ/.iotlink/sdk/IoT_LINK/drivers/third_party/ST/STM32L4xx_HAL_Driver/Src\stm32l4xx_hal_pwr_ex.c **** /**
 291:C:/Users/²Ü¼ÒºÀ/.iotlink/sdk/IoT_LINK/drivers/third_party/ST/STM32L4xx_HAL_Driver/Src\stm32l4xx_hal_pwr_ex.c ****   * @brief Enable battery charging.
 292:C:/Users/²Ü¼ÒºÀ/.iotlink/sdk/IoT_LINK/drivers/third_party/ST/STM32L4xx_HAL_Driver/Src\stm32l4xx_hal_pwr_ex.c ****   *        When VDD is present, charge the external battery on VBAT thru an internal resistor.  
 293:C:/Users/²Ü¼ÒºÀ/.iotlink/sdk/IoT_LINK/drivers/third_party/ST/STM32L4xx_HAL_Driver/Src\stm32l4xx_hal_pwr_ex.c ****   * @param  ResistorSelection: specifies the resistor impedance.
 294:C:/Users/²Ü¼ÒºÀ/.iotlink/sdk/IoT_LINK/drivers/third_party/ST/STM32L4xx_HAL_Driver/Src\stm32l4xx_hal_pwr_ex.c ****   *          This parameter can be one of the following values:
 295:C:/Users/²Ü¼ÒºÀ/.iotlink/sdk/IoT_LINK/drivers/third_party/ST/STM32L4xx_HAL_Driver/Src\stm32l4xx_hal_pwr_ex.c ****   *            @arg @ref PWR_BATTERY_CHARGING_RESISTOR_5     5 kOhms resistor
 296:C:/Users/²Ü¼ÒºÀ/.iotlink/sdk/IoT_LINK/drivers/third_party/ST/STM32L4xx_HAL_Driver/Src\stm32l4xx_hal_pwr_ex.c ****   *            @arg @ref PWR_BATTERY_CHARGING_RESISTOR_1_5 1.5 kOhms resistor 
 297:C:/Users/²Ü¼ÒºÀ/.iotlink/sdk/IoT_LINK/drivers/third_party/ST/STM32L4xx_HAL_Driver/Src\stm32l4xx_hal_pwr_ex.c ****   * @retval None
 298:C:/Users/²Ü¼ÒºÀ/.iotlink/sdk/IoT_LINK/drivers/third_party/ST/STM32L4xx_HAL_Driver/Src\stm32l4xx_hal_pwr_ex.c ****   */
 299:C:/Users/²Ü¼ÒºÀ/.iotlink/sdk/IoT_LINK/drivers/third_party/ST/STM32L4xx_HAL_Driver/Src\stm32l4xx_hal_pwr_ex.c **** void HAL_PWREx_EnableBatteryCharging(uint32_t ResistorSelection)
 300:C:/Users/²Ü¼ÒºÀ/.iotlink/sdk/IoT_LINK/drivers/third_party/ST/STM32L4xx_HAL_Driver/Src\stm32l4xx_hal_pwr_ex.c **** {
 167              		.loc 1 300 1 view -0
 168              		.cfi_startproc
 169              		@ args = 0, pretend = 0, frame = 0
 170              		@ frame_needed = 0, uses_anonymous_args = 0
 171              		@ link register save eliminated.
 301:C:/Users/²Ü¼ÒºÀ/.iotlink/sdk/IoT_LINK/drivers/third_party/ST/STM32L4xx_HAL_Driver/Src\stm32l4xx_hal_pwr_ex.c ****   assert_param(IS_PWR_BATTERY_RESISTOR_SELECT(ResistorSelection));
 172              		.loc 1 301 3 view .LVU38
 302:C:/Users/²Ü¼ÒºÀ/.iotlink/sdk/IoT_LINK/drivers/third_party/ST/STM32L4xx_HAL_Driver/Src\stm32l4xx_hal_pwr_ex.c ****   
 303:C:/Users/²Ü¼ÒºÀ/.iotlink/sdk/IoT_LINK/drivers/third_party/ST/STM32L4xx_HAL_Driver/Src\stm32l4xx_hal_pwr_ex.c ****   /* Specify resistor selection */
 304:C:/Users/²Ü¼ÒºÀ/.iotlink/sdk/IoT_LINK/drivers/third_party/ST/STM32L4xx_HAL_Driver/Src\stm32l4xx_hal_pwr_ex.c ****   MODIFY_REG(PWR->CR4, PWR_CR4_VBRS, ResistorSelection);
 173              		.loc 1 304 3 view .LVU39
 174 0000 054A     		ldr	r2, .L24
 175 0002 D368     		ldr	r3, [r2, #12]
 176 0004 23F40073 		bic	r3, r3, #512
 177 0008 1843     		orrs	r0, r0, r3
 178              	.LVL10:
 179              		.loc 1 304 3 is_stmt 0 view .LVU40
 180 000a D060     		str	r0, [r2, #12]
 305:C:/Users/²Ü¼ÒºÀ/.iotlink/sdk/IoT_LINK/drivers/third_party/ST/STM32L4xx_HAL_Driver/Src\stm32l4xx_hal_pwr_ex.c ****   
 306:C:/Users/²Ü¼ÒºÀ/.iotlink/sdk/IoT_LINK/drivers/third_party/ST/STM32L4xx_HAL_Driver/Src\stm32l4xx_hal_pwr_ex.c ****   /* Enable battery charging */
 307:C:/Users/²Ü¼ÒºÀ/.iotlink/sdk/IoT_LINK/drivers/third_party/ST/STM32L4xx_HAL_Driver/Src\stm32l4xx_hal_pwr_ex.c ****   SET_BIT(PWR->CR4, PWR_CR4_VBE);
 181              		.loc 1 307 3 is_stmt 1 view .LVU41
 182 000c D368     		ldr	r3, [r2, #12]
 183 000e 43F48073 		orr	r3, r3, #256
 184 0012 D360     		str	r3, [r2, #12]
 308:C:/Users/²Ü¼ÒºÀ/.iotlink/sdk/IoT_LINK/drivers/third_party/ST/STM32L4xx_HAL_Driver/Src\stm32l4xx_hal_pwr_ex.c **** }
 185              		.loc 1 308 1 is_stmt 0 view .LVU42
 186 0014 7047     		bx	lr
 187              	.L25:
 188 0016 00BF     		.align	2
ARM GAS  C:\Users\²Ü¼ÒºÀ\AppData\Local\Temp\cczPott0.s 			page 10


 189              	.L24:
 190 0018 00700040 		.word	1073770496
 191              		.cfi_endproc
 192              	.LFE289:
 194              		.section	.text.HAL_PWREx_DisableBatteryCharging,"ax",%progbits
 195              		.align	1
 196              		.global	HAL_PWREx_DisableBatteryCharging
 197              		.syntax unified
 198              		.thumb
 199              		.thumb_func
 200              		.fpu fpv4-sp-d16
 202              	HAL_PWREx_DisableBatteryCharging:
 203              	.LFB290:
 309:C:/Users/²Ü¼ÒºÀ/.iotlink/sdk/IoT_LINK/drivers/third_party/ST/STM32L4xx_HAL_Driver/Src\stm32l4xx_hal_pwr_ex.c **** 
 310:C:/Users/²Ü¼ÒºÀ/.iotlink/sdk/IoT_LINK/drivers/third_party/ST/STM32L4xx_HAL_Driver/Src\stm32l4xx_hal_pwr_ex.c **** 
 311:C:/Users/²Ü¼ÒºÀ/.iotlink/sdk/IoT_LINK/drivers/third_party/ST/STM32L4xx_HAL_Driver/Src\stm32l4xx_hal_pwr_ex.c **** /**
 312:C:/Users/²Ü¼ÒºÀ/.iotlink/sdk/IoT_LINK/drivers/third_party/ST/STM32L4xx_HAL_Driver/Src\stm32l4xx_hal_pwr_ex.c ****   * @brief Disable battery charging.  
 313:C:/Users/²Ü¼ÒºÀ/.iotlink/sdk/IoT_LINK/drivers/third_party/ST/STM32L4xx_HAL_Driver/Src\stm32l4xx_hal_pwr_ex.c ****   * @retval None
 314:C:/Users/²Ü¼ÒºÀ/.iotlink/sdk/IoT_LINK/drivers/third_party/ST/STM32L4xx_HAL_Driver/Src\stm32l4xx_hal_pwr_ex.c ****   */
 315:C:/Users/²Ü¼ÒºÀ/.iotlink/sdk/IoT_LINK/drivers/third_party/ST/STM32L4xx_HAL_Driver/Src\stm32l4xx_hal_pwr_ex.c **** void HAL_PWREx_DisableBatteryCharging(void)
 316:C:/Users/²Ü¼ÒºÀ/.iotlink/sdk/IoT_LINK/drivers/third_party/ST/STM32L4xx_HAL_Driver/Src\stm32l4xx_hal_pwr_ex.c **** {
 204              		.loc 1 316 1 is_stmt 1 view -0
 205              		.cfi_startproc
 206              		@ args = 0, pretend = 0, frame = 0
 207              		@ frame_needed = 0, uses_anonymous_args = 0
 208              		@ link register save eliminated.
 317:C:/Users/²Ü¼ÒºÀ/.iotlink/sdk/IoT_LINK/drivers/third_party/ST/STM32L4xx_HAL_Driver/Src\stm32l4xx_hal_pwr_ex.c ****   CLEAR_BIT(PWR->CR4, PWR_CR4_VBE); 
 209              		.loc 1 317 3 view .LVU44
 210 0000 024A     		ldr	r2, .L27
 211 0002 D368     		ldr	r3, [r2, #12]
 212 0004 23F48073 		bic	r3, r3, #256
 213 0008 D360     		str	r3, [r2, #12]
 318:C:/Users/²Ü¼ÒºÀ/.iotlink/sdk/IoT_LINK/drivers/third_party/ST/STM32L4xx_HAL_Driver/Src\stm32l4xx_hal_pwr_ex.c **** }  
 214              		.loc 1 318 1 is_stmt 0 view .LVU45
 215 000a 7047     		bx	lr
 216              	.L28:
 217              		.align	2
 218              	.L27:
 219 000c 00700040 		.word	1073770496
 220              		.cfi_endproc
 221              	.LFE290:
 223              		.section	.text.HAL_PWREx_EnableInternalWakeUpLine,"ax",%progbits
 224              		.align	1
 225              		.global	HAL_PWREx_EnableInternalWakeUpLine
 226              		.syntax unified
 227              		.thumb
 228              		.thumb_func
 229              		.fpu fpv4-sp-d16
 231              	HAL_PWREx_EnableInternalWakeUpLine:
 232              	.LFB291:
 319:C:/Users/²Ü¼ÒºÀ/.iotlink/sdk/IoT_LINK/drivers/third_party/ST/STM32L4xx_HAL_Driver/Src\stm32l4xx_hal_pwr_ex.c **** 
 320:C:/Users/²Ü¼ÒºÀ/.iotlink/sdk/IoT_LINK/drivers/third_party/ST/STM32L4xx_HAL_Driver/Src\stm32l4xx_hal_pwr_ex.c **** 
 321:C:/Users/²Ü¼ÒºÀ/.iotlink/sdk/IoT_LINK/drivers/third_party/ST/STM32L4xx_HAL_Driver/Src\stm32l4xx_hal_pwr_ex.c **** #if defined(PWR_CR2_USV)
 322:C:/Users/²Ü¼ÒºÀ/.iotlink/sdk/IoT_LINK/drivers/third_party/ST/STM32L4xx_HAL_Driver/Src\stm32l4xx_hal_pwr_ex.c **** /**
 323:C:/Users/²Ü¼ÒºÀ/.iotlink/sdk/IoT_LINK/drivers/third_party/ST/STM32L4xx_HAL_Driver/Src\stm32l4xx_hal_pwr_ex.c ****   * @brief Enable VDDUSB supply. 
 324:C:/Users/²Ü¼ÒºÀ/.iotlink/sdk/IoT_LINK/drivers/third_party/ST/STM32L4xx_HAL_Driver/Src\stm32l4xx_hal_pwr_ex.c ****   * @note  Remove VDDUSB electrical and logical isolation, once VDDUSB supply is present.  
 325:C:/Users/²Ü¼ÒºÀ/.iotlink/sdk/IoT_LINK/drivers/third_party/ST/STM32L4xx_HAL_Driver/Src\stm32l4xx_hal_pwr_ex.c ****   * @retval None
ARM GAS  C:\Users\²Ü¼ÒºÀ\AppData\Local\Temp\cczPott0.s 			page 11


 326:C:/Users/²Ü¼ÒºÀ/.iotlink/sdk/IoT_LINK/drivers/third_party/ST/STM32L4xx_HAL_Driver/Src\stm32l4xx_hal_pwr_ex.c ****   */
 327:C:/Users/²Ü¼ÒºÀ/.iotlink/sdk/IoT_LINK/drivers/third_party/ST/STM32L4xx_HAL_Driver/Src\stm32l4xx_hal_pwr_ex.c **** void HAL_PWREx_EnableVddUSB(void)
 328:C:/Users/²Ü¼ÒºÀ/.iotlink/sdk/IoT_LINK/drivers/third_party/ST/STM32L4xx_HAL_Driver/Src\stm32l4xx_hal_pwr_ex.c **** {
 329:C:/Users/²Ü¼ÒºÀ/.iotlink/sdk/IoT_LINK/drivers/third_party/ST/STM32L4xx_HAL_Driver/Src\stm32l4xx_hal_pwr_ex.c ****   SET_BIT(PWR->CR2, PWR_CR2_USV);
 330:C:/Users/²Ü¼ÒºÀ/.iotlink/sdk/IoT_LINK/drivers/third_party/ST/STM32L4xx_HAL_Driver/Src\stm32l4xx_hal_pwr_ex.c **** }
 331:C:/Users/²Ü¼ÒºÀ/.iotlink/sdk/IoT_LINK/drivers/third_party/ST/STM32L4xx_HAL_Driver/Src\stm32l4xx_hal_pwr_ex.c **** 
 332:C:/Users/²Ü¼ÒºÀ/.iotlink/sdk/IoT_LINK/drivers/third_party/ST/STM32L4xx_HAL_Driver/Src\stm32l4xx_hal_pwr_ex.c **** 
 333:C:/Users/²Ü¼ÒºÀ/.iotlink/sdk/IoT_LINK/drivers/third_party/ST/STM32L4xx_HAL_Driver/Src\stm32l4xx_hal_pwr_ex.c **** /**
 334:C:/Users/²Ü¼ÒºÀ/.iotlink/sdk/IoT_LINK/drivers/third_party/ST/STM32L4xx_HAL_Driver/Src\stm32l4xx_hal_pwr_ex.c ****   * @brief Disable VDDUSB supply. 
 335:C:/Users/²Ü¼ÒºÀ/.iotlink/sdk/IoT_LINK/drivers/third_party/ST/STM32L4xx_HAL_Driver/Src\stm32l4xx_hal_pwr_ex.c ****   * @retval None
 336:C:/Users/²Ü¼ÒºÀ/.iotlink/sdk/IoT_LINK/drivers/third_party/ST/STM32L4xx_HAL_Driver/Src\stm32l4xx_hal_pwr_ex.c ****   */
 337:C:/Users/²Ü¼ÒºÀ/.iotlink/sdk/IoT_LINK/drivers/third_party/ST/STM32L4xx_HAL_Driver/Src\stm32l4xx_hal_pwr_ex.c **** void HAL_PWREx_DisableVddUSB(void)
 338:C:/Users/²Ü¼ÒºÀ/.iotlink/sdk/IoT_LINK/drivers/third_party/ST/STM32L4xx_HAL_Driver/Src\stm32l4xx_hal_pwr_ex.c **** {
 339:C:/Users/²Ü¼ÒºÀ/.iotlink/sdk/IoT_LINK/drivers/third_party/ST/STM32L4xx_HAL_Driver/Src\stm32l4xx_hal_pwr_ex.c ****   CLEAR_BIT(PWR->CR2, PWR_CR2_USV);
 340:C:/Users/²Ü¼ÒºÀ/.iotlink/sdk/IoT_LINK/drivers/third_party/ST/STM32L4xx_HAL_Driver/Src\stm32l4xx_hal_pwr_ex.c **** }
 341:C:/Users/²Ü¼ÒºÀ/.iotlink/sdk/IoT_LINK/drivers/third_party/ST/STM32L4xx_HAL_Driver/Src\stm32l4xx_hal_pwr_ex.c **** #endif /* PWR_CR2_USV */
 342:C:/Users/²Ü¼ÒºÀ/.iotlink/sdk/IoT_LINK/drivers/third_party/ST/STM32L4xx_HAL_Driver/Src\stm32l4xx_hal_pwr_ex.c **** 
 343:C:/Users/²Ü¼ÒºÀ/.iotlink/sdk/IoT_LINK/drivers/third_party/ST/STM32L4xx_HAL_Driver/Src\stm32l4xx_hal_pwr_ex.c **** #if defined(PWR_CR2_IOSV)
 344:C:/Users/²Ü¼ÒºÀ/.iotlink/sdk/IoT_LINK/drivers/third_party/ST/STM32L4xx_HAL_Driver/Src\stm32l4xx_hal_pwr_ex.c **** /**
 345:C:/Users/²Ü¼ÒºÀ/.iotlink/sdk/IoT_LINK/drivers/third_party/ST/STM32L4xx_HAL_Driver/Src\stm32l4xx_hal_pwr_ex.c ****   * @brief Enable VDDIO2 supply. 
 346:C:/Users/²Ü¼ÒºÀ/.iotlink/sdk/IoT_LINK/drivers/third_party/ST/STM32L4xx_HAL_Driver/Src\stm32l4xx_hal_pwr_ex.c ****   * @note  Remove VDDIO2 electrical and logical isolation, once VDDIO2 supply is present. 
 347:C:/Users/²Ü¼ÒºÀ/.iotlink/sdk/IoT_LINK/drivers/third_party/ST/STM32L4xx_HAL_Driver/Src\stm32l4xx_hal_pwr_ex.c ****   * @retval None
 348:C:/Users/²Ü¼ÒºÀ/.iotlink/sdk/IoT_LINK/drivers/third_party/ST/STM32L4xx_HAL_Driver/Src\stm32l4xx_hal_pwr_ex.c ****   */
 349:C:/Users/²Ü¼ÒºÀ/.iotlink/sdk/IoT_LINK/drivers/third_party/ST/STM32L4xx_HAL_Driver/Src\stm32l4xx_hal_pwr_ex.c **** void HAL_PWREx_EnableVddIO2(void)
 350:C:/Users/²Ü¼ÒºÀ/.iotlink/sdk/IoT_LINK/drivers/third_party/ST/STM32L4xx_HAL_Driver/Src\stm32l4xx_hal_pwr_ex.c **** {
 351:C:/Users/²Ü¼ÒºÀ/.iotlink/sdk/IoT_LINK/drivers/third_party/ST/STM32L4xx_HAL_Driver/Src\stm32l4xx_hal_pwr_ex.c ****   SET_BIT(PWR->CR2, PWR_CR2_IOSV);
 352:C:/Users/²Ü¼ÒºÀ/.iotlink/sdk/IoT_LINK/drivers/third_party/ST/STM32L4xx_HAL_Driver/Src\stm32l4xx_hal_pwr_ex.c **** }
 353:C:/Users/²Ü¼ÒºÀ/.iotlink/sdk/IoT_LINK/drivers/third_party/ST/STM32L4xx_HAL_Driver/Src\stm32l4xx_hal_pwr_ex.c **** 
 354:C:/Users/²Ü¼ÒºÀ/.iotlink/sdk/IoT_LINK/drivers/third_party/ST/STM32L4xx_HAL_Driver/Src\stm32l4xx_hal_pwr_ex.c **** 
 355:C:/Users/²Ü¼ÒºÀ/.iotlink/sdk/IoT_LINK/drivers/third_party/ST/STM32L4xx_HAL_Driver/Src\stm32l4xx_hal_pwr_ex.c **** /**
 356:C:/Users/²Ü¼ÒºÀ/.iotlink/sdk/IoT_LINK/drivers/third_party/ST/STM32L4xx_HAL_Driver/Src\stm32l4xx_hal_pwr_ex.c ****   * @brief Disable VDDIO2 supply. 
 357:C:/Users/²Ü¼ÒºÀ/.iotlink/sdk/IoT_LINK/drivers/third_party/ST/STM32L4xx_HAL_Driver/Src\stm32l4xx_hal_pwr_ex.c ****   * @retval None
 358:C:/Users/²Ü¼ÒºÀ/.iotlink/sdk/IoT_LINK/drivers/third_party/ST/STM32L4xx_HAL_Driver/Src\stm32l4xx_hal_pwr_ex.c ****   */
 359:C:/Users/²Ü¼ÒºÀ/.iotlink/sdk/IoT_LINK/drivers/third_party/ST/STM32L4xx_HAL_Driver/Src\stm32l4xx_hal_pwr_ex.c **** void HAL_PWREx_DisableVddIO2(void)
 360:C:/Users/²Ü¼ÒºÀ/.iotlink/sdk/IoT_LINK/drivers/third_party/ST/STM32L4xx_HAL_Driver/Src\stm32l4xx_hal_pwr_ex.c **** {
 361:C:/Users/²Ü¼ÒºÀ/.iotlink/sdk/IoT_LINK/drivers/third_party/ST/STM32L4xx_HAL_Driver/Src\stm32l4xx_hal_pwr_ex.c ****   CLEAR_BIT(PWR->CR2, PWR_CR2_IOSV);
 362:C:/Users/²Ü¼ÒºÀ/.iotlink/sdk/IoT_LINK/drivers/third_party/ST/STM32L4xx_HAL_Driver/Src\stm32l4xx_hal_pwr_ex.c **** }
 363:C:/Users/²Ü¼ÒºÀ/.iotlink/sdk/IoT_LINK/drivers/third_party/ST/STM32L4xx_HAL_Driver/Src\stm32l4xx_hal_pwr_ex.c **** #endif /* PWR_CR2_IOSV */
 364:C:/Users/²Ü¼ÒºÀ/.iotlink/sdk/IoT_LINK/drivers/third_party/ST/STM32L4xx_HAL_Driver/Src\stm32l4xx_hal_pwr_ex.c **** 
 365:C:/Users/²Ü¼ÒºÀ/.iotlink/sdk/IoT_LINK/drivers/third_party/ST/STM32L4xx_HAL_Driver/Src\stm32l4xx_hal_pwr_ex.c **** 
 366:C:/Users/²Ü¼ÒºÀ/.iotlink/sdk/IoT_LINK/drivers/third_party/ST/STM32L4xx_HAL_Driver/Src\stm32l4xx_hal_pwr_ex.c **** /**
 367:C:/Users/²Ü¼ÒºÀ/.iotlink/sdk/IoT_LINK/drivers/third_party/ST/STM32L4xx_HAL_Driver/Src\stm32l4xx_hal_pwr_ex.c ****   * @brief Enable Internal Wake-up Line. 
 368:C:/Users/²Ü¼ÒºÀ/.iotlink/sdk/IoT_LINK/drivers/third_party/ST/STM32L4xx_HAL_Driver/Src\stm32l4xx_hal_pwr_ex.c ****   * @retval None
 369:C:/Users/²Ü¼ÒºÀ/.iotlink/sdk/IoT_LINK/drivers/third_party/ST/STM32L4xx_HAL_Driver/Src\stm32l4xx_hal_pwr_ex.c ****   */
 370:C:/Users/²Ü¼ÒºÀ/.iotlink/sdk/IoT_LINK/drivers/third_party/ST/STM32L4xx_HAL_Driver/Src\stm32l4xx_hal_pwr_ex.c **** void HAL_PWREx_EnableInternalWakeUpLine(void)
 371:C:/Users/²Ü¼ÒºÀ/.iotlink/sdk/IoT_LINK/drivers/third_party/ST/STM32L4xx_HAL_Driver/Src\stm32l4xx_hal_pwr_ex.c **** {
 233              		.loc 1 371 1 is_stmt 1 view -0
 234              		.cfi_startproc
 235              		@ args = 0, pretend = 0, frame = 0
 236              		@ frame_needed = 0, uses_anonymous_args = 0
 237              		@ link register save eliminated.
 372:C:/Users/²Ü¼ÒºÀ/.iotlink/sdk/IoT_LINK/drivers/third_party/ST/STM32L4xx_HAL_Driver/Src\stm32l4xx_hal_pwr_ex.c ****   SET_BIT(PWR->CR3, PWR_CR3_EIWF);
 238              		.loc 1 372 3 view .LVU47
 239 0000 024A     		ldr	r2, .L30
 240 0002 9368     		ldr	r3, [r2, #8]
 241 0004 43F40043 		orr	r3, r3, #32768
 242 0008 9360     		str	r3, [r2, #8]
ARM GAS  C:\Users\²Ü¼ÒºÀ\AppData\Local\Temp\cczPott0.s 			page 12


 373:C:/Users/²Ü¼ÒºÀ/.iotlink/sdk/IoT_LINK/drivers/third_party/ST/STM32L4xx_HAL_Driver/Src\stm32l4xx_hal_pwr_ex.c **** }
 243              		.loc 1 373 1 is_stmt 0 view .LVU48
 244 000a 7047     		bx	lr
 245              	.L31:
 246              		.align	2
 247              	.L30:
 248 000c 00700040 		.word	1073770496
 249              		.cfi_endproc
 250              	.LFE291:
 252              		.section	.text.HAL_PWREx_DisableInternalWakeUpLine,"ax",%progbits
 253              		.align	1
 254              		.global	HAL_PWREx_DisableInternalWakeUpLine
 255              		.syntax unified
 256              		.thumb
 257              		.thumb_func
 258              		.fpu fpv4-sp-d16
 260              	HAL_PWREx_DisableInternalWakeUpLine:
 261              	.LFB292:
 374:C:/Users/²Ü¼ÒºÀ/.iotlink/sdk/IoT_LINK/drivers/third_party/ST/STM32L4xx_HAL_Driver/Src\stm32l4xx_hal_pwr_ex.c **** 
 375:C:/Users/²Ü¼ÒºÀ/.iotlink/sdk/IoT_LINK/drivers/third_party/ST/STM32L4xx_HAL_Driver/Src\stm32l4xx_hal_pwr_ex.c **** 
 376:C:/Users/²Ü¼ÒºÀ/.iotlink/sdk/IoT_LINK/drivers/third_party/ST/STM32L4xx_HAL_Driver/Src\stm32l4xx_hal_pwr_ex.c **** /**
 377:C:/Users/²Ü¼ÒºÀ/.iotlink/sdk/IoT_LINK/drivers/third_party/ST/STM32L4xx_HAL_Driver/Src\stm32l4xx_hal_pwr_ex.c ****   * @brief Disable Internal Wake-up Line. 
 378:C:/Users/²Ü¼ÒºÀ/.iotlink/sdk/IoT_LINK/drivers/third_party/ST/STM32L4xx_HAL_Driver/Src\stm32l4xx_hal_pwr_ex.c ****   * @retval None
 379:C:/Users/²Ü¼ÒºÀ/.iotlink/sdk/IoT_LINK/drivers/third_party/ST/STM32L4xx_HAL_Driver/Src\stm32l4xx_hal_pwr_ex.c ****   */
 380:C:/Users/²Ü¼ÒºÀ/.iotlink/sdk/IoT_LINK/drivers/third_party/ST/STM32L4xx_HAL_Driver/Src\stm32l4xx_hal_pwr_ex.c **** void HAL_PWREx_DisableInternalWakeUpLine(void)
 381:C:/Users/²Ü¼ÒºÀ/.iotlink/sdk/IoT_LINK/drivers/third_party/ST/STM32L4xx_HAL_Driver/Src\stm32l4xx_hal_pwr_ex.c **** {
 262              		.loc 1 381 1 is_stmt 1 view -0
 263              		.cfi_startproc
 264              		@ args = 0, pretend = 0, frame = 0
 265              		@ frame_needed = 0, uses_anonymous_args = 0
 266              		@ link register save eliminated.
 382:C:/Users/²Ü¼ÒºÀ/.iotlink/sdk/IoT_LINK/drivers/third_party/ST/STM32L4xx_HAL_Driver/Src\stm32l4xx_hal_pwr_ex.c ****   CLEAR_BIT(PWR->CR3, PWR_CR3_EIWF);
 267              		.loc 1 382 3 view .LVU50
 268 0000 024A     		ldr	r2, .L33
 269 0002 9368     		ldr	r3, [r2, #8]
 270 0004 23F40043 		bic	r3, r3, #32768
 271 0008 9360     		str	r3, [r2, #8]
 383:C:/Users/²Ü¼ÒºÀ/.iotlink/sdk/IoT_LINK/drivers/third_party/ST/STM32L4xx_HAL_Driver/Src\stm32l4xx_hal_pwr_ex.c **** }
 272              		.loc 1 383 1 is_stmt 0 view .LVU51
 273 000a 7047     		bx	lr
 274              	.L34:
 275              		.align	2
 276              	.L33:
 277 000c 00700040 		.word	1073770496
 278              		.cfi_endproc
 279              	.LFE292:
 281              		.section	.text.HAL_PWREx_EnableGPIOPullUp,"ax",%progbits
 282              		.align	1
 283              		.global	HAL_PWREx_EnableGPIOPullUp
 284              		.syntax unified
 285              		.thumb
 286              		.thumb_func
 287              		.fpu fpv4-sp-d16
 289              	HAL_PWREx_EnableGPIOPullUp:
 290              	.LVL11:
 291              	.LFB293:
 384:C:/Users/²Ü¼ÒºÀ/.iotlink/sdk/IoT_LINK/drivers/third_party/ST/STM32L4xx_HAL_Driver/Src\stm32l4xx_hal_pwr_ex.c **** 
ARM GAS  C:\Users\²Ü¼ÒºÀ\AppData\Local\Temp\cczPott0.s 			page 13


 385:C:/Users/²Ü¼ÒºÀ/.iotlink/sdk/IoT_LINK/drivers/third_party/ST/STM32L4xx_HAL_Driver/Src\stm32l4xx_hal_pwr_ex.c **** 
 386:C:/Users/²Ü¼ÒºÀ/.iotlink/sdk/IoT_LINK/drivers/third_party/ST/STM32L4xx_HAL_Driver/Src\stm32l4xx_hal_pwr_ex.c **** 
 387:C:/Users/²Ü¼ÒºÀ/.iotlink/sdk/IoT_LINK/drivers/third_party/ST/STM32L4xx_HAL_Driver/Src\stm32l4xx_hal_pwr_ex.c **** /**
 388:C:/Users/²Ü¼ÒºÀ/.iotlink/sdk/IoT_LINK/drivers/third_party/ST/STM32L4xx_HAL_Driver/Src\stm32l4xx_hal_pwr_ex.c ****   * @brief Enable GPIO pull-up state in Standby and Shutdown modes.
 389:C:/Users/²Ü¼ÒºÀ/.iotlink/sdk/IoT_LINK/drivers/third_party/ST/STM32L4xx_HAL_Driver/Src\stm32l4xx_hal_pwr_ex.c ****   * @note  Set the relevant PUy bits of PWR_PUCRx register to configure the I/O in 
 390:C:/Users/²Ü¼ÒºÀ/.iotlink/sdk/IoT_LINK/drivers/third_party/ST/STM32L4xx_HAL_Driver/Src\stm32l4xx_hal_pwr_ex.c ****   *        pull-up state in Standby and Shutdown modes. 
 391:C:/Users/²Ü¼ÒºÀ/.iotlink/sdk/IoT_LINK/drivers/third_party/ST/STM32L4xx_HAL_Driver/Src\stm32l4xx_hal_pwr_ex.c ****   * @note  This state is effective in Standby and Shutdown modes only if APC bit 
 392:C:/Users/²Ü¼ÒºÀ/.iotlink/sdk/IoT_LINK/drivers/third_party/ST/STM32L4xx_HAL_Driver/Src\stm32l4xx_hal_pwr_ex.c ****   *        is set through HAL_PWREx_EnablePullUpPullDownConfig() API.
 393:C:/Users/²Ü¼ÒºÀ/.iotlink/sdk/IoT_LINK/drivers/third_party/ST/STM32L4xx_HAL_Driver/Src\stm32l4xx_hal_pwr_ex.c ****   * @note  The configuration is lost when exiting the Shutdown mode due to the 
 394:C:/Users/²Ü¼ÒºÀ/.iotlink/sdk/IoT_LINK/drivers/third_party/ST/STM32L4xx_HAL_Driver/Src\stm32l4xx_hal_pwr_ex.c ****   *        power-on reset, maintained when exiting the Standby mode. 
 395:C:/Users/²Ü¼ÒºÀ/.iotlink/sdk/IoT_LINK/drivers/third_party/ST/STM32L4xx_HAL_Driver/Src\stm32l4xx_hal_pwr_ex.c ****   * @note  To avoid any conflict at Standby and Shutdown modes exits, the corresponding
 396:C:/Users/²Ü¼ÒºÀ/.iotlink/sdk/IoT_LINK/drivers/third_party/ST/STM32L4xx_HAL_Driver/Src\stm32l4xx_hal_pwr_ex.c ****   *        PDy bit of PWR_PDCRx register is cleared unless it is reserved. 
 397:C:/Users/²Ü¼ÒºÀ/.iotlink/sdk/IoT_LINK/drivers/third_party/ST/STM32L4xx_HAL_Driver/Src\stm32l4xx_hal_pwr_ex.c ****   * @note  Even if a PUy bit to set is reserved, the other PUy bits entered as input 
 398:C:/Users/²Ü¼ÒºÀ/.iotlink/sdk/IoT_LINK/drivers/third_party/ST/STM32L4xx_HAL_Driver/Src\stm32l4xx_hal_pwr_ex.c ****   *        parameter at the same time are set.     
 399:C:/Users/²Ü¼ÒºÀ/.iotlink/sdk/IoT_LINK/drivers/third_party/ST/STM32L4xx_HAL_Driver/Src\stm32l4xx_hal_pwr_ex.c ****   * @param  GPIO: Specify the IO port. This parameter can be PWR_GPIO_A, ..., PWR_GPIO_H 
 400:C:/Users/²Ü¼ÒºÀ/.iotlink/sdk/IoT_LINK/drivers/third_party/ST/STM32L4xx_HAL_Driver/Src\stm32l4xx_hal_pwr_ex.c ****   *         (or PWR_GPIO_I depending on the devices) to select the GPIO peripheral.
 401:C:/Users/²Ü¼ÒºÀ/.iotlink/sdk/IoT_LINK/drivers/third_party/ST/STM32L4xx_HAL_Driver/Src\stm32l4xx_hal_pwr_ex.c ****   * @param  GPIONumber: Specify the I/O pins numbers.
 402:C:/Users/²Ü¼ÒºÀ/.iotlink/sdk/IoT_LINK/drivers/third_party/ST/STM32L4xx_HAL_Driver/Src\stm32l4xx_hal_pwr_ex.c ****   *         This parameter can be one of the following values:
 403:C:/Users/²Ü¼ÒºÀ/.iotlink/sdk/IoT_LINK/drivers/third_party/ST/STM32L4xx_HAL_Driver/Src\stm32l4xx_hal_pwr_ex.c ****   *         PWR_GPIO_BIT_0, ..., PWR_GPIO_BIT_15 (except for the port where less  
 404:C:/Users/²Ü¼ÒºÀ/.iotlink/sdk/IoT_LINK/drivers/third_party/ST/STM32L4xx_HAL_Driver/Src\stm32l4xx_hal_pwr_ex.c ****   *         I/O pins are available) or the logical OR of several of them to set 
 405:C:/Users/²Ü¼ÒºÀ/.iotlink/sdk/IoT_LINK/drivers/third_party/ST/STM32L4xx_HAL_Driver/Src\stm32l4xx_hal_pwr_ex.c ****   *         several bits for a given port in a single API call.    
 406:C:/Users/²Ü¼ÒºÀ/.iotlink/sdk/IoT_LINK/drivers/third_party/ST/STM32L4xx_HAL_Driver/Src\stm32l4xx_hal_pwr_ex.c ****   * @retval HAL Status
 407:C:/Users/²Ü¼ÒºÀ/.iotlink/sdk/IoT_LINK/drivers/third_party/ST/STM32L4xx_HAL_Driver/Src\stm32l4xx_hal_pwr_ex.c ****   */   
 408:C:/Users/²Ü¼ÒºÀ/.iotlink/sdk/IoT_LINK/drivers/third_party/ST/STM32L4xx_HAL_Driver/Src\stm32l4xx_hal_pwr_ex.c **** HAL_StatusTypeDef HAL_PWREx_EnableGPIOPullUp(uint32_t GPIO, uint32_t GPIONumber)
 409:C:/Users/²Ü¼ÒºÀ/.iotlink/sdk/IoT_LINK/drivers/third_party/ST/STM32L4xx_HAL_Driver/Src\stm32l4xx_hal_pwr_ex.c **** {  
 292              		.loc 1 409 1 is_stmt 1 view -0
 293              		.cfi_startproc
 294              		@ args = 0, pretend = 0, frame = 0
 295              		@ frame_needed = 0, uses_anonymous_args = 0
 296              		@ link register save eliminated.
 410:C:/Users/²Ü¼ÒºÀ/.iotlink/sdk/IoT_LINK/drivers/third_party/ST/STM32L4xx_HAL_Driver/Src\stm32l4xx_hal_pwr_ex.c ****   assert_param(IS_PWR_GPIO(GPIO));
 297              		.loc 1 410 3 view .LVU53
 411:C:/Users/²Ü¼ÒºÀ/.iotlink/sdk/IoT_LINK/drivers/third_party/ST/STM32L4xx_HAL_Driver/Src\stm32l4xx_hal_pwr_ex.c ****   assert_param(IS_PWR_GPIO_BIT_NUMBER(GPIONumber));
 298              		.loc 1 411 3 view .LVU54
 412:C:/Users/²Ü¼ÒºÀ/.iotlink/sdk/IoT_LINK/drivers/third_party/ST/STM32L4xx_HAL_Driver/Src\stm32l4xx_hal_pwr_ex.c **** 
 413:C:/Users/²Ü¼ÒºÀ/.iotlink/sdk/IoT_LINK/drivers/third_party/ST/STM32L4xx_HAL_Driver/Src\stm32l4xx_hal_pwr_ex.c ****   switch (GPIO)
 299              		.loc 1 413 3 view .LVU55
 300 0000 0728     		cmp	r0, #7
 301 0002 44D8     		bhi	.L44
 302 0004 DFE800F0 		tbb	[pc, r0]
 303              	.L38:
 304 0008 04       		.byte	(.L43-.L38)/2
 305 0009 12       		.byte	(.L42-.L38)/2
 306 000a 1D       		.byte	(.L41-.L38)/2
 307 000b 26       		.byte	(.L40-.L38)/2
 308 000c 2F       		.byte	(.L39-.L38)/2
 309 000d 43       		.byte	(.L44-.L38)/2
 310 000e 43       		.byte	(.L44-.L38)/2
 311 000f 38       		.byte	(.L37-.L38)/2
 312              		.p2align 1
 313              	.L43:
 414:C:/Users/²Ü¼ÒºÀ/.iotlink/sdk/IoT_LINK/drivers/third_party/ST/STM32L4xx_HAL_Driver/Src\stm32l4xx_hal_pwr_ex.c ****   {
 415:C:/Users/²Ü¼ÒºÀ/.iotlink/sdk/IoT_LINK/drivers/third_party/ST/STM32L4xx_HAL_Driver/Src\stm32l4xx_hal_pwr_ex.c ****     case PWR_GPIO_A:
 416:C:/Users/²Ü¼ÒºÀ/.iotlink/sdk/IoT_LINK/drivers/third_party/ST/STM32L4xx_HAL_Driver/Src\stm32l4xx_hal_pwr_ex.c ****        SET_BIT(PWR->PUCRA, (GPIONumber & (~(PWR_GPIO_BIT_14))));
 314              		.loc 1 416 8 view .LVU56
 315 0010 204B     		ldr	r3, .L46
 316 0012 186A     		ldr	r0, [r3, #32]
ARM GAS  C:\Users\²Ü¼ÒºÀ\AppData\Local\Temp\cczPott0.s 			page 14


 317              	.LVL12:
 318              		.loc 1 416 8 is_stmt 0 view .LVU57
 319 0014 21F48042 		bic	r2, r1, #16384
 320 0018 0243     		orrs	r2, r2, r0
 321 001a 1A62     		str	r2, [r3, #32]
 417:C:/Users/²Ü¼ÒºÀ/.iotlink/sdk/IoT_LINK/drivers/third_party/ST/STM32L4xx_HAL_Driver/Src\stm32l4xx_hal_pwr_ex.c ****        CLEAR_BIT(PWR->PDCRA, (GPIONumber & (~(PWR_GPIO_BIT_13|PWR_GPIO_BIT_15))));
 322              		.loc 1 417 8 is_stmt 1 view .LVU58
 323 001c 5A6A     		ldr	r2, [r3, #36]
 324 001e 21F42041 		bic	r1, r1, #40960
 325              	.LVL13:
 326              		.loc 1 417 8 is_stmt 0 view .LVU59
 327 0022 22EA0101 		bic	r1, r2, r1
 328 0026 5962     		str	r1, [r3, #36]
 418:C:/Users/²Ü¼ÒºÀ/.iotlink/sdk/IoT_LINK/drivers/third_party/ST/STM32L4xx_HAL_Driver/Src\stm32l4xx_hal_pwr_ex.c ****        break;
 329              		.loc 1 418 8 is_stmt 1 view .LVU60
 330              	.L45:
 419:C:/Users/²Ü¼ÒºÀ/.iotlink/sdk/IoT_LINK/drivers/third_party/ST/STM32L4xx_HAL_Driver/Src\stm32l4xx_hal_pwr_ex.c ****     case PWR_GPIO_B:
 420:C:/Users/²Ü¼ÒºÀ/.iotlink/sdk/IoT_LINK/drivers/third_party/ST/STM32L4xx_HAL_Driver/Src\stm32l4xx_hal_pwr_ex.c ****        SET_BIT(PWR->PUCRB, GPIONumber);
 421:C:/Users/²Ü¼ÒºÀ/.iotlink/sdk/IoT_LINK/drivers/third_party/ST/STM32L4xx_HAL_Driver/Src\stm32l4xx_hal_pwr_ex.c ****        CLEAR_BIT(PWR->PDCRB, (GPIONumber & (~(PWR_GPIO_BIT_4))));
 422:C:/Users/²Ü¼ÒºÀ/.iotlink/sdk/IoT_LINK/drivers/third_party/ST/STM32L4xx_HAL_Driver/Src\stm32l4xx_hal_pwr_ex.c ****        break;
 331              		.loc 1 422 8 view .LVU61
 423:C:/Users/²Ü¼ÒºÀ/.iotlink/sdk/IoT_LINK/drivers/third_party/ST/STM32L4xx_HAL_Driver/Src\stm32l4xx_hal_pwr_ex.c ****     case PWR_GPIO_C:
 424:C:/Users/²Ü¼ÒºÀ/.iotlink/sdk/IoT_LINK/drivers/third_party/ST/STM32L4xx_HAL_Driver/Src\stm32l4xx_hal_pwr_ex.c ****        SET_BIT(PWR->PUCRC, GPIONumber);
 425:C:/Users/²Ü¼ÒºÀ/.iotlink/sdk/IoT_LINK/drivers/third_party/ST/STM32L4xx_HAL_Driver/Src\stm32l4xx_hal_pwr_ex.c ****        CLEAR_BIT(PWR->PDCRC, GPIONumber);
 426:C:/Users/²Ü¼ÒºÀ/.iotlink/sdk/IoT_LINK/drivers/third_party/ST/STM32L4xx_HAL_Driver/Src\stm32l4xx_hal_pwr_ex.c ****        break;
 427:C:/Users/²Ü¼ÒºÀ/.iotlink/sdk/IoT_LINK/drivers/third_party/ST/STM32L4xx_HAL_Driver/Src\stm32l4xx_hal_pwr_ex.c **** #if defined(GPIOD)
 428:C:/Users/²Ü¼ÒºÀ/.iotlink/sdk/IoT_LINK/drivers/third_party/ST/STM32L4xx_HAL_Driver/Src\stm32l4xx_hal_pwr_ex.c ****     case PWR_GPIO_D:
 429:C:/Users/²Ü¼ÒºÀ/.iotlink/sdk/IoT_LINK/drivers/third_party/ST/STM32L4xx_HAL_Driver/Src\stm32l4xx_hal_pwr_ex.c ****        SET_BIT(PWR->PUCRD, GPIONumber);
 430:C:/Users/²Ü¼ÒºÀ/.iotlink/sdk/IoT_LINK/drivers/third_party/ST/STM32L4xx_HAL_Driver/Src\stm32l4xx_hal_pwr_ex.c ****        CLEAR_BIT(PWR->PDCRD, GPIONumber);
 431:C:/Users/²Ü¼ÒºÀ/.iotlink/sdk/IoT_LINK/drivers/third_party/ST/STM32L4xx_HAL_Driver/Src\stm32l4xx_hal_pwr_ex.c ****        break;
 432:C:/Users/²Ü¼ÒºÀ/.iotlink/sdk/IoT_LINK/drivers/third_party/ST/STM32L4xx_HAL_Driver/Src\stm32l4xx_hal_pwr_ex.c **** #endif
 433:C:/Users/²Ü¼ÒºÀ/.iotlink/sdk/IoT_LINK/drivers/third_party/ST/STM32L4xx_HAL_Driver/Src\stm32l4xx_hal_pwr_ex.c **** #if defined(GPIOE)
 434:C:/Users/²Ü¼ÒºÀ/.iotlink/sdk/IoT_LINK/drivers/third_party/ST/STM32L4xx_HAL_Driver/Src\stm32l4xx_hal_pwr_ex.c ****     case PWR_GPIO_E:
 435:C:/Users/²Ü¼ÒºÀ/.iotlink/sdk/IoT_LINK/drivers/third_party/ST/STM32L4xx_HAL_Driver/Src\stm32l4xx_hal_pwr_ex.c ****        SET_BIT(PWR->PUCRE, GPIONumber);
 436:C:/Users/²Ü¼ÒºÀ/.iotlink/sdk/IoT_LINK/drivers/third_party/ST/STM32L4xx_HAL_Driver/Src\stm32l4xx_hal_pwr_ex.c ****        CLEAR_BIT(PWR->PDCRE, GPIONumber);
 437:C:/Users/²Ü¼ÒºÀ/.iotlink/sdk/IoT_LINK/drivers/third_party/ST/STM32L4xx_HAL_Driver/Src\stm32l4xx_hal_pwr_ex.c ****        break;
 438:C:/Users/²Ü¼ÒºÀ/.iotlink/sdk/IoT_LINK/drivers/third_party/ST/STM32L4xx_HAL_Driver/Src\stm32l4xx_hal_pwr_ex.c **** #endif
 439:C:/Users/²Ü¼ÒºÀ/.iotlink/sdk/IoT_LINK/drivers/third_party/ST/STM32L4xx_HAL_Driver/Src\stm32l4xx_hal_pwr_ex.c **** #if defined(GPIOF)
 440:C:/Users/²Ü¼ÒºÀ/.iotlink/sdk/IoT_LINK/drivers/third_party/ST/STM32L4xx_HAL_Driver/Src\stm32l4xx_hal_pwr_ex.c ****     case PWR_GPIO_F:
 441:C:/Users/²Ü¼ÒºÀ/.iotlink/sdk/IoT_LINK/drivers/third_party/ST/STM32L4xx_HAL_Driver/Src\stm32l4xx_hal_pwr_ex.c ****        SET_BIT(PWR->PUCRF, GPIONumber);
 442:C:/Users/²Ü¼ÒºÀ/.iotlink/sdk/IoT_LINK/drivers/third_party/ST/STM32L4xx_HAL_Driver/Src\stm32l4xx_hal_pwr_ex.c ****        CLEAR_BIT(PWR->PDCRF, GPIONumber);
 443:C:/Users/²Ü¼ÒºÀ/.iotlink/sdk/IoT_LINK/drivers/third_party/ST/STM32L4xx_HAL_Driver/Src\stm32l4xx_hal_pwr_ex.c ****        break;
 444:C:/Users/²Ü¼ÒºÀ/.iotlink/sdk/IoT_LINK/drivers/third_party/ST/STM32L4xx_HAL_Driver/Src\stm32l4xx_hal_pwr_ex.c **** #endif
 445:C:/Users/²Ü¼ÒºÀ/.iotlink/sdk/IoT_LINK/drivers/third_party/ST/STM32L4xx_HAL_Driver/Src\stm32l4xx_hal_pwr_ex.c **** #if defined(GPIOG)
 446:C:/Users/²Ü¼ÒºÀ/.iotlink/sdk/IoT_LINK/drivers/third_party/ST/STM32L4xx_HAL_Driver/Src\stm32l4xx_hal_pwr_ex.c ****     case PWR_GPIO_G:
 447:C:/Users/²Ü¼ÒºÀ/.iotlink/sdk/IoT_LINK/drivers/third_party/ST/STM32L4xx_HAL_Driver/Src\stm32l4xx_hal_pwr_ex.c ****        SET_BIT(PWR->PUCRG, GPIONumber);
 448:C:/Users/²Ü¼ÒºÀ/.iotlink/sdk/IoT_LINK/drivers/third_party/ST/STM32L4xx_HAL_Driver/Src\stm32l4xx_hal_pwr_ex.c ****        CLEAR_BIT(PWR->PDCRG, GPIONumber);
 449:C:/Users/²Ü¼ÒºÀ/.iotlink/sdk/IoT_LINK/drivers/third_party/ST/STM32L4xx_HAL_Driver/Src\stm32l4xx_hal_pwr_ex.c ****        break;
 450:C:/Users/²Ü¼ÒºÀ/.iotlink/sdk/IoT_LINK/drivers/third_party/ST/STM32L4xx_HAL_Driver/Src\stm32l4xx_hal_pwr_ex.c **** #endif
 451:C:/Users/²Ü¼ÒºÀ/.iotlink/sdk/IoT_LINK/drivers/third_party/ST/STM32L4xx_HAL_Driver/Src\stm32l4xx_hal_pwr_ex.c ****     case PWR_GPIO_H:
 452:C:/Users/²Ü¼ÒºÀ/.iotlink/sdk/IoT_LINK/drivers/third_party/ST/STM32L4xx_HAL_Driver/Src\stm32l4xx_hal_pwr_ex.c ****        SET_BIT(PWR->PUCRH, (GPIONumber & PWR_PORTH_AVAILABLE_PINS));
 453:C:/Users/²Ü¼ÒºÀ/.iotlink/sdk/IoT_LINK/drivers/third_party/ST/STM32L4xx_HAL_Driver/Src\stm32l4xx_hal_pwr_ex.c **** #if defined (STM32L496xx) || defined (STM32L4A6xx)
 454:C:/Users/²Ü¼ÒºÀ/.iotlink/sdk/IoT_LINK/drivers/third_party/ST/STM32L4xx_HAL_Driver/Src\stm32l4xx_hal_pwr_ex.c ****        CLEAR_BIT(PWR->PDCRH, ((GPIONumber & PWR_PORTH_AVAILABLE_PINS) & (~(PWR_GPIO_BIT_3))));
 455:C:/Users/²Ü¼ÒºÀ/.iotlink/sdk/IoT_LINK/drivers/third_party/ST/STM32L4xx_HAL_Driver/Src\stm32l4xx_hal_pwr_ex.c **** #else       
 456:C:/Users/²Ü¼ÒºÀ/.iotlink/sdk/IoT_LINK/drivers/third_party/ST/STM32L4xx_HAL_Driver/Src\stm32l4xx_hal_pwr_ex.c ****        CLEAR_BIT(PWR->PDCRH, (GPIONumber & PWR_PORTH_AVAILABLE_PINS));
 457:C:/Users/²Ü¼ÒºÀ/.iotlink/sdk/IoT_LINK/drivers/third_party/ST/STM32L4xx_HAL_Driver/Src\stm32l4xx_hal_pwr_ex.c **** #endif       
 458:C:/Users/²Ü¼ÒºÀ/.iotlink/sdk/IoT_LINK/drivers/third_party/ST/STM32L4xx_HAL_Driver/Src\stm32l4xx_hal_pwr_ex.c ****        break;
ARM GAS  C:\Users\²Ü¼ÒºÀ\AppData\Local\Temp\cczPott0.s 			page 15


 459:C:/Users/²Ü¼ÒºÀ/.iotlink/sdk/IoT_LINK/drivers/third_party/ST/STM32L4xx_HAL_Driver/Src\stm32l4xx_hal_pwr_ex.c **** #if defined(GPIOI)
 460:C:/Users/²Ü¼ÒºÀ/.iotlink/sdk/IoT_LINK/drivers/third_party/ST/STM32L4xx_HAL_Driver/Src\stm32l4xx_hal_pwr_ex.c ****     case PWR_GPIO_I:
 461:C:/Users/²Ü¼ÒºÀ/.iotlink/sdk/IoT_LINK/drivers/third_party/ST/STM32L4xx_HAL_Driver/Src\stm32l4xx_hal_pwr_ex.c ****        SET_BIT(PWR->PUCRI, (GPIONumber & PWR_PORTI_AVAILABLE_PINS));
 462:C:/Users/²Ü¼ÒºÀ/.iotlink/sdk/IoT_LINK/drivers/third_party/ST/STM32L4xx_HAL_Driver/Src\stm32l4xx_hal_pwr_ex.c ****        CLEAR_BIT(PWR->PDCRI, (GPIONumber & PWR_PORTI_AVAILABLE_PINS));
 463:C:/Users/²Ü¼ÒºÀ/.iotlink/sdk/IoT_LINK/drivers/third_party/ST/STM32L4xx_HAL_Driver/Src\stm32l4xx_hal_pwr_ex.c ****        break;
 464:C:/Users/²Ü¼ÒºÀ/.iotlink/sdk/IoT_LINK/drivers/third_party/ST/STM32L4xx_HAL_Driver/Src\stm32l4xx_hal_pwr_ex.c **** #endif
 465:C:/Users/²Ü¼ÒºÀ/.iotlink/sdk/IoT_LINK/drivers/third_party/ST/STM32L4xx_HAL_Driver/Src\stm32l4xx_hal_pwr_ex.c ****     default:
 466:C:/Users/²Ü¼ÒºÀ/.iotlink/sdk/IoT_LINK/drivers/third_party/ST/STM32L4xx_HAL_Driver/Src\stm32l4xx_hal_pwr_ex.c ****        return HAL_ERROR;
 467:C:/Users/²Ü¼ÒºÀ/.iotlink/sdk/IoT_LINK/drivers/third_party/ST/STM32L4xx_HAL_Driver/Src\stm32l4xx_hal_pwr_ex.c ****   }
 468:C:/Users/²Ü¼ÒºÀ/.iotlink/sdk/IoT_LINK/drivers/third_party/ST/STM32L4xx_HAL_Driver/Src\stm32l4xx_hal_pwr_ex.c ****   
 469:C:/Users/²Ü¼ÒºÀ/.iotlink/sdk/IoT_LINK/drivers/third_party/ST/STM32L4xx_HAL_Driver/Src\stm32l4xx_hal_pwr_ex.c ****   return HAL_OK;
 332              		.loc 1 469 10 is_stmt 0 view .LVU62
 333 0028 0020     		movs	r0, #0
 422:C:/Users/²Ü¼ÒºÀ/.iotlink/sdk/IoT_LINK/drivers/third_party/ST/STM32L4xx_HAL_Driver/Src\stm32l4xx_hal_pwr_ex.c ****     case PWR_GPIO_C:
 334              		.loc 1 422 8 view .LVU63
 335 002a 7047     		bx	lr
 336              	.LVL14:
 337              	.L42:
 420:C:/Users/²Ü¼ÒºÀ/.iotlink/sdk/IoT_LINK/drivers/third_party/ST/STM32L4xx_HAL_Driver/Src\stm32l4xx_hal_pwr_ex.c ****        CLEAR_BIT(PWR->PDCRB, (GPIONumber & (~(PWR_GPIO_BIT_4))));
 338              		.loc 1 420 8 is_stmt 1 view .LVU64
 339 002c 194B     		ldr	r3, .L46
 340 002e 9A6A     		ldr	r2, [r3, #40]
 341 0030 0A43     		orrs	r2, r2, r1
 342 0032 9A62     		str	r2, [r3, #40]
 421:C:/Users/²Ü¼ÒºÀ/.iotlink/sdk/IoT_LINK/drivers/third_party/ST/STM32L4xx_HAL_Driver/Src\stm32l4xx_hal_pwr_ex.c ****        break;
 343              		.loc 1 421 8 view .LVU65
 344 0034 DA6A     		ldr	r2, [r3, #44]
 345 0036 21F01001 		bic	r1, r1, #16
 346              	.LVL15:
 421:C:/Users/²Ü¼ÒºÀ/.iotlink/sdk/IoT_LINK/drivers/third_party/ST/STM32L4xx_HAL_Driver/Src\stm32l4xx_hal_pwr_ex.c ****        break;
 347              		.loc 1 421 8 is_stmt 0 view .LVU66
 348 003a 22EA0101 		bic	r1, r2, r1
 349 003e D962     		str	r1, [r3, #44]
 350 0040 F2E7     		b	.L45
 351              	.LVL16:
 352              	.L41:
 424:C:/Users/²Ü¼ÒºÀ/.iotlink/sdk/IoT_LINK/drivers/third_party/ST/STM32L4xx_HAL_Driver/Src\stm32l4xx_hal_pwr_ex.c ****        CLEAR_BIT(PWR->PDCRC, GPIONumber);
 353              		.loc 1 424 8 is_stmt 1 view .LVU67
 354 0042 144B     		ldr	r3, .L46
 355 0044 1A6B     		ldr	r2, [r3, #48]
 356 0046 0A43     		orrs	r2, r2, r1
 357 0048 1A63     		str	r2, [r3, #48]
 425:C:/Users/²Ü¼ÒºÀ/.iotlink/sdk/IoT_LINK/drivers/third_party/ST/STM32L4xx_HAL_Driver/Src\stm32l4xx_hal_pwr_ex.c ****        break;
 358              		.loc 1 425 8 view .LVU68
 359 004a 5A6B     		ldr	r2, [r3, #52]
 360 004c 22EA0101 		bic	r1, r2, r1
 361              	.LVL17:
 425:C:/Users/²Ü¼ÒºÀ/.iotlink/sdk/IoT_LINK/drivers/third_party/ST/STM32L4xx_HAL_Driver/Src\stm32l4xx_hal_pwr_ex.c ****        break;
 362              		.loc 1 425 8 is_stmt 0 view .LVU69
 363 0050 5963     		str	r1, [r3, #52]
 426:C:/Users/²Ü¼ÒºÀ/.iotlink/sdk/IoT_LINK/drivers/third_party/ST/STM32L4xx_HAL_Driver/Src\stm32l4xx_hal_pwr_ex.c **** #if defined(GPIOD)
 364              		.loc 1 426 8 is_stmt 1 view .LVU70
 365 0052 E9E7     		b	.L45
 366              	.LVL18:
 367              	.L40:
 429:C:/Users/²Ü¼ÒºÀ/.iotlink/sdk/IoT_LINK/drivers/third_party/ST/STM32L4xx_HAL_Driver/Src\stm32l4xx_hal_pwr_ex.c ****        CLEAR_BIT(PWR->PDCRD, GPIONumber);
 368              		.loc 1 429 8 view .LVU71
ARM GAS  C:\Users\²Ü¼ÒºÀ\AppData\Local\Temp\cczPott0.s 			page 16


 369 0054 0F4B     		ldr	r3, .L46
 370 0056 9A6B     		ldr	r2, [r3, #56]
 371 0058 0A43     		orrs	r2, r2, r1
 372 005a 9A63     		str	r2, [r3, #56]
 430:C:/Users/²Ü¼ÒºÀ/.iotlink/sdk/IoT_LINK/drivers/third_party/ST/STM32L4xx_HAL_Driver/Src\stm32l4xx_hal_pwr_ex.c ****        break;
 373              		.loc 1 430 8 view .LVU72
 374 005c DA6B     		ldr	r2, [r3, #60]
 375 005e 22EA0101 		bic	r1, r2, r1
 376              	.LVL19:
 430:C:/Users/²Ü¼ÒºÀ/.iotlink/sdk/IoT_LINK/drivers/third_party/ST/STM32L4xx_HAL_Driver/Src\stm32l4xx_hal_pwr_ex.c ****        break;
 377              		.loc 1 430 8 is_stmt 0 view .LVU73
 378 0062 D963     		str	r1, [r3, #60]
 431:C:/Users/²Ü¼ÒºÀ/.iotlink/sdk/IoT_LINK/drivers/third_party/ST/STM32L4xx_HAL_Driver/Src\stm32l4xx_hal_pwr_ex.c **** #endif
 379              		.loc 1 431 8 is_stmt 1 view .LVU74
 380 0064 E0E7     		b	.L45
 381              	.LVL20:
 382              	.L39:
 435:C:/Users/²Ü¼ÒºÀ/.iotlink/sdk/IoT_LINK/drivers/third_party/ST/STM32L4xx_HAL_Driver/Src\stm32l4xx_hal_pwr_ex.c ****        CLEAR_BIT(PWR->PDCRE, GPIONumber);
 383              		.loc 1 435 8 view .LVU75
 384 0066 0B4B     		ldr	r3, .L46
 385 0068 1A6C     		ldr	r2, [r3, #64]
 386 006a 0A43     		orrs	r2, r2, r1
 387 006c 1A64     		str	r2, [r3, #64]
 436:C:/Users/²Ü¼ÒºÀ/.iotlink/sdk/IoT_LINK/drivers/third_party/ST/STM32L4xx_HAL_Driver/Src\stm32l4xx_hal_pwr_ex.c ****        break;
 388              		.loc 1 436 8 view .LVU76
 389 006e 5A6C     		ldr	r2, [r3, #68]
 390 0070 22EA0101 		bic	r1, r2, r1
 391              	.LVL21:
 436:C:/Users/²Ü¼ÒºÀ/.iotlink/sdk/IoT_LINK/drivers/third_party/ST/STM32L4xx_HAL_Driver/Src\stm32l4xx_hal_pwr_ex.c ****        break;
 392              		.loc 1 436 8 is_stmt 0 view .LVU77
 393 0074 5964     		str	r1, [r3, #68]
 437:C:/Users/²Ü¼ÒºÀ/.iotlink/sdk/IoT_LINK/drivers/third_party/ST/STM32L4xx_HAL_Driver/Src\stm32l4xx_hal_pwr_ex.c **** #endif
 394              		.loc 1 437 8 is_stmt 1 view .LVU78
 395 0076 D7E7     		b	.L45
 396              	.LVL22:
 397              	.L37:
 452:C:/Users/²Ü¼ÒºÀ/.iotlink/sdk/IoT_LINK/drivers/third_party/ST/STM32L4xx_HAL_Driver/Src\stm32l4xx_hal_pwr_ex.c **** #if defined (STM32L496xx) || defined (STM32L4A6xx)
 398              		.loc 1 452 8 view .LVU79
 399 0078 064B     		ldr	r3, .L46
 400 007a 9A6D     		ldr	r2, [r3, #88]
 401 007c 01F00B01 		and	r1, r1, #11
 402              	.LVL23:
 452:C:/Users/²Ü¼ÒºÀ/.iotlink/sdk/IoT_LINK/drivers/third_party/ST/STM32L4xx_HAL_Driver/Src\stm32l4xx_hal_pwr_ex.c **** #if defined (STM32L496xx) || defined (STM32L4A6xx)
 403              		.loc 1 452 8 is_stmt 0 view .LVU80
 404 0080 0A43     		orrs	r2, r2, r1
 405 0082 9A65     		str	r2, [r3, #88]
 456:C:/Users/²Ü¼ÒºÀ/.iotlink/sdk/IoT_LINK/drivers/third_party/ST/STM32L4xx_HAL_Driver/Src\stm32l4xx_hal_pwr_ex.c **** #endif       
 406              		.loc 1 456 8 is_stmt 1 view .LVU81
 407 0084 DA6D     		ldr	r2, [r3, #92]
 408 0086 22EA0101 		bic	r1, r2, r1
 409 008a D965     		str	r1, [r3, #92]
 458:C:/Users/²Ü¼ÒºÀ/.iotlink/sdk/IoT_LINK/drivers/third_party/ST/STM32L4xx_HAL_Driver/Src\stm32l4xx_hal_pwr_ex.c **** #if defined(GPIOI)
 410              		.loc 1 458 8 view .LVU82
 411 008c CCE7     		b	.L45
 412              	.LVL24:
 413              	.L44:
 414              		.loc 1 469 10 is_stmt 0 view .LVU83
ARM GAS  C:\Users\²Ü¼ÒºÀ\AppData\Local\Temp\cczPott0.s 			page 17


 415 008e 0120     		movs	r0, #1
 416              	.LVL25:
 470:C:/Users/²Ü¼ÒºÀ/.iotlink/sdk/IoT_LINK/drivers/third_party/ST/STM32L4xx_HAL_Driver/Src\stm32l4xx_hal_pwr_ex.c **** }
 417              		.loc 1 470 1 view .LVU84
 418 0090 7047     		bx	lr
 419              	.L47:
 420 0092 00BF     		.align	2
 421              	.L46:
 422 0094 00700040 		.word	1073770496
 423              		.cfi_endproc
 424              	.LFE293:
 426              		.section	.text.HAL_PWREx_DisableGPIOPullUp,"ax",%progbits
 427              		.align	1
 428              		.global	HAL_PWREx_DisableGPIOPullUp
 429              		.syntax unified
 430              		.thumb
 431              		.thumb_func
 432              		.fpu fpv4-sp-d16
 434              	HAL_PWREx_DisableGPIOPullUp:
 435              	.LVL26:
 436              	.LFB294:
 471:C:/Users/²Ü¼ÒºÀ/.iotlink/sdk/IoT_LINK/drivers/third_party/ST/STM32L4xx_HAL_Driver/Src\stm32l4xx_hal_pwr_ex.c **** 
 472:C:/Users/²Ü¼ÒºÀ/.iotlink/sdk/IoT_LINK/drivers/third_party/ST/STM32L4xx_HAL_Driver/Src\stm32l4xx_hal_pwr_ex.c **** 
 473:C:/Users/²Ü¼ÒºÀ/.iotlink/sdk/IoT_LINK/drivers/third_party/ST/STM32L4xx_HAL_Driver/Src\stm32l4xx_hal_pwr_ex.c **** /**
 474:C:/Users/²Ü¼ÒºÀ/.iotlink/sdk/IoT_LINK/drivers/third_party/ST/STM32L4xx_HAL_Driver/Src\stm32l4xx_hal_pwr_ex.c ****   * @brief Disable GPIO pull-up state in Standby mode and Shutdown modes.
 475:C:/Users/²Ü¼ÒºÀ/.iotlink/sdk/IoT_LINK/drivers/third_party/ST/STM32L4xx_HAL_Driver/Src\stm32l4xx_hal_pwr_ex.c ****   * @note  Reset the relevant PUy bits of PWR_PUCRx register used to configure the I/O
 476:C:/Users/²Ü¼ÒºÀ/.iotlink/sdk/IoT_LINK/drivers/third_party/ST/STM32L4xx_HAL_Driver/Src\stm32l4xx_hal_pwr_ex.c ****   *        in pull-up state in Standby and Shutdown modes.
 477:C:/Users/²Ü¼ÒºÀ/.iotlink/sdk/IoT_LINK/drivers/third_party/ST/STM32L4xx_HAL_Driver/Src\stm32l4xx_hal_pwr_ex.c ****   * @note  Even if a PUy bit to reset is reserved, the other PUy bits entered as input 
 478:C:/Users/²Ü¼ÒºÀ/.iotlink/sdk/IoT_LINK/drivers/third_party/ST/STM32L4xx_HAL_Driver/Src\stm32l4xx_hal_pwr_ex.c ****   *        parameter at the same time are reset.      
 479:C:/Users/²Ü¼ÒºÀ/.iotlink/sdk/IoT_LINK/drivers/third_party/ST/STM32L4xx_HAL_Driver/Src\stm32l4xx_hal_pwr_ex.c ****   * @param  GPIO: Specifies the IO port. This parameter can be PWR_GPIO_A, ..., PWR_GPIO_H 
 480:C:/Users/²Ü¼ÒºÀ/.iotlink/sdk/IoT_LINK/drivers/third_party/ST/STM32L4xx_HAL_Driver/Src\stm32l4xx_hal_pwr_ex.c ****   *          (or PWR_GPIO_I depending on the devices) to select the GPIO peripheral.
 481:C:/Users/²Ü¼ÒºÀ/.iotlink/sdk/IoT_LINK/drivers/third_party/ST/STM32L4xx_HAL_Driver/Src\stm32l4xx_hal_pwr_ex.c ****   * @param  GPIONumber: Specify the I/O pins numbers.
 482:C:/Users/²Ü¼ÒºÀ/.iotlink/sdk/IoT_LINK/drivers/third_party/ST/STM32L4xx_HAL_Driver/Src\stm32l4xx_hal_pwr_ex.c ****   *         This parameter can be one of the following values:
 483:C:/Users/²Ü¼ÒºÀ/.iotlink/sdk/IoT_LINK/drivers/third_party/ST/STM32L4xx_HAL_Driver/Src\stm32l4xx_hal_pwr_ex.c ****   *         PWR_GPIO_BIT_0, ..., PWR_GPIO_BIT_15 (except for the port where less  
 484:C:/Users/²Ü¼ÒºÀ/.iotlink/sdk/IoT_LINK/drivers/third_party/ST/STM32L4xx_HAL_Driver/Src\stm32l4xx_hal_pwr_ex.c ****   *         I/O pins are available) or the logical OR of several of them to reset 
 485:C:/Users/²Ü¼ÒºÀ/.iotlink/sdk/IoT_LINK/drivers/third_party/ST/STM32L4xx_HAL_Driver/Src\stm32l4xx_hal_pwr_ex.c ****   *         several bits for a given port in a single API call. 
 486:C:/Users/²Ü¼ÒºÀ/.iotlink/sdk/IoT_LINK/drivers/third_party/ST/STM32L4xx_HAL_Driver/Src\stm32l4xx_hal_pwr_ex.c ****   * @retval HAL Status
 487:C:/Users/²Ü¼ÒºÀ/.iotlink/sdk/IoT_LINK/drivers/third_party/ST/STM32L4xx_HAL_Driver/Src\stm32l4xx_hal_pwr_ex.c ****   */   
 488:C:/Users/²Ü¼ÒºÀ/.iotlink/sdk/IoT_LINK/drivers/third_party/ST/STM32L4xx_HAL_Driver/Src\stm32l4xx_hal_pwr_ex.c **** HAL_StatusTypeDef HAL_PWREx_DisableGPIOPullUp(uint32_t GPIO, uint32_t GPIONumber)
 489:C:/Users/²Ü¼ÒºÀ/.iotlink/sdk/IoT_LINK/drivers/third_party/ST/STM32L4xx_HAL_Driver/Src\stm32l4xx_hal_pwr_ex.c **** {  
 437              		.loc 1 489 1 is_stmt 1 view -0
 438              		.cfi_startproc
 439              		@ args = 0, pretend = 0, frame = 0
 440              		@ frame_needed = 0, uses_anonymous_args = 0
 441              		@ link register save eliminated.
 490:C:/Users/²Ü¼ÒºÀ/.iotlink/sdk/IoT_LINK/drivers/third_party/ST/STM32L4xx_HAL_Driver/Src\stm32l4xx_hal_pwr_ex.c ****   assert_param(IS_PWR_GPIO(GPIO));
 442              		.loc 1 490 3 view .LVU86
 491:C:/Users/²Ü¼ÒºÀ/.iotlink/sdk/IoT_LINK/drivers/third_party/ST/STM32L4xx_HAL_Driver/Src\stm32l4xx_hal_pwr_ex.c ****   assert_param(IS_PWR_GPIO_BIT_NUMBER(GPIONumber));
 443              		.loc 1 491 3 view .LVU87
 492:C:/Users/²Ü¼ÒºÀ/.iotlink/sdk/IoT_LINK/drivers/third_party/ST/STM32L4xx_HAL_Driver/Src\stm32l4xx_hal_pwr_ex.c ****   
 493:C:/Users/²Ü¼ÒºÀ/.iotlink/sdk/IoT_LINK/drivers/third_party/ST/STM32L4xx_HAL_Driver/Src\stm32l4xx_hal_pwr_ex.c ****   switch (GPIO)
 444              		.loc 1 493 3 view .LVU88
 445 0000 0728     		cmp	r0, #7
 446 0002 2ED8     		bhi	.L57
 447 0004 DFE800F0 		tbb	[pc, r0]
 448              	.L51:
 449 0008 04       		.byte	(.L56-.L51)/2
ARM GAS  C:\Users\²Ü¼ÒºÀ\AppData\Local\Temp\cczPott0.s 			page 18


 450 0009 0D       		.byte	(.L55-.L51)/2
 451 000a 13       		.byte	(.L54-.L51)/2
 452 000b 19       		.byte	(.L53-.L51)/2
 453 000c 1F       		.byte	(.L52-.L51)/2
 454 000d 2D       		.byte	(.L57-.L51)/2
 455 000e 2D       		.byte	(.L57-.L51)/2
 456 000f 25       		.byte	(.L50-.L51)/2
 457              		.p2align 1
 458              	.L56:
 494:C:/Users/²Ü¼ÒºÀ/.iotlink/sdk/IoT_LINK/drivers/third_party/ST/STM32L4xx_HAL_Driver/Src\stm32l4xx_hal_pwr_ex.c ****   {
 495:C:/Users/²Ü¼ÒºÀ/.iotlink/sdk/IoT_LINK/drivers/third_party/ST/STM32L4xx_HAL_Driver/Src\stm32l4xx_hal_pwr_ex.c ****     case PWR_GPIO_A:
 496:C:/Users/²Ü¼ÒºÀ/.iotlink/sdk/IoT_LINK/drivers/third_party/ST/STM32L4xx_HAL_Driver/Src\stm32l4xx_hal_pwr_ex.c ****        CLEAR_BIT(PWR->PUCRA, (GPIONumber & (~(PWR_GPIO_BIT_14))));
 459              		.loc 1 496 8 view .LVU89
 460 0010 154A     		ldr	r2, .L59
 461 0012 136A     		ldr	r3, [r2, #32]
 462 0014 21F48041 		bic	r1, r1, #16384
 463              	.LVL27:
 464              		.loc 1 496 8 is_stmt 0 view .LVU90
 465 0018 23EA0101 		bic	r1, r3, r1
 466 001c 1162     		str	r1, [r2, #32]
 497:C:/Users/²Ü¼ÒºÀ/.iotlink/sdk/IoT_LINK/drivers/third_party/ST/STM32L4xx_HAL_Driver/Src\stm32l4xx_hal_pwr_ex.c ****        break;
 467              		.loc 1 497 8 is_stmt 1 view .LVU91
 468              	.L58:
 498:C:/Users/²Ü¼ÒºÀ/.iotlink/sdk/IoT_LINK/drivers/third_party/ST/STM32L4xx_HAL_Driver/Src\stm32l4xx_hal_pwr_ex.c ****     case PWR_GPIO_B:
 499:C:/Users/²Ü¼ÒºÀ/.iotlink/sdk/IoT_LINK/drivers/third_party/ST/STM32L4xx_HAL_Driver/Src\stm32l4xx_hal_pwr_ex.c ****        CLEAR_BIT(PWR->PUCRB, GPIONumber);
 500:C:/Users/²Ü¼ÒºÀ/.iotlink/sdk/IoT_LINK/drivers/third_party/ST/STM32L4xx_HAL_Driver/Src\stm32l4xx_hal_pwr_ex.c ****        break;
 469              		.loc 1 500 8 view .LVU92
 501:C:/Users/²Ü¼ÒºÀ/.iotlink/sdk/IoT_LINK/drivers/third_party/ST/STM32L4xx_HAL_Driver/Src\stm32l4xx_hal_pwr_ex.c ****     case PWR_GPIO_C:
 502:C:/Users/²Ü¼ÒºÀ/.iotlink/sdk/IoT_LINK/drivers/third_party/ST/STM32L4xx_HAL_Driver/Src\stm32l4xx_hal_pwr_ex.c ****        CLEAR_BIT(PWR->PUCRC, GPIONumber);
 503:C:/Users/²Ü¼ÒºÀ/.iotlink/sdk/IoT_LINK/drivers/third_party/ST/STM32L4xx_HAL_Driver/Src\stm32l4xx_hal_pwr_ex.c ****        break;
 504:C:/Users/²Ü¼ÒºÀ/.iotlink/sdk/IoT_LINK/drivers/third_party/ST/STM32L4xx_HAL_Driver/Src\stm32l4xx_hal_pwr_ex.c **** #if defined(GPIOD)
 505:C:/Users/²Ü¼ÒºÀ/.iotlink/sdk/IoT_LINK/drivers/third_party/ST/STM32L4xx_HAL_Driver/Src\stm32l4xx_hal_pwr_ex.c ****     case PWR_GPIO_D:
 506:C:/Users/²Ü¼ÒºÀ/.iotlink/sdk/IoT_LINK/drivers/third_party/ST/STM32L4xx_HAL_Driver/Src\stm32l4xx_hal_pwr_ex.c ****        CLEAR_BIT(PWR->PUCRD, GPIONumber);
 507:C:/Users/²Ü¼ÒºÀ/.iotlink/sdk/IoT_LINK/drivers/third_party/ST/STM32L4xx_HAL_Driver/Src\stm32l4xx_hal_pwr_ex.c ****        break;
 508:C:/Users/²Ü¼ÒºÀ/.iotlink/sdk/IoT_LINK/drivers/third_party/ST/STM32L4xx_HAL_Driver/Src\stm32l4xx_hal_pwr_ex.c **** #endif
 509:C:/Users/²Ü¼ÒºÀ/.iotlink/sdk/IoT_LINK/drivers/third_party/ST/STM32L4xx_HAL_Driver/Src\stm32l4xx_hal_pwr_ex.c **** #if defined(GPIOE)
 510:C:/Users/²Ü¼ÒºÀ/.iotlink/sdk/IoT_LINK/drivers/third_party/ST/STM32L4xx_HAL_Driver/Src\stm32l4xx_hal_pwr_ex.c ****     case PWR_GPIO_E:
 511:C:/Users/²Ü¼ÒºÀ/.iotlink/sdk/IoT_LINK/drivers/third_party/ST/STM32L4xx_HAL_Driver/Src\stm32l4xx_hal_pwr_ex.c ****        CLEAR_BIT(PWR->PUCRE, GPIONumber);
 512:C:/Users/²Ü¼ÒºÀ/.iotlink/sdk/IoT_LINK/drivers/third_party/ST/STM32L4xx_HAL_Driver/Src\stm32l4xx_hal_pwr_ex.c ****        break;
 513:C:/Users/²Ü¼ÒºÀ/.iotlink/sdk/IoT_LINK/drivers/third_party/ST/STM32L4xx_HAL_Driver/Src\stm32l4xx_hal_pwr_ex.c **** #endif
 514:C:/Users/²Ü¼ÒºÀ/.iotlink/sdk/IoT_LINK/drivers/third_party/ST/STM32L4xx_HAL_Driver/Src\stm32l4xx_hal_pwr_ex.c **** #if defined(GPIOF)
 515:C:/Users/²Ü¼ÒºÀ/.iotlink/sdk/IoT_LINK/drivers/third_party/ST/STM32L4xx_HAL_Driver/Src\stm32l4xx_hal_pwr_ex.c ****     case PWR_GPIO_F:
 516:C:/Users/²Ü¼ÒºÀ/.iotlink/sdk/IoT_LINK/drivers/third_party/ST/STM32L4xx_HAL_Driver/Src\stm32l4xx_hal_pwr_ex.c ****        CLEAR_BIT(PWR->PUCRF, GPIONumber);
 517:C:/Users/²Ü¼ÒºÀ/.iotlink/sdk/IoT_LINK/drivers/third_party/ST/STM32L4xx_HAL_Driver/Src\stm32l4xx_hal_pwr_ex.c ****        break;
 518:C:/Users/²Ü¼ÒºÀ/.iotlink/sdk/IoT_LINK/drivers/third_party/ST/STM32L4xx_HAL_Driver/Src\stm32l4xx_hal_pwr_ex.c **** #endif
 519:C:/Users/²Ü¼ÒºÀ/.iotlink/sdk/IoT_LINK/drivers/third_party/ST/STM32L4xx_HAL_Driver/Src\stm32l4xx_hal_pwr_ex.c **** #if defined(GPIOG)
 520:C:/Users/²Ü¼ÒºÀ/.iotlink/sdk/IoT_LINK/drivers/third_party/ST/STM32L4xx_HAL_Driver/Src\stm32l4xx_hal_pwr_ex.c ****     case PWR_GPIO_G:
 521:C:/Users/²Ü¼ÒºÀ/.iotlink/sdk/IoT_LINK/drivers/third_party/ST/STM32L4xx_HAL_Driver/Src\stm32l4xx_hal_pwr_ex.c ****        CLEAR_BIT(PWR->PUCRG, GPIONumber);
 522:C:/Users/²Ü¼ÒºÀ/.iotlink/sdk/IoT_LINK/drivers/third_party/ST/STM32L4xx_HAL_Driver/Src\stm32l4xx_hal_pwr_ex.c ****        break;
 523:C:/Users/²Ü¼ÒºÀ/.iotlink/sdk/IoT_LINK/drivers/third_party/ST/STM32L4xx_HAL_Driver/Src\stm32l4xx_hal_pwr_ex.c **** #endif
 524:C:/Users/²Ü¼ÒºÀ/.iotlink/sdk/IoT_LINK/drivers/third_party/ST/STM32L4xx_HAL_Driver/Src\stm32l4xx_hal_pwr_ex.c ****     case PWR_GPIO_H:    
 525:C:/Users/²Ü¼ÒºÀ/.iotlink/sdk/IoT_LINK/drivers/third_party/ST/STM32L4xx_HAL_Driver/Src\stm32l4xx_hal_pwr_ex.c ****        CLEAR_BIT(PWR->PUCRH, (GPIONumber & PWR_PORTH_AVAILABLE_PINS));
 526:C:/Users/²Ü¼ÒºÀ/.iotlink/sdk/IoT_LINK/drivers/third_party/ST/STM32L4xx_HAL_Driver/Src\stm32l4xx_hal_pwr_ex.c ****        break;
 527:C:/Users/²Ü¼ÒºÀ/.iotlink/sdk/IoT_LINK/drivers/third_party/ST/STM32L4xx_HAL_Driver/Src\stm32l4xx_hal_pwr_ex.c **** #if defined(GPIOI)
 528:C:/Users/²Ü¼ÒºÀ/.iotlink/sdk/IoT_LINK/drivers/third_party/ST/STM32L4xx_HAL_Driver/Src\stm32l4xx_hal_pwr_ex.c ****     case PWR_GPIO_I:
 529:C:/Users/²Ü¼ÒºÀ/.iotlink/sdk/IoT_LINK/drivers/third_party/ST/STM32L4xx_HAL_Driver/Src\stm32l4xx_hal_pwr_ex.c ****        CLEAR_BIT(PWR->PUCRI, (GPIONumber & PWR_PORTI_AVAILABLE_PINS));
 530:C:/Users/²Ü¼ÒºÀ/.iotlink/sdk/IoT_LINK/drivers/third_party/ST/STM32L4xx_HAL_Driver/Src\stm32l4xx_hal_pwr_ex.c ****        break;
ARM GAS  C:\Users\²Ü¼ÒºÀ\AppData\Local\Temp\cczPott0.s 			page 19


 531:C:/Users/²Ü¼ÒºÀ/.iotlink/sdk/IoT_LINK/drivers/third_party/ST/STM32L4xx_HAL_Driver/Src\stm32l4xx_hal_pwr_ex.c **** #endif
 532:C:/Users/²Ü¼ÒºÀ/.iotlink/sdk/IoT_LINK/drivers/third_party/ST/STM32L4xx_HAL_Driver/Src\stm32l4xx_hal_pwr_ex.c ****     default:
 533:C:/Users/²Ü¼ÒºÀ/.iotlink/sdk/IoT_LINK/drivers/third_party/ST/STM32L4xx_HAL_Driver/Src\stm32l4xx_hal_pwr_ex.c ****        return HAL_ERROR;
 534:C:/Users/²Ü¼ÒºÀ/.iotlink/sdk/IoT_LINK/drivers/third_party/ST/STM32L4xx_HAL_Driver/Src\stm32l4xx_hal_pwr_ex.c ****   }
 535:C:/Users/²Ü¼ÒºÀ/.iotlink/sdk/IoT_LINK/drivers/third_party/ST/STM32L4xx_HAL_Driver/Src\stm32l4xx_hal_pwr_ex.c ****   
 536:C:/Users/²Ü¼ÒºÀ/.iotlink/sdk/IoT_LINK/drivers/third_party/ST/STM32L4xx_HAL_Driver/Src\stm32l4xx_hal_pwr_ex.c ****   return HAL_OK;
 470              		.loc 1 536 10 is_stmt 0 view .LVU93
 471 001e 0020     		movs	r0, #0
 472              	.LVL28:
 500:C:/Users/²Ü¼ÒºÀ/.iotlink/sdk/IoT_LINK/drivers/third_party/ST/STM32L4xx_HAL_Driver/Src\stm32l4xx_hal_pwr_ex.c ****     case PWR_GPIO_C:
 473              		.loc 1 500 8 view .LVU94
 474 0020 7047     		bx	lr
 475              	.LVL29:
 476              	.L55:
 499:C:/Users/²Ü¼ÒºÀ/.iotlink/sdk/IoT_LINK/drivers/third_party/ST/STM32L4xx_HAL_Driver/Src\stm32l4xx_hal_pwr_ex.c ****        break;
 477              		.loc 1 499 8 is_stmt 1 view .LVU95
 478 0022 114A     		ldr	r2, .L59
 479 0024 936A     		ldr	r3, [r2, #40]
 480 0026 23EA0101 		bic	r1, r3, r1
 481              	.LVL30:
 499:C:/Users/²Ü¼ÒºÀ/.iotlink/sdk/IoT_LINK/drivers/third_party/ST/STM32L4xx_HAL_Driver/Src\stm32l4xx_hal_pwr_ex.c ****        break;
 482              		.loc 1 499 8 is_stmt 0 view .LVU96
 483 002a 9162     		str	r1, [r2, #40]
 484 002c F7E7     		b	.L58
 485              	.LVL31:
 486              	.L54:
 502:C:/Users/²Ü¼ÒºÀ/.iotlink/sdk/IoT_LINK/drivers/third_party/ST/STM32L4xx_HAL_Driver/Src\stm32l4xx_hal_pwr_ex.c ****        break;
 487              		.loc 1 502 8 is_stmt 1 view .LVU97
 488 002e 0E4A     		ldr	r2, .L59
 489 0030 136B     		ldr	r3, [r2, #48]
 490 0032 23EA0101 		bic	r1, r3, r1
 491              	.LVL32:
 502:C:/Users/²Ü¼ÒºÀ/.iotlink/sdk/IoT_LINK/drivers/third_party/ST/STM32L4xx_HAL_Driver/Src\stm32l4xx_hal_pwr_ex.c ****        break;
 492              		.loc 1 502 8 is_stmt 0 view .LVU98
 493 0036 1163     		str	r1, [r2, #48]
 503:C:/Users/²Ü¼ÒºÀ/.iotlink/sdk/IoT_LINK/drivers/third_party/ST/STM32L4xx_HAL_Driver/Src\stm32l4xx_hal_pwr_ex.c **** #if defined(GPIOD)
 494              		.loc 1 503 8 is_stmt 1 view .LVU99
 495 0038 F1E7     		b	.L58
 496              	.LVL33:
 497              	.L53:
 506:C:/Users/²Ü¼ÒºÀ/.iotlink/sdk/IoT_LINK/drivers/third_party/ST/STM32L4xx_HAL_Driver/Src\stm32l4xx_hal_pwr_ex.c ****        break;
 498              		.loc 1 506 8 view .LVU100
 499 003a 0B4A     		ldr	r2, .L59
 500 003c 936B     		ldr	r3, [r2, #56]
 501 003e 23EA0101 		bic	r1, r3, r1
 502              	.LVL34:
 506:C:/Users/²Ü¼ÒºÀ/.iotlink/sdk/IoT_LINK/drivers/third_party/ST/STM32L4xx_HAL_Driver/Src\stm32l4xx_hal_pwr_ex.c ****        break;
 503              		.loc 1 506 8 is_stmt 0 view .LVU101
 504 0042 9163     		str	r1, [r2, #56]
 507:C:/Users/²Ü¼ÒºÀ/.iotlink/sdk/IoT_LINK/drivers/third_party/ST/STM32L4xx_HAL_Driver/Src\stm32l4xx_hal_pwr_ex.c **** #endif
 505              		.loc 1 507 8 is_stmt 1 view .LVU102
 506 0044 EBE7     		b	.L58
 507              	.LVL35:
 508              	.L52:
 511:C:/Users/²Ü¼ÒºÀ/.iotlink/sdk/IoT_LINK/drivers/third_party/ST/STM32L4xx_HAL_Driver/Src\stm32l4xx_hal_pwr_ex.c ****        break;
 509              		.loc 1 511 8 view .LVU103
 510 0046 084A     		ldr	r2, .L59
ARM GAS  C:\Users\²Ü¼ÒºÀ\AppData\Local\Temp\cczPott0.s 			page 20


 511 0048 136C     		ldr	r3, [r2, #64]
 512 004a 23EA0101 		bic	r1, r3, r1
 513              	.LVL36:
 511:C:/Users/²Ü¼ÒºÀ/.iotlink/sdk/IoT_LINK/drivers/third_party/ST/STM32L4xx_HAL_Driver/Src\stm32l4xx_hal_pwr_ex.c ****        break;
 514              		.loc 1 511 8 is_stmt 0 view .LVU104
 515 004e 1164     		str	r1, [r2, #64]
 512:C:/Users/²Ü¼ÒºÀ/.iotlink/sdk/IoT_LINK/drivers/third_party/ST/STM32L4xx_HAL_Driver/Src\stm32l4xx_hal_pwr_ex.c **** #endif
 516              		.loc 1 512 8 is_stmt 1 view .LVU105
 517 0050 E5E7     		b	.L58
 518              	.LVL37:
 519              	.L50:
 525:C:/Users/²Ü¼ÒºÀ/.iotlink/sdk/IoT_LINK/drivers/third_party/ST/STM32L4xx_HAL_Driver/Src\stm32l4xx_hal_pwr_ex.c ****        break;
 520              		.loc 1 525 8 view .LVU106
 521 0052 054A     		ldr	r2, .L59
 522 0054 936D     		ldr	r3, [r2, #88]
 523 0056 01F00B01 		and	r1, r1, #11
 524              	.LVL38:
 525:C:/Users/²Ü¼ÒºÀ/.iotlink/sdk/IoT_LINK/drivers/third_party/ST/STM32L4xx_HAL_Driver/Src\stm32l4xx_hal_pwr_ex.c ****        break;
 525              		.loc 1 525 8 is_stmt 0 view .LVU107
 526 005a 23EA0101 		bic	r1, r3, r1
 527 005e 9165     		str	r1, [r2, #88]
 526:C:/Users/²Ü¼ÒºÀ/.iotlink/sdk/IoT_LINK/drivers/third_party/ST/STM32L4xx_HAL_Driver/Src\stm32l4xx_hal_pwr_ex.c **** #if defined(GPIOI)
 528              		.loc 1 526 8 is_stmt 1 view .LVU108
 529 0060 DDE7     		b	.L58
 530              	.LVL39:
 531              	.L57:
 532              		.loc 1 536 10 is_stmt 0 view .LVU109
 533 0062 0120     		movs	r0, #1
 534              	.LVL40:
 537:C:/Users/²Ü¼ÒºÀ/.iotlink/sdk/IoT_LINK/drivers/third_party/ST/STM32L4xx_HAL_Driver/Src\stm32l4xx_hal_pwr_ex.c **** }
 535              		.loc 1 537 1 view .LVU110
 536 0064 7047     		bx	lr
 537              	.L60:
 538 0066 00BF     		.align	2
 539              	.L59:
 540 0068 00700040 		.word	1073770496
 541              		.cfi_endproc
 542              	.LFE294:
 544              		.section	.text.HAL_PWREx_EnableGPIOPullDown,"ax",%progbits
 545              		.align	1
 546              		.global	HAL_PWREx_EnableGPIOPullDown
 547              		.syntax unified
 548              		.thumb
 549              		.thumb_func
 550              		.fpu fpv4-sp-d16
 552              	HAL_PWREx_EnableGPIOPullDown:
 553              	.LVL41:
 554              	.LFB295:
 538:C:/Users/²Ü¼ÒºÀ/.iotlink/sdk/IoT_LINK/drivers/third_party/ST/STM32L4xx_HAL_Driver/Src\stm32l4xx_hal_pwr_ex.c **** 
 539:C:/Users/²Ü¼ÒºÀ/.iotlink/sdk/IoT_LINK/drivers/third_party/ST/STM32L4xx_HAL_Driver/Src\stm32l4xx_hal_pwr_ex.c **** 
 540:C:/Users/²Ü¼ÒºÀ/.iotlink/sdk/IoT_LINK/drivers/third_party/ST/STM32L4xx_HAL_Driver/Src\stm32l4xx_hal_pwr_ex.c **** 
 541:C:/Users/²Ü¼ÒºÀ/.iotlink/sdk/IoT_LINK/drivers/third_party/ST/STM32L4xx_HAL_Driver/Src\stm32l4xx_hal_pwr_ex.c **** /**
 542:C:/Users/²Ü¼ÒºÀ/.iotlink/sdk/IoT_LINK/drivers/third_party/ST/STM32L4xx_HAL_Driver/Src\stm32l4xx_hal_pwr_ex.c ****   * @brief Enable GPIO pull-down state in Standby and Shutdown modes.
 543:C:/Users/²Ü¼ÒºÀ/.iotlink/sdk/IoT_LINK/drivers/third_party/ST/STM32L4xx_HAL_Driver/Src\stm32l4xx_hal_pwr_ex.c ****   * @note  Set the relevant PDy bits of PWR_PDCRx register to configure the I/O in 
 544:C:/Users/²Ü¼ÒºÀ/.iotlink/sdk/IoT_LINK/drivers/third_party/ST/STM32L4xx_HAL_Driver/Src\stm32l4xx_hal_pwr_ex.c ****   *        pull-down state in Standby and Shutdown modes. 
 545:C:/Users/²Ü¼ÒºÀ/.iotlink/sdk/IoT_LINK/drivers/third_party/ST/STM32L4xx_HAL_Driver/Src\stm32l4xx_hal_pwr_ex.c ****   * @note  This state is effective in Standby and Shutdown modes only if APC bit
 546:C:/Users/²Ü¼ÒºÀ/.iotlink/sdk/IoT_LINK/drivers/third_party/ST/STM32L4xx_HAL_Driver/Src\stm32l4xx_hal_pwr_ex.c ****   *        is set through HAL_PWREx_EnablePullUpPullDownConfig() API. 
ARM GAS  C:\Users\²Ü¼ÒºÀ\AppData\Local\Temp\cczPott0.s 			page 21


 547:C:/Users/²Ü¼ÒºÀ/.iotlink/sdk/IoT_LINK/drivers/third_party/ST/STM32L4xx_HAL_Driver/Src\stm32l4xx_hal_pwr_ex.c ****   * @note  The configuration is lost when exiting the Shutdown mode due to the 
 548:C:/Users/²Ü¼ÒºÀ/.iotlink/sdk/IoT_LINK/drivers/third_party/ST/STM32L4xx_HAL_Driver/Src\stm32l4xx_hal_pwr_ex.c ****   *        power-on reset, maintained when exiting the Standby mode. 
 549:C:/Users/²Ü¼ÒºÀ/.iotlink/sdk/IoT_LINK/drivers/third_party/ST/STM32L4xx_HAL_Driver/Src\stm32l4xx_hal_pwr_ex.c ****   * @note  To avoid any conflict at Standby and Shutdown modes exits, the corresponding
 550:C:/Users/²Ü¼ÒºÀ/.iotlink/sdk/IoT_LINK/drivers/third_party/ST/STM32L4xx_HAL_Driver/Src\stm32l4xx_hal_pwr_ex.c ****   *        PUy bit of PWR_PUCRx register is cleared unless it is reserved. 
 551:C:/Users/²Ü¼ÒºÀ/.iotlink/sdk/IoT_LINK/drivers/third_party/ST/STM32L4xx_HAL_Driver/Src\stm32l4xx_hal_pwr_ex.c ****   * @note  Even if a PDy bit to set is reserved, the other PDy bits entered as input 
 552:C:/Users/²Ü¼ÒºÀ/.iotlink/sdk/IoT_LINK/drivers/third_party/ST/STM32L4xx_HAL_Driver/Src\stm32l4xx_hal_pwr_ex.c ****   *        parameter at the same time are set.         
 553:C:/Users/²Ü¼ÒºÀ/.iotlink/sdk/IoT_LINK/drivers/third_party/ST/STM32L4xx_HAL_Driver/Src\stm32l4xx_hal_pwr_ex.c ****   * @param  GPIO: Specify the IO port. This parameter can be PWR_GPIO_A..PWR_GPIO_H 
 554:C:/Users/²Ü¼ÒºÀ/.iotlink/sdk/IoT_LINK/drivers/third_party/ST/STM32L4xx_HAL_Driver/Src\stm32l4xx_hal_pwr_ex.c ****   *         (or PWR_GPIO_I depending on the devices) to select the GPIO peripheral.
 555:C:/Users/²Ü¼ÒºÀ/.iotlink/sdk/IoT_LINK/drivers/third_party/ST/STM32L4xx_HAL_Driver/Src\stm32l4xx_hal_pwr_ex.c ****   * @param  GPIONumber: Specify the I/O pins numbers.
 556:C:/Users/²Ü¼ÒºÀ/.iotlink/sdk/IoT_LINK/drivers/third_party/ST/STM32L4xx_HAL_Driver/Src\stm32l4xx_hal_pwr_ex.c ****   *         This parameter can be one of the following values:
 557:C:/Users/²Ü¼ÒºÀ/.iotlink/sdk/IoT_LINK/drivers/third_party/ST/STM32L4xx_HAL_Driver/Src\stm32l4xx_hal_pwr_ex.c ****   *         PWR_GPIO_BIT_0, ..., PWR_GPIO_BIT_15 (except for the port where less  
 558:C:/Users/²Ü¼ÒºÀ/.iotlink/sdk/IoT_LINK/drivers/third_party/ST/STM32L4xx_HAL_Driver/Src\stm32l4xx_hal_pwr_ex.c ****   *         I/O pins are available) or the logical OR of several of them to set 
 559:C:/Users/²Ü¼ÒºÀ/.iotlink/sdk/IoT_LINK/drivers/third_party/ST/STM32L4xx_HAL_Driver/Src\stm32l4xx_hal_pwr_ex.c ****   *         several bits for a given port in a single API call. 
 560:C:/Users/²Ü¼ÒºÀ/.iotlink/sdk/IoT_LINK/drivers/third_party/ST/STM32L4xx_HAL_Driver/Src\stm32l4xx_hal_pwr_ex.c ****   * @retval HAL Status
 561:C:/Users/²Ü¼ÒºÀ/.iotlink/sdk/IoT_LINK/drivers/third_party/ST/STM32L4xx_HAL_Driver/Src\stm32l4xx_hal_pwr_ex.c ****   */   
 562:C:/Users/²Ü¼ÒºÀ/.iotlink/sdk/IoT_LINK/drivers/third_party/ST/STM32L4xx_HAL_Driver/Src\stm32l4xx_hal_pwr_ex.c **** HAL_StatusTypeDef HAL_PWREx_EnableGPIOPullDown(uint32_t GPIO, uint32_t GPIONumber)
 563:C:/Users/²Ü¼ÒºÀ/.iotlink/sdk/IoT_LINK/drivers/third_party/ST/STM32L4xx_HAL_Driver/Src\stm32l4xx_hal_pwr_ex.c **** {
 555              		.loc 1 563 1 is_stmt 1 view -0
 556              		.cfi_startproc
 557              		@ args = 0, pretend = 0, frame = 0
 558              		@ frame_needed = 0, uses_anonymous_args = 0
 559              		@ link register save eliminated.
 564:C:/Users/²Ü¼ÒºÀ/.iotlink/sdk/IoT_LINK/drivers/third_party/ST/STM32L4xx_HAL_Driver/Src\stm32l4xx_hal_pwr_ex.c ****   assert_param(IS_PWR_GPIO(GPIO));
 560              		.loc 1 564 3 view .LVU112
 565:C:/Users/²Ü¼ÒºÀ/.iotlink/sdk/IoT_LINK/drivers/third_party/ST/STM32L4xx_HAL_Driver/Src\stm32l4xx_hal_pwr_ex.c ****   assert_param(IS_PWR_GPIO_BIT_NUMBER(GPIONumber));
 561              		.loc 1 565 3 view .LVU113
 566:C:/Users/²Ü¼ÒºÀ/.iotlink/sdk/IoT_LINK/drivers/third_party/ST/STM32L4xx_HAL_Driver/Src\stm32l4xx_hal_pwr_ex.c ****   
 567:C:/Users/²Ü¼ÒºÀ/.iotlink/sdk/IoT_LINK/drivers/third_party/ST/STM32L4xx_HAL_Driver/Src\stm32l4xx_hal_pwr_ex.c ****   switch (GPIO)
 562              		.loc 1 567 3 view .LVU114
 563 0000 0728     		cmp	r0, #7
 564 0002 44D8     		bhi	.L70
 565 0004 DFE800F0 		tbb	[pc, r0]
 566              	.L64:
 567 0008 04       		.byte	(.L69-.L64)/2
 568 0009 12       		.byte	(.L68-.L64)/2
 569 000a 1D       		.byte	(.L67-.L64)/2
 570 000b 26       		.byte	(.L66-.L64)/2
 571 000c 2F       		.byte	(.L65-.L64)/2
 572 000d 43       		.byte	(.L70-.L64)/2
 573 000e 43       		.byte	(.L70-.L64)/2
 574 000f 38       		.byte	(.L63-.L64)/2
 575              		.p2align 1
 576              	.L69:
 568:C:/Users/²Ü¼ÒºÀ/.iotlink/sdk/IoT_LINK/drivers/third_party/ST/STM32L4xx_HAL_Driver/Src\stm32l4xx_hal_pwr_ex.c ****   {
 569:C:/Users/²Ü¼ÒºÀ/.iotlink/sdk/IoT_LINK/drivers/third_party/ST/STM32L4xx_HAL_Driver/Src\stm32l4xx_hal_pwr_ex.c ****     case PWR_GPIO_A:
 570:C:/Users/²Ü¼ÒºÀ/.iotlink/sdk/IoT_LINK/drivers/third_party/ST/STM32L4xx_HAL_Driver/Src\stm32l4xx_hal_pwr_ex.c ****        SET_BIT(PWR->PDCRA, (GPIONumber & (~(PWR_GPIO_BIT_13|PWR_GPIO_BIT_15))));
 577              		.loc 1 570 8 view .LVU115
 578 0010 204B     		ldr	r3, .L72
 579 0012 586A     		ldr	r0, [r3, #36]
 580              	.LVL42:
 581              		.loc 1 570 8 is_stmt 0 view .LVU116
 582 0014 21F42042 		bic	r2, r1, #40960
 583 0018 0243     		orrs	r2, r2, r0
 584 001a 5A62     		str	r2, [r3, #36]
 571:C:/Users/²Ü¼ÒºÀ/.iotlink/sdk/IoT_LINK/drivers/third_party/ST/STM32L4xx_HAL_Driver/Src\stm32l4xx_hal_pwr_ex.c ****        CLEAR_BIT(PWR->PUCRA, (GPIONumber & (~(PWR_GPIO_BIT_14))));
 585              		.loc 1 571 8 is_stmt 1 view .LVU117
 586 001c 1A6A     		ldr	r2, [r3, #32]
ARM GAS  C:\Users\²Ü¼ÒºÀ\AppData\Local\Temp\cczPott0.s 			page 22


 587 001e 21F48041 		bic	r1, r1, #16384
 588              	.LVL43:
 589              		.loc 1 571 8 is_stmt 0 view .LVU118
 590 0022 22EA0101 		bic	r1, r2, r1
 591 0026 1962     		str	r1, [r3, #32]
 572:C:/Users/²Ü¼ÒºÀ/.iotlink/sdk/IoT_LINK/drivers/third_party/ST/STM32L4xx_HAL_Driver/Src\stm32l4xx_hal_pwr_ex.c ****        break;
 592              		.loc 1 572 8 is_stmt 1 view .LVU119
 593              	.L71:
 573:C:/Users/²Ü¼ÒºÀ/.iotlink/sdk/IoT_LINK/drivers/third_party/ST/STM32L4xx_HAL_Driver/Src\stm32l4xx_hal_pwr_ex.c ****     case PWR_GPIO_B:
 574:C:/Users/²Ü¼ÒºÀ/.iotlink/sdk/IoT_LINK/drivers/third_party/ST/STM32L4xx_HAL_Driver/Src\stm32l4xx_hal_pwr_ex.c ****        SET_BIT(PWR->PDCRB, (GPIONumber & (~(PWR_GPIO_BIT_4))));
 575:C:/Users/²Ü¼ÒºÀ/.iotlink/sdk/IoT_LINK/drivers/third_party/ST/STM32L4xx_HAL_Driver/Src\stm32l4xx_hal_pwr_ex.c ****        CLEAR_BIT(PWR->PUCRB, GPIONumber);
 576:C:/Users/²Ü¼ÒºÀ/.iotlink/sdk/IoT_LINK/drivers/third_party/ST/STM32L4xx_HAL_Driver/Src\stm32l4xx_hal_pwr_ex.c ****        break;
 594              		.loc 1 576 8 view .LVU120
 577:C:/Users/²Ü¼ÒºÀ/.iotlink/sdk/IoT_LINK/drivers/third_party/ST/STM32L4xx_HAL_Driver/Src\stm32l4xx_hal_pwr_ex.c ****     case PWR_GPIO_C:
 578:C:/Users/²Ü¼ÒºÀ/.iotlink/sdk/IoT_LINK/drivers/third_party/ST/STM32L4xx_HAL_Driver/Src\stm32l4xx_hal_pwr_ex.c ****        SET_BIT(PWR->PDCRC, GPIONumber);
 579:C:/Users/²Ü¼ÒºÀ/.iotlink/sdk/IoT_LINK/drivers/third_party/ST/STM32L4xx_HAL_Driver/Src\stm32l4xx_hal_pwr_ex.c ****        CLEAR_BIT(PWR->PUCRC, GPIONumber);
 580:C:/Users/²Ü¼ÒºÀ/.iotlink/sdk/IoT_LINK/drivers/third_party/ST/STM32L4xx_HAL_Driver/Src\stm32l4xx_hal_pwr_ex.c ****        break;
 581:C:/Users/²Ü¼ÒºÀ/.iotlink/sdk/IoT_LINK/drivers/third_party/ST/STM32L4xx_HAL_Driver/Src\stm32l4xx_hal_pwr_ex.c **** #if defined(GPIOD)
 582:C:/Users/²Ü¼ÒºÀ/.iotlink/sdk/IoT_LINK/drivers/third_party/ST/STM32L4xx_HAL_Driver/Src\stm32l4xx_hal_pwr_ex.c ****     case PWR_GPIO_D:
 583:C:/Users/²Ü¼ÒºÀ/.iotlink/sdk/IoT_LINK/drivers/third_party/ST/STM32L4xx_HAL_Driver/Src\stm32l4xx_hal_pwr_ex.c ****        SET_BIT(PWR->PDCRD, GPIONumber);
 584:C:/Users/²Ü¼ÒºÀ/.iotlink/sdk/IoT_LINK/drivers/third_party/ST/STM32L4xx_HAL_Driver/Src\stm32l4xx_hal_pwr_ex.c ****        CLEAR_BIT(PWR->PUCRD, GPIONumber);
 585:C:/Users/²Ü¼ÒºÀ/.iotlink/sdk/IoT_LINK/drivers/third_party/ST/STM32L4xx_HAL_Driver/Src\stm32l4xx_hal_pwr_ex.c ****        break;
 586:C:/Users/²Ü¼ÒºÀ/.iotlink/sdk/IoT_LINK/drivers/third_party/ST/STM32L4xx_HAL_Driver/Src\stm32l4xx_hal_pwr_ex.c **** #endif
 587:C:/Users/²Ü¼ÒºÀ/.iotlink/sdk/IoT_LINK/drivers/third_party/ST/STM32L4xx_HAL_Driver/Src\stm32l4xx_hal_pwr_ex.c **** #if defined(GPIOE)
 588:C:/Users/²Ü¼ÒºÀ/.iotlink/sdk/IoT_LINK/drivers/third_party/ST/STM32L4xx_HAL_Driver/Src\stm32l4xx_hal_pwr_ex.c ****     case PWR_GPIO_E:
 589:C:/Users/²Ü¼ÒºÀ/.iotlink/sdk/IoT_LINK/drivers/third_party/ST/STM32L4xx_HAL_Driver/Src\stm32l4xx_hal_pwr_ex.c ****        SET_BIT(PWR->PDCRE, GPIONumber);
 590:C:/Users/²Ü¼ÒºÀ/.iotlink/sdk/IoT_LINK/drivers/third_party/ST/STM32L4xx_HAL_Driver/Src\stm32l4xx_hal_pwr_ex.c ****        CLEAR_BIT(PWR->PUCRE, GPIONumber);
 591:C:/Users/²Ü¼ÒºÀ/.iotlink/sdk/IoT_LINK/drivers/third_party/ST/STM32L4xx_HAL_Driver/Src\stm32l4xx_hal_pwr_ex.c ****        break;
 592:C:/Users/²Ü¼ÒºÀ/.iotlink/sdk/IoT_LINK/drivers/third_party/ST/STM32L4xx_HAL_Driver/Src\stm32l4xx_hal_pwr_ex.c **** #endif
 593:C:/Users/²Ü¼ÒºÀ/.iotlink/sdk/IoT_LINK/drivers/third_party/ST/STM32L4xx_HAL_Driver/Src\stm32l4xx_hal_pwr_ex.c **** #if defined(GPIOF)
 594:C:/Users/²Ü¼ÒºÀ/.iotlink/sdk/IoT_LINK/drivers/third_party/ST/STM32L4xx_HAL_Driver/Src\stm32l4xx_hal_pwr_ex.c ****     case PWR_GPIO_F:
 595:C:/Users/²Ü¼ÒºÀ/.iotlink/sdk/IoT_LINK/drivers/third_party/ST/STM32L4xx_HAL_Driver/Src\stm32l4xx_hal_pwr_ex.c ****        SET_BIT(PWR->PDCRF, GPIONumber);
 596:C:/Users/²Ü¼ÒºÀ/.iotlink/sdk/IoT_LINK/drivers/third_party/ST/STM32L4xx_HAL_Driver/Src\stm32l4xx_hal_pwr_ex.c ****        CLEAR_BIT(PWR->PUCRF, GPIONumber);
 597:C:/Users/²Ü¼ÒºÀ/.iotlink/sdk/IoT_LINK/drivers/third_party/ST/STM32L4xx_HAL_Driver/Src\stm32l4xx_hal_pwr_ex.c ****        break;
 598:C:/Users/²Ü¼ÒºÀ/.iotlink/sdk/IoT_LINK/drivers/third_party/ST/STM32L4xx_HAL_Driver/Src\stm32l4xx_hal_pwr_ex.c **** #endif
 599:C:/Users/²Ü¼ÒºÀ/.iotlink/sdk/IoT_LINK/drivers/third_party/ST/STM32L4xx_HAL_Driver/Src\stm32l4xx_hal_pwr_ex.c **** #if defined(GPIOG)
 600:C:/Users/²Ü¼ÒºÀ/.iotlink/sdk/IoT_LINK/drivers/third_party/ST/STM32L4xx_HAL_Driver/Src\stm32l4xx_hal_pwr_ex.c ****     case PWR_GPIO_G:
 601:C:/Users/²Ü¼ÒºÀ/.iotlink/sdk/IoT_LINK/drivers/third_party/ST/STM32L4xx_HAL_Driver/Src\stm32l4xx_hal_pwr_ex.c ****        SET_BIT(PWR->PDCRG, GPIONumber);
 602:C:/Users/²Ü¼ÒºÀ/.iotlink/sdk/IoT_LINK/drivers/third_party/ST/STM32L4xx_HAL_Driver/Src\stm32l4xx_hal_pwr_ex.c ****        CLEAR_BIT(PWR->PUCRG, GPIONumber);
 603:C:/Users/²Ü¼ÒºÀ/.iotlink/sdk/IoT_LINK/drivers/third_party/ST/STM32L4xx_HAL_Driver/Src\stm32l4xx_hal_pwr_ex.c ****        break;
 604:C:/Users/²Ü¼ÒºÀ/.iotlink/sdk/IoT_LINK/drivers/third_party/ST/STM32L4xx_HAL_Driver/Src\stm32l4xx_hal_pwr_ex.c **** #endif
 605:C:/Users/²Ü¼ÒºÀ/.iotlink/sdk/IoT_LINK/drivers/third_party/ST/STM32L4xx_HAL_Driver/Src\stm32l4xx_hal_pwr_ex.c ****     case PWR_GPIO_H:
 606:C:/Users/²Ü¼ÒºÀ/.iotlink/sdk/IoT_LINK/drivers/third_party/ST/STM32L4xx_HAL_Driver/Src\stm32l4xx_hal_pwr_ex.c **** #if defined (STM32L496xx) || defined (STM32L4A6xx)
 607:C:/Users/²Ü¼ÒºÀ/.iotlink/sdk/IoT_LINK/drivers/third_party/ST/STM32L4xx_HAL_Driver/Src\stm32l4xx_hal_pwr_ex.c ****        SET_BIT(PWR->PDCRH, ((GPIONumber & PWR_PORTH_AVAILABLE_PINS) & (~(PWR_GPIO_BIT_3))));
 608:C:/Users/²Ü¼ÒºÀ/.iotlink/sdk/IoT_LINK/drivers/third_party/ST/STM32L4xx_HAL_Driver/Src\stm32l4xx_hal_pwr_ex.c **** #else       
 609:C:/Users/²Ü¼ÒºÀ/.iotlink/sdk/IoT_LINK/drivers/third_party/ST/STM32L4xx_HAL_Driver/Src\stm32l4xx_hal_pwr_ex.c ****        SET_BIT(PWR->PDCRH, (GPIONumber & PWR_PORTH_AVAILABLE_PINS));
 610:C:/Users/²Ü¼ÒºÀ/.iotlink/sdk/IoT_LINK/drivers/third_party/ST/STM32L4xx_HAL_Driver/Src\stm32l4xx_hal_pwr_ex.c **** #endif  
 611:C:/Users/²Ü¼ÒºÀ/.iotlink/sdk/IoT_LINK/drivers/third_party/ST/STM32L4xx_HAL_Driver/Src\stm32l4xx_hal_pwr_ex.c ****        CLEAR_BIT(PWR->PUCRH, (GPIONumber & PWR_PORTH_AVAILABLE_PINS));
 612:C:/Users/²Ü¼ÒºÀ/.iotlink/sdk/IoT_LINK/drivers/third_party/ST/STM32L4xx_HAL_Driver/Src\stm32l4xx_hal_pwr_ex.c ****        break;
 613:C:/Users/²Ü¼ÒºÀ/.iotlink/sdk/IoT_LINK/drivers/third_party/ST/STM32L4xx_HAL_Driver/Src\stm32l4xx_hal_pwr_ex.c **** #if defined(GPIOI)
 614:C:/Users/²Ü¼ÒºÀ/.iotlink/sdk/IoT_LINK/drivers/third_party/ST/STM32L4xx_HAL_Driver/Src\stm32l4xx_hal_pwr_ex.c ****     case PWR_GPIO_I:
 615:C:/Users/²Ü¼ÒºÀ/.iotlink/sdk/IoT_LINK/drivers/third_party/ST/STM32L4xx_HAL_Driver/Src\stm32l4xx_hal_pwr_ex.c ****        SET_BIT(PWR->PDCRI, (GPIONumber & PWR_PORTI_AVAILABLE_PINS));
 616:C:/Users/²Ü¼ÒºÀ/.iotlink/sdk/IoT_LINK/drivers/third_party/ST/STM32L4xx_HAL_Driver/Src\stm32l4xx_hal_pwr_ex.c ****        CLEAR_BIT(PWR->PUCRI, (GPIONumber & PWR_PORTI_AVAILABLE_PINS));
 617:C:/Users/²Ü¼ÒºÀ/.iotlink/sdk/IoT_LINK/drivers/third_party/ST/STM32L4xx_HAL_Driver/Src\stm32l4xx_hal_pwr_ex.c ****        break;
 618:C:/Users/²Ü¼ÒºÀ/.iotlink/sdk/IoT_LINK/drivers/third_party/ST/STM32L4xx_HAL_Driver/Src\stm32l4xx_hal_pwr_ex.c **** #endif
 619:C:/Users/²Ü¼ÒºÀ/.iotlink/sdk/IoT_LINK/drivers/third_party/ST/STM32L4xx_HAL_Driver/Src\stm32l4xx_hal_pwr_ex.c ****     default:
 620:C:/Users/²Ü¼ÒºÀ/.iotlink/sdk/IoT_LINK/drivers/third_party/ST/STM32L4xx_HAL_Driver/Src\stm32l4xx_hal_pwr_ex.c ****        return HAL_ERROR;
ARM GAS  C:\Users\²Ü¼ÒºÀ\AppData\Local\Temp\cczPott0.s 			page 23


 621:C:/Users/²Ü¼ÒºÀ/.iotlink/sdk/IoT_LINK/drivers/third_party/ST/STM32L4xx_HAL_Driver/Src\stm32l4xx_hal_pwr_ex.c ****   }
 622:C:/Users/²Ü¼ÒºÀ/.iotlink/sdk/IoT_LINK/drivers/third_party/ST/STM32L4xx_HAL_Driver/Src\stm32l4xx_hal_pwr_ex.c ****   
 623:C:/Users/²Ü¼ÒºÀ/.iotlink/sdk/IoT_LINK/drivers/third_party/ST/STM32L4xx_HAL_Driver/Src\stm32l4xx_hal_pwr_ex.c ****   return HAL_OK;
 595              		.loc 1 623 10 is_stmt 0 view .LVU121
 596 0028 0020     		movs	r0, #0
 576:C:/Users/²Ü¼ÒºÀ/.iotlink/sdk/IoT_LINK/drivers/third_party/ST/STM32L4xx_HAL_Driver/Src\stm32l4xx_hal_pwr_ex.c ****     case PWR_GPIO_C:
 597              		.loc 1 576 8 view .LVU122
 598 002a 7047     		bx	lr
 599              	.LVL44:
 600              	.L68:
 574:C:/Users/²Ü¼ÒºÀ/.iotlink/sdk/IoT_LINK/drivers/third_party/ST/STM32L4xx_HAL_Driver/Src\stm32l4xx_hal_pwr_ex.c ****        CLEAR_BIT(PWR->PUCRB, GPIONumber);
 601              		.loc 1 574 8 is_stmt 1 view .LVU123
 602 002c 194B     		ldr	r3, .L72
 603 002e D86A     		ldr	r0, [r3, #44]
 604              	.LVL45:
 574:C:/Users/²Ü¼ÒºÀ/.iotlink/sdk/IoT_LINK/drivers/third_party/ST/STM32L4xx_HAL_Driver/Src\stm32l4xx_hal_pwr_ex.c ****        CLEAR_BIT(PWR->PUCRB, GPIONumber);
 605              		.loc 1 574 8 is_stmt 0 view .LVU124
 606 0030 21F01002 		bic	r2, r1, #16
 607 0034 0243     		orrs	r2, r2, r0
 608 0036 DA62     		str	r2, [r3, #44]
 575:C:/Users/²Ü¼ÒºÀ/.iotlink/sdk/IoT_LINK/drivers/third_party/ST/STM32L4xx_HAL_Driver/Src\stm32l4xx_hal_pwr_ex.c ****        break;
 609              		.loc 1 575 8 is_stmt 1 view .LVU125
 610 0038 9A6A     		ldr	r2, [r3, #40]
 611 003a 22EA0101 		bic	r1, r2, r1
 612              	.LVL46:
 575:C:/Users/²Ü¼ÒºÀ/.iotlink/sdk/IoT_LINK/drivers/third_party/ST/STM32L4xx_HAL_Driver/Src\stm32l4xx_hal_pwr_ex.c ****        break;
 613              		.loc 1 575 8 is_stmt 0 view .LVU126
 614 003e 9962     		str	r1, [r3, #40]
 615 0040 F2E7     		b	.L71
 616              	.LVL47:
 617              	.L67:
 578:C:/Users/²Ü¼ÒºÀ/.iotlink/sdk/IoT_LINK/drivers/third_party/ST/STM32L4xx_HAL_Driver/Src\stm32l4xx_hal_pwr_ex.c ****        CLEAR_BIT(PWR->PUCRC, GPIONumber);
 618              		.loc 1 578 8 is_stmt 1 view .LVU127
 619 0042 144B     		ldr	r3, .L72
 620 0044 5A6B     		ldr	r2, [r3, #52]
 621 0046 0A43     		orrs	r2, r2, r1
 622 0048 5A63     		str	r2, [r3, #52]
 579:C:/Users/²Ü¼ÒºÀ/.iotlink/sdk/IoT_LINK/drivers/third_party/ST/STM32L4xx_HAL_Driver/Src\stm32l4xx_hal_pwr_ex.c ****        break;
 623              		.loc 1 579 8 view .LVU128
 624 004a 1A6B     		ldr	r2, [r3, #48]
 625 004c 22EA0101 		bic	r1, r2, r1
 626              	.LVL48:
 579:C:/Users/²Ü¼ÒºÀ/.iotlink/sdk/IoT_LINK/drivers/third_party/ST/STM32L4xx_HAL_Driver/Src\stm32l4xx_hal_pwr_ex.c ****        break;
 627              		.loc 1 579 8 is_stmt 0 view .LVU129
 628 0050 1963     		str	r1, [r3, #48]
 580:C:/Users/²Ü¼ÒºÀ/.iotlink/sdk/IoT_LINK/drivers/third_party/ST/STM32L4xx_HAL_Driver/Src\stm32l4xx_hal_pwr_ex.c **** #if defined(GPIOD)
 629              		.loc 1 580 8 is_stmt 1 view .LVU130
 630 0052 E9E7     		b	.L71
 631              	.LVL49:
 632              	.L66:
 583:C:/Users/²Ü¼ÒºÀ/.iotlink/sdk/IoT_LINK/drivers/third_party/ST/STM32L4xx_HAL_Driver/Src\stm32l4xx_hal_pwr_ex.c ****        CLEAR_BIT(PWR->PUCRD, GPIONumber);
 633              		.loc 1 583 8 view .LVU131
 634 0054 0F4B     		ldr	r3, .L72
 635 0056 DA6B     		ldr	r2, [r3, #60]
 636 0058 0A43     		orrs	r2, r2, r1
 637 005a DA63     		str	r2, [r3, #60]
 584:C:/Users/²Ü¼ÒºÀ/.iotlink/sdk/IoT_LINK/drivers/third_party/ST/STM32L4xx_HAL_Driver/Src\stm32l4xx_hal_pwr_ex.c ****        break;
ARM GAS  C:\Users\²Ü¼ÒºÀ\AppData\Local\Temp\cczPott0.s 			page 24


 638              		.loc 1 584 8 view .LVU132
 639 005c 9A6B     		ldr	r2, [r3, #56]
 640 005e 22EA0101 		bic	r1, r2, r1
 641              	.LVL50:
 584:C:/Users/²Ü¼ÒºÀ/.iotlink/sdk/IoT_LINK/drivers/third_party/ST/STM32L4xx_HAL_Driver/Src\stm32l4xx_hal_pwr_ex.c ****        break;
 642              		.loc 1 584 8 is_stmt 0 view .LVU133
 643 0062 9963     		str	r1, [r3, #56]
 585:C:/Users/²Ü¼ÒºÀ/.iotlink/sdk/IoT_LINK/drivers/third_party/ST/STM32L4xx_HAL_Driver/Src\stm32l4xx_hal_pwr_ex.c **** #endif
 644              		.loc 1 585 8 is_stmt 1 view .LVU134
 645 0064 E0E7     		b	.L71
 646              	.LVL51:
 647              	.L65:
 589:C:/Users/²Ü¼ÒºÀ/.iotlink/sdk/IoT_LINK/drivers/third_party/ST/STM32L4xx_HAL_Driver/Src\stm32l4xx_hal_pwr_ex.c ****        CLEAR_BIT(PWR->PUCRE, GPIONumber);
 648              		.loc 1 589 8 view .LVU135
 649 0066 0B4B     		ldr	r3, .L72
 650 0068 5A6C     		ldr	r2, [r3, #68]
 651 006a 0A43     		orrs	r2, r2, r1
 652 006c 5A64     		str	r2, [r3, #68]
 590:C:/Users/²Ü¼ÒºÀ/.iotlink/sdk/IoT_LINK/drivers/third_party/ST/STM32L4xx_HAL_Driver/Src\stm32l4xx_hal_pwr_ex.c ****        break;
 653              		.loc 1 590 8 view .LVU136
 654 006e 1A6C     		ldr	r2, [r3, #64]
 655 0070 22EA0101 		bic	r1, r2, r1
 656              	.LVL52:
 590:C:/Users/²Ü¼ÒºÀ/.iotlink/sdk/IoT_LINK/drivers/third_party/ST/STM32L4xx_HAL_Driver/Src\stm32l4xx_hal_pwr_ex.c ****        break;
 657              		.loc 1 590 8 is_stmt 0 view .LVU137
 658 0074 1964     		str	r1, [r3, #64]
 591:C:/Users/²Ü¼ÒºÀ/.iotlink/sdk/IoT_LINK/drivers/third_party/ST/STM32L4xx_HAL_Driver/Src\stm32l4xx_hal_pwr_ex.c **** #endif
 659              		.loc 1 591 8 is_stmt 1 view .LVU138
 660 0076 D7E7     		b	.L71
 661              	.LVL53:
 662              	.L63:
 609:C:/Users/²Ü¼ÒºÀ/.iotlink/sdk/IoT_LINK/drivers/third_party/ST/STM32L4xx_HAL_Driver/Src\stm32l4xx_hal_pwr_ex.c **** #endif  
 663              		.loc 1 609 8 view .LVU139
 664 0078 064B     		ldr	r3, .L72
 665 007a DA6D     		ldr	r2, [r3, #92]
 666 007c 01F00B01 		and	r1, r1, #11
 667              	.LVL54:
 609:C:/Users/²Ü¼ÒºÀ/.iotlink/sdk/IoT_LINK/drivers/third_party/ST/STM32L4xx_HAL_Driver/Src\stm32l4xx_hal_pwr_ex.c **** #endif  
 668              		.loc 1 609 8 is_stmt 0 view .LVU140
 669 0080 0A43     		orrs	r2, r2, r1
 670 0082 DA65     		str	r2, [r3, #92]
 611:C:/Users/²Ü¼ÒºÀ/.iotlink/sdk/IoT_LINK/drivers/third_party/ST/STM32L4xx_HAL_Driver/Src\stm32l4xx_hal_pwr_ex.c ****        break;
 671              		.loc 1 611 8 is_stmt 1 view .LVU141
 672 0084 9A6D     		ldr	r2, [r3, #88]
 673 0086 22EA0101 		bic	r1, r2, r1
 674 008a 9965     		str	r1, [r3, #88]
 612:C:/Users/²Ü¼ÒºÀ/.iotlink/sdk/IoT_LINK/drivers/third_party/ST/STM32L4xx_HAL_Driver/Src\stm32l4xx_hal_pwr_ex.c **** #if defined(GPIOI)
 675              		.loc 1 612 8 view .LVU142
 676 008c CCE7     		b	.L71
 677              	.LVL55:
 678              	.L70:
 679              		.loc 1 623 10 is_stmt 0 view .LVU143
 680 008e 0120     		movs	r0, #1
 681              	.LVL56:
 624:C:/Users/²Ü¼ÒºÀ/.iotlink/sdk/IoT_LINK/drivers/third_party/ST/STM32L4xx_HAL_Driver/Src\stm32l4xx_hal_pwr_ex.c **** }
 682              		.loc 1 624 1 view .LVU144
 683 0090 7047     		bx	lr
ARM GAS  C:\Users\²Ü¼ÒºÀ\AppData\Local\Temp\cczPott0.s 			page 25


 684              	.L73:
 685 0092 00BF     		.align	2
 686              	.L72:
 687 0094 00700040 		.word	1073770496
 688              		.cfi_endproc
 689              	.LFE295:
 691              		.section	.text.HAL_PWREx_DisableGPIOPullDown,"ax",%progbits
 692              		.align	1
 693              		.global	HAL_PWREx_DisableGPIOPullDown
 694              		.syntax unified
 695              		.thumb
 696              		.thumb_func
 697              		.fpu fpv4-sp-d16
 699              	HAL_PWREx_DisableGPIOPullDown:
 700              	.LVL57:
 701              	.LFB296:
 625:C:/Users/²Ü¼ÒºÀ/.iotlink/sdk/IoT_LINK/drivers/third_party/ST/STM32L4xx_HAL_Driver/Src\stm32l4xx_hal_pwr_ex.c **** 
 626:C:/Users/²Ü¼ÒºÀ/.iotlink/sdk/IoT_LINK/drivers/third_party/ST/STM32L4xx_HAL_Driver/Src\stm32l4xx_hal_pwr_ex.c **** 
 627:C:/Users/²Ü¼ÒºÀ/.iotlink/sdk/IoT_LINK/drivers/third_party/ST/STM32L4xx_HAL_Driver/Src\stm32l4xx_hal_pwr_ex.c **** /**
 628:C:/Users/²Ü¼ÒºÀ/.iotlink/sdk/IoT_LINK/drivers/third_party/ST/STM32L4xx_HAL_Driver/Src\stm32l4xx_hal_pwr_ex.c ****   * @brief Disable GPIO pull-down state in Standby and Shutdown modes.
 629:C:/Users/²Ü¼ÒºÀ/.iotlink/sdk/IoT_LINK/drivers/third_party/ST/STM32L4xx_HAL_Driver/Src\stm32l4xx_hal_pwr_ex.c ****   * @note  Reset the relevant PDy bits of PWR_PDCRx register used to configure the I/O
 630:C:/Users/²Ü¼ÒºÀ/.iotlink/sdk/IoT_LINK/drivers/third_party/ST/STM32L4xx_HAL_Driver/Src\stm32l4xx_hal_pwr_ex.c ****   *        in pull-down state in Standby and Shutdown modes. 
 631:C:/Users/²Ü¼ÒºÀ/.iotlink/sdk/IoT_LINK/drivers/third_party/ST/STM32L4xx_HAL_Driver/Src\stm32l4xx_hal_pwr_ex.c ****   * @note  Even if a PDy bit to reset is reserved, the other PDy bits entered as input 
 632:C:/Users/²Ü¼ÒºÀ/.iotlink/sdk/IoT_LINK/drivers/third_party/ST/STM32L4xx_HAL_Driver/Src\stm32l4xx_hal_pwr_ex.c ****   *        parameter at the same time are reset.   
 633:C:/Users/²Ü¼ÒºÀ/.iotlink/sdk/IoT_LINK/drivers/third_party/ST/STM32L4xx_HAL_Driver/Src\stm32l4xx_hal_pwr_ex.c ****   * @param  GPIO: Specifies the IO port. This parameter can be PWR_GPIO_A..PWR_GPIO_H 
 634:C:/Users/²Ü¼ÒºÀ/.iotlink/sdk/IoT_LINK/drivers/third_party/ST/STM32L4xx_HAL_Driver/Src\stm32l4xx_hal_pwr_ex.c ****   *         (or PWR_GPIO_I depending on the devices) to select the GPIO peripheral.
 635:C:/Users/²Ü¼ÒºÀ/.iotlink/sdk/IoT_LINK/drivers/third_party/ST/STM32L4xx_HAL_Driver/Src\stm32l4xx_hal_pwr_ex.c ****   * @param  GPIONumber: Specify the I/O pins numbers.
 636:C:/Users/²Ü¼ÒºÀ/.iotlink/sdk/IoT_LINK/drivers/third_party/ST/STM32L4xx_HAL_Driver/Src\stm32l4xx_hal_pwr_ex.c ****   *         This parameter can be one of the following values:
 637:C:/Users/²Ü¼ÒºÀ/.iotlink/sdk/IoT_LINK/drivers/third_party/ST/STM32L4xx_HAL_Driver/Src\stm32l4xx_hal_pwr_ex.c ****   *         PWR_GPIO_BIT_0, ..., PWR_GPIO_BIT_15 (except for the port where less  
 638:C:/Users/²Ü¼ÒºÀ/.iotlink/sdk/IoT_LINK/drivers/third_party/ST/STM32L4xx_HAL_Driver/Src\stm32l4xx_hal_pwr_ex.c ****   *         I/O pins are available) or the logical OR of several of them to reset 
 639:C:/Users/²Ü¼ÒºÀ/.iotlink/sdk/IoT_LINK/drivers/third_party/ST/STM32L4xx_HAL_Driver/Src\stm32l4xx_hal_pwr_ex.c ****   *         several bits for a given port in a single API call. 
 640:C:/Users/²Ü¼ÒºÀ/.iotlink/sdk/IoT_LINK/drivers/third_party/ST/STM32L4xx_HAL_Driver/Src\stm32l4xx_hal_pwr_ex.c ****   * @retval HAL Status
 641:C:/Users/²Ü¼ÒºÀ/.iotlink/sdk/IoT_LINK/drivers/third_party/ST/STM32L4xx_HAL_Driver/Src\stm32l4xx_hal_pwr_ex.c ****   */   
 642:C:/Users/²Ü¼ÒºÀ/.iotlink/sdk/IoT_LINK/drivers/third_party/ST/STM32L4xx_HAL_Driver/Src\stm32l4xx_hal_pwr_ex.c **** HAL_StatusTypeDef HAL_PWREx_DisableGPIOPullDown(uint32_t GPIO, uint32_t GPIONumber)
 643:C:/Users/²Ü¼ÒºÀ/.iotlink/sdk/IoT_LINK/drivers/third_party/ST/STM32L4xx_HAL_Driver/Src\stm32l4xx_hal_pwr_ex.c **** {
 702              		.loc 1 643 1 is_stmt 1 view -0
 703              		.cfi_startproc
 704              		@ args = 0, pretend = 0, frame = 0
 705              		@ frame_needed = 0, uses_anonymous_args = 0
 706              		@ link register save eliminated.
 644:C:/Users/²Ü¼ÒºÀ/.iotlink/sdk/IoT_LINK/drivers/third_party/ST/STM32L4xx_HAL_Driver/Src\stm32l4xx_hal_pwr_ex.c ****   assert_param(IS_PWR_GPIO(GPIO));
 707              		.loc 1 644 3 view .LVU146
 645:C:/Users/²Ü¼ÒºÀ/.iotlink/sdk/IoT_LINK/drivers/third_party/ST/STM32L4xx_HAL_Driver/Src\stm32l4xx_hal_pwr_ex.c ****   assert_param(IS_PWR_GPIO_BIT_NUMBER(GPIONumber));
 708              		.loc 1 645 3 view .LVU147
 646:C:/Users/²Ü¼ÒºÀ/.iotlink/sdk/IoT_LINK/drivers/third_party/ST/STM32L4xx_HAL_Driver/Src\stm32l4xx_hal_pwr_ex.c ****    
 647:C:/Users/²Ü¼ÒºÀ/.iotlink/sdk/IoT_LINK/drivers/third_party/ST/STM32L4xx_HAL_Driver/Src\stm32l4xx_hal_pwr_ex.c ****   switch (GPIO)
 709              		.loc 1 647 3 view .LVU148
 710 0000 0728     		cmp	r0, #7
 711 0002 30D8     		bhi	.L83
 712 0004 DFE800F0 		tbb	[pc, r0]
 713              	.L77:
 714 0008 04       		.byte	(.L82-.L77)/2
 715 0009 0D       		.byte	(.L81-.L77)/2
 716 000a 15       		.byte	(.L80-.L77)/2
 717 000b 1B       		.byte	(.L79-.L77)/2
 718 000c 21       		.byte	(.L78-.L77)/2
 719 000d 2F       		.byte	(.L83-.L77)/2
ARM GAS  C:\Users\²Ü¼ÒºÀ\AppData\Local\Temp\cczPott0.s 			page 26


 720 000e 2F       		.byte	(.L83-.L77)/2
 721 000f 27       		.byte	(.L76-.L77)/2
 722              		.p2align 1
 723              	.L82:
 648:C:/Users/²Ü¼ÒºÀ/.iotlink/sdk/IoT_LINK/drivers/third_party/ST/STM32L4xx_HAL_Driver/Src\stm32l4xx_hal_pwr_ex.c ****   {
 649:C:/Users/²Ü¼ÒºÀ/.iotlink/sdk/IoT_LINK/drivers/third_party/ST/STM32L4xx_HAL_Driver/Src\stm32l4xx_hal_pwr_ex.c ****     case PWR_GPIO_A:
 650:C:/Users/²Ü¼ÒºÀ/.iotlink/sdk/IoT_LINK/drivers/third_party/ST/STM32L4xx_HAL_Driver/Src\stm32l4xx_hal_pwr_ex.c ****        CLEAR_BIT(PWR->PDCRA, (GPIONumber & (~(PWR_GPIO_BIT_13|PWR_GPIO_BIT_15))));
 724              		.loc 1 650 8 view .LVU149
 725 0010 164A     		ldr	r2, .L85
 726 0012 536A     		ldr	r3, [r2, #36]
 727 0014 21F42041 		bic	r1, r1, #40960
 728              	.LVL58:
 729              		.loc 1 650 8 is_stmt 0 view .LVU150
 730 0018 23EA0101 		bic	r1, r3, r1
 731 001c 5162     		str	r1, [r2, #36]
 651:C:/Users/²Ü¼ÒºÀ/.iotlink/sdk/IoT_LINK/drivers/third_party/ST/STM32L4xx_HAL_Driver/Src\stm32l4xx_hal_pwr_ex.c ****        break;
 732              		.loc 1 651 8 is_stmt 1 view .LVU151
 733              	.L84:
 652:C:/Users/²Ü¼ÒºÀ/.iotlink/sdk/IoT_LINK/drivers/third_party/ST/STM32L4xx_HAL_Driver/Src\stm32l4xx_hal_pwr_ex.c ****     case PWR_GPIO_B:
 653:C:/Users/²Ü¼ÒºÀ/.iotlink/sdk/IoT_LINK/drivers/third_party/ST/STM32L4xx_HAL_Driver/Src\stm32l4xx_hal_pwr_ex.c ****        CLEAR_BIT(PWR->PDCRB, (GPIONumber & (~(PWR_GPIO_BIT_4))));
 654:C:/Users/²Ü¼ÒºÀ/.iotlink/sdk/IoT_LINK/drivers/third_party/ST/STM32L4xx_HAL_Driver/Src\stm32l4xx_hal_pwr_ex.c ****        break; 
 734              		.loc 1 654 8 view .LVU152
 655:C:/Users/²Ü¼ÒºÀ/.iotlink/sdk/IoT_LINK/drivers/third_party/ST/STM32L4xx_HAL_Driver/Src\stm32l4xx_hal_pwr_ex.c ****     case PWR_GPIO_C:
 656:C:/Users/²Ü¼ÒºÀ/.iotlink/sdk/IoT_LINK/drivers/third_party/ST/STM32L4xx_HAL_Driver/Src\stm32l4xx_hal_pwr_ex.c ****        CLEAR_BIT(PWR->PDCRC, GPIONumber);
 657:C:/Users/²Ü¼ÒºÀ/.iotlink/sdk/IoT_LINK/drivers/third_party/ST/STM32L4xx_HAL_Driver/Src\stm32l4xx_hal_pwr_ex.c ****        break;
 658:C:/Users/²Ü¼ÒºÀ/.iotlink/sdk/IoT_LINK/drivers/third_party/ST/STM32L4xx_HAL_Driver/Src\stm32l4xx_hal_pwr_ex.c **** #if defined(GPIOD)
 659:C:/Users/²Ü¼ÒºÀ/.iotlink/sdk/IoT_LINK/drivers/third_party/ST/STM32L4xx_HAL_Driver/Src\stm32l4xx_hal_pwr_ex.c ****     case PWR_GPIO_D:
 660:C:/Users/²Ü¼ÒºÀ/.iotlink/sdk/IoT_LINK/drivers/third_party/ST/STM32L4xx_HAL_Driver/Src\stm32l4xx_hal_pwr_ex.c ****        CLEAR_BIT(PWR->PDCRD, GPIONumber);
 661:C:/Users/²Ü¼ÒºÀ/.iotlink/sdk/IoT_LINK/drivers/third_party/ST/STM32L4xx_HAL_Driver/Src\stm32l4xx_hal_pwr_ex.c ****        break;
 662:C:/Users/²Ü¼ÒºÀ/.iotlink/sdk/IoT_LINK/drivers/third_party/ST/STM32L4xx_HAL_Driver/Src\stm32l4xx_hal_pwr_ex.c **** #endif
 663:C:/Users/²Ü¼ÒºÀ/.iotlink/sdk/IoT_LINK/drivers/third_party/ST/STM32L4xx_HAL_Driver/Src\stm32l4xx_hal_pwr_ex.c **** #if defined(GPIOE)
 664:C:/Users/²Ü¼ÒºÀ/.iotlink/sdk/IoT_LINK/drivers/third_party/ST/STM32L4xx_HAL_Driver/Src\stm32l4xx_hal_pwr_ex.c ****     case PWR_GPIO_E:
 665:C:/Users/²Ü¼ÒºÀ/.iotlink/sdk/IoT_LINK/drivers/third_party/ST/STM32L4xx_HAL_Driver/Src\stm32l4xx_hal_pwr_ex.c ****        CLEAR_BIT(PWR->PDCRE, GPIONumber);
 666:C:/Users/²Ü¼ÒºÀ/.iotlink/sdk/IoT_LINK/drivers/third_party/ST/STM32L4xx_HAL_Driver/Src\stm32l4xx_hal_pwr_ex.c ****        break;
 667:C:/Users/²Ü¼ÒºÀ/.iotlink/sdk/IoT_LINK/drivers/third_party/ST/STM32L4xx_HAL_Driver/Src\stm32l4xx_hal_pwr_ex.c **** #endif
 668:C:/Users/²Ü¼ÒºÀ/.iotlink/sdk/IoT_LINK/drivers/third_party/ST/STM32L4xx_HAL_Driver/Src\stm32l4xx_hal_pwr_ex.c **** #if defined(GPIOF) 
 669:C:/Users/²Ü¼ÒºÀ/.iotlink/sdk/IoT_LINK/drivers/third_party/ST/STM32L4xx_HAL_Driver/Src\stm32l4xx_hal_pwr_ex.c ****     case PWR_GPIO_F:
 670:C:/Users/²Ü¼ÒºÀ/.iotlink/sdk/IoT_LINK/drivers/third_party/ST/STM32L4xx_HAL_Driver/Src\stm32l4xx_hal_pwr_ex.c ****        CLEAR_BIT(PWR->PDCRF, GPIONumber);
 671:C:/Users/²Ü¼ÒºÀ/.iotlink/sdk/IoT_LINK/drivers/third_party/ST/STM32L4xx_HAL_Driver/Src\stm32l4xx_hal_pwr_ex.c ****        break;
 672:C:/Users/²Ü¼ÒºÀ/.iotlink/sdk/IoT_LINK/drivers/third_party/ST/STM32L4xx_HAL_Driver/Src\stm32l4xx_hal_pwr_ex.c **** #endif
 673:C:/Users/²Ü¼ÒºÀ/.iotlink/sdk/IoT_LINK/drivers/third_party/ST/STM32L4xx_HAL_Driver/Src\stm32l4xx_hal_pwr_ex.c **** #if defined(GPIOG)
 674:C:/Users/²Ü¼ÒºÀ/.iotlink/sdk/IoT_LINK/drivers/third_party/ST/STM32L4xx_HAL_Driver/Src\stm32l4xx_hal_pwr_ex.c ****     case PWR_GPIO_G:
 675:C:/Users/²Ü¼ÒºÀ/.iotlink/sdk/IoT_LINK/drivers/third_party/ST/STM32L4xx_HAL_Driver/Src\stm32l4xx_hal_pwr_ex.c ****        CLEAR_BIT(PWR->PDCRG, GPIONumber);
 676:C:/Users/²Ü¼ÒºÀ/.iotlink/sdk/IoT_LINK/drivers/third_party/ST/STM32L4xx_HAL_Driver/Src\stm32l4xx_hal_pwr_ex.c ****        break;
 677:C:/Users/²Ü¼ÒºÀ/.iotlink/sdk/IoT_LINK/drivers/third_party/ST/STM32L4xx_HAL_Driver/Src\stm32l4xx_hal_pwr_ex.c **** #endif
 678:C:/Users/²Ü¼ÒºÀ/.iotlink/sdk/IoT_LINK/drivers/third_party/ST/STM32L4xx_HAL_Driver/Src\stm32l4xx_hal_pwr_ex.c ****     case PWR_GPIO_H:
 679:C:/Users/²Ü¼ÒºÀ/.iotlink/sdk/IoT_LINK/drivers/third_party/ST/STM32L4xx_HAL_Driver/Src\stm32l4xx_hal_pwr_ex.c **** #if defined (STM32L496xx) || defined (STM32L4A6xx)
 680:C:/Users/²Ü¼ÒºÀ/.iotlink/sdk/IoT_LINK/drivers/third_party/ST/STM32L4xx_HAL_Driver/Src\stm32l4xx_hal_pwr_ex.c ****        CLEAR_BIT(PWR->PDCRH, ((GPIONumber & PWR_PORTH_AVAILABLE_PINS) & (~(PWR_GPIO_BIT_3))));
 681:C:/Users/²Ü¼ÒºÀ/.iotlink/sdk/IoT_LINK/drivers/third_party/ST/STM32L4xx_HAL_Driver/Src\stm32l4xx_hal_pwr_ex.c **** #else       
 682:C:/Users/²Ü¼ÒºÀ/.iotlink/sdk/IoT_LINK/drivers/third_party/ST/STM32L4xx_HAL_Driver/Src\stm32l4xx_hal_pwr_ex.c ****        CLEAR_BIT(PWR->PDCRH, (GPIONumber & PWR_PORTH_AVAILABLE_PINS));
 683:C:/Users/²Ü¼ÒºÀ/.iotlink/sdk/IoT_LINK/drivers/third_party/ST/STM32L4xx_HAL_Driver/Src\stm32l4xx_hal_pwr_ex.c **** #endif     
 684:C:/Users/²Ü¼ÒºÀ/.iotlink/sdk/IoT_LINK/drivers/third_party/ST/STM32L4xx_HAL_Driver/Src\stm32l4xx_hal_pwr_ex.c ****        break; 
 685:C:/Users/²Ü¼ÒºÀ/.iotlink/sdk/IoT_LINK/drivers/third_party/ST/STM32L4xx_HAL_Driver/Src\stm32l4xx_hal_pwr_ex.c **** #if defined(GPIOI)
 686:C:/Users/²Ü¼ÒºÀ/.iotlink/sdk/IoT_LINK/drivers/third_party/ST/STM32L4xx_HAL_Driver/Src\stm32l4xx_hal_pwr_ex.c ****     case PWR_GPIO_I:
 687:C:/Users/²Ü¼ÒºÀ/.iotlink/sdk/IoT_LINK/drivers/third_party/ST/STM32L4xx_HAL_Driver/Src\stm32l4xx_hal_pwr_ex.c ****        CLEAR_BIT(PWR->PDCRI, (GPIONumber & PWR_PORTI_AVAILABLE_PINS));
 688:C:/Users/²Ü¼ÒºÀ/.iotlink/sdk/IoT_LINK/drivers/third_party/ST/STM32L4xx_HAL_Driver/Src\stm32l4xx_hal_pwr_ex.c ****        break;
 689:C:/Users/²Ü¼ÒºÀ/.iotlink/sdk/IoT_LINK/drivers/third_party/ST/STM32L4xx_HAL_Driver/Src\stm32l4xx_hal_pwr_ex.c **** #endif
ARM GAS  C:\Users\²Ü¼ÒºÀ\AppData\Local\Temp\cczPott0.s 			page 27


 690:C:/Users/²Ü¼ÒºÀ/.iotlink/sdk/IoT_LINK/drivers/third_party/ST/STM32L4xx_HAL_Driver/Src\stm32l4xx_hal_pwr_ex.c ****     default:
 691:C:/Users/²Ü¼ÒºÀ/.iotlink/sdk/IoT_LINK/drivers/third_party/ST/STM32L4xx_HAL_Driver/Src\stm32l4xx_hal_pwr_ex.c ****        return HAL_ERROR;
 692:C:/Users/²Ü¼ÒºÀ/.iotlink/sdk/IoT_LINK/drivers/third_party/ST/STM32L4xx_HAL_Driver/Src\stm32l4xx_hal_pwr_ex.c ****   }
 693:C:/Users/²Ü¼ÒºÀ/.iotlink/sdk/IoT_LINK/drivers/third_party/ST/STM32L4xx_HAL_Driver/Src\stm32l4xx_hal_pwr_ex.c ****   
 694:C:/Users/²Ü¼ÒºÀ/.iotlink/sdk/IoT_LINK/drivers/third_party/ST/STM32L4xx_HAL_Driver/Src\stm32l4xx_hal_pwr_ex.c ****   return HAL_OK;
 735              		.loc 1 694 10 is_stmt 0 view .LVU153
 736 001e 0020     		movs	r0, #0
 737              	.LVL59:
 654:C:/Users/²Ü¼ÒºÀ/.iotlink/sdk/IoT_LINK/drivers/third_party/ST/STM32L4xx_HAL_Driver/Src\stm32l4xx_hal_pwr_ex.c ****     case PWR_GPIO_C:
 738              		.loc 1 654 8 view .LVU154
 739 0020 7047     		bx	lr
 740              	.LVL60:
 741              	.L81:
 653:C:/Users/²Ü¼ÒºÀ/.iotlink/sdk/IoT_LINK/drivers/third_party/ST/STM32L4xx_HAL_Driver/Src\stm32l4xx_hal_pwr_ex.c ****        break; 
 742              		.loc 1 653 8 is_stmt 1 view .LVU155
 743 0022 124A     		ldr	r2, .L85
 744 0024 D36A     		ldr	r3, [r2, #44]
 745 0026 21F01001 		bic	r1, r1, #16
 746              	.LVL61:
 653:C:/Users/²Ü¼ÒºÀ/.iotlink/sdk/IoT_LINK/drivers/third_party/ST/STM32L4xx_HAL_Driver/Src\stm32l4xx_hal_pwr_ex.c ****        break; 
 747              		.loc 1 653 8 is_stmt 0 view .LVU156
 748 002a 23EA0101 		bic	r1, r3, r1
 749 002e D162     		str	r1, [r2, #44]
 750 0030 F5E7     		b	.L84
 751              	.LVL62:
 752              	.L80:
 656:C:/Users/²Ü¼ÒºÀ/.iotlink/sdk/IoT_LINK/drivers/third_party/ST/STM32L4xx_HAL_Driver/Src\stm32l4xx_hal_pwr_ex.c ****        break;
 753              		.loc 1 656 8 is_stmt 1 view .LVU157
 754 0032 0E4A     		ldr	r2, .L85
 755 0034 536B     		ldr	r3, [r2, #52]
 756 0036 23EA0101 		bic	r1, r3, r1
 757              	.LVL63:
 656:C:/Users/²Ü¼ÒºÀ/.iotlink/sdk/IoT_LINK/drivers/third_party/ST/STM32L4xx_HAL_Driver/Src\stm32l4xx_hal_pwr_ex.c ****        break;
 758              		.loc 1 656 8 is_stmt 0 view .LVU158
 759 003a 5163     		str	r1, [r2, #52]
 657:C:/Users/²Ü¼ÒºÀ/.iotlink/sdk/IoT_LINK/drivers/third_party/ST/STM32L4xx_HAL_Driver/Src\stm32l4xx_hal_pwr_ex.c **** #if defined(GPIOD)
 760              		.loc 1 657 8 is_stmt 1 view .LVU159
 761 003c EFE7     		b	.L84
 762              	.LVL64:
 763              	.L79:
 660:C:/Users/²Ü¼ÒºÀ/.iotlink/sdk/IoT_LINK/drivers/third_party/ST/STM32L4xx_HAL_Driver/Src\stm32l4xx_hal_pwr_ex.c ****        break;
 764              		.loc 1 660 8 view .LVU160
 765 003e 0B4A     		ldr	r2, .L85
 766 0040 D36B     		ldr	r3, [r2, #60]
 767 0042 23EA0101 		bic	r1, r3, r1
 768              	.LVL65:
 660:C:/Users/²Ü¼ÒºÀ/.iotlink/sdk/IoT_LINK/drivers/third_party/ST/STM32L4xx_HAL_Driver/Src\stm32l4xx_hal_pwr_ex.c ****        break;
 769              		.loc 1 660 8 is_stmt 0 view .LVU161
 770 0046 D163     		str	r1, [r2, #60]
 661:C:/Users/²Ü¼ÒºÀ/.iotlink/sdk/IoT_LINK/drivers/third_party/ST/STM32L4xx_HAL_Driver/Src\stm32l4xx_hal_pwr_ex.c **** #endif
 771              		.loc 1 661 8 is_stmt 1 view .LVU162
 772 0048 E9E7     		b	.L84
 773              	.LVL66:
 774              	.L78:
 665:C:/Users/²Ü¼ÒºÀ/.iotlink/sdk/IoT_LINK/drivers/third_party/ST/STM32L4xx_HAL_Driver/Src\stm32l4xx_hal_pwr_ex.c ****        break;
 775              		.loc 1 665 8 view .LVU163
 776 004a 084A     		ldr	r2, .L85
ARM GAS  C:\Users\²Ü¼ÒºÀ\AppData\Local\Temp\cczPott0.s 			page 28


 777 004c 536C     		ldr	r3, [r2, #68]
 778 004e 23EA0101 		bic	r1, r3, r1
 779              	.LVL67:
 665:C:/Users/²Ü¼ÒºÀ/.iotlink/sdk/IoT_LINK/drivers/third_party/ST/STM32L4xx_HAL_Driver/Src\stm32l4xx_hal_pwr_ex.c ****        break;
 780              		.loc 1 665 8 is_stmt 0 view .LVU164
 781 0052 5164     		str	r1, [r2, #68]
 666:C:/Users/²Ü¼ÒºÀ/.iotlink/sdk/IoT_LINK/drivers/third_party/ST/STM32L4xx_HAL_Driver/Src\stm32l4xx_hal_pwr_ex.c **** #endif
 782              		.loc 1 666 8 is_stmt 1 view .LVU165
 783 0054 E3E7     		b	.L84
 784              	.LVL68:
 785              	.L76:
 682:C:/Users/²Ü¼ÒºÀ/.iotlink/sdk/IoT_LINK/drivers/third_party/ST/STM32L4xx_HAL_Driver/Src\stm32l4xx_hal_pwr_ex.c **** #endif     
 786              		.loc 1 682 8 view .LVU166
 787 0056 054A     		ldr	r2, .L85
 788 0058 D36D     		ldr	r3, [r2, #92]
 789 005a 01F00B01 		and	r1, r1, #11
 790              	.LVL69:
 682:C:/Users/²Ü¼ÒºÀ/.iotlink/sdk/IoT_LINK/drivers/third_party/ST/STM32L4xx_HAL_Driver/Src\stm32l4xx_hal_pwr_ex.c **** #endif     
 791              		.loc 1 682 8 is_stmt 0 view .LVU167
 792 005e 23EA0101 		bic	r1, r3, r1
 793 0062 D165     		str	r1, [r2, #92]
 684:C:/Users/²Ü¼ÒºÀ/.iotlink/sdk/IoT_LINK/drivers/third_party/ST/STM32L4xx_HAL_Driver/Src\stm32l4xx_hal_pwr_ex.c **** #if defined(GPIOI)
 794              		.loc 1 684 8 is_stmt 1 view .LVU168
 795 0064 DBE7     		b	.L84
 796              	.LVL70:
 797              	.L83:
 798              		.loc 1 694 10 is_stmt 0 view .LVU169
 799 0066 0120     		movs	r0, #1
 800              	.LVL71:
 695:C:/Users/²Ü¼ÒºÀ/.iotlink/sdk/IoT_LINK/drivers/third_party/ST/STM32L4xx_HAL_Driver/Src\stm32l4xx_hal_pwr_ex.c **** }
 801              		.loc 1 695 1 view .LVU170
 802 0068 7047     		bx	lr
 803              	.L86:
 804 006a 00BF     		.align	2
 805              	.L85:
 806 006c 00700040 		.word	1073770496
 807              		.cfi_endproc
 808              	.LFE296:
 810              		.section	.text.HAL_PWREx_EnablePullUpPullDownConfig,"ax",%progbits
 811              		.align	1
 812              		.global	HAL_PWREx_EnablePullUpPullDownConfig
 813              		.syntax unified
 814              		.thumb
 815              		.thumb_func
 816              		.fpu fpv4-sp-d16
 818              	HAL_PWREx_EnablePullUpPullDownConfig:
 819              	.LFB297:
 696:C:/Users/²Ü¼ÒºÀ/.iotlink/sdk/IoT_LINK/drivers/third_party/ST/STM32L4xx_HAL_Driver/Src\stm32l4xx_hal_pwr_ex.c **** 
 697:C:/Users/²Ü¼ÒºÀ/.iotlink/sdk/IoT_LINK/drivers/third_party/ST/STM32L4xx_HAL_Driver/Src\stm32l4xx_hal_pwr_ex.c **** 
 698:C:/Users/²Ü¼ÒºÀ/.iotlink/sdk/IoT_LINK/drivers/third_party/ST/STM32L4xx_HAL_Driver/Src\stm32l4xx_hal_pwr_ex.c **** 
 699:C:/Users/²Ü¼ÒºÀ/.iotlink/sdk/IoT_LINK/drivers/third_party/ST/STM32L4xx_HAL_Driver/Src\stm32l4xx_hal_pwr_ex.c **** /**
 700:C:/Users/²Ü¼ÒºÀ/.iotlink/sdk/IoT_LINK/drivers/third_party/ST/STM32L4xx_HAL_Driver/Src\stm32l4xx_hal_pwr_ex.c ****   * @brief Enable pull-up and pull-down configuration.
 701:C:/Users/²Ü¼ÒºÀ/.iotlink/sdk/IoT_LINK/drivers/third_party/ST/STM32L4xx_HAL_Driver/Src\stm32l4xx_hal_pwr_ex.c ****   * @note  When APC bit is set, the I/O pull-up and pull-down configurations defined in 
 702:C:/Users/²Ü¼ÒºÀ/.iotlink/sdk/IoT_LINK/drivers/third_party/ST/STM32L4xx_HAL_Driver/Src\stm32l4xx_hal_pwr_ex.c ****   *        PWR_PUCRx and PWR_PDCRx registers are applied in Standby and Shutdown modes.    
 703:C:/Users/²Ü¼ÒºÀ/.iotlink/sdk/IoT_LINK/drivers/third_party/ST/STM32L4xx_HAL_Driver/Src\stm32l4xx_hal_pwr_ex.c ****   * @note  Pull-up set by PUy bit of PWR_PUCRx register is not activated if the corresponding
 704:C:/Users/²Ü¼ÒºÀ/.iotlink/sdk/IoT_LINK/drivers/third_party/ST/STM32L4xx_HAL_Driver/Src\stm32l4xx_hal_pwr_ex.c ****   *        PDy bit of PWR_PDCRx register is also set (pull-down configuration priority is higher). 
 705:C:/Users/²Ü¼ÒºÀ/.iotlink/sdk/IoT_LINK/drivers/third_party/ST/STM32L4xx_HAL_Driver/Src\stm32l4xx_hal_pwr_ex.c ****   *        HAL_PWREx_EnableGPIOPullUp() and HAL_PWREx_EnableGPIOPullDown() API's ensure there 
ARM GAS  C:\Users\²Ü¼ÒºÀ\AppData\Local\Temp\cczPott0.s 			page 29


 706:C:/Users/²Ü¼ÒºÀ/.iotlink/sdk/IoT_LINK/drivers/third_party/ST/STM32L4xx_HAL_Driver/Src\stm32l4xx_hal_pwr_ex.c ****   *        is no conflict when setting PUy or PDy bit.         
 707:C:/Users/²Ü¼ÒºÀ/.iotlink/sdk/IoT_LINK/drivers/third_party/ST/STM32L4xx_HAL_Driver/Src\stm32l4xx_hal_pwr_ex.c ****   * @retval None
 708:C:/Users/²Ü¼ÒºÀ/.iotlink/sdk/IoT_LINK/drivers/third_party/ST/STM32L4xx_HAL_Driver/Src\stm32l4xx_hal_pwr_ex.c ****   */
 709:C:/Users/²Ü¼ÒºÀ/.iotlink/sdk/IoT_LINK/drivers/third_party/ST/STM32L4xx_HAL_Driver/Src\stm32l4xx_hal_pwr_ex.c **** void HAL_PWREx_EnablePullUpPullDownConfig(void)
 710:C:/Users/²Ü¼ÒºÀ/.iotlink/sdk/IoT_LINK/drivers/third_party/ST/STM32L4xx_HAL_Driver/Src\stm32l4xx_hal_pwr_ex.c **** {
 820              		.loc 1 710 1 is_stmt 1 view -0
 821              		.cfi_startproc
 822              		@ args = 0, pretend = 0, frame = 0
 823              		@ frame_needed = 0, uses_anonymous_args = 0
 824              		@ link register save eliminated.
 711:C:/Users/²Ü¼ÒºÀ/.iotlink/sdk/IoT_LINK/drivers/third_party/ST/STM32L4xx_HAL_Driver/Src\stm32l4xx_hal_pwr_ex.c ****   SET_BIT(PWR->CR3, PWR_CR3_APC);
 825              		.loc 1 711 3 view .LVU172
 826 0000 024A     		ldr	r2, .L88
 827 0002 9368     		ldr	r3, [r2, #8]
 828 0004 43F48063 		orr	r3, r3, #1024
 829 0008 9360     		str	r3, [r2, #8]
 712:C:/Users/²Ü¼ÒºÀ/.iotlink/sdk/IoT_LINK/drivers/third_party/ST/STM32L4xx_HAL_Driver/Src\stm32l4xx_hal_pwr_ex.c **** }
 830              		.loc 1 712 1 is_stmt 0 view .LVU173
 831 000a 7047     		bx	lr
 832              	.L89:
 833              		.align	2
 834              	.L88:
 835 000c 00700040 		.word	1073770496
 836              		.cfi_endproc
 837              	.LFE297:
 839              		.section	.text.HAL_PWREx_DisablePullUpPullDownConfig,"ax",%progbits
 840              		.align	1
 841              		.global	HAL_PWREx_DisablePullUpPullDownConfig
 842              		.syntax unified
 843              		.thumb
 844              		.thumb_func
 845              		.fpu fpv4-sp-d16
 847              	HAL_PWREx_DisablePullUpPullDownConfig:
 848              	.LFB298:
 713:C:/Users/²Ü¼ÒºÀ/.iotlink/sdk/IoT_LINK/drivers/third_party/ST/STM32L4xx_HAL_Driver/Src\stm32l4xx_hal_pwr_ex.c **** 
 714:C:/Users/²Ü¼ÒºÀ/.iotlink/sdk/IoT_LINK/drivers/third_party/ST/STM32L4xx_HAL_Driver/Src\stm32l4xx_hal_pwr_ex.c **** 
 715:C:/Users/²Ü¼ÒºÀ/.iotlink/sdk/IoT_LINK/drivers/third_party/ST/STM32L4xx_HAL_Driver/Src\stm32l4xx_hal_pwr_ex.c **** /**
 716:C:/Users/²Ü¼ÒºÀ/.iotlink/sdk/IoT_LINK/drivers/third_party/ST/STM32L4xx_HAL_Driver/Src\stm32l4xx_hal_pwr_ex.c ****   * @brief Disable pull-up and pull-down configuration.
 717:C:/Users/²Ü¼ÒºÀ/.iotlink/sdk/IoT_LINK/drivers/third_party/ST/STM32L4xx_HAL_Driver/Src\stm32l4xx_hal_pwr_ex.c ****   * @note  When APC bit is cleared, the I/O pull-up and pull-down configurations defined in 
 718:C:/Users/²Ü¼ÒºÀ/.iotlink/sdk/IoT_LINK/drivers/third_party/ST/STM32L4xx_HAL_Driver/Src\stm32l4xx_hal_pwr_ex.c ****   *        PWR_PUCRx and PWR_PDCRx registers are not applied in Standby and Shutdown modes.     
 719:C:/Users/²Ü¼ÒºÀ/.iotlink/sdk/IoT_LINK/drivers/third_party/ST/STM32L4xx_HAL_Driver/Src\stm32l4xx_hal_pwr_ex.c ****   * @retval None
 720:C:/Users/²Ü¼ÒºÀ/.iotlink/sdk/IoT_LINK/drivers/third_party/ST/STM32L4xx_HAL_Driver/Src\stm32l4xx_hal_pwr_ex.c ****   */
 721:C:/Users/²Ü¼ÒºÀ/.iotlink/sdk/IoT_LINK/drivers/third_party/ST/STM32L4xx_HAL_Driver/Src\stm32l4xx_hal_pwr_ex.c **** void HAL_PWREx_DisablePullUpPullDownConfig(void)
 722:C:/Users/²Ü¼ÒºÀ/.iotlink/sdk/IoT_LINK/drivers/third_party/ST/STM32L4xx_HAL_Driver/Src\stm32l4xx_hal_pwr_ex.c **** {
 849              		.loc 1 722 1 is_stmt 1 view -0
 850              		.cfi_startproc
 851              		@ args = 0, pretend = 0, frame = 0
 852              		@ frame_needed = 0, uses_anonymous_args = 0
 853              		@ link register save eliminated.
 723:C:/Users/²Ü¼ÒºÀ/.iotlink/sdk/IoT_LINK/drivers/third_party/ST/STM32L4xx_HAL_Driver/Src\stm32l4xx_hal_pwr_ex.c ****   CLEAR_BIT(PWR->CR3, PWR_CR3_APC);
 854              		.loc 1 723 3 view .LVU175
 855 0000 024A     		ldr	r2, .L91
 856 0002 9368     		ldr	r3, [r2, #8]
 857 0004 23F48063 		bic	r3, r3, #1024
 858 0008 9360     		str	r3, [r2, #8]
 724:C:/Users/²Ü¼ÒºÀ/.iotlink/sdk/IoT_LINK/drivers/third_party/ST/STM32L4xx_HAL_Driver/Src\stm32l4xx_hal_pwr_ex.c **** }
 859              		.loc 1 724 1 is_stmt 0 view .LVU176
ARM GAS  C:\Users\²Ü¼ÒºÀ\AppData\Local\Temp\cczPott0.s 			page 30


 860 000a 7047     		bx	lr
 861              	.L92:
 862              		.align	2
 863              	.L91:
 864 000c 00700040 		.word	1073770496
 865              		.cfi_endproc
 866              	.LFE298:
 868              		.section	.text.HAL_PWREx_EnableSRAM2ContentRetention,"ax",%progbits
 869              		.align	1
 870              		.global	HAL_PWREx_EnableSRAM2ContentRetention
 871              		.syntax unified
 872              		.thumb
 873              		.thumb_func
 874              		.fpu fpv4-sp-d16
 876              	HAL_PWREx_EnableSRAM2ContentRetention:
 877              	.LFB299:
 725:C:/Users/²Ü¼ÒºÀ/.iotlink/sdk/IoT_LINK/drivers/third_party/ST/STM32L4xx_HAL_Driver/Src\stm32l4xx_hal_pwr_ex.c **** 
 726:C:/Users/²Ü¼ÒºÀ/.iotlink/sdk/IoT_LINK/drivers/third_party/ST/STM32L4xx_HAL_Driver/Src\stm32l4xx_hal_pwr_ex.c **** 
 727:C:/Users/²Ü¼ÒºÀ/.iotlink/sdk/IoT_LINK/drivers/third_party/ST/STM32L4xx_HAL_Driver/Src\stm32l4xx_hal_pwr_ex.c **** 
 728:C:/Users/²Ü¼ÒºÀ/.iotlink/sdk/IoT_LINK/drivers/third_party/ST/STM32L4xx_HAL_Driver/Src\stm32l4xx_hal_pwr_ex.c **** /**
 729:C:/Users/²Ü¼ÒºÀ/.iotlink/sdk/IoT_LINK/drivers/third_party/ST/STM32L4xx_HAL_Driver/Src\stm32l4xx_hal_pwr_ex.c ****   * @brief Enable SRAM2 content retention in Standby mode.
 730:C:/Users/²Ü¼ÒºÀ/.iotlink/sdk/IoT_LINK/drivers/third_party/ST/STM32L4xx_HAL_Driver/Src\stm32l4xx_hal_pwr_ex.c ****   * @note  When RRS bit is set, SRAM2 is powered by the low-power regulator in 
 731:C:/Users/²Ü¼ÒºÀ/.iotlink/sdk/IoT_LINK/drivers/third_party/ST/STM32L4xx_HAL_Driver/Src\stm32l4xx_hal_pwr_ex.c ****   *         Standby mode and its content is kept.    
 732:C:/Users/²Ü¼ÒºÀ/.iotlink/sdk/IoT_LINK/drivers/third_party/ST/STM32L4xx_HAL_Driver/Src\stm32l4xx_hal_pwr_ex.c ****   * @retval None
 733:C:/Users/²Ü¼ÒºÀ/.iotlink/sdk/IoT_LINK/drivers/third_party/ST/STM32L4xx_HAL_Driver/Src\stm32l4xx_hal_pwr_ex.c ****   */
 734:C:/Users/²Ü¼ÒºÀ/.iotlink/sdk/IoT_LINK/drivers/third_party/ST/STM32L4xx_HAL_Driver/Src\stm32l4xx_hal_pwr_ex.c **** void HAL_PWREx_EnableSRAM2ContentRetention(void)
 735:C:/Users/²Ü¼ÒºÀ/.iotlink/sdk/IoT_LINK/drivers/third_party/ST/STM32L4xx_HAL_Driver/Src\stm32l4xx_hal_pwr_ex.c **** {
 878              		.loc 1 735 1 is_stmt 1 view -0
 879              		.cfi_startproc
 880              		@ args = 0, pretend = 0, frame = 0
 881              		@ frame_needed = 0, uses_anonymous_args = 0
 882              		@ link register save eliminated.
 736:C:/Users/²Ü¼ÒºÀ/.iotlink/sdk/IoT_LINK/drivers/third_party/ST/STM32L4xx_HAL_Driver/Src\stm32l4xx_hal_pwr_ex.c ****   SET_BIT(PWR->CR3, PWR_CR3_RRS);
 883              		.loc 1 736 3 view .LVU178
 884 0000 024A     		ldr	r2, .L94
 885 0002 9368     		ldr	r3, [r2, #8]
 886 0004 43F48073 		orr	r3, r3, #256
 887 0008 9360     		str	r3, [r2, #8]
 737:C:/Users/²Ü¼ÒºÀ/.iotlink/sdk/IoT_LINK/drivers/third_party/ST/STM32L4xx_HAL_Driver/Src\stm32l4xx_hal_pwr_ex.c **** }
 888              		.loc 1 737 1 is_stmt 0 view .LVU179
 889 000a 7047     		bx	lr
 890              	.L95:
 891              		.align	2
 892              	.L94:
 893 000c 00700040 		.word	1073770496
 894              		.cfi_endproc
 895              	.LFE299:
 897              		.section	.text.HAL_PWREx_DisableSRAM2ContentRetention,"ax",%progbits
 898              		.align	1
 899              		.global	HAL_PWREx_DisableSRAM2ContentRetention
 900              		.syntax unified
 901              		.thumb
 902              		.thumb_func
 903              		.fpu fpv4-sp-d16
 905              	HAL_PWREx_DisableSRAM2ContentRetention:
 906              	.LFB300:
 738:C:/Users/²Ü¼ÒºÀ/.iotlink/sdk/IoT_LINK/drivers/third_party/ST/STM32L4xx_HAL_Driver/Src\stm32l4xx_hal_pwr_ex.c **** 
ARM GAS  C:\Users\²Ü¼ÒºÀ\AppData\Local\Temp\cczPott0.s 			page 31


 739:C:/Users/²Ü¼ÒºÀ/.iotlink/sdk/IoT_LINK/drivers/third_party/ST/STM32L4xx_HAL_Driver/Src\stm32l4xx_hal_pwr_ex.c **** 
 740:C:/Users/²Ü¼ÒºÀ/.iotlink/sdk/IoT_LINK/drivers/third_party/ST/STM32L4xx_HAL_Driver/Src\stm32l4xx_hal_pwr_ex.c **** /**
 741:C:/Users/²Ü¼ÒºÀ/.iotlink/sdk/IoT_LINK/drivers/third_party/ST/STM32L4xx_HAL_Driver/Src\stm32l4xx_hal_pwr_ex.c ****   * @brief Disable SRAM2 content retention in Standby mode.
 742:C:/Users/²Ü¼ÒºÀ/.iotlink/sdk/IoT_LINK/drivers/third_party/ST/STM32L4xx_HAL_Driver/Src\stm32l4xx_hal_pwr_ex.c ****   * @note  When RRS bit is reset, SRAM2 is powered off in Standby mode 
 743:C:/Users/²Ü¼ÒºÀ/.iotlink/sdk/IoT_LINK/drivers/third_party/ST/STM32L4xx_HAL_Driver/Src\stm32l4xx_hal_pwr_ex.c ****   *        and its content is lost.      
 744:C:/Users/²Ü¼ÒºÀ/.iotlink/sdk/IoT_LINK/drivers/third_party/ST/STM32L4xx_HAL_Driver/Src\stm32l4xx_hal_pwr_ex.c ****   * @retval None
 745:C:/Users/²Ü¼ÒºÀ/.iotlink/sdk/IoT_LINK/drivers/third_party/ST/STM32L4xx_HAL_Driver/Src\stm32l4xx_hal_pwr_ex.c ****   */
 746:C:/Users/²Ü¼ÒºÀ/.iotlink/sdk/IoT_LINK/drivers/third_party/ST/STM32L4xx_HAL_Driver/Src\stm32l4xx_hal_pwr_ex.c **** void HAL_PWREx_DisableSRAM2ContentRetention(void)
 747:C:/Users/²Ü¼ÒºÀ/.iotlink/sdk/IoT_LINK/drivers/third_party/ST/STM32L4xx_HAL_Driver/Src\stm32l4xx_hal_pwr_ex.c **** {
 907              		.loc 1 747 1 is_stmt 1 view -0
 908              		.cfi_startproc
 909              		@ args = 0, pretend = 0, frame = 0
 910              		@ frame_needed = 0, uses_anonymous_args = 0
 911              		@ link register save eliminated.
 748:C:/Users/²Ü¼ÒºÀ/.iotlink/sdk/IoT_LINK/drivers/third_party/ST/STM32L4xx_HAL_Driver/Src\stm32l4xx_hal_pwr_ex.c ****   CLEAR_BIT(PWR->CR3, PWR_CR3_RRS);
 912              		.loc 1 748 3 view .LVU181
 913 0000 024A     		ldr	r2, .L97
 914 0002 9368     		ldr	r3, [r2, #8]
 915 0004 23F48073 		bic	r3, r3, #256
 916 0008 9360     		str	r3, [r2, #8]
 749:C:/Users/²Ü¼ÒºÀ/.iotlink/sdk/IoT_LINK/drivers/third_party/ST/STM32L4xx_HAL_Driver/Src\stm32l4xx_hal_pwr_ex.c **** }
 917              		.loc 1 749 1 is_stmt 0 view .LVU182
 918 000a 7047     		bx	lr
 919              	.L98:
 920              		.align	2
 921              	.L97:
 922 000c 00700040 		.word	1073770496
 923              		.cfi_endproc
 924              	.LFE300:
 926              		.section	.text.HAL_PWREx_EnablePVM3,"ax",%progbits
 927              		.align	1
 928              		.global	HAL_PWREx_EnablePVM3
 929              		.syntax unified
 930              		.thumb
 931              		.thumb_func
 932              		.fpu fpv4-sp-d16
 934              	HAL_PWREx_EnablePVM3:
 935              	.LFB301:
 750:C:/Users/²Ü¼ÒºÀ/.iotlink/sdk/IoT_LINK/drivers/third_party/ST/STM32L4xx_HAL_Driver/Src\stm32l4xx_hal_pwr_ex.c **** 
 751:C:/Users/²Ü¼ÒºÀ/.iotlink/sdk/IoT_LINK/drivers/third_party/ST/STM32L4xx_HAL_Driver/Src\stm32l4xx_hal_pwr_ex.c **** 
 752:C:/Users/²Ü¼ÒºÀ/.iotlink/sdk/IoT_LINK/drivers/third_party/ST/STM32L4xx_HAL_Driver/Src\stm32l4xx_hal_pwr_ex.c **** #if defined(PWR_CR1_RRSTP)
 753:C:/Users/²Ü¼ÒºÀ/.iotlink/sdk/IoT_LINK/drivers/third_party/ST/STM32L4xx_HAL_Driver/Src\stm32l4xx_hal_pwr_ex.c **** /**
 754:C:/Users/²Ü¼ÒºÀ/.iotlink/sdk/IoT_LINK/drivers/third_party/ST/STM32L4xx_HAL_Driver/Src\stm32l4xx_hal_pwr_ex.c ****   * @brief Enable SRAM3 content retention in Stop 2 mode.
 755:C:/Users/²Ü¼ÒºÀ/.iotlink/sdk/IoT_LINK/drivers/third_party/ST/STM32L4xx_HAL_Driver/Src\stm32l4xx_hal_pwr_ex.c ****   * @note  When RRSTP bit is set, SRAM3 is powered by the low-power regulator in 
 756:C:/Users/²Ü¼ÒºÀ/.iotlink/sdk/IoT_LINK/drivers/third_party/ST/STM32L4xx_HAL_Driver/Src\stm32l4xx_hal_pwr_ex.c ****   *        Stop 2 mode and its content is kept.    
 757:C:/Users/²Ü¼ÒºÀ/.iotlink/sdk/IoT_LINK/drivers/third_party/ST/STM32L4xx_HAL_Driver/Src\stm32l4xx_hal_pwr_ex.c ****   * @retval None
 758:C:/Users/²Ü¼ÒºÀ/.iotlink/sdk/IoT_LINK/drivers/third_party/ST/STM32L4xx_HAL_Driver/Src\stm32l4xx_hal_pwr_ex.c ****   */
 759:C:/Users/²Ü¼ÒºÀ/.iotlink/sdk/IoT_LINK/drivers/third_party/ST/STM32L4xx_HAL_Driver/Src\stm32l4xx_hal_pwr_ex.c **** void HAL_PWREx_EnableSRAM3ContentRetention(void)
 760:C:/Users/²Ü¼ÒºÀ/.iotlink/sdk/IoT_LINK/drivers/third_party/ST/STM32L4xx_HAL_Driver/Src\stm32l4xx_hal_pwr_ex.c **** {
 761:C:/Users/²Ü¼ÒºÀ/.iotlink/sdk/IoT_LINK/drivers/third_party/ST/STM32L4xx_HAL_Driver/Src\stm32l4xx_hal_pwr_ex.c ****   SET_BIT(PWR->CR1, PWR_CR1_RRSTP);
 762:C:/Users/²Ü¼ÒºÀ/.iotlink/sdk/IoT_LINK/drivers/third_party/ST/STM32L4xx_HAL_Driver/Src\stm32l4xx_hal_pwr_ex.c **** }
 763:C:/Users/²Ü¼ÒºÀ/.iotlink/sdk/IoT_LINK/drivers/third_party/ST/STM32L4xx_HAL_Driver/Src\stm32l4xx_hal_pwr_ex.c **** 
 764:C:/Users/²Ü¼ÒºÀ/.iotlink/sdk/IoT_LINK/drivers/third_party/ST/STM32L4xx_HAL_Driver/Src\stm32l4xx_hal_pwr_ex.c **** 
 765:C:/Users/²Ü¼ÒºÀ/.iotlink/sdk/IoT_LINK/drivers/third_party/ST/STM32L4xx_HAL_Driver/Src\stm32l4xx_hal_pwr_ex.c **** /**
 766:C:/Users/²Ü¼ÒºÀ/.iotlink/sdk/IoT_LINK/drivers/third_party/ST/STM32L4xx_HAL_Driver/Src\stm32l4xx_hal_pwr_ex.c ****   * @brief Disable SRAM3 content retention in Stop 2 mode.
 767:C:/Users/²Ü¼ÒºÀ/.iotlink/sdk/IoT_LINK/drivers/third_party/ST/STM32L4xx_HAL_Driver/Src\stm32l4xx_hal_pwr_ex.c ****   * @note  When RRSTP bit is reset, SRAM3 is powered off in Stop 2 mode 
 768:C:/Users/²Ü¼ÒºÀ/.iotlink/sdk/IoT_LINK/drivers/third_party/ST/STM32L4xx_HAL_Driver/Src\stm32l4xx_hal_pwr_ex.c ****   *        and its content is lost.      
ARM GAS  C:\Users\²Ü¼ÒºÀ\AppData\Local\Temp\cczPott0.s 			page 32


 769:C:/Users/²Ü¼ÒºÀ/.iotlink/sdk/IoT_LINK/drivers/third_party/ST/STM32L4xx_HAL_Driver/Src\stm32l4xx_hal_pwr_ex.c ****   * @retval None
 770:C:/Users/²Ü¼ÒºÀ/.iotlink/sdk/IoT_LINK/drivers/third_party/ST/STM32L4xx_HAL_Driver/Src\stm32l4xx_hal_pwr_ex.c ****   */
 771:C:/Users/²Ü¼ÒºÀ/.iotlink/sdk/IoT_LINK/drivers/third_party/ST/STM32L4xx_HAL_Driver/Src\stm32l4xx_hal_pwr_ex.c **** void HAL_PWREx_DisableSRAM3ContentRetention(void)
 772:C:/Users/²Ü¼ÒºÀ/.iotlink/sdk/IoT_LINK/drivers/third_party/ST/STM32L4xx_HAL_Driver/Src\stm32l4xx_hal_pwr_ex.c **** {
 773:C:/Users/²Ü¼ÒºÀ/.iotlink/sdk/IoT_LINK/drivers/third_party/ST/STM32L4xx_HAL_Driver/Src\stm32l4xx_hal_pwr_ex.c ****   CLEAR_BIT(PWR->CR1, PWR_CR1_RRSTP);
 774:C:/Users/²Ü¼ÒºÀ/.iotlink/sdk/IoT_LINK/drivers/third_party/ST/STM32L4xx_HAL_Driver/Src\stm32l4xx_hal_pwr_ex.c **** }
 775:C:/Users/²Ü¼ÒºÀ/.iotlink/sdk/IoT_LINK/drivers/third_party/ST/STM32L4xx_HAL_Driver/Src\stm32l4xx_hal_pwr_ex.c **** #endif /* PWR_CR1_RRSTP */
 776:C:/Users/²Ü¼ÒºÀ/.iotlink/sdk/IoT_LINK/drivers/third_party/ST/STM32L4xx_HAL_Driver/Src\stm32l4xx_hal_pwr_ex.c **** 
 777:C:/Users/²Ü¼ÒºÀ/.iotlink/sdk/IoT_LINK/drivers/third_party/ST/STM32L4xx_HAL_Driver/Src\stm32l4xx_hal_pwr_ex.c **** #if defined(PWR_CR3_DSIPDEN)
 778:C:/Users/²Ü¼ÒºÀ/.iotlink/sdk/IoT_LINK/drivers/third_party/ST/STM32L4xx_HAL_Driver/Src\stm32l4xx_hal_pwr_ex.c **** /**
 779:C:/Users/²Ü¼ÒºÀ/.iotlink/sdk/IoT_LINK/drivers/third_party/ST/STM32L4xx_HAL_Driver/Src\stm32l4xx_hal_pwr_ex.c ****   * @brief Enable pull-down activation on DSI pins.   
 780:C:/Users/²Ü¼ÒºÀ/.iotlink/sdk/IoT_LINK/drivers/third_party/ST/STM32L4xx_HAL_Driver/Src\stm32l4xx_hal_pwr_ex.c ****   * @retval None
 781:C:/Users/²Ü¼ÒºÀ/.iotlink/sdk/IoT_LINK/drivers/third_party/ST/STM32L4xx_HAL_Driver/Src\stm32l4xx_hal_pwr_ex.c ****   */
 782:C:/Users/²Ü¼ÒºÀ/.iotlink/sdk/IoT_LINK/drivers/third_party/ST/STM32L4xx_HAL_Driver/Src\stm32l4xx_hal_pwr_ex.c **** void HAL_PWREx_EnableDSIPinsPDActivation(void)
 783:C:/Users/²Ü¼ÒºÀ/.iotlink/sdk/IoT_LINK/drivers/third_party/ST/STM32L4xx_HAL_Driver/Src\stm32l4xx_hal_pwr_ex.c **** {
 784:C:/Users/²Ü¼ÒºÀ/.iotlink/sdk/IoT_LINK/drivers/third_party/ST/STM32L4xx_HAL_Driver/Src\stm32l4xx_hal_pwr_ex.c ****   SET_BIT(PWR->CR3, PWR_CR3_DSIPDEN);
 785:C:/Users/²Ü¼ÒºÀ/.iotlink/sdk/IoT_LINK/drivers/third_party/ST/STM32L4xx_HAL_Driver/Src\stm32l4xx_hal_pwr_ex.c **** }
 786:C:/Users/²Ü¼ÒºÀ/.iotlink/sdk/IoT_LINK/drivers/third_party/ST/STM32L4xx_HAL_Driver/Src\stm32l4xx_hal_pwr_ex.c **** 
 787:C:/Users/²Ü¼ÒºÀ/.iotlink/sdk/IoT_LINK/drivers/third_party/ST/STM32L4xx_HAL_Driver/Src\stm32l4xx_hal_pwr_ex.c **** 
 788:C:/Users/²Ü¼ÒºÀ/.iotlink/sdk/IoT_LINK/drivers/third_party/ST/STM32L4xx_HAL_Driver/Src\stm32l4xx_hal_pwr_ex.c **** /**
 789:C:/Users/²Ü¼ÒºÀ/.iotlink/sdk/IoT_LINK/drivers/third_party/ST/STM32L4xx_HAL_Driver/Src\stm32l4xx_hal_pwr_ex.c ****   * @brief Disable pull-down activation on DSI pins.    
 790:C:/Users/²Ü¼ÒºÀ/.iotlink/sdk/IoT_LINK/drivers/third_party/ST/STM32L4xx_HAL_Driver/Src\stm32l4xx_hal_pwr_ex.c ****   * @retval None
 791:C:/Users/²Ü¼ÒºÀ/.iotlink/sdk/IoT_LINK/drivers/third_party/ST/STM32L4xx_HAL_Driver/Src\stm32l4xx_hal_pwr_ex.c ****   */
 792:C:/Users/²Ü¼ÒºÀ/.iotlink/sdk/IoT_LINK/drivers/third_party/ST/STM32L4xx_HAL_Driver/Src\stm32l4xx_hal_pwr_ex.c **** void HAL_PWREx_DisableDSIPinsPDActivation(void)
 793:C:/Users/²Ü¼ÒºÀ/.iotlink/sdk/IoT_LINK/drivers/third_party/ST/STM32L4xx_HAL_Driver/Src\stm32l4xx_hal_pwr_ex.c **** {
 794:C:/Users/²Ü¼ÒºÀ/.iotlink/sdk/IoT_LINK/drivers/third_party/ST/STM32L4xx_HAL_Driver/Src\stm32l4xx_hal_pwr_ex.c ****   CLEAR_BIT(PWR->CR3, PWR_CR3_DSIPDEN);
 795:C:/Users/²Ü¼ÒºÀ/.iotlink/sdk/IoT_LINK/drivers/third_party/ST/STM32L4xx_HAL_Driver/Src\stm32l4xx_hal_pwr_ex.c **** }
 796:C:/Users/²Ü¼ÒºÀ/.iotlink/sdk/IoT_LINK/drivers/third_party/ST/STM32L4xx_HAL_Driver/Src\stm32l4xx_hal_pwr_ex.c **** #endif /* PWR_CR3_DSIPDEN */
 797:C:/Users/²Ü¼ÒºÀ/.iotlink/sdk/IoT_LINK/drivers/third_party/ST/STM32L4xx_HAL_Driver/Src\stm32l4xx_hal_pwr_ex.c **** 
 798:C:/Users/²Ü¼ÒºÀ/.iotlink/sdk/IoT_LINK/drivers/third_party/ST/STM32L4xx_HAL_Driver/Src\stm32l4xx_hal_pwr_ex.c **** #if defined(PWR_CR2_PVME1)
 799:C:/Users/²Ü¼ÒºÀ/.iotlink/sdk/IoT_LINK/drivers/third_party/ST/STM32L4xx_HAL_Driver/Src\stm32l4xx_hal_pwr_ex.c **** /**
 800:C:/Users/²Ü¼ÒºÀ/.iotlink/sdk/IoT_LINK/drivers/third_party/ST/STM32L4xx_HAL_Driver/Src\stm32l4xx_hal_pwr_ex.c ****   * @brief Enable the Power Voltage Monitoring 1: VDDUSB versus 1.2V.
 801:C:/Users/²Ü¼ÒºÀ/.iotlink/sdk/IoT_LINK/drivers/third_party/ST/STM32L4xx_HAL_Driver/Src\stm32l4xx_hal_pwr_ex.c ****   * @retval None
 802:C:/Users/²Ü¼ÒºÀ/.iotlink/sdk/IoT_LINK/drivers/third_party/ST/STM32L4xx_HAL_Driver/Src\stm32l4xx_hal_pwr_ex.c ****   */
 803:C:/Users/²Ü¼ÒºÀ/.iotlink/sdk/IoT_LINK/drivers/third_party/ST/STM32L4xx_HAL_Driver/Src\stm32l4xx_hal_pwr_ex.c **** void HAL_PWREx_EnablePVM1(void)
 804:C:/Users/²Ü¼ÒºÀ/.iotlink/sdk/IoT_LINK/drivers/third_party/ST/STM32L4xx_HAL_Driver/Src\stm32l4xx_hal_pwr_ex.c **** {
 805:C:/Users/²Ü¼ÒºÀ/.iotlink/sdk/IoT_LINK/drivers/third_party/ST/STM32L4xx_HAL_Driver/Src\stm32l4xx_hal_pwr_ex.c ****   SET_BIT(PWR->CR2, PWR_PVM_1);    
 806:C:/Users/²Ü¼ÒºÀ/.iotlink/sdk/IoT_LINK/drivers/third_party/ST/STM32L4xx_HAL_Driver/Src\stm32l4xx_hal_pwr_ex.c **** }
 807:C:/Users/²Ü¼ÒºÀ/.iotlink/sdk/IoT_LINK/drivers/third_party/ST/STM32L4xx_HAL_Driver/Src\stm32l4xx_hal_pwr_ex.c **** 
 808:C:/Users/²Ü¼ÒºÀ/.iotlink/sdk/IoT_LINK/drivers/third_party/ST/STM32L4xx_HAL_Driver/Src\stm32l4xx_hal_pwr_ex.c **** /**
 809:C:/Users/²Ü¼ÒºÀ/.iotlink/sdk/IoT_LINK/drivers/third_party/ST/STM32L4xx_HAL_Driver/Src\stm32l4xx_hal_pwr_ex.c ****   * @brief Disable the Power Voltage Monitoring 1: VDDUSB versus 1.2V.
 810:C:/Users/²Ü¼ÒºÀ/.iotlink/sdk/IoT_LINK/drivers/third_party/ST/STM32L4xx_HAL_Driver/Src\stm32l4xx_hal_pwr_ex.c ****   * @retval None
 811:C:/Users/²Ü¼ÒºÀ/.iotlink/sdk/IoT_LINK/drivers/third_party/ST/STM32L4xx_HAL_Driver/Src\stm32l4xx_hal_pwr_ex.c ****   */
 812:C:/Users/²Ü¼ÒºÀ/.iotlink/sdk/IoT_LINK/drivers/third_party/ST/STM32L4xx_HAL_Driver/Src\stm32l4xx_hal_pwr_ex.c **** void HAL_PWREx_DisablePVM1(void)
 813:C:/Users/²Ü¼ÒºÀ/.iotlink/sdk/IoT_LINK/drivers/third_party/ST/STM32L4xx_HAL_Driver/Src\stm32l4xx_hal_pwr_ex.c **** {
 814:C:/Users/²Ü¼ÒºÀ/.iotlink/sdk/IoT_LINK/drivers/third_party/ST/STM32L4xx_HAL_Driver/Src\stm32l4xx_hal_pwr_ex.c ****   CLEAR_BIT(PWR->CR2, PWR_PVM_1);    
 815:C:/Users/²Ü¼ÒºÀ/.iotlink/sdk/IoT_LINK/drivers/third_party/ST/STM32L4xx_HAL_Driver/Src\stm32l4xx_hal_pwr_ex.c **** }
 816:C:/Users/²Ü¼ÒºÀ/.iotlink/sdk/IoT_LINK/drivers/third_party/ST/STM32L4xx_HAL_Driver/Src\stm32l4xx_hal_pwr_ex.c **** #endif /* PWR_CR2_PVME1 */
 817:C:/Users/²Ü¼ÒºÀ/.iotlink/sdk/IoT_LINK/drivers/third_party/ST/STM32L4xx_HAL_Driver/Src\stm32l4xx_hal_pwr_ex.c **** 
 818:C:/Users/²Ü¼ÒºÀ/.iotlink/sdk/IoT_LINK/drivers/third_party/ST/STM32L4xx_HAL_Driver/Src\stm32l4xx_hal_pwr_ex.c **** 
 819:C:/Users/²Ü¼ÒºÀ/.iotlink/sdk/IoT_LINK/drivers/third_party/ST/STM32L4xx_HAL_Driver/Src\stm32l4xx_hal_pwr_ex.c **** #if defined(PWR_CR2_PVME2)
 820:C:/Users/²Ü¼ÒºÀ/.iotlink/sdk/IoT_LINK/drivers/third_party/ST/STM32L4xx_HAL_Driver/Src\stm32l4xx_hal_pwr_ex.c **** /**
 821:C:/Users/²Ü¼ÒºÀ/.iotlink/sdk/IoT_LINK/drivers/third_party/ST/STM32L4xx_HAL_Driver/Src\stm32l4xx_hal_pwr_ex.c ****   * @brief Enable the Power Voltage Monitoring 2: VDDIO2 versus 0.9V.
 822:C:/Users/²Ü¼ÒºÀ/.iotlink/sdk/IoT_LINK/drivers/third_party/ST/STM32L4xx_HAL_Driver/Src\stm32l4xx_hal_pwr_ex.c ****   * @retval None
 823:C:/Users/²Ü¼ÒºÀ/.iotlink/sdk/IoT_LINK/drivers/third_party/ST/STM32L4xx_HAL_Driver/Src\stm32l4xx_hal_pwr_ex.c ****   */
 824:C:/Users/²Ü¼ÒºÀ/.iotlink/sdk/IoT_LINK/drivers/third_party/ST/STM32L4xx_HAL_Driver/Src\stm32l4xx_hal_pwr_ex.c **** void HAL_PWREx_EnablePVM2(void)
 825:C:/Users/²Ü¼ÒºÀ/.iotlink/sdk/IoT_LINK/drivers/third_party/ST/STM32L4xx_HAL_Driver/Src\stm32l4xx_hal_pwr_ex.c **** {
ARM GAS  C:\Users\²Ü¼ÒºÀ\AppData\Local\Temp\cczPott0.s 			page 33


 826:C:/Users/²Ü¼ÒºÀ/.iotlink/sdk/IoT_LINK/drivers/third_party/ST/STM32L4xx_HAL_Driver/Src\stm32l4xx_hal_pwr_ex.c ****   SET_BIT(PWR->CR2, PWR_PVM_2);    
 827:C:/Users/²Ü¼ÒºÀ/.iotlink/sdk/IoT_LINK/drivers/third_party/ST/STM32L4xx_HAL_Driver/Src\stm32l4xx_hal_pwr_ex.c **** }
 828:C:/Users/²Ü¼ÒºÀ/.iotlink/sdk/IoT_LINK/drivers/third_party/ST/STM32L4xx_HAL_Driver/Src\stm32l4xx_hal_pwr_ex.c **** 
 829:C:/Users/²Ü¼ÒºÀ/.iotlink/sdk/IoT_LINK/drivers/third_party/ST/STM32L4xx_HAL_Driver/Src\stm32l4xx_hal_pwr_ex.c **** /**
 830:C:/Users/²Ü¼ÒºÀ/.iotlink/sdk/IoT_LINK/drivers/third_party/ST/STM32L4xx_HAL_Driver/Src\stm32l4xx_hal_pwr_ex.c ****   * @brief Disable the Power Voltage Monitoring 2: VDDIO2 versus 0.9V.
 831:C:/Users/²Ü¼ÒºÀ/.iotlink/sdk/IoT_LINK/drivers/third_party/ST/STM32L4xx_HAL_Driver/Src\stm32l4xx_hal_pwr_ex.c ****   * @retval None
 832:C:/Users/²Ü¼ÒºÀ/.iotlink/sdk/IoT_LINK/drivers/third_party/ST/STM32L4xx_HAL_Driver/Src\stm32l4xx_hal_pwr_ex.c ****   */
 833:C:/Users/²Ü¼ÒºÀ/.iotlink/sdk/IoT_LINK/drivers/third_party/ST/STM32L4xx_HAL_Driver/Src\stm32l4xx_hal_pwr_ex.c **** void HAL_PWREx_DisablePVM2(void)
 834:C:/Users/²Ü¼ÒºÀ/.iotlink/sdk/IoT_LINK/drivers/third_party/ST/STM32L4xx_HAL_Driver/Src\stm32l4xx_hal_pwr_ex.c **** {
 835:C:/Users/²Ü¼ÒºÀ/.iotlink/sdk/IoT_LINK/drivers/third_party/ST/STM32L4xx_HAL_Driver/Src\stm32l4xx_hal_pwr_ex.c ****   CLEAR_BIT(PWR->CR2, PWR_PVM_2);    
 836:C:/Users/²Ü¼ÒºÀ/.iotlink/sdk/IoT_LINK/drivers/third_party/ST/STM32L4xx_HAL_Driver/Src\stm32l4xx_hal_pwr_ex.c **** }
 837:C:/Users/²Ü¼ÒºÀ/.iotlink/sdk/IoT_LINK/drivers/third_party/ST/STM32L4xx_HAL_Driver/Src\stm32l4xx_hal_pwr_ex.c **** #endif /* PWR_CR2_PVME2 */
 838:C:/Users/²Ü¼ÒºÀ/.iotlink/sdk/IoT_LINK/drivers/third_party/ST/STM32L4xx_HAL_Driver/Src\stm32l4xx_hal_pwr_ex.c **** 
 839:C:/Users/²Ü¼ÒºÀ/.iotlink/sdk/IoT_LINK/drivers/third_party/ST/STM32L4xx_HAL_Driver/Src\stm32l4xx_hal_pwr_ex.c **** 
 840:C:/Users/²Ü¼ÒºÀ/.iotlink/sdk/IoT_LINK/drivers/third_party/ST/STM32L4xx_HAL_Driver/Src\stm32l4xx_hal_pwr_ex.c **** /**
 841:C:/Users/²Ü¼ÒºÀ/.iotlink/sdk/IoT_LINK/drivers/third_party/ST/STM32L4xx_HAL_Driver/Src\stm32l4xx_hal_pwr_ex.c ****   * @brief Enable the Power Voltage Monitoring 3: VDDA versus 1.62V.
 842:C:/Users/²Ü¼ÒºÀ/.iotlink/sdk/IoT_LINK/drivers/third_party/ST/STM32L4xx_HAL_Driver/Src\stm32l4xx_hal_pwr_ex.c ****   * @retval None
 843:C:/Users/²Ü¼ÒºÀ/.iotlink/sdk/IoT_LINK/drivers/third_party/ST/STM32L4xx_HAL_Driver/Src\stm32l4xx_hal_pwr_ex.c ****   */
 844:C:/Users/²Ü¼ÒºÀ/.iotlink/sdk/IoT_LINK/drivers/third_party/ST/STM32L4xx_HAL_Driver/Src\stm32l4xx_hal_pwr_ex.c **** void HAL_PWREx_EnablePVM3(void)
 845:C:/Users/²Ü¼ÒºÀ/.iotlink/sdk/IoT_LINK/drivers/third_party/ST/STM32L4xx_HAL_Driver/Src\stm32l4xx_hal_pwr_ex.c **** {
 936              		.loc 1 845 1 is_stmt 1 view -0
 937              		.cfi_startproc
 938              		@ args = 0, pretend = 0, frame = 0
 939              		@ frame_needed = 0, uses_anonymous_args = 0
 940              		@ link register save eliminated.
 846:C:/Users/²Ü¼ÒºÀ/.iotlink/sdk/IoT_LINK/drivers/third_party/ST/STM32L4xx_HAL_Driver/Src\stm32l4xx_hal_pwr_ex.c ****   SET_BIT(PWR->CR2, PWR_PVM_3);    
 941              		.loc 1 846 3 view .LVU184
 942 0000 024A     		ldr	r2, .L100
 943 0002 5368     		ldr	r3, [r2, #4]
 944 0004 43F04003 		orr	r3, r3, #64
 945 0008 5360     		str	r3, [r2, #4]
 847:C:/Users/²Ü¼ÒºÀ/.iotlink/sdk/IoT_LINK/drivers/third_party/ST/STM32L4xx_HAL_Driver/Src\stm32l4xx_hal_pwr_ex.c **** }
 946              		.loc 1 847 1 is_stmt 0 view .LVU185
 947 000a 7047     		bx	lr
 948              	.L101:
 949              		.align	2
 950              	.L100:
 951 000c 00700040 		.word	1073770496
 952              		.cfi_endproc
 953              	.LFE301:
 955              		.section	.text.HAL_PWREx_DisablePVM3,"ax",%progbits
 956              		.align	1
 957              		.global	HAL_PWREx_DisablePVM3
 958              		.syntax unified
 959              		.thumb
 960              		.thumb_func
 961              		.fpu fpv4-sp-d16
 963              	HAL_PWREx_DisablePVM3:
 964              	.LFB302:
 848:C:/Users/²Ü¼ÒºÀ/.iotlink/sdk/IoT_LINK/drivers/third_party/ST/STM32L4xx_HAL_Driver/Src\stm32l4xx_hal_pwr_ex.c **** 
 849:C:/Users/²Ü¼ÒºÀ/.iotlink/sdk/IoT_LINK/drivers/third_party/ST/STM32L4xx_HAL_Driver/Src\stm32l4xx_hal_pwr_ex.c **** /**
 850:C:/Users/²Ü¼ÒºÀ/.iotlink/sdk/IoT_LINK/drivers/third_party/ST/STM32L4xx_HAL_Driver/Src\stm32l4xx_hal_pwr_ex.c ****   * @brief Disable the Power Voltage Monitoring 3: VDDA versus 1.62V.
 851:C:/Users/²Ü¼ÒºÀ/.iotlink/sdk/IoT_LINK/drivers/third_party/ST/STM32L4xx_HAL_Driver/Src\stm32l4xx_hal_pwr_ex.c ****   * @retval None
 852:C:/Users/²Ü¼ÒºÀ/.iotlink/sdk/IoT_LINK/drivers/third_party/ST/STM32L4xx_HAL_Driver/Src\stm32l4xx_hal_pwr_ex.c ****   */
 853:C:/Users/²Ü¼ÒºÀ/.iotlink/sdk/IoT_LINK/drivers/third_party/ST/STM32L4xx_HAL_Driver/Src\stm32l4xx_hal_pwr_ex.c **** void HAL_PWREx_DisablePVM3(void)
 854:C:/Users/²Ü¼ÒºÀ/.iotlink/sdk/IoT_LINK/drivers/third_party/ST/STM32L4xx_HAL_Driver/Src\stm32l4xx_hal_pwr_ex.c **** {
 965              		.loc 1 854 1 is_stmt 1 view -0
ARM GAS  C:\Users\²Ü¼ÒºÀ\AppData\Local\Temp\cczPott0.s 			page 34


 966              		.cfi_startproc
 967              		@ args = 0, pretend = 0, frame = 0
 968              		@ frame_needed = 0, uses_anonymous_args = 0
 969              		@ link register save eliminated.
 855:C:/Users/²Ü¼ÒºÀ/.iotlink/sdk/IoT_LINK/drivers/third_party/ST/STM32L4xx_HAL_Driver/Src\stm32l4xx_hal_pwr_ex.c ****   CLEAR_BIT(PWR->CR2, PWR_PVM_3);    
 970              		.loc 1 855 3 view .LVU187
 971 0000 024A     		ldr	r2, .L103
 972 0002 5368     		ldr	r3, [r2, #4]
 973 0004 23F04003 		bic	r3, r3, #64
 974 0008 5360     		str	r3, [r2, #4]
 856:C:/Users/²Ü¼ÒºÀ/.iotlink/sdk/IoT_LINK/drivers/third_party/ST/STM32L4xx_HAL_Driver/Src\stm32l4xx_hal_pwr_ex.c **** }
 975              		.loc 1 856 1 is_stmt 0 view .LVU188
 976 000a 7047     		bx	lr
 977              	.L104:
 978              		.align	2
 979              	.L103:
 980 000c 00700040 		.word	1073770496
 981              		.cfi_endproc
 982              	.LFE302:
 984              		.section	.text.HAL_PWREx_EnablePVM4,"ax",%progbits
 985              		.align	1
 986              		.global	HAL_PWREx_EnablePVM4
 987              		.syntax unified
 988              		.thumb
 989              		.thumb_func
 990              		.fpu fpv4-sp-d16
 992              	HAL_PWREx_EnablePVM4:
 993              	.LFB303:
 857:C:/Users/²Ü¼ÒºÀ/.iotlink/sdk/IoT_LINK/drivers/third_party/ST/STM32L4xx_HAL_Driver/Src\stm32l4xx_hal_pwr_ex.c **** 
 858:C:/Users/²Ü¼ÒºÀ/.iotlink/sdk/IoT_LINK/drivers/third_party/ST/STM32L4xx_HAL_Driver/Src\stm32l4xx_hal_pwr_ex.c **** 
 859:C:/Users/²Ü¼ÒºÀ/.iotlink/sdk/IoT_LINK/drivers/third_party/ST/STM32L4xx_HAL_Driver/Src\stm32l4xx_hal_pwr_ex.c **** /**
 860:C:/Users/²Ü¼ÒºÀ/.iotlink/sdk/IoT_LINK/drivers/third_party/ST/STM32L4xx_HAL_Driver/Src\stm32l4xx_hal_pwr_ex.c ****   * @brief Enable the Power Voltage Monitoring 4:  VDDA versus 2.2V.
 861:C:/Users/²Ü¼ÒºÀ/.iotlink/sdk/IoT_LINK/drivers/third_party/ST/STM32L4xx_HAL_Driver/Src\stm32l4xx_hal_pwr_ex.c ****   * @retval None
 862:C:/Users/²Ü¼ÒºÀ/.iotlink/sdk/IoT_LINK/drivers/third_party/ST/STM32L4xx_HAL_Driver/Src\stm32l4xx_hal_pwr_ex.c ****   */
 863:C:/Users/²Ü¼ÒºÀ/.iotlink/sdk/IoT_LINK/drivers/third_party/ST/STM32L4xx_HAL_Driver/Src\stm32l4xx_hal_pwr_ex.c **** void HAL_PWREx_EnablePVM4(void)
 864:C:/Users/²Ü¼ÒºÀ/.iotlink/sdk/IoT_LINK/drivers/third_party/ST/STM32L4xx_HAL_Driver/Src\stm32l4xx_hal_pwr_ex.c **** {
 994              		.loc 1 864 1 is_stmt 1 view -0
 995              		.cfi_startproc
 996              		@ args = 0, pretend = 0, frame = 0
 997              		@ frame_needed = 0, uses_anonymous_args = 0
 998              		@ link register save eliminated.
 865:C:/Users/²Ü¼ÒºÀ/.iotlink/sdk/IoT_LINK/drivers/third_party/ST/STM32L4xx_HAL_Driver/Src\stm32l4xx_hal_pwr_ex.c ****   SET_BIT(PWR->CR2, PWR_PVM_4);    
 999              		.loc 1 865 3 view .LVU190
 1000 0000 024A     		ldr	r2, .L106
 1001 0002 5368     		ldr	r3, [r2, #4]
 1002 0004 43F08003 		orr	r3, r3, #128
 1003 0008 5360     		str	r3, [r2, #4]
 866:C:/Users/²Ü¼ÒºÀ/.iotlink/sdk/IoT_LINK/drivers/third_party/ST/STM32L4xx_HAL_Driver/Src\stm32l4xx_hal_pwr_ex.c **** }
 1004              		.loc 1 866 1 is_stmt 0 view .LVU191
 1005 000a 7047     		bx	lr
 1006              	.L107:
 1007              		.align	2
 1008              	.L106:
 1009 000c 00700040 		.word	1073770496
 1010              		.cfi_endproc
 1011              	.LFE303:
 1013              		.section	.text.HAL_PWREx_DisablePVM4,"ax",%progbits
ARM GAS  C:\Users\²Ü¼ÒºÀ\AppData\Local\Temp\cczPott0.s 			page 35


 1014              		.align	1
 1015              		.global	HAL_PWREx_DisablePVM4
 1016              		.syntax unified
 1017              		.thumb
 1018              		.thumb_func
 1019              		.fpu fpv4-sp-d16
 1021              	HAL_PWREx_DisablePVM4:
 1022              	.LFB304:
 867:C:/Users/²Ü¼ÒºÀ/.iotlink/sdk/IoT_LINK/drivers/third_party/ST/STM32L4xx_HAL_Driver/Src\stm32l4xx_hal_pwr_ex.c **** 
 868:C:/Users/²Ü¼ÒºÀ/.iotlink/sdk/IoT_LINK/drivers/third_party/ST/STM32L4xx_HAL_Driver/Src\stm32l4xx_hal_pwr_ex.c **** /**
 869:C:/Users/²Ü¼ÒºÀ/.iotlink/sdk/IoT_LINK/drivers/third_party/ST/STM32L4xx_HAL_Driver/Src\stm32l4xx_hal_pwr_ex.c ****   * @brief Disable the Power Voltage Monitoring 4:  VDDA versus 2.2V.
 870:C:/Users/²Ü¼ÒºÀ/.iotlink/sdk/IoT_LINK/drivers/third_party/ST/STM32L4xx_HAL_Driver/Src\stm32l4xx_hal_pwr_ex.c ****   * @retval None
 871:C:/Users/²Ü¼ÒºÀ/.iotlink/sdk/IoT_LINK/drivers/third_party/ST/STM32L4xx_HAL_Driver/Src\stm32l4xx_hal_pwr_ex.c ****   */
 872:C:/Users/²Ü¼ÒºÀ/.iotlink/sdk/IoT_LINK/drivers/third_party/ST/STM32L4xx_HAL_Driver/Src\stm32l4xx_hal_pwr_ex.c **** void HAL_PWREx_DisablePVM4(void)
 873:C:/Users/²Ü¼ÒºÀ/.iotlink/sdk/IoT_LINK/drivers/third_party/ST/STM32L4xx_HAL_Driver/Src\stm32l4xx_hal_pwr_ex.c **** {
 1023              		.loc 1 873 1 is_stmt 1 view -0
 1024              		.cfi_startproc
 1025              		@ args = 0, pretend = 0, frame = 0
 1026              		@ frame_needed = 0, uses_anonymous_args = 0
 1027              		@ link register save eliminated.
 874:C:/Users/²Ü¼ÒºÀ/.iotlink/sdk/IoT_LINK/drivers/third_party/ST/STM32L4xx_HAL_Driver/Src\stm32l4xx_hal_pwr_ex.c ****   CLEAR_BIT(PWR->CR2, PWR_PVM_4);    
 1028              		.loc 1 874 3 view .LVU193
 1029 0000 024A     		ldr	r2, .L109
 1030 0002 5368     		ldr	r3, [r2, #4]
 1031 0004 23F08003 		bic	r3, r3, #128
 1032 0008 5360     		str	r3, [r2, #4]
 875:C:/Users/²Ü¼ÒºÀ/.iotlink/sdk/IoT_LINK/drivers/third_party/ST/STM32L4xx_HAL_Driver/Src\stm32l4xx_hal_pwr_ex.c **** }
 1033              		.loc 1 875 1 is_stmt 0 view .LVU194
 1034 000a 7047     		bx	lr
 1035              	.L110:
 1036              		.align	2
 1037              	.L109:
 1038 000c 00700040 		.word	1073770496
 1039              		.cfi_endproc
 1040              	.LFE304:
 1042              		.section	.text.HAL_PWREx_ConfigPVM,"ax",%progbits
 1043              		.align	1
 1044              		.global	HAL_PWREx_ConfigPVM
 1045              		.syntax unified
 1046              		.thumb
 1047              		.thumb_func
 1048              		.fpu fpv4-sp-d16
 1050              	HAL_PWREx_ConfigPVM:
 1051              	.LVL72:
 1052              	.LFB305:
 876:C:/Users/²Ü¼ÒºÀ/.iotlink/sdk/IoT_LINK/drivers/third_party/ST/STM32L4xx_HAL_Driver/Src\stm32l4xx_hal_pwr_ex.c **** 
 877:C:/Users/²Ü¼ÒºÀ/.iotlink/sdk/IoT_LINK/drivers/third_party/ST/STM32L4xx_HAL_Driver/Src\stm32l4xx_hal_pwr_ex.c **** 
 878:C:/Users/²Ü¼ÒºÀ/.iotlink/sdk/IoT_LINK/drivers/third_party/ST/STM32L4xx_HAL_Driver/Src\stm32l4xx_hal_pwr_ex.c **** 
 879:C:/Users/²Ü¼ÒºÀ/.iotlink/sdk/IoT_LINK/drivers/third_party/ST/STM32L4xx_HAL_Driver/Src\stm32l4xx_hal_pwr_ex.c **** 
 880:C:/Users/²Ü¼ÒºÀ/.iotlink/sdk/IoT_LINK/drivers/third_party/ST/STM32L4xx_HAL_Driver/Src\stm32l4xx_hal_pwr_ex.c **** /**
 881:C:/Users/²Ü¼ÒºÀ/.iotlink/sdk/IoT_LINK/drivers/third_party/ST/STM32L4xx_HAL_Driver/Src\stm32l4xx_hal_pwr_ex.c ****   * @brief Configure the Peripheral Voltage Monitoring (PVM).
 882:C:/Users/²Ü¼ÒºÀ/.iotlink/sdk/IoT_LINK/drivers/third_party/ST/STM32L4xx_HAL_Driver/Src\stm32l4xx_hal_pwr_ex.c ****   * @param sConfigPVM: pointer to a PWR_PVMTypeDef structure that contains the
 883:C:/Users/²Ü¼ÒºÀ/.iotlink/sdk/IoT_LINK/drivers/third_party/ST/STM32L4xx_HAL_Driver/Src\stm32l4xx_hal_pwr_ex.c ****   *        PVM configuration information.
 884:C:/Users/²Ü¼ÒºÀ/.iotlink/sdk/IoT_LINK/drivers/third_party/ST/STM32L4xx_HAL_Driver/Src\stm32l4xx_hal_pwr_ex.c ****   * @note The API configures a single PVM according to the information contained 
 885:C:/Users/²Ü¼ÒºÀ/.iotlink/sdk/IoT_LINK/drivers/third_party/ST/STM32L4xx_HAL_Driver/Src\stm32l4xx_hal_pwr_ex.c ****   *       in the input structure. To configure several PVMs, the API must be singly 
 886:C:/Users/²Ü¼ÒºÀ/.iotlink/sdk/IoT_LINK/drivers/third_party/ST/STM32L4xx_HAL_Driver/Src\stm32l4xx_hal_pwr_ex.c ****   *       called for each PVM used.
 887:C:/Users/²Ü¼ÒºÀ/.iotlink/sdk/IoT_LINK/drivers/third_party/ST/STM32L4xx_HAL_Driver/Src\stm32l4xx_hal_pwr_ex.c ****   * @note Refer to the electrical characteristics of your device datasheet for
ARM GAS  C:\Users\²Ü¼ÒºÀ\AppData\Local\Temp\cczPott0.s 			page 36


 888:C:/Users/²Ü¼ÒºÀ/.iotlink/sdk/IoT_LINK/drivers/third_party/ST/STM32L4xx_HAL_Driver/Src\stm32l4xx_hal_pwr_ex.c ****   *         more details about the voltage thresholds corresponding to each
 889:C:/Users/²Ü¼ÒºÀ/.iotlink/sdk/IoT_LINK/drivers/third_party/ST/STM32L4xx_HAL_Driver/Src\stm32l4xx_hal_pwr_ex.c ****   *         detection level and to each monitored supply.
 890:C:/Users/²Ü¼ÒºÀ/.iotlink/sdk/IoT_LINK/drivers/third_party/ST/STM32L4xx_HAL_Driver/Src\stm32l4xx_hal_pwr_ex.c ****   * @retval HAL status
 891:C:/Users/²Ü¼ÒºÀ/.iotlink/sdk/IoT_LINK/drivers/third_party/ST/STM32L4xx_HAL_Driver/Src\stm32l4xx_hal_pwr_ex.c ****   */
 892:C:/Users/²Ü¼ÒºÀ/.iotlink/sdk/IoT_LINK/drivers/third_party/ST/STM32L4xx_HAL_Driver/Src\stm32l4xx_hal_pwr_ex.c **** HAL_StatusTypeDef HAL_PWREx_ConfigPVM(PWR_PVMTypeDef *sConfigPVM)
 893:C:/Users/²Ü¼ÒºÀ/.iotlink/sdk/IoT_LINK/drivers/third_party/ST/STM32L4xx_HAL_Driver/Src\stm32l4xx_hal_pwr_ex.c **** {  
 1053              		.loc 1 893 1 is_stmt 1 view -0
 1054              		.cfi_startproc
 1055              		@ args = 0, pretend = 0, frame = 0
 1056              		@ frame_needed = 0, uses_anonymous_args = 0
 1057              		@ link register save eliminated.
 894:C:/Users/²Ü¼ÒºÀ/.iotlink/sdk/IoT_LINK/drivers/third_party/ST/STM32L4xx_HAL_Driver/Src\stm32l4xx_hal_pwr_ex.c ****   /* Check the parameters */
 895:C:/Users/²Ü¼ÒºÀ/.iotlink/sdk/IoT_LINK/drivers/third_party/ST/STM32L4xx_HAL_Driver/Src\stm32l4xx_hal_pwr_ex.c ****   assert_param(IS_PWR_PVM_TYPE(sConfigPVM->PVMType));
 1058              		.loc 1 895 3 view .LVU196
 896:C:/Users/²Ü¼ÒºÀ/.iotlink/sdk/IoT_LINK/drivers/third_party/ST/STM32L4xx_HAL_Driver/Src\stm32l4xx_hal_pwr_ex.c ****   assert_param(IS_PWR_PVM_MODE(sConfigPVM->Mode));
 1059              		.loc 1 896 3 view .LVU197
 897:C:/Users/²Ü¼ÒºÀ/.iotlink/sdk/IoT_LINK/drivers/third_party/ST/STM32L4xx_HAL_Driver/Src\stm32l4xx_hal_pwr_ex.c **** 
 898:C:/Users/²Ü¼ÒºÀ/.iotlink/sdk/IoT_LINK/drivers/third_party/ST/STM32L4xx_HAL_Driver/Src\stm32l4xx_hal_pwr_ex.c **** 
 899:C:/Users/²Ü¼ÒºÀ/.iotlink/sdk/IoT_LINK/drivers/third_party/ST/STM32L4xx_HAL_Driver/Src\stm32l4xx_hal_pwr_ex.c ****   /* Configure EXTI 35 to 38 interrupts if so required:
 900:C:/Users/²Ü¼ÒºÀ/.iotlink/sdk/IoT_LINK/drivers/third_party/ST/STM32L4xx_HAL_Driver/Src\stm32l4xx_hal_pwr_ex.c ****      scan thru PVMType to detect which PVMx is set and
 901:C:/Users/²Ü¼ÒºÀ/.iotlink/sdk/IoT_LINK/drivers/third_party/ST/STM32L4xx_HAL_Driver/Src\stm32l4xx_hal_pwr_ex.c ****      configure the corresponding EXTI line accordingly. */
 902:C:/Users/²Ü¼ÒºÀ/.iotlink/sdk/IoT_LINK/drivers/third_party/ST/STM32L4xx_HAL_Driver/Src\stm32l4xx_hal_pwr_ex.c ****   switch (sConfigPVM->PVMType)
 1060              		.loc 1 902 3 view .LVU198
 1061              		.loc 1 902 21 is_stmt 0 view .LVU199
 1062 0000 0368     		ldr	r3, [r0]
 1063              		.loc 1 902 3 view .LVU200
 1064 0002 402B     		cmp	r3, #64
 1065 0004 03D0     		beq	.L112
 1066 0006 802B     		cmp	r3, #128
 1067 0008 2ED0     		beq	.L113
 1068 000a 0120     		movs	r0, #1
 1069              	.LVL73:
 1070              		.loc 1 902 3 view .LVU201
 1071 000c 7047     		bx	lr
 1072              	.LVL74:
 1073              	.L112:
 903:C:/Users/²Ü¼ÒºÀ/.iotlink/sdk/IoT_LINK/drivers/third_party/ST/STM32L4xx_HAL_Driver/Src\stm32l4xx_hal_pwr_ex.c ****   {
 904:C:/Users/²Ü¼ÒºÀ/.iotlink/sdk/IoT_LINK/drivers/third_party/ST/STM32L4xx_HAL_Driver/Src\stm32l4xx_hal_pwr_ex.c **** #if defined(PWR_CR2_PVME1)  
 905:C:/Users/²Ü¼ÒºÀ/.iotlink/sdk/IoT_LINK/drivers/third_party/ST/STM32L4xx_HAL_Driver/Src\stm32l4xx_hal_pwr_ex.c ****     case PWR_PVM_1:
 906:C:/Users/²Ü¼ÒºÀ/.iotlink/sdk/IoT_LINK/drivers/third_party/ST/STM32L4xx_HAL_Driver/Src\stm32l4xx_hal_pwr_ex.c ****       /* Clear any previous config. Keep it clear if no event or IT mode is selected */
 907:C:/Users/²Ü¼ÒºÀ/.iotlink/sdk/IoT_LINK/drivers/third_party/ST/STM32L4xx_HAL_Driver/Src\stm32l4xx_hal_pwr_ex.c ****       __HAL_PWR_PVM1_EXTI_DISABLE_EVENT();
 908:C:/Users/²Ü¼ÒºÀ/.iotlink/sdk/IoT_LINK/drivers/third_party/ST/STM32L4xx_HAL_Driver/Src\stm32l4xx_hal_pwr_ex.c ****       __HAL_PWR_PVM1_EXTI_DISABLE_IT();
 909:C:/Users/²Ü¼ÒºÀ/.iotlink/sdk/IoT_LINK/drivers/third_party/ST/STM32L4xx_HAL_Driver/Src\stm32l4xx_hal_pwr_ex.c ****       __HAL_PWR_PVM1_EXTI_DISABLE_FALLING_EDGE(); 
 910:C:/Users/²Ü¼ÒºÀ/.iotlink/sdk/IoT_LINK/drivers/third_party/ST/STM32L4xx_HAL_Driver/Src\stm32l4xx_hal_pwr_ex.c ****       __HAL_PWR_PVM1_EXTI_DISABLE_RISING_EDGE();
 911:C:/Users/²Ü¼ÒºÀ/.iotlink/sdk/IoT_LINK/drivers/third_party/ST/STM32L4xx_HAL_Driver/Src\stm32l4xx_hal_pwr_ex.c **** 
 912:C:/Users/²Ü¼ÒºÀ/.iotlink/sdk/IoT_LINK/drivers/third_party/ST/STM32L4xx_HAL_Driver/Src\stm32l4xx_hal_pwr_ex.c ****       /* Configure interrupt mode */
 913:C:/Users/²Ü¼ÒºÀ/.iotlink/sdk/IoT_LINK/drivers/third_party/ST/STM32L4xx_HAL_Driver/Src\stm32l4xx_hal_pwr_ex.c ****       if((sConfigPVM->Mode & PVM_MODE_IT) == PVM_MODE_IT)
 914:C:/Users/²Ü¼ÒºÀ/.iotlink/sdk/IoT_LINK/drivers/third_party/ST/STM32L4xx_HAL_Driver/Src\stm32l4xx_hal_pwr_ex.c ****       {
 915:C:/Users/²Ü¼ÒºÀ/.iotlink/sdk/IoT_LINK/drivers/third_party/ST/STM32L4xx_HAL_Driver/Src\stm32l4xx_hal_pwr_ex.c ****         __HAL_PWR_PVM1_EXTI_ENABLE_IT();
 916:C:/Users/²Ü¼ÒºÀ/.iotlink/sdk/IoT_LINK/drivers/third_party/ST/STM32L4xx_HAL_Driver/Src\stm32l4xx_hal_pwr_ex.c ****       }
 917:C:/Users/²Ü¼ÒºÀ/.iotlink/sdk/IoT_LINK/drivers/third_party/ST/STM32L4xx_HAL_Driver/Src\stm32l4xx_hal_pwr_ex.c ****   
 918:C:/Users/²Ü¼ÒºÀ/.iotlink/sdk/IoT_LINK/drivers/third_party/ST/STM32L4xx_HAL_Driver/Src\stm32l4xx_hal_pwr_ex.c ****       /* Configure event mode */
 919:C:/Users/²Ü¼ÒºÀ/.iotlink/sdk/IoT_LINK/drivers/third_party/ST/STM32L4xx_HAL_Driver/Src\stm32l4xx_hal_pwr_ex.c ****       if((sConfigPVM->Mode & PVM_MODE_EVT) == PVM_MODE_EVT)
 920:C:/Users/²Ü¼ÒºÀ/.iotlink/sdk/IoT_LINK/drivers/third_party/ST/STM32L4xx_HAL_Driver/Src\stm32l4xx_hal_pwr_ex.c ****       {
 921:C:/Users/²Ü¼ÒºÀ/.iotlink/sdk/IoT_LINK/drivers/third_party/ST/STM32L4xx_HAL_Driver/Src\stm32l4xx_hal_pwr_ex.c ****         __HAL_PWR_PVM1_EXTI_ENABLE_EVENT();
 922:C:/Users/²Ü¼ÒºÀ/.iotlink/sdk/IoT_LINK/drivers/third_party/ST/STM32L4xx_HAL_Driver/Src\stm32l4xx_hal_pwr_ex.c ****       }
 923:C:/Users/²Ü¼ÒºÀ/.iotlink/sdk/IoT_LINK/drivers/third_party/ST/STM32L4xx_HAL_Driver/Src\stm32l4xx_hal_pwr_ex.c ****   
ARM GAS  C:\Users\²Ü¼ÒºÀ\AppData\Local\Temp\cczPott0.s 			page 37


 924:C:/Users/²Ü¼ÒºÀ/.iotlink/sdk/IoT_LINK/drivers/third_party/ST/STM32L4xx_HAL_Driver/Src\stm32l4xx_hal_pwr_ex.c ****       /* Configure the edge */
 925:C:/Users/²Ü¼ÒºÀ/.iotlink/sdk/IoT_LINK/drivers/third_party/ST/STM32L4xx_HAL_Driver/Src\stm32l4xx_hal_pwr_ex.c ****       if((sConfigPVM->Mode & PVM_RISING_EDGE) == PVM_RISING_EDGE)
 926:C:/Users/²Ü¼ÒºÀ/.iotlink/sdk/IoT_LINK/drivers/third_party/ST/STM32L4xx_HAL_Driver/Src\stm32l4xx_hal_pwr_ex.c ****       {
 927:C:/Users/²Ü¼ÒºÀ/.iotlink/sdk/IoT_LINK/drivers/third_party/ST/STM32L4xx_HAL_Driver/Src\stm32l4xx_hal_pwr_ex.c ****         __HAL_PWR_PVM1_EXTI_ENABLE_RISING_EDGE();
 928:C:/Users/²Ü¼ÒºÀ/.iotlink/sdk/IoT_LINK/drivers/third_party/ST/STM32L4xx_HAL_Driver/Src\stm32l4xx_hal_pwr_ex.c ****       }
 929:C:/Users/²Ü¼ÒºÀ/.iotlink/sdk/IoT_LINK/drivers/third_party/ST/STM32L4xx_HAL_Driver/Src\stm32l4xx_hal_pwr_ex.c ****   
 930:C:/Users/²Ü¼ÒºÀ/.iotlink/sdk/IoT_LINK/drivers/third_party/ST/STM32L4xx_HAL_Driver/Src\stm32l4xx_hal_pwr_ex.c ****       if((sConfigPVM->Mode & PVM_FALLING_EDGE) == PVM_FALLING_EDGE)
 931:C:/Users/²Ü¼ÒºÀ/.iotlink/sdk/IoT_LINK/drivers/third_party/ST/STM32L4xx_HAL_Driver/Src\stm32l4xx_hal_pwr_ex.c ****       {
 932:C:/Users/²Ü¼ÒºÀ/.iotlink/sdk/IoT_LINK/drivers/third_party/ST/STM32L4xx_HAL_Driver/Src\stm32l4xx_hal_pwr_ex.c ****         __HAL_PWR_PVM1_EXTI_ENABLE_FALLING_EDGE();
 933:C:/Users/²Ü¼ÒºÀ/.iotlink/sdk/IoT_LINK/drivers/third_party/ST/STM32L4xx_HAL_Driver/Src\stm32l4xx_hal_pwr_ex.c ****       }
 934:C:/Users/²Ü¼ÒºÀ/.iotlink/sdk/IoT_LINK/drivers/third_party/ST/STM32L4xx_HAL_Driver/Src\stm32l4xx_hal_pwr_ex.c ****       break; 
 935:C:/Users/²Ü¼ÒºÀ/.iotlink/sdk/IoT_LINK/drivers/third_party/ST/STM32L4xx_HAL_Driver/Src\stm32l4xx_hal_pwr_ex.c **** #endif /* PWR_CR2_PVME1 */        
 936:C:/Users/²Ü¼ÒºÀ/.iotlink/sdk/IoT_LINK/drivers/third_party/ST/STM32L4xx_HAL_Driver/Src\stm32l4xx_hal_pwr_ex.c ****     
 937:C:/Users/²Ü¼ÒºÀ/.iotlink/sdk/IoT_LINK/drivers/third_party/ST/STM32L4xx_HAL_Driver/Src\stm32l4xx_hal_pwr_ex.c **** #if defined(PWR_CR2_PVME2)    
 938:C:/Users/²Ü¼ÒºÀ/.iotlink/sdk/IoT_LINK/drivers/third_party/ST/STM32L4xx_HAL_Driver/Src\stm32l4xx_hal_pwr_ex.c ****     case PWR_PVM_2:
 939:C:/Users/²Ü¼ÒºÀ/.iotlink/sdk/IoT_LINK/drivers/third_party/ST/STM32L4xx_HAL_Driver/Src\stm32l4xx_hal_pwr_ex.c ****       /* Clear any previous config. Keep it clear if no event or IT mode is selected */
 940:C:/Users/²Ü¼ÒºÀ/.iotlink/sdk/IoT_LINK/drivers/third_party/ST/STM32L4xx_HAL_Driver/Src\stm32l4xx_hal_pwr_ex.c ****       __HAL_PWR_PVM2_EXTI_DISABLE_EVENT();
 941:C:/Users/²Ü¼ÒºÀ/.iotlink/sdk/IoT_LINK/drivers/third_party/ST/STM32L4xx_HAL_Driver/Src\stm32l4xx_hal_pwr_ex.c ****       __HAL_PWR_PVM2_EXTI_DISABLE_IT();
 942:C:/Users/²Ü¼ÒºÀ/.iotlink/sdk/IoT_LINK/drivers/third_party/ST/STM32L4xx_HAL_Driver/Src\stm32l4xx_hal_pwr_ex.c ****       __HAL_PWR_PVM2_EXTI_DISABLE_FALLING_EDGE(); 
 943:C:/Users/²Ü¼ÒºÀ/.iotlink/sdk/IoT_LINK/drivers/third_party/ST/STM32L4xx_HAL_Driver/Src\stm32l4xx_hal_pwr_ex.c ****       __HAL_PWR_PVM2_EXTI_DISABLE_RISING_EDGE();
 944:C:/Users/²Ü¼ÒºÀ/.iotlink/sdk/IoT_LINK/drivers/third_party/ST/STM32L4xx_HAL_Driver/Src\stm32l4xx_hal_pwr_ex.c **** 
 945:C:/Users/²Ü¼ÒºÀ/.iotlink/sdk/IoT_LINK/drivers/third_party/ST/STM32L4xx_HAL_Driver/Src\stm32l4xx_hal_pwr_ex.c ****       /* Configure interrupt mode */
 946:C:/Users/²Ü¼ÒºÀ/.iotlink/sdk/IoT_LINK/drivers/third_party/ST/STM32L4xx_HAL_Driver/Src\stm32l4xx_hal_pwr_ex.c ****       if((sConfigPVM->Mode & PVM_MODE_IT) == PVM_MODE_IT)
 947:C:/Users/²Ü¼ÒºÀ/.iotlink/sdk/IoT_LINK/drivers/third_party/ST/STM32L4xx_HAL_Driver/Src\stm32l4xx_hal_pwr_ex.c ****       {
 948:C:/Users/²Ü¼ÒºÀ/.iotlink/sdk/IoT_LINK/drivers/third_party/ST/STM32L4xx_HAL_Driver/Src\stm32l4xx_hal_pwr_ex.c ****         __HAL_PWR_PVM2_EXTI_ENABLE_IT();
 949:C:/Users/²Ü¼ÒºÀ/.iotlink/sdk/IoT_LINK/drivers/third_party/ST/STM32L4xx_HAL_Driver/Src\stm32l4xx_hal_pwr_ex.c ****       }
 950:C:/Users/²Ü¼ÒºÀ/.iotlink/sdk/IoT_LINK/drivers/third_party/ST/STM32L4xx_HAL_Driver/Src\stm32l4xx_hal_pwr_ex.c ****   
 951:C:/Users/²Ü¼ÒºÀ/.iotlink/sdk/IoT_LINK/drivers/third_party/ST/STM32L4xx_HAL_Driver/Src\stm32l4xx_hal_pwr_ex.c ****       /* Configure event mode */
 952:C:/Users/²Ü¼ÒºÀ/.iotlink/sdk/IoT_LINK/drivers/third_party/ST/STM32L4xx_HAL_Driver/Src\stm32l4xx_hal_pwr_ex.c ****       if((sConfigPVM->Mode & PVM_MODE_EVT) == PVM_MODE_EVT)
 953:C:/Users/²Ü¼ÒºÀ/.iotlink/sdk/IoT_LINK/drivers/third_party/ST/STM32L4xx_HAL_Driver/Src\stm32l4xx_hal_pwr_ex.c ****       {
 954:C:/Users/²Ü¼ÒºÀ/.iotlink/sdk/IoT_LINK/drivers/third_party/ST/STM32L4xx_HAL_Driver/Src\stm32l4xx_hal_pwr_ex.c ****         __HAL_PWR_PVM2_EXTI_ENABLE_EVENT();
 955:C:/Users/²Ü¼ÒºÀ/.iotlink/sdk/IoT_LINK/drivers/third_party/ST/STM32L4xx_HAL_Driver/Src\stm32l4xx_hal_pwr_ex.c ****       }
 956:C:/Users/²Ü¼ÒºÀ/.iotlink/sdk/IoT_LINK/drivers/third_party/ST/STM32L4xx_HAL_Driver/Src\stm32l4xx_hal_pwr_ex.c ****   
 957:C:/Users/²Ü¼ÒºÀ/.iotlink/sdk/IoT_LINK/drivers/third_party/ST/STM32L4xx_HAL_Driver/Src\stm32l4xx_hal_pwr_ex.c ****       /* Configure the edge */
 958:C:/Users/²Ü¼ÒºÀ/.iotlink/sdk/IoT_LINK/drivers/third_party/ST/STM32L4xx_HAL_Driver/Src\stm32l4xx_hal_pwr_ex.c ****       if((sConfigPVM->Mode & PVM_RISING_EDGE) == PVM_RISING_EDGE)
 959:C:/Users/²Ü¼ÒºÀ/.iotlink/sdk/IoT_LINK/drivers/third_party/ST/STM32L4xx_HAL_Driver/Src\stm32l4xx_hal_pwr_ex.c ****       {
 960:C:/Users/²Ü¼ÒºÀ/.iotlink/sdk/IoT_LINK/drivers/third_party/ST/STM32L4xx_HAL_Driver/Src\stm32l4xx_hal_pwr_ex.c ****         __HAL_PWR_PVM2_EXTI_ENABLE_RISING_EDGE();
 961:C:/Users/²Ü¼ÒºÀ/.iotlink/sdk/IoT_LINK/drivers/third_party/ST/STM32L4xx_HAL_Driver/Src\stm32l4xx_hal_pwr_ex.c ****       }
 962:C:/Users/²Ü¼ÒºÀ/.iotlink/sdk/IoT_LINK/drivers/third_party/ST/STM32L4xx_HAL_Driver/Src\stm32l4xx_hal_pwr_ex.c ****   
 963:C:/Users/²Ü¼ÒºÀ/.iotlink/sdk/IoT_LINK/drivers/third_party/ST/STM32L4xx_HAL_Driver/Src\stm32l4xx_hal_pwr_ex.c ****       if((sConfigPVM->Mode & PVM_FALLING_EDGE) == PVM_FALLING_EDGE)
 964:C:/Users/²Ü¼ÒºÀ/.iotlink/sdk/IoT_LINK/drivers/third_party/ST/STM32L4xx_HAL_Driver/Src\stm32l4xx_hal_pwr_ex.c ****       {
 965:C:/Users/²Ü¼ÒºÀ/.iotlink/sdk/IoT_LINK/drivers/third_party/ST/STM32L4xx_HAL_Driver/Src\stm32l4xx_hal_pwr_ex.c ****         __HAL_PWR_PVM2_EXTI_ENABLE_FALLING_EDGE();
 966:C:/Users/²Ü¼ÒºÀ/.iotlink/sdk/IoT_LINK/drivers/third_party/ST/STM32L4xx_HAL_Driver/Src\stm32l4xx_hal_pwr_ex.c ****       }
 967:C:/Users/²Ü¼ÒºÀ/.iotlink/sdk/IoT_LINK/drivers/third_party/ST/STM32L4xx_HAL_Driver/Src\stm32l4xx_hal_pwr_ex.c ****       break;
 968:C:/Users/²Ü¼ÒºÀ/.iotlink/sdk/IoT_LINK/drivers/third_party/ST/STM32L4xx_HAL_Driver/Src\stm32l4xx_hal_pwr_ex.c **** #endif /* PWR_CR2_PVME2 */      
 969:C:/Users/²Ü¼ÒºÀ/.iotlink/sdk/IoT_LINK/drivers/third_party/ST/STM32L4xx_HAL_Driver/Src\stm32l4xx_hal_pwr_ex.c ****       
 970:C:/Users/²Ü¼ÒºÀ/.iotlink/sdk/IoT_LINK/drivers/third_party/ST/STM32L4xx_HAL_Driver/Src\stm32l4xx_hal_pwr_ex.c ****     case PWR_PVM_3:
 971:C:/Users/²Ü¼ÒºÀ/.iotlink/sdk/IoT_LINK/drivers/third_party/ST/STM32L4xx_HAL_Driver/Src\stm32l4xx_hal_pwr_ex.c ****       /* Clear any previous config. Keep it clear if no event or IT mode is selected */
 972:C:/Users/²Ü¼ÒºÀ/.iotlink/sdk/IoT_LINK/drivers/third_party/ST/STM32L4xx_HAL_Driver/Src\stm32l4xx_hal_pwr_ex.c ****       __HAL_PWR_PVM3_EXTI_DISABLE_EVENT();
 1074              		.loc 1 972 7 is_stmt 1 view .LVU202
 1075 000e 2B4B     		ldr	r3, .L146
 1076 0010 5A6A     		ldr	r2, [r3, #36]
 1077 0012 22F02002 		bic	r2, r2, #32
 1078 0016 5A62     		str	r2, [r3, #36]
 973:C:/Users/²Ü¼ÒºÀ/.iotlink/sdk/IoT_LINK/drivers/third_party/ST/STM32L4xx_HAL_Driver/Src\stm32l4xx_hal_pwr_ex.c ****       __HAL_PWR_PVM3_EXTI_DISABLE_IT();
 1079              		.loc 1 973 7 view .LVU203
 1080 0018 1A6A     		ldr	r2, [r3, #32]
ARM GAS  C:\Users\²Ü¼ÒºÀ\AppData\Local\Temp\cczPott0.s 			page 38


 1081 001a 22F02002 		bic	r2, r2, #32
 1082 001e 1A62     		str	r2, [r3, #32]
 974:C:/Users/²Ü¼ÒºÀ/.iotlink/sdk/IoT_LINK/drivers/third_party/ST/STM32L4xx_HAL_Driver/Src\stm32l4xx_hal_pwr_ex.c ****       __HAL_PWR_PVM3_EXTI_DISABLE_FALLING_EDGE(); 
 1083              		.loc 1 974 7 view .LVU204
 1084 0020 DA6A     		ldr	r2, [r3, #44]
 1085 0022 22F02002 		bic	r2, r2, #32
 1086 0026 DA62     		str	r2, [r3, #44]
 975:C:/Users/²Ü¼ÒºÀ/.iotlink/sdk/IoT_LINK/drivers/third_party/ST/STM32L4xx_HAL_Driver/Src\stm32l4xx_hal_pwr_ex.c ****       __HAL_PWR_PVM3_EXTI_DISABLE_RISING_EDGE();
 1087              		.loc 1 975 7 view .LVU205
 1088 0028 9A6A     		ldr	r2, [r3, #40]
 1089 002a 22F02002 		bic	r2, r2, #32
 1090 002e 9A62     		str	r2, [r3, #40]
 976:C:/Users/²Ü¼ÒºÀ/.iotlink/sdk/IoT_LINK/drivers/third_party/ST/STM32L4xx_HAL_Driver/Src\stm32l4xx_hal_pwr_ex.c **** 
 977:C:/Users/²Ü¼ÒºÀ/.iotlink/sdk/IoT_LINK/drivers/third_party/ST/STM32L4xx_HAL_Driver/Src\stm32l4xx_hal_pwr_ex.c ****       /* Configure interrupt mode */
 978:C:/Users/²Ü¼ÒºÀ/.iotlink/sdk/IoT_LINK/drivers/third_party/ST/STM32L4xx_HAL_Driver/Src\stm32l4xx_hal_pwr_ex.c ****       if((sConfigPVM->Mode & PVM_MODE_IT) == PVM_MODE_IT)
 1091              		.loc 1 978 7 view .LVU206
 1092              		.loc 1 978 21 is_stmt 0 view .LVU207
 1093 0030 4268     		ldr	r2, [r0, #4]
 1094              		.loc 1 978 9 view .LVU208
 1095 0032 D103     		lsls	r1, r2, #15
 979:C:/Users/²Ü¼ÒºÀ/.iotlink/sdk/IoT_LINK/drivers/third_party/ST/STM32L4xx_HAL_Driver/Src\stm32l4xx_hal_pwr_ex.c ****       {
 980:C:/Users/²Ü¼ÒºÀ/.iotlink/sdk/IoT_LINK/drivers/third_party/ST/STM32L4xx_HAL_Driver/Src\stm32l4xx_hal_pwr_ex.c ****         __HAL_PWR_PVM3_EXTI_ENABLE_IT();
 1096              		.loc 1 980 9 is_stmt 1 view .LVU209
 1097 0034 42BF     		ittt	mi
 1098 0036 196A     		ldrmi	r1, [r3, #32]
 1099 0038 41F02001 		orrmi	r1, r1, #32
 1100 003c 1962     		strmi	r1, [r3, #32]
 981:C:/Users/²Ü¼ÒºÀ/.iotlink/sdk/IoT_LINK/drivers/third_party/ST/STM32L4xx_HAL_Driver/Src\stm32l4xx_hal_pwr_ex.c ****       }
 982:C:/Users/²Ü¼ÒºÀ/.iotlink/sdk/IoT_LINK/drivers/third_party/ST/STM32L4xx_HAL_Driver/Src\stm32l4xx_hal_pwr_ex.c ****   
 983:C:/Users/²Ü¼ÒºÀ/.iotlink/sdk/IoT_LINK/drivers/third_party/ST/STM32L4xx_HAL_Driver/Src\stm32l4xx_hal_pwr_ex.c ****       /* Configure event mode */
 984:C:/Users/²Ü¼ÒºÀ/.iotlink/sdk/IoT_LINK/drivers/third_party/ST/STM32L4xx_HAL_Driver/Src\stm32l4xx_hal_pwr_ex.c ****       if((sConfigPVM->Mode & PVM_MODE_EVT) == PVM_MODE_EVT)
 1101              		.loc 1 984 7 view .LVU210
 1102              		.loc 1 984 9 is_stmt 0 view .LVU211
 1103 003e 9003     		lsls	r0, r2, #14
 1104              	.LVL75:
 985:C:/Users/²Ü¼ÒºÀ/.iotlink/sdk/IoT_LINK/drivers/third_party/ST/STM32L4xx_HAL_Driver/Src\stm32l4xx_hal_pwr_ex.c ****       {
 986:C:/Users/²Ü¼ÒºÀ/.iotlink/sdk/IoT_LINK/drivers/third_party/ST/STM32L4xx_HAL_Driver/Src\stm32l4xx_hal_pwr_ex.c ****         __HAL_PWR_PVM3_EXTI_ENABLE_EVENT();
 1105              		.loc 1 986 9 is_stmt 1 view .LVU212
 1106 0040 42BF     		ittt	mi
 1107 0042 596A     		ldrmi	r1, [r3, #36]
 1108 0044 41F02001 		orrmi	r1, r1, #32
 1109 0048 5962     		strmi	r1, [r3, #36]
 987:C:/Users/²Ü¼ÒºÀ/.iotlink/sdk/IoT_LINK/drivers/third_party/ST/STM32L4xx_HAL_Driver/Src\stm32l4xx_hal_pwr_ex.c ****       }
 988:C:/Users/²Ü¼ÒºÀ/.iotlink/sdk/IoT_LINK/drivers/third_party/ST/STM32L4xx_HAL_Driver/Src\stm32l4xx_hal_pwr_ex.c ****   
 989:C:/Users/²Ü¼ÒºÀ/.iotlink/sdk/IoT_LINK/drivers/third_party/ST/STM32L4xx_HAL_Driver/Src\stm32l4xx_hal_pwr_ex.c ****       /* Configure the edge */
 990:C:/Users/²Ü¼ÒºÀ/.iotlink/sdk/IoT_LINK/drivers/third_party/ST/STM32L4xx_HAL_Driver/Src\stm32l4xx_hal_pwr_ex.c ****       if((sConfigPVM->Mode & PVM_RISING_EDGE) == PVM_RISING_EDGE)
 1110              		.loc 1 990 7 view .LVU213
 1111              		.loc 1 990 9 is_stmt 0 view .LVU214
 1112 004a D107     		lsls	r1, r2, #31
 991:C:/Users/²Ü¼ÒºÀ/.iotlink/sdk/IoT_LINK/drivers/third_party/ST/STM32L4xx_HAL_Driver/Src\stm32l4xx_hal_pwr_ex.c ****       {
 992:C:/Users/²Ü¼ÒºÀ/.iotlink/sdk/IoT_LINK/drivers/third_party/ST/STM32L4xx_HAL_Driver/Src\stm32l4xx_hal_pwr_ex.c ****         __HAL_PWR_PVM3_EXTI_ENABLE_RISING_EDGE();
 1113              		.loc 1 992 9 is_stmt 1 view .LVU215
 1114 004c 42BF     		ittt	mi
 1115 004e 996A     		ldrmi	r1, [r3, #40]
 1116 0050 41F02001 		orrmi	r1, r1, #32
 1117 0054 9962     		strmi	r1, [r3, #40]
 993:C:/Users/²Ü¼ÒºÀ/.iotlink/sdk/IoT_LINK/drivers/third_party/ST/STM32L4xx_HAL_Driver/Src\stm32l4xx_hal_pwr_ex.c ****       }
ARM GAS  C:\Users\²Ü¼ÒºÀ\AppData\Local\Temp\cczPott0.s 			page 39


 994:C:/Users/²Ü¼ÒºÀ/.iotlink/sdk/IoT_LINK/drivers/third_party/ST/STM32L4xx_HAL_Driver/Src\stm32l4xx_hal_pwr_ex.c ****   
 995:C:/Users/²Ü¼ÒºÀ/.iotlink/sdk/IoT_LINK/drivers/third_party/ST/STM32L4xx_HAL_Driver/Src\stm32l4xx_hal_pwr_ex.c ****       if((sConfigPVM->Mode & PVM_FALLING_EDGE) == PVM_FALLING_EDGE)
 1118              		.loc 1 995 7 view .LVU216
 1119              		.loc 1 995 9 is_stmt 0 view .LVU217
 1120 0056 9007     		lsls	r0, r2, #30
 1121 0058 01D4     		bmi	.L118
 1122              	.L144:
 996:C:/Users/²Ü¼ÒºÀ/.iotlink/sdk/IoT_LINK/drivers/third_party/ST/STM32L4xx_HAL_Driver/Src\stm32l4xx_hal_pwr_ex.c ****       {
 997:C:/Users/²Ü¼ÒºÀ/.iotlink/sdk/IoT_LINK/drivers/third_party/ST/STM32L4xx_HAL_Driver/Src\stm32l4xx_hal_pwr_ex.c ****         __HAL_PWR_PVM3_EXTI_ENABLE_FALLING_EDGE();
 998:C:/Users/²Ü¼ÒºÀ/.iotlink/sdk/IoT_LINK/drivers/third_party/ST/STM32L4xx_HAL_Driver/Src\stm32l4xx_hal_pwr_ex.c ****       }
 999:C:/Users/²Ü¼ÒºÀ/.iotlink/sdk/IoT_LINK/drivers/third_party/ST/STM32L4xx_HAL_Driver/Src\stm32l4xx_hal_pwr_ex.c ****       break;
1000:C:/Users/²Ü¼ÒºÀ/.iotlink/sdk/IoT_LINK/drivers/third_party/ST/STM32L4xx_HAL_Driver/Src\stm32l4xx_hal_pwr_ex.c ****       
1001:C:/Users/²Ü¼ÒºÀ/.iotlink/sdk/IoT_LINK/drivers/third_party/ST/STM32L4xx_HAL_Driver/Src\stm32l4xx_hal_pwr_ex.c ****     case PWR_PVM_4:
1002:C:/Users/²Ü¼ÒºÀ/.iotlink/sdk/IoT_LINK/drivers/third_party/ST/STM32L4xx_HAL_Driver/Src\stm32l4xx_hal_pwr_ex.c ****       /* Clear any previous config. Keep it clear if no event or IT mode is selected */
1003:C:/Users/²Ü¼ÒºÀ/.iotlink/sdk/IoT_LINK/drivers/third_party/ST/STM32L4xx_HAL_Driver/Src\stm32l4xx_hal_pwr_ex.c ****       __HAL_PWR_PVM4_EXTI_DISABLE_EVENT();
1004:C:/Users/²Ü¼ÒºÀ/.iotlink/sdk/IoT_LINK/drivers/third_party/ST/STM32L4xx_HAL_Driver/Src\stm32l4xx_hal_pwr_ex.c ****       __HAL_PWR_PVM4_EXTI_DISABLE_IT();
1005:C:/Users/²Ü¼ÒºÀ/.iotlink/sdk/IoT_LINK/drivers/third_party/ST/STM32L4xx_HAL_Driver/Src\stm32l4xx_hal_pwr_ex.c ****       __HAL_PWR_PVM4_EXTI_DISABLE_FALLING_EDGE(); 
1006:C:/Users/²Ü¼ÒºÀ/.iotlink/sdk/IoT_LINK/drivers/third_party/ST/STM32L4xx_HAL_Driver/Src\stm32l4xx_hal_pwr_ex.c ****       __HAL_PWR_PVM4_EXTI_DISABLE_RISING_EDGE();
1007:C:/Users/²Ü¼ÒºÀ/.iotlink/sdk/IoT_LINK/drivers/third_party/ST/STM32L4xx_HAL_Driver/Src\stm32l4xx_hal_pwr_ex.c **** 
1008:C:/Users/²Ü¼ÒºÀ/.iotlink/sdk/IoT_LINK/drivers/third_party/ST/STM32L4xx_HAL_Driver/Src\stm32l4xx_hal_pwr_ex.c ****       /* Configure interrupt mode */
1009:C:/Users/²Ü¼ÒºÀ/.iotlink/sdk/IoT_LINK/drivers/third_party/ST/STM32L4xx_HAL_Driver/Src\stm32l4xx_hal_pwr_ex.c ****       if((sConfigPVM->Mode & PVM_MODE_IT) == PVM_MODE_IT)
1010:C:/Users/²Ü¼ÒºÀ/.iotlink/sdk/IoT_LINK/drivers/third_party/ST/STM32L4xx_HAL_Driver/Src\stm32l4xx_hal_pwr_ex.c ****       {
1011:C:/Users/²Ü¼ÒºÀ/.iotlink/sdk/IoT_LINK/drivers/third_party/ST/STM32L4xx_HAL_Driver/Src\stm32l4xx_hal_pwr_ex.c ****         __HAL_PWR_PVM4_EXTI_ENABLE_IT();
1012:C:/Users/²Ü¼ÒºÀ/.iotlink/sdk/IoT_LINK/drivers/third_party/ST/STM32L4xx_HAL_Driver/Src\stm32l4xx_hal_pwr_ex.c ****       }
1013:C:/Users/²Ü¼ÒºÀ/.iotlink/sdk/IoT_LINK/drivers/third_party/ST/STM32L4xx_HAL_Driver/Src\stm32l4xx_hal_pwr_ex.c ****   
1014:C:/Users/²Ü¼ÒºÀ/.iotlink/sdk/IoT_LINK/drivers/third_party/ST/STM32L4xx_HAL_Driver/Src\stm32l4xx_hal_pwr_ex.c ****       /* Configure event mode */
1015:C:/Users/²Ü¼ÒºÀ/.iotlink/sdk/IoT_LINK/drivers/third_party/ST/STM32L4xx_HAL_Driver/Src\stm32l4xx_hal_pwr_ex.c ****       if((sConfigPVM->Mode & PVM_MODE_EVT) == PVM_MODE_EVT)
1016:C:/Users/²Ü¼ÒºÀ/.iotlink/sdk/IoT_LINK/drivers/third_party/ST/STM32L4xx_HAL_Driver/Src\stm32l4xx_hal_pwr_ex.c ****       {
1017:C:/Users/²Ü¼ÒºÀ/.iotlink/sdk/IoT_LINK/drivers/third_party/ST/STM32L4xx_HAL_Driver/Src\stm32l4xx_hal_pwr_ex.c ****         __HAL_PWR_PVM4_EXTI_ENABLE_EVENT();
1018:C:/Users/²Ü¼ÒºÀ/.iotlink/sdk/IoT_LINK/drivers/third_party/ST/STM32L4xx_HAL_Driver/Src\stm32l4xx_hal_pwr_ex.c ****       }
1019:C:/Users/²Ü¼ÒºÀ/.iotlink/sdk/IoT_LINK/drivers/third_party/ST/STM32L4xx_HAL_Driver/Src\stm32l4xx_hal_pwr_ex.c ****   
1020:C:/Users/²Ü¼ÒºÀ/.iotlink/sdk/IoT_LINK/drivers/third_party/ST/STM32L4xx_HAL_Driver/Src\stm32l4xx_hal_pwr_ex.c ****       /* Configure the edge */
1021:C:/Users/²Ü¼ÒºÀ/.iotlink/sdk/IoT_LINK/drivers/third_party/ST/STM32L4xx_HAL_Driver/Src\stm32l4xx_hal_pwr_ex.c ****       if((sConfigPVM->Mode & PVM_RISING_EDGE) == PVM_RISING_EDGE)
1022:C:/Users/²Ü¼ÒºÀ/.iotlink/sdk/IoT_LINK/drivers/third_party/ST/STM32L4xx_HAL_Driver/Src\stm32l4xx_hal_pwr_ex.c ****       {
1023:C:/Users/²Ü¼ÒºÀ/.iotlink/sdk/IoT_LINK/drivers/third_party/ST/STM32L4xx_HAL_Driver/Src\stm32l4xx_hal_pwr_ex.c ****         __HAL_PWR_PVM4_EXTI_ENABLE_RISING_EDGE();
1024:C:/Users/²Ü¼ÒºÀ/.iotlink/sdk/IoT_LINK/drivers/third_party/ST/STM32L4xx_HAL_Driver/Src\stm32l4xx_hal_pwr_ex.c ****       }
1025:C:/Users/²Ü¼ÒºÀ/.iotlink/sdk/IoT_LINK/drivers/third_party/ST/STM32L4xx_HAL_Driver/Src\stm32l4xx_hal_pwr_ex.c ****   
1026:C:/Users/²Ü¼ÒºÀ/.iotlink/sdk/IoT_LINK/drivers/third_party/ST/STM32L4xx_HAL_Driver/Src\stm32l4xx_hal_pwr_ex.c ****       if((sConfigPVM->Mode & PVM_FALLING_EDGE) == PVM_FALLING_EDGE)
1027:C:/Users/²Ü¼ÒºÀ/.iotlink/sdk/IoT_LINK/drivers/third_party/ST/STM32L4xx_HAL_Driver/Src\stm32l4xx_hal_pwr_ex.c ****       {
1028:C:/Users/²Ü¼ÒºÀ/.iotlink/sdk/IoT_LINK/drivers/third_party/ST/STM32L4xx_HAL_Driver/Src\stm32l4xx_hal_pwr_ex.c ****         __HAL_PWR_PVM4_EXTI_ENABLE_FALLING_EDGE();
1029:C:/Users/²Ü¼ÒºÀ/.iotlink/sdk/IoT_LINK/drivers/third_party/ST/STM32L4xx_HAL_Driver/Src\stm32l4xx_hal_pwr_ex.c ****       }
1030:C:/Users/²Ü¼ÒºÀ/.iotlink/sdk/IoT_LINK/drivers/third_party/ST/STM32L4xx_HAL_Driver/Src\stm32l4xx_hal_pwr_ex.c ****       break;  
1031:C:/Users/²Ü¼ÒºÀ/.iotlink/sdk/IoT_LINK/drivers/third_party/ST/STM32L4xx_HAL_Driver/Src\stm32l4xx_hal_pwr_ex.c ****       
1032:C:/Users/²Ü¼ÒºÀ/.iotlink/sdk/IoT_LINK/drivers/third_party/ST/STM32L4xx_HAL_Driver/Src\stm32l4xx_hal_pwr_ex.c ****     default:
1033:C:/Users/²Ü¼ÒºÀ/.iotlink/sdk/IoT_LINK/drivers/third_party/ST/STM32L4xx_HAL_Driver/Src\stm32l4xx_hal_pwr_ex.c ****       return HAL_ERROR;                      
1034:C:/Users/²Ü¼ÒºÀ/.iotlink/sdk/IoT_LINK/drivers/third_party/ST/STM32L4xx_HAL_Driver/Src\stm32l4xx_hal_pwr_ex.c ****     
1035:C:/Users/²Ü¼ÒºÀ/.iotlink/sdk/IoT_LINK/drivers/third_party/ST/STM32L4xx_HAL_Driver/Src\stm32l4xx_hal_pwr_ex.c ****   }   
1036:C:/Users/²Ü¼ÒºÀ/.iotlink/sdk/IoT_LINK/drivers/third_party/ST/STM32L4xx_HAL_Driver/Src\stm32l4xx_hal_pwr_ex.c **** 
1037:C:/Users/²Ü¼ÒºÀ/.iotlink/sdk/IoT_LINK/drivers/third_party/ST/STM32L4xx_HAL_Driver/Src\stm32l4xx_hal_pwr_ex.c ****   
1038:C:/Users/²Ü¼ÒºÀ/.iotlink/sdk/IoT_LINK/drivers/third_party/ST/STM32L4xx_HAL_Driver/Src\stm32l4xx_hal_pwr_ex.c ****   return HAL_OK;
 1123              		.loc 1 1038 10 view .LVU218
 1124 005a 0020     		movs	r0, #0
1039:C:/Users/²Ü¼ÒºÀ/.iotlink/sdk/IoT_LINK/drivers/third_party/ST/STM32L4xx_HAL_Driver/Src\stm32l4xx_hal_pwr_ex.c **** }
 1125              		.loc 1 1039 1 view .LVU219
 1126 005c 7047     		bx	lr
 1127              	.L118:
 997:C:/Users/²Ü¼ÒºÀ/.iotlink/sdk/IoT_LINK/drivers/third_party/ST/STM32L4xx_HAL_Driver/Src\stm32l4xx_hal_pwr_ex.c ****       }
ARM GAS  C:\Users\²Ü¼ÒºÀ\AppData\Local\Temp\cczPott0.s 			page 40


 1128              		.loc 1 997 9 is_stmt 1 view .LVU220
 1129 005e DA6A     		ldr	r2, [r3, #44]
 1130 0060 42F02002 		orr	r2, r2, #32
 1131              	.L145:
1028:C:/Users/²Ü¼ÒºÀ/.iotlink/sdk/IoT_LINK/drivers/third_party/ST/STM32L4xx_HAL_Driver/Src\stm32l4xx_hal_pwr_ex.c ****       }
 1132              		.loc 1 1028 9 is_stmt 0 view .LVU221
 1133 0064 DA62     		str	r2, [r3, #44]
 1134 0066 F8E7     		b	.L144
 1135              	.LVL76:
 1136              	.L113:
1003:C:/Users/²Ü¼ÒºÀ/.iotlink/sdk/IoT_LINK/drivers/third_party/ST/STM32L4xx_HAL_Driver/Src\stm32l4xx_hal_pwr_ex.c ****       __HAL_PWR_PVM4_EXTI_DISABLE_IT();
 1137              		.loc 1 1003 7 is_stmt 1 view .LVU222
 1138 0068 144B     		ldr	r3, .L146
 1139 006a 5A6A     		ldr	r2, [r3, #36]
 1140 006c 22F04002 		bic	r2, r2, #64
 1141 0070 5A62     		str	r2, [r3, #36]
1004:C:/Users/²Ü¼ÒºÀ/.iotlink/sdk/IoT_LINK/drivers/third_party/ST/STM32L4xx_HAL_Driver/Src\stm32l4xx_hal_pwr_ex.c ****       __HAL_PWR_PVM4_EXTI_DISABLE_FALLING_EDGE(); 
 1142              		.loc 1 1004 7 view .LVU223
 1143 0072 1A6A     		ldr	r2, [r3, #32]
 1144 0074 22F04002 		bic	r2, r2, #64
 1145 0078 1A62     		str	r2, [r3, #32]
1005:C:/Users/²Ü¼ÒºÀ/.iotlink/sdk/IoT_LINK/drivers/third_party/ST/STM32L4xx_HAL_Driver/Src\stm32l4xx_hal_pwr_ex.c ****       __HAL_PWR_PVM4_EXTI_DISABLE_RISING_EDGE();
 1146              		.loc 1 1005 7 view .LVU224
 1147 007a DA6A     		ldr	r2, [r3, #44]
 1148 007c 22F04002 		bic	r2, r2, #64
 1149 0080 DA62     		str	r2, [r3, #44]
1006:C:/Users/²Ü¼ÒºÀ/.iotlink/sdk/IoT_LINK/drivers/third_party/ST/STM32L4xx_HAL_Driver/Src\stm32l4xx_hal_pwr_ex.c **** 
 1150              		.loc 1 1006 7 view .LVU225
 1151 0082 9A6A     		ldr	r2, [r3, #40]
 1152 0084 22F04002 		bic	r2, r2, #64
 1153 0088 9A62     		str	r2, [r3, #40]
1009:C:/Users/²Ü¼ÒºÀ/.iotlink/sdk/IoT_LINK/drivers/third_party/ST/STM32L4xx_HAL_Driver/Src\stm32l4xx_hal_pwr_ex.c ****       {
 1154              		.loc 1 1009 7 view .LVU226
1009:C:/Users/²Ü¼ÒºÀ/.iotlink/sdk/IoT_LINK/drivers/third_party/ST/STM32L4xx_HAL_Driver/Src\stm32l4xx_hal_pwr_ex.c ****       {
 1155              		.loc 1 1009 21 is_stmt 0 view .LVU227
 1156 008a 4268     		ldr	r2, [r0, #4]
1009:C:/Users/²Ü¼ÒºÀ/.iotlink/sdk/IoT_LINK/drivers/third_party/ST/STM32L4xx_HAL_Driver/Src\stm32l4xx_hal_pwr_ex.c ****       {
 1157              		.loc 1 1009 9 view .LVU228
 1158 008c D103     		lsls	r1, r2, #15
1011:C:/Users/²Ü¼ÒºÀ/.iotlink/sdk/IoT_LINK/drivers/third_party/ST/STM32L4xx_HAL_Driver/Src\stm32l4xx_hal_pwr_ex.c ****       }
 1159              		.loc 1 1011 9 is_stmt 1 view .LVU229
 1160 008e 42BF     		ittt	mi
 1161 0090 196A     		ldrmi	r1, [r3, #32]
 1162 0092 41F04001 		orrmi	r1, r1, #64
 1163 0096 1962     		strmi	r1, [r3, #32]
1015:C:/Users/²Ü¼ÒºÀ/.iotlink/sdk/IoT_LINK/drivers/third_party/ST/STM32L4xx_HAL_Driver/Src\stm32l4xx_hal_pwr_ex.c ****       {
 1164              		.loc 1 1015 7 view .LVU230
1015:C:/Users/²Ü¼ÒºÀ/.iotlink/sdk/IoT_LINK/drivers/third_party/ST/STM32L4xx_HAL_Driver/Src\stm32l4xx_hal_pwr_ex.c ****       {
 1165              		.loc 1 1015 9 is_stmt 0 view .LVU231
 1166 0098 9003     		lsls	r0, r2, #14
 1167              	.LVL77:
1017:C:/Users/²Ü¼ÒºÀ/.iotlink/sdk/IoT_LINK/drivers/third_party/ST/STM32L4xx_HAL_Driver/Src\stm32l4xx_hal_pwr_ex.c ****       }
 1168              		.loc 1 1017 9 is_stmt 1 view .LVU232
 1169 009a 42BF     		ittt	mi
 1170 009c 596A     		ldrmi	r1, [r3, #36]
 1171 009e 41F04001 		orrmi	r1, r1, #64
 1172 00a2 5962     		strmi	r1, [r3, #36]
ARM GAS  C:\Users\²Ü¼ÒºÀ\AppData\Local\Temp\cczPott0.s 			page 41


1021:C:/Users/²Ü¼ÒºÀ/.iotlink/sdk/IoT_LINK/drivers/third_party/ST/STM32L4xx_HAL_Driver/Src\stm32l4xx_hal_pwr_ex.c ****       {
 1173              		.loc 1 1021 7 view .LVU233
1021:C:/Users/²Ü¼ÒºÀ/.iotlink/sdk/IoT_LINK/drivers/third_party/ST/STM32L4xx_HAL_Driver/Src\stm32l4xx_hal_pwr_ex.c ****       {
 1174              		.loc 1 1021 9 is_stmt 0 view .LVU234
 1175 00a4 D107     		lsls	r1, r2, #31
1023:C:/Users/²Ü¼ÒºÀ/.iotlink/sdk/IoT_LINK/drivers/third_party/ST/STM32L4xx_HAL_Driver/Src\stm32l4xx_hal_pwr_ex.c ****       }
 1176              		.loc 1 1023 9 is_stmt 1 view .LVU235
 1177 00a6 42BF     		ittt	mi
 1178 00a8 996A     		ldrmi	r1, [r3, #40]
 1179 00aa 41F04001 		orrmi	r1, r1, #64
 1180 00ae 9962     		strmi	r1, [r3, #40]
1026:C:/Users/²Ü¼ÒºÀ/.iotlink/sdk/IoT_LINK/drivers/third_party/ST/STM32L4xx_HAL_Driver/Src\stm32l4xx_hal_pwr_ex.c ****       {
 1181              		.loc 1 1026 7 view .LVU236
1026:C:/Users/²Ü¼ÒºÀ/.iotlink/sdk/IoT_LINK/drivers/third_party/ST/STM32L4xx_HAL_Driver/Src\stm32l4xx_hal_pwr_ex.c ****       {
 1182              		.loc 1 1026 9 is_stmt 0 view .LVU237
 1183 00b0 9207     		lsls	r2, r2, #30
 1184 00b2 D2D5     		bpl	.L144
1028:C:/Users/²Ü¼ÒºÀ/.iotlink/sdk/IoT_LINK/drivers/third_party/ST/STM32L4xx_HAL_Driver/Src\stm32l4xx_hal_pwr_ex.c ****       }
 1185              		.loc 1 1028 9 is_stmt 1 view .LVU238
 1186 00b4 DA6A     		ldr	r2, [r3, #44]
 1187 00b6 42F04002 		orr	r2, r2, #64
 1188 00ba D3E7     		b	.L145
 1189              	.L147:
 1190              		.align	2
 1191              	.L146:
 1192 00bc 00040140 		.word	1073808384
 1193              		.cfi_endproc
 1194              	.LFE305:
 1196              		.section	.text.HAL_PWREx_EnableLowPowerRunMode,"ax",%progbits
 1197              		.align	1
 1198              		.global	HAL_PWREx_EnableLowPowerRunMode
 1199              		.syntax unified
 1200              		.thumb
 1201              		.thumb_func
 1202              		.fpu fpv4-sp-d16
 1204              	HAL_PWREx_EnableLowPowerRunMode:
 1205              	.LFB306:
1040:C:/Users/²Ü¼ÒºÀ/.iotlink/sdk/IoT_LINK/drivers/third_party/ST/STM32L4xx_HAL_Driver/Src\stm32l4xx_hal_pwr_ex.c **** 
1041:C:/Users/²Ü¼ÒºÀ/.iotlink/sdk/IoT_LINK/drivers/third_party/ST/STM32L4xx_HAL_Driver/Src\stm32l4xx_hal_pwr_ex.c **** 
1042:C:/Users/²Ü¼ÒºÀ/.iotlink/sdk/IoT_LINK/drivers/third_party/ST/STM32L4xx_HAL_Driver/Src\stm32l4xx_hal_pwr_ex.c **** 
1043:C:/Users/²Ü¼ÒºÀ/.iotlink/sdk/IoT_LINK/drivers/third_party/ST/STM32L4xx_HAL_Driver/Src\stm32l4xx_hal_pwr_ex.c **** /**
1044:C:/Users/²Ü¼ÒºÀ/.iotlink/sdk/IoT_LINK/drivers/third_party/ST/STM32L4xx_HAL_Driver/Src\stm32l4xx_hal_pwr_ex.c ****   * @brief Enter Low-power Run mode
1045:C:/Users/²Ü¼ÒºÀ/.iotlink/sdk/IoT_LINK/drivers/third_party/ST/STM32L4xx_HAL_Driver/Src\stm32l4xx_hal_pwr_ex.c ****   * @note  In Low-power Run mode, all I/O pins keep the same state as in Run mode.  
1046:C:/Users/²Ü¼ÒºÀ/.iotlink/sdk/IoT_LINK/drivers/third_party/ST/STM32L4xx_HAL_Driver/Src\stm32l4xx_hal_pwr_ex.c ****   * @note  When Regulator is set to PWR_LOWPOWERREGULATOR_ON, the user can optionally configure the
1047:C:/Users/²Ü¼ÒºÀ/.iotlink/sdk/IoT_LINK/drivers/third_party/ST/STM32L4xx_HAL_Driver/Src\stm32l4xx_hal_pwr_ex.c ****   *        Flash in power-down monde in setting the RUN_PD bit in FLASH_ACR register.
1048:C:/Users/²Ü¼ÒºÀ/.iotlink/sdk/IoT_LINK/drivers/third_party/ST/STM32L4xx_HAL_Driver/Src\stm32l4xx_hal_pwr_ex.c ****   *        Additionally, the clock frequency must be reduced below 2 MHz.
1049:C:/Users/²Ü¼ÒºÀ/.iotlink/sdk/IoT_LINK/drivers/third_party/ST/STM32L4xx_HAL_Driver/Src\stm32l4xx_hal_pwr_ex.c ****   *        Setting RUN_PD in FLASH_ACR then appropriately reducing the clock frequency must 
1050:C:/Users/²Ü¼ÒºÀ/.iotlink/sdk/IoT_LINK/drivers/third_party/ST/STM32L4xx_HAL_Driver/Src\stm32l4xx_hal_pwr_ex.c ****   *        be done before calling HAL_PWREx_EnableLowPowerRunMode() API.     
1051:C:/Users/²Ü¼ÒºÀ/.iotlink/sdk/IoT_LINK/drivers/third_party/ST/STM32L4xx_HAL_Driver/Src\stm32l4xx_hal_pwr_ex.c ****   * @retval None
1052:C:/Users/²Ü¼ÒºÀ/.iotlink/sdk/IoT_LINK/drivers/third_party/ST/STM32L4xx_HAL_Driver/Src\stm32l4xx_hal_pwr_ex.c ****   */
1053:C:/Users/²Ü¼ÒºÀ/.iotlink/sdk/IoT_LINK/drivers/third_party/ST/STM32L4xx_HAL_Driver/Src\stm32l4xx_hal_pwr_ex.c **** void HAL_PWREx_EnableLowPowerRunMode(void)
1054:C:/Users/²Ü¼ÒºÀ/.iotlink/sdk/IoT_LINK/drivers/third_party/ST/STM32L4xx_HAL_Driver/Src\stm32l4xx_hal_pwr_ex.c **** {
 1206              		.loc 1 1054 1 view -0
 1207              		.cfi_startproc
 1208              		@ args = 0, pretend = 0, frame = 0
 1209              		@ frame_needed = 0, uses_anonymous_args = 0
 1210              		@ link register save eliminated.
ARM GAS  C:\Users\²Ü¼ÒºÀ\AppData\Local\Temp\cczPott0.s 			page 42


1055:C:/Users/²Ü¼ÒºÀ/.iotlink/sdk/IoT_LINK/drivers/third_party/ST/STM32L4xx_HAL_Driver/Src\stm32l4xx_hal_pwr_ex.c ****   /* Set Regulator parameter */
1056:C:/Users/²Ü¼ÒºÀ/.iotlink/sdk/IoT_LINK/drivers/third_party/ST/STM32L4xx_HAL_Driver/Src\stm32l4xx_hal_pwr_ex.c ****   SET_BIT(PWR->CR1, PWR_CR1_LPR); 
 1211              		.loc 1 1056 3 view .LVU240
 1212 0000 024A     		ldr	r2, .L149
 1213 0002 1368     		ldr	r3, [r2]
 1214 0004 43F48043 		orr	r3, r3, #16384
 1215 0008 1360     		str	r3, [r2]
1057:C:/Users/²Ü¼ÒºÀ/.iotlink/sdk/IoT_LINK/drivers/third_party/ST/STM32L4xx_HAL_Driver/Src\stm32l4xx_hal_pwr_ex.c **** }
 1216              		.loc 1 1057 1 is_stmt 0 view .LVU241
 1217 000a 7047     		bx	lr
 1218              	.L150:
 1219              		.align	2
 1220              	.L149:
 1221 000c 00700040 		.word	1073770496
 1222              		.cfi_endproc
 1223              	.LFE306:
 1225              		.section	.text.HAL_PWREx_DisableLowPowerRunMode,"ax",%progbits
 1226              		.align	1
 1227              		.global	HAL_PWREx_DisableLowPowerRunMode
 1228              		.syntax unified
 1229              		.thumb
 1230              		.thumb_func
 1231              		.fpu fpv4-sp-d16
 1233              	HAL_PWREx_DisableLowPowerRunMode:
 1234              	.LFB307:
1058:C:/Users/²Ü¼ÒºÀ/.iotlink/sdk/IoT_LINK/drivers/third_party/ST/STM32L4xx_HAL_Driver/Src\stm32l4xx_hal_pwr_ex.c **** 
1059:C:/Users/²Ü¼ÒºÀ/.iotlink/sdk/IoT_LINK/drivers/third_party/ST/STM32L4xx_HAL_Driver/Src\stm32l4xx_hal_pwr_ex.c **** 
1060:C:/Users/²Ü¼ÒºÀ/.iotlink/sdk/IoT_LINK/drivers/third_party/ST/STM32L4xx_HAL_Driver/Src\stm32l4xx_hal_pwr_ex.c **** /**
1061:C:/Users/²Ü¼ÒºÀ/.iotlink/sdk/IoT_LINK/drivers/third_party/ST/STM32L4xx_HAL_Driver/Src\stm32l4xx_hal_pwr_ex.c ****   * @brief Exit Low-power Run mode.
1062:C:/Users/²Ü¼ÒºÀ/.iotlink/sdk/IoT_LINK/drivers/third_party/ST/STM32L4xx_HAL_Driver/Src\stm32l4xx_hal_pwr_ex.c ****   * @note  Before HAL_PWREx_DisableLowPowerRunMode() completion, the function checks that 
1063:C:/Users/²Ü¼ÒºÀ/.iotlink/sdk/IoT_LINK/drivers/third_party/ST/STM32L4xx_HAL_Driver/Src\stm32l4xx_hal_pwr_ex.c ****   *        REGLPF has been properly reset (otherwise, HAL_PWREx_DisableLowPowerRunMode 
1064:C:/Users/²Ü¼ÒºÀ/.iotlink/sdk/IoT_LINK/drivers/third_party/ST/STM32L4xx_HAL_Driver/Src\stm32l4xx_hal_pwr_ex.c ****   *        returns HAL_TIMEOUT status). The system clock frequency can then be
1065:C:/Users/²Ü¼ÒºÀ/.iotlink/sdk/IoT_LINK/drivers/third_party/ST/STM32L4xx_HAL_Driver/Src\stm32l4xx_hal_pwr_ex.c ****   *        increased above 2 MHz.   
1066:C:/Users/²Ü¼ÒºÀ/.iotlink/sdk/IoT_LINK/drivers/third_party/ST/STM32L4xx_HAL_Driver/Src\stm32l4xx_hal_pwr_ex.c ****   * @retval HAL Status
1067:C:/Users/²Ü¼ÒºÀ/.iotlink/sdk/IoT_LINK/drivers/third_party/ST/STM32L4xx_HAL_Driver/Src\stm32l4xx_hal_pwr_ex.c ****   */
1068:C:/Users/²Ü¼ÒºÀ/.iotlink/sdk/IoT_LINK/drivers/third_party/ST/STM32L4xx_HAL_Driver/Src\stm32l4xx_hal_pwr_ex.c **** HAL_StatusTypeDef HAL_PWREx_DisableLowPowerRunMode(void)
1069:C:/Users/²Ü¼ÒºÀ/.iotlink/sdk/IoT_LINK/drivers/third_party/ST/STM32L4xx_HAL_Driver/Src\stm32l4xx_hal_pwr_ex.c **** {
 1235              		.loc 1 1069 1 is_stmt 1 view -0
 1236              		.cfi_startproc
 1237              		@ args = 0, pretend = 0, frame = 0
 1238              		@ frame_needed = 0, uses_anonymous_args = 0
 1239              		@ link register save eliminated.
1070:C:/Users/²Ü¼ÒºÀ/.iotlink/sdk/IoT_LINK/drivers/third_party/ST/STM32L4xx_HAL_Driver/Src\stm32l4xx_hal_pwr_ex.c ****   uint32_t wait_loop_index = 0;
 1240              		.loc 1 1070 3 view .LVU243
 1241              	.LVL78:
1071:C:/Users/²Ü¼ÒºÀ/.iotlink/sdk/IoT_LINK/drivers/third_party/ST/STM32L4xx_HAL_Driver/Src\stm32l4xx_hal_pwr_ex.c ****   
1072:C:/Users/²Ü¼ÒºÀ/.iotlink/sdk/IoT_LINK/drivers/third_party/ST/STM32L4xx_HAL_Driver/Src\stm32l4xx_hal_pwr_ex.c ****   /* Clear LPR bit */
1073:C:/Users/²Ü¼ÒºÀ/.iotlink/sdk/IoT_LINK/drivers/third_party/ST/STM32L4xx_HAL_Driver/Src\stm32l4xx_hal_pwr_ex.c ****   CLEAR_BIT(PWR->CR1, PWR_CR1_LPR); 
 1242              		.loc 1 1073 3 view .LVU244
 1243 0000 0C4B     		ldr	r3, .L161
1074:C:/Users/²Ü¼ÒºÀ/.iotlink/sdk/IoT_LINK/drivers/third_party/ST/STM32L4xx_HAL_Driver/Src\stm32l4xx_hal_pwr_ex.c **** 
1075:C:/Users/²Ü¼ÒºÀ/.iotlink/sdk/IoT_LINK/drivers/third_party/ST/STM32L4xx_HAL_Driver/Src\stm32l4xx_hal_pwr_ex.c ****   /* Wait until REGLPF is reset */
1076:C:/Users/²Ü¼ÒºÀ/.iotlink/sdk/IoT_LINK/drivers/third_party/ST/STM32L4xx_HAL_Driver/Src\stm32l4xx_hal_pwr_ex.c ****   wait_loop_index = (PWR_FLAG_SETTING_DELAY_US * (SystemCoreClock / 1000000));
 1244              		.loc 1 1076 67 is_stmt 0 view .LVU245
 1245 0002 0D49     		ldr	r1, .L161+4
1073:C:/Users/²Ü¼ÒºÀ/.iotlink/sdk/IoT_LINK/drivers/third_party/ST/STM32L4xx_HAL_Driver/Src\stm32l4xx_hal_pwr_ex.c **** 
 1246              		.loc 1 1073 3 view .LVU246
ARM GAS  C:\Users\²Ü¼ÒºÀ\AppData\Local\Temp\cczPott0.s 			page 43


 1247 0004 1A68     		ldr	r2, [r3]
 1248 0006 22F48042 		bic	r2, r2, #16384
 1249 000a 1A60     		str	r2, [r3]
 1250              		.loc 1 1076 3 is_stmt 1 view .LVU247
 1251              		.loc 1 1076 67 is_stmt 0 view .LVU248
 1252 000c 0B4A     		ldr	r2, .L161+8
 1253 000e 1268     		ldr	r2, [r2]
 1254 0010 B2FBF1F1 		udiv	r1, r2, r1
 1255              		.loc 1 1076 19 view .LVU249
 1256 0014 3222     		movs	r2, #50
 1257 0016 4A43     		muls	r2, r1, r2
 1258              	.LVL79:
1077:C:/Users/²Ü¼ÒºÀ/.iotlink/sdk/IoT_LINK/drivers/third_party/ST/STM32L4xx_HAL_Driver/Src\stm32l4xx_hal_pwr_ex.c ****   while ((wait_loop_index != 0) && (HAL_IS_BIT_SET(PWR->SR2, PWR_SR2_REGLPF)))
 1259              		.loc 1 1077 3 is_stmt 1 view .LVU250
 1260              	.L152:
 1261              		.loc 1 1077 9 view .LVU251
 1262 0018 12B1     		cbz	r2, .L153
 1263              		.loc 1 1077 37 is_stmt 0 discriminator 1 view .LVU252
 1264 001a 5969     		ldr	r1, [r3, #20]
 1265              		.loc 1 1077 33 discriminator 1 view .LVU253
 1266 001c 8905     		lsls	r1, r1, #22
 1267 001e 06D4     		bmi	.L154
 1268              	.L153:
1078:C:/Users/²Ü¼ÒºÀ/.iotlink/sdk/IoT_LINK/drivers/third_party/ST/STM32L4xx_HAL_Driver/Src\stm32l4xx_hal_pwr_ex.c ****   {
1079:C:/Users/²Ü¼ÒºÀ/.iotlink/sdk/IoT_LINK/drivers/third_party/ST/STM32L4xx_HAL_Driver/Src\stm32l4xx_hal_pwr_ex.c ****     wait_loop_index--;
1080:C:/Users/²Ü¼ÒºÀ/.iotlink/sdk/IoT_LINK/drivers/third_party/ST/STM32L4xx_HAL_Driver/Src\stm32l4xx_hal_pwr_ex.c ****   }
1081:C:/Users/²Ü¼ÒºÀ/.iotlink/sdk/IoT_LINK/drivers/third_party/ST/STM32L4xx_HAL_Driver/Src\stm32l4xx_hal_pwr_ex.c ****   if (HAL_IS_BIT_SET(PWR->SR2, PWR_SR2_REGLPF))
 1269              		.loc 1 1081 3 is_stmt 1 view .LVU254
 1270              		.loc 1 1081 7 is_stmt 0 view .LVU255
 1271 0020 5B69     		ldr	r3, [r3, #20]
1082:C:/Users/²Ü¼ÒºÀ/.iotlink/sdk/IoT_LINK/drivers/third_party/ST/STM32L4xx_HAL_Driver/Src\stm32l4xx_hal_pwr_ex.c ****   {
1083:C:/Users/²Ü¼ÒºÀ/.iotlink/sdk/IoT_LINK/drivers/third_party/ST/STM32L4xx_HAL_Driver/Src\stm32l4xx_hal_pwr_ex.c ****     return HAL_TIMEOUT;
 1272              		.loc 1 1083 12 view .LVU256
 1273 0022 13F4007F 		tst	r3, #512
1084:C:/Users/²Ü¼ÒºÀ/.iotlink/sdk/IoT_LINK/drivers/third_party/ST/STM32L4xx_HAL_Driver/Src\stm32l4xx_hal_pwr_ex.c ****   }
1085:C:/Users/²Ü¼ÒºÀ/.iotlink/sdk/IoT_LINK/drivers/third_party/ST/STM32L4xx_HAL_Driver/Src\stm32l4xx_hal_pwr_ex.c ****   
1086:C:/Users/²Ü¼ÒºÀ/.iotlink/sdk/IoT_LINK/drivers/third_party/ST/STM32L4xx_HAL_Driver/Src\stm32l4xx_hal_pwr_ex.c ****   return HAL_OK;
1087:C:/Users/²Ü¼ÒºÀ/.iotlink/sdk/IoT_LINK/drivers/third_party/ST/STM32L4xx_HAL_Driver/Src\stm32l4xx_hal_pwr_ex.c **** }
 1274              		.loc 1 1087 1 view .LVU257
 1275 0026 14BF     		ite	ne
 1276 0028 0320     		movne	r0, #3
 1277 002a 0020     		moveq	r0, #0
 1278 002c 7047     		bx	lr
 1279              	.L154:
1079:C:/Users/²Ü¼ÒºÀ/.iotlink/sdk/IoT_LINK/drivers/third_party/ST/STM32L4xx_HAL_Driver/Src\stm32l4xx_hal_pwr_ex.c ****   }
 1280              		.loc 1 1079 5 is_stmt 1 view .LVU258
1079:C:/Users/²Ü¼ÒºÀ/.iotlink/sdk/IoT_LINK/drivers/third_party/ST/STM32L4xx_HAL_Driver/Src\stm32l4xx_hal_pwr_ex.c ****   }
 1281              		.loc 1 1079 20 is_stmt 0 view .LVU259
 1282 002e 013A     		subs	r2, r2, #1
 1283              	.LVL80:
1079:C:/Users/²Ü¼ÒºÀ/.iotlink/sdk/IoT_LINK/drivers/third_party/ST/STM32L4xx_HAL_Driver/Src\stm32l4xx_hal_pwr_ex.c ****   }
 1284              		.loc 1 1079 20 view .LVU260
 1285 0030 F2E7     		b	.L152
 1286              	.L162:
 1287 0032 00BF     		.align	2
 1288              	.L161:
 1289 0034 00700040 		.word	1073770496
ARM GAS  C:\Users\²Ü¼ÒºÀ\AppData\Local\Temp\cczPott0.s 			page 44


 1290 0038 40420F00 		.word	1000000
 1291 003c 00000000 		.word	SystemCoreClock
 1292              		.cfi_endproc
 1293              	.LFE307:
 1295              		.section	.text.HAL_PWREx_EnterSTOP0Mode,"ax",%progbits
 1296              		.align	1
 1297              		.global	HAL_PWREx_EnterSTOP0Mode
 1298              		.syntax unified
 1299              		.thumb
 1300              		.thumb_func
 1301              		.fpu fpv4-sp-d16
 1303              	HAL_PWREx_EnterSTOP0Mode:
 1304              	.LVL81:
 1305              	.LFB308:
1088:C:/Users/²Ü¼ÒºÀ/.iotlink/sdk/IoT_LINK/drivers/third_party/ST/STM32L4xx_HAL_Driver/Src\stm32l4xx_hal_pwr_ex.c **** 
1089:C:/Users/²Ü¼ÒºÀ/.iotlink/sdk/IoT_LINK/drivers/third_party/ST/STM32L4xx_HAL_Driver/Src\stm32l4xx_hal_pwr_ex.c **** 
1090:C:/Users/²Ü¼ÒºÀ/.iotlink/sdk/IoT_LINK/drivers/third_party/ST/STM32L4xx_HAL_Driver/Src\stm32l4xx_hal_pwr_ex.c **** /**
1091:C:/Users/²Ü¼ÒºÀ/.iotlink/sdk/IoT_LINK/drivers/third_party/ST/STM32L4xx_HAL_Driver/Src\stm32l4xx_hal_pwr_ex.c ****   * @brief Enter Stop 0 mode.
1092:C:/Users/²Ü¼ÒºÀ/.iotlink/sdk/IoT_LINK/drivers/third_party/ST/STM32L4xx_HAL_Driver/Src\stm32l4xx_hal_pwr_ex.c ****   * @note  In Stop 0 mode, main and low voltage regulators are ON.
1093:C:/Users/²Ü¼ÒºÀ/.iotlink/sdk/IoT_LINK/drivers/third_party/ST/STM32L4xx_HAL_Driver/Src\stm32l4xx_hal_pwr_ex.c ****   * @note  In Stop 0 mode, all I/O pins keep the same state as in Run mode.
1094:C:/Users/²Ü¼ÒºÀ/.iotlink/sdk/IoT_LINK/drivers/third_party/ST/STM32L4xx_HAL_Driver/Src\stm32l4xx_hal_pwr_ex.c ****   * @note  All clocks in the VCORE domain are stopped; the PLL, the MSI, 
1095:C:/Users/²Ü¼ÒºÀ/.iotlink/sdk/IoT_LINK/drivers/third_party/ST/STM32L4xx_HAL_Driver/Src\stm32l4xx_hal_pwr_ex.c ****   *        the HSI and the HSE oscillators are disabled. Some peripherals with the wakeup capabilit
1096:C:/Users/²Ü¼ÒºÀ/.iotlink/sdk/IoT_LINK/drivers/third_party/ST/STM32L4xx_HAL_Driver/Src\stm32l4xx_hal_pwr_ex.c ****   *        (I2Cx, USARTx and LPUART) can switch on the HSI to receive a frame, and switch off the H
1097:C:/Users/²Ü¼ÒºÀ/.iotlink/sdk/IoT_LINK/drivers/third_party/ST/STM32L4xx_HAL_Driver/Src\stm32l4xx_hal_pwr_ex.c ****   *        after receiving the frame if it is not a wakeup frame. In this case, the HSI clock is pr
1098:C:/Users/²Ü¼ÒºÀ/.iotlink/sdk/IoT_LINK/drivers/third_party/ST/STM32L4xx_HAL_Driver/Src\stm32l4xx_hal_pwr_ex.c ****   *        only to the peripheral requesting it.
1099:C:/Users/²Ü¼ÒºÀ/.iotlink/sdk/IoT_LINK/drivers/third_party/ST/STM32L4xx_HAL_Driver/Src\stm32l4xx_hal_pwr_ex.c ****   *        SRAM1, SRAM2 and register contents are preserved.
1100:C:/Users/²Ü¼ÒºÀ/.iotlink/sdk/IoT_LINK/drivers/third_party/ST/STM32L4xx_HAL_Driver/Src\stm32l4xx_hal_pwr_ex.c ****   *        The BOR is available.
1101:C:/Users/²Ü¼ÒºÀ/.iotlink/sdk/IoT_LINK/drivers/third_party/ST/STM32L4xx_HAL_Driver/Src\stm32l4xx_hal_pwr_ex.c ****   * @note  When exiting Stop 0 mode by issuing an interrupt or a wakeup event,
1102:C:/Users/²Ü¼ÒºÀ/.iotlink/sdk/IoT_LINK/drivers/third_party/ST/STM32L4xx_HAL_Driver/Src\stm32l4xx_hal_pwr_ex.c ****   *         the HSI RC oscillator is selected as system clock if STOPWUCK bit in RCC_CFGR register
1103:C:/Users/²Ü¼ÒºÀ/.iotlink/sdk/IoT_LINK/drivers/third_party/ST/STM32L4xx_HAL_Driver/Src\stm32l4xx_hal_pwr_ex.c ****   *         is set; the MSI oscillator is selected if STOPWUCK is cleared.  
1104:C:/Users/²Ü¼ÒºÀ/.iotlink/sdk/IoT_LINK/drivers/third_party/ST/STM32L4xx_HAL_Driver/Src\stm32l4xx_hal_pwr_ex.c ****   * @note  By keeping the internal regulator ON during Stop 0 mode, the consumption
1105:C:/Users/²Ü¼ÒºÀ/.iotlink/sdk/IoT_LINK/drivers/third_party/ST/STM32L4xx_HAL_Driver/Src\stm32l4xx_hal_pwr_ex.c ****   *         is higher although the startup time is reduced.
1106:C:/Users/²Ü¼ÒºÀ/.iotlink/sdk/IoT_LINK/drivers/third_party/ST/STM32L4xx_HAL_Driver/Src\stm32l4xx_hal_pwr_ex.c ****   * @param STOPEntry  specifies if Stop mode in entered with WFI or WFE instruction.
1107:C:/Users/²Ü¼ÒºÀ/.iotlink/sdk/IoT_LINK/drivers/third_party/ST/STM32L4xx_HAL_Driver/Src\stm32l4xx_hal_pwr_ex.c ****   *          This parameter can be one of the following values:
1108:C:/Users/²Ü¼ÒºÀ/.iotlink/sdk/IoT_LINK/drivers/third_party/ST/STM32L4xx_HAL_Driver/Src\stm32l4xx_hal_pwr_ex.c ****   *            @arg @ref PWR_STOPENTRY_WFI  Enter Stop mode with WFI instruction
1109:C:/Users/²Ü¼ÒºÀ/.iotlink/sdk/IoT_LINK/drivers/third_party/ST/STM32L4xx_HAL_Driver/Src\stm32l4xx_hal_pwr_ex.c ****   *            @arg @ref PWR_STOPENTRY_WFE  Enter Stop mode with WFE instruction
1110:C:/Users/²Ü¼ÒºÀ/.iotlink/sdk/IoT_LINK/drivers/third_party/ST/STM32L4xx_HAL_Driver/Src\stm32l4xx_hal_pwr_ex.c ****   * @retval None
1111:C:/Users/²Ü¼ÒºÀ/.iotlink/sdk/IoT_LINK/drivers/third_party/ST/STM32L4xx_HAL_Driver/Src\stm32l4xx_hal_pwr_ex.c ****   */
1112:C:/Users/²Ü¼ÒºÀ/.iotlink/sdk/IoT_LINK/drivers/third_party/ST/STM32L4xx_HAL_Driver/Src\stm32l4xx_hal_pwr_ex.c **** void HAL_PWREx_EnterSTOP0Mode(uint8_t STOPEntry)
1113:C:/Users/²Ü¼ÒºÀ/.iotlink/sdk/IoT_LINK/drivers/third_party/ST/STM32L4xx_HAL_Driver/Src\stm32l4xx_hal_pwr_ex.c **** {
 1306              		.loc 1 1113 1 is_stmt 1 view -0
 1307              		.cfi_startproc
 1308              		@ args = 0, pretend = 0, frame = 0
 1309              		@ frame_needed = 0, uses_anonymous_args = 0
 1310              		@ link register save eliminated.
1114:C:/Users/²Ü¼ÒºÀ/.iotlink/sdk/IoT_LINK/drivers/third_party/ST/STM32L4xx_HAL_Driver/Src\stm32l4xx_hal_pwr_ex.c ****   /* Check the parameters */
1115:C:/Users/²Ü¼ÒºÀ/.iotlink/sdk/IoT_LINK/drivers/third_party/ST/STM32L4xx_HAL_Driver/Src\stm32l4xx_hal_pwr_ex.c ****   assert_param(IS_PWR_STOP_ENTRY(STOPEntry));
 1311              		.loc 1 1115 3 view .LVU262
1116:C:/Users/²Ü¼ÒºÀ/.iotlink/sdk/IoT_LINK/drivers/third_party/ST/STM32L4xx_HAL_Driver/Src\stm32l4xx_hal_pwr_ex.c ****     
1117:C:/Users/²Ü¼ÒºÀ/.iotlink/sdk/IoT_LINK/drivers/third_party/ST/STM32L4xx_HAL_Driver/Src\stm32l4xx_hal_pwr_ex.c ****   /* Stop 0 mode with Main Regulator */
1118:C:/Users/²Ü¼ÒºÀ/.iotlink/sdk/IoT_LINK/drivers/third_party/ST/STM32L4xx_HAL_Driver/Src\stm32l4xx_hal_pwr_ex.c ****   MODIFY_REG(PWR->CR1, PWR_CR1_LPMS, PWR_CR1_LPMS_STOP0);
 1312              		.loc 1 1118 3 view .LVU263
 1313 0000 0A4A     		ldr	r2, .L166
 1314 0002 1368     		ldr	r3, [r2]
 1315 0004 23F00703 		bic	r3, r3, #7
 1316 0008 1360     		str	r3, [r2]
1119:C:/Users/²Ü¼ÒºÀ/.iotlink/sdk/IoT_LINK/drivers/third_party/ST/STM32L4xx_HAL_Driver/Src\stm32l4xx_hal_pwr_ex.c **** 
ARM GAS  C:\Users\²Ü¼ÒºÀ\AppData\Local\Temp\cczPott0.s 			page 45


1120:C:/Users/²Ü¼ÒºÀ/.iotlink/sdk/IoT_LINK/drivers/third_party/ST/STM32L4xx_HAL_Driver/Src\stm32l4xx_hal_pwr_ex.c ****   /* Set SLEEPDEEP bit of Cortex System Control Register */
1121:C:/Users/²Ü¼ÒºÀ/.iotlink/sdk/IoT_LINK/drivers/third_party/ST/STM32L4xx_HAL_Driver/Src\stm32l4xx_hal_pwr_ex.c ****   SET_BIT(SCB->SCR, ((uint32_t)SCB_SCR_SLEEPDEEP_Msk));
 1317              		.loc 1 1121 3 view .LVU264
 1318 000a 094B     		ldr	r3, .L166+4
 1319 000c 1A69     		ldr	r2, [r3, #16]
1122:C:/Users/²Ü¼ÒºÀ/.iotlink/sdk/IoT_LINK/drivers/third_party/ST/STM32L4xx_HAL_Driver/Src\stm32l4xx_hal_pwr_ex.c **** 
1123:C:/Users/²Ü¼ÒºÀ/.iotlink/sdk/IoT_LINK/drivers/third_party/ST/STM32L4xx_HAL_Driver/Src\stm32l4xx_hal_pwr_ex.c ****   /* Select Stop mode entry --------------------------------------------------*/
1124:C:/Users/²Ü¼ÒºÀ/.iotlink/sdk/IoT_LINK/drivers/third_party/ST/STM32L4xx_HAL_Driver/Src\stm32l4xx_hal_pwr_ex.c ****   if(STOPEntry == PWR_STOPENTRY_WFI)
 1320              		.loc 1 1124 5 is_stmt 0 view .LVU265
 1321 000e 0128     		cmp	r0, #1
1121:C:/Users/²Ü¼ÒºÀ/.iotlink/sdk/IoT_LINK/drivers/third_party/ST/STM32L4xx_HAL_Driver/Src\stm32l4xx_hal_pwr_ex.c **** 
 1322              		.loc 1 1121 3 view .LVU266
 1323 0010 42F00402 		orr	r2, r2, #4
 1324 0014 1A61     		str	r2, [r3, #16]
 1325              		.loc 1 1124 3 is_stmt 1 view .LVU267
 1326              		.loc 1 1124 5 is_stmt 0 view .LVU268
 1327 0016 05D1     		bne	.L164
1125:C:/Users/²Ü¼ÒºÀ/.iotlink/sdk/IoT_LINK/drivers/third_party/ST/STM32L4xx_HAL_Driver/Src\stm32l4xx_hal_pwr_ex.c ****   {
1126:C:/Users/²Ü¼ÒºÀ/.iotlink/sdk/IoT_LINK/drivers/third_party/ST/STM32L4xx_HAL_Driver/Src\stm32l4xx_hal_pwr_ex.c ****     /* Request Wait For Interrupt */
1127:C:/Users/²Ü¼ÒºÀ/.iotlink/sdk/IoT_LINK/drivers/third_party/ST/STM32L4xx_HAL_Driver/Src\stm32l4xx_hal_pwr_ex.c ****     __WFI();
 1328              		.loc 1 1127 5 is_stmt 1 view .LVU269
 1329              		.syntax unified
 1330              	@ 1127 "C:/Users/²Ü¼ÒºÀ/.iotlink/sdk/IoT_LINK/drivers/third_party/ST/STM32L4xx_HAL_Driver/Src/stm32
 1331 0018 30BF     		wfi
 1332              	@ 0 "" 2
 1333              		.thumb
 1334              		.syntax unified
 1335              	.L165:
1128:C:/Users/²Ü¼ÒºÀ/.iotlink/sdk/IoT_LINK/drivers/third_party/ST/STM32L4xx_HAL_Driver/Src\stm32l4xx_hal_pwr_ex.c ****   }
1129:C:/Users/²Ü¼ÒºÀ/.iotlink/sdk/IoT_LINK/drivers/third_party/ST/STM32L4xx_HAL_Driver/Src\stm32l4xx_hal_pwr_ex.c ****   else
1130:C:/Users/²Ü¼ÒºÀ/.iotlink/sdk/IoT_LINK/drivers/third_party/ST/STM32L4xx_HAL_Driver/Src\stm32l4xx_hal_pwr_ex.c ****   {
1131:C:/Users/²Ü¼ÒºÀ/.iotlink/sdk/IoT_LINK/drivers/third_party/ST/STM32L4xx_HAL_Driver/Src\stm32l4xx_hal_pwr_ex.c ****     /* Request Wait For Event */
1132:C:/Users/²Ü¼ÒºÀ/.iotlink/sdk/IoT_LINK/drivers/third_party/ST/STM32L4xx_HAL_Driver/Src\stm32l4xx_hal_pwr_ex.c ****     __SEV();
1133:C:/Users/²Ü¼ÒºÀ/.iotlink/sdk/IoT_LINK/drivers/third_party/ST/STM32L4xx_HAL_Driver/Src\stm32l4xx_hal_pwr_ex.c ****     __WFE();
1134:C:/Users/²Ü¼ÒºÀ/.iotlink/sdk/IoT_LINK/drivers/third_party/ST/STM32L4xx_HAL_Driver/Src\stm32l4xx_hal_pwr_ex.c ****     __WFE();
1135:C:/Users/²Ü¼ÒºÀ/.iotlink/sdk/IoT_LINK/drivers/third_party/ST/STM32L4xx_HAL_Driver/Src\stm32l4xx_hal_pwr_ex.c ****   }
1136:C:/Users/²Ü¼ÒºÀ/.iotlink/sdk/IoT_LINK/drivers/third_party/ST/STM32L4xx_HAL_Driver/Src\stm32l4xx_hal_pwr_ex.c **** 
1137:C:/Users/²Ü¼ÒºÀ/.iotlink/sdk/IoT_LINK/drivers/third_party/ST/STM32L4xx_HAL_Driver/Src\stm32l4xx_hal_pwr_ex.c ****   /* Reset SLEEPDEEP bit of Cortex System Control Register */
1138:C:/Users/²Ü¼ÒºÀ/.iotlink/sdk/IoT_LINK/drivers/third_party/ST/STM32L4xx_HAL_Driver/Src\stm32l4xx_hal_pwr_ex.c ****   CLEAR_BIT(SCB->SCR, ((uint32_t)SCB_SCR_SLEEPDEEP_Msk));
 1336              		.loc 1 1138 3 view .LVU270
 1337 001a 1A69     		ldr	r2, [r3, #16]
 1338 001c 22F00402 		bic	r2, r2, #4
 1339 0020 1A61     		str	r2, [r3, #16]
1139:C:/Users/²Ü¼ÒºÀ/.iotlink/sdk/IoT_LINK/drivers/third_party/ST/STM32L4xx_HAL_Driver/Src\stm32l4xx_hal_pwr_ex.c **** }
 1340              		.loc 1 1139 1 is_stmt 0 view .LVU271
 1341 0022 7047     		bx	lr
 1342              	.L164:
1132:C:/Users/²Ü¼ÒºÀ/.iotlink/sdk/IoT_LINK/drivers/third_party/ST/STM32L4xx_HAL_Driver/Src\stm32l4xx_hal_pwr_ex.c ****     __WFE();
 1343              		.loc 1 1132 5 is_stmt 1 view .LVU272
 1344              		.syntax unified
 1345              	@ 1132 "C:/Users/²Ü¼ÒºÀ/.iotlink/sdk/IoT_LINK/drivers/third_party/ST/STM32L4xx_HAL_Driver/Src/stm32
 1346 0024 40BF     		sev
 1347              	@ 0 "" 2
1133:C:/Users/²Ü¼ÒºÀ/.iotlink/sdk/IoT_LINK/drivers/third_party/ST/STM32L4xx_HAL_Driver/Src\stm32l4xx_hal_pwr_ex.c ****     __WFE();
 1348              		.loc 1 1133 5 view .LVU273
 1349              	@ 1133 "C:/Users/²Ü¼ÒºÀ/.iotlink/sdk/IoT_LINK/drivers/third_party/ST/STM32L4xx_HAL_Driver/Src/stm32
 1350 0026 20BF     		wfe
ARM GAS  C:\Users\²Ü¼ÒºÀ\AppData\Local\Temp\cczPott0.s 			page 46


 1351              	@ 0 "" 2
1134:C:/Users/²Ü¼ÒºÀ/.iotlink/sdk/IoT_LINK/drivers/third_party/ST/STM32L4xx_HAL_Driver/Src\stm32l4xx_hal_pwr_ex.c ****   }
 1352              		.loc 1 1134 5 view .LVU274
 1353              	@ 1134 "C:/Users/²Ü¼ÒºÀ/.iotlink/sdk/IoT_LINK/drivers/third_party/ST/STM32L4xx_HAL_Driver/Src/stm32
 1354 0028 20BF     		wfe
 1355              	@ 0 "" 2
 1356              		.thumb
 1357              		.syntax unified
 1358 002a F6E7     		b	.L165
 1359              	.L167:
 1360              		.align	2
 1361              	.L166:
 1362 002c 00700040 		.word	1073770496
 1363 0030 00ED00E0 		.word	-536810240
 1364              		.cfi_endproc
 1365              	.LFE308:
 1367              		.section	.text.HAL_PWREx_EnterSTOP1Mode,"ax",%progbits
 1368              		.align	1
 1369              		.global	HAL_PWREx_EnterSTOP1Mode
 1370              		.syntax unified
 1371              		.thumb
 1372              		.thumb_func
 1373              		.fpu fpv4-sp-d16
 1375              	HAL_PWREx_EnterSTOP1Mode:
 1376              	.LVL82:
 1377              	.LFB309:
1140:C:/Users/²Ü¼ÒºÀ/.iotlink/sdk/IoT_LINK/drivers/third_party/ST/STM32L4xx_HAL_Driver/Src\stm32l4xx_hal_pwr_ex.c **** 
1141:C:/Users/²Ü¼ÒºÀ/.iotlink/sdk/IoT_LINK/drivers/third_party/ST/STM32L4xx_HAL_Driver/Src\stm32l4xx_hal_pwr_ex.c **** 
1142:C:/Users/²Ü¼ÒºÀ/.iotlink/sdk/IoT_LINK/drivers/third_party/ST/STM32L4xx_HAL_Driver/Src\stm32l4xx_hal_pwr_ex.c **** /**
1143:C:/Users/²Ü¼ÒºÀ/.iotlink/sdk/IoT_LINK/drivers/third_party/ST/STM32L4xx_HAL_Driver/Src\stm32l4xx_hal_pwr_ex.c ****   * @brief Enter Stop 1 mode.
1144:C:/Users/²Ü¼ÒºÀ/.iotlink/sdk/IoT_LINK/drivers/third_party/ST/STM32L4xx_HAL_Driver/Src\stm32l4xx_hal_pwr_ex.c ****   * @note  In Stop 1 mode, only low power voltage regulator is ON.
1145:C:/Users/²Ü¼ÒºÀ/.iotlink/sdk/IoT_LINK/drivers/third_party/ST/STM32L4xx_HAL_Driver/Src\stm32l4xx_hal_pwr_ex.c ****   * @note  In Stop 1 mode, all I/O pins keep the same state as in Run mode.
1146:C:/Users/²Ü¼ÒºÀ/.iotlink/sdk/IoT_LINK/drivers/third_party/ST/STM32L4xx_HAL_Driver/Src\stm32l4xx_hal_pwr_ex.c ****   * @note  All clocks in the VCORE domain are stopped; the PLL, the MSI, 
1147:C:/Users/²Ü¼ÒºÀ/.iotlink/sdk/IoT_LINK/drivers/third_party/ST/STM32L4xx_HAL_Driver/Src\stm32l4xx_hal_pwr_ex.c ****   *        the HSI and the HSE oscillators are disabled. Some peripherals with the wakeup capabilit
1148:C:/Users/²Ü¼ÒºÀ/.iotlink/sdk/IoT_LINK/drivers/third_party/ST/STM32L4xx_HAL_Driver/Src\stm32l4xx_hal_pwr_ex.c ****   *        (I2Cx, USARTx and LPUART) can switch on the HSI to receive a frame, and switch off the H
1149:C:/Users/²Ü¼ÒºÀ/.iotlink/sdk/IoT_LINK/drivers/third_party/ST/STM32L4xx_HAL_Driver/Src\stm32l4xx_hal_pwr_ex.c ****   *        after receiving the frame if it is not a wakeup frame. In this case, the HSI clock is pr
1150:C:/Users/²Ü¼ÒºÀ/.iotlink/sdk/IoT_LINK/drivers/third_party/ST/STM32L4xx_HAL_Driver/Src\stm32l4xx_hal_pwr_ex.c ****   *        only to the peripheral requesting it.
1151:C:/Users/²Ü¼ÒºÀ/.iotlink/sdk/IoT_LINK/drivers/third_party/ST/STM32L4xx_HAL_Driver/Src\stm32l4xx_hal_pwr_ex.c ****   *        SRAM1, SRAM2 and register contents are preserved.
1152:C:/Users/²Ü¼ÒºÀ/.iotlink/sdk/IoT_LINK/drivers/third_party/ST/STM32L4xx_HAL_Driver/Src\stm32l4xx_hal_pwr_ex.c ****   *        The BOR is available.
1153:C:/Users/²Ü¼ÒºÀ/.iotlink/sdk/IoT_LINK/drivers/third_party/ST/STM32L4xx_HAL_Driver/Src\stm32l4xx_hal_pwr_ex.c ****   * @note  When exiting Stop 1 mode by issuing an interrupt or a wakeup event,
1154:C:/Users/²Ü¼ÒºÀ/.iotlink/sdk/IoT_LINK/drivers/third_party/ST/STM32L4xx_HAL_Driver/Src\stm32l4xx_hal_pwr_ex.c ****   *         the HSI RC oscillator is selected as system clock if STOPWUCK bit in RCC_CFGR register
1155:C:/Users/²Ü¼ÒºÀ/.iotlink/sdk/IoT_LINK/drivers/third_party/ST/STM32L4xx_HAL_Driver/Src\stm32l4xx_hal_pwr_ex.c ****   *         is set; the MSI oscillator is selected if STOPWUCK is cleared.  
1156:C:/Users/²Ü¼ÒºÀ/.iotlink/sdk/IoT_LINK/drivers/third_party/ST/STM32L4xx_HAL_Driver/Src\stm32l4xx_hal_pwr_ex.c ****   * @note  Due to low power mode, an additional startup delay is incurred when waking up from Stop 
1157:C:/Users/²Ü¼ÒºÀ/.iotlink/sdk/IoT_LINK/drivers/third_party/ST/STM32L4xx_HAL_Driver/Src\stm32l4xx_hal_pwr_ex.c ****   * @param STOPEntry  specifies if Stop mode in entered with WFI or WFE instruction.
1158:C:/Users/²Ü¼ÒºÀ/.iotlink/sdk/IoT_LINK/drivers/third_party/ST/STM32L4xx_HAL_Driver/Src\stm32l4xx_hal_pwr_ex.c ****   *          This parameter can be one of the following values:
1159:C:/Users/²Ü¼ÒºÀ/.iotlink/sdk/IoT_LINK/drivers/third_party/ST/STM32L4xx_HAL_Driver/Src\stm32l4xx_hal_pwr_ex.c ****   *            @arg @ref PWR_STOPENTRY_WFI  Enter Stop mode with WFI instruction
1160:C:/Users/²Ü¼ÒºÀ/.iotlink/sdk/IoT_LINK/drivers/third_party/ST/STM32L4xx_HAL_Driver/Src\stm32l4xx_hal_pwr_ex.c ****   *            @arg @ref PWR_STOPENTRY_WFE  Enter Stop mode with WFE instruction
1161:C:/Users/²Ü¼ÒºÀ/.iotlink/sdk/IoT_LINK/drivers/third_party/ST/STM32L4xx_HAL_Driver/Src\stm32l4xx_hal_pwr_ex.c ****   * @retval None
1162:C:/Users/²Ü¼ÒºÀ/.iotlink/sdk/IoT_LINK/drivers/third_party/ST/STM32L4xx_HAL_Driver/Src\stm32l4xx_hal_pwr_ex.c ****   */
1163:C:/Users/²Ü¼ÒºÀ/.iotlink/sdk/IoT_LINK/drivers/third_party/ST/STM32L4xx_HAL_Driver/Src\stm32l4xx_hal_pwr_ex.c **** void HAL_PWREx_EnterSTOP1Mode(uint8_t STOPEntry)
1164:C:/Users/²Ü¼ÒºÀ/.iotlink/sdk/IoT_LINK/drivers/third_party/ST/STM32L4xx_HAL_Driver/Src\stm32l4xx_hal_pwr_ex.c **** {
 1378              		.loc 1 1164 1 view -0
 1379              		.cfi_startproc
 1380              		@ args = 0, pretend = 0, frame = 0
 1381              		@ frame_needed = 0, uses_anonymous_args = 0
 1382              		@ link register save eliminated.
