ARM GAS  C:\Users\²Ü¼ÒºÀ\AppData\Local\Temp\cczrlpTg.s 			page 1


   1              		.cpu cortex-m4
   2              		.eabi_attribute 27, 1
   3              		.eabi_attribute 28, 1
   4              		.eabi_attribute 20, 1
   5              		.eabi_attribute 21, 1
   6              		.eabi_attribute 23, 3
   7              		.eabi_attribute 24, 1
   8              		.eabi_attribute 25, 1
   9              		.eabi_attribute 26, 1
  10              		.eabi_attribute 30, 4
  11              		.eabi_attribute 34, 1
  12              		.eabi_attribute 18, 4
  13              		.file	"er-coap-13.c"
  14              		.text
  15              	.Ltext0:
  16              		.cfi_sections	.debug_frame
  17              		.section	.text.coap_parse_int_option,"ax",%progbits
  18              		.align	1
  19              		.arch armv7e-m
  20              		.syntax unified
  21              		.thumb
  22              		.thumb_func
  23              		.fpu fpv4-sp-d16
  25              	coap_parse_int_option:
  26              	.LVL0:
  27              	.LFB5:
  28              		.file 1 "C:/Users/\262\334\274\322\272\300/.iotlink/sdk/IoT_LINK/iot_link/network/lwm2m/wakaama_lw
   1:C:/Users/²Ü¼ÒºÀ/.iotlink/sdk/IoT_LINK/iot_link/network/lwm2m/wakaama_lwm2m/wakaama-master/core/er-coap-13\er-coap-13.c **** /*----------------------------------------------------------------------------
   2:C:/Users/²Ü¼ÒºÀ/.iotlink/sdk/IoT_LINK/iot_link/network/lwm2m/wakaama_lwm2m/wakaama-master/core/er-coap-13\er-coap-13.c ****  * Copyright (c) <2016-2018>, <Huawei Technologies Co., Ltd>
   3:C:/Users/²Ü¼ÒºÀ/.iotlink/sdk/IoT_LINK/iot_link/network/lwm2m/wakaama_lwm2m/wakaama-master/core/er-coap-13\er-coap-13.c ****  * All rights reserved.
   4:C:/Users/²Ü¼ÒºÀ/.iotlink/sdk/IoT_LINK/iot_link/network/lwm2m/wakaama_lwm2m/wakaama-master/core/er-coap-13\er-coap-13.c ****  * Redistribution and use in source and binary forms, with or without modification,
   5:C:/Users/²Ü¼ÒºÀ/.iotlink/sdk/IoT_LINK/iot_link/network/lwm2m/wakaama_lwm2m/wakaama-master/core/er-coap-13\er-coap-13.c ****  * are permitted provided that the following conditions are met:
   6:C:/Users/²Ü¼ÒºÀ/.iotlink/sdk/IoT_LINK/iot_link/network/lwm2m/wakaama_lwm2m/wakaama-master/core/er-coap-13\er-coap-13.c ****  * 1. Redistributions of source code must retain the above copyright notice, this list of
   7:C:/Users/²Ü¼ÒºÀ/.iotlink/sdk/IoT_LINK/iot_link/network/lwm2m/wakaama_lwm2m/wakaama-master/core/er-coap-13\er-coap-13.c ****  * conditions and the following disclaimer.
   8:C:/Users/²Ü¼ÒºÀ/.iotlink/sdk/IoT_LINK/iot_link/network/lwm2m/wakaama_lwm2m/wakaama-master/core/er-coap-13\er-coap-13.c ****  * 2. Redistributions in binary form must reproduce the above copyright notice, this list
   9:C:/Users/²Ü¼ÒºÀ/.iotlink/sdk/IoT_LINK/iot_link/network/lwm2m/wakaama_lwm2m/wakaama-master/core/er-coap-13\er-coap-13.c ****  * of conditions and the following disclaimer in the documentation and/or other materials
  10:C:/Users/²Ü¼ÒºÀ/.iotlink/sdk/IoT_LINK/iot_link/network/lwm2m/wakaama_lwm2m/wakaama-master/core/er-coap-13\er-coap-13.c ****  * provided with the distribution.
  11:C:/Users/²Ü¼ÒºÀ/.iotlink/sdk/IoT_LINK/iot_link/network/lwm2m/wakaama_lwm2m/wakaama-master/core/er-coap-13\er-coap-13.c ****  * 3. Neither the name of the copyright holder nor the names of its contributors may be used
  12:C:/Users/²Ü¼ÒºÀ/.iotlink/sdk/IoT_LINK/iot_link/network/lwm2m/wakaama_lwm2m/wakaama-master/core/er-coap-13\er-coap-13.c ****  * to endorse or promote products derived from this software without specific prior written
  13:C:/Users/²Ü¼ÒºÀ/.iotlink/sdk/IoT_LINK/iot_link/network/lwm2m/wakaama_lwm2m/wakaama-master/core/er-coap-13\er-coap-13.c ****  * permission.
  14:C:/Users/²Ü¼ÒºÀ/.iotlink/sdk/IoT_LINK/iot_link/network/lwm2m/wakaama_lwm2m/wakaama-master/core/er-coap-13\er-coap-13.c ****  * THIS SOFTWARE IS PROVIDED BY THE COPYRIGHT HOLDERS AND CONTRIBUTORS
  15:C:/Users/²Ü¼ÒºÀ/.iotlink/sdk/IoT_LINK/iot_link/network/lwm2m/wakaama_lwm2m/wakaama-master/core/er-coap-13\er-coap-13.c ****  * "AS IS" AND ANY EXPRESS OR IMPLIED WARRANTIES, INCLUDING, BUT NOT LIMITED TO,
  16:C:/Users/²Ü¼ÒºÀ/.iotlink/sdk/IoT_LINK/iot_link/network/lwm2m/wakaama_lwm2m/wakaama-master/core/er-coap-13\er-coap-13.c ****  * THE IMPLIED WARRANTIES OF MERCHANTABILITY AND FITNESS FOR A PARTICULAR
  17:C:/Users/²Ü¼ÒºÀ/.iotlink/sdk/IoT_LINK/iot_link/network/lwm2m/wakaama_lwm2m/wakaama-master/core/er-coap-13\er-coap-13.c ****  * PURPOSE ARE DISCLAIMED. IN NO EVENT SHALL THE COPYRIGHT HOLDER OR
  18:C:/Users/²Ü¼ÒºÀ/.iotlink/sdk/IoT_LINK/iot_link/network/lwm2m/wakaama_lwm2m/wakaama-master/core/er-coap-13\er-coap-13.c ****  * CONTRIBUTORS BE LIABLE FOR ANY DIRECT, INDIRECT, INCIDENTAL, SPECIAL,
  19:C:/Users/²Ü¼ÒºÀ/.iotlink/sdk/IoT_LINK/iot_link/network/lwm2m/wakaama_lwm2m/wakaama-master/core/er-coap-13\er-coap-13.c ****  * EXEMPLARY, OR CONSEQUENTIAL DAMAGES (INCLUDING, BUT NOT LIMITED TO,
  20:C:/Users/²Ü¼ÒºÀ/.iotlink/sdk/IoT_LINK/iot_link/network/lwm2m/wakaama_lwm2m/wakaama-master/core/er-coap-13\er-coap-13.c ****  * PROCUREMENT OF SUBSTITUTE GOODS OR SERVICES; LOSS OF USE, DATA, OR PROFITS;
  21:C:/Users/²Ü¼ÒºÀ/.iotlink/sdk/IoT_LINK/iot_link/network/lwm2m/wakaama_lwm2m/wakaama-master/core/er-coap-13\er-coap-13.c ****  * OR BUSINESS INTERRUPTION) HOWEVER CAUSED AND ON ANY THEORY OF LIABILITY,
  22:C:/Users/²Ü¼ÒºÀ/.iotlink/sdk/IoT_LINK/iot_link/network/lwm2m/wakaama_lwm2m/wakaama-master/core/er-coap-13\er-coap-13.c ****  * WHETHER IN CONTRACT, STRICT LIABILITY, OR TORT (INCLUDING NEGLIGENCE OR
  23:C:/Users/²Ü¼ÒºÀ/.iotlink/sdk/IoT_LINK/iot_link/network/lwm2m/wakaama_lwm2m/wakaama-master/core/er-coap-13\er-coap-13.c ****  * OTHERWISE) ARISING IN ANY WAY OUT OF THE USE OF THIS SOFTWARE, EVEN IF
  24:C:/Users/²Ü¼ÒºÀ/.iotlink/sdk/IoT_LINK/iot_link/network/lwm2m/wakaama_lwm2m/wakaama-master/core/er-coap-13\er-coap-13.c ****  * ADVISED OF THE POSSIBILITY OF SUCH DAMAGE.
  25:C:/Users/²Ü¼ÒºÀ/.iotlink/sdk/IoT_LINK/iot_link/network/lwm2m/wakaama_lwm2m/wakaama-master/core/er-coap-13\er-coap-13.c ****  *---------------------------------------------------------------------------*/
  26:C:/Users/²Ü¼ÒºÀ/.iotlink/sdk/IoT_LINK/iot_link/network/lwm2m/wakaama_lwm2m/wakaama-master/core/er-coap-13\er-coap-13.c **** /*----------------------------------------------------------------------------
  27:C:/Users/²Ü¼ÒºÀ/.iotlink/sdk/IoT_LINK/iot_link/network/lwm2m/wakaama_lwm2m/wakaama-master/core/er-coap-13\er-coap-13.c ****  * Notice of Export Control Law
  28:C:/Users/²Ü¼ÒºÀ/.iotlink/sdk/IoT_LINK/iot_link/network/lwm2m/wakaama_lwm2m/wakaama-master/core/er-coap-13\er-coap-13.c ****  * ===============================================
  29:C:/Users/²Ü¼ÒºÀ/.iotlink/sdk/IoT_LINK/iot_link/network/lwm2m/wakaama_lwm2m/wakaama-master/core/er-coap-13\er-coap-13.c ****  * Huawei LiteOS may be subject to applicable export control laws and regulations, which might
  30:C:/Users/²Ü¼ÒºÀ/.iotlink/sdk/IoT_LINK/iot_link/network/lwm2m/wakaama_lwm2m/wakaama-master/core/er-coap-13\er-coap-13.c ****  * include those applicable to Huawei LiteOS of U.S. and the country in which you are located.
ARM GAS  C:\Users\²Ü¼ÒºÀ\AppData\Local\Temp\cczrlpTg.s 			page 2


  31:C:/Users/²Ü¼ÒºÀ/.iotlink/sdk/IoT_LINK/iot_link/network/lwm2m/wakaama_lwm2m/wakaama-master/core/er-coap-13\er-coap-13.c ****  * Import, export and usage of Huawei LiteOS in any manner by you shall be in compliance with such
  32:C:/Users/²Ü¼ÒºÀ/.iotlink/sdk/IoT_LINK/iot_link/network/lwm2m/wakaama_lwm2m/wakaama-master/core/er-coap-13\er-coap-13.c ****  * applicable export control laws and regulations.
  33:C:/Users/²Ü¼ÒºÀ/.iotlink/sdk/IoT_LINK/iot_link/network/lwm2m/wakaama_lwm2m/wakaama-master/core/er-coap-13\er-coap-13.c ****  *---------------------------------------------------------------------------*/
  34:C:/Users/²Ü¼ÒºÀ/.iotlink/sdk/IoT_LINK/iot_link/network/lwm2m/wakaama_lwm2m/wakaama-master/core/er-coap-13\er-coap-13.c **** 
  35:C:/Users/²Ü¼ÒºÀ/.iotlink/sdk/IoT_LINK/iot_link/network/lwm2m/wakaama_lwm2m/wakaama-master/core/er-coap-13\er-coap-13.c **** /*
  36:C:/Users/²Ü¼ÒºÀ/.iotlink/sdk/IoT_LINK/iot_link/network/lwm2m/wakaama_lwm2m/wakaama-master/core/er-coap-13\er-coap-13.c ****  * Copyright (c) 2013, Institute for Pervasive Computing, ETH Zurich
  37:C:/Users/²Ü¼ÒºÀ/.iotlink/sdk/IoT_LINK/iot_link/network/lwm2m/wakaama_lwm2m/wakaama-master/core/er-coap-13\er-coap-13.c ****  * All rights reserved.
  38:C:/Users/²Ü¼ÒºÀ/.iotlink/sdk/IoT_LINK/iot_link/network/lwm2m/wakaama_lwm2m/wakaama-master/core/er-coap-13\er-coap-13.c ****  *
  39:C:/Users/²Ü¼ÒºÀ/.iotlink/sdk/IoT_LINK/iot_link/network/lwm2m/wakaama_lwm2m/wakaama-master/core/er-coap-13\er-coap-13.c ****  * Redistribution and use in source and binary forms, with or without
  40:C:/Users/²Ü¼ÒºÀ/.iotlink/sdk/IoT_LINK/iot_link/network/lwm2m/wakaama_lwm2m/wakaama-master/core/er-coap-13\er-coap-13.c ****  * modification, are permitted provided that the following conditions
  41:C:/Users/²Ü¼ÒºÀ/.iotlink/sdk/IoT_LINK/iot_link/network/lwm2m/wakaama_lwm2m/wakaama-master/core/er-coap-13\er-coap-13.c ****  * are met:
  42:C:/Users/²Ü¼ÒºÀ/.iotlink/sdk/IoT_LINK/iot_link/network/lwm2m/wakaama_lwm2m/wakaama-master/core/er-coap-13\er-coap-13.c ****  * 1. Redistributions of source code must retain the above copyright
  43:C:/Users/²Ü¼ÒºÀ/.iotlink/sdk/IoT_LINK/iot_link/network/lwm2m/wakaama_lwm2m/wakaama-master/core/er-coap-13\er-coap-13.c ****  *    notice, this list of conditions and the following disclaimer.
  44:C:/Users/²Ü¼ÒºÀ/.iotlink/sdk/IoT_LINK/iot_link/network/lwm2m/wakaama_lwm2m/wakaama-master/core/er-coap-13\er-coap-13.c ****  * 2. Redistributions in binary form must reproduce the above copyright
  45:C:/Users/²Ü¼ÒºÀ/.iotlink/sdk/IoT_LINK/iot_link/network/lwm2m/wakaama_lwm2m/wakaama-master/core/er-coap-13\er-coap-13.c ****  *    notice, this list of conditions and the following disclaimer in the
  46:C:/Users/²Ü¼ÒºÀ/.iotlink/sdk/IoT_LINK/iot_link/network/lwm2m/wakaama_lwm2m/wakaama-master/core/er-coap-13\er-coap-13.c ****  *    documentation and/or other materials provided with the distribution.
  47:C:/Users/²Ü¼ÒºÀ/.iotlink/sdk/IoT_LINK/iot_link/network/lwm2m/wakaama_lwm2m/wakaama-master/core/er-coap-13\er-coap-13.c ****  * 3. Neither the name of the Institute nor the names of its contributors
  48:C:/Users/²Ü¼ÒºÀ/.iotlink/sdk/IoT_LINK/iot_link/network/lwm2m/wakaama_lwm2m/wakaama-master/core/er-coap-13\er-coap-13.c ****  *    may be used to endorse or promote products derived from this software
  49:C:/Users/²Ü¼ÒºÀ/.iotlink/sdk/IoT_LINK/iot_link/network/lwm2m/wakaama_lwm2m/wakaama-master/core/er-coap-13\er-coap-13.c ****  *    without specific prior written permission.
  50:C:/Users/²Ü¼ÒºÀ/.iotlink/sdk/IoT_LINK/iot_link/network/lwm2m/wakaama_lwm2m/wakaama-master/core/er-coap-13\er-coap-13.c ****  *
  51:C:/Users/²Ü¼ÒºÀ/.iotlink/sdk/IoT_LINK/iot_link/network/lwm2m/wakaama_lwm2m/wakaama-master/core/er-coap-13\er-coap-13.c ****  * THIS SOFTWARE IS PROVIDED BY THE INSTITUTE AND CONTRIBUTORS ``AS IS'' AND
  52:C:/Users/²Ü¼ÒºÀ/.iotlink/sdk/IoT_LINK/iot_link/network/lwm2m/wakaama_lwm2m/wakaama-master/core/er-coap-13\er-coap-13.c ****  * ANY EXPRESS OR IMPLIED WARRANTIES, INCLUDING, BUT NOT LIMITED TO, THE
  53:C:/Users/²Ü¼ÒºÀ/.iotlink/sdk/IoT_LINK/iot_link/network/lwm2m/wakaama_lwm2m/wakaama-master/core/er-coap-13\er-coap-13.c ****  * IMPLIED WARRANTIES OF MERCHANTABILITY AND FITNESS FOR A PARTICULAR PURPOSE
  54:C:/Users/²Ü¼ÒºÀ/.iotlink/sdk/IoT_LINK/iot_link/network/lwm2m/wakaama_lwm2m/wakaama-master/core/er-coap-13\er-coap-13.c ****  * ARE DISCLAIMED.  IN NO EVENT SHALL THE INSTITUTE OR CONTRIBUTORS BE LIABLE
  55:C:/Users/²Ü¼ÒºÀ/.iotlink/sdk/IoT_LINK/iot_link/network/lwm2m/wakaama_lwm2m/wakaama-master/core/er-coap-13\er-coap-13.c ****  * FOR ANY DIRECT, INDIRECT, INCIDENTAL, SPECIAL, EXEMPLARY, OR CONSEQUENTIAL
  56:C:/Users/²Ü¼ÒºÀ/.iotlink/sdk/IoT_LINK/iot_link/network/lwm2m/wakaama_lwm2m/wakaama-master/core/er-coap-13\er-coap-13.c ****  * DAMAGES (INCLUDING, BUT NOT LIMITED TO, PROCUREMENT OF SUBSTITUTE GOODS
  57:C:/Users/²Ü¼ÒºÀ/.iotlink/sdk/IoT_LINK/iot_link/network/lwm2m/wakaama_lwm2m/wakaama-master/core/er-coap-13\er-coap-13.c ****  * OR SERVICES; LOSS OF USE, DATA, OR PROFITS; OR BUSINESS INTERRUPTION)
  58:C:/Users/²Ü¼ÒºÀ/.iotlink/sdk/IoT_LINK/iot_link/network/lwm2m/wakaama_lwm2m/wakaama-master/core/er-coap-13\er-coap-13.c ****  * HOWEVER CAUSED AND ON ANY THEORY OF LIABILITY, WHETHER IN CONTRACT, STRICT
  59:C:/Users/²Ü¼ÒºÀ/.iotlink/sdk/IoT_LINK/iot_link/network/lwm2m/wakaama_lwm2m/wakaama-master/core/er-coap-13\er-coap-13.c ****  * LIABILITY, OR TORT (INCLUDING NEGLIGENCE OR OTHERWISE) ARISING IN ANY WAY
  60:C:/Users/²Ü¼ÒºÀ/.iotlink/sdk/IoT_LINK/iot_link/network/lwm2m/wakaama_lwm2m/wakaama-master/core/er-coap-13\er-coap-13.c ****  * OUT OF THE USE OF THIS SOFTWARE, EVEN IF ADVISED OF THE POSSIBILITY OF
  61:C:/Users/²Ü¼ÒºÀ/.iotlink/sdk/IoT_LINK/iot_link/network/lwm2m/wakaama_lwm2m/wakaama-master/core/er-coap-13\er-coap-13.c ****  * SUCH DAMAGE.
  62:C:/Users/²Ü¼ÒºÀ/.iotlink/sdk/IoT_LINK/iot_link/network/lwm2m/wakaama_lwm2m/wakaama-master/core/er-coap-13\er-coap-13.c ****  *
  63:C:/Users/²Ü¼ÒºÀ/.iotlink/sdk/IoT_LINK/iot_link/network/lwm2m/wakaama_lwm2m/wakaama-master/core/er-coap-13\er-coap-13.c ****  * This file is part of the Contiki operating system.
  64:C:/Users/²Ü¼ÒºÀ/.iotlink/sdk/IoT_LINK/iot_link/network/lwm2m/wakaama_lwm2m/wakaama-master/core/er-coap-13\er-coap-13.c ****  */
  65:C:/Users/²Ü¼ÒºÀ/.iotlink/sdk/IoT_LINK/iot_link/network/lwm2m/wakaama_lwm2m/wakaama-master/core/er-coap-13\er-coap-13.c **** 
  66:C:/Users/²Ü¼ÒºÀ/.iotlink/sdk/IoT_LINK/iot_link/network/lwm2m/wakaama_lwm2m/wakaama-master/core/er-coap-13\er-coap-13.c **** /**
  67:C:/Users/²Ü¼ÒºÀ/.iotlink/sdk/IoT_LINK/iot_link/network/lwm2m/wakaama_lwm2m/wakaama-master/core/er-coap-13\er-coap-13.c ****  * \file
  68:C:/Users/²Ü¼ÒºÀ/.iotlink/sdk/IoT_LINK/iot_link/network/lwm2m/wakaama_lwm2m/wakaama-master/core/er-coap-13\er-coap-13.c ****  *      An implementation of the Constrained Application Protocol (draft 12)
  69:C:/Users/²Ü¼ÒºÀ/.iotlink/sdk/IoT_LINK/iot_link/network/lwm2m/wakaama_lwm2m/wakaama-master/core/er-coap-13\er-coap-13.c ****  * \author
  70:C:/Users/²Ü¼ÒºÀ/.iotlink/sdk/IoT_LINK/iot_link/network/lwm2m/wakaama_lwm2m/wakaama-master/core/er-coap-13\er-coap-13.c ****  *      Matthias Kovatsch <kovatsch@inf.ethz.ch>
  71:C:/Users/²Ü¼ÒºÀ/.iotlink/sdk/IoT_LINK/iot_link/network/lwm2m/wakaama_lwm2m/wakaama-master/core/er-coap-13\er-coap-13.c ****  * \contributors
  72:C:/Users/²Ü¼ÒºÀ/.iotlink/sdk/IoT_LINK/iot_link/network/lwm2m/wakaama_lwm2m/wakaama-master/core/er-coap-13\er-coap-13.c ****  *    David Navarro, Intel Corporation - Adapt to usage in liblwm2m
  73:C:/Users/²Ü¼ÒºÀ/.iotlink/sdk/IoT_LINK/iot_link/network/lwm2m/wakaama_lwm2m/wakaama-master/core/er-coap-13\er-coap-13.c ****  */
  74:C:/Users/²Ü¼ÒºÀ/.iotlink/sdk/IoT_LINK/iot_link/network/lwm2m/wakaama_lwm2m/wakaama-master/core/er-coap-13\er-coap-13.c **** 
  75:C:/Users/²Ü¼ÒºÀ/.iotlink/sdk/IoT_LINK/iot_link/network/lwm2m/wakaama_lwm2m/wakaama-master/core/er-coap-13\er-coap-13.c **** 
  76:C:/Users/²Ü¼ÒºÀ/.iotlink/sdk/IoT_LINK/iot_link/network/lwm2m/wakaama_lwm2m/wakaama-master/core/er-coap-13\er-coap-13.c **** #include <stdlib.h>
  77:C:/Users/²Ü¼ÒºÀ/.iotlink/sdk/IoT_LINK/iot_link/network/lwm2m/wakaama_lwm2m/wakaama-master/core/er-coap-13\er-coap-13.c **** 
  78:C:/Users/²Ü¼ÒºÀ/.iotlink/sdk/IoT_LINK/iot_link/network/lwm2m/wakaama_lwm2m/wakaama-master/core/er-coap-13\er-coap-13.c **** #include <string.h>
  79:C:/Users/²Ü¼ÒºÀ/.iotlink/sdk/IoT_LINK/iot_link/network/lwm2m/wakaama_lwm2m/wakaama-master/core/er-coap-13\er-coap-13.c **** #include <stdio.h>
  80:C:/Users/²Ü¼ÒºÀ/.iotlink/sdk/IoT_LINK/iot_link/network/lwm2m/wakaama_lwm2m/wakaama-master/core/er-coap-13\er-coap-13.c **** 
  81:C:/Users/²Ü¼ÒºÀ/.iotlink/sdk/IoT_LINK/iot_link/network/lwm2m/wakaama_lwm2m/wakaama-master/core/er-coap-13\er-coap-13.c **** #include "er-coap-13.h"
  82:C:/Users/²Ü¼ÒºÀ/.iotlink/sdk/IoT_LINK/iot_link/network/lwm2m/wakaama_lwm2m/wakaama-master/core/er-coap-13\er-coap-13.c **** #include "internals.h"
  83:C:/Users/²Ü¼ÒºÀ/.iotlink/sdk/IoT_LINK/iot_link/network/lwm2m/wakaama_lwm2m/wakaama-master/core/er-coap-13\er-coap-13.c **** #include "liblwm2m.h" /* for lwm2m_malloc() and lwm2m_free() */
  84:C:/Users/²Ü¼ÒºÀ/.iotlink/sdk/IoT_LINK/iot_link/network/lwm2m/wakaama_lwm2m/wakaama-master/core/er-coap-13\er-coap-13.c **** 
  85:C:/Users/²Ü¼ÒºÀ/.iotlink/sdk/IoT_LINK/iot_link/network/lwm2m/wakaama_lwm2m/wakaama-master/core/er-coap-13\er-coap-13.c **** #define DEBUG 0
  86:C:/Users/²Ü¼ÒºÀ/.iotlink/sdk/IoT_LINK/iot_link/network/lwm2m/wakaama_lwm2m/wakaama-master/core/er-coap-13\er-coap-13.c **** #if DEBUG
  87:C:/Users/²Ü¼ÒºÀ/.iotlink/sdk/IoT_LINK/iot_link/network/lwm2m/wakaama_lwm2m/wakaama-master/core/er-coap-13\er-coap-13.c **** #include <stdio.h>
ARM GAS  C:\Users\²Ü¼ÒºÀ\AppData\Local\Temp\cczrlpTg.s 			page 3


  88:C:/Users/²Ü¼ÒºÀ/.iotlink/sdk/IoT_LINK/iot_link/network/lwm2m/wakaama_lwm2m/wakaama-master/core/er-coap-13\er-coap-13.c **** #define PRINTF(...) printf(__VA_ARGS__)
  89:C:/Users/²Ü¼ÒºÀ/.iotlink/sdk/IoT_LINK/iot_link/network/lwm2m/wakaama_lwm2m/wakaama-master/core/er-coap-13\er-coap-13.c **** #define PRINT6ADDR(addr) PRINTF("[%02x%02x:%02x%02x:%02x%02x:%02x%02x:%02x%02x:%02x%02x:%02x%02x:%0
  90:C:/Users/²Ü¼ÒºÀ/.iotlink/sdk/IoT_LINK/iot_link/network/lwm2m/wakaama_lwm2m/wakaama-master/core/er-coap-13\er-coap-13.c **** #define PRINTLLADDR(lladdr) PRINTF("[%02x:%02x:%02x:%02x:%02x:%02x]",(lladdr)->addr[0], (lladdr)->a
  91:C:/Users/²Ü¼ÒºÀ/.iotlink/sdk/IoT_LINK/iot_link/network/lwm2m/wakaama_lwm2m/wakaama-master/core/er-coap-13\er-coap-13.c **** #else
  92:C:/Users/²Ü¼ÒºÀ/.iotlink/sdk/IoT_LINK/iot_link/network/lwm2m/wakaama_lwm2m/wakaama-master/core/er-coap-13\er-coap-13.c **** #define PRINTF(...)
  93:C:/Users/²Ü¼ÒºÀ/.iotlink/sdk/IoT_LINK/iot_link/network/lwm2m/wakaama_lwm2m/wakaama-master/core/er-coap-13\er-coap-13.c **** #define PRINT6ADDR(addr)
  94:C:/Users/²Ü¼ÒºÀ/.iotlink/sdk/IoT_LINK/iot_link/network/lwm2m/wakaama_lwm2m/wakaama-master/core/er-coap-13\er-coap-13.c **** #define PRINTLLADDR(addr)
  95:C:/Users/²Ü¼ÒºÀ/.iotlink/sdk/IoT_LINK/iot_link/network/lwm2m/wakaama_lwm2m/wakaama-master/core/er-coap-13\er-coap-13.c **** #endif
  96:C:/Users/²Ü¼ÒºÀ/.iotlink/sdk/IoT_LINK/iot_link/network/lwm2m/wakaama_lwm2m/wakaama-master/core/er-coap-13\er-coap-13.c **** 
  97:C:/Users/²Ü¼ÒºÀ/.iotlink/sdk/IoT_LINK/iot_link/network/lwm2m/wakaama_lwm2m/wakaama-master/core/er-coap-13\er-coap-13.c **** /*-----------------------------------------------------------------------------------*/
  98:C:/Users/²Ü¼ÒºÀ/.iotlink/sdk/IoT_LINK/iot_link/network/lwm2m/wakaama_lwm2m/wakaama-master/core/er-coap-13\er-coap-13.c **** /*- Variables -----------------------------------------------------------------------*/
  99:C:/Users/²Ü¼ÒºÀ/.iotlink/sdk/IoT_LINK/iot_link/network/lwm2m/wakaama_lwm2m/wakaama-master/core/er-coap-13\er-coap-13.c **** /*-----------------------------------------------------------------------------------*/
 100:C:/Users/²Ü¼ÒºÀ/.iotlink/sdk/IoT_LINK/iot_link/network/lwm2m/wakaama_lwm2m/wakaama-master/core/er-coap-13\er-coap-13.c **** static uint16_t current_mid = 0;
 101:C:/Users/²Ü¼ÒºÀ/.iotlink/sdk/IoT_LINK/iot_link/network/lwm2m/wakaama_lwm2m/wakaama-master/core/er-coap-13\er-coap-13.c **** 
 102:C:/Users/²Ü¼ÒºÀ/.iotlink/sdk/IoT_LINK/iot_link/network/lwm2m/wakaama_lwm2m/wakaama-master/core/er-coap-13\er-coap-13.c **** coap_status_t coap_error_code = NO_ERROR;
 103:C:/Users/²Ü¼ÒºÀ/.iotlink/sdk/IoT_LINK/iot_link/network/lwm2m/wakaama_lwm2m/wakaama-master/core/er-coap-13\er-coap-13.c **** const char *coap_error_message = "";
 104:C:/Users/²Ü¼ÒºÀ/.iotlink/sdk/IoT_LINK/iot_link/network/lwm2m/wakaama_lwm2m/wakaama-master/core/er-coap-13\er-coap-13.c **** /*-----------------------------------------------------------------------------------*/
 105:C:/Users/²Ü¼ÒºÀ/.iotlink/sdk/IoT_LINK/iot_link/network/lwm2m/wakaama_lwm2m/wakaama-master/core/er-coap-13\er-coap-13.c **** /*- LOCAL HELP FUNCTIONS ------------------------------------------------------------*/
 106:C:/Users/²Ü¼ÒºÀ/.iotlink/sdk/IoT_LINK/iot_link/network/lwm2m/wakaama_lwm2m/wakaama-master/core/er-coap-13\er-coap-13.c **** /*-----------------------------------------------------------------------------------*/
 107:C:/Users/²Ü¼ÒºÀ/.iotlink/sdk/IoT_LINK/iot_link/network/lwm2m/wakaama_lwm2m/wakaama-master/core/er-coap-13\er-coap-13.c **** static
 108:C:/Users/²Ü¼ÒºÀ/.iotlink/sdk/IoT_LINK/iot_link/network/lwm2m/wakaama_lwm2m/wakaama-master/core/er-coap-13\er-coap-13.c **** uint16_t
 109:C:/Users/²Ü¼ÒºÀ/.iotlink/sdk/IoT_LINK/iot_link/network/lwm2m/wakaama_lwm2m/wakaama-master/core/er-coap-13\er-coap-13.c **** coap_log_2(uint16_t value)
 110:C:/Users/²Ü¼ÒºÀ/.iotlink/sdk/IoT_LINK/iot_link/network/lwm2m/wakaama_lwm2m/wakaama-master/core/er-coap-13\er-coap-13.c **** {
 111:C:/Users/²Ü¼ÒºÀ/.iotlink/sdk/IoT_LINK/iot_link/network/lwm2m/wakaama_lwm2m/wakaama-master/core/er-coap-13\er-coap-13.c ****     uint16_t result = 0;
 112:C:/Users/²Ü¼ÒºÀ/.iotlink/sdk/IoT_LINK/iot_link/network/lwm2m/wakaama_lwm2m/wakaama-master/core/er-coap-13\er-coap-13.c ****     do
 113:C:/Users/²Ü¼ÒºÀ/.iotlink/sdk/IoT_LINK/iot_link/network/lwm2m/wakaama_lwm2m/wakaama-master/core/er-coap-13\er-coap-13.c ****     {
 114:C:/Users/²Ü¼ÒºÀ/.iotlink/sdk/IoT_LINK/iot_link/network/lwm2m/wakaama_lwm2m/wakaama-master/core/er-coap-13\er-coap-13.c ****         value = value >> 1;
 115:C:/Users/²Ü¼ÒºÀ/.iotlink/sdk/IoT_LINK/iot_link/network/lwm2m/wakaama_lwm2m/wakaama-master/core/er-coap-13\er-coap-13.c ****         result++;
 116:C:/Users/²Ü¼ÒºÀ/.iotlink/sdk/IoT_LINK/iot_link/network/lwm2m/wakaama_lwm2m/wakaama-master/core/er-coap-13\er-coap-13.c ****     }
 117:C:/Users/²Ü¼ÒºÀ/.iotlink/sdk/IoT_LINK/iot_link/network/lwm2m/wakaama_lwm2m/wakaama-master/core/er-coap-13\er-coap-13.c ****     while (value);
 118:C:/Users/²Ü¼ÒºÀ/.iotlink/sdk/IoT_LINK/iot_link/network/lwm2m/wakaama_lwm2m/wakaama-master/core/er-coap-13\er-coap-13.c **** 
 119:C:/Users/²Ü¼ÒºÀ/.iotlink/sdk/IoT_LINK/iot_link/network/lwm2m/wakaama_lwm2m/wakaama-master/core/er-coap-13\er-coap-13.c ****     return result ? result - 1 : result;
 120:C:/Users/²Ü¼ÒºÀ/.iotlink/sdk/IoT_LINK/iot_link/network/lwm2m/wakaama_lwm2m/wakaama-master/core/er-coap-13\er-coap-13.c **** }
 121:C:/Users/²Ü¼ÒºÀ/.iotlink/sdk/IoT_LINK/iot_link/network/lwm2m/wakaama_lwm2m/wakaama-master/core/er-coap-13\er-coap-13.c **** /*-----------------------------------------------------------------------------------*/
 122:C:/Users/²Ü¼ÒºÀ/.iotlink/sdk/IoT_LINK/iot_link/network/lwm2m/wakaama_lwm2m/wakaama-master/core/er-coap-13\er-coap-13.c **** static
 123:C:/Users/²Ü¼ÒºÀ/.iotlink/sdk/IoT_LINK/iot_link/network/lwm2m/wakaama_lwm2m/wakaama-master/core/er-coap-13\er-coap-13.c **** uint32_t
 124:C:/Users/²Ü¼ÒºÀ/.iotlink/sdk/IoT_LINK/iot_link/network/lwm2m/wakaama_lwm2m/wakaama-master/core/er-coap-13\er-coap-13.c **** coap_parse_int_option(uint8_t *bytes, size_t length)
 125:C:/Users/²Ü¼ÒºÀ/.iotlink/sdk/IoT_LINK/iot_link/network/lwm2m/wakaama_lwm2m/wakaama-master/core/er-coap-13\er-coap-13.c **** {
  29              		.loc 1 125 1 view -0
  30              		.cfi_startproc
  31              		@ args = 0, pretend = 0, frame = 0
  32              		@ frame_needed = 0, uses_anonymous_args = 0
  33              		@ link register save eliminated.
 126:C:/Users/²Ü¼ÒºÀ/.iotlink/sdk/IoT_LINK/iot_link/network/lwm2m/wakaama_lwm2m/wakaama-master/core/er-coap-13\er-coap-13.c ****     uint32_t var = 0;
  34              		.loc 1 126 5 view .LVU1
 127:C:/Users/²Ü¼ÒºÀ/.iotlink/sdk/IoT_LINK/iot_link/network/lwm2m/wakaama_lwm2m/wakaama-master/core/er-coap-13\er-coap-13.c ****     size_t i = 0;
  35              		.loc 1 127 5 view .LVU2
 128:C:/Users/²Ü¼ÒºÀ/.iotlink/sdk/IoT_LINK/iot_link/network/lwm2m/wakaama_lwm2m/wakaama-master/core/er-coap-13\er-coap-13.c ****     while (i < length)
  36              		.loc 1 128 5 view .LVU3
  37 0000 0144     		add	r1, r1, r0
  38              	.LVL1:
 126:C:/Users/²Ü¼ÒºÀ/.iotlink/sdk/IoT_LINK/iot_link/network/lwm2m/wakaama_lwm2m/wakaama-master/core/er-coap-13\er-coap-13.c ****     uint32_t var = 0;
  39              		.loc 1 126 14 is_stmt 0 view .LVU4
  40 0002 0023     		movs	r3, #0
  41              	.LVL2:
  42              	.L2:
  43              		.loc 1 128 11 is_stmt 1 view .LVU5
ARM GAS  C:\Users\²Ü¼ÒºÀ\AppData\Local\Temp\cczrlpTg.s 			page 4


  44 0004 8842     		cmp	r0, r1
  45 0006 01D1     		bne	.L3
 129:C:/Users/²Ü¼ÒºÀ/.iotlink/sdk/IoT_LINK/iot_link/network/lwm2m/wakaama_lwm2m/wakaama-master/core/er-coap-13\er-coap-13.c ****     {
 130:C:/Users/²Ü¼ÒºÀ/.iotlink/sdk/IoT_LINK/iot_link/network/lwm2m/wakaama_lwm2m/wakaama-master/core/er-coap-13\er-coap-13.c ****         var <<= 8;
 131:C:/Users/²Ü¼ÒºÀ/.iotlink/sdk/IoT_LINK/iot_link/network/lwm2m/wakaama_lwm2m/wakaama-master/core/er-coap-13\er-coap-13.c ****         var |= bytes[i++];
 132:C:/Users/²Ü¼ÒºÀ/.iotlink/sdk/IoT_LINK/iot_link/network/lwm2m/wakaama_lwm2m/wakaama-master/core/er-coap-13\er-coap-13.c ****     }
 133:C:/Users/²Ü¼ÒºÀ/.iotlink/sdk/IoT_LINK/iot_link/network/lwm2m/wakaama_lwm2m/wakaama-master/core/er-coap-13\er-coap-13.c ****     return var;
  46              		.loc 1 133 5 view .LVU6
 134:C:/Users/²Ü¼ÒºÀ/.iotlink/sdk/IoT_LINK/iot_link/network/lwm2m/wakaama_lwm2m/wakaama-master/core/er-coap-13\er-coap-13.c **** }
  47              		.loc 1 134 1 is_stmt 0 view .LVU7
  48 0008 1846     		mov	r0, r3
  49              	.LVL3:
  50              		.loc 1 134 1 view .LVU8
  51 000a 7047     		bx	lr
  52              	.LVL4:
  53              	.L3:
 130:C:/Users/²Ü¼ÒºÀ/.iotlink/sdk/IoT_LINK/iot_link/network/lwm2m/wakaama_lwm2m/wakaama-master/core/er-coap-13\er-coap-13.c ****         var |= bytes[i++];
  54              		.loc 1 130 9 is_stmt 1 view .LVU9
 131:C:/Users/²Ü¼ÒºÀ/.iotlink/sdk/IoT_LINK/iot_link/network/lwm2m/wakaama_lwm2m/wakaama-master/core/er-coap-13\er-coap-13.c ****     }
  55              		.loc 1 131 9 view .LVU10
 131:C:/Users/²Ü¼ÒºÀ/.iotlink/sdk/IoT_LINK/iot_link/network/lwm2m/wakaama_lwm2m/wakaama-master/core/er-coap-13\er-coap-13.c ****     }
  56              		.loc 1 131 21 is_stmt 0 view .LVU11
  57 000c 10F8012B 		ldrb	r2, [r0], #1	@ zero_extendqisi2
  58              	.LVL5:
 131:C:/Users/²Ü¼ÒºÀ/.iotlink/sdk/IoT_LINK/iot_link/network/lwm2m/wakaama_lwm2m/wakaama-master/core/er-coap-13\er-coap-13.c ****     }
  59              		.loc 1 131 13 view .LVU12
  60 0010 42EA0323 		orr	r3, r2, r3, lsl #8
  61              	.LVL6:
 131:C:/Users/²Ü¼ÒºÀ/.iotlink/sdk/IoT_LINK/iot_link/network/lwm2m/wakaama_lwm2m/wakaama-master/core/er-coap-13\er-coap-13.c ****     }
  62              		.loc 1 131 13 view .LVU13
  63 0014 F6E7     		b	.L2
  64              		.cfi_endproc
  65              	.LFE5:
  67              		.section	.text.coap_set_option_header,"ax",%progbits
  68              		.align	1
  69              		.syntax unified
  70              		.thumb
  71              		.thumb_func
  72              		.fpu fpv4-sp-d16
  74              	coap_set_option_header:
  75              	.LVL7:
  76              	.LFB7:
 135:C:/Users/²Ü¼ÒºÀ/.iotlink/sdk/IoT_LINK/iot_link/network/lwm2m/wakaama_lwm2m/wakaama-master/core/er-coap-13\er-coap-13.c **** /*-----------------------------------------------------------------------------------*/
 136:C:/Users/²Ü¼ÒºÀ/.iotlink/sdk/IoT_LINK/iot_link/network/lwm2m/wakaama_lwm2m/wakaama-master/core/er-coap-13\er-coap-13.c **** static
 137:C:/Users/²Ü¼ÒºÀ/.iotlink/sdk/IoT_LINK/iot_link/network/lwm2m/wakaama_lwm2m/wakaama-master/core/er-coap-13\er-coap-13.c **** uint8_t
 138:C:/Users/²Ü¼ÒºÀ/.iotlink/sdk/IoT_LINK/iot_link/network/lwm2m/wakaama_lwm2m/wakaama-master/core/er-coap-13\er-coap-13.c **** coap_option_nibble(unsigned int value)
 139:C:/Users/²Ü¼ÒºÀ/.iotlink/sdk/IoT_LINK/iot_link/network/lwm2m/wakaama_lwm2m/wakaama-master/core/er-coap-13\er-coap-13.c **** {
 140:C:/Users/²Ü¼ÒºÀ/.iotlink/sdk/IoT_LINK/iot_link/network/lwm2m/wakaama_lwm2m/wakaama-master/core/er-coap-13\er-coap-13.c ****     if (value < 13)
 141:C:/Users/²Ü¼ÒºÀ/.iotlink/sdk/IoT_LINK/iot_link/network/lwm2m/wakaama_lwm2m/wakaama-master/core/er-coap-13\er-coap-13.c ****     {
 142:C:/Users/²Ü¼ÒºÀ/.iotlink/sdk/IoT_LINK/iot_link/network/lwm2m/wakaama_lwm2m/wakaama-master/core/er-coap-13\er-coap-13.c ****         return value;
 143:C:/Users/²Ü¼ÒºÀ/.iotlink/sdk/IoT_LINK/iot_link/network/lwm2m/wakaama_lwm2m/wakaama-master/core/er-coap-13\er-coap-13.c ****     }
 144:C:/Users/²Ü¼ÒºÀ/.iotlink/sdk/IoT_LINK/iot_link/network/lwm2m/wakaama_lwm2m/wakaama-master/core/er-coap-13\er-coap-13.c ****     else if (value <= 0xFF + 13)
 145:C:/Users/²Ü¼ÒºÀ/.iotlink/sdk/IoT_LINK/iot_link/network/lwm2m/wakaama_lwm2m/wakaama-master/core/er-coap-13\er-coap-13.c ****     {
 146:C:/Users/²Ü¼ÒºÀ/.iotlink/sdk/IoT_LINK/iot_link/network/lwm2m/wakaama_lwm2m/wakaama-master/core/er-coap-13\er-coap-13.c ****         return 13;
 147:C:/Users/²Ü¼ÒºÀ/.iotlink/sdk/IoT_LINK/iot_link/network/lwm2m/wakaama_lwm2m/wakaama-master/core/er-coap-13\er-coap-13.c ****     }
 148:C:/Users/²Ü¼ÒºÀ/.iotlink/sdk/IoT_LINK/iot_link/network/lwm2m/wakaama_lwm2m/wakaama-master/core/er-coap-13\er-coap-13.c ****     else
 149:C:/Users/²Ü¼ÒºÀ/.iotlink/sdk/IoT_LINK/iot_link/network/lwm2m/wakaama_lwm2m/wakaama-master/core/er-coap-13\er-coap-13.c ****     {
ARM GAS  C:\Users\²Ü¼ÒºÀ\AppData\Local\Temp\cczrlpTg.s 			page 5


 150:C:/Users/²Ü¼ÒºÀ/.iotlink/sdk/IoT_LINK/iot_link/network/lwm2m/wakaama_lwm2m/wakaama-master/core/er-coap-13\er-coap-13.c ****         return 14;
 151:C:/Users/²Ü¼ÒºÀ/.iotlink/sdk/IoT_LINK/iot_link/network/lwm2m/wakaama_lwm2m/wakaama-master/core/er-coap-13\er-coap-13.c ****     }
 152:C:/Users/²Ü¼ÒºÀ/.iotlink/sdk/IoT_LINK/iot_link/network/lwm2m/wakaama_lwm2m/wakaama-master/core/er-coap-13\er-coap-13.c **** }
 153:C:/Users/²Ü¼ÒºÀ/.iotlink/sdk/IoT_LINK/iot_link/network/lwm2m/wakaama_lwm2m/wakaama-master/core/er-coap-13\er-coap-13.c **** /*-----------------------------------------------------------------------------------*/
 154:C:/Users/²Ü¼ÒºÀ/.iotlink/sdk/IoT_LINK/iot_link/network/lwm2m/wakaama_lwm2m/wakaama-master/core/er-coap-13\er-coap-13.c **** static
 155:C:/Users/²Ü¼ÒºÀ/.iotlink/sdk/IoT_LINK/iot_link/network/lwm2m/wakaama_lwm2m/wakaama-master/core/er-coap-13\er-coap-13.c **** size_t
 156:C:/Users/²Ü¼ÒºÀ/.iotlink/sdk/IoT_LINK/iot_link/network/lwm2m/wakaama_lwm2m/wakaama-master/core/er-coap-13\er-coap-13.c **** coap_set_option_header(unsigned int delta, size_t length, uint8_t *buffer)
 157:C:/Users/²Ü¼ÒºÀ/.iotlink/sdk/IoT_LINK/iot_link/network/lwm2m/wakaama_lwm2m/wakaama-master/core/er-coap-13\er-coap-13.c **** {
  77              		.loc 1 157 1 is_stmt 1 view -0
  78              		.cfi_startproc
  79              		@ args = 0, pretend = 0, frame = 8
  80              		@ frame_needed = 0, uses_anonymous_args = 0
 158:C:/Users/²Ü¼ÒºÀ/.iotlink/sdk/IoT_LINK/iot_link/network/lwm2m/wakaama_lwm2m/wakaama-master/core/er-coap-13\er-coap-13.c ****     size_t written = 0;
  81              		.loc 1 158 5 view .LVU15
 159:C:/Users/²Ü¼ÒºÀ/.iotlink/sdk/IoT_LINK/iot_link/network/lwm2m/wakaama_lwm2m/wakaama-master/core/er-coap-13\er-coap-13.c ****     unsigned int *x = &delta;
  82              		.loc 1 159 5 view .LVU16
 157:C:/Users/²Ü¼ÒºÀ/.iotlink/sdk/IoT_LINK/iot_link/network/lwm2m/wakaama_lwm2m/wakaama-master/core/er-coap-13\er-coap-13.c ****     size_t written = 0;
  83              		.loc 1 157 1 is_stmt 0 view .LVU17
  84 0000 37B5     		push	{r0, r1, r2, r4, r5, lr}
  85              	.LCFI0:
  86              		.cfi_def_cfa_offset 24
  87              		.cfi_offset 4, -12
  88              		.cfi_offset 5, -8
  89              		.cfi_offset 14, -4
  90              	.LVL8:
 160:C:/Users/²Ü¼ÒºÀ/.iotlink/sdk/IoT_LINK/iot_link/network/lwm2m/wakaama_lwm2m/wakaama-master/core/er-coap-13\er-coap-13.c **** 
 161:C:/Users/²Ü¼ÒºÀ/.iotlink/sdk/IoT_LINK/iot_link/network/lwm2m/wakaama_lwm2m/wakaama-master/core/er-coap-13\er-coap-13.c ****     buffer[0] = coap_option_nibble(delta) << 4 | coap_option_nibble(length);
  91              		.loc 1 161 5 is_stmt 1 view .LVU18
  92              	.LBB23:
  93              	.LBI23:
 138:C:/Users/²Ü¼ÒºÀ/.iotlink/sdk/IoT_LINK/iot_link/network/lwm2m/wakaama_lwm2m/wakaama-master/core/er-coap-13\er-coap-13.c **** {
  94              		.loc 1 138 1 view .LVU19
  95              	.LBB24:
 140:C:/Users/²Ü¼ÒºÀ/.iotlink/sdk/IoT_LINK/iot_link/network/lwm2m/wakaama_lwm2m/wakaama-master/core/er-coap-13\er-coap-13.c ****     {
  96              		.loc 1 140 5 view .LVU20
 140:C:/Users/²Ü¼ÒºÀ/.iotlink/sdk/IoT_LINK/iot_link/network/lwm2m/wakaama_lwm2m/wakaama-master/core/er-coap-13\er-coap-13.c ****     {
  97              		.loc 1 140 8 is_stmt 0 view .LVU21
  98 0002 0C28     		cmp	r0, #12
  99              	.LBE24:
 100              	.LBE23:
 157:C:/Users/²Ü¼ÒºÀ/.iotlink/sdk/IoT_LINK/iot_link/network/lwm2m/wakaama_lwm2m/wakaama-master/core/er-coap-13\er-coap-13.c ****     size_t written = 0;
 101              		.loc 1 157 1 view .LVU22
 102 0004 CDE90010 		strd	r1, r0, [sp]
 103              	.LBB27:
 104              	.LBB25:
 140:C:/Users/²Ü¼ÒºÀ/.iotlink/sdk/IoT_LINK/iot_link/network/lwm2m/wakaama_lwm2m/wakaama-master/core/er-coap-13\er-coap-13.c ****     {
 105              		.loc 1 140 8 view .LVU23
 106 0008 1FD8     		bhi	.L5
 142:C:/Users/²Ü¼ÒºÀ/.iotlink/sdk/IoT_LINK/iot_link/network/lwm2m/wakaama_lwm2m/wakaama-master/core/er-coap-13\er-coap-13.c ****     }
 107              		.loc 1 142 9 is_stmt 1 view .LVU24
 142:C:/Users/²Ü¼ÒºÀ/.iotlink/sdk/IoT_LINK/iot_link/network/lwm2m/wakaama_lwm2m/wakaama-master/core/er-coap-13\er-coap-13.c ****     }
 108              		.loc 1 142 16 is_stmt 0 view .LVU25
 109 000a C0B2     		uxtb	r0, r0
 110              	.LVL9:
 111              	.L6:
 142:C:/Users/²Ü¼ÒºÀ/.iotlink/sdk/IoT_LINK/iot_link/network/lwm2m/wakaama_lwm2m/wakaama-master/core/er-coap-13\er-coap-13.c ****     }
 112              		.loc 1 142 16 view .LVU26
ARM GAS  C:\Users\²Ü¼ÒºÀ\AppData\Local\Temp\cczrlpTg.s 			page 6


 113              	.LBE25:
 114              	.LBE27:
 115              		.loc 1 161 50 view .LVU27
 116 000c 009B     		ldr	r3, [sp]
 117              	.LVL10:
 118              	.LBB28:
 119              	.LBI28:
 138:C:/Users/²Ü¼ÒºÀ/.iotlink/sdk/IoT_LINK/iot_link/network/lwm2m/wakaama_lwm2m/wakaama-master/core/er-coap-13\er-coap-13.c **** {
 120              		.loc 1 138 1 is_stmt 1 view .LVU28
 121              	.LBB29:
 140:C:/Users/²Ü¼ÒºÀ/.iotlink/sdk/IoT_LINK/iot_link/network/lwm2m/wakaama_lwm2m/wakaama-master/core/er-coap-13\er-coap-13.c ****     {
 122              		.loc 1 140 5 view .LVU29
 123              	.LBE29:
 124              	.LBE28:
 125              		.loc 1 161 43 is_stmt 0 view .LVU30
 126 000e 0001     		lsls	r0, r0, #4
 127              	.LBB33:
 128              	.LBB30:
 140:C:/Users/²Ü¼ÒºÀ/.iotlink/sdk/IoT_LINK/iot_link/network/lwm2m/wakaama_lwm2m/wakaama-master/core/er-coap-13\er-coap-13.c ****     {
 129              		.loc 1 140 8 view .LVU31
 130 0010 0C2B     		cmp	r3, #12
 131              	.LBE30:
 132              	.LBE33:
 133              		.loc 1 161 48 view .LVU32
 134 0012 40B2     		sxtb	r0, r0
 135              	.LBB34:
 136              	.LBB31:
 140:C:/Users/²Ü¼ÒºÀ/.iotlink/sdk/IoT_LINK/iot_link/network/lwm2m/wakaama_lwm2m/wakaama-master/core/er-coap-13\er-coap-13.c ****     {
 137              		.loc 1 140 8 view .LVU33
 138 0014 1FD8     		bhi	.L7
 142:C:/Users/²Ü¼ÒºÀ/.iotlink/sdk/IoT_LINK/iot_link/network/lwm2m/wakaama_lwm2m/wakaama-master/core/er-coap-13\er-coap-13.c ****     }
 139              		.loc 1 142 9 is_stmt 1 view .LVU34
 142:C:/Users/²Ü¼ÒºÀ/.iotlink/sdk/IoT_LINK/iot_link/network/lwm2m/wakaama_lwm2m/wakaama-master/core/er-coap-13\er-coap-13.c ****     }
 140              		.loc 1 142 16 is_stmt 0 view .LVU35
 141 0016 DBB2     		uxtb	r3, r3
 142              	.LVL11:
 143              	.L8:
 142:C:/Users/²Ü¼ÒºÀ/.iotlink/sdk/IoT_LINK/iot_link/network/lwm2m/wakaama_lwm2m/wakaama-master/core/er-coap-13\er-coap-13.c ****     }
 144              		.loc 1 142 16 view .LVU36
 145              	.LBE31:
 146              	.LBE34:
 147              		.loc 1 161 48 view .LVU37
 148 0018 1843     		orrs	r0, r0, r3
 149              		.loc 1 161 15 view .LVU38
 150 001a 1070     		strb	r0, [r2]
 151 001c 0225     		movs	r5, #2
 159:C:/Users/²Ü¼ÒºÀ/.iotlink/sdk/IoT_LINK/iot_link/network/lwm2m/wakaama_lwm2m/wakaama-master/core/er-coap-13\er-coap-13.c **** 
 152              		.loc 1 159 19 view .LVU39
 153 001e 01AB     		add	r3, sp, #4
 154              	.LVL12:
 158:C:/Users/²Ü¼ÒºÀ/.iotlink/sdk/IoT_LINK/iot_link/network/lwm2m/wakaama_lwm2m/wakaama-master/core/er-coap-13\er-coap-13.c ****     unsigned int *x = &delta;
 155              		.loc 1 158 12 view .LVU40
 156 0020 0020     		movs	r0, #0
 157              	.LVL13:
 158              	.L11:
 162:C:/Users/²Ü¼ÒºÀ/.iotlink/sdk/IoT_LINK/iot_link/network/lwm2m/wakaama_lwm2m/wakaama-master/core/er-coap-13\er-coap-13.c **** 
 163:C:/Users/²Ü¼ÒºÀ/.iotlink/sdk/IoT_LINK/iot_link/network/lwm2m/wakaama_lwm2m/wakaama-master/core/er-coap-13\er-coap-13.c ****     /* avoids code duplication without function overhead */
ARM GAS  C:\Users\²Ü¼ÒºÀ\AppData\Local\Temp\cczrlpTg.s 			page 7


 164:C:/Users/²Ü¼ÒºÀ/.iotlink/sdk/IoT_LINK/iot_link/network/lwm2m/wakaama_lwm2m/wakaama-master/core/er-coap-13\er-coap-13.c ****     do
 159              		.loc 1 164 5 is_stmt 1 view .LVU41
 165:C:/Users/²Ü¼ÒºÀ/.iotlink/sdk/IoT_LINK/iot_link/network/lwm2m/wakaama_lwm2m/wakaama-master/core/er-coap-13\er-coap-13.c ****     {
 166:C:/Users/²Ü¼ÒºÀ/.iotlink/sdk/IoT_LINK/iot_link/network/lwm2m/wakaama_lwm2m/wakaama-master/core/er-coap-13\er-coap-13.c ****         if (*x > 268)
 160              		.loc 1 166 9 view .LVU42
 161              		.loc 1 166 13 is_stmt 0 view .LVU43
 162 0022 1B68     		ldr	r3, [r3]
 163              	.LVL14:
 164              		.loc 1 166 12 view .LVU44
 165 0024 B3F5867F 		cmp	r3, #268
 166 0028 00F10101 		add	r1, r0, #1
 167 002c 1BD9     		bls	.L9
 167:C:/Users/²Ü¼ÒºÀ/.iotlink/sdk/IoT_LINK/iot_link/network/lwm2m/wakaama_lwm2m/wakaama-master/core/er-coap-13\er-coap-13.c ****         {
 168:C:/Users/²Ü¼ÒºÀ/.iotlink/sdk/IoT_LINK/iot_link/network/lwm2m/wakaama_lwm2m/wakaama-master/core/er-coap-13\er-coap-13.c ****             buffer[++written] = (*x - 269) >> 8;
 168              		.loc 1 168 13 is_stmt 1 view .LVU45
 169              		.loc 1 168 37 is_stmt 0 view .LVU46
 170 002e 6FF48674 		mvn	r4, #268
 171 0032 1C19     		adds	r4, r3, r4
 169:C:/Users/²Ü¼ÒºÀ/.iotlink/sdk/IoT_LINK/iot_link/network/lwm2m/wakaama_lwm2m/wakaama-master/core/er-coap-13\er-coap-13.c ****             buffer[++written] = (*x - 269);
 172              		.loc 1 169 31 view .LVU47
 173 0034 0230     		adds	r0, r0, #2
 168:C:/Users/²Ü¼ÒºÀ/.iotlink/sdk/IoT_LINK/iot_link/network/lwm2m/wakaama_lwm2m/wakaama-master/core/er-coap-13\er-coap-13.c ****             buffer[++written] = (*x - 269);
 174              		.loc 1 168 44 view .LVU48
 175 0036 240A     		lsrs	r4, r4, #8
 176              		.loc 1 169 37 view .LVU49
 177 0038 0D3B     		subs	r3, r3, #13
 168:C:/Users/²Ü¼ÒºÀ/.iotlink/sdk/IoT_LINK/iot_link/network/lwm2m/wakaama_lwm2m/wakaama-master/core/er-coap-13\er-coap-13.c ****             buffer[++written] = (*x - 269);
 178              		.loc 1 168 31 view .LVU50
 179 003a 5454     		strb	r4, [r2, r1]
 180              		.loc 1 169 13 is_stmt 1 view .LVU51
 181              		.loc 1 169 31 is_stmt 0 view .LVU52
 182 003c 1354     		strb	r3, [r2, r0]
 183              	.L10:
 170:C:/Users/²Ü¼ÒºÀ/.iotlink/sdk/IoT_LINK/iot_link/network/lwm2m/wakaama_lwm2m/wakaama-master/core/er-coap-13\er-coap-13.c ****         }
 171:C:/Users/²Ü¼ÒºÀ/.iotlink/sdk/IoT_LINK/iot_link/network/lwm2m/wakaama_lwm2m/wakaama-master/core/er-coap-13\er-coap-13.c ****         else if (*x > 12)
 172:C:/Users/²Ü¼ÒºÀ/.iotlink/sdk/IoT_LINK/iot_link/network/lwm2m/wakaama_lwm2m/wakaama-master/core/er-coap-13\er-coap-13.c ****         {
 173:C:/Users/²Ü¼ÒºÀ/.iotlink/sdk/IoT_LINK/iot_link/network/lwm2m/wakaama_lwm2m/wakaama-master/core/er-coap-13\er-coap-13.c ****             buffer[++written] = (*x - 13);
 174:C:/Users/²Ü¼ÒºÀ/.iotlink/sdk/IoT_LINK/iot_link/network/lwm2m/wakaama_lwm2m/wakaama-master/core/er-coap-13\er-coap-13.c ****         }
 175:C:/Users/²Ü¼ÒºÀ/.iotlink/sdk/IoT_LINK/iot_link/network/lwm2m/wakaama_lwm2m/wakaama-master/core/er-coap-13\er-coap-13.c ****     }
 176:C:/Users/²Ü¼ÒºÀ/.iotlink/sdk/IoT_LINK/iot_link/network/lwm2m/wakaama_lwm2m/wakaama-master/core/er-coap-13\er-coap-13.c ****     while (x != (unsigned int *)&length && NULL != (x = (unsigned int *)&length));
 184              		.loc 1 176 11 is_stmt 1 view .LVU53
 185              		.loc 1 176 5 is_stmt 0 view .LVU54
 186 003e 012D     		cmp	r5, #1
 187              		.loc 1 176 55 view .LVU55
 188 0040 6B46     		mov	r3, sp
 189              		.loc 1 176 5 view .LVU56
 190 0042 0ED1     		bne	.L14
 177:C:/Users/²Ü¼ÒºÀ/.iotlink/sdk/IoT_LINK/iot_link/network/lwm2m/wakaama_lwm2m/wakaama-master/core/er-coap-13\er-coap-13.c **** 
 178:C:/Users/²Ü¼ÒºÀ/.iotlink/sdk/IoT_LINK/iot_link/network/lwm2m/wakaama_lwm2m/wakaama-master/core/er-coap-13\er-coap-13.c ****     PRINTF("WRITTEN %u B opt header\n", written);
 191              		.loc 1 178 49 is_stmt 1 view .LVU57
 179:C:/Users/²Ü¼ÒºÀ/.iotlink/sdk/IoT_LINK/iot_link/network/lwm2m/wakaama_lwm2m/wakaama-master/core/er-coap-13\er-coap-13.c **** 
 180:C:/Users/²Ü¼ÒºÀ/.iotlink/sdk/IoT_LINK/iot_link/network/lwm2m/wakaama_lwm2m/wakaama-master/core/er-coap-13\er-coap-13.c ****     return ++written;
 192              		.loc 1 180 5 view .LVU58
 181:C:/Users/²Ü¼ÒºÀ/.iotlink/sdk/IoT_LINK/iot_link/network/lwm2m/wakaama_lwm2m/wakaama-master/core/er-coap-13\er-coap-13.c **** }
 193              		.loc 1 181 1 is_stmt 0 view .LVU59
 194 0044 0130     		adds	r0, r0, #1
 195 0046 03B0     		add	sp, sp, #12
ARM GAS  C:\Users\²Ü¼ÒºÀ\AppData\Local\Temp\cczrlpTg.s 			page 8


 196              	.LCFI1:
 197              		.cfi_remember_state
 198              		.cfi_def_cfa_offset 12
 199              	.LVL15:
 200              		.loc 1 181 1 view .LVU60
 201              		@ sp needed
 202 0048 30BD     		pop	{r4, r5, pc}
 203              	.LVL16:
 204              	.L5:
 205              	.LCFI2:
 206              		.cfi_restore_state
 207              	.LBB35:
 208              	.LBB26:
 144:C:/Users/²Ü¼ÒºÀ/.iotlink/sdk/IoT_LINK/iot_link/network/lwm2m/wakaama_lwm2m/wakaama-master/core/er-coap-13\er-coap-13.c ****     {
 209              		.loc 1 144 10 is_stmt 1 view .LVU61
 150:C:/Users/²Ü¼ÒºÀ/.iotlink/sdk/IoT_LINK/iot_link/network/lwm2m/wakaama_lwm2m/wakaama-master/core/er-coap-13\er-coap-13.c ****     }
 210              		.loc 1 150 16 is_stmt 0 view .LVU62
 211 004a B0F5867F 		cmp	r0, #268
 212 004e 94BF     		ite	ls
 213 0050 0D20     		movls	r0, #13
 214              	.LVL17:
 150:C:/Users/²Ü¼ÒºÀ/.iotlink/sdk/IoT_LINK/iot_link/network/lwm2m/wakaama_lwm2m/wakaama-master/core/er-coap-13\er-coap-13.c ****     }
 215              		.loc 1 150 16 view .LVU63
 216 0052 0E20     		movhi	r0, #14
 217 0054 DAE7     		b	.L6
 218              	.LVL18:
 219              	.L7:
 150:C:/Users/²Ü¼ÒºÀ/.iotlink/sdk/IoT_LINK/iot_link/network/lwm2m/wakaama_lwm2m/wakaama-master/core/er-coap-13\er-coap-13.c ****     }
 220              		.loc 1 150 16 view .LVU64
 221              	.LBE26:
 222              	.LBE35:
 223              	.LBB36:
 224              	.LBB32:
 144:C:/Users/²Ü¼ÒºÀ/.iotlink/sdk/IoT_LINK/iot_link/network/lwm2m/wakaama_lwm2m/wakaama-master/core/er-coap-13\er-coap-13.c ****     {
 225              		.loc 1 144 10 is_stmt 1 view .LVU65
 150:C:/Users/²Ü¼ÒºÀ/.iotlink/sdk/IoT_LINK/iot_link/network/lwm2m/wakaama_lwm2m/wakaama-master/core/er-coap-13\er-coap-13.c ****     }
 226              		.loc 1 150 16 is_stmt 0 view .LVU66
 227 0056 B3F5867F 		cmp	r3, #268
 228 005a 94BF     		ite	ls
 229 005c 0D23     		movls	r3, #13
 230              	.LVL19:
 150:C:/Users/²Ü¼ÒºÀ/.iotlink/sdk/IoT_LINK/iot_link/network/lwm2m/wakaama_lwm2m/wakaama-master/core/er-coap-13\er-coap-13.c ****     }
 231              		.loc 1 150 16 view .LVU67
 232 005e 0E23     		movhi	r3, #14
 233 0060 DAE7     		b	.L8
 234              	.LVL20:
 235              	.L14:
 150:C:/Users/²Ü¼ÒºÀ/.iotlink/sdk/IoT_LINK/iot_link/network/lwm2m/wakaama_lwm2m/wakaama-master/core/er-coap-13\er-coap-13.c ****     }
 236              		.loc 1 150 16 view .LVU68
 237              	.LBE32:
 238              	.LBE36:
 239 0062 0125     		movs	r5, #1
 240 0064 DDE7     		b	.L11
 241              	.LVL21:
 242              	.L9:
 171:C:/Users/²Ü¼ÒºÀ/.iotlink/sdk/IoT_LINK/iot_link/network/lwm2m/wakaama_lwm2m/wakaama-master/core/er-coap-13\er-coap-13.c ****         {
 243              		.loc 1 171 14 is_stmt 1 view .LVU69
ARM GAS  C:\Users\²Ü¼ÒºÀ\AppData\Local\Temp\cczrlpTg.s 			page 9


 171:C:/Users/²Ü¼ÒºÀ/.iotlink/sdk/IoT_LINK/iot_link/network/lwm2m/wakaama_lwm2m/wakaama-master/core/er-coap-13\er-coap-13.c ****         {
 244              		.loc 1 171 17 is_stmt 0 view .LVU70
 245 0066 0C2B     		cmp	r3, #12
 173:C:/Users/²Ü¼ÒºÀ/.iotlink/sdk/IoT_LINK/iot_link/network/lwm2m/wakaama_lwm2m/wakaama-master/core/er-coap-13\er-coap-13.c ****         }
 246              		.loc 1 173 13 is_stmt 1 view .LVU71
 173:C:/Users/²Ü¼ÒºÀ/.iotlink/sdk/IoT_LINK/iot_link/network/lwm2m/wakaama_lwm2m/wakaama-master/core/er-coap-13\er-coap-13.c ****         }
 247              		.loc 1 173 37 is_stmt 0 view .LVU72
 248 0068 82BF     		ittt	hi
 249 006a 0D3B     		subhi	r3, r3, #13
 173:C:/Users/²Ü¼ÒºÀ/.iotlink/sdk/IoT_LINK/iot_link/network/lwm2m/wakaama_lwm2m/wakaama-master/core/er-coap-13\er-coap-13.c ****         }
 250              		.loc 1 173 31 view .LVU73
 251 006c 5354     		strbhi	r3, [r2, r1]
 252              	.LVL22:
 173:C:/Users/²Ü¼ÒºÀ/.iotlink/sdk/IoT_LINK/iot_link/network/lwm2m/wakaama_lwm2m/wakaama-master/core/er-coap-13\er-coap-13.c ****         }
 253              		.loc 1 173 31 view .LVU74
 254 006e 0846     		movhi	r0, r1
 255 0070 E5E7     		b	.L10
 256              		.cfi_endproc
 257              	.LFE7:
 259              		.section	.text.coap_serialize_int_option,"ax",%progbits
 260              		.align	1
 261              		.syntax unified
 262              		.thumb
 263              		.thumb_func
 264              		.fpu fpv4-sp-d16
 266              	coap_serialize_int_option:
 267              	.LVL23:
 268              	.LFB8:
 182:C:/Users/²Ü¼ÒºÀ/.iotlink/sdk/IoT_LINK/iot_link/network/lwm2m/wakaama_lwm2m/wakaama-master/core/er-coap-13\er-coap-13.c **** /*-----------------------------------------------------------------------------------*/
 183:C:/Users/²Ü¼ÒºÀ/.iotlink/sdk/IoT_LINK/iot_link/network/lwm2m/wakaama_lwm2m/wakaama-master/core/er-coap-13\er-coap-13.c **** static
 184:C:/Users/²Ü¼ÒºÀ/.iotlink/sdk/IoT_LINK/iot_link/network/lwm2m/wakaama_lwm2m/wakaama-master/core/er-coap-13\er-coap-13.c **** size_t
 185:C:/Users/²Ü¼ÒºÀ/.iotlink/sdk/IoT_LINK/iot_link/network/lwm2m/wakaama_lwm2m/wakaama-master/core/er-coap-13\er-coap-13.c **** coap_serialize_int_option(unsigned int number, unsigned int current_number, uint8_t *buffer, uint32
 186:C:/Users/²Ü¼ÒºÀ/.iotlink/sdk/IoT_LINK/iot_link/network/lwm2m/wakaama_lwm2m/wakaama-master/core/er-coap-13\er-coap-13.c **** {
 269              		.loc 1 186 1 is_stmt 1 view -0
 270              		.cfi_startproc
 271              		@ args = 0, pretend = 0, frame = 0
 272              		@ frame_needed = 0, uses_anonymous_args = 0
 187:C:/Users/²Ü¼ÒºÀ/.iotlink/sdk/IoT_LINK/iot_link/network/lwm2m/wakaama_lwm2m/wakaama-master/core/er-coap-13\er-coap-13.c ****     size_t i = 0;
 273              		.loc 1 187 5 view .LVU76
 188:C:/Users/²Ü¼ÒºÀ/.iotlink/sdk/IoT_LINK/iot_link/network/lwm2m/wakaama_lwm2m/wakaama-master/core/er-coap-13\er-coap-13.c **** 
 189:C:/Users/²Ü¼ÒºÀ/.iotlink/sdk/IoT_LINK/iot_link/network/lwm2m/wakaama_lwm2m/wakaama-master/core/er-coap-13\er-coap-13.c ****     if (0xFF000000 & value) ++i;
 274              		.loc 1 189 5 view .LVU77
 186:C:/Users/²Ü¼ÒºÀ/.iotlink/sdk/IoT_LINK/iot_link/network/lwm2m/wakaama_lwm2m/wakaama-master/core/er-coap-13\er-coap-13.c ****     size_t i = 0;
 275              		.loc 1 186 1 is_stmt 0 view .LVU78
 276 0000 2DE9F041 		push	{r4, r5, r6, r7, r8, lr}
 277              	.LCFI3:
 278              		.cfi_def_cfa_offset 24
 279              		.cfi_offset 4, -24
 280              		.cfi_offset 5, -20
 281              		.cfi_offset 6, -16
 282              		.cfi_offset 7, -12
 283              		.cfi_offset 8, -8
 284              		.cfi_offset 14, -4
 190:C:/Users/²Ü¼ÒºÀ/.iotlink/sdk/IoT_LINK/iot_link/network/lwm2m/wakaama_lwm2m/wakaama-master/core/er-coap-13\er-coap-13.c ****     if (0xFFFF0000 & value) ++i;
 285              		.loc 1 190 20 view .LVU79
 286 0004 1D0C     		lsrs	r5, r3, #16
 189:C:/Users/²Ü¼ÒºÀ/.iotlink/sdk/IoT_LINK/iot_link/network/lwm2m/wakaama_lwm2m/wakaama-master/core/er-coap-13\er-coap-13.c ****     if (0xFFFF0000 & value) ++i;
ARM GAS  C:\Users\²Ü¼ÒºÀ\AppData\Local\Temp\cczrlpTg.s 			page 10


 287              		.loc 1 189 8 view .LVU80
 288 0006 13F07F48 		ands	r8, r3, #-16777216
 289              		.loc 1 190 20 view .LVU81
 290 000a 4FEA0545 		lsl	r5, r5, #16
 186:C:/Users/²Ü¼ÒºÀ/.iotlink/sdk/IoT_LINK/iot_link/network/lwm2m/wakaama_lwm2m/wakaama-master/core/er-coap-13\er-coap-13.c ****     size_t i = 0;
 291              		.loc 1 186 1 view .LVU82
 292 000e 0E46     		mov	r6, r1
 293 0010 1C46     		mov	r4, r3
 189:C:/Users/²Ü¼ÒºÀ/.iotlink/sdk/IoT_LINK/iot_link/network/lwm2m/wakaama_lwm2m/wakaama-master/core/er-coap-13\er-coap-13.c ****     if (0xFFFF0000 & value) ++i;
 294              		.loc 1 189 8 view .LVU83
 295 0012 14BF     		ite	ne
 296 0014 0121     		movne	r1, #1
 297              	.LVL24:
 189:C:/Users/²Ü¼ÒºÀ/.iotlink/sdk/IoT_LINK/iot_link/network/lwm2m/wakaama_lwm2m/wakaama-master/core/er-coap-13\er-coap-13.c ****     if (0xFFFF0000 & value) ++i;
 298              		.loc 1 189 8 view .LVU84
 299 0016 0021     		moveq	r1, #0
 300              	.LVL25:
 301              		.loc 1 190 5 is_stmt 1 view .LVU85
 302              		.loc 1 190 8 is_stmt 0 view .LVU86
 303 0018 05B1     		cbz	r5, .L16
 304              		.loc 1 190 29 is_stmt 1 discriminator 1 view .LVU87
 305 001a 0131     		adds	r1, r1, #1
 306              	.LVL26:
 307              	.L16:
 191:C:/Users/²Ü¼ÒºÀ/.iotlink/sdk/IoT_LINK/iot_link/network/lwm2m/wakaama_lwm2m/wakaama-master/core/er-coap-13\er-coap-13.c ****     if (0xFFFFFF00 & value) ++i;
 308              		.loc 1 191 5 view .LVU88
 309              		.loc 1 191 8 is_stmt 0 view .LVU89
 310 001c 34F0FF07 		bics	r7, r4, #255
 311 0020 02D0     		beq	.L17
 312              		.loc 1 191 29 is_stmt 1 discriminator 1 view .LVU90
 313 0022 0131     		adds	r1, r1, #1
 314              	.LVL27:
 192:C:/Users/²Ü¼ÒºÀ/.iotlink/sdk/IoT_LINK/iot_link/network/lwm2m/wakaama_lwm2m/wakaama-master/core/er-coap-13\er-coap-13.c ****     if (0xFFFFFFFF & value) ++i;
 315              		.loc 1 192 5 discriminator 1 view .LVU91
 316              	.L18:
 317              		.loc 1 192 29 discriminator 1 view .LVU92
 318 0024 0131     		adds	r1, r1, #1
 319              	.LVL28:
 320              		.loc 1 192 29 is_stmt 0 discriminator 1 view .LVU93
 321 0026 01E0     		b	.L19
 322              	.L17:
 323              		.loc 1 192 5 is_stmt 1 view .LVU94
 324              		.loc 1 192 8 is_stmt 0 view .LVU95
 325 0028 002C     		cmp	r4, #0
 326 002a FBD1     		bne	.L18
 327              	.L19:
 193:C:/Users/²Ü¼ÒºÀ/.iotlink/sdk/IoT_LINK/iot_link/network/lwm2m/wakaama_lwm2m/wakaama-master/core/er-coap-13\er-coap-13.c **** 
 194:C:/Users/²Ü¼ÒºÀ/.iotlink/sdk/IoT_LINK/iot_link/network/lwm2m/wakaama_lwm2m/wakaama-master/core/er-coap-13\er-coap-13.c ****     PRINTF("OPTION %u (delta %u, len %u)\n", number, number - current_number, i);
 328              		.loc 1 194 81 is_stmt 1 view .LVU96
 195:C:/Users/²Ü¼ÒºÀ/.iotlink/sdk/IoT_LINK/iot_link/network/lwm2m/wakaama_lwm2m/wakaama-master/core/er-coap-13\er-coap-13.c **** 
 196:C:/Users/²Ü¼ÒºÀ/.iotlink/sdk/IoT_LINK/iot_link/network/lwm2m/wakaama_lwm2m/wakaama-master/core/er-coap-13\er-coap-13.c ****     i = coap_set_option_header(number - current_number, i, buffer);
 329              		.loc 1 196 5 view .LVU97
 330              		.loc 1 196 9 is_stmt 0 view .LVU98
 331 002c 801B     		subs	r0, r0, r6
 332              	.LVL29:
 333              		.loc 1 196 9 view .LVU99
 334 002e FFF7FEFF 		bl	coap_set_option_header
ARM GAS  C:\Users\²Ü¼ÒºÀ\AppData\Local\Temp\cczrlpTg.s 			page 11


 335              	.LVL30:
 197:C:/Users/²Ü¼ÒºÀ/.iotlink/sdk/IoT_LINK/iot_link/network/lwm2m/wakaama_lwm2m/wakaama-master/core/er-coap-13\er-coap-13.c **** 
 198:C:/Users/²Ü¼ÒºÀ/.iotlink/sdk/IoT_LINK/iot_link/network/lwm2m/wakaama_lwm2m/wakaama-master/core/er-coap-13\er-coap-13.c ****     if (0xFF000000 & value) buffer[i++] = (uint8_t) (value >> 24);
 336              		.loc 1 198 5 is_stmt 1 view .LVU100
 337              		.loc 1 198 8 is_stmt 0 view .LVU101
 338 0032 B8F1000F 		cmp	r8, #0
 339 0036 02D0     		beq	.L20
 340              		.loc 1 198 29 is_stmt 1 discriminator 1 view .LVU102
 341              	.LVL31:
 342              		.loc 1 198 60 is_stmt 0 discriminator 1 view .LVU103
 343 0038 230E     		lsrs	r3, r4, #24
 344              		.loc 1 198 43 discriminator 1 view .LVU104
 345 003a 1354     		strb	r3, [r2, r0]
 346              		.loc 1 198 37 discriminator 1 view .LVU105
 347 003c 0130     		adds	r0, r0, #1
 348              	.LVL32:
 349              	.L20:
 199:C:/Users/²Ü¼ÒºÀ/.iotlink/sdk/IoT_LINK/iot_link/network/lwm2m/wakaama_lwm2m/wakaama-master/core/er-coap-13\er-coap-13.c ****     if (0xFFFF0000 & value) buffer[i++] = (uint8_t) (value >> 16);
 350              		.loc 1 199 5 is_stmt 1 view .LVU106
 351              		.loc 1 199 8 is_stmt 0 view .LVU107
 352 003e 3DB1     		cbz	r5, .L21
 353              		.loc 1 199 29 is_stmt 1 discriminator 1 view .LVU108
 354              		.loc 1 199 60 is_stmt 0 discriminator 1 view .LVU109
 355 0040 210C     		lsrs	r1, r4, #16
 356              		.loc 1 199 43 discriminator 1 view .LVU110
 357 0042 1154     		strb	r1, [r2, r0]
 358              		.loc 1 199 37 discriminator 1 view .LVU111
 359 0044 431C     		adds	r3, r0, #1
 360              	.LVL33:
 200:C:/Users/²Ü¼ÒºÀ/.iotlink/sdk/IoT_LINK/iot_link/network/lwm2m/wakaama_lwm2m/wakaama-master/core/er-coap-13\er-coap-13.c ****     if (0xFFFFFF00 & value) buffer[i++] = (uint8_t) (value >> 8);
 361              		.loc 1 200 5 is_stmt 1 discriminator 1 view .LVU112
 362              		.loc 1 200 8 is_stmt 0 discriminator 1 view .LVU113
 363 0046 2FB9     		cbnz	r7, .L22
 364              	.L23:
 201:C:/Users/²Ü¼ÒºÀ/.iotlink/sdk/IoT_LINK/iot_link/network/lwm2m/wakaama_lwm2m/wakaama-master/core/er-coap-13\er-coap-13.c ****     if (0xFFFFFFFF & value) buffer[i++] = (uint8_t) (value);
 365              		.loc 1 201 29 is_stmt 1 discriminator 1 view .LVU114
 366              		.loc 1 201 43 is_stmt 0 discriminator 1 view .LVU115
 367 0048 D454     		strb	r4, [r2, r3]
 368              		.loc 1 201 37 discriminator 1 view .LVU116
 369 004a 581C     		adds	r0, r3, #1
 370              	.LVL34:
 202:C:/Users/²Ü¼ÒºÀ/.iotlink/sdk/IoT_LINK/iot_link/network/lwm2m/wakaama_lwm2m/wakaama-master/core/er-coap-13\er-coap-13.c **** 
 203:C:/Users/²Ü¼ÒºÀ/.iotlink/sdk/IoT_LINK/iot_link/network/lwm2m/wakaama_lwm2m/wakaama-master/core/er-coap-13\er-coap-13.c ****     return i;
 371              		.loc 1 203 5 is_stmt 1 discriminator 1 view .LVU117
 372              	.L15:
 204:C:/Users/²Ü¼ÒºÀ/.iotlink/sdk/IoT_LINK/iot_link/network/lwm2m/wakaama_lwm2m/wakaama-master/core/er-coap-13\er-coap-13.c **** }
 373              		.loc 1 204 1 is_stmt 0 view .LVU118
 374 004c BDE8F081 		pop	{r4, r5, r6, r7, r8, pc}
 375              	.LVL35:
 376              	.L21:
 200:C:/Users/²Ü¼ÒºÀ/.iotlink/sdk/IoT_LINK/iot_link/network/lwm2m/wakaama_lwm2m/wakaama-master/core/er-coap-13\er-coap-13.c ****     if (0xFFFFFFFF & value) buffer[i++] = (uint8_t) (value);
 377              		.loc 1 200 5 is_stmt 1 view .LVU119
 200:C:/Users/²Ü¼ÒºÀ/.iotlink/sdk/IoT_LINK/iot_link/network/lwm2m/wakaama_lwm2m/wakaama-master/core/er-coap-13\er-coap-13.c ****     if (0xFFFFFFFF & value) buffer[i++] = (uint8_t) (value);
 378              		.loc 1 200 8 is_stmt 0 view .LVU120
 379 0050 27B1     		cbz	r7, .L24
 380 0052 0346     		mov	r3, r0
 381              	.LVL36:
ARM GAS  C:\Users\²Ü¼ÒºÀ\AppData\Local\Temp\cczrlpTg.s 			page 12


 382              	.L22:
 200:C:/Users/²Ü¼ÒºÀ/.iotlink/sdk/IoT_LINK/iot_link/network/lwm2m/wakaama_lwm2m/wakaama-master/core/er-coap-13\er-coap-13.c ****     if (0xFFFFFFFF & value) buffer[i++] = (uint8_t) (value);
 383              		.loc 1 200 29 is_stmt 1 discriminator 1 view .LVU121
 200:C:/Users/²Ü¼ÒºÀ/.iotlink/sdk/IoT_LINK/iot_link/network/lwm2m/wakaama_lwm2m/wakaama-master/core/er-coap-13\er-coap-13.c ****     if (0xFFFFFFFF & value) buffer[i++] = (uint8_t) (value);
 384              		.loc 1 200 60 is_stmt 0 discriminator 1 view .LVU122
 385 0054 210A     		lsrs	r1, r4, #8
 200:C:/Users/²Ü¼ÒºÀ/.iotlink/sdk/IoT_LINK/iot_link/network/lwm2m/wakaama_lwm2m/wakaama-master/core/er-coap-13\er-coap-13.c ****     if (0xFFFFFFFF & value) buffer[i++] = (uint8_t) (value);
 386              		.loc 1 200 43 discriminator 1 view .LVU123
 387 0056 D154     		strb	r1, [r2, r3]
 201:C:/Users/²Ü¼ÒºÀ/.iotlink/sdk/IoT_LINK/iot_link/network/lwm2m/wakaama_lwm2m/wakaama-master/core/er-coap-13\er-coap-13.c **** 
 388              		.loc 1 201 5 is_stmt 1 discriminator 1 view .LVU124
 200:C:/Users/²Ü¼ÒºÀ/.iotlink/sdk/IoT_LINK/iot_link/network/lwm2m/wakaama_lwm2m/wakaama-master/core/er-coap-13\er-coap-13.c ****     if (0xFFFFFFFF & value) buffer[i++] = (uint8_t) (value);
 389              		.loc 1 200 37 is_stmt 0 discriminator 1 view .LVU125
 390 0058 0133     		adds	r3, r3, #1
 391              	.LVL37:
 200:C:/Users/²Ü¼ÒºÀ/.iotlink/sdk/IoT_LINK/iot_link/network/lwm2m/wakaama_lwm2m/wakaama-master/core/er-coap-13\er-coap-13.c ****     if (0xFFFFFFFF & value) buffer[i++] = (uint8_t) (value);
 392              		.loc 1 200 37 discriminator 1 view .LVU126
 393 005a F5E7     		b	.L23
 394              	.LVL38:
 395              	.L24:
 201:C:/Users/²Ü¼ÒºÀ/.iotlink/sdk/IoT_LINK/iot_link/network/lwm2m/wakaama_lwm2m/wakaama-master/core/er-coap-13\er-coap-13.c **** 
 396              		.loc 1 201 5 is_stmt 1 view .LVU127
 201:C:/Users/²Ü¼ÒºÀ/.iotlink/sdk/IoT_LINK/iot_link/network/lwm2m/wakaama_lwm2m/wakaama-master/core/er-coap-13\er-coap-13.c **** 
 397              		.loc 1 201 8 is_stmt 0 view .LVU128
 398 005c 002C     		cmp	r4, #0
 399 005e F5D0     		beq	.L15
 400 0060 0346     		mov	r3, r0
 401 0062 F1E7     		b	.L23
 402              		.cfi_endproc
 403              	.LFE8:
 405              		.section	.text.coap_serialize_multi_option,"ax",%progbits
 406              		.align	1
 407              		.syntax unified
 408              		.thumb
 409              		.thumb_func
 410              		.fpu fpv4-sp-d16
 412              	coap_serialize_multi_option:
 413              	.LVL39:
 414              	.LFB10:
 205:C:/Users/²Ü¼ÒºÀ/.iotlink/sdk/IoT_LINK/iot_link/network/lwm2m/wakaama_lwm2m/wakaama-master/core/er-coap-13\er-coap-13.c **** /*-----------------------------------------------------------------------------------*/
 206:C:/Users/²Ü¼ÒºÀ/.iotlink/sdk/IoT_LINK/iot_link/network/lwm2m/wakaama_lwm2m/wakaama-master/core/er-coap-13\er-coap-13.c **** static
 207:C:/Users/²Ü¼ÒºÀ/.iotlink/sdk/IoT_LINK/iot_link/network/lwm2m/wakaama_lwm2m/wakaama-master/core/er-coap-13\er-coap-13.c **** size_t
 208:C:/Users/²Ü¼ÒºÀ/.iotlink/sdk/IoT_LINK/iot_link/network/lwm2m/wakaama_lwm2m/wakaama-master/core/er-coap-13\er-coap-13.c **** coap_serialize_array_option(unsigned int number, unsigned int current_number, uint8_t *buffer, uint
 209:C:/Users/²Ü¼ÒºÀ/.iotlink/sdk/IoT_LINK/iot_link/network/lwm2m/wakaama_lwm2m/wakaama-master/core/er-coap-13\er-coap-13.c **** {
 210:C:/Users/²Ü¼ÒºÀ/.iotlink/sdk/IoT_LINK/iot_link/network/lwm2m/wakaama_lwm2m/wakaama-master/core/er-coap-13\er-coap-13.c ****     size_t i = 0;
 211:C:/Users/²Ü¼ÒºÀ/.iotlink/sdk/IoT_LINK/iot_link/network/lwm2m/wakaama_lwm2m/wakaama-master/core/er-coap-13\er-coap-13.c **** 
 212:C:/Users/²Ü¼ÒºÀ/.iotlink/sdk/IoT_LINK/iot_link/network/lwm2m/wakaama_lwm2m/wakaama-master/core/er-coap-13\er-coap-13.c ****     if (split_char != '\0')
 213:C:/Users/²Ü¼ÒºÀ/.iotlink/sdk/IoT_LINK/iot_link/network/lwm2m/wakaama_lwm2m/wakaama-master/core/er-coap-13\er-coap-13.c ****     {
 214:C:/Users/²Ü¼ÒºÀ/.iotlink/sdk/IoT_LINK/iot_link/network/lwm2m/wakaama_lwm2m/wakaama-master/core/er-coap-13\er-coap-13.c ****         size_t j;
 215:C:/Users/²Ü¼ÒºÀ/.iotlink/sdk/IoT_LINK/iot_link/network/lwm2m/wakaama_lwm2m/wakaama-master/core/er-coap-13\er-coap-13.c ****         uint8_t *part_start = array;
 216:C:/Users/²Ü¼ÒºÀ/.iotlink/sdk/IoT_LINK/iot_link/network/lwm2m/wakaama_lwm2m/wakaama-master/core/er-coap-13\er-coap-13.c ****         uint8_t *part_end = NULL;
 217:C:/Users/²Ü¼ÒºÀ/.iotlink/sdk/IoT_LINK/iot_link/network/lwm2m/wakaama_lwm2m/wakaama-master/core/er-coap-13\er-coap-13.c ****         size_t temp_length;
 218:C:/Users/²Ü¼ÒºÀ/.iotlink/sdk/IoT_LINK/iot_link/network/lwm2m/wakaama_lwm2m/wakaama-master/core/er-coap-13\er-coap-13.c **** 
 219:C:/Users/²Ü¼ÒºÀ/.iotlink/sdk/IoT_LINK/iot_link/network/lwm2m/wakaama_lwm2m/wakaama-master/core/er-coap-13\er-coap-13.c ****         for (j = 0; j <= length; ++j)
 220:C:/Users/²Ü¼ÒºÀ/.iotlink/sdk/IoT_LINK/iot_link/network/lwm2m/wakaama_lwm2m/wakaama-master/core/er-coap-13\er-coap-13.c ****         {
 221:C:/Users/²Ü¼ÒºÀ/.iotlink/sdk/IoT_LINK/iot_link/network/lwm2m/wakaama_lwm2m/wakaama-master/core/er-coap-13\er-coap-13.c ****             if (array[j] == split_char || j == length)
 222:C:/Users/²Ü¼ÒºÀ/.iotlink/sdk/IoT_LINK/iot_link/network/lwm2m/wakaama_lwm2m/wakaama-master/core/er-coap-13\er-coap-13.c ****             {
ARM GAS  C:\Users\²Ü¼ÒºÀ\AppData\Local\Temp\cczrlpTg.s 			page 13


 223:C:/Users/²Ü¼ÒºÀ/.iotlink/sdk/IoT_LINK/iot_link/network/lwm2m/wakaama_lwm2m/wakaama-master/core/er-coap-13\er-coap-13.c ****                 part_end = array + j;
 224:C:/Users/²Ü¼ÒºÀ/.iotlink/sdk/IoT_LINK/iot_link/network/lwm2m/wakaama_lwm2m/wakaama-master/core/er-coap-13\er-coap-13.c ****                 temp_length = part_end - part_start;
 225:C:/Users/²Ü¼ÒºÀ/.iotlink/sdk/IoT_LINK/iot_link/network/lwm2m/wakaama_lwm2m/wakaama-master/core/er-coap-13\er-coap-13.c **** 
 226:C:/Users/²Ü¼ÒºÀ/.iotlink/sdk/IoT_LINK/iot_link/network/lwm2m/wakaama_lwm2m/wakaama-master/core/er-coap-13\er-coap-13.c ****                 i += coap_set_option_header(number - current_number, temp_length, &buffer[i]);
 227:C:/Users/²Ü¼ÒºÀ/.iotlink/sdk/IoT_LINK/iot_link/network/lwm2m/wakaama_lwm2m/wakaama-master/core/er-coap-13\er-coap-13.c ****                 memcpy(&buffer[i], part_start, temp_length);
 228:C:/Users/²Ü¼ÒºÀ/.iotlink/sdk/IoT_LINK/iot_link/network/lwm2m/wakaama_lwm2m/wakaama-master/core/er-coap-13\er-coap-13.c ****                 i += temp_length;
 229:C:/Users/²Ü¼ÒºÀ/.iotlink/sdk/IoT_LINK/iot_link/network/lwm2m/wakaama_lwm2m/wakaama-master/core/er-coap-13\er-coap-13.c **** 
 230:C:/Users/²Ü¼ÒºÀ/.iotlink/sdk/IoT_LINK/iot_link/network/lwm2m/wakaama_lwm2m/wakaama-master/core/er-coap-13\er-coap-13.c ****                 PRINTF("OPTION type %u, delta %u, len %u, part [%.*s]\n", number, number - current_
 231:C:/Users/²Ü¼ÒºÀ/.iotlink/sdk/IoT_LINK/iot_link/network/lwm2m/wakaama_lwm2m/wakaama-master/core/er-coap-13\er-coap-13.c **** 
 232:C:/Users/²Ü¼ÒºÀ/.iotlink/sdk/IoT_LINK/iot_link/network/lwm2m/wakaama_lwm2m/wakaama-master/core/er-coap-13\er-coap-13.c ****                 ++j; /* skip the splitter */
 233:C:/Users/²Ü¼ÒºÀ/.iotlink/sdk/IoT_LINK/iot_link/network/lwm2m/wakaama_lwm2m/wakaama-master/core/er-coap-13\er-coap-13.c ****                 current_number = number;
 234:C:/Users/²Ü¼ÒºÀ/.iotlink/sdk/IoT_LINK/iot_link/network/lwm2m/wakaama_lwm2m/wakaama-master/core/er-coap-13\er-coap-13.c ****                 part_start = array + j;
 235:C:/Users/²Ü¼ÒºÀ/.iotlink/sdk/IoT_LINK/iot_link/network/lwm2m/wakaama_lwm2m/wakaama-master/core/er-coap-13\er-coap-13.c ****             }
 236:C:/Users/²Ü¼ÒºÀ/.iotlink/sdk/IoT_LINK/iot_link/network/lwm2m/wakaama_lwm2m/wakaama-master/core/er-coap-13\er-coap-13.c ****         } /* for */
 237:C:/Users/²Ü¼ÒºÀ/.iotlink/sdk/IoT_LINK/iot_link/network/lwm2m/wakaama_lwm2m/wakaama-master/core/er-coap-13\er-coap-13.c ****     }
 238:C:/Users/²Ü¼ÒºÀ/.iotlink/sdk/IoT_LINK/iot_link/network/lwm2m/wakaama_lwm2m/wakaama-master/core/er-coap-13\er-coap-13.c ****     else
 239:C:/Users/²Ü¼ÒºÀ/.iotlink/sdk/IoT_LINK/iot_link/network/lwm2m/wakaama_lwm2m/wakaama-master/core/er-coap-13\er-coap-13.c ****     {
 240:C:/Users/²Ü¼ÒºÀ/.iotlink/sdk/IoT_LINK/iot_link/network/lwm2m/wakaama_lwm2m/wakaama-master/core/er-coap-13\er-coap-13.c ****         i += coap_set_option_header(number - current_number, length, &buffer[i]);
 241:C:/Users/²Ü¼ÒºÀ/.iotlink/sdk/IoT_LINK/iot_link/network/lwm2m/wakaama_lwm2m/wakaama-master/core/er-coap-13\er-coap-13.c ****         memcpy(&buffer[i], array, length);
 242:C:/Users/²Ü¼ÒºÀ/.iotlink/sdk/IoT_LINK/iot_link/network/lwm2m/wakaama_lwm2m/wakaama-master/core/er-coap-13\er-coap-13.c ****         i += length;
 243:C:/Users/²Ü¼ÒºÀ/.iotlink/sdk/IoT_LINK/iot_link/network/lwm2m/wakaama_lwm2m/wakaama-master/core/er-coap-13\er-coap-13.c **** 
 244:C:/Users/²Ü¼ÒºÀ/.iotlink/sdk/IoT_LINK/iot_link/network/lwm2m/wakaama_lwm2m/wakaama-master/core/er-coap-13\er-coap-13.c ****         PRINTF("OPTION type %u, delta %u, len %u\n", number, number - current_number, length);
 245:C:/Users/²Ü¼ÒºÀ/.iotlink/sdk/IoT_LINK/iot_link/network/lwm2m/wakaama_lwm2m/wakaama-master/core/er-coap-13\er-coap-13.c ****     }
 246:C:/Users/²Ü¼ÒºÀ/.iotlink/sdk/IoT_LINK/iot_link/network/lwm2m/wakaama_lwm2m/wakaama-master/core/er-coap-13\er-coap-13.c **** 
 247:C:/Users/²Ü¼ÒºÀ/.iotlink/sdk/IoT_LINK/iot_link/network/lwm2m/wakaama_lwm2m/wakaama-master/core/er-coap-13\er-coap-13.c ****     return i;
 248:C:/Users/²Ü¼ÒºÀ/.iotlink/sdk/IoT_LINK/iot_link/network/lwm2m/wakaama_lwm2m/wakaama-master/core/er-coap-13\er-coap-13.c **** }
 249:C:/Users/²Ü¼ÒºÀ/.iotlink/sdk/IoT_LINK/iot_link/network/lwm2m/wakaama_lwm2m/wakaama-master/core/er-coap-13\er-coap-13.c **** /*-----------------------------------------------------------------------------------*/
 250:C:/Users/²Ü¼ÒºÀ/.iotlink/sdk/IoT_LINK/iot_link/network/lwm2m/wakaama_lwm2m/wakaama-master/core/er-coap-13\er-coap-13.c **** static
 251:C:/Users/²Ü¼ÒºÀ/.iotlink/sdk/IoT_LINK/iot_link/network/lwm2m/wakaama_lwm2m/wakaama-master/core/er-coap-13\er-coap-13.c **** size_t
 252:C:/Users/²Ü¼ÒºÀ/.iotlink/sdk/IoT_LINK/iot_link/network/lwm2m/wakaama_lwm2m/wakaama-master/core/er-coap-13\er-coap-13.c **** coap_serialize_multi_option(unsigned int number, unsigned int current_number, uint8_t *buffer, mult
 253:C:/Users/²Ü¼ÒºÀ/.iotlink/sdk/IoT_LINK/iot_link/network/lwm2m/wakaama_lwm2m/wakaama-master/core/er-coap-13\er-coap-13.c **** {
 415              		.loc 1 253 1 is_stmt 1 view -0
 416              		.cfi_startproc
 417              		@ args = 0, pretend = 0, frame = 0
 418              		@ frame_needed = 0, uses_anonymous_args = 0
 254:C:/Users/²Ü¼ÒºÀ/.iotlink/sdk/IoT_LINK/iot_link/network/lwm2m/wakaama_lwm2m/wakaama-master/core/er-coap-13\er-coap-13.c ****     size_t i = 0;
 419              		.loc 1 254 5 view .LVU130
 255:C:/Users/²Ü¼ÒºÀ/.iotlink/sdk/IoT_LINK/iot_link/network/lwm2m/wakaama_lwm2m/wakaama-master/core/er-coap-13\er-coap-13.c ****     multi_option_t *j;
 420              		.loc 1 255 5 view .LVU131
 256:C:/Users/²Ü¼ÒºÀ/.iotlink/sdk/IoT_LINK/iot_link/network/lwm2m/wakaama_lwm2m/wakaama-master/core/er-coap-13\er-coap-13.c **** 
 257:C:/Users/²Ü¼ÒºÀ/.iotlink/sdk/IoT_LINK/iot_link/network/lwm2m/wakaama_lwm2m/wakaama-master/core/er-coap-13\er-coap-13.c ****     for (j = array; j != NULL; j = j->next)
 421              		.loc 1 257 5 view .LVU132
 253:C:/Users/²Ü¼ÒºÀ/.iotlink/sdk/IoT_LINK/iot_link/network/lwm2m/wakaama_lwm2m/wakaama-master/core/er-coap-13\er-coap-13.c ****     size_t i = 0;
 422              		.loc 1 253 1 is_stmt 0 view .LVU133
 423 0000 F8B5     		push	{r3, r4, r5, r6, r7, lr}
 424              	.LCFI4:
 425              		.cfi_def_cfa_offset 24
 426              		.cfi_offset 3, -24
 427              		.cfi_offset 4, -20
 428              		.cfi_offset 5, -16
 429              		.cfi_offset 6, -12
 430              		.cfi_offset 7, -8
 431              		.cfi_offset 14, -4
 253:C:/Users/²Ü¼ÒºÀ/.iotlink/sdk/IoT_LINK/iot_link/network/lwm2m/wakaama_lwm2m/wakaama-master/core/er-coap-13\er-coap-13.c ****     size_t i = 0;
 432              		.loc 1 253 1 view .LVU134
 433 0002 0646     		mov	r6, r0
 434 0004 1746     		mov	r7, r2
ARM GAS  C:\Users\²Ü¼ÒºÀ\AppData\Local\Temp\cczrlpTg.s 			page 14


 435 0006 0846     		mov	r0, r1
 436              	.LVL40:
 253:C:/Users/²Ü¼ÒºÀ/.iotlink/sdk/IoT_LINK/iot_link/network/lwm2m/wakaama_lwm2m/wakaama-master/core/er-coap-13\er-coap-13.c ****     size_t i = 0;
 437              		.loc 1 253 1 view .LVU135
 438 0008 1C46     		mov	r4, r3
 439              	.LVL41:
 254:C:/Users/²Ü¼ÒºÀ/.iotlink/sdk/IoT_LINK/iot_link/network/lwm2m/wakaama_lwm2m/wakaama-master/core/er-coap-13\er-coap-13.c ****     multi_option_t *j;
 440              		.loc 1 254 12 view .LVU136
 441 000a 0025     		movs	r5, #0
 442              	.LVL42:
 443              	.L39:
 444              		.loc 1 257 21 is_stmt 1 discriminator 1 view .LVU137
 445              		.loc 1 257 5 is_stmt 0 discriminator 1 view .LVU138
 446 000c 0CB9     		cbnz	r4, .L40
 258:C:/Users/²Ü¼ÒºÀ/.iotlink/sdk/IoT_LINK/iot_link/network/lwm2m/wakaama_lwm2m/wakaama-master/core/er-coap-13\er-coap-13.c ****     {
 259:C:/Users/²Ü¼ÒºÀ/.iotlink/sdk/IoT_LINK/iot_link/network/lwm2m/wakaama_lwm2m/wakaama-master/core/er-coap-13\er-coap-13.c ****         i += coap_set_option_header(number - current_number, j->len, &buffer[i]);
 260:C:/Users/²Ü¼ÒºÀ/.iotlink/sdk/IoT_LINK/iot_link/network/lwm2m/wakaama_lwm2m/wakaama-master/core/er-coap-13\er-coap-13.c ****         current_number = number;
 261:C:/Users/²Ü¼ÒºÀ/.iotlink/sdk/IoT_LINK/iot_link/network/lwm2m/wakaama_lwm2m/wakaama-master/core/er-coap-13\er-coap-13.c ****         memcpy(&buffer[i], j->data, j->len);
 262:C:/Users/²Ü¼ÒºÀ/.iotlink/sdk/IoT_LINK/iot_link/network/lwm2m/wakaama_lwm2m/wakaama-master/core/er-coap-13\er-coap-13.c ****         i += j->len;
 263:C:/Users/²Ü¼ÒºÀ/.iotlink/sdk/IoT_LINK/iot_link/network/lwm2m/wakaama_lwm2m/wakaama-master/core/er-coap-13\er-coap-13.c ****     } /* for */
 264:C:/Users/²Ü¼ÒºÀ/.iotlink/sdk/IoT_LINK/iot_link/network/lwm2m/wakaama_lwm2m/wakaama-master/core/er-coap-13\er-coap-13.c **** 
 265:C:/Users/²Ü¼ÒºÀ/.iotlink/sdk/IoT_LINK/iot_link/network/lwm2m/wakaama_lwm2m/wakaama-master/core/er-coap-13\er-coap-13.c ****     return i;
 447              		.loc 1 265 5 is_stmt 1 view .LVU139
 266:C:/Users/²Ü¼ÒºÀ/.iotlink/sdk/IoT_LINK/iot_link/network/lwm2m/wakaama_lwm2m/wakaama-master/core/er-coap-13\er-coap-13.c **** }
 448              		.loc 1 266 1 is_stmt 0 view .LVU140
 449 000e 2846     		mov	r0, r5
 450              	.LVL43:
 451              		.loc 1 266 1 view .LVU141
 452 0010 F8BD     		pop	{r3, r4, r5, r6, r7, pc}
 453              	.LVL44:
 454              	.L40:
 259:C:/Users/²Ü¼ÒºÀ/.iotlink/sdk/IoT_LINK/iot_link/network/lwm2m/wakaama_lwm2m/wakaama-master/core/er-coap-13\er-coap-13.c ****         current_number = number;
 455              		.loc 1 259 9 is_stmt 1 discriminator 3 view .LVU142
 259:C:/Users/²Ü¼ÒºÀ/.iotlink/sdk/IoT_LINK/iot_link/network/lwm2m/wakaama_lwm2m/wakaama-master/core/er-coap-13\er-coap-13.c ****         current_number = number;
 456              		.loc 1 259 14 is_stmt 0 discriminator 3 view .LVU143
 457 0012 6179     		ldrb	r1, [r4, #5]	@ zero_extendqisi2
 458 0014 7A19     		adds	r2, r7, r5
 459 0016 301A     		subs	r0, r6, r0
 460              	.LVL45:
 259:C:/Users/²Ü¼ÒºÀ/.iotlink/sdk/IoT_LINK/iot_link/network/lwm2m/wakaama_lwm2m/wakaama-master/core/er-coap-13\er-coap-13.c ****         current_number = number;
 461              		.loc 1 259 14 discriminator 3 view .LVU144
 462 0018 FFF7FEFF 		bl	coap_set_option_header
 463              	.LVL46:
 259:C:/Users/²Ü¼ÒºÀ/.iotlink/sdk/IoT_LINK/iot_link/network/lwm2m/wakaama_lwm2m/wakaama-master/core/er-coap-13\er-coap-13.c ****         current_number = number;
 464              		.loc 1 259 11 discriminator 3 view .LVU145
 465 001c 0544     		add	r5, r5, r0
 466              	.LVL47:
 260:C:/Users/²Ü¼ÒºÀ/.iotlink/sdk/IoT_LINK/iot_link/network/lwm2m/wakaama_lwm2m/wakaama-master/core/er-coap-13\er-coap-13.c ****         memcpy(&buffer[i], j->data, j->len);
 467              		.loc 1 260 9 is_stmt 1 discriminator 3 view .LVU146
 261:C:/Users/²Ü¼ÒºÀ/.iotlink/sdk/IoT_LINK/iot_link/network/lwm2m/wakaama_lwm2m/wakaama-master/core/er-coap-13\er-coap-13.c ****         i += j->len;
 468              		.loc 1 261 9 discriminator 3 view .LVU147
 469 001e 6279     		ldrb	r2, [r4, #5]	@ zero_extendqisi2
 470 0020 A168     		ldr	r1, [r4, #8]
 471 0022 7819     		adds	r0, r7, r5
 472 0024 FFF7FEFF 		bl	memcpy
 473              	.LVL48:
 262:C:/Users/²Ü¼ÒºÀ/.iotlink/sdk/IoT_LINK/iot_link/network/lwm2m/wakaama_lwm2m/wakaama-master/core/er-coap-13\er-coap-13.c ****     } /* for */
ARM GAS  C:\Users\²Ü¼ÒºÀ\AppData\Local\Temp\cczrlpTg.s 			page 15


 474              		.loc 1 262 9 discriminator 3 view .LVU148
 262:C:/Users/²Ü¼ÒºÀ/.iotlink/sdk/IoT_LINK/iot_link/network/lwm2m/wakaama_lwm2m/wakaama-master/core/er-coap-13\er-coap-13.c ****     } /* for */
 475              		.loc 1 262 15 is_stmt 0 discriminator 3 view .LVU149
 476 0028 6079     		ldrb	r0, [r4, #5]	@ zero_extendqisi2
 257:C:/Users/²Ü¼ÒºÀ/.iotlink/sdk/IoT_LINK/iot_link/network/lwm2m/wakaama_lwm2m/wakaama-master/core/er-coap-13\er-coap-13.c ****     {
 477              		.loc 1 257 34 discriminator 3 view .LVU150
 478 002a 2468     		ldr	r4, [r4]
 479              	.LVL49:
 262:C:/Users/²Ü¼ÒºÀ/.iotlink/sdk/IoT_LINK/iot_link/network/lwm2m/wakaama_lwm2m/wakaama-master/core/er-coap-13\er-coap-13.c ****     } /* for */
 480              		.loc 1 262 11 discriminator 3 view .LVU151
 481 002c 0544     		add	r5, r5, r0
 482              	.LVL50:
 257:C:/Users/²Ü¼ÒºÀ/.iotlink/sdk/IoT_LINK/iot_link/network/lwm2m/wakaama_lwm2m/wakaama-master/core/er-coap-13\er-coap-13.c ****     {
 483              		.loc 1 257 32 is_stmt 1 discriminator 3 view .LVU152
 260:C:/Users/²Ü¼ÒºÀ/.iotlink/sdk/IoT_LINK/iot_link/network/lwm2m/wakaama_lwm2m/wakaama-master/core/er-coap-13\er-coap-13.c ****         memcpy(&buffer[i], j->data, j->len);
 484              		.loc 1 260 24 is_stmt 0 discriminator 3 view .LVU153
 485 002e 3046     		mov	r0, r6
 486 0030 ECE7     		b	.L39
 487              		.cfi_endproc
 488              	.LFE10:
 490              		.section	.text.coap_serialize_array_option.part.0,"ax",%progbits
 491              		.align	1
 492              		.syntax unified
 493              		.thumb
 494              		.thumb_func
 495              		.fpu fpv4-sp-d16
 497              	coap_serialize_array_option.part.0:
 498              	.LVL51:
 499              	.LFB62:
 208:C:/Users/²Ü¼ÒºÀ/.iotlink/sdk/IoT_LINK/iot_link/network/lwm2m/wakaama_lwm2m/wakaama-master/core/er-coap-13\er-coap-13.c **** {
 500              		.loc 1 208 1 is_stmt 1 view -0
 501              		.cfi_startproc
 502              		@ args = 4, pretend = 0, frame = 0
 503              		@ frame_needed = 0, uses_anonymous_args = 0
 240:C:/Users/²Ü¼ÒºÀ/.iotlink/sdk/IoT_LINK/iot_link/network/lwm2m/wakaama_lwm2m/wakaama-master/core/er-coap-13\er-coap-13.c ****         memcpy(&buffer[i], array, length);
 504              		.loc 1 240 9 view .LVU155
 208:C:/Users/²Ü¼ÒºÀ/.iotlink/sdk/IoT_LINK/iot_link/network/lwm2m/wakaama_lwm2m/wakaama-master/core/er-coap-13\er-coap-13.c **** {
 505              		.loc 1 208 1 is_stmt 0 view .LVU156
 506 0000 F8B5     		push	{r3, r4, r5, r6, r7, lr}
 507              	.LCFI5:
 508              		.cfi_def_cfa_offset 24
 509              		.cfi_offset 3, -24
 510              		.cfi_offset 4, -20
 511              		.cfi_offset 5, -16
 512              		.cfi_offset 6, -12
 513              		.cfi_offset 7, -8
 514              		.cfi_offset 14, -4
 208:C:/Users/²Ü¼ÒºÀ/.iotlink/sdk/IoT_LINK/iot_link/network/lwm2m/wakaama_lwm2m/wakaama-master/core/er-coap-13\er-coap-13.c **** {
 515              		.loc 1 208 1 view .LVU157
 516 0002 069D     		ldr	r5, [sp, #24]
 517 0004 0C46     		mov	r4, r1
 240:C:/Users/²Ü¼ÒºÀ/.iotlink/sdk/IoT_LINK/iot_link/network/lwm2m/wakaama_lwm2m/wakaama-master/core/er-coap-13\er-coap-13.c ****         memcpy(&buffer[i], array, length);
 518              		.loc 1 240 14 view .LVU158
 519 0006 001B     		subs	r0, r0, r4
 520              	.LVL52:
 240:C:/Users/²Ü¼ÒºÀ/.iotlink/sdk/IoT_LINK/iot_link/network/lwm2m/wakaama_lwm2m/wakaama-master/core/er-coap-13\er-coap-13.c ****         memcpy(&buffer[i], array, length);
 521              		.loc 1 240 14 view .LVU159
ARM GAS  C:\Users\²Ü¼ÒºÀ\AppData\Local\Temp\cczrlpTg.s 			page 16


 522 0008 2946     		mov	r1, r5
 523              	.LVL53:
 208:C:/Users/²Ü¼ÒºÀ/.iotlink/sdk/IoT_LINK/iot_link/network/lwm2m/wakaama_lwm2m/wakaama-master/core/er-coap-13\er-coap-13.c **** {
 524              		.loc 1 208 1 view .LVU160
 525 000a 1646     		mov	r6, r2
 526 000c 1F46     		mov	r7, r3
 240:C:/Users/²Ü¼ÒºÀ/.iotlink/sdk/IoT_LINK/iot_link/network/lwm2m/wakaama_lwm2m/wakaama-master/core/er-coap-13\er-coap-13.c ****         memcpy(&buffer[i], array, length);
 527              		.loc 1 240 14 view .LVU161
 528 000e FFF7FEFF 		bl	coap_set_option_header
 529              	.LVL54:
 241:C:/Users/²Ü¼ÒºÀ/.iotlink/sdk/IoT_LINK/iot_link/network/lwm2m/wakaama_lwm2m/wakaama-master/core/er-coap-13\er-coap-13.c ****         i += length;
 530              		.loc 1 241 9 view .LVU162
 531 0012 2A46     		mov	r2, r5
 532              	.LVL55:
 240:C:/Users/²Ü¼ÒºÀ/.iotlink/sdk/IoT_LINK/iot_link/network/lwm2m/wakaama_lwm2m/wakaama-master/core/er-coap-13\er-coap-13.c ****         memcpy(&buffer[i], array, length);
 533              		.loc 1 240 14 view .LVU163
 534 0014 0446     		mov	r4, r0
 535              	.LVL56:
 241:C:/Users/²Ü¼ÒºÀ/.iotlink/sdk/IoT_LINK/iot_link/network/lwm2m/wakaama_lwm2m/wakaama-master/core/er-coap-13\er-coap-13.c ****         i += length;
 536              		.loc 1 241 9 is_stmt 1 view .LVU164
 537 0016 3946     		mov	r1, r7
 538 0018 3018     		adds	r0, r6, r0
 539              	.LVL57:
 241:C:/Users/²Ü¼ÒºÀ/.iotlink/sdk/IoT_LINK/iot_link/network/lwm2m/wakaama_lwm2m/wakaama-master/core/er-coap-13\er-coap-13.c ****         i += length;
 540              		.loc 1 241 9 is_stmt 0 view .LVU165
 541 001a FFF7FEFF 		bl	memcpy
 542              	.LVL58:
 242:C:/Users/²Ü¼ÒºÀ/.iotlink/sdk/IoT_LINK/iot_link/network/lwm2m/wakaama_lwm2m/wakaama-master/core/er-coap-13\er-coap-13.c **** 
 543              		.loc 1 242 9 is_stmt 1 view .LVU166
 244:C:/Users/²Ü¼ÒºÀ/.iotlink/sdk/IoT_LINK/iot_link/network/lwm2m/wakaama_lwm2m/wakaama-master/core/er-coap-13\er-coap-13.c ****     }
 544              		.loc 1 244 94 view .LVU167
 247:C:/Users/²Ü¼ÒºÀ/.iotlink/sdk/IoT_LINK/iot_link/network/lwm2m/wakaama_lwm2m/wakaama-master/core/er-coap-13\er-coap-13.c **** }
 545              		.loc 1 247 5 view .LVU168
 248:C:/Users/²Ü¼ÒºÀ/.iotlink/sdk/IoT_LINK/iot_link/network/lwm2m/wakaama_lwm2m/wakaama-master/core/er-coap-13\er-coap-13.c **** /*-----------------------------------------------------------------------------------*/
 546              		.loc 1 248 1 is_stmt 0 view .LVU169
 547 001e 2819     		adds	r0, r5, r4
 548              	.LVL59:
 248:C:/Users/²Ü¼ÒºÀ/.iotlink/sdk/IoT_LINK/iot_link/network/lwm2m/wakaama_lwm2m/wakaama-master/core/er-coap-13\er-coap-13.c **** /*-----------------------------------------------------------------------------------*/
 549              		.loc 1 248 1 view .LVU170
 550 0020 F8BD     		pop	{r3, r4, r5, r6, r7, pc}
 248:C:/Users/²Ü¼ÒºÀ/.iotlink/sdk/IoT_LINK/iot_link/network/lwm2m/wakaama_lwm2m/wakaama-master/core/er-coap-13\er-coap-13.c **** /*-----------------------------------------------------------------------------------*/
 551              		.loc 1 248 1 view .LVU171
 552              		.cfi_endproc
 553              	.LFE62:
 555              		.section	.text.coap_add_multi_option,"ax",%progbits
 556              		.align	1
 557              		.global	coap_add_multi_option
 558              		.syntax unified
 559              		.thumb
 560              		.thumb_func
 561              		.fpu fpv4-sp-d16
 563              	coap_add_multi_option:
 564              	.LVL60:
 565              	.LFB12:
 267:C:/Users/²Ü¼ÒºÀ/.iotlink/sdk/IoT_LINK/iot_link/network/lwm2m/wakaama_lwm2m/wakaama-master/core/er-coap-13\er-coap-13.c **** /*-----------------------------------------------------------------------------------*/
 268:C:/Users/²Ü¼ÒºÀ/.iotlink/sdk/IoT_LINK/iot_link/network/lwm2m/wakaama_lwm2m/wakaama-master/core/er-coap-13\er-coap-13.c **** static
 269:C:/Users/²Ü¼ÒºÀ/.iotlink/sdk/IoT_LINK/iot_link/network/lwm2m/wakaama_lwm2m/wakaama-master/core/er-coap-13\er-coap-13.c **** void
ARM GAS  C:\Users\²Ü¼ÒºÀ\AppData\Local\Temp\cczrlpTg.s 			page 17


 270:C:/Users/²Ü¼ÒºÀ/.iotlink/sdk/IoT_LINK/iot_link/network/lwm2m/wakaama_lwm2m/wakaama-master/core/er-coap-13\er-coap-13.c **** coap_merge_multi_option(uint8_t **dst, size_t *dst_len, uint8_t *option, size_t option_len, char se
 271:C:/Users/²Ü¼ÒºÀ/.iotlink/sdk/IoT_LINK/iot_link/network/lwm2m/wakaama_lwm2m/wakaama-master/core/er-coap-13\er-coap-13.c **** {
 272:C:/Users/²Ü¼ÒºÀ/.iotlink/sdk/IoT_LINK/iot_link/network/lwm2m/wakaama_lwm2m/wakaama-master/core/er-coap-13\er-coap-13.c ****     /* Merge multiple options. */
 273:C:/Users/²Ü¼ÒºÀ/.iotlink/sdk/IoT_LINK/iot_link/network/lwm2m/wakaama_lwm2m/wakaama-master/core/er-coap-13\er-coap-13.c ****     if (*dst_len > 0)
 274:C:/Users/²Ü¼ÒºÀ/.iotlink/sdk/IoT_LINK/iot_link/network/lwm2m/wakaama_lwm2m/wakaama-master/core/er-coap-13\er-coap-13.c ****     {
 275:C:/Users/²Ü¼ÒºÀ/.iotlink/sdk/IoT_LINK/iot_link/network/lwm2m/wakaama_lwm2m/wakaama-master/core/er-coap-13\er-coap-13.c ****         /* dst already contains an option: concatenate */
 276:C:/Users/²Ü¼ÒºÀ/.iotlink/sdk/IoT_LINK/iot_link/network/lwm2m/wakaama_lwm2m/wakaama-master/core/er-coap-13\er-coap-13.c ****         (*dst)[*dst_len] = separator;
 277:C:/Users/²Ü¼ÒºÀ/.iotlink/sdk/IoT_LINK/iot_link/network/lwm2m/wakaama_lwm2m/wakaama-master/core/er-coap-13\er-coap-13.c ****         *dst_len += 1;
 278:C:/Users/²Ü¼ÒºÀ/.iotlink/sdk/IoT_LINK/iot_link/network/lwm2m/wakaama_lwm2m/wakaama-master/core/er-coap-13\er-coap-13.c **** 
 279:C:/Users/²Ü¼ÒºÀ/.iotlink/sdk/IoT_LINK/iot_link/network/lwm2m/wakaama_lwm2m/wakaama-master/core/er-coap-13\er-coap-13.c ****         /* memmove handles 2-byte option headers */
 280:C:/Users/²Ü¼ÒºÀ/.iotlink/sdk/IoT_LINK/iot_link/network/lwm2m/wakaama_lwm2m/wakaama-master/core/er-coap-13\er-coap-13.c ****         memmove((*dst) + (*dst_len), option, option_len);
 281:C:/Users/²Ü¼ÒºÀ/.iotlink/sdk/IoT_LINK/iot_link/network/lwm2m/wakaama_lwm2m/wakaama-master/core/er-coap-13\er-coap-13.c **** 
 282:C:/Users/²Ü¼ÒºÀ/.iotlink/sdk/IoT_LINK/iot_link/network/lwm2m/wakaama_lwm2m/wakaama-master/core/er-coap-13\er-coap-13.c ****         *dst_len += option_len;
 283:C:/Users/²Ü¼ÒºÀ/.iotlink/sdk/IoT_LINK/iot_link/network/lwm2m/wakaama_lwm2m/wakaama-master/core/er-coap-13\er-coap-13.c ****     }
 284:C:/Users/²Ü¼ÒºÀ/.iotlink/sdk/IoT_LINK/iot_link/network/lwm2m/wakaama_lwm2m/wakaama-master/core/er-coap-13\er-coap-13.c ****     else
 285:C:/Users/²Ü¼ÒºÀ/.iotlink/sdk/IoT_LINK/iot_link/network/lwm2m/wakaama_lwm2m/wakaama-master/core/er-coap-13\er-coap-13.c ****     {
 286:C:/Users/²Ü¼ÒºÀ/.iotlink/sdk/IoT_LINK/iot_link/network/lwm2m/wakaama_lwm2m/wakaama-master/core/er-coap-13\er-coap-13.c ****         /* dst is empty: set to option */
 287:C:/Users/²Ü¼ÒºÀ/.iotlink/sdk/IoT_LINK/iot_link/network/lwm2m/wakaama_lwm2m/wakaama-master/core/er-coap-13\er-coap-13.c ****         *dst = option;
 288:C:/Users/²Ü¼ÒºÀ/.iotlink/sdk/IoT_LINK/iot_link/network/lwm2m/wakaama_lwm2m/wakaama-master/core/er-coap-13\er-coap-13.c ****         *dst_len = option_len;
 289:C:/Users/²Ü¼ÒºÀ/.iotlink/sdk/IoT_LINK/iot_link/network/lwm2m/wakaama_lwm2m/wakaama-master/core/er-coap-13\er-coap-13.c ****     }
 290:C:/Users/²Ü¼ÒºÀ/.iotlink/sdk/IoT_LINK/iot_link/network/lwm2m/wakaama_lwm2m/wakaama-master/core/er-coap-13\er-coap-13.c **** }
 291:C:/Users/²Ü¼ÒºÀ/.iotlink/sdk/IoT_LINK/iot_link/network/lwm2m/wakaama_lwm2m/wakaama-master/core/er-coap-13\er-coap-13.c **** 
 292:C:/Users/²Ü¼ÒºÀ/.iotlink/sdk/IoT_LINK/iot_link/network/lwm2m/wakaama_lwm2m/wakaama-master/core/er-coap-13\er-coap-13.c **** void
 293:C:/Users/²Ü¼ÒºÀ/.iotlink/sdk/IoT_LINK/iot_link/network/lwm2m/wakaama_lwm2m/wakaama-master/core/er-coap-13\er-coap-13.c **** coap_add_multi_option(multi_option_t **dst, uint8_t *option, size_t option_len, uint8_t is_static)
 294:C:/Users/²Ü¼ÒºÀ/.iotlink/sdk/IoT_LINK/iot_link/network/lwm2m/wakaama_lwm2m/wakaama-master/core/er-coap-13\er-coap-13.c **** {
 566              		.loc 1 294 1 is_stmt 1 view -0
 567              		.cfi_startproc
 568              		@ args = 0, pretend = 0, frame = 0
 569              		@ frame_needed = 0, uses_anonymous_args = 0
 295:C:/Users/²Ü¼ÒºÀ/.iotlink/sdk/IoT_LINK/iot_link/network/lwm2m/wakaama_lwm2m/wakaama-master/core/er-coap-13\er-coap-13.c ****     multi_option_t *opt = (multi_option_t *)lwm2m_malloc(sizeof(multi_option_t));
 570              		.loc 1 295 5 view .LVU173
 294:C:/Users/²Ü¼ÒºÀ/.iotlink/sdk/IoT_LINK/iot_link/network/lwm2m/wakaama_lwm2m/wakaama-master/core/er-coap-13\er-coap-13.c ****     multi_option_t *opt = (multi_option_t *)lwm2m_malloc(sizeof(multi_option_t));
 571              		.loc 1 294 1 is_stmt 0 view .LVU174
 572 0000 2DE9F041 		push	{r4, r5, r6, r7, r8, lr}
 573              	.LCFI6:
 574              		.cfi_def_cfa_offset 24
 575              		.cfi_offset 4, -24
 576              		.cfi_offset 5, -20
 577              		.cfi_offset 6, -16
 578              		.cfi_offset 7, -12
 579              		.cfi_offset 8, -8
 580              		.cfi_offset 14, -4
 294:C:/Users/²Ü¼ÒºÀ/.iotlink/sdk/IoT_LINK/iot_link/network/lwm2m/wakaama_lwm2m/wakaama-master/core/er-coap-13\er-coap-13.c ****     multi_option_t *opt = (multi_option_t *)lwm2m_malloc(sizeof(multi_option_t));
 581              		.loc 1 294 1 view .LVU175
 582 0004 0646     		mov	r6, r0
 583              		.loc 1 295 45 view .LVU176
 584 0006 0C20     		movs	r0, #12
 585              	.LVL61:
 294:C:/Users/²Ü¼ÒºÀ/.iotlink/sdk/IoT_LINK/iot_link/network/lwm2m/wakaama_lwm2m/wakaama-master/core/er-coap-13\er-coap-13.c ****     multi_option_t *opt = (multi_option_t *)lwm2m_malloc(sizeof(multi_option_t));
 586              		.loc 1 294 1 view .LVU177
 587 0008 0F46     		mov	r7, r1
 588 000a 1546     		mov	r5, r2
 589 000c 9846     		mov	r8, r3
 590              		.loc 1 295 45 view .LVU178
 591 000e FFF7FEFF 		bl	lwm2m_malloc
 592              	.LVL62:
 296:C:/Users/²Ü¼ÒºÀ/.iotlink/sdk/IoT_LINK/iot_link/network/lwm2m/wakaama_lwm2m/wakaama-master/core/er-coap-13\er-coap-13.c **** 
ARM GAS  C:\Users\²Ü¼ÒºÀ\AppData\Local\Temp\cczrlpTg.s 			page 18


 297:C:/Users/²Ü¼ÒºÀ/.iotlink/sdk/IoT_LINK/iot_link/network/lwm2m/wakaama_lwm2m/wakaama-master/core/er-coap-13\er-coap-13.c ****     if (opt)
 593              		.loc 1 297 5 is_stmt 1 view .LVU179
 594              		.loc 1 297 8 is_stmt 0 view .LVU180
 595 0012 0446     		mov	r4, r0
 596 0014 78B1     		cbz	r0, .L42
 298:C:/Users/²Ü¼ÒºÀ/.iotlink/sdk/IoT_LINK/iot_link/network/lwm2m/wakaama_lwm2m/wakaama-master/core/er-coap-13\er-coap-13.c ****     {
 299:C:/Users/²Ü¼ÒºÀ/.iotlink/sdk/IoT_LINK/iot_link/network/lwm2m/wakaama_lwm2m/wakaama-master/core/er-coap-13\er-coap-13.c ****         opt->next = NULL;
 597              		.loc 1 299 9 is_stmt 1 view .LVU181
 598              		.loc 1 299 19 is_stmt 0 view .LVU182
 599 0016 0023     		movs	r3, #0
 600 0018 0360     		str	r3, [r0]
 300:C:/Users/²Ü¼ÒºÀ/.iotlink/sdk/IoT_LINK/iot_link/network/lwm2m/wakaama_lwm2m/wakaama-master/core/er-coap-13\er-coap-13.c ****         opt->len = (uint8_t)option_len;
 601              		.loc 1 300 9 is_stmt 1 view .LVU183
 602              		.loc 1 300 20 is_stmt 0 view .LVU184
 603 001a 4571     		strb	r5, [r0, #5]
 301:C:/Users/²Ü¼ÒºÀ/.iotlink/sdk/IoT_LINK/iot_link/network/lwm2m/wakaama_lwm2m/wakaama-master/core/er-coap-13\er-coap-13.c ****         if (is_static)
 604              		.loc 1 301 9 is_stmt 1 view .LVU185
 605              		.loc 1 301 12 is_stmt 0 view .LVU186
 606 001c B8F1000F 		cmp	r8, #0
 607 0020 0BD0     		beq	.L44
 302:C:/Users/²Ü¼ÒºÀ/.iotlink/sdk/IoT_LINK/iot_link/network/lwm2m/wakaama_lwm2m/wakaama-master/core/er-coap-13\er-coap-13.c ****         {
 303:C:/Users/²Ü¼ÒºÀ/.iotlink/sdk/IoT_LINK/iot_link/network/lwm2m/wakaama_lwm2m/wakaama-master/core/er-coap-13\er-coap-13.c ****             opt->data = option;
 608              		.loc 1 303 13 is_stmt 1 view .LVU187
 304:C:/Users/²Ü¼ÒºÀ/.iotlink/sdk/IoT_LINK/iot_link/network/lwm2m/wakaama_lwm2m/wakaama-master/core/er-coap-13\er-coap-13.c ****             opt->is_static = 1;
 609              		.loc 1 304 28 is_stmt 0 view .LVU188
 610 0022 0123     		movs	r3, #1
 303:C:/Users/²Ü¼ÒºÀ/.iotlink/sdk/IoT_LINK/iot_link/network/lwm2m/wakaama_lwm2m/wakaama-master/core/er-coap-13\er-coap-13.c ****             opt->is_static = 1;
 611              		.loc 1 303 23 view .LVU189
 612 0024 8760     		str	r7, [r0, #8]
 613              		.loc 1 304 13 is_stmt 1 view .LVU190
 614              		.loc 1 304 28 is_stmt 0 view .LVU191
 615 0026 0371     		strb	r3, [r0, #4]
 616              	.LVL63:
 617              	.L45:
 305:C:/Users/²Ü¼ÒºÀ/.iotlink/sdk/IoT_LINK/iot_link/network/lwm2m/wakaama_lwm2m/wakaama-master/core/er-coap-13\er-coap-13.c ****         }
 306:C:/Users/²Ü¼ÒºÀ/.iotlink/sdk/IoT_LINK/iot_link/network/lwm2m/wakaama_lwm2m/wakaama-master/core/er-coap-13\er-coap-13.c ****         else
 307:C:/Users/²Ü¼ÒºÀ/.iotlink/sdk/IoT_LINK/iot_link/network/lwm2m/wakaama_lwm2m/wakaama-master/core/er-coap-13\er-coap-13.c ****         {
 308:C:/Users/²Ü¼ÒºÀ/.iotlink/sdk/IoT_LINK/iot_link/network/lwm2m/wakaama_lwm2m/wakaama-master/core/er-coap-13\er-coap-13.c ****             opt->is_static = 0;
 309:C:/Users/²Ü¼ÒºÀ/.iotlink/sdk/IoT_LINK/iot_link/network/lwm2m/wakaama_lwm2m/wakaama-master/core/er-coap-13\er-coap-13.c ****             opt->data = (uint8_t *)lwm2m_malloc(option_len);
 310:C:/Users/²Ü¼ÒºÀ/.iotlink/sdk/IoT_LINK/iot_link/network/lwm2m/wakaama_lwm2m/wakaama-master/core/er-coap-13\er-coap-13.c ****             if (opt->data == NULL)
 311:C:/Users/²Ü¼ÒºÀ/.iotlink/sdk/IoT_LINK/iot_link/network/lwm2m/wakaama_lwm2m/wakaama-master/core/er-coap-13\er-coap-13.c ****             {
 312:C:/Users/²Ü¼ÒºÀ/.iotlink/sdk/IoT_LINK/iot_link/network/lwm2m/wakaama_lwm2m/wakaama-master/core/er-coap-13\er-coap-13.c ****                 lwm2m_free(opt);
 313:C:/Users/²Ü¼ÒºÀ/.iotlink/sdk/IoT_LINK/iot_link/network/lwm2m/wakaama_lwm2m/wakaama-master/core/er-coap-13\er-coap-13.c ****                 return;
 314:C:/Users/²Ü¼ÒºÀ/.iotlink/sdk/IoT_LINK/iot_link/network/lwm2m/wakaama_lwm2m/wakaama-master/core/er-coap-13\er-coap-13.c ****             }
 315:C:/Users/²Ü¼ÒºÀ/.iotlink/sdk/IoT_LINK/iot_link/network/lwm2m/wakaama_lwm2m/wakaama-master/core/er-coap-13\er-coap-13.c ****             memcpy(opt->data, option, option_len);
 316:C:/Users/²Ü¼ÒºÀ/.iotlink/sdk/IoT_LINK/iot_link/network/lwm2m/wakaama_lwm2m/wakaama-master/core/er-coap-13\er-coap-13.c ****         }
 317:C:/Users/²Ü¼ÒºÀ/.iotlink/sdk/IoT_LINK/iot_link/network/lwm2m/wakaama_lwm2m/wakaama-master/core/er-coap-13\er-coap-13.c **** 
 318:C:/Users/²Ü¼ÒºÀ/.iotlink/sdk/IoT_LINK/iot_link/network/lwm2m/wakaama_lwm2m/wakaama-master/core/er-coap-13\er-coap-13.c ****         if (*dst)
 618              		.loc 1 318 9 is_stmt 1 view .LVU192
 619              		.loc 1 318 13 is_stmt 0 view .LVU193
 620 0028 3368     		ldr	r3, [r6]
 621              		.loc 1 318 12 view .LVU194
 622 002a BBB1     		cbz	r3, .L47
 623              	.L48:
 624              	.LVL64:
 625              	.LBB37:
 319:C:/Users/²Ü¼ÒºÀ/.iotlink/sdk/IoT_LINK/iot_link/network/lwm2m/wakaama_lwm2m/wakaama-master/core/er-coap-13\er-coap-13.c ****         {
ARM GAS  C:\Users\²Ü¼ÒºÀ\AppData\Local\Temp\cczrlpTg.s 			page 19


 320:C:/Users/²Ü¼ÒºÀ/.iotlink/sdk/IoT_LINK/iot_link/network/lwm2m/wakaama_lwm2m/wakaama-master/core/er-coap-13\er-coap-13.c ****             multi_option_t *i = *dst;
 321:C:/Users/²Ü¼ÒºÀ/.iotlink/sdk/IoT_LINK/iot_link/network/lwm2m/wakaama_lwm2m/wakaama-master/core/er-coap-13\er-coap-13.c ****             while (i->next)
 626              		.loc 1 321 19 is_stmt 1 view .LVU195
 627 002c 1A46     		mov	r2, r3
 628              		.loc 1 321 21 is_stmt 0 view .LVU196
 629 002e 1B68     		ldr	r3, [r3]
 630              	.LVL65:
 631              		.loc 1 321 19 view .LVU197
 632 0030 002B     		cmp	r3, #0
 633 0032 FBD1     		bne	.L48
 322:C:/Users/²Ü¼ÒºÀ/.iotlink/sdk/IoT_LINK/iot_link/network/lwm2m/wakaama_lwm2m/wakaama-master/core/er-coap-13\er-coap-13.c ****             {
 323:C:/Users/²Ü¼ÒºÀ/.iotlink/sdk/IoT_LINK/iot_link/network/lwm2m/wakaama_lwm2m/wakaama-master/core/er-coap-13\er-coap-13.c ****                 i = i->next;
 324:C:/Users/²Ü¼ÒºÀ/.iotlink/sdk/IoT_LINK/iot_link/network/lwm2m/wakaama_lwm2m/wakaama-master/core/er-coap-13\er-coap-13.c ****             }
 325:C:/Users/²Ü¼ÒºÀ/.iotlink/sdk/IoT_LINK/iot_link/network/lwm2m/wakaama_lwm2m/wakaama-master/core/er-coap-13\er-coap-13.c ****             i->next = opt;
 634              		.loc 1 325 13 is_stmt 1 view .LVU198
 635              		.loc 1 325 21 is_stmt 0 view .LVU199
 636 0034 1460     		str	r4, [r2]
 637              	.LVL66:
 638              	.L42:
 639              		.loc 1 325 21 view .LVU200
 640              	.LBE37:
 326:C:/Users/²Ü¼ÒºÀ/.iotlink/sdk/IoT_LINK/iot_link/network/lwm2m/wakaama_lwm2m/wakaama-master/core/er-coap-13\er-coap-13.c ****         }
 327:C:/Users/²Ü¼ÒºÀ/.iotlink/sdk/IoT_LINK/iot_link/network/lwm2m/wakaama_lwm2m/wakaama-master/core/er-coap-13\er-coap-13.c ****         else
 328:C:/Users/²Ü¼ÒºÀ/.iotlink/sdk/IoT_LINK/iot_link/network/lwm2m/wakaama_lwm2m/wakaama-master/core/er-coap-13\er-coap-13.c ****         {
 329:C:/Users/²Ü¼ÒºÀ/.iotlink/sdk/IoT_LINK/iot_link/network/lwm2m/wakaama_lwm2m/wakaama-master/core/er-coap-13\er-coap-13.c ****             *dst = opt;
 330:C:/Users/²Ü¼ÒºÀ/.iotlink/sdk/IoT_LINK/iot_link/network/lwm2m/wakaama_lwm2m/wakaama-master/core/er-coap-13\er-coap-13.c ****         }
 331:C:/Users/²Ü¼ÒºÀ/.iotlink/sdk/IoT_LINK/iot_link/network/lwm2m/wakaama_lwm2m/wakaama-master/core/er-coap-13\er-coap-13.c ****     }
 332:C:/Users/²Ü¼ÒºÀ/.iotlink/sdk/IoT_LINK/iot_link/network/lwm2m/wakaama_lwm2m/wakaama-master/core/er-coap-13\er-coap-13.c **** }
 641              		.loc 1 332 1 view .LVU201
 642 0036 BDE8F081 		pop	{r4, r5, r6, r7, r8, pc}
 643              	.LVL67:
 644              	.L44:
 308:C:/Users/²Ü¼ÒºÀ/.iotlink/sdk/IoT_LINK/iot_link/network/lwm2m/wakaama_lwm2m/wakaama-master/core/er-coap-13\er-coap-13.c ****             opt->data = (uint8_t *)lwm2m_malloc(option_len);
 645              		.loc 1 308 13 is_stmt 1 view .LVU202
 308:C:/Users/²Ü¼ÒºÀ/.iotlink/sdk/IoT_LINK/iot_link/network/lwm2m/wakaama_lwm2m/wakaama-master/core/er-coap-13\er-coap-13.c ****             opt->data = (uint8_t *)lwm2m_malloc(option_len);
 646              		.loc 1 308 28 is_stmt 0 view .LVU203
 647 003a 80F80480 		strb	r8, [r0, #4]
 309:C:/Users/²Ü¼ÒºÀ/.iotlink/sdk/IoT_LINK/iot_link/network/lwm2m/wakaama_lwm2m/wakaama-master/core/er-coap-13\er-coap-13.c ****             if (opt->data == NULL)
 648              		.loc 1 309 13 is_stmt 1 view .LVU204
 309:C:/Users/²Ü¼ÒºÀ/.iotlink/sdk/IoT_LINK/iot_link/network/lwm2m/wakaama_lwm2m/wakaama-master/core/er-coap-13\er-coap-13.c ****             if (opt->data == NULL)
 649              		.loc 1 309 36 is_stmt 0 view .LVU205
 650 003e 2846     		mov	r0, r5
 651              	.LVL68:
 309:C:/Users/²Ü¼ÒºÀ/.iotlink/sdk/IoT_LINK/iot_link/network/lwm2m/wakaama_lwm2m/wakaama-master/core/er-coap-13\er-coap-13.c ****             if (opt->data == NULL)
 652              		.loc 1 309 36 view .LVU206
 653 0040 FFF7FEFF 		bl	lwm2m_malloc
 654              	.LVL69:
 309:C:/Users/²Ü¼ÒºÀ/.iotlink/sdk/IoT_LINK/iot_link/network/lwm2m/wakaama_lwm2m/wakaama-master/core/er-coap-13\er-coap-13.c ****             if (opt->data == NULL)
 655              		.loc 1 309 23 view .LVU207
 656 0044 A060     		str	r0, [r4, #8]
 310:C:/Users/²Ü¼ÒºÀ/.iotlink/sdk/IoT_LINK/iot_link/network/lwm2m/wakaama_lwm2m/wakaama-master/core/er-coap-13\er-coap-13.c ****             {
 657              		.loc 1 310 13 is_stmt 1 view .LVU208
 310:C:/Users/²Ü¼ÒºÀ/.iotlink/sdk/IoT_LINK/iot_link/network/lwm2m/wakaama_lwm2m/wakaama-master/core/er-coap-13\er-coap-13.c ****             {
 658              		.loc 1 310 16 is_stmt 0 view .LVU209
 659 0046 20B9     		cbnz	r0, .L46
 312:C:/Users/²Ü¼ÒºÀ/.iotlink/sdk/IoT_LINK/iot_link/network/lwm2m/wakaama_lwm2m/wakaama-master/core/er-coap-13\er-coap-13.c ****                 return;
 660              		.loc 1 312 17 is_stmt 1 view .LVU210
ARM GAS  C:\Users\²Ü¼ÒºÀ\AppData\Local\Temp\cczrlpTg.s 			page 20


 661 0048 2046     		mov	r0, r4
 662              		.loc 1 332 1 is_stmt 0 view .LVU211
 663 004a BDE8F041 		pop	{r4, r5, r6, r7, r8, lr}
 664              	.LCFI7:
 665              		.cfi_remember_state
 666              		.cfi_restore 14
 667              		.cfi_restore 8
 668              		.cfi_restore 7
 669              		.cfi_restore 6
 670              		.cfi_restore 5
 671              		.cfi_restore 4
 672              		.cfi_def_cfa_offset 0
 673              	.LVL70:
 312:C:/Users/²Ü¼ÒºÀ/.iotlink/sdk/IoT_LINK/iot_link/network/lwm2m/wakaama_lwm2m/wakaama-master/core/er-coap-13\er-coap-13.c ****                 return;
 674              		.loc 1 312 17 view .LVU212
 675 004e FFF7FEBF 		b	lwm2m_free
 676              	.LVL71:
 677              	.L46:
 678              	.LCFI8:
 679              		.cfi_restore_state
 315:C:/Users/²Ü¼ÒºÀ/.iotlink/sdk/IoT_LINK/iot_link/network/lwm2m/wakaama_lwm2m/wakaama-master/core/er-coap-13\er-coap-13.c ****         }
 680              		.loc 1 315 13 is_stmt 1 view .LVU213
 681 0052 2A46     		mov	r2, r5
 682 0054 3946     		mov	r1, r7
 683 0056 FFF7FEFF 		bl	memcpy
 684              	.LVL72:
 685 005a E5E7     		b	.L45
 686              	.L47:
 329:C:/Users/²Ü¼ÒºÀ/.iotlink/sdk/IoT_LINK/iot_link/network/lwm2m/wakaama_lwm2m/wakaama-master/core/er-coap-13\er-coap-13.c ****         }
 687              		.loc 1 329 13 view .LVU214
 329:C:/Users/²Ü¼ÒºÀ/.iotlink/sdk/IoT_LINK/iot_link/network/lwm2m/wakaama_lwm2m/wakaama-master/core/er-coap-13\er-coap-13.c ****         }
 688              		.loc 1 329 18 is_stmt 0 view .LVU215
 689 005c 3460     		str	r4, [r6]
 690 005e EAE7     		b	.L42
 691              		.cfi_endproc
 692              	.LFE12:
 694              		.section	.text.free_multi_option,"ax",%progbits
 695              		.align	1
 696              		.global	free_multi_option
 697              		.syntax unified
 698              		.thumb
 699              		.thumb_func
 700              		.fpu fpv4-sp-d16
 702              	free_multi_option:
 703              	.LVL73:
 704              	.LFB13:
 333:C:/Users/²Ü¼ÒºÀ/.iotlink/sdk/IoT_LINK/iot_link/network/lwm2m/wakaama_lwm2m/wakaama-master/core/er-coap-13\er-coap-13.c **** 
 334:C:/Users/²Ü¼ÒºÀ/.iotlink/sdk/IoT_LINK/iot_link/network/lwm2m/wakaama_lwm2m/wakaama-master/core/er-coap-13\er-coap-13.c **** void
 335:C:/Users/²Ü¼ÒºÀ/.iotlink/sdk/IoT_LINK/iot_link/network/lwm2m/wakaama_lwm2m/wakaama-master/core/er-coap-13\er-coap-13.c **** free_multi_option(multi_option_t *dst)
 336:C:/Users/²Ü¼ÒºÀ/.iotlink/sdk/IoT_LINK/iot_link/network/lwm2m/wakaama_lwm2m/wakaama-master/core/er-coap-13\er-coap-13.c **** {
 705              		.loc 1 336 1 is_stmt 1 view -0
 706              		.cfi_startproc
 707              		@ args = 0, pretend = 0, frame = 0
 708              		@ frame_needed = 0, uses_anonymous_args = 0
 709              		.loc 1 336 1 is_stmt 0 view .LVU217
 710 0000 70B5     		push	{r4, r5, r6, lr}
 711              	.LCFI9:
ARM GAS  C:\Users\²Ü¼ÒºÀ\AppData\Local\Temp\cczrlpTg.s 			page 21


 712              		.cfi_def_cfa_offset 16
 713              		.cfi_offset 4, -16
 714              		.cfi_offset 5, -12
 715              		.cfi_offset 6, -8
 716              		.cfi_offset 14, -4
 717              		.loc 1 336 1 view .LVU218
 718 0002 0446     		mov	r4, r0
 719              	.LBB38:
 337:C:/Users/²Ü¼ÒºÀ/.iotlink/sdk/IoT_LINK/iot_link/network/lwm2m/wakaama_lwm2m/wakaama-master/core/er-coap-13\er-coap-13.c ****     if (dst)
 338:C:/Users/²Ü¼ÒºÀ/.iotlink/sdk/IoT_LINK/iot_link/network/lwm2m/wakaama_lwm2m/wakaama-master/core/er-coap-13\er-coap-13.c ****     {
 339:C:/Users/²Ü¼ÒºÀ/.iotlink/sdk/IoT_LINK/iot_link/network/lwm2m/wakaama_lwm2m/wakaama-master/core/er-coap-13\er-coap-13.c ****         multi_option_t *n = dst->next;
 340:C:/Users/²Ü¼ÒºÀ/.iotlink/sdk/IoT_LINK/iot_link/network/lwm2m/wakaama_lwm2m/wakaama-master/core/er-coap-13\er-coap-13.c ****         dst->next = NULL;
 720              		.loc 1 340 19 view .LVU219
 721 0004 0026     		movs	r6, #0
 722              	.LVL74:
 723              	.L56:
 724              		.loc 1 340 19 view .LVU220
 725              	.LBE38:
 337:C:/Users/²Ü¼ÒºÀ/.iotlink/sdk/IoT_LINK/iot_link/network/lwm2m/wakaama_lwm2m/wakaama-master/core/er-coap-13\er-coap-13.c ****     if (dst)
 726              		.loc 1 337 5 is_stmt 1 view .LVU221
 337:C:/Users/²Ü¼ÒºÀ/.iotlink/sdk/IoT_LINK/iot_link/network/lwm2m/wakaama_lwm2m/wakaama-master/core/er-coap-13\er-coap-13.c ****     if (dst)
 727              		.loc 1 337 8 is_stmt 0 view .LVU222
 728 0006 5CB1     		cbz	r4, .L53
 729              	.LBB39:
 339:C:/Users/²Ü¼ÒºÀ/.iotlink/sdk/IoT_LINK/iot_link/network/lwm2m/wakaama_lwm2m/wakaama-master/core/er-coap-13\er-coap-13.c ****         dst->next = NULL;
 730              		.loc 1 339 9 is_stmt 1 view .LVU223
 341:C:/Users/²Ü¼ÒºÀ/.iotlink/sdk/IoT_LINK/iot_link/network/lwm2m/wakaama_lwm2m/wakaama-master/core/er-coap-13\er-coap-13.c ****         if (dst->is_static == 0)
 731              		.loc 1 341 12 is_stmt 0 view .LVU224
 732 0008 2379     		ldrb	r3, [r4, #4]	@ zero_extendqisi2
 339:C:/Users/²Ü¼ÒºÀ/.iotlink/sdk/IoT_LINK/iot_link/network/lwm2m/wakaama_lwm2m/wakaama-master/core/er-coap-13\er-coap-13.c ****         dst->next = NULL;
 733              		.loc 1 339 25 view .LVU225
 734 000a 2568     		ldr	r5, [r4]
 735              	.LVL75:
 340:C:/Users/²Ü¼ÒºÀ/.iotlink/sdk/IoT_LINK/iot_link/network/lwm2m/wakaama_lwm2m/wakaama-master/core/er-coap-13\er-coap-13.c ****         if (dst->is_static == 0)
 736              		.loc 1 340 9 is_stmt 1 view .LVU226
 340:C:/Users/²Ü¼ÒºÀ/.iotlink/sdk/IoT_LINK/iot_link/network/lwm2m/wakaama_lwm2m/wakaama-master/core/er-coap-13\er-coap-13.c ****         if (dst->is_static == 0)
 737              		.loc 1 340 19 is_stmt 0 view .LVU227
 738 000c 2660     		str	r6, [r4]
 739              		.loc 1 341 9 is_stmt 1 view .LVU228
 740              		.loc 1 341 12 is_stmt 0 view .LVU229
 741 000e 13B9     		cbnz	r3, .L55
 342:C:/Users/²Ü¼ÒºÀ/.iotlink/sdk/IoT_LINK/iot_link/network/lwm2m/wakaama_lwm2m/wakaama-master/core/er-coap-13\er-coap-13.c ****         {
 343:C:/Users/²Ü¼ÒºÀ/.iotlink/sdk/IoT_LINK/iot_link/network/lwm2m/wakaama_lwm2m/wakaama-master/core/er-coap-13\er-coap-13.c ****             lwm2m_free(dst->data);
 742              		.loc 1 343 13 is_stmt 1 view .LVU230
 743 0010 A068     		ldr	r0, [r4, #8]
 744 0012 FFF7FEFF 		bl	lwm2m_free
 745              	.LVL76:
 746              	.L55:
 344:C:/Users/²Ü¼ÒºÀ/.iotlink/sdk/IoT_LINK/iot_link/network/lwm2m/wakaama_lwm2m/wakaama-master/core/er-coap-13\er-coap-13.c ****         }
 345:C:/Users/²Ü¼ÒºÀ/.iotlink/sdk/IoT_LINK/iot_link/network/lwm2m/wakaama_lwm2m/wakaama-master/core/er-coap-13\er-coap-13.c ****         lwm2m_free(dst);
 747              		.loc 1 345 9 view .LVU231
 748 0016 2046     		mov	r0, r4
 749 0018 FFF7FEFF 		bl	lwm2m_free
 750              	.LVL77:
 346:C:/Users/²Ü¼ÒºÀ/.iotlink/sdk/IoT_LINK/iot_link/network/lwm2m/wakaama_lwm2m/wakaama-master/core/er-coap-13\er-coap-13.c ****         free_multi_option(n);
 751              		.loc 1 346 9 view .LVU232
 752 001c 2C46     		mov	r4, r5
ARM GAS  C:\Users\²Ü¼ÒºÀ\AppData\Local\Temp\cczrlpTg.s 			page 22


 753 001e F2E7     		b	.L56
 754              	.LVL78:
 755              	.L53:
 756              		.loc 1 346 9 is_stmt 0 view .LVU233
 757              	.LBE39:
 347:C:/Users/²Ü¼ÒºÀ/.iotlink/sdk/IoT_LINK/iot_link/network/lwm2m/wakaama_lwm2m/wakaama-master/core/er-coap-13\er-coap-13.c ****     }
 348:C:/Users/²Ü¼ÒºÀ/.iotlink/sdk/IoT_LINK/iot_link/network/lwm2m/wakaama_lwm2m/wakaama-master/core/er-coap-13\er-coap-13.c **** }
 758              		.loc 1 348 1 view .LVU234
 759 0020 70BD     		pop	{r4, r5, r6, pc}
 760              		.cfi_endproc
 761              	.LFE13:
 763              		.section	.text.coap_get_multi_option_as_string,"ax",%progbits
 764              		.align	1
 765              		.global	coap_get_multi_option_as_string
 766              		.syntax unified
 767              		.thumb
 768              		.thumb_func
 769              		.fpu fpv4-sp-d16
 771              	coap_get_multi_option_as_string:
 772              	.LVL79:
 773              	.LFB14:
 349:C:/Users/²Ü¼ÒºÀ/.iotlink/sdk/IoT_LINK/iot_link/network/lwm2m/wakaama_lwm2m/wakaama-master/core/er-coap-13\er-coap-13.c **** 
 350:C:/Users/²Ü¼ÒºÀ/.iotlink/sdk/IoT_LINK/iot_link/network/lwm2m/wakaama_lwm2m/wakaama-master/core/er-coap-13\er-coap-13.c **** char *coap_get_multi_option_as_string(multi_option_t *option)
 351:C:/Users/²Ü¼ÒºÀ/.iotlink/sdk/IoT_LINK/iot_link/network/lwm2m/wakaama_lwm2m/wakaama-master/core/er-coap-13\er-coap-13.c **** {
 774              		.loc 1 351 1 is_stmt 1 view -0
 775              		.cfi_startproc
 776              		@ args = 0, pretend = 0, frame = 0
 777              		@ frame_needed = 0, uses_anonymous_args = 0
 352:C:/Users/²Ü¼ÒºÀ/.iotlink/sdk/IoT_LINK/iot_link/network/lwm2m/wakaama_lwm2m/wakaama-master/core/er-coap-13\er-coap-13.c ****     size_t len = 0;
 778              		.loc 1 352 5 view .LVU236
 353:C:/Users/²Ü¼ÒºÀ/.iotlink/sdk/IoT_LINK/iot_link/network/lwm2m/wakaama_lwm2m/wakaama-master/core/er-coap-13\er-coap-13.c ****     multi_option_t *opt;
 779              		.loc 1 353 5 view .LVU237
 354:C:/Users/²Ü¼ÒºÀ/.iotlink/sdk/IoT_LINK/iot_link/network/lwm2m/wakaama_lwm2m/wakaama-master/core/er-coap-13\er-coap-13.c ****     char *output;
 780              		.loc 1 354 5 view .LVU238
 355:C:/Users/²Ü¼ÒºÀ/.iotlink/sdk/IoT_LINK/iot_link/network/lwm2m/wakaama_lwm2m/wakaama-master/core/er-coap-13\er-coap-13.c **** 
 356:C:/Users/²Ü¼ÒºÀ/.iotlink/sdk/IoT_LINK/iot_link/network/lwm2m/wakaama_lwm2m/wakaama-master/core/er-coap-13\er-coap-13.c ****     for (opt = option; opt != NULL; opt = opt->next)
 781              		.loc 1 356 5 view .LVU239
 351:C:/Users/²Ü¼ÒºÀ/.iotlink/sdk/IoT_LINK/iot_link/network/lwm2m/wakaama_lwm2m/wakaama-master/core/er-coap-13\er-coap-13.c ****     size_t len = 0;
 782              		.loc 1 351 1 is_stmt 0 view .LVU240
 783 0000 F8B5     		push	{r3, r4, r5, r6, r7, lr}
 784              	.LCFI10:
 785              		.cfi_def_cfa_offset 24
 786              		.cfi_offset 3, -24
 787              		.cfi_offset 4, -20
 788              		.cfi_offset 5, -16
 789              		.cfi_offset 6, -12
 790              		.cfi_offset 7, -8
 791              		.cfi_offset 14, -4
 351:C:/Users/²Ü¼ÒºÀ/.iotlink/sdk/IoT_LINK/iot_link/network/lwm2m/wakaama_lwm2m/wakaama-master/core/er-coap-13\er-coap-13.c ****     size_t len = 0;
 792              		.loc 1 351 1 view .LVU241
 793 0002 0546     		mov	r5, r0
 794              		.loc 1 356 14 view .LVU242
 795 0004 0446     		mov	r4, r0
 352:C:/Users/²Ü¼ÒºÀ/.iotlink/sdk/IoT_LINK/iot_link/network/lwm2m/wakaama_lwm2m/wakaama-master/core/er-coap-13\er-coap-13.c ****     multi_option_t *opt;
 796              		.loc 1 352 12 view .LVU243
 797 0006 0020     		movs	r0, #0
 798              	.LVL80:
ARM GAS  C:\Users\²Ü¼ÒºÀ\AppData\Local\Temp\cczrlpTg.s 			page 23


 799              	.L58:
 800              		.loc 1 356 24 is_stmt 1 discriminator 1 view .LVU244
 801              		.loc 1 356 5 is_stmt 0 discriminator 1 view .LVU245
 802 0008 34B9     		cbnz	r4, .L59
 357:C:/Users/²Ü¼ÒºÀ/.iotlink/sdk/IoT_LINK/iot_link/network/lwm2m/wakaama_lwm2m/wakaama-master/core/er-coap-13\er-coap-13.c ****     {
 358:C:/Users/²Ü¼ÒºÀ/.iotlink/sdk/IoT_LINK/iot_link/network/lwm2m/wakaama_lwm2m/wakaama-master/core/er-coap-13\er-coap-13.c ****         len += opt->len + 1;     // for separator
 359:C:/Users/²Ü¼ÒºÀ/.iotlink/sdk/IoT_LINK/iot_link/network/lwm2m/wakaama_lwm2m/wakaama-master/core/er-coap-13\er-coap-13.c ****     }
 360:C:/Users/²Ü¼ÒºÀ/.iotlink/sdk/IoT_LINK/iot_link/network/lwm2m/wakaama_lwm2m/wakaama-master/core/er-coap-13\er-coap-13.c **** 
 361:C:/Users/²Ü¼ÒºÀ/.iotlink/sdk/IoT_LINK/iot_link/network/lwm2m/wakaama_lwm2m/wakaama-master/core/er-coap-13\er-coap-13.c ****     output = lwm2m_malloc(len + 1); // for String terminator
 803              		.loc 1 361 5 is_stmt 1 view .LVU246
 804              		.loc 1 361 14 is_stmt 0 view .LVU247
 805 000a 0130     		adds	r0, r0, #1
 806              	.LVL81:
 807              		.loc 1 361 14 view .LVU248
 808 000c FFF7FEFF 		bl	lwm2m_malloc
 809              	.LVL82:
 362:C:/Users/²Ü¼ÒºÀ/.iotlink/sdk/IoT_LINK/iot_link/network/lwm2m/wakaama_lwm2m/wakaama-master/core/er-coap-13\er-coap-13.c ****     if (output != NULL)
 810              		.loc 1 362 5 is_stmt 1 view .LVU249
 811              		.loc 1 362 8 is_stmt 0 view .LVU250
 812 0010 0646     		mov	r6, r0
 813 0012 A8B9     		cbnz	r0, .L63
 814              	.LVL83:
 815              	.L57:
 363:C:/Users/²Ü¼ÒºÀ/.iotlink/sdk/IoT_LINK/iot_link/network/lwm2m/wakaama_lwm2m/wakaama-master/core/er-coap-13\er-coap-13.c ****     {
 364:C:/Users/²Ü¼ÒºÀ/.iotlink/sdk/IoT_LINK/iot_link/network/lwm2m/wakaama_lwm2m/wakaama-master/core/er-coap-13\er-coap-13.c ****         size_t i = 0;
 365:C:/Users/²Ü¼ÒºÀ/.iotlink/sdk/IoT_LINK/iot_link/network/lwm2m/wakaama_lwm2m/wakaama-master/core/er-coap-13\er-coap-13.c **** 
 366:C:/Users/²Ü¼ÒºÀ/.iotlink/sdk/IoT_LINK/iot_link/network/lwm2m/wakaama_lwm2m/wakaama-master/core/er-coap-13\er-coap-13.c ****         for (opt = option; opt != NULL; opt = opt->next)
 367:C:/Users/²Ü¼ÒºÀ/.iotlink/sdk/IoT_LINK/iot_link/network/lwm2m/wakaama_lwm2m/wakaama-master/core/er-coap-13\er-coap-13.c ****         {
 368:C:/Users/²Ü¼ÒºÀ/.iotlink/sdk/IoT_LINK/iot_link/network/lwm2m/wakaama_lwm2m/wakaama-master/core/er-coap-13\er-coap-13.c ****             output[i] = '/';
 369:C:/Users/²Ü¼ÒºÀ/.iotlink/sdk/IoT_LINK/iot_link/network/lwm2m/wakaama_lwm2m/wakaama-master/core/er-coap-13\er-coap-13.c ****             i += 1;
 370:C:/Users/²Ü¼ÒºÀ/.iotlink/sdk/IoT_LINK/iot_link/network/lwm2m/wakaama_lwm2m/wakaama-master/core/er-coap-13\er-coap-13.c **** 
 371:C:/Users/²Ü¼ÒºÀ/.iotlink/sdk/IoT_LINK/iot_link/network/lwm2m/wakaama_lwm2m/wakaama-master/core/er-coap-13\er-coap-13.c ****             memmove(output + i, opt->data, opt->len);
 372:C:/Users/²Ü¼ÒºÀ/.iotlink/sdk/IoT_LINK/iot_link/network/lwm2m/wakaama_lwm2m/wakaama-master/core/er-coap-13\er-coap-13.c ****             i += opt->len;
 373:C:/Users/²Ü¼ÒºÀ/.iotlink/sdk/IoT_LINK/iot_link/network/lwm2m/wakaama_lwm2m/wakaama-master/core/er-coap-13\er-coap-13.c ****         }
 374:C:/Users/²Ü¼ÒºÀ/.iotlink/sdk/IoT_LINK/iot_link/network/lwm2m/wakaama_lwm2m/wakaama-master/core/er-coap-13\er-coap-13.c ****         output[i] = 0;
 375:C:/Users/²Ü¼ÒºÀ/.iotlink/sdk/IoT_LINK/iot_link/network/lwm2m/wakaama_lwm2m/wakaama-master/core/er-coap-13\er-coap-13.c ****     }
 376:C:/Users/²Ü¼ÒºÀ/.iotlink/sdk/IoT_LINK/iot_link/network/lwm2m/wakaama_lwm2m/wakaama-master/core/er-coap-13\er-coap-13.c **** 
 377:C:/Users/²Ü¼ÒºÀ/.iotlink/sdk/IoT_LINK/iot_link/network/lwm2m/wakaama_lwm2m/wakaama-master/core/er-coap-13\er-coap-13.c ****     return output;
 378:C:/Users/²Ü¼ÒºÀ/.iotlink/sdk/IoT_LINK/iot_link/network/lwm2m/wakaama_lwm2m/wakaama-master/core/er-coap-13\er-coap-13.c **** }
 816              		.loc 1 378 1 view .LVU251
 817 0014 3046     		mov	r0, r6
 818 0016 F8BD     		pop	{r3, r4, r5, r6, r7, pc}
 819              	.LVL84:
 820              	.L59:
 358:C:/Users/²Ü¼ÒºÀ/.iotlink/sdk/IoT_LINK/iot_link/network/lwm2m/wakaama_lwm2m/wakaama-master/core/er-coap-13\er-coap-13.c ****     }
 821              		.loc 1 358 9 is_stmt 1 discriminator 3 view .LVU252
 358:C:/Users/²Ü¼ÒºÀ/.iotlink/sdk/IoT_LINK/iot_link/network/lwm2m/wakaama_lwm2m/wakaama-master/core/er-coap-13\er-coap-13.c ****     }
 822              		.loc 1 358 13 is_stmt 0 discriminator 3 view .LVU253
 823 0018 6379     		ldrb	r3, [r4, #5]	@ zero_extendqisi2
 356:C:/Users/²Ü¼ÒºÀ/.iotlink/sdk/IoT_LINK/iot_link/network/lwm2m/wakaama_lwm2m/wakaama-master/core/er-coap-13\er-coap-13.c ****     {
 824              		.loc 1 356 41 discriminator 3 view .LVU254
 825 001a 2468     		ldr	r4, [r4]
 826              	.LVL85:
 358:C:/Users/²Ü¼ÒºÀ/.iotlink/sdk/IoT_LINK/iot_link/network/lwm2m/wakaama_lwm2m/wakaama-master/core/er-coap-13\er-coap-13.c ****     }
 827              		.loc 1 358 13 discriminator 3 view .LVU255
 828 001c 0133     		adds	r3, r3, #1
 829 001e 1844     		add	r0, r0, r3
ARM GAS  C:\Users\²Ü¼ÒºÀ\AppData\Local\Temp\cczrlpTg.s 			page 24


 830              	.LVL86:
 356:C:/Users/²Ü¼ÒºÀ/.iotlink/sdk/IoT_LINK/iot_link/network/lwm2m/wakaama_lwm2m/wakaama-master/core/er-coap-13\er-coap-13.c ****     {
 831              		.loc 1 356 37 is_stmt 1 discriminator 3 view .LVU256
 356:C:/Users/²Ü¼ÒºÀ/.iotlink/sdk/IoT_LINK/iot_link/network/lwm2m/wakaama_lwm2m/wakaama-master/core/er-coap-13\er-coap-13.c ****     {
 832              		.loc 1 356 37 is_stmt 0 discriminator 3 view .LVU257
 833 0020 F2E7     		b	.L58
 834              	.LVL87:
 835              	.L62:
 836              	.LBB40:
 368:C:/Users/²Ü¼ÒºÀ/.iotlink/sdk/IoT_LINK/iot_link/network/lwm2m/wakaama_lwm2m/wakaama-master/core/er-coap-13\er-coap-13.c ****             i += 1;
 837              		.loc 1 368 13 is_stmt 1 discriminator 3 view .LVU258
 368:C:/Users/²Ü¼ÒºÀ/.iotlink/sdk/IoT_LINK/iot_link/network/lwm2m/wakaama_lwm2m/wakaama-master/core/er-coap-13\er-coap-13.c ****             i += 1;
 838              		.loc 1 368 23 is_stmt 0 discriminator 3 view .LVU259
 839 0022 3755     		strb	r7, [r6, r4]
 369:C:/Users/²Ü¼ÒºÀ/.iotlink/sdk/IoT_LINK/iot_link/network/lwm2m/wakaama_lwm2m/wakaama-master/core/er-coap-13\er-coap-13.c **** 
 840              		.loc 1 369 13 is_stmt 1 discriminator 3 view .LVU260
 369:C:/Users/²Ü¼ÒºÀ/.iotlink/sdk/IoT_LINK/iot_link/network/lwm2m/wakaama_lwm2m/wakaama-master/core/er-coap-13\er-coap-13.c **** 
 841              		.loc 1 369 15 is_stmt 0 discriminator 3 view .LVU261
 842 0024 0134     		adds	r4, r4, #1
 843              	.LVL88:
 371:C:/Users/²Ü¼ÒºÀ/.iotlink/sdk/IoT_LINK/iot_link/network/lwm2m/wakaama_lwm2m/wakaama-master/core/er-coap-13\er-coap-13.c ****             i += opt->len;
 844              		.loc 1 371 13 is_stmt 1 discriminator 3 view .LVU262
 845 0026 6A79     		ldrb	r2, [r5, #5]	@ zero_extendqisi2
 846 0028 A968     		ldr	r1, [r5, #8]
 847 002a 3019     		adds	r0, r6, r4
 848 002c FFF7FEFF 		bl	memmove
 849              	.LVL89:
 372:C:/Users/²Ü¼ÒºÀ/.iotlink/sdk/IoT_LINK/iot_link/network/lwm2m/wakaama_lwm2m/wakaama-master/core/er-coap-13\er-coap-13.c ****         }
 850              		.loc 1 372 13 discriminator 3 view .LVU263
 372:C:/Users/²Ü¼ÒºÀ/.iotlink/sdk/IoT_LINK/iot_link/network/lwm2m/wakaama_lwm2m/wakaama-master/core/er-coap-13\er-coap-13.c ****         }
 851              		.loc 1 372 21 is_stmt 0 discriminator 3 view .LVU264
 852 0030 6B79     		ldrb	r3, [r5, #5]	@ zero_extendqisi2
 366:C:/Users/²Ü¼ÒºÀ/.iotlink/sdk/IoT_LINK/iot_link/network/lwm2m/wakaama_lwm2m/wakaama-master/core/er-coap-13\er-coap-13.c ****         {
 853              		.loc 1 366 45 discriminator 3 view .LVU265
 854 0032 2D68     		ldr	r5, [r5]
 855              	.LVL90:
 372:C:/Users/²Ü¼ÒºÀ/.iotlink/sdk/IoT_LINK/iot_link/network/lwm2m/wakaama_lwm2m/wakaama-master/core/er-coap-13\er-coap-13.c ****         }
 856              		.loc 1 372 15 discriminator 3 view .LVU266
 857 0034 1C44     		add	r4, r4, r3
 858              	.LVL91:
 366:C:/Users/²Ü¼ÒºÀ/.iotlink/sdk/IoT_LINK/iot_link/network/lwm2m/wakaama_lwm2m/wakaama-master/core/er-coap-13\er-coap-13.c ****         {
 859              		.loc 1 366 41 is_stmt 1 discriminator 3 view .LVU267
 860              	.L60:
 366:C:/Users/²Ü¼ÒºÀ/.iotlink/sdk/IoT_LINK/iot_link/network/lwm2m/wakaama_lwm2m/wakaama-master/core/er-coap-13\er-coap-13.c ****         {
 861              		.loc 1 366 28 discriminator 1 view .LVU268
 862 0036 3319     		adds	r3, r6, r4
 366:C:/Users/²Ü¼ÒºÀ/.iotlink/sdk/IoT_LINK/iot_link/network/lwm2m/wakaama_lwm2m/wakaama-master/core/er-coap-13\er-coap-13.c ****         {
 863              		.loc 1 366 9 is_stmt 0 discriminator 1 view .LVU269
 864 0038 002D     		cmp	r5, #0
 865 003a F2D1     		bne	.L62
 374:C:/Users/²Ü¼ÒºÀ/.iotlink/sdk/IoT_LINK/iot_link/network/lwm2m/wakaama_lwm2m/wakaama-master/core/er-coap-13\er-coap-13.c ****     }
 866              		.loc 1 374 9 is_stmt 1 view .LVU270
 374:C:/Users/²Ü¼ÒºÀ/.iotlink/sdk/IoT_LINK/iot_link/network/lwm2m/wakaama_lwm2m/wakaama-master/core/er-coap-13\er-coap-13.c ****     }
 867              		.loc 1 374 19 is_stmt 0 view .LVU271
 868 003c 1D70     		strb	r5, [r3]
 869              	.LBE40:
 377:C:/Users/²Ü¼ÒºÀ/.iotlink/sdk/IoT_LINK/iot_link/network/lwm2m/wakaama_lwm2m/wakaama-master/core/er-coap-13\er-coap-13.c **** }
ARM GAS  C:\Users\²Ü¼ÒºÀ\AppData\Local\Temp\cczrlpTg.s 			page 25


 870              		.loc 1 377 5 is_stmt 1 view .LVU272
 377:C:/Users/²Ü¼ÒºÀ/.iotlink/sdk/IoT_LINK/iot_link/network/lwm2m/wakaama_lwm2m/wakaama-master/core/er-coap-13\er-coap-13.c **** }
 871              		.loc 1 377 12 is_stmt 0 view .LVU273
 872 003e E9E7     		b	.L57
 873              	.LVL92:
 874              	.L63:
 875              	.LBB41:
 368:C:/Users/²Ü¼ÒºÀ/.iotlink/sdk/IoT_LINK/iot_link/network/lwm2m/wakaama_lwm2m/wakaama-master/core/er-coap-13\er-coap-13.c ****             i += 1;
 876              		.loc 1 368 23 view .LVU274
 877 0040 2F27     		movs	r7, #47
 878 0042 F8E7     		b	.L60
 879              	.LBE41:
 880              		.cfi_endproc
 881              	.LFE14:
 883              		.section	.text.coap_get_mid,"ax",%progbits
 884              		.align	1
 885              		.global	coap_get_mid
 886              		.syntax unified
 887              		.thumb
 888              		.thumb_func
 889              		.fpu fpv4-sp-d16
 891              	coap_get_mid:
 892              	.LFB16:
 379:C:/Users/²Ü¼ÒºÀ/.iotlink/sdk/IoT_LINK/iot_link/network/lwm2m/wakaama_lwm2m/wakaama-master/core/er-coap-13\er-coap-13.c **** 
 380:C:/Users/²Ü¼ÒºÀ/.iotlink/sdk/IoT_LINK/iot_link/network/lwm2m/wakaama_lwm2m/wakaama-master/core/er-coap-13\er-coap-13.c **** /*-----------------------------------------------------------------------------------*/
 381:C:/Users/²Ü¼ÒºÀ/.iotlink/sdk/IoT_LINK/iot_link/network/lwm2m/wakaama_lwm2m/wakaama-master/core/er-coap-13\er-coap-13.c **** static
 382:C:/Users/²Ü¼ÒºÀ/.iotlink/sdk/IoT_LINK/iot_link/network/lwm2m/wakaama_lwm2m/wakaama-master/core/er-coap-13\er-coap-13.c **** int
 383:C:/Users/²Ü¼ÒºÀ/.iotlink/sdk/IoT_LINK/iot_link/network/lwm2m/wakaama_lwm2m/wakaama-master/core/er-coap-13\er-coap-13.c **** coap_get_variable(const uint8_t *buffer, size_t length, const char *name, const char **output)
 384:C:/Users/²Ü¼ÒºÀ/.iotlink/sdk/IoT_LINK/iot_link/network/lwm2m/wakaama_lwm2m/wakaama-master/core/er-coap-13\er-coap-13.c **** {
 385:C:/Users/²Ü¼ÒºÀ/.iotlink/sdk/IoT_LINK/iot_link/network/lwm2m/wakaama_lwm2m/wakaama-master/core/er-coap-13\er-coap-13.c ****     const uint8_t *start = NULL;
 386:C:/Users/²Ü¼ÒºÀ/.iotlink/sdk/IoT_LINK/iot_link/network/lwm2m/wakaama_lwm2m/wakaama-master/core/er-coap-13\er-coap-13.c ****     const uint8_t *end = NULL;
 387:C:/Users/²Ü¼ÒºÀ/.iotlink/sdk/IoT_LINK/iot_link/network/lwm2m/wakaama_lwm2m/wakaama-master/core/er-coap-13\er-coap-13.c ****     const uint8_t *value_end = NULL;
 388:C:/Users/²Ü¼ÒºÀ/.iotlink/sdk/IoT_LINK/iot_link/network/lwm2m/wakaama_lwm2m/wakaama-master/core/er-coap-13\er-coap-13.c ****     size_t name_len = 0;
 389:C:/Users/²Ü¼ÒºÀ/.iotlink/sdk/IoT_LINK/iot_link/network/lwm2m/wakaama_lwm2m/wakaama-master/core/er-coap-13\er-coap-13.c **** 
 390:C:/Users/²Ü¼ÒºÀ/.iotlink/sdk/IoT_LINK/iot_link/network/lwm2m/wakaama_lwm2m/wakaama-master/core/er-coap-13\er-coap-13.c ****     /*initialize the output buffer first*/
 391:C:/Users/²Ü¼ÒºÀ/.iotlink/sdk/IoT_LINK/iot_link/network/lwm2m/wakaama_lwm2m/wakaama-master/core/er-coap-13\er-coap-13.c ****     *output = 0;
 392:C:/Users/²Ü¼ÒºÀ/.iotlink/sdk/IoT_LINK/iot_link/network/lwm2m/wakaama_lwm2m/wakaama-master/core/er-coap-13\er-coap-13.c **** 
 393:C:/Users/²Ü¼ÒºÀ/.iotlink/sdk/IoT_LINK/iot_link/network/lwm2m/wakaama_lwm2m/wakaama-master/core/er-coap-13\er-coap-13.c ****     name_len = strlen(name);
 394:C:/Users/²Ü¼ÒºÀ/.iotlink/sdk/IoT_LINK/iot_link/network/lwm2m/wakaama_lwm2m/wakaama-master/core/er-coap-13\er-coap-13.c ****     end = buffer + length;
 395:C:/Users/²Ü¼ÒºÀ/.iotlink/sdk/IoT_LINK/iot_link/network/lwm2m/wakaama_lwm2m/wakaama-master/core/er-coap-13\er-coap-13.c **** 
 396:C:/Users/²Ü¼ÒºÀ/.iotlink/sdk/IoT_LINK/iot_link/network/lwm2m/wakaama_lwm2m/wakaama-master/core/er-coap-13\er-coap-13.c ****     for (start = buffer; start + name_len < end; ++start)
 397:C:/Users/²Ü¼ÒºÀ/.iotlink/sdk/IoT_LINK/iot_link/network/lwm2m/wakaama_lwm2m/wakaama-master/core/er-coap-13\er-coap-13.c ****     {
 398:C:/Users/²Ü¼ÒºÀ/.iotlink/sdk/IoT_LINK/iot_link/network/lwm2m/wakaama_lwm2m/wakaama-master/core/er-coap-13\er-coap-13.c ****         if ((start == buffer || start[-1] == '&') && start[name_len] == '=' &&
 399:C:/Users/²Ü¼ÒºÀ/.iotlink/sdk/IoT_LINK/iot_link/network/lwm2m/wakaama_lwm2m/wakaama-master/core/er-coap-13\er-coap-13.c ****                 strncmp(name, (char *)start, name_len) == 0)
 400:C:/Users/²Ü¼ÒºÀ/.iotlink/sdk/IoT_LINK/iot_link/network/lwm2m/wakaama_lwm2m/wakaama-master/core/er-coap-13\er-coap-13.c ****         {
 401:C:/Users/²Ü¼ÒºÀ/.iotlink/sdk/IoT_LINK/iot_link/network/lwm2m/wakaama_lwm2m/wakaama-master/core/er-coap-13\er-coap-13.c **** 
 402:C:/Users/²Ü¼ÒºÀ/.iotlink/sdk/IoT_LINK/iot_link/network/lwm2m/wakaama_lwm2m/wakaama-master/core/er-coap-13\er-coap-13.c ****             /* Point start to variable value */
 403:C:/Users/²Ü¼ÒºÀ/.iotlink/sdk/IoT_LINK/iot_link/network/lwm2m/wakaama_lwm2m/wakaama-master/core/er-coap-13\er-coap-13.c ****             start += name_len + 1;
 404:C:/Users/²Ü¼ÒºÀ/.iotlink/sdk/IoT_LINK/iot_link/network/lwm2m/wakaama_lwm2m/wakaama-master/core/er-coap-13\er-coap-13.c **** 
 405:C:/Users/²Ü¼ÒºÀ/.iotlink/sdk/IoT_LINK/iot_link/network/lwm2m/wakaama_lwm2m/wakaama-master/core/er-coap-13\er-coap-13.c ****             /* Point end to the end of the value */
 406:C:/Users/²Ü¼ÒºÀ/.iotlink/sdk/IoT_LINK/iot_link/network/lwm2m/wakaama_lwm2m/wakaama-master/core/er-coap-13\er-coap-13.c ****             value_end = (const uint8_t *) memchr(start, '&', end - start);
 407:C:/Users/²Ü¼ÒºÀ/.iotlink/sdk/IoT_LINK/iot_link/network/lwm2m/wakaama_lwm2m/wakaama-master/core/er-coap-13\er-coap-13.c ****             if (value_end == NULL)
 408:C:/Users/²Ü¼ÒºÀ/.iotlink/sdk/IoT_LINK/iot_link/network/lwm2m/wakaama_lwm2m/wakaama-master/core/er-coap-13\er-coap-13.c ****             {
 409:C:/Users/²Ü¼ÒºÀ/.iotlink/sdk/IoT_LINK/iot_link/network/lwm2m/wakaama_lwm2m/wakaama-master/core/er-coap-13\er-coap-13.c ****                 value_end = end;
 410:C:/Users/²Ü¼ÒºÀ/.iotlink/sdk/IoT_LINK/iot_link/network/lwm2m/wakaama_lwm2m/wakaama-master/core/er-coap-13\er-coap-13.c ****             }
 411:C:/Users/²Ü¼ÒºÀ/.iotlink/sdk/IoT_LINK/iot_link/network/lwm2m/wakaama_lwm2m/wakaama-master/core/er-coap-13\er-coap-13.c **** 
 412:C:/Users/²Ü¼ÒºÀ/.iotlink/sdk/IoT_LINK/iot_link/network/lwm2m/wakaama_lwm2m/wakaama-master/core/er-coap-13\er-coap-13.c ****             *output = (char *)start;
ARM GAS  C:\Users\²Ü¼ÒºÀ\AppData\Local\Temp\cczrlpTg.s 			page 26


 413:C:/Users/²Ü¼ÒºÀ/.iotlink/sdk/IoT_LINK/iot_link/network/lwm2m/wakaama_lwm2m/wakaama-master/core/er-coap-13\er-coap-13.c **** 
 414:C:/Users/²Ü¼ÒºÀ/.iotlink/sdk/IoT_LINK/iot_link/network/lwm2m/wakaama_lwm2m/wakaama-master/core/er-coap-13\er-coap-13.c ****             return (value_end - start);
 415:C:/Users/²Ü¼ÒºÀ/.iotlink/sdk/IoT_LINK/iot_link/network/lwm2m/wakaama_lwm2m/wakaama-master/core/er-coap-13\er-coap-13.c ****         }
 416:C:/Users/²Ü¼ÒºÀ/.iotlink/sdk/IoT_LINK/iot_link/network/lwm2m/wakaama_lwm2m/wakaama-master/core/er-coap-13\er-coap-13.c ****     }
 417:C:/Users/²Ü¼ÒºÀ/.iotlink/sdk/IoT_LINK/iot_link/network/lwm2m/wakaama_lwm2m/wakaama-master/core/er-coap-13\er-coap-13.c **** 
 418:C:/Users/²Ü¼ÒºÀ/.iotlink/sdk/IoT_LINK/iot_link/network/lwm2m/wakaama_lwm2m/wakaama-master/core/er-coap-13\er-coap-13.c ****     return 0;
 419:C:/Users/²Ü¼ÒºÀ/.iotlink/sdk/IoT_LINK/iot_link/network/lwm2m/wakaama_lwm2m/wakaama-master/core/er-coap-13\er-coap-13.c **** }
 420:C:/Users/²Ü¼ÒºÀ/.iotlink/sdk/IoT_LINK/iot_link/network/lwm2m/wakaama_lwm2m/wakaama-master/core/er-coap-13\er-coap-13.c **** 
 421:C:/Users/²Ü¼ÒºÀ/.iotlink/sdk/IoT_LINK/iot_link/network/lwm2m/wakaama_lwm2m/wakaama-master/core/er-coap-13\er-coap-13.c **** /*-----------------------------------------------------------------------------------*/
 422:C:/Users/²Ü¼ÒºÀ/.iotlink/sdk/IoT_LINK/iot_link/network/lwm2m/wakaama_lwm2m/wakaama-master/core/er-coap-13\er-coap-13.c **** uint16_t
 423:C:/Users/²Ü¼ÒºÀ/.iotlink/sdk/IoT_LINK/iot_link/network/lwm2m/wakaama_lwm2m/wakaama-master/core/er-coap-13\er-coap-13.c **** coap_get_mid()
 424:C:/Users/²Ü¼ÒºÀ/.iotlink/sdk/IoT_LINK/iot_link/network/lwm2m/wakaama_lwm2m/wakaama-master/core/er-coap-13\er-coap-13.c **** {
 893              		.loc 1 424 1 is_stmt 1 view -0
 894              		.cfi_startproc
 895              		@ args = 0, pretend = 0, frame = 0
 896              		@ frame_needed = 0, uses_anonymous_args = 0
 897              		@ link register save eliminated.
 425:C:/Users/²Ü¼ÒºÀ/.iotlink/sdk/IoT_LINK/iot_link/network/lwm2m/wakaama_lwm2m/wakaama-master/core/er-coap-13\er-coap-13.c ****     return ++current_mid;
 898              		.loc 1 425 5 view .LVU276
 899              		.loc 1 425 12 is_stmt 0 view .LVU277
 900 0000 024B     		ldr	r3, .L65
 901 0002 1888     		ldrh	r0, [r3]
 902 0004 0130     		adds	r0, r0, #1
 903 0006 80B2     		uxth	r0, r0
 904 0008 1880     		strh	r0, [r3]	@ movhi
 426:C:/Users/²Ü¼ÒºÀ/.iotlink/sdk/IoT_LINK/iot_link/network/lwm2m/wakaama_lwm2m/wakaama-master/core/er-coap-13\er-coap-13.c **** }
 905              		.loc 1 426 1 view .LVU278
 906 000a 7047     		bx	lr
 907              	.L66:
 908              		.align	2
 909              	.L65:
 910 000c 00000000 		.word	.LANCHOR0
 911              		.cfi_endproc
 912              	.LFE16:
 914              		.section	.text.coap_init_message,"ax",%progbits
 915              		.align	1
 916              		.global	coap_init_message
 917              		.syntax unified
 918              		.thumb
 919              		.thumb_func
 920              		.fpu fpv4-sp-d16
 922              	coap_init_message:
 923              	.LVL93:
 924              	.LFB17:
 427:C:/Users/²Ü¼ÒºÀ/.iotlink/sdk/IoT_LINK/iot_link/network/lwm2m/wakaama_lwm2m/wakaama-master/core/er-coap-13\er-coap-13.c **** /*-----------------------------------------------------------------------------------*/
 428:C:/Users/²Ü¼ÒºÀ/.iotlink/sdk/IoT_LINK/iot_link/network/lwm2m/wakaama_lwm2m/wakaama-master/core/er-coap-13\er-coap-13.c **** /*- MEASSAGE PROCESSING -------------------------------------------------------------*/
 429:C:/Users/²Ü¼ÒºÀ/.iotlink/sdk/IoT_LINK/iot_link/network/lwm2m/wakaama_lwm2m/wakaama-master/core/er-coap-13\er-coap-13.c **** /*-----------------------------------------------------------------------------------*/
 430:C:/Users/²Ü¼ÒºÀ/.iotlink/sdk/IoT_LINK/iot_link/network/lwm2m/wakaama_lwm2m/wakaama-master/core/er-coap-13\er-coap-13.c **** void
 431:C:/Users/²Ü¼ÒºÀ/.iotlink/sdk/IoT_LINK/iot_link/network/lwm2m/wakaama_lwm2m/wakaama-master/core/er-coap-13\er-coap-13.c **** coap_init_message(void *packet, coap_message_type_t type, uint8_t code, uint16_t mid)
 432:C:/Users/²Ü¼ÒºÀ/.iotlink/sdk/IoT_LINK/iot_link/network/lwm2m/wakaama_lwm2m/wakaama-master/core/er-coap-13\er-coap-13.c **** {
 925              		.loc 1 432 1 is_stmt 1 view -0
 926              		.cfi_startproc
 927              		@ args = 0, pretend = 0, frame = 0
 928              		@ frame_needed = 0, uses_anonymous_args = 0
 433:C:/Users/²Ü¼ÒºÀ/.iotlink/sdk/IoT_LINK/iot_link/network/lwm2m/wakaama_lwm2m/wakaama-master/core/er-coap-13\er-coap-13.c ****     coap_packet_t *const coap_pkt = (coap_packet_t *) packet;
 929              		.loc 1 433 5 view .LVU280
 432:C:/Users/²Ü¼ÒºÀ/.iotlink/sdk/IoT_LINK/iot_link/network/lwm2m/wakaama_lwm2m/wakaama-master/core/er-coap-13\er-coap-13.c ****     coap_packet_t *const coap_pkt = (coap_packet_t *) packet;
ARM GAS  C:\Users\²Ü¼ÒºÀ\AppData\Local\Temp\cczrlpTg.s 			page 27


 930              		.loc 1 432 1 is_stmt 0 view .LVU281
 931 0000 F8B5     		push	{r3, r4, r5, r6, r7, lr}
 932              	.LCFI11:
 933              		.cfi_def_cfa_offset 24
 934              		.cfi_offset 3, -24
 935              		.cfi_offset 4, -20
 936              		.cfi_offset 5, -16
 937              		.cfi_offset 6, -12
 938              		.cfi_offset 7, -8
 939              		.cfi_offset 14, -4
 432:C:/Users/²Ü¼ÒºÀ/.iotlink/sdk/IoT_LINK/iot_link/network/lwm2m/wakaama_lwm2m/wakaama-master/core/er-coap-13\er-coap-13.c ****     coap_packet_t *const coap_pkt = (coap_packet_t *) packet;
 940              		.loc 1 432 1 view .LVU282
 941 0002 0446     		mov	r4, r0
 942              	.LVL94:
 434:C:/Users/²Ü¼ÒºÀ/.iotlink/sdk/IoT_LINK/iot_link/network/lwm2m/wakaama_lwm2m/wakaama-master/core/er-coap-13\er-coap-13.c **** 
 435:C:/Users/²Ü¼ÒºÀ/.iotlink/sdk/IoT_LINK/iot_link/network/lwm2m/wakaama_lwm2m/wakaama-master/core/er-coap-13\er-coap-13.c ****     /* Important thing */
 436:C:/Users/²Ü¼ÒºÀ/.iotlink/sdk/IoT_LINK/iot_link/network/lwm2m/wakaama_lwm2m/wakaama-master/core/er-coap-13\er-coap-13.c ****     memset(coap_pkt, 0, sizeof(coap_packet_t));
 943              		.loc 1 436 5 is_stmt 1 view .LVU283
 432:C:/Users/²Ü¼ÒºÀ/.iotlink/sdk/IoT_LINK/iot_link/network/lwm2m/wakaama_lwm2m/wakaama-master/core/er-coap-13\er-coap-13.c ****     coap_packet_t *const coap_pkt = (coap_packet_t *) packet;
 944              		.loc 1 432 1 is_stmt 0 view .LVU284
 945 0004 0F46     		mov	r7, r1
 946 0006 1646     		mov	r6, r2
 947 0008 1D46     		mov	r5, r3
 948              		.loc 1 436 5 view .LVU285
 949 000a 8C22     		movs	r2, #140
 950              	.LVL95:
 951              		.loc 1 436 5 view .LVU286
 952 000c 0021     		movs	r1, #0
 953              	.LVL96:
 954              		.loc 1 436 5 view .LVU287
 955 000e FFF7FEFF 		bl	memset
 956              	.LVL97:
 437:C:/Users/²Ü¼ÒºÀ/.iotlink/sdk/IoT_LINK/iot_link/network/lwm2m/wakaama_lwm2m/wakaama-master/core/er-coap-13\er-coap-13.c **** 
 438:C:/Users/²Ü¼ÒºÀ/.iotlink/sdk/IoT_LINK/iot_link/network/lwm2m/wakaama_lwm2m/wakaama-master/core/er-coap-13\er-coap-13.c ****     coap_pkt->type = type;
 957              		.loc 1 438 5 is_stmt 1 view .LVU288
 958              		.loc 1 438 20 is_stmt 0 view .LVU289
 959 0012 6771     		strb	r7, [r4, #5]
 439:C:/Users/²Ü¼ÒºÀ/.iotlink/sdk/IoT_LINK/iot_link/network/lwm2m/wakaama_lwm2m/wakaama-master/core/er-coap-13\er-coap-13.c ****     coap_pkt->code = code;
 960              		.loc 1 439 5 is_stmt 1 view .LVU290
 961              		.loc 1 439 20 is_stmt 0 view .LVU291
 962 0014 A671     		strb	r6, [r4, #6]
 440:C:/Users/²Ü¼ÒºÀ/.iotlink/sdk/IoT_LINK/iot_link/network/lwm2m/wakaama_lwm2m/wakaama-master/core/er-coap-13\er-coap-13.c ****     coap_pkt->mid = mid;
 963              		.loc 1 440 5 is_stmt 1 view .LVU292
 964              		.loc 1 440 19 is_stmt 0 view .LVU293
 965 0016 2581     		strh	r5, [r4, #8]	@ movhi
 441:C:/Users/²Ü¼ÒºÀ/.iotlink/sdk/IoT_LINK/iot_link/network/lwm2m/wakaama_lwm2m/wakaama-master/core/er-coap-13\er-coap-13.c **** }
 966              		.loc 1 441 1 view .LVU294
 967 0018 F8BD     		pop	{r3, r4, r5, r6, r7, pc}
 968              		.loc 1 441 1 view .LVU295
 969              		.cfi_endproc
 970              	.LFE17:
 972              		.section	.text.coap_free_header,"ax",%progbits
 973              		.align	1
 974              		.global	coap_free_header
 975              		.syntax unified
 976              		.thumb
 977              		.thumb_func
ARM GAS  C:\Users\²Ü¼ÒºÀ\AppData\Local\Temp\cczrlpTg.s 			page 28


 978              		.fpu fpv4-sp-d16
 980              	coap_free_header:
 981              	.LVL98:
 982              	.LFB18:
 442:C:/Users/²Ü¼ÒºÀ/.iotlink/sdk/IoT_LINK/iot_link/network/lwm2m/wakaama_lwm2m/wakaama-master/core/er-coap-13\er-coap-13.c **** 
 443:C:/Users/²Ü¼ÒºÀ/.iotlink/sdk/IoT_LINK/iot_link/network/lwm2m/wakaama_lwm2m/wakaama-master/core/er-coap-13\er-coap-13.c **** void
 444:C:/Users/²Ü¼ÒºÀ/.iotlink/sdk/IoT_LINK/iot_link/network/lwm2m/wakaama_lwm2m/wakaama-master/core/er-coap-13\er-coap-13.c **** coap_free_header(void *packet)
 445:C:/Users/²Ü¼ÒºÀ/.iotlink/sdk/IoT_LINK/iot_link/network/lwm2m/wakaama_lwm2m/wakaama-master/core/er-coap-13\er-coap-13.c **** {
 983              		.loc 1 445 1 is_stmt 1 view -0
 984              		.cfi_startproc
 985              		@ args = 0, pretend = 0, frame = 0
 986              		@ frame_needed = 0, uses_anonymous_args = 0
 446:C:/Users/²Ü¼ÒºÀ/.iotlink/sdk/IoT_LINK/iot_link/network/lwm2m/wakaama_lwm2m/wakaama-master/core/er-coap-13\er-coap-13.c ****     coap_packet_t *const coap_pkt = (coap_packet_t *) packet;
 987              		.loc 1 446 5 view .LVU297
 447:C:/Users/²Ü¼ÒºÀ/.iotlink/sdk/IoT_LINK/iot_link/network/lwm2m/wakaama_lwm2m/wakaama-master/core/er-coap-13\er-coap-13.c **** 
 448:C:/Users/²Ü¼ÒºÀ/.iotlink/sdk/IoT_LINK/iot_link/network/lwm2m/wakaama_lwm2m/wakaama-master/core/er-coap-13\er-coap-13.c ****     free_multi_option(coap_pkt->uri_path);
 988              		.loc 1 448 5 view .LVU298
 445:C:/Users/²Ü¼ÒºÀ/.iotlink/sdk/IoT_LINK/iot_link/network/lwm2m/wakaama_lwm2m/wakaama-master/core/er-coap-13\er-coap-13.c ****     coap_packet_t *const coap_pkt = (coap_packet_t *) packet;
 989              		.loc 1 445 1 is_stmt 0 view .LVU299
 990 0000 10B5     		push	{r4, lr}
 991              	.LCFI12:
 992              		.cfi_def_cfa_offset 8
 993              		.cfi_offset 4, -8
 994              		.cfi_offset 14, -4
 445:C:/Users/²Ü¼ÒºÀ/.iotlink/sdk/IoT_LINK/iot_link/network/lwm2m/wakaama_lwm2m/wakaama-master/core/er-coap-13\er-coap-13.c ****     coap_packet_t *const coap_pkt = (coap_packet_t *) packet;
 995              		.loc 1 445 1 view .LVU300
 996 0002 0446     		mov	r4, r0
 997              		.loc 1 448 5 view .LVU301
 998 0004 406C     		ldr	r0, [r0, #68]
 999              	.LVL99:
 1000              		.loc 1 448 5 view .LVU302
 1001 0006 FFF7FEFF 		bl	free_multi_option
 1002              	.LVL100:
 449:C:/Users/²Ü¼ÒºÀ/.iotlink/sdk/IoT_LINK/iot_link/network/lwm2m/wakaama_lwm2m/wakaama-master/core/er-coap-13\er-coap-13.c ****     free_multi_option(coap_pkt->uri_query);
 1003              		.loc 1 449 5 is_stmt 1 view .LVU303
 1004 000a D4F88000 		ldr	r0, [r4, #128]
 1005 000e FFF7FEFF 		bl	free_multi_option
 1006              	.LVL101:
 450:C:/Users/²Ü¼ÒºÀ/.iotlink/sdk/IoT_LINK/iot_link/network/lwm2m/wakaama_lwm2m/wakaama-master/core/er-coap-13\er-coap-13.c ****     free_multi_option(coap_pkt->location_path);
 1007              		.loc 1 450 5 view .LVU304
 1008 0012 606B     		ldr	r0, [r4, #52]
 1009 0014 FFF7FEFF 		bl	free_multi_option
 1010              	.LVL102:
 451:C:/Users/²Ü¼ÒºÀ/.iotlink/sdk/IoT_LINK/iot_link/network/lwm2m/wakaama_lwm2m/wakaama-master/core/er-coap-13\er-coap-13.c ****     coap_pkt->uri_path = NULL;
 1011              		.loc 1 451 5 view .LVU305
 1012              		.loc 1 451 24 is_stmt 0 view .LVU306
 1013 0018 0023     		movs	r3, #0
 1014 001a 6364     		str	r3, [r4, #68]
 452:C:/Users/²Ü¼ÒºÀ/.iotlink/sdk/IoT_LINK/iot_link/network/lwm2m/wakaama_lwm2m/wakaama-master/core/er-coap-13\er-coap-13.c ****     coap_pkt->uri_query = NULL;
 1015              		.loc 1 452 5 is_stmt 1 view .LVU307
 1016              		.loc 1 452 25 is_stmt 0 view .LVU308
 1017 001c C4F88030 		str	r3, [r4, #128]
 453:C:/Users/²Ü¼ÒºÀ/.iotlink/sdk/IoT_LINK/iot_link/network/lwm2m/wakaama_lwm2m/wakaama-master/core/er-coap-13\er-coap-13.c ****     coap_pkt->location_path = NULL;
 1018              		.loc 1 453 5 is_stmt 1 view .LVU309
 1019              		.loc 1 453 29 is_stmt 0 view .LVU310
 1020 0020 6363     		str	r3, [r4, #52]
 454:C:/Users/²Ü¼ÒºÀ/.iotlink/sdk/IoT_LINK/iot_link/network/lwm2m/wakaama_lwm2m/wakaama-master/core/er-coap-13\er-coap-13.c **** }
ARM GAS  C:\Users\²Ü¼ÒºÀ\AppData\Local\Temp\cczrlpTg.s 			page 29


 1021              		.loc 1 454 1 view .LVU311
 1022 0022 10BD     		pop	{r4, pc}
 1023              		.loc 1 454 1 view .LVU312
 1024              		.cfi_endproc
 1025              	.LFE18:
 1027              		.section	.text.coap_serialize_get_size,"ax",%progbits
 1028              		.align	1
 1029              		.global	coap_serialize_get_size
 1030              		.syntax unified
 1031              		.thumb
 1032              		.thumb_func
 1033              		.fpu fpv4-sp-d16
 1035              	coap_serialize_get_size:
 1036              	.LVL103:
 1037              	.LFB19:
 455:C:/Users/²Ü¼ÒºÀ/.iotlink/sdk/IoT_LINK/iot_link/network/lwm2m/wakaama_lwm2m/wakaama-master/core/er-coap-13\er-coap-13.c **** 
 456:C:/Users/²Ü¼ÒºÀ/.iotlink/sdk/IoT_LINK/iot_link/network/lwm2m/wakaama_lwm2m/wakaama-master/core/er-coap-13\er-coap-13.c **** /*-----------------------------------------------------------------------------------*/
 457:C:/Users/²Ü¼ÒºÀ/.iotlink/sdk/IoT_LINK/iot_link/network/lwm2m/wakaama_lwm2m/wakaama-master/core/er-coap-13\er-coap-13.c **** size_t coap_serialize_get_size(void *packet)
 458:C:/Users/²Ü¼ÒºÀ/.iotlink/sdk/IoT_LINK/iot_link/network/lwm2m/wakaama_lwm2m/wakaama-master/core/er-coap-13\er-coap-13.c **** {
 1038              		.loc 1 458 1 is_stmt 1 view -0
 1039              		.cfi_startproc
 1040              		@ args = 0, pretend = 0, frame = 0
 1041              		@ frame_needed = 0, uses_anonymous_args = 0
 459:C:/Users/²Ü¼ÒºÀ/.iotlink/sdk/IoT_LINK/iot_link/network/lwm2m/wakaama_lwm2m/wakaama-master/core/er-coap-13\er-coap-13.c ****     coap_packet_t *const coap_pkt = (coap_packet_t *) packet;
 1042              		.loc 1 459 5 view .LVU314
 460:C:/Users/²Ü¼ÒºÀ/.iotlink/sdk/IoT_LINK/iot_link/network/lwm2m/wakaama_lwm2m/wakaama-master/core/er-coap-13\er-coap-13.c ****     size_t length = 0;
 1043              		.loc 1 460 5 view .LVU315
 461:C:/Users/²Ü¼ÒºÀ/.iotlink/sdk/IoT_LINK/iot_link/network/lwm2m/wakaama_lwm2m/wakaama-master/core/er-coap-13\er-coap-13.c **** 
 462:C:/Users/²Ü¼ÒºÀ/.iotlink/sdk/IoT_LINK/iot_link/network/lwm2m/wakaama_lwm2m/wakaama-master/core/er-coap-13\er-coap-13.c ****     length = COAP_HEADER_LEN + coap_pkt->payload_len + coap_pkt->token_len;
 1044              		.loc 1 462 5 view .LVU316
 458:C:/Users/²Ü¼ÒºÀ/.iotlink/sdk/IoT_LINK/iot_link/network/lwm2m/wakaama_lwm2m/wakaama-master/core/er-coap-13\er-coap-13.c ****     coap_packet_t *const coap_pkt = (coap_packet_t *) packet;
 1045              		.loc 1 458 1 is_stmt 0 view .LVU317
 1046 0000 30B5     		push	{r4, r5, lr}
 1047              	.LCFI13:
 1048              		.cfi_def_cfa_offset 12
 1049              		.cfi_offset 4, -12
 1050              		.cfi_offset 5, -8
 1051              		.cfi_offset 14, -4
 1052              		.loc 1 462 40 view .LVU318
 1053 0002 B0F88640 		ldrh	r4, [r0, #134]
 458:C:/Users/²Ü¼ÒºÀ/.iotlink/sdk/IoT_LINK/iot_link/network/lwm2m/wakaama_lwm2m/wakaama-master/core/er-coap-13\er-coap-13.c ****     coap_packet_t *const coap_pkt = (coap_packet_t *) packet;
 1054              		.loc 1 458 1 view .LVU319
 1055 0006 0346     		mov	r3, r0
 1056              		.loc 1 462 64 view .LVU320
 1057 0008 90F84C00 		ldrb	r0, [r0, #76]	@ zero_extendqisi2
 1058              	.LVL104:
 1059              		.loc 1 462 30 view .LVU321
 1060 000c 221D     		adds	r2, r4, #4
 1061              		.loc 1 462 54 view .LVU322
 1062 000e 1044     		add	r0, r0, r2
 1063              	.LVL105:
 463:C:/Users/²Ü¼ÒºÀ/.iotlink/sdk/IoT_LINK/iot_link/network/lwm2m/wakaama_lwm2m/wakaama-master/core/er-coap-13\er-coap-13.c **** 
 464:C:/Users/²Ü¼ÒºÀ/.iotlink/sdk/IoT_LINK/iot_link/network/lwm2m/wakaama_lwm2m/wakaama-master/core/er-coap-13\er-coap-13.c ****     if (IS_OPTION(coap_pkt, COAP_OPTION_IF_MATCH))
 1064              		.loc 1 464 5 is_stmt 1 view .LVU323
 1065              		.loc 1 464 9 is_stmt 0 view .LVU324
 1066 0010 9A7A     		ldrb	r2, [r3, #10]	@ zero_extendqisi2
 1067              		.loc 1 464 8 view .LVU325
ARM GAS  C:\Users\²Ü¼ÒºÀ\AppData\Local\Temp\cczrlpTg.s 			page 30


 1068 0012 9107     		lsls	r1, r2, #30
 465:C:/Users/²Ü¼ÒºÀ/.iotlink/sdk/IoT_LINK/iot_link/network/lwm2m/wakaama_lwm2m/wakaama-master/core/er-coap-13\er-coap-13.c ****     {
 466:C:/Users/²Ü¼ÒºÀ/.iotlink/sdk/IoT_LINK/iot_link/network/lwm2m/wakaama_lwm2m/wakaama-master/core/er-coap-13\er-coap-13.c ****         length += COAP_MAX_OPTION_HEADER_LEN + coap_pkt->if_match_len;
 1069              		.loc 1 466 9 is_stmt 1 view .LVU326
 1070              		.loc 1 466 16 is_stmt 0 view .LVU327
 1071 0014 42BF     		ittt	mi
 1072 0016 93F85A10 		ldrbmi	r1, [r3, #90]	@ zero_extendqisi2
 1073 001a 0531     		addmi	r1, r1, #5
 1074 001c 4018     		addmi	r0, r0, r1
 1075              	.LVL106:
 467:C:/Users/²Ü¼ÒºÀ/.iotlink/sdk/IoT_LINK/iot_link/network/lwm2m/wakaama_lwm2m/wakaama-master/core/er-coap-13\er-coap-13.c ****     }
 468:C:/Users/²Ü¼ÒºÀ/.iotlink/sdk/IoT_LINK/iot_link/network/lwm2m/wakaama_lwm2m/wakaama-master/core/er-coap-13\er-coap-13.c ****     if (IS_OPTION(coap_pkt, COAP_OPTION_URI_HOST))
 1076              		.loc 1 468 5 is_stmt 1 view .LVU328
 1077              		.loc 1 468 8 is_stmt 0 view .LVU329
 1078 001e 1507     		lsls	r5, r2, #28
 469:C:/Users/²Ü¼ÒºÀ/.iotlink/sdk/IoT_LINK/iot_link/network/lwm2m/wakaama_lwm2m/wakaama-master/core/er-coap-13\er-coap-13.c ****     {
 470:C:/Users/²Ü¼ÒºÀ/.iotlink/sdk/IoT_LINK/iot_link/network/lwm2m/wakaama_lwm2m/wakaama-master/core/er-coap-13\er-coap-13.c ****         length += COAP_MAX_OPTION_HEADER_LEN + coap_pkt->uri_host_len;
 1079              		.loc 1 470 9 is_stmt 1 view .LVU330
 1080              		.loc 1 470 16 is_stmt 0 view .LVU331
 1081 0020 42BF     		ittt	mi
 1082 0022 D96A     		ldrmi	r1, [r3, #44]
 1083 0024 0531     		addmi	r1, r1, #5
 1084 0026 4018     		addmi	r0, r0, r1
 1085              	.LVL107:
 471:C:/Users/²Ü¼ÒºÀ/.iotlink/sdk/IoT_LINK/iot_link/network/lwm2m/wakaama_lwm2m/wakaama-master/core/er-coap-13\er-coap-13.c ****     }
 472:C:/Users/²Ü¼ÒºÀ/.iotlink/sdk/IoT_LINK/iot_link/network/lwm2m/wakaama_lwm2m/wakaama-master/core/er-coap-13\er-coap-13.c ****     if (IS_OPTION(coap_pkt, COAP_OPTION_ETAG))
 1086              		.loc 1 472 5 is_stmt 1 view .LVU332
 1087              		.loc 1 472 8 is_stmt 0 view .LVU333
 1088 0028 D106     		lsls	r1, r2, #27
 473:C:/Users/²Ü¼ÒºÀ/.iotlink/sdk/IoT_LINK/iot_link/network/lwm2m/wakaama_lwm2m/wakaama-master/core/er-coap-13\er-coap-13.c ****     {
 474:C:/Users/²Ü¼ÒºÀ/.iotlink/sdk/IoT_LINK/iot_link/network/lwm2m/wakaama_lwm2m/wakaama-master/core/er-coap-13\er-coap-13.c ****         length += COAP_MAX_OPTION_HEADER_LEN + coap_pkt->etag_len;
 1089              		.loc 1 474 9 is_stmt 1 view .LVU334
 1090              		.loc 1 474 16 is_stmt 0 view .LVU335
 1091 002a 42BF     		ittt	mi
 1092 002c 93F82010 		ldrbmi	r1, [r3, #32]	@ zero_extendqisi2
 1093 0030 0531     		addmi	r1, r1, #5
 1094 0032 4018     		addmi	r0, r0, r1
 1095              	.LVL108:
 475:C:/Users/²Ü¼ÒºÀ/.iotlink/sdk/IoT_LINK/iot_link/network/lwm2m/wakaama_lwm2m/wakaama-master/core/er-coap-13\er-coap-13.c ****     }
 476:C:/Users/²Ü¼ÒºÀ/.iotlink/sdk/IoT_LINK/iot_link/network/lwm2m/wakaama_lwm2m/wakaama-master/core/er-coap-13\er-coap-13.c ****     if (IS_OPTION(coap_pkt, COAP_OPTION_IF_NONE_MATCH))
 1096              		.loc 1 476 5 is_stmt 1 view .LVU336
 1097              		.loc 1 476 8 is_stmt 0 view .LVU337
 1098 0034 9506     		lsls	r5, r2, #26
 477:C:/Users/²Ü¼ÒºÀ/.iotlink/sdk/IoT_LINK/iot_link/network/lwm2m/wakaama_lwm2m/wakaama-master/core/er-coap-13\er-coap-13.c ****     {
 478:C:/Users/²Ü¼ÒºÀ/.iotlink/sdk/IoT_LINK/iot_link/network/lwm2m/wakaama_lwm2m/wakaama-master/core/er-coap-13\er-coap-13.c ****         // can be stored in extended fields
 479:C:/Users/²Ü¼ÒºÀ/.iotlink/sdk/IoT_LINK/iot_link/network/lwm2m/wakaama_lwm2m/wakaama-master/core/er-coap-13\er-coap-13.c ****         length += COAP_MAX_OPTION_HEADER_LEN;
 1099              		.loc 1 479 9 is_stmt 1 view .LVU338
 1100              		.loc 1 479 16 is_stmt 0 view .LVU339
 1101 0036 48BF     		it	mi
 1102 0038 0530     		addmi	r0, r0, #5
 1103              	.LVL109:
 480:C:/Users/²Ü¼ÒºÀ/.iotlink/sdk/IoT_LINK/iot_link/network/lwm2m/wakaama_lwm2m/wakaama-master/core/er-coap-13\er-coap-13.c ****     }
 481:C:/Users/²Ü¼ÒºÀ/.iotlink/sdk/IoT_LINK/iot_link/network/lwm2m/wakaama_lwm2m/wakaama-master/core/er-coap-13\er-coap-13.c ****     if (IS_OPTION(coap_pkt, COAP_OPTION_OBSERVE))
 1104              		.loc 1 481 5 is_stmt 1 view .LVU340
 1105              		.loc 1 481 8 is_stmt 0 view .LVU341
 1106 003a 5106     		lsls	r1, r2, #25
 482:C:/Users/²Ü¼ÒºÀ/.iotlink/sdk/IoT_LINK/iot_link/network/lwm2m/wakaama_lwm2m/wakaama-master/core/er-coap-13\er-coap-13.c ****     {
ARM GAS  C:\Users\²Ü¼ÒºÀ\AppData\Local\Temp\cczrlpTg.s 			page 31


 483:C:/Users/²Ü¼ÒºÀ/.iotlink/sdk/IoT_LINK/iot_link/network/lwm2m/wakaama_lwm2m/wakaama-master/core/er-coap-13\er-coap-13.c ****         // can be stored in extended fields
 484:C:/Users/²Ü¼ÒºÀ/.iotlink/sdk/IoT_LINK/iot_link/network/lwm2m/wakaama_lwm2m/wakaama-master/core/er-coap-13\er-coap-13.c ****         length += COAP_MAX_OPTION_HEADER_LEN;
 1107              		.loc 1 484 9 is_stmt 1 view .LVU342
 1108              		.loc 1 484 16 is_stmt 0 view .LVU343
 1109 003c 48BF     		it	mi
 1110 003e 0530     		addmi	r0, r0, #5
 1111              	.LVL110:
 485:C:/Users/²Ü¼ÒºÀ/.iotlink/sdk/IoT_LINK/iot_link/network/lwm2m/wakaama_lwm2m/wakaama-master/core/er-coap-13\er-coap-13.c ****     }
 486:C:/Users/²Ü¼ÒºÀ/.iotlink/sdk/IoT_LINK/iot_link/network/lwm2m/wakaama_lwm2m/wakaama-master/core/er-coap-13\er-coap-13.c ****     if (IS_OPTION(coap_pkt, COAP_OPTION_URI_PORT))
 1112              		.loc 1 486 5 is_stmt 1 view .LVU344
 1113              		.loc 1 486 8 is_stmt 0 view .LVU345
 1114 0040 1206     		lsls	r2, r2, #24
 487:C:/Users/²Ü¼ÒºÀ/.iotlink/sdk/IoT_LINK/iot_link/network/lwm2m/wakaama_lwm2m/wakaama-master/core/er-coap-13\er-coap-13.c ****     {
 488:C:/Users/²Ü¼ÒºÀ/.iotlink/sdk/IoT_LINK/iot_link/network/lwm2m/wakaama_lwm2m/wakaama-master/core/er-coap-13\er-coap-13.c ****         // can be stored in extended fields
 489:C:/Users/²Ü¼ÒºÀ/.iotlink/sdk/IoT_LINK/iot_link/network/lwm2m/wakaama_lwm2m/wakaama-master/core/er-coap-13\er-coap-13.c ****         length += COAP_MAX_OPTION_HEADER_LEN;
 1115              		.loc 1 489 9 is_stmt 1 view .LVU346
 490:C:/Users/²Ü¼ÒºÀ/.iotlink/sdk/IoT_LINK/iot_link/network/lwm2m/wakaama_lwm2m/wakaama-master/core/er-coap-13\er-coap-13.c ****     }
 491:C:/Users/²Ü¼ÒºÀ/.iotlink/sdk/IoT_LINK/iot_link/network/lwm2m/wakaama_lwm2m/wakaama-master/core/er-coap-13\er-coap-13.c ****     if (IS_OPTION(coap_pkt, COAP_OPTION_LOCATION_PATH))
 1116              		.loc 1 491 9 is_stmt 0 view .LVU347
 1117 0042 DA7A     		ldrb	r2, [r3, #11]	@ zero_extendqisi2
 489:C:/Users/²Ü¼ÒºÀ/.iotlink/sdk/IoT_LINK/iot_link/network/lwm2m/wakaama_lwm2m/wakaama-master/core/er-coap-13\er-coap-13.c ****     }
 1118              		.loc 1 489 16 view .LVU348
 1119 0044 48BF     		it	mi
 1120 0046 0530     		addmi	r0, r0, #5
 1121              	.LVL111:
 1122              		.loc 1 491 5 is_stmt 1 view .LVU349
 1123              		.loc 1 491 8 is_stmt 0 view .LVU350
 1124 0048 D507     		lsls	r5, r2, #31
 1125 004a 02D5     		bpl	.L76
 1126              	.LBB42:
 492:C:/Users/²Ü¼ÒºÀ/.iotlink/sdk/IoT_LINK/iot_link/network/lwm2m/wakaama_lwm2m/wakaama-master/core/er-coap-13\er-coap-13.c ****     {
 493:C:/Users/²Ü¼ÒºÀ/.iotlink/sdk/IoT_LINK/iot_link/network/lwm2m/wakaama_lwm2m/wakaama-master/core/er-coap-13\er-coap-13.c ****         multi_option_t *optP;
 1127              		.loc 1 493 9 is_stmt 1 view .LVU351
 494:C:/Users/²Ü¼ÒºÀ/.iotlink/sdk/IoT_LINK/iot_link/network/lwm2m/wakaama_lwm2m/wakaama-master/core/er-coap-13\er-coap-13.c **** 
 495:C:/Users/²Ü¼ÒºÀ/.iotlink/sdk/IoT_LINK/iot_link/network/lwm2m/wakaama_lwm2m/wakaama-master/core/er-coap-13\er-coap-13.c ****         for (optP = coap_pkt->location_path ; optP != NULL ; optP = optP->next)
 1128              		.loc 1 495 9 view .LVU352
 1129              		.loc 1 495 19 is_stmt 0 view .LVU353
 1130 004c 596B     		ldr	r1, [r3, #52]
 1131              	.LVL112:
 1132              	.L77:
 1133              		.loc 1 495 47 is_stmt 1 discriminator 1 view .LVU354
 1134              		.loc 1 495 9 is_stmt 0 discriminator 1 view .LVU355
 1135 004e 0029     		cmp	r1, #0
 1136 0050 30D1     		bne	.L78
 1137              	.LVL113:
 1138              	.L76:
 1139              		.loc 1 495 9 discriminator 1 view .LVU356
 1140              	.LBE42:
 496:C:/Users/²Ü¼ÒºÀ/.iotlink/sdk/IoT_LINK/iot_link/network/lwm2m/wakaama_lwm2m/wakaama-master/core/er-coap-13\er-coap-13.c ****         {
 497:C:/Users/²Ü¼ÒºÀ/.iotlink/sdk/IoT_LINK/iot_link/network/lwm2m/wakaama_lwm2m/wakaama-master/core/er-coap-13\er-coap-13.c ****             length += COAP_MAX_OPTION_HEADER_LEN + optP->len;
 498:C:/Users/²Ü¼ÒºÀ/.iotlink/sdk/IoT_LINK/iot_link/network/lwm2m/wakaama_lwm2m/wakaama-master/core/er-coap-13\er-coap-13.c ****         }
 499:C:/Users/²Ü¼ÒºÀ/.iotlink/sdk/IoT_LINK/iot_link/network/lwm2m/wakaama_lwm2m/wakaama-master/core/er-coap-13\er-coap-13.c ****     }
 500:C:/Users/²Ü¼ÒºÀ/.iotlink/sdk/IoT_LINK/iot_link/network/lwm2m/wakaama_lwm2m/wakaama-master/core/er-coap-13\er-coap-13.c ****     if (IS_OPTION(coap_pkt, COAP_OPTION_URI_PATH))
 1141              		.loc 1 500 5 is_stmt 1 view .LVU357
 1142              		.loc 1 500 8 is_stmt 0 view .LVU358
 1143 0052 1107     		lsls	r1, r2, #28
 1144 0054 02D5     		bpl	.L79
ARM GAS  C:\Users\²Ü¼ÒºÀ\AppData\Local\Temp\cczrlpTg.s 			page 32


 1145              	.LBB43:
 501:C:/Users/²Ü¼ÒºÀ/.iotlink/sdk/IoT_LINK/iot_link/network/lwm2m/wakaama_lwm2m/wakaama-master/core/er-coap-13\er-coap-13.c ****     {
 502:C:/Users/²Ü¼ÒºÀ/.iotlink/sdk/IoT_LINK/iot_link/network/lwm2m/wakaama_lwm2m/wakaama-master/core/er-coap-13\er-coap-13.c ****         multi_option_t *optP;
 1146              		.loc 1 502 9 is_stmt 1 view .LVU359
 503:C:/Users/²Ü¼ÒºÀ/.iotlink/sdk/IoT_LINK/iot_link/network/lwm2m/wakaama_lwm2m/wakaama-master/core/er-coap-13\er-coap-13.c **** 
 504:C:/Users/²Ü¼ÒºÀ/.iotlink/sdk/IoT_LINK/iot_link/network/lwm2m/wakaama_lwm2m/wakaama-master/core/er-coap-13\er-coap-13.c ****         for (optP = coap_pkt->uri_path ; optP != NULL ; optP = optP->next)
 1147              		.loc 1 504 9 view .LVU360
 1148              		.loc 1 504 19 is_stmt 0 view .LVU361
 1149 0056 596C     		ldr	r1, [r3, #68]
 1150              	.LVL114:
 1151              	.L80:
 1152              		.loc 1 504 42 is_stmt 1 discriminator 1 view .LVU362
 1153              		.loc 1 504 9 is_stmt 0 discriminator 1 view .LVU363
 1154 0058 0029     		cmp	r1, #0
 1155 005a 30D1     		bne	.L81
 1156              	.LVL115:
 1157              	.L79:
 1158              		.loc 1 504 9 discriminator 1 view .LVU364
 1159              	.LBE43:
 505:C:/Users/²Ü¼ÒºÀ/.iotlink/sdk/IoT_LINK/iot_link/network/lwm2m/wakaama_lwm2m/wakaama-master/core/er-coap-13\er-coap-13.c ****         {
 506:C:/Users/²Ü¼ÒºÀ/.iotlink/sdk/IoT_LINK/iot_link/network/lwm2m/wakaama_lwm2m/wakaama-master/core/er-coap-13\er-coap-13.c ****             length += COAP_MAX_OPTION_HEADER_LEN + optP->len;
 507:C:/Users/²Ü¼ÒºÀ/.iotlink/sdk/IoT_LINK/iot_link/network/lwm2m/wakaama_lwm2m/wakaama-master/core/er-coap-13\er-coap-13.c ****         }
 508:C:/Users/²Ü¼ÒºÀ/.iotlink/sdk/IoT_LINK/iot_link/network/lwm2m/wakaama_lwm2m/wakaama-master/core/er-coap-13\er-coap-13.c ****     }
 509:C:/Users/²Ü¼ÒºÀ/.iotlink/sdk/IoT_LINK/iot_link/network/lwm2m/wakaama_lwm2m/wakaama-master/core/er-coap-13\er-coap-13.c ****     if (IS_OPTION(coap_pkt, COAP_OPTION_CONTENT_TYPE))
 1160              		.loc 1 509 5 is_stmt 1 view .LVU365
 1161              		.loc 1 509 8 is_stmt 0 view .LVU366
 1162 005c D506     		lsls	r5, r2, #27
 510:C:/Users/²Ü¼ÒºÀ/.iotlink/sdk/IoT_LINK/iot_link/network/lwm2m/wakaama_lwm2m/wakaama-master/core/er-coap-13\er-coap-13.c ****     {
 511:C:/Users/²Ü¼ÒºÀ/.iotlink/sdk/IoT_LINK/iot_link/network/lwm2m/wakaama_lwm2m/wakaama-master/core/er-coap-13\er-coap-13.c ****         // can be stored in extended fields
 512:C:/Users/²Ü¼ÒºÀ/.iotlink/sdk/IoT_LINK/iot_link/network/lwm2m/wakaama_lwm2m/wakaama-master/core/er-coap-13\er-coap-13.c ****         length += COAP_MAX_OPTION_HEADER_LEN;
 1163              		.loc 1 512 9 is_stmt 1 view .LVU367
 1164              		.loc 1 512 16 is_stmt 0 view .LVU368
 1165 005e 48BF     		it	mi
 1166 0060 0530     		addmi	r0, r0, #5
 1167              	.LVL116:
 513:C:/Users/²Ü¼ÒºÀ/.iotlink/sdk/IoT_LINK/iot_link/network/lwm2m/wakaama_lwm2m/wakaama-master/core/er-coap-13\er-coap-13.c ****     }
 514:C:/Users/²Ü¼ÒºÀ/.iotlink/sdk/IoT_LINK/iot_link/network/lwm2m/wakaama_lwm2m/wakaama-master/core/er-coap-13\er-coap-13.c ****     if (IS_OPTION(coap_pkt, COAP_OPTION_MAX_AGE))
 1168              		.loc 1 514 5 is_stmt 1 view .LVU369
 1169              		.loc 1 514 8 is_stmt 0 view .LVU370
 1170 0062 5106     		lsls	r1, r2, #25
 515:C:/Users/²Ü¼ÒºÀ/.iotlink/sdk/IoT_LINK/iot_link/network/lwm2m/wakaama_lwm2m/wakaama-master/core/er-coap-13\er-coap-13.c ****     {
 516:C:/Users/²Ü¼ÒºÀ/.iotlink/sdk/IoT_LINK/iot_link/network/lwm2m/wakaama_lwm2m/wakaama-master/core/er-coap-13\er-coap-13.c ****         // can be stored in extended fields
 517:C:/Users/²Ü¼ÒºÀ/.iotlink/sdk/IoT_LINK/iot_link/network/lwm2m/wakaama_lwm2m/wakaama-master/core/er-coap-13\er-coap-13.c ****         length += COAP_MAX_OPTION_HEADER_LEN;
 1171              		.loc 1 517 9 is_stmt 1 view .LVU371
 1172              		.loc 1 517 16 is_stmt 0 view .LVU372
 1173 0064 48BF     		it	mi
 1174 0066 0530     		addmi	r0, r0, #5
 1175              	.LVL117:
 518:C:/Users/²Ü¼ÒºÀ/.iotlink/sdk/IoT_LINK/iot_link/network/lwm2m/wakaama_lwm2m/wakaama-master/core/er-coap-13\er-coap-13.c ****     }
 519:C:/Users/²Ü¼ÒºÀ/.iotlink/sdk/IoT_LINK/iot_link/network/lwm2m/wakaama_lwm2m/wakaama-master/core/er-coap-13\er-coap-13.c ****     if (IS_OPTION(coap_pkt, COAP_OPTION_URI_QUERY))
 1176              		.loc 1 519 5 is_stmt 1 view .LVU373
 1177              		.loc 1 519 8 is_stmt 0 view .LVU374
 1178 0068 1206     		lsls	r2, r2, #24
 1179 006a 03D5     		bpl	.L84
 1180              	.LBB44:
 520:C:/Users/²Ü¼ÒºÀ/.iotlink/sdk/IoT_LINK/iot_link/network/lwm2m/wakaama_lwm2m/wakaama-master/core/er-coap-13\er-coap-13.c ****     {
 521:C:/Users/²Ü¼ÒºÀ/.iotlink/sdk/IoT_LINK/iot_link/network/lwm2m/wakaama_lwm2m/wakaama-master/core/er-coap-13\er-coap-13.c ****         multi_option_t *optP;
ARM GAS  C:\Users\²Ü¼ÒºÀ\AppData\Local\Temp\cczrlpTg.s 			page 33


 1181              		.loc 1 521 9 is_stmt 1 view .LVU375
 522:C:/Users/²Ü¼ÒºÀ/.iotlink/sdk/IoT_LINK/iot_link/network/lwm2m/wakaama_lwm2m/wakaama-master/core/er-coap-13\er-coap-13.c **** 
 523:C:/Users/²Ü¼ÒºÀ/.iotlink/sdk/IoT_LINK/iot_link/network/lwm2m/wakaama_lwm2m/wakaama-master/core/er-coap-13\er-coap-13.c ****         for (optP = coap_pkt->uri_query ; optP != NULL ; optP = optP->next)
 1182              		.loc 1 523 9 view .LVU376
 1183              		.loc 1 523 19 is_stmt 0 view .LVU377
 1184 006c D3F88020 		ldr	r2, [r3, #128]
 1185              	.LVL118:
 1186              	.L85:
 1187              		.loc 1 523 43 is_stmt 1 discriminator 1 view .LVU378
 1188              		.loc 1 523 9 is_stmt 0 discriminator 1 view .LVU379
 1189 0070 002A     		cmp	r2, #0
 1190 0072 29D1     		bne	.L86
 1191              	.LVL119:
 1192              	.L84:
 1193              		.loc 1 523 9 discriminator 1 view .LVU380
 1194              	.LBE44:
 524:C:/Users/²Ü¼ÒºÀ/.iotlink/sdk/IoT_LINK/iot_link/network/lwm2m/wakaama_lwm2m/wakaama-master/core/er-coap-13\er-coap-13.c ****         {
 525:C:/Users/²Ü¼ÒºÀ/.iotlink/sdk/IoT_LINK/iot_link/network/lwm2m/wakaama_lwm2m/wakaama-master/core/er-coap-13\er-coap-13.c ****             length += COAP_MAX_OPTION_HEADER_LEN + optP->len;
 526:C:/Users/²Ü¼ÒºÀ/.iotlink/sdk/IoT_LINK/iot_link/network/lwm2m/wakaama_lwm2m/wakaama-master/core/er-coap-13\er-coap-13.c ****         }
 527:C:/Users/²Ü¼ÒºÀ/.iotlink/sdk/IoT_LINK/iot_link/network/lwm2m/wakaama_lwm2m/wakaama-master/core/er-coap-13\er-coap-13.c ****     }
 528:C:/Users/²Ü¼ÒºÀ/.iotlink/sdk/IoT_LINK/iot_link/network/lwm2m/wakaama_lwm2m/wakaama-master/core/er-coap-13\er-coap-13.c ****     if (IS_OPTION(coap_pkt, COAP_OPTION_ACCEPT))
 1195              		.loc 1 528 5 is_stmt 1 view .LVU381
 1196              		.loc 1 528 9 is_stmt 0 view .LVU382
 1197 0074 1A7B     		ldrb	r2, [r3, #12]	@ zero_extendqisi2
 1198              		.loc 1 528 8 view .LVU383
 1199 0076 9507     		lsls	r5, r2, #30
 529:C:/Users/²Ü¼ÒºÀ/.iotlink/sdk/IoT_LINK/iot_link/network/lwm2m/wakaama_lwm2m/wakaama-master/core/er-coap-13\er-coap-13.c ****     {
 530:C:/Users/²Ü¼ÒºÀ/.iotlink/sdk/IoT_LINK/iot_link/network/lwm2m/wakaama_lwm2m/wakaama-master/core/er-coap-13\er-coap-13.c ****         length += coap_pkt->accept_num * COAP_MAX_OPTION_HEADER_LEN;
 1200              		.loc 1 530 9 is_stmt 1 view .LVU384
 1201              		.loc 1 530 16 is_stmt 0 view .LVU385
 1202 0078 42BF     		ittt	mi
 1203 007a 93F85510 		ldrbmi	r1, [r3, #85]	@ zero_extendqisi2
 1204 007e 0525     		movmi	r5, #5
 1205 0080 15FB0100 		smlabbmi	r0, r5, r1, r0
 1206              	.LVL120:
 531:C:/Users/²Ü¼ÒºÀ/.iotlink/sdk/IoT_LINK/iot_link/network/lwm2m/wakaama_lwm2m/wakaama-master/core/er-coap-13\er-coap-13.c ****     }
 532:C:/Users/²Ü¼ÒºÀ/.iotlink/sdk/IoT_LINK/iot_link/network/lwm2m/wakaama_lwm2m/wakaama-master/core/er-coap-13\er-coap-13.c ****     if (IS_OPTION(coap_pkt, COAP_OPTION_LOCATION_QUERY))
 1207              		.loc 1 532 5 is_stmt 1 view .LVU386
 1208              		.loc 1 532 8 is_stmt 0 view .LVU387
 1209 0084 D106     		lsls	r1, r2, #27
 533:C:/Users/²Ü¼ÒºÀ/.iotlink/sdk/IoT_LINK/iot_link/network/lwm2m/wakaama_lwm2m/wakaama-master/core/er-coap-13\er-coap-13.c ****     {
 534:C:/Users/²Ü¼ÒºÀ/.iotlink/sdk/IoT_LINK/iot_link/network/lwm2m/wakaama_lwm2m/wakaama-master/core/er-coap-13\er-coap-13.c ****         length += COAP_MAX_OPTION_HEADER_LEN + coap_pkt->location_query_len;
 1210              		.loc 1 534 9 is_stmt 1 view .LVU388
 1211              		.loc 1 534 16 is_stmt 0 view .LVU389
 1212 0086 42BF     		ittt	mi
 1213 0088 D96B     		ldrmi	r1, [r3, #60]
 1214 008a 0531     		addmi	r1, r1, #5
 1215 008c 4018     		addmi	r0, r0, r1
 1216              	.LVL121:
 535:C:/Users/²Ü¼ÒºÀ/.iotlink/sdk/IoT_LINK/iot_link/network/lwm2m/wakaama_lwm2m/wakaama-master/core/er-coap-13\er-coap-13.c ****     }
 536:C:/Users/²Ü¼ÒºÀ/.iotlink/sdk/IoT_LINK/iot_link/network/lwm2m/wakaama_lwm2m/wakaama-master/core/er-coap-13\er-coap-13.c ****     if (IS_OPTION(coap_pkt, COAP_OPTION_BLOCK2))
 1217              		.loc 1 536 5 is_stmt 1 view .LVU390
 1218              		.loc 1 536 8 is_stmt 0 view .LVU391
 1219 008e 1206     		lsls	r2, r2, #24
 537:C:/Users/²Ü¼ÒºÀ/.iotlink/sdk/IoT_LINK/iot_link/network/lwm2m/wakaama_lwm2m/wakaama-master/core/er-coap-13\er-coap-13.c ****     {
 538:C:/Users/²Ü¼ÒºÀ/.iotlink/sdk/IoT_LINK/iot_link/network/lwm2m/wakaama_lwm2m/wakaama-master/core/er-coap-13\er-coap-13.c ****         // can be stored in extended fields
 539:C:/Users/²Ü¼ÒºÀ/.iotlink/sdk/IoT_LINK/iot_link/network/lwm2m/wakaama_lwm2m/wakaama-master/core/er-coap-13\er-coap-13.c ****         length += COAP_MAX_OPTION_HEADER_LEN;
ARM GAS  C:\Users\²Ü¼ÒºÀ\AppData\Local\Temp\cczrlpTg.s 			page 34


 1220              		.loc 1 539 9 is_stmt 1 view .LVU392
 540:C:/Users/²Ü¼ÒºÀ/.iotlink/sdk/IoT_LINK/iot_link/network/lwm2m/wakaama_lwm2m/wakaama-master/core/er-coap-13\er-coap-13.c ****     }
 541:C:/Users/²Ü¼ÒºÀ/.iotlink/sdk/IoT_LINK/iot_link/network/lwm2m/wakaama_lwm2m/wakaama-master/core/er-coap-13\er-coap-13.c ****     if (IS_OPTION(coap_pkt, COAP_OPTION_BLOCK1))
 1221              		.loc 1 541 9 is_stmt 0 view .LVU393
 1222 0090 5A7B     		ldrb	r2, [r3, #13]	@ zero_extendqisi2
 539:C:/Users/²Ü¼ÒºÀ/.iotlink/sdk/IoT_LINK/iot_link/network/lwm2m/wakaama_lwm2m/wakaama-master/core/er-coap-13\er-coap-13.c ****     }
 1223              		.loc 1 539 16 view .LVU394
 1224 0092 48BF     		it	mi
 1225 0094 0530     		addmi	r0, r0, #5
 1226              	.LVL122:
 1227              		.loc 1 541 5 is_stmt 1 view .LVU395
 1228              		.loc 1 541 8 is_stmt 0 view .LVU396
 1229 0096 1507     		lsls	r5, r2, #28
 542:C:/Users/²Ü¼ÒºÀ/.iotlink/sdk/IoT_LINK/iot_link/network/lwm2m/wakaama_lwm2m/wakaama-master/core/er-coap-13\er-coap-13.c ****     {
 543:C:/Users/²Ü¼ÒºÀ/.iotlink/sdk/IoT_LINK/iot_link/network/lwm2m/wakaama_lwm2m/wakaama-master/core/er-coap-13\er-coap-13.c ****         // can be stored in extended fields
 544:C:/Users/²Ü¼ÒºÀ/.iotlink/sdk/IoT_LINK/iot_link/network/lwm2m/wakaama_lwm2m/wakaama-master/core/er-coap-13\er-coap-13.c ****         length += COAP_MAX_OPTION_HEADER_LEN;
 1230              		.loc 1 544 9 is_stmt 1 view .LVU397
 1231              		.loc 1 544 16 is_stmt 0 view .LVU398
 1232 0098 48BF     		it	mi
 1233 009a 0530     		addmi	r0, r0, #5
 1234              	.LVL123:
 545:C:/Users/²Ü¼ÒºÀ/.iotlink/sdk/IoT_LINK/iot_link/network/lwm2m/wakaama_lwm2m/wakaama-master/core/er-coap-13\er-coap-13.c ****     }
 546:C:/Users/²Ü¼ÒºÀ/.iotlink/sdk/IoT_LINK/iot_link/network/lwm2m/wakaama_lwm2m/wakaama-master/core/er-coap-13\er-coap-13.c ****     if (IS_OPTION(coap_pkt, COAP_OPTION_SIZE))
 1235              		.loc 1 546 5 is_stmt 1 view .LVU399
 1236              		.loc 1 546 8 is_stmt 0 view .LVU400
 1237 009c D106     		lsls	r1, r2, #27
 547:C:/Users/²Ü¼ÒºÀ/.iotlink/sdk/IoT_LINK/iot_link/network/lwm2m/wakaama_lwm2m/wakaama-master/core/er-coap-13\er-coap-13.c ****     {
 548:C:/Users/²Ü¼ÒºÀ/.iotlink/sdk/IoT_LINK/iot_link/network/lwm2m/wakaama_lwm2m/wakaama-master/core/er-coap-13\er-coap-13.c ****         // can be stored in extended fields
 549:C:/Users/²Ü¼ÒºÀ/.iotlink/sdk/IoT_LINK/iot_link/network/lwm2m/wakaama_lwm2m/wakaama-master/core/er-coap-13\er-coap-13.c ****         length += COAP_MAX_OPTION_HEADER_LEN;
 1238              		.loc 1 549 9 is_stmt 1 view .LVU401
 550:C:/Users/²Ü¼ÒºÀ/.iotlink/sdk/IoT_LINK/iot_link/network/lwm2m/wakaama_lwm2m/wakaama-master/core/er-coap-13\er-coap-13.c ****     }
 551:C:/Users/²Ü¼ÒºÀ/.iotlink/sdk/IoT_LINK/iot_link/network/lwm2m/wakaama_lwm2m/wakaama-master/core/er-coap-13\er-coap-13.c ****     if (IS_OPTION(coap_pkt, COAP_OPTION_PROXY_URI))
 1239              		.loc 1 551 8 is_stmt 0 view .LVU402
 1240 009e 9A7B     		ldrb	r2, [r3, #14]	@ zero_extendqisi2
 549:C:/Users/²Ü¼ÒºÀ/.iotlink/sdk/IoT_LINK/iot_link/network/lwm2m/wakaama_lwm2m/wakaama-master/core/er-coap-13\er-coap-13.c ****     }
 1241              		.loc 1 549 16 view .LVU403
 1242 00a0 48BF     		it	mi
 1243 00a2 0530     		addmi	r0, r0, #5
 1244              	.LVL124:
 1245              		.loc 1 551 5 is_stmt 1 view .LVU404
 1246              		.loc 1 551 8 is_stmt 0 view .LVU405
 1247 00a4 1207     		lsls	r2, r2, #28
 552:C:/Users/²Ü¼ÒºÀ/.iotlink/sdk/IoT_LINK/iot_link/network/lwm2m/wakaama_lwm2m/wakaama-master/core/er-coap-13\er-coap-13.c ****     {
 553:C:/Users/²Ü¼ÒºÀ/.iotlink/sdk/IoT_LINK/iot_link/network/lwm2m/wakaama_lwm2m/wakaama-master/core/er-coap-13\er-coap-13.c ****         length += COAP_MAX_OPTION_HEADER_LEN + coap_pkt->proxy_uri_len;
 1248              		.loc 1 553 9 is_stmt 1 view .LVU406
 1249              		.loc 1 553 16 is_stmt 0 view .LVU407
 1250 00a6 42BF     		ittt	mi
 1251 00a8 9B69     		ldrmi	r3, [r3, #24]
 1252              	.LVL125:
 1253              		.loc 1 553 16 view .LVU408
 1254 00aa 0533     		addmi	r3, r3, #5
 1255 00ac C018     		addmi	r0, r0, r3
 1256              	.LVL126:
 554:C:/Users/²Ü¼ÒºÀ/.iotlink/sdk/IoT_LINK/iot_link/network/lwm2m/wakaama_lwm2m/wakaama-master/core/er-coap-13\er-coap-13.c ****     }
 555:C:/Users/²Ü¼ÒºÀ/.iotlink/sdk/IoT_LINK/iot_link/network/lwm2m/wakaama_lwm2m/wakaama-master/core/er-coap-13\er-coap-13.c **** 
 556:C:/Users/²Ü¼ÒºÀ/.iotlink/sdk/IoT_LINK/iot_link/network/lwm2m/wakaama_lwm2m/wakaama-master/core/er-coap-13\er-coap-13.c ****     if (coap_pkt->payload_len)
 1257              		.loc 1 556 5 is_stmt 1 view .LVU409
ARM GAS  C:\Users\²Ü¼ÒºÀ\AppData\Local\Temp\cczrlpTg.s 			page 35


 1258              		.loc 1 556 8 is_stmt 0 view .LVU410
 1259 00ae 04B1     		cbz	r4, .L69
 557:C:/Users/²Ü¼ÒºÀ/.iotlink/sdk/IoT_LINK/iot_link/network/lwm2m/wakaama_lwm2m/wakaama-master/core/er-coap-13\er-coap-13.c ****     {
 558:C:/Users/²Ü¼ÒºÀ/.iotlink/sdk/IoT_LINK/iot_link/network/lwm2m/wakaama_lwm2m/wakaama-master/core/er-coap-13\er-coap-13.c ****         // Account for the payload marker.
 559:C:/Users/²Ü¼ÒºÀ/.iotlink/sdk/IoT_LINK/iot_link/network/lwm2m/wakaama_lwm2m/wakaama-master/core/er-coap-13\er-coap-13.c ****         length += 1;
 1260              		.loc 1 559 9 is_stmt 1 view .LVU411
 1261              		.loc 1 559 16 is_stmt 0 view .LVU412
 1262 00b0 0130     		adds	r0, r0, #1
 1263              	.LVL127:
 560:C:/Users/²Ü¼ÒºÀ/.iotlink/sdk/IoT_LINK/iot_link/network/lwm2m/wakaama_lwm2m/wakaama-master/core/er-coap-13\er-coap-13.c ****     }
 561:C:/Users/²Ü¼ÒºÀ/.iotlink/sdk/IoT_LINK/iot_link/network/lwm2m/wakaama_lwm2m/wakaama-master/core/er-coap-13\er-coap-13.c **** 
 562:C:/Users/²Ü¼ÒºÀ/.iotlink/sdk/IoT_LINK/iot_link/network/lwm2m/wakaama_lwm2m/wakaama-master/core/er-coap-13\er-coap-13.c ****     return length;
 1264              		.loc 1 562 5 is_stmt 1 view .LVU413
 1265              	.L69:
 563:C:/Users/²Ü¼ÒºÀ/.iotlink/sdk/IoT_LINK/iot_link/network/lwm2m/wakaama_lwm2m/wakaama-master/core/er-coap-13\er-coap-13.c **** }
 1266              		.loc 1 563 1 is_stmt 0 view .LVU414
 1267 00b2 30BD     		pop	{r4, r5, pc}
 1268              	.LVL128:
 1269              	.L78:
 1270              	.LBB45:
 497:C:/Users/²Ü¼ÒºÀ/.iotlink/sdk/IoT_LINK/iot_link/network/lwm2m/wakaama_lwm2m/wakaama-master/core/er-coap-13\er-coap-13.c ****         }
 1271              		.loc 1 497 13 is_stmt 1 discriminator 3 view .LVU415
 497:C:/Users/²Ü¼ÒºÀ/.iotlink/sdk/IoT_LINK/iot_link/network/lwm2m/wakaama_lwm2m/wakaama-master/core/er-coap-13\er-coap-13.c ****         }
 1272              		.loc 1 497 20 is_stmt 0 discriminator 3 view .LVU416
 1273 00b4 4D79     		ldrb	r5, [r1, #5]	@ zero_extendqisi2
 495:C:/Users/²Ü¼ÒºÀ/.iotlink/sdk/IoT_LINK/iot_link/network/lwm2m/wakaama_lwm2m/wakaama-master/core/er-coap-13\er-coap-13.c ****         {
 1274              		.loc 1 495 67 discriminator 3 view .LVU417
 1275 00b6 0968     		ldr	r1, [r1]
 1276              	.LVL129:
 497:C:/Users/²Ü¼ÒºÀ/.iotlink/sdk/IoT_LINK/iot_link/network/lwm2m/wakaama_lwm2m/wakaama-master/core/er-coap-13\er-coap-13.c ****         }
 1277              		.loc 1 497 20 discriminator 3 view .LVU418
 1278 00b8 0535     		adds	r5, r5, #5
 1279 00ba 2844     		add	r0, r0, r5
 1280              	.LVL130:
 495:C:/Users/²Ü¼ÒºÀ/.iotlink/sdk/IoT_LINK/iot_link/network/lwm2m/wakaama_lwm2m/wakaama-master/core/er-coap-13\er-coap-13.c ****         {
 1281              		.loc 1 495 62 is_stmt 1 discriminator 3 view .LVU419
 495:C:/Users/²Ü¼ÒºÀ/.iotlink/sdk/IoT_LINK/iot_link/network/lwm2m/wakaama_lwm2m/wakaama-master/core/er-coap-13\er-coap-13.c ****         {
 1282              		.loc 1 495 62 is_stmt 0 discriminator 3 view .LVU420
 1283 00bc C7E7     		b	.L77
 1284              	.LVL131:
 1285              	.L81:
 495:C:/Users/²Ü¼ÒºÀ/.iotlink/sdk/IoT_LINK/iot_link/network/lwm2m/wakaama_lwm2m/wakaama-master/core/er-coap-13\er-coap-13.c ****         {
 1286              		.loc 1 495 62 discriminator 3 view .LVU421
 1287              	.LBE45:
 1288              	.LBB46:
 506:C:/Users/²Ü¼ÒºÀ/.iotlink/sdk/IoT_LINK/iot_link/network/lwm2m/wakaama_lwm2m/wakaama-master/core/er-coap-13\er-coap-13.c ****         }
 1289              		.loc 1 506 13 is_stmt 1 discriminator 3 view .LVU422
 506:C:/Users/²Ü¼ÒºÀ/.iotlink/sdk/IoT_LINK/iot_link/network/lwm2m/wakaama_lwm2m/wakaama-master/core/er-coap-13\er-coap-13.c ****         }
 1290              		.loc 1 506 20 is_stmt 0 discriminator 3 view .LVU423
 1291 00be 4D79     		ldrb	r5, [r1, #5]	@ zero_extendqisi2
 504:C:/Users/²Ü¼ÒºÀ/.iotlink/sdk/IoT_LINK/iot_link/network/lwm2m/wakaama_lwm2m/wakaama-master/core/er-coap-13\er-coap-13.c ****         {
 1292              		.loc 1 504 62 discriminator 3 view .LVU424
 1293 00c0 0968     		ldr	r1, [r1]
 1294              	.LVL132:
 506:C:/Users/²Ü¼ÒºÀ/.iotlink/sdk/IoT_LINK/iot_link/network/lwm2m/wakaama_lwm2m/wakaama-master/core/er-coap-13\er-coap-13.c ****         }
 1295              		.loc 1 506 20 discriminator 3 view .LVU425
 1296 00c2 0535     		adds	r5, r5, #5
ARM GAS  C:\Users\²Ü¼ÒºÀ\AppData\Local\Temp\cczrlpTg.s 			page 36


 1297 00c4 2844     		add	r0, r0, r5
 1298              	.LVL133:
 504:C:/Users/²Ü¼ÒºÀ/.iotlink/sdk/IoT_LINK/iot_link/network/lwm2m/wakaama_lwm2m/wakaama-master/core/er-coap-13\er-coap-13.c ****         {
 1299              		.loc 1 504 57 is_stmt 1 discriminator 3 view .LVU426
 504:C:/Users/²Ü¼ÒºÀ/.iotlink/sdk/IoT_LINK/iot_link/network/lwm2m/wakaama_lwm2m/wakaama-master/core/er-coap-13\er-coap-13.c ****         {
 1300              		.loc 1 504 57 is_stmt 0 discriminator 3 view .LVU427
 1301 00c6 C7E7     		b	.L80
 1302              	.LVL134:
 1303              	.L86:
 504:C:/Users/²Ü¼ÒºÀ/.iotlink/sdk/IoT_LINK/iot_link/network/lwm2m/wakaama_lwm2m/wakaama-master/core/er-coap-13\er-coap-13.c ****         {
 1304              		.loc 1 504 57 discriminator 3 view .LVU428
 1305              	.LBE46:
 1306              	.LBB47:
 525:C:/Users/²Ü¼ÒºÀ/.iotlink/sdk/IoT_LINK/iot_link/network/lwm2m/wakaama_lwm2m/wakaama-master/core/er-coap-13\er-coap-13.c ****         }
 1307              		.loc 1 525 13 is_stmt 1 discriminator 3 view .LVU429
 525:C:/Users/²Ü¼ÒºÀ/.iotlink/sdk/IoT_LINK/iot_link/network/lwm2m/wakaama_lwm2m/wakaama-master/core/er-coap-13\er-coap-13.c ****         }
 1308              		.loc 1 525 20 is_stmt 0 discriminator 3 view .LVU430
 1309 00c8 5179     		ldrb	r1, [r2, #5]	@ zero_extendqisi2
 523:C:/Users/²Ü¼ÒºÀ/.iotlink/sdk/IoT_LINK/iot_link/network/lwm2m/wakaama_lwm2m/wakaama-master/core/er-coap-13\er-coap-13.c ****         {
 1310              		.loc 1 523 63 discriminator 3 view .LVU431
 1311 00ca 1268     		ldr	r2, [r2]
 1312              	.LVL135:
 525:C:/Users/²Ü¼ÒºÀ/.iotlink/sdk/IoT_LINK/iot_link/network/lwm2m/wakaama_lwm2m/wakaama-master/core/er-coap-13\er-coap-13.c ****         }
 1313              		.loc 1 525 20 discriminator 3 view .LVU432
 1314 00cc 0531     		adds	r1, r1, #5
 1315 00ce 0844     		add	r0, r0, r1
 1316              	.LVL136:
 523:C:/Users/²Ü¼ÒºÀ/.iotlink/sdk/IoT_LINK/iot_link/network/lwm2m/wakaama_lwm2m/wakaama-master/core/er-coap-13\er-coap-13.c ****         {
 1317              		.loc 1 523 58 is_stmt 1 discriminator 3 view .LVU433
 523:C:/Users/²Ü¼ÒºÀ/.iotlink/sdk/IoT_LINK/iot_link/network/lwm2m/wakaama_lwm2m/wakaama-master/core/er-coap-13\er-coap-13.c ****         {
 1318              		.loc 1 523 58 is_stmt 0 discriminator 3 view .LVU434
 1319 00d0 CEE7     		b	.L85
 1320              	.LBE47:
 1321              		.cfi_endproc
 1322              	.LFE19:
 1324              		.section	.text.coap_serialize_message,"ax",%progbits
 1325              		.align	1
 1326              		.global	coap_serialize_message
 1327              		.syntax unified
 1328              		.thumb
 1329              		.thumb_func
 1330              		.fpu fpv4-sp-d16
 1332              	coap_serialize_message:
 1333              	.LVL137:
 1334              	.LFB20:
 564:C:/Users/²Ü¼ÒºÀ/.iotlink/sdk/IoT_LINK/iot_link/network/lwm2m/wakaama_lwm2m/wakaama-master/core/er-coap-13\er-coap-13.c **** 
 565:C:/Users/²Ü¼ÒºÀ/.iotlink/sdk/IoT_LINK/iot_link/network/lwm2m/wakaama_lwm2m/wakaama-master/core/er-coap-13\er-coap-13.c **** /*-----------------------------------------------------------------------------------*/
 566:C:/Users/²Ü¼ÒºÀ/.iotlink/sdk/IoT_LINK/iot_link/network/lwm2m/wakaama_lwm2m/wakaama-master/core/er-coap-13\er-coap-13.c **** size_t
 567:C:/Users/²Ü¼ÒºÀ/.iotlink/sdk/IoT_LINK/iot_link/network/lwm2m/wakaama_lwm2m/wakaama-master/core/er-coap-13\er-coap-13.c **** coap_serialize_message(void *packet, uint8_t *buffer)
 568:C:/Users/²Ü¼ÒºÀ/.iotlink/sdk/IoT_LINK/iot_link/network/lwm2m/wakaama_lwm2m/wakaama-master/core/er-coap-13\er-coap-13.c **** {
 1335              		.loc 1 568 1 is_stmt 1 view -0
 1336              		.cfi_startproc
 1337              		@ args = 0, pretend = 0, frame = 8
 1338              		@ frame_needed = 0, uses_anonymous_args = 0
 569:C:/Users/²Ü¼ÒºÀ/.iotlink/sdk/IoT_LINK/iot_link/network/lwm2m/wakaama_lwm2m/wakaama-master/core/er-coap-13\er-coap-13.c ****     coap_packet_t *const coap_pkt = (coap_packet_t *) packet;
 1339              		.loc 1 569 5 view .LVU436
 570:C:/Users/²Ü¼ÒºÀ/.iotlink/sdk/IoT_LINK/iot_link/network/lwm2m/wakaama_lwm2m/wakaama-master/core/er-coap-13\er-coap-13.c ****     uint8_t *option;
ARM GAS  C:\Users\²Ü¼ÒºÀ\AppData\Local\Temp\cczrlpTg.s 			page 37


 1340              		.loc 1 570 5 view .LVU437
 571:C:/Users/²Ü¼ÒºÀ/.iotlink/sdk/IoT_LINK/iot_link/network/lwm2m/wakaama_lwm2m/wakaama-master/core/er-coap-13\er-coap-13.c ****     unsigned int current_number = 0;
 1341              		.loc 1 571 5 view .LVU438
 572:C:/Users/²Ü¼ÒºÀ/.iotlink/sdk/IoT_LINK/iot_link/network/lwm2m/wakaama_lwm2m/wakaama-master/core/er-coap-13\er-coap-13.c **** 
 573:C:/Users/²Ü¼ÒºÀ/.iotlink/sdk/IoT_LINK/iot_link/network/lwm2m/wakaama_lwm2m/wakaama-master/core/er-coap-13\er-coap-13.c ****     /* Initialize */
 574:C:/Users/²Ü¼ÒºÀ/.iotlink/sdk/IoT_LINK/iot_link/network/lwm2m/wakaama_lwm2m/wakaama-master/core/er-coap-13\er-coap-13.c ****     coap_pkt->buffer = buffer;
 1342              		.loc 1 574 5 view .LVU439
 568:C:/Users/²Ü¼ÒºÀ/.iotlink/sdk/IoT_LINK/iot_link/network/lwm2m/wakaama_lwm2m/wakaama-master/core/er-coap-13\er-coap-13.c ****     coap_packet_t *const coap_pkt = (coap_packet_t *) packet;
 1343              		.loc 1 568 1 is_stmt 0 view .LVU440
 1344 0000 2DE9F04F 		push	{r4, r5, r6, r7, r8, r9, r10, fp, lr}
 1345              	.LCFI14:
 1346              		.cfi_def_cfa_offset 36
 1347              		.cfi_offset 4, -36
 1348              		.cfi_offset 5, -32
 1349              		.cfi_offset 6, -28
 1350              		.cfi_offset 7, -24
 1351              		.cfi_offset 8, -20
 1352              		.cfi_offset 9, -16
 1353              		.cfi_offset 10, -12
 1354              		.cfi_offset 11, -8
 1355              		.cfi_offset 14, -4
 575:C:/Users/²Ü¼ÒºÀ/.iotlink/sdk/IoT_LINK/iot_link/network/lwm2m/wakaama_lwm2m/wakaama-master/core/er-coap-13\er-coap-13.c ****     coap_pkt->version = 1;
 1356              		.loc 1 575 23 view .LVU441
 1357 0004 0123     		movs	r3, #1
 1358 0006 0371     		strb	r3, [r0, #4]
 576:C:/Users/²Ü¼ÒºÀ/.iotlink/sdk/IoT_LINK/iot_link/network/lwm2m/wakaama_lwm2m/wakaama-master/core/er-coap-13\er-coap-13.c **** 
 577:C:/Users/²Ü¼ÒºÀ/.iotlink/sdk/IoT_LINK/iot_link/network/lwm2m/wakaama_lwm2m/wakaama-master/core/er-coap-13\er-coap-13.c ****     PRINTF("-Serializing MID %u to %p, ", coap_pkt->mid, coap_pkt->buffer);
 578:C:/Users/²Ü¼ÒºÀ/.iotlink/sdk/IoT_LINK/iot_link/network/lwm2m/wakaama_lwm2m/wakaama-master/core/er-coap-13\er-coap-13.c **** 
 579:C:/Users/²Ü¼ÒºÀ/.iotlink/sdk/IoT_LINK/iot_link/network/lwm2m/wakaama_lwm2m/wakaama-master/core/er-coap-13\er-coap-13.c ****     /* set header fields */
 580:C:/Users/²Ü¼ÒºÀ/.iotlink/sdk/IoT_LINK/iot_link/network/lwm2m/wakaama_lwm2m/wakaama-master/core/er-coap-13\er-coap-13.c ****     coap_pkt->buffer[0]  = 0x00;
 1359              		.loc 1 580 26 view .LVU442
 1360 0008 0023     		movs	r3, #0
 574:C:/Users/²Ü¼ÒºÀ/.iotlink/sdk/IoT_LINK/iot_link/network/lwm2m/wakaama_lwm2m/wakaama-master/core/er-coap-13\er-coap-13.c ****     coap_pkt->version = 1;
 1361              		.loc 1 574 22 view .LVU443
 1362 000a 0160     		str	r1, [r0]
 575:C:/Users/²Ü¼ÒºÀ/.iotlink/sdk/IoT_LINK/iot_link/network/lwm2m/wakaama_lwm2m/wakaama-master/core/er-coap-13\er-coap-13.c ****     coap_pkt->version = 1;
 1363              		.loc 1 575 5 is_stmt 1 view .LVU444
 577:C:/Users/²Ü¼ÒºÀ/.iotlink/sdk/IoT_LINK/iot_link/network/lwm2m/wakaama_lwm2m/wakaama-master/core/er-coap-13\er-coap-13.c **** 
 1364              		.loc 1 577 75 view .LVU445
 1365              		.loc 1 580 5 view .LVU446
 1366              		.loc 1 580 26 is_stmt 0 view .LVU447
 1367 000c 0B70     		strb	r3, [r1]
 581:C:/Users/²Ü¼ÒºÀ/.iotlink/sdk/IoT_LINK/iot_link/network/lwm2m/wakaama_lwm2m/wakaama-master/core/er-coap-13\er-coap-13.c ****     coap_pkt->buffer[0] |= COAP_HEADER_VERSION_MASK & (coap_pkt->version) << COAP_HEADER_VERSION_PO
 1368              		.loc 1 581 5 is_stmt 1 view .LVU448
 1369              		.loc 1 581 13 is_stmt 0 view .LVU449
 1370 000e 0268     		ldr	r2, [r0]
 568:C:/Users/²Ü¼ÒºÀ/.iotlink/sdk/IoT_LINK/iot_link/network/lwm2m/wakaama_lwm2m/wakaama-master/core/er-coap-13\er-coap-13.c ****     coap_packet_t *const coap_pkt = (coap_packet_t *) packet;
 1371              		.loc 1 568 1 view .LVU450
 1372 0010 0F46     		mov	r7, r1
 1373              		.loc 1 581 25 view .LVU451
 1374 0012 1378     		ldrb	r3, [r2]	@ zero_extendqisi2
 1375              		.loc 1 581 64 view .LVU452
 1376 0014 0179     		ldrb	r1, [r0, #4]	@ zero_extendqisi2
 1377              	.LVL138:
 1378              		.loc 1 581 25 view .LVU453
 1379 0016 43EA8113 		orr	r3, r3, r1, lsl #6
 1380 001a 1370     		strb	r3, [r2]
ARM GAS  C:\Users\²Ü¼ÒºÀ\AppData\Local\Temp\cczrlpTg.s 			page 38


 582:C:/Users/²Ü¼ÒºÀ/.iotlink/sdk/IoT_LINK/iot_link/network/lwm2m/wakaama_lwm2m/wakaama-master/core/er-coap-13\er-coap-13.c ****     coap_pkt->buffer[0] |= COAP_HEADER_TYPE_MASK & (coap_pkt->type) << COAP_HEADER_TYPE_POSITION;
 1381              		.loc 1 582 5 is_stmt 1 view .LVU454
 1382              		.loc 1 582 13 is_stmt 0 view .LVU455
 1383 001c 0268     		ldr	r2, [r0]
 1384              		.loc 1 582 61 view .LVU456
 1385 001e 4379     		ldrb	r3, [r0, #5]	@ zero_extendqisi2
 1386              		.loc 1 582 25 view .LVU457
 1387 0020 1178     		ldrb	r1, [r2]	@ zero_extendqisi2
 1388              		.loc 1 582 69 view .LVU458
 1389 0022 1B01     		lsls	r3, r3, #4
 1390              		.loc 1 582 50 view .LVU459
 1391 0024 03F03003 		and	r3, r3, #48
 1392              		.loc 1 582 25 view .LVU460
 1393 0028 0B43     		orrs	r3, r3, r1
 1394 002a 1370     		strb	r3, [r2]
 583:C:/Users/²Ü¼ÒºÀ/.iotlink/sdk/IoT_LINK/iot_link/network/lwm2m/wakaama_lwm2m/wakaama-master/core/er-coap-13\er-coap-13.c ****     coap_pkt->buffer[0] |= COAP_HEADER_TOKEN_LEN_MASK & (coap_pkt->token_len) << COAP_HEADER_TOKEN_
 1395              		.loc 1 583 5 is_stmt 1 view .LVU461
 1396              		.loc 1 583 13 is_stmt 0 view .LVU462
 1397 002c 0268     		ldr	r2, [r0]
 1398              		.loc 1 583 55 view .LVU463
 1399 002e 90F84C30 		ldrb	r3, [r0, #76]	@ zero_extendqisi2
 1400              		.loc 1 583 25 view .LVU464
 1401 0032 1178     		ldrb	r1, [r2]	@ zero_extendqisi2
 1402              		.loc 1 583 55 view .LVU465
 1403 0034 03F00F03 		and	r3, r3, #15
 1404              		.loc 1 583 25 view .LVU466
 1405 0038 0B43     		orrs	r3, r3, r1
 1406 003a 1370     		strb	r3, [r2]
 584:C:/Users/²Ü¼ÒºÀ/.iotlink/sdk/IoT_LINK/iot_link/network/lwm2m/wakaama_lwm2m/wakaama-master/core/er-coap-13\er-coap-13.c ****     coap_pkt->buffer[1] = coap_pkt->code;
 1407              		.loc 1 584 5 is_stmt 1 view .LVU467
 1408              		.loc 1 584 13 is_stmt 0 view .LVU468
 1409 003c 0368     		ldr	r3, [r0]
 1410              		.loc 1 584 35 view .LVU469
 1411 003e 8279     		ldrb	r2, [r0, #6]	@ zero_extendqisi2
 1412              		.loc 1 584 25 view .LVU470
 1413 0040 5A70     		strb	r2, [r3, #1]
 585:C:/Users/²Ü¼ÒºÀ/.iotlink/sdk/IoT_LINK/iot_link/network/lwm2m/wakaama_lwm2m/wakaama-master/core/er-coap-13\er-coap-13.c ****     coap_pkt->buffer[2] = (uint8_t) ((coap_pkt->mid) >> 8);
 1414              		.loc 1 585 5 is_stmt 1 view .LVU471
 1415              		.loc 1 585 27 is_stmt 0 view .LVU472
 1416 0042 0389     		ldrh	r3, [r0, #8]
 1417              		.loc 1 585 13 view .LVU473
 1418 0044 0268     		ldr	r2, [r0]
 1419              		.loc 1 585 27 view .LVU474
 1420 0046 1B0A     		lsrs	r3, r3, #8
 1421 0048 9370     		strb	r3, [r2, #2]
 586:C:/Users/²Ü¼ÒºÀ/.iotlink/sdk/IoT_LINK/iot_link/network/lwm2m/wakaama_lwm2m/wakaama-master/core/er-coap-13\er-coap-13.c ****     coap_pkt->buffer[3] = (uint8_t) (coap_pkt->mid);
 1422              		.loc 1 586 5 is_stmt 1 view .LVU475
 1423              		.loc 1 586 13 is_stmt 0 view .LVU476
 1424 004a 0368     		ldr	r3, [r0]
 1425              		.loc 1 586 27 view .LVU477
 1426 004c 0289     		ldrh	r2, [r0, #8]
 1427 004e DA70     		strb	r2, [r3, #3]
 587:C:/Users/²Ü¼ÒºÀ/.iotlink/sdk/IoT_LINK/iot_link/network/lwm2m/wakaama_lwm2m/wakaama-master/core/er-coap-13\er-coap-13.c **** 
 588:C:/Users/²Ü¼ÒºÀ/.iotlink/sdk/IoT_LINK/iot_link/network/lwm2m/wakaama_lwm2m/wakaama-master/core/er-coap-13\er-coap-13.c ****     /* set Token */
 589:C:/Users/²Ü¼ÒºÀ/.iotlink/sdk/IoT_LINK/iot_link/network/lwm2m/wakaama_lwm2m/wakaama-master/core/er-coap-13\er-coap-13.c ****     PRINTF("Token (len %u)", coap_pkt->token_len);
 1428              		.loc 1 589 50 is_stmt 1 view .LVU478
 590:C:/Users/²Ü¼ÒºÀ/.iotlink/sdk/IoT_LINK/iot_link/network/lwm2m/wakaama_lwm2m/wakaama-master/core/er-coap-13\er-coap-13.c ****     option = coap_pkt->buffer + COAP_HEADER_LEN;
ARM GAS  C:\Users\²Ü¼ÒºÀ\AppData\Local\Temp\cczrlpTg.s 			page 39


 1429              		.loc 1 590 5 view .LVU479
 1430              		.loc 1 590 22 is_stmt 0 view .LVU480
 1431 0050 0246     		mov	r2, r0
 568:C:/Users/²Ü¼ÒºÀ/.iotlink/sdk/IoT_LINK/iot_link/network/lwm2m/wakaama_lwm2m/wakaama-master/core/er-coap-13\er-coap-13.c ****     coap_packet_t *const coap_pkt = (coap_packet_t *) packet;
 1432              		.loc 1 568 1 view .LVU481
 1433 0052 85B0     		sub	sp, sp, #20
 1434              	.LCFI15:
 1435              		.cfi_def_cfa_offset 56
 1436              		.loc 1 590 22 view .LVU482
 1437 0054 52F84D3B 		ldr	r3, [r2], #77
 1438              		.loc 1 590 12 view .LVU483
 1439 0058 1D1D     		adds	r5, r3, #4
 1440              	.LVL139:
 591:C:/Users/²Ü¼ÒºÀ/.iotlink/sdk/IoT_LINK/iot_link/network/lwm2m/wakaama_lwm2m/wakaama-master/core/er-coap-13\er-coap-13.c ****     for (current_number = 0; current_number < coap_pkt->token_len; ++current_number)
 1441              		.loc 1 591 5 is_stmt 1 view .LVU484
 1442              		.loc 1 591 5 is_stmt 0 view .LVU485
 1443 005a C3F1FF23 		rsb	r3, r3, #-16711936
 1444 005e 03F57F03 		add	r3, r3, #16711680
 568:C:/Users/²Ü¼ÒºÀ/.iotlink/sdk/IoT_LINK/iot_link/network/lwm2m/wakaama_lwm2m/wakaama-master/core/er-coap-13\er-coap-13.c ****     coap_packet_t *const coap_pkt = (coap_packet_t *) packet;
 1445              		.loc 1 568 1 view .LVU486
 1446 0062 0446     		mov	r4, r0
 1447              		.loc 1 591 5 view .LVU487
 1448 0064 FC33     		adds	r3, r3, #252
 1449              	.LVL140:
 1450              	.L140:
 1451              		.loc 1 591 30 is_stmt 1 discriminator 1 view .LVU488
 1452              		.loc 1 591 55 is_stmt 0 discriminator 1 view .LVU489
 1453 0066 94F84C00 		ldrb	r0, [r4, #76]	@ zero_extendqisi2
 1454              		.loc 1 591 5 discriminator 1 view .LVU490
 1455 006a E918     		adds	r1, r5, r3
 1456 006c 8842     		cmp	r0, r1
 1457 006e 00F23081 		bhi	.L141
 592:C:/Users/²Ü¼ÒºÀ/.iotlink/sdk/IoT_LINK/iot_link/network/lwm2m/wakaama_lwm2m/wakaama-master/core/er-coap-13\er-coap-13.c ****     {
 593:C:/Users/²Ü¼ÒºÀ/.iotlink/sdk/IoT_LINK/iot_link/network/lwm2m/wakaama_lwm2m/wakaama-master/core/er-coap-13\er-coap-13.c ****         PRINTF(" %02X", coap_pkt->token[current_number]);
 594:C:/Users/²Ü¼ÒºÀ/.iotlink/sdk/IoT_LINK/iot_link/network/lwm2m/wakaama_lwm2m/wakaama-master/core/er-coap-13\er-coap-13.c ****         *option = coap_pkt->token[current_number];
 595:C:/Users/²Ü¼ÒºÀ/.iotlink/sdk/IoT_LINK/iot_link/network/lwm2m/wakaama_lwm2m/wakaama-master/core/er-coap-13\er-coap-13.c ****         ++option;
 596:C:/Users/²Ü¼ÒºÀ/.iotlink/sdk/IoT_LINK/iot_link/network/lwm2m/wakaama_lwm2m/wakaama-master/core/er-coap-13\er-coap-13.c ****     }
 597:C:/Users/²Ü¼ÒºÀ/.iotlink/sdk/IoT_LINK/iot_link/network/lwm2m/wakaama_lwm2m/wakaama-master/core/er-coap-13\er-coap-13.c ****     PRINTF("-\n");
 1458              		.loc 1 597 18 is_stmt 1 view .LVU491
 598:C:/Users/²Ü¼ÒºÀ/.iotlink/sdk/IoT_LINK/iot_link/network/lwm2m/wakaama_lwm2m/wakaama-master/core/er-coap-13\er-coap-13.c **** 
 599:C:/Users/²Ü¼ÒºÀ/.iotlink/sdk/IoT_LINK/iot_link/network/lwm2m/wakaama_lwm2m/wakaama-master/core/er-coap-13\er-coap-13.c ****     /* Serialize options */
 600:C:/Users/²Ü¼ÒºÀ/.iotlink/sdk/IoT_LINK/iot_link/network/lwm2m/wakaama_lwm2m/wakaama-master/core/er-coap-13\er-coap-13.c ****     current_number = 0;
 1459              		.loc 1 600 5 view .LVU492
 1460              	.LVL141:
 601:C:/Users/²Ü¼ÒºÀ/.iotlink/sdk/IoT_LINK/iot_link/network/lwm2m/wakaama_lwm2m/wakaama-master/core/er-coap-13\er-coap-13.c **** 
 602:C:/Users/²Ü¼ÒºÀ/.iotlink/sdk/IoT_LINK/iot_link/network/lwm2m/wakaama_lwm2m/wakaama-master/core/er-coap-13\er-coap-13.c ****     PRINTF("-Serializing options at %p-\n", option);
 1461              		.loc 1 602 52 view .LVU493
 603:C:/Users/²Ü¼ÒºÀ/.iotlink/sdk/IoT_LINK/iot_link/network/lwm2m/wakaama_lwm2m/wakaama-master/core/er-coap-13\er-coap-13.c **** 
 604:C:/Users/²Ü¼ÒºÀ/.iotlink/sdk/IoT_LINK/iot_link/network/lwm2m/wakaama_lwm2m/wakaama-master/core/er-coap-13\er-coap-13.c ****     /* The options must be serialized in the order of their number */
 605:C:/Users/²Ü¼ÒºÀ/.iotlink/sdk/IoT_LINK/iot_link/network/lwm2m/wakaama_lwm2m/wakaama-master/core/er-coap-13\er-coap-13.c ****     COAP_SERIALIZE_BYTE_OPTION(   COAP_OPTION_IF_MATCH,       if_match, "If-Match")
 1462              		.loc 1 605 5 view .LVU494
 1463 0072 A07A     		ldrb	r0, [r4, #10]	@ zero_extendqisi2
 1464 0074 10F00200 		ands	r0, r0, #2
 1465 0078 0BD0     		beq	.L142
 1466              		.loc 1 605 5 discriminator 1 view .LVU495
 1467              		.loc 1 605 5 discriminator 1 view .LVU496
 1468              	.LVL142:
ARM GAS  C:\Users\²Ü¼ÒºÀ\AppData\Local\Temp\cczrlpTg.s 			page 40


 1469              	.LBB66:
 1470              	.LBI66:
 208:C:/Users/²Ü¼ÒºÀ/.iotlink/sdk/IoT_LINK/iot_link/network/lwm2m/wakaama_lwm2m/wakaama-master/core/er-coap-13\er-coap-13.c **** {
 1471              		.loc 1 208 1 discriminator 1 view .LVU497
 1472              	.LBB67:
 210:C:/Users/²Ü¼ÒºÀ/.iotlink/sdk/IoT_LINK/iot_link/network/lwm2m/wakaama_lwm2m/wakaama-master/core/er-coap-13\er-coap-13.c **** 
 1473              		.loc 1 210 5 discriminator 1 view .LVU498
 212:C:/Users/²Ü¼ÒºÀ/.iotlink/sdk/IoT_LINK/iot_link/network/lwm2m/wakaama_lwm2m/wakaama-master/core/er-coap-13\er-coap-13.c ****     {
 1474              		.loc 1 212 5 discriminator 1 view .LVU499
 1475              	.LBE67:
 1476              	.LBE66:
 1477              		.loc 1 605 5 is_stmt 0 discriminator 1 view .LVU500
 1478 007a 94F85A30 		ldrb	r3, [r4, #90]	@ zero_extendqisi2
 1479              	.LVL143:
 1480              		.loc 1 605 5 discriminator 1 view .LVU501
 1481 007e 0093     		str	r3, [sp]
 1482              	.LBB69:
 1483              	.LBB68:
 1484 0080 2A46     		mov	r2, r5
 1485 0082 04F15B03 		add	r3, r4, #91
 1486              	.LVL144:
 1487              		.loc 1 605 5 discriminator 1 view .LVU502
 1488 0086 0021     		movs	r1, #0
 1489 0088 0120     		movs	r0, #1
 1490 008a FFF7FEFF 		bl	coap_serialize_array_option.part.0
 1491              	.LVL145:
 244:C:/Users/²Ü¼ÒºÀ/.iotlink/sdk/IoT_LINK/iot_link/network/lwm2m/wakaama_lwm2m/wakaama-master/core/er-coap-13\er-coap-13.c ****     }
 1492              		.loc 1 244 94 is_stmt 1 discriminator 1 view .LVU503
 247:C:/Users/²Ü¼ÒºÀ/.iotlink/sdk/IoT_LINK/iot_link/network/lwm2m/wakaama_lwm2m/wakaama-master/core/er-coap-13\er-coap-13.c **** }
 1493              		.loc 1 247 5 discriminator 1 view .LVU504
 247:C:/Users/²Ü¼ÒºÀ/.iotlink/sdk/IoT_LINK/iot_link/network/lwm2m/wakaama_lwm2m/wakaama-master/core/er-coap-13\er-coap-13.c **** }
 1494              		.loc 1 247 5 is_stmt 0 discriminator 1 view .LVU505
 1495              	.LBE68:
 1496              	.LBE69:
 1497              		.loc 1 605 5 discriminator 1 view .LVU506
 1498 008e 0544     		add	r5, r5, r0
 1499              	.LVL146:
 1500              		.loc 1 605 5 is_stmt 1 discriminator 1 view .LVU507
 1501              		.loc 1 605 5 is_stmt 0 discriminator 1 view .LVU508
 1502 0090 0120     		movs	r0, #1
 1503              	.LVL147:
 1504              	.L142:
 606:C:/Users/²Ü¼ÒºÀ/.iotlink/sdk/IoT_LINK/iot_link/network/lwm2m/wakaama_lwm2m/wakaama-master/core/er-coap-13\er-coap-13.c ****     COAP_SERIALIZE_STRING_OPTION( COAP_OPTION_URI_HOST,       uri_host, '\0', "Uri-Host")
 1505              		.loc 1 606 5 is_stmt 1 view .LVU509
 1506 0092 A37A     		ldrb	r3, [r4, #10]	@ zero_extendqisi2
 1507 0094 1B07     		lsls	r3, r3, #28
 1508 0096 09D5     		bpl	.L143
 1509              		.loc 1 606 5 discriminator 1 view .LVU510
 1510              		.loc 1 606 5 discriminator 1 view .LVU511
 1511              	.LVL148:
 1512              	.LBB70:
 1513              	.LBI70:
 208:C:/Users/²Ü¼ÒºÀ/.iotlink/sdk/IoT_LINK/iot_link/network/lwm2m/wakaama_lwm2m/wakaama-master/core/er-coap-13\er-coap-13.c **** {
 1514              		.loc 1 208 1 discriminator 1 view .LVU512
 1515              	.LBB71:
 210:C:/Users/²Ü¼ÒºÀ/.iotlink/sdk/IoT_LINK/iot_link/network/lwm2m/wakaama_lwm2m/wakaama-master/core/er-coap-13\er-coap-13.c **** 
 1516              		.loc 1 210 5 discriminator 1 view .LVU513
ARM GAS  C:\Users\²Ü¼ÒºÀ\AppData\Local\Temp\cczrlpTg.s 			page 41


 212:C:/Users/²Ü¼ÒºÀ/.iotlink/sdk/IoT_LINK/iot_link/network/lwm2m/wakaama_lwm2m/wakaama-master/core/er-coap-13\er-coap-13.c ****     {
 1517              		.loc 1 212 5 discriminator 1 view .LVU514
 1518 0098 E36A     		ldr	r3, [r4, #44]
 1519 009a 0093     		str	r3, [sp]
 1520              	.LVL149:
 212:C:/Users/²Ü¼ÒºÀ/.iotlink/sdk/IoT_LINK/iot_link/network/lwm2m/wakaama_lwm2m/wakaama-master/core/er-coap-13\er-coap-13.c ****     {
 1521              		.loc 1 212 5 is_stmt 0 discriminator 1 view .LVU515
 1522 009c 2A46     		mov	r2, r5
 1523 009e 0146     		mov	r1, r0
 1524 00a0 236B     		ldr	r3, [r4, #48]
 1525              	.LVL150:
 212:C:/Users/²Ü¼ÒºÀ/.iotlink/sdk/IoT_LINK/iot_link/network/lwm2m/wakaama_lwm2m/wakaama-master/core/er-coap-13\er-coap-13.c ****     {
 1526              		.loc 1 212 5 discriminator 1 view .LVU516
 1527 00a2 0320     		movs	r0, #3
 1528              	.LVL151:
 212:C:/Users/²Ü¼ÒºÀ/.iotlink/sdk/IoT_LINK/iot_link/network/lwm2m/wakaama_lwm2m/wakaama-master/core/er-coap-13\er-coap-13.c ****     {
 1529              		.loc 1 212 5 discriminator 1 view .LVU517
 1530 00a4 FFF7FEFF 		bl	coap_serialize_array_option.part.0
 1531              	.LVL152:
 244:C:/Users/²Ü¼ÒºÀ/.iotlink/sdk/IoT_LINK/iot_link/network/lwm2m/wakaama_lwm2m/wakaama-master/core/er-coap-13\er-coap-13.c ****     }
 1532              		.loc 1 244 94 is_stmt 1 discriminator 1 view .LVU518
 247:C:/Users/²Ü¼ÒºÀ/.iotlink/sdk/IoT_LINK/iot_link/network/lwm2m/wakaama_lwm2m/wakaama-master/core/er-coap-13\er-coap-13.c **** }
 1533              		.loc 1 247 5 discriminator 1 view .LVU519
 247:C:/Users/²Ü¼ÒºÀ/.iotlink/sdk/IoT_LINK/iot_link/network/lwm2m/wakaama_lwm2m/wakaama-master/core/er-coap-13\er-coap-13.c **** }
 1534              		.loc 1 247 5 is_stmt 0 discriminator 1 view .LVU520
 1535              	.LBE71:
 1536              	.LBE70:
 1537              		.loc 1 606 5 discriminator 1 view .LVU521
 1538 00a8 0544     		add	r5, r5, r0
 1539              	.LVL153:
 1540              		.loc 1 606 5 is_stmt 1 discriminator 1 view .LVU522
 1541              		.loc 1 606 5 is_stmt 0 discriminator 1 view .LVU523
 1542 00aa 0320     		movs	r0, #3
 1543              	.LVL154:
 1544              	.L143:
 607:C:/Users/²Ü¼ÒºÀ/.iotlink/sdk/IoT_LINK/iot_link/network/lwm2m/wakaama_lwm2m/wakaama-master/core/er-coap-13\er-coap-13.c ****     COAP_SERIALIZE_BYTE_OPTION(   COAP_OPTION_ETAG,           etag, "ETag")
 1545              		.loc 1 607 5 is_stmt 1 view .LVU524
 1546 00ac A37A     		ldrb	r3, [r4, #10]	@ zero_extendqisi2
 1547 00ae DE06     		lsls	r6, r3, #27
 1548 00b0 0BD5     		bpl	.L144
 1549              		.loc 1 607 5 discriminator 1 view .LVU525
 1550              		.loc 1 607 5 discriminator 1 view .LVU526
 1551              	.LVL155:
 1552              	.LBB72:
 1553              	.LBI72:
 208:C:/Users/²Ü¼ÒºÀ/.iotlink/sdk/IoT_LINK/iot_link/network/lwm2m/wakaama_lwm2m/wakaama-master/core/er-coap-13\er-coap-13.c **** {
 1554              		.loc 1 208 1 discriminator 1 view .LVU527
 1555              	.LBB73:
 210:C:/Users/²Ü¼ÒºÀ/.iotlink/sdk/IoT_LINK/iot_link/network/lwm2m/wakaama_lwm2m/wakaama-master/core/er-coap-13\er-coap-13.c **** 
 1556              		.loc 1 210 5 discriminator 1 view .LVU528
 212:C:/Users/²Ü¼ÒºÀ/.iotlink/sdk/IoT_LINK/iot_link/network/lwm2m/wakaama_lwm2m/wakaama-master/core/er-coap-13\er-coap-13.c ****     {
 1557              		.loc 1 212 5 discriminator 1 view .LVU529
 1558              	.LBE73:
 1559              	.LBE72:
 1560              		.loc 1 607 5 is_stmt 0 discriminator 1 view .LVU530
 1561 00b2 94F82030 		ldrb	r3, [r4, #32]	@ zero_extendqisi2
 1562              	.LVL156:
ARM GAS  C:\Users\²Ü¼ÒºÀ\AppData\Local\Temp\cczrlpTg.s 			page 42


 1563              		.loc 1 607 5 discriminator 1 view .LVU531
 1564 00b6 0093     		str	r3, [sp]
 1565              	.LBB75:
 1566              	.LBB74:
 1567 00b8 2A46     		mov	r2, r5
 1568 00ba 0146     		mov	r1, r0
 1569 00bc 04F12103 		add	r3, r4, #33
 1570              	.LVL157:
 1571              		.loc 1 607 5 discriminator 1 view .LVU532
 1572 00c0 0420     		movs	r0, #4
 1573              	.LVL158:
 1574              		.loc 1 607 5 discriminator 1 view .LVU533
 1575 00c2 FFF7FEFF 		bl	coap_serialize_array_option.part.0
 1576              	.LVL159:
 244:C:/Users/²Ü¼ÒºÀ/.iotlink/sdk/IoT_LINK/iot_link/network/lwm2m/wakaama_lwm2m/wakaama-master/core/er-coap-13\er-coap-13.c ****     }
 1577              		.loc 1 244 94 is_stmt 1 discriminator 1 view .LVU534
 247:C:/Users/²Ü¼ÒºÀ/.iotlink/sdk/IoT_LINK/iot_link/network/lwm2m/wakaama_lwm2m/wakaama-master/core/er-coap-13\er-coap-13.c **** }
 1578              		.loc 1 247 5 discriminator 1 view .LVU535
 247:C:/Users/²Ü¼ÒºÀ/.iotlink/sdk/IoT_LINK/iot_link/network/lwm2m/wakaama_lwm2m/wakaama-master/core/er-coap-13\er-coap-13.c **** }
 1579              		.loc 1 247 5 is_stmt 0 discriminator 1 view .LVU536
 1580              	.LBE74:
 1581              	.LBE75:
 1582              		.loc 1 607 5 discriminator 1 view .LVU537
 1583 00c6 0544     		add	r5, r5, r0
 1584              	.LVL160:
 1585              		.loc 1 607 5 is_stmt 1 discriminator 1 view .LVU538
 1586              		.loc 1 607 5 is_stmt 0 discriminator 1 view .LVU539
 1587 00c8 0420     		movs	r0, #4
 1588              	.LVL161:
 1589              	.L144:
 608:C:/Users/²Ü¼ÒºÀ/.iotlink/sdk/IoT_LINK/iot_link/network/lwm2m/wakaama_lwm2m/wakaama-master/core/er-coap-13\er-coap-13.c ****     COAP_SERIALIZE_INT_OPTION(    COAP_OPTION_IF_NONE_MATCH,  content_type - coap_pkt->content_type
 1590              		.loc 1 608 5 is_stmt 1 view .LVU540
 1591 00ca A37A     		ldrb	r3, [r4, #10]	@ zero_extendqisi2
 1592 00cc 9906     		lsls	r1, r3, #26
 1593 00ce 07D5     		bpl	.L145
 1594              		.loc 1 608 5 discriminator 1 view .LVU541
 1595              		.loc 1 608 5 discriminator 1 view .LVU542
 1596 00d0 2A46     		mov	r2, r5
 1597 00d2 0146     		mov	r1, r0
 1598 00d4 0023     		movs	r3, #0
 1599 00d6 0520     		movs	r0, #5
 1600              	.LVL162:
 1601              		.loc 1 608 5 is_stmt 0 discriminator 1 view .LVU543
 1602 00d8 FFF7FEFF 		bl	coap_serialize_int_option
 1603              	.LVL163:
 1604              		.loc 1 608 5 discriminator 1 view .LVU544
 1605 00dc 0544     		add	r5, r5, r0
 1606              	.LVL164:
 1607              		.loc 1 608 5 is_stmt 1 discriminator 1 view .LVU545
 1608              		.loc 1 608 5 is_stmt 0 discriminator 1 view .LVU546
 1609 00de 0520     		movs	r0, #5
 1610              	.LVL165:
 1611              	.L145:
 609:C:/Users/²Ü¼ÒºÀ/.iotlink/sdk/IoT_LINK/iot_link/network/lwm2m/wakaama_lwm2m/wakaama-master/core/er-coap-13\er-coap-13.c ****     COAP_SERIALIZE_INT_OPTION(    COAP_OPTION_OBSERVE,        observe, "Observe")
 1612              		.loc 1 609 5 is_stmt 1 view .LVU547
 1613 00e0 A37A     		ldrb	r3, [r4, #10]	@ zero_extendqisi2
 1614 00e2 5A06     		lsls	r2, r3, #25
ARM GAS  C:\Users\²Ü¼ÒºÀ\AppData\Local\Temp\cczrlpTg.s 			page 43


 1615 00e4 07D5     		bpl	.L146
 1616              		.loc 1 609 5 discriminator 1 view .LVU548
 1617              		.loc 1 609 5 discriminator 1 view .LVU549
 1618 00e6 2A46     		mov	r2, r5
 1619 00e8 0146     		mov	r1, r0
 1620 00ea A36C     		ldr	r3, [r4, #72]
 1621 00ec 0620     		movs	r0, #6
 1622              	.LVL166:
 1623              		.loc 1 609 5 is_stmt 0 discriminator 1 view .LVU550
 1624 00ee FFF7FEFF 		bl	coap_serialize_int_option
 1625              	.LVL167:
 1626              		.loc 1 609 5 discriminator 1 view .LVU551
 1627 00f2 0544     		add	r5, r5, r0
 1628              	.LVL168:
 1629              		.loc 1 609 5 is_stmt 1 discriminator 1 view .LVU552
 1630              		.loc 1 609 5 is_stmt 0 discriminator 1 view .LVU553
 1631 00f4 0620     		movs	r0, #6
 1632              	.LVL169:
 1633              	.L146:
 610:C:/Users/²Ü¼ÒºÀ/.iotlink/sdk/IoT_LINK/iot_link/network/lwm2m/wakaama_lwm2m/wakaama-master/core/er-coap-13\er-coap-13.c ****     COAP_SERIALIZE_INT_OPTION(    COAP_OPTION_URI_PORT,       uri_port, "Uri-Port")
 1634              		.loc 1 610 5 is_stmt 1 view .LVU554
 1635 00f6 94F90A30 		ldrsb	r3, [r4, #10]
 1636 00fa 002B     		cmp	r3, #0
 1637 00fc 07DA     		bge	.L147
 1638              		.loc 1 610 5 discriminator 1 view .LVU555
 1639              		.loc 1 610 5 discriminator 1 view .LVU556
 1640 00fe 2A46     		mov	r2, r5
 1641 0100 0146     		mov	r1, r0
 1642 0102 238F     		ldrh	r3, [r4, #56]
 1643 0104 0720     		movs	r0, #7
 1644              	.LVL170:
 1645              		.loc 1 610 5 is_stmt 0 discriminator 1 view .LVU557
 1646 0106 FFF7FEFF 		bl	coap_serialize_int_option
 1647              	.LVL171:
 1648              		.loc 1 610 5 discriminator 1 view .LVU558
 1649 010a 0544     		add	r5, r5, r0
 1650              	.LVL172:
 1651              		.loc 1 610 5 is_stmt 1 discriminator 1 view .LVU559
 1652              		.loc 1 610 5 is_stmt 0 discriminator 1 view .LVU560
 1653 010c 0720     		movs	r0, #7
 1654              	.LVL173:
 1655              	.L147:
 611:C:/Users/²Ü¼ÒºÀ/.iotlink/sdk/IoT_LINK/iot_link/network/lwm2m/wakaama_lwm2m/wakaama-master/core/er-coap-13\er-coap-13.c ****     COAP_SERIALIZE_MULTI_OPTION(  COAP_OPTION_LOCATION_PATH,  location_path, "Location-Path")
 1656              		.loc 1 611 5 is_stmt 1 view .LVU561
 1657 010e E37A     		ldrb	r3, [r4, #11]	@ zero_extendqisi2
 1658 0110 DB07     		lsls	r3, r3, #31
 1659 0112 07D5     		bpl	.L148
 1660              		.loc 1 611 5 discriminator 1 view .LVU562
 1661              		.loc 1 611 5 discriminator 1 view .LVU563
 1662 0114 2A46     		mov	r2, r5
 1663 0116 0146     		mov	r1, r0
 1664 0118 636B     		ldr	r3, [r4, #52]
 1665 011a 0820     		movs	r0, #8
 1666              	.LVL174:
 1667              		.loc 1 611 5 is_stmt 0 discriminator 1 view .LVU564
 1668 011c FFF7FEFF 		bl	coap_serialize_multi_option
 1669              	.LVL175:
ARM GAS  C:\Users\²Ü¼ÒºÀ\AppData\Local\Temp\cczrlpTg.s 			page 44


 1670              		.loc 1 611 5 discriminator 1 view .LVU565
 1671 0120 0544     		add	r5, r5, r0
 1672              	.LVL176:
 1673              		.loc 1 611 5 is_stmt 1 discriminator 1 view .LVU566
 1674              		.loc 1 611 5 is_stmt 0 discriminator 1 view .LVU567
 1675 0122 0820     		movs	r0, #8
 1676              	.LVL177:
 1677              	.L148:
 612:C:/Users/²Ü¼ÒºÀ/.iotlink/sdk/IoT_LINK/iot_link/network/lwm2m/wakaama_lwm2m/wakaama-master/core/er-coap-13\er-coap-13.c ****     COAP_SERIALIZE_MULTI_OPTION(  COAP_OPTION_URI_PATH,       uri_path, "Uri-Path")
 1678              		.loc 1 612 5 is_stmt 1 view .LVU568
 1679 0124 E37A     		ldrb	r3, [r4, #11]	@ zero_extendqisi2
 1680 0126 1E07     		lsls	r6, r3, #28
 1681 0128 07D5     		bpl	.L149
 1682              		.loc 1 612 5 discriminator 1 view .LVU569
 1683              		.loc 1 612 5 discriminator 1 view .LVU570
 1684 012a 2A46     		mov	r2, r5
 1685 012c 0146     		mov	r1, r0
 1686 012e 636C     		ldr	r3, [r4, #68]
 1687 0130 0B20     		movs	r0, #11
 1688              	.LVL178:
 1689              		.loc 1 612 5 is_stmt 0 discriminator 1 view .LVU571
 1690 0132 FFF7FEFF 		bl	coap_serialize_multi_option
 1691              	.LVL179:
 1692              		.loc 1 612 5 discriminator 1 view .LVU572
 1693 0136 0544     		add	r5, r5, r0
 1694              	.LVL180:
 1695              		.loc 1 612 5 is_stmt 1 discriminator 1 view .LVU573
 1696              		.loc 1 612 5 is_stmt 0 discriminator 1 view .LVU574
 1697 0138 0B20     		movs	r0, #11
 1698              	.LVL181:
 1699              	.L149:
 613:C:/Users/²Ü¼ÒºÀ/.iotlink/sdk/IoT_LINK/iot_link/network/lwm2m/wakaama_lwm2m/wakaama-master/core/er-coap-13\er-coap-13.c ****     COAP_SERIALIZE_INT_OPTION(    COAP_OPTION_CONTENT_TYPE,   content_type, "Content-Format")
 1700              		.loc 1 613 5 is_stmt 1 view .LVU575
 1701 013a E37A     		ldrb	r3, [r4, #11]	@ zero_extendqisi2
 1702 013c D906     		lsls	r1, r3, #27
 1703 013e 07D5     		bpl	.L150
 1704              		.loc 1 613 5 discriminator 1 view .LVU576
 1705              		.loc 1 613 5 discriminator 1 view .LVU577
 1706 0140 2A46     		mov	r2, r5
 1707 0142 0146     		mov	r1, r0
 1708 0144 238A     		ldrh	r3, [r4, #16]
 1709 0146 0C20     		movs	r0, #12
 1710              	.LVL182:
 1711              		.loc 1 613 5 is_stmt 0 discriminator 1 view .LVU578
 1712 0148 FFF7FEFF 		bl	coap_serialize_int_option
 1713              	.LVL183:
 1714              		.loc 1 613 5 discriminator 1 view .LVU579
 1715 014c 0544     		add	r5, r5, r0
 1716              	.LVL184:
 1717              		.loc 1 613 5 is_stmt 1 discriminator 1 view .LVU580
 1718              		.loc 1 613 5 is_stmt 0 discriminator 1 view .LVU581
 1719 014e 0C20     		movs	r0, #12
 1720              	.LVL185:
 1721              	.L150:
 614:C:/Users/²Ü¼ÒºÀ/.iotlink/sdk/IoT_LINK/iot_link/network/lwm2m/wakaama_lwm2m/wakaama-master/core/er-coap-13\er-coap-13.c ****     COAP_SERIALIZE_INT_OPTION(    COAP_OPTION_MAX_AGE,        max_age, "Max-Age")
 1722              		.loc 1 614 5 is_stmt 1 view .LVU582
 1723 0150 E37A     		ldrb	r3, [r4, #11]	@ zero_extendqisi2
ARM GAS  C:\Users\²Ü¼ÒºÀ\AppData\Local\Temp\cczrlpTg.s 			page 45


 1724 0152 5A06     		lsls	r2, r3, #25
 1725 0154 07D5     		bpl	.L151
 1726              		.loc 1 614 5 discriminator 1 view .LVU583
 1727              		.loc 1 614 5 discriminator 1 view .LVU584
 1728 0156 2A46     		mov	r2, r5
 1729 0158 0146     		mov	r1, r0
 1730 015a 6369     		ldr	r3, [r4, #20]
 1731 015c 0E20     		movs	r0, #14
 1732              	.LVL186:
 1733              		.loc 1 614 5 is_stmt 0 discriminator 1 view .LVU585
 1734 015e FFF7FEFF 		bl	coap_serialize_int_option
 1735              	.LVL187:
 1736              		.loc 1 614 5 discriminator 1 view .LVU586
 1737 0162 0544     		add	r5, r5, r0
 1738              	.LVL188:
 1739              		.loc 1 614 5 is_stmt 1 discriminator 1 view .LVU587
 1740              		.loc 1 614 5 is_stmt 0 discriminator 1 view .LVU588
 1741 0164 0E20     		movs	r0, #14
 1742              	.LVL189:
 1743              	.L151:
 615:C:/Users/²Ü¼ÒºÀ/.iotlink/sdk/IoT_LINK/iot_link/network/lwm2m/wakaama_lwm2m/wakaama-master/core/er-coap-13\er-coap-13.c ****     COAP_SERIALIZE_MULTI_OPTION(  COAP_OPTION_URI_QUERY,      uri_query, "Uri-Query")
 1744              		.loc 1 615 5 is_stmt 1 view .LVU589
 1745 0166 94F90B30 		ldrsb	r3, [r4, #11]
 1746 016a 002B     		cmp	r3, #0
 1747 016c 08DA     		bge	.L152
 1748              		.loc 1 615 5 discriminator 1 view .LVU590
 1749              		.loc 1 615 5 discriminator 1 view .LVU591
 1750 016e 2A46     		mov	r2, r5
 1751 0170 0146     		mov	r1, r0
 1752 0172 D4F88030 		ldr	r3, [r4, #128]
 1753 0176 0F20     		movs	r0, #15
 1754              	.LVL190:
 1755              		.loc 1 615 5 is_stmt 0 discriminator 1 view .LVU592
 1756 0178 FFF7FEFF 		bl	coap_serialize_multi_option
 1757              	.LVL191:
 1758              		.loc 1 615 5 discriminator 1 view .LVU593
 1759 017c 0544     		add	r5, r5, r0
 1760              	.LVL192:
 1761              		.loc 1 615 5 is_stmt 1 discriminator 1 view .LVU594
 1762              		.loc 1 615 5 is_stmt 0 discriminator 1 view .LVU595
 1763 017e 0F20     		movs	r0, #15
 1764              	.LVL193:
 1765              	.L152:
 616:C:/Users/²Ü¼ÒºÀ/.iotlink/sdk/IoT_LINK/iot_link/network/lwm2m/wakaama_lwm2m/wakaama-master/core/er-coap-13\er-coap-13.c ****     COAP_SERIALIZE_ACCEPT_OPTION( COAP_OPTION_ACCEPT,         accept, "Accept")
 1766              		.loc 1 616 5 is_stmt 1 view .LVU596
 1767 0180 237B     		ldrb	r3, [r4, #12]	@ zero_extendqisi2
 1768 0182 9B07     		lsls	r3, r3, #30
 1769 0184 07D5     		bpl	.L153
 1770              		.loc 1 616 5 is_stmt 0 view .LVU597
 1771 0186 04F15608 		add	r8, r4, #86
 1772              	.LBB76:
 1773 018a 0026     		movs	r6, #0
 1774              	.LVL194:
 1775              	.L154:
 1776              		.loc 1 616 5 is_stmt 1 discriminator 2 view .LVU598
 1777 018c 94F85530 		ldrb	r3, [r4, #85]	@ zero_extendqisi2
 1778 0190 B342     		cmp	r3, r6
ARM GAS  C:\Users\²Ü¼ÒºÀ\AppData\Local\Temp\cczrlpTg.s 			page 46


 1779 0192 00F3A380 		bgt	.L155
 1780              	.LVL195:
 1781              	.L153:
 1782              		.loc 1 616 5 is_stmt 0 discriminator 2 view .LVU599
 1783              	.LBE76:
 617:C:/Users/²Ü¼ÒºÀ/.iotlink/sdk/IoT_LINK/iot_link/network/lwm2m/wakaama_lwm2m/wakaama-master/core/er-coap-13\er-coap-13.c ****     COAP_SERIALIZE_STRING_OPTION( COAP_OPTION_LOCATION_QUERY, location_query, '&', "Location-Query"
 1784              		.loc 1 617 5 is_stmt 1 view .LVU600
 1785 0196 237B     		ldrb	r3, [r4, #12]	@ zero_extendqisi2
 1786 0198 DE06     		lsls	r6, r3, #27
 1787 019a 29D5     		bpl	.L156
 1788              		.loc 1 617 5 discriminator 1 view .LVU601
 1789              		.loc 1 617 5 discriminator 1 view .LVU602
 1790 019c D4E90F3A 		ldrd	r3, r10, [r4, #60]
 1791              	.LVL196:
 1792              	.LBB77:
 1793              	.LBI77:
 208:C:/Users/²Ü¼ÒºÀ/.iotlink/sdk/IoT_LINK/iot_link/network/lwm2m/wakaama_lwm2m/wakaama-master/core/er-coap-13\er-coap-13.c **** {
 1794              		.loc 1 208 1 discriminator 1 view .LVU603
 1795              	.LBB78:
 1796              	.LBB79:
 219:C:/Users/²Ü¼ÒºÀ/.iotlink/sdk/IoT_LINK/iot_link/network/lwm2m/wakaama_lwm2m/wakaama-master/core/er-coap-13\er-coap-13.c ****         {
 1797              		.loc 1 219 21 discriminator 1 view .LVU604
 1798              	.LBE79:
 210:C:/Users/²Ü¼ÒºÀ/.iotlink/sdk/IoT_LINK/iot_link/network/lwm2m/wakaama_lwm2m/wakaama-master/core/er-coap-13\er-coap-13.c **** 
 1799              		.loc 1 210 12 is_stmt 0 discriminator 1 view .LVU605
 1800 01a0 4FF00008 		mov	r8, #0
 1801              	.LBB80:
 215:C:/Users/²Ü¼ÒºÀ/.iotlink/sdk/IoT_LINK/iot_link/network/lwm2m/wakaama_lwm2m/wakaama-master/core/er-coap-13\er-coap-13.c ****         uint8_t *part_end = NULL;
 1802              		.loc 1 215 18 discriminator 1 view .LVU606
 1803 01a4 D346     		mov	fp, r10
 219:C:/Users/²Ü¼ÒºÀ/.iotlink/sdk/IoT_LINK/iot_link/network/lwm2m/wakaama_lwm2m/wakaama-master/core/er-coap-13\er-coap-13.c ****         {
 1804              		.loc 1 219 16 discriminator 1 view .LVU607
 1805 01a6 4646     		mov	r6, r8
 1806              	.LVL197:
 1807              	.L159:
 221:C:/Users/²Ü¼ÒºÀ/.iotlink/sdk/IoT_LINK/iot_link/network/lwm2m/wakaama_lwm2m/wakaama-master/core/er-coap-13\er-coap-13.c ****             {
 1808              		.loc 1 221 13 is_stmt 1 view .LVU608
 221:C:/Users/²Ü¼ÒºÀ/.iotlink/sdk/IoT_LINK/iot_link/network/lwm2m/wakaama_lwm2m/wakaama-master/core/er-coap-13\er-coap-13.c ****             {
 1809              		.loc 1 221 16 is_stmt 0 view .LVU609
 1810 01a8 1AF80620 		ldrb	r2, [r10, r6]	@ zero_extendqisi2
 1811 01ac 262A     		cmp	r2, #38
 221:C:/Users/²Ü¼ÒºÀ/.iotlink/sdk/IoT_LINK/iot_link/network/lwm2m/wakaama_lwm2m/wakaama-master/core/er-coap-13\er-coap-13.c ****             {
 1812              		.loc 1 221 22 view .LVU610
 1813 01ae 0AEB0609 		add	r9, r10, r6
 221:C:/Users/²Ü¼ÒºÀ/.iotlink/sdk/IoT_LINK/iot_link/network/lwm2m/wakaama_lwm2m/wakaama-master/core/er-coap-13\er-coap-13.c ****             {
 1814              		.loc 1 221 16 view .LVU611
 1815 01b2 01D0     		beq	.L157
 221:C:/Users/²Ü¼ÒºÀ/.iotlink/sdk/IoT_LINK/iot_link/network/lwm2m/wakaama_lwm2m/wakaama-master/core/er-coap-13\er-coap-13.c ****             {
 1816              		.loc 1 221 40 view .LVU612
 1817 01b4 B342     		cmp	r3, r6
 1818 01b6 16D1     		bne	.L158
 1819              	.L157:
 224:C:/Users/²Ü¼ÒºÀ/.iotlink/sdk/IoT_LINK/iot_link/network/lwm2m/wakaama_lwm2m/wakaama-master/core/er-coap-13\er-coap-13.c **** 
 1820              		.loc 1 224 40 view .LVU613
 1821 01b8 A9EB0B09 		sub	r9, r9, fp
 226:C:/Users/²Ü¼ÒºÀ/.iotlink/sdk/IoT_LINK/iot_link/network/lwm2m/wakaama_lwm2m/wakaama-master/core/er-coap-13\er-coap-13.c ****                 memcpy(&buffer[i], part_start, temp_length);
 1822              		.loc 1 226 22 view .LVU614
ARM GAS  C:\Users\²Ü¼ÒºÀ\AppData\Local\Temp\cczrlpTg.s 			page 47


 1823 01bc 05EB0802 		add	r2, r5, r8
 1824 01c0 4946     		mov	r1, r9
 1825 01c2 C0F11400 		rsb	r0, r0, #20
 1826              	.LVL198:
 226:C:/Users/²Ü¼ÒºÀ/.iotlink/sdk/IoT_LINK/iot_link/network/lwm2m/wakaama_lwm2m/wakaama-master/core/er-coap-13\er-coap-13.c ****                 memcpy(&buffer[i], part_start, temp_length);
 1827              		.loc 1 226 22 view .LVU615
 1828 01c6 0393     		str	r3, [sp, #12]
 223:C:/Users/²Ü¼ÒºÀ/.iotlink/sdk/IoT_LINK/iot_link/network/lwm2m/wakaama_lwm2m/wakaama-master/core/er-coap-13\er-coap-13.c ****                 temp_length = part_end - part_start;
 1829              		.loc 1 223 17 is_stmt 1 view .LVU616
 224:C:/Users/²Ü¼ÒºÀ/.iotlink/sdk/IoT_LINK/iot_link/network/lwm2m/wakaama_lwm2m/wakaama-master/core/er-coap-13\er-coap-13.c **** 
 1830              		.loc 1 224 17 view .LVU617
 1831              	.LVL199:
 226:C:/Users/²Ü¼ÒºÀ/.iotlink/sdk/IoT_LINK/iot_link/network/lwm2m/wakaama_lwm2m/wakaama-master/core/er-coap-13\er-coap-13.c ****                 memcpy(&buffer[i], part_start, temp_length);
 1832              		.loc 1 226 17 view .LVU618
 226:C:/Users/²Ü¼ÒºÀ/.iotlink/sdk/IoT_LINK/iot_link/network/lwm2m/wakaama_lwm2m/wakaama-master/core/er-coap-13\er-coap-13.c ****                 memcpy(&buffer[i], part_start, temp_length);
 1833              		.loc 1 226 22 is_stmt 0 view .LVU619
 1834 01c8 FFF7FEFF 		bl	coap_set_option_header
 1835              	.LVL200:
 226:C:/Users/²Ü¼ÒºÀ/.iotlink/sdk/IoT_LINK/iot_link/network/lwm2m/wakaama_lwm2m/wakaama-master/core/er-coap-13\er-coap-13.c ****                 memcpy(&buffer[i], part_start, temp_length);
 1836              		.loc 1 226 19 view .LVU620
 1837 01cc 8044     		add	r8, r8, r0
 1838              	.LVL201:
 227:C:/Users/²Ü¼ÒºÀ/.iotlink/sdk/IoT_LINK/iot_link/network/lwm2m/wakaama_lwm2m/wakaama-master/core/er-coap-13\er-coap-13.c ****                 i += temp_length;
 1839              		.loc 1 227 17 is_stmt 1 view .LVU621
 1840 01ce 5946     		mov	r1, fp
 1841 01d0 05EB0800 		add	r0, r5, r8
 1842 01d4 4A46     		mov	r2, r9
 1843 01d6 FFF7FEFF 		bl	memcpy
 1844              	.LVL202:
 228:C:/Users/²Ü¼ÒºÀ/.iotlink/sdk/IoT_LINK/iot_link/network/lwm2m/wakaama_lwm2m/wakaama-master/core/er-coap-13\er-coap-13.c **** 
 1845              		.loc 1 228 17 view .LVU622
 232:C:/Users/²Ü¼ÒºÀ/.iotlink/sdk/IoT_LINK/iot_link/network/lwm2m/wakaama_lwm2m/wakaama-master/core/er-coap-13\er-coap-13.c ****                 current_number = number;
 1846              		.loc 1 232 17 is_stmt 0 view .LVU623
 1847 01da 0136     		adds	r6, r6, #1
 1848              	.LVL203:
 233:C:/Users/²Ü¼ÒºÀ/.iotlink/sdk/IoT_LINK/iot_link/network/lwm2m/wakaama_lwm2m/wakaama-master/core/er-coap-13\er-coap-13.c ****                 part_start = array + j;
 1849              		.loc 1 233 32 view .LVU624
 1850 01dc 039B     		ldr	r3, [sp, #12]
 228:C:/Users/²Ü¼ÒºÀ/.iotlink/sdk/IoT_LINK/iot_link/network/lwm2m/wakaama_lwm2m/wakaama-master/core/er-coap-13\er-coap-13.c **** 
 1851              		.loc 1 228 19 view .LVU625
 1852 01de C844     		add	r8, r8, r9
 1853              	.LVL204:
 230:C:/Users/²Ü¼ÒºÀ/.iotlink/sdk/IoT_LINK/iot_link/network/lwm2m/wakaama_lwm2m/wakaama-master/core/er-coap-13\er-coap-13.c **** 
 1854              		.loc 1 230 135 is_stmt 1 view .LVU626
 232:C:/Users/²Ü¼ÒºÀ/.iotlink/sdk/IoT_LINK/iot_link/network/lwm2m/wakaama_lwm2m/wakaama-master/core/er-coap-13\er-coap-13.c ****                 current_number = number;
 1855              		.loc 1 232 17 view .LVU627
 233:C:/Users/²Ü¼ÒºÀ/.iotlink/sdk/IoT_LINK/iot_link/network/lwm2m/wakaama_lwm2m/wakaama-master/core/er-coap-13\er-coap-13.c ****                 part_start = array + j;
 1856              		.loc 1 233 17 view .LVU628
 234:C:/Users/²Ü¼ÒºÀ/.iotlink/sdk/IoT_LINK/iot_link/network/lwm2m/wakaama_lwm2m/wakaama-master/core/er-coap-13\er-coap-13.c ****             }
 1857              		.loc 1 234 17 view .LVU629
 234:C:/Users/²Ü¼ÒºÀ/.iotlink/sdk/IoT_LINK/iot_link/network/lwm2m/wakaama_lwm2m/wakaama-master/core/er-coap-13\er-coap-13.c ****             }
 1858              		.loc 1 234 28 is_stmt 0 view .LVU630
 1859 01e0 0AEB060B 		add	fp, r10, r6
 1860              	.LVL205:
 233:C:/Users/²Ü¼ÒºÀ/.iotlink/sdk/IoT_LINK/iot_link/network/lwm2m/wakaama_lwm2m/wakaama-master/core/er-coap-13\er-coap-13.c ****                 part_start = array + j;
 1861              		.loc 1 233 32 view .LVU631
 1862 01e4 1420     		movs	r0, #20
ARM GAS  C:\Users\²Ü¼ÒºÀ\AppData\Local\Temp\cczrlpTg.s 			page 48


 1863              	.LVL206:
 1864              	.L158:
 219:C:/Users/²Ü¼ÒºÀ/.iotlink/sdk/IoT_LINK/iot_link/network/lwm2m/wakaama_lwm2m/wakaama-master/core/er-coap-13\er-coap-13.c ****         {
 1865              		.loc 1 219 34 is_stmt 1 view .LVU632
 1866 01e6 0136     		adds	r6, r6, #1
 1867              	.LVL207:
 219:C:/Users/²Ü¼ÒºÀ/.iotlink/sdk/IoT_LINK/iot_link/network/lwm2m/wakaama_lwm2m/wakaama-master/core/er-coap-13\er-coap-13.c ****         {
 1868              		.loc 1 219 21 view .LVU633
 219:C:/Users/²Ü¼ÒºÀ/.iotlink/sdk/IoT_LINK/iot_link/network/lwm2m/wakaama_lwm2m/wakaama-master/core/er-coap-13\er-coap-13.c ****         {
 1869              		.loc 1 219 9 is_stmt 0 view .LVU634
 1870 01e8 B342     		cmp	r3, r6
 1871 01ea DDD2     		bcs	.L159
 219:C:/Users/²Ü¼ÒºÀ/.iotlink/sdk/IoT_LINK/iot_link/network/lwm2m/wakaama_lwm2m/wakaama-master/core/er-coap-13\er-coap-13.c ****         {
 1872              		.loc 1 219 9 view .LVU635
 1873              	.LBE80:
 244:C:/Users/²Ü¼ÒºÀ/.iotlink/sdk/IoT_LINK/iot_link/network/lwm2m/wakaama_lwm2m/wakaama-master/core/er-coap-13\er-coap-13.c ****     }
 1874              		.loc 1 244 94 is_stmt 1 view .LVU636
 247:C:/Users/²Ü¼ÒºÀ/.iotlink/sdk/IoT_LINK/iot_link/network/lwm2m/wakaama_lwm2m/wakaama-master/core/er-coap-13\er-coap-13.c **** }
 1875              		.loc 1 247 5 view .LVU637
 1876              	.LVL208:
 247:C:/Users/²Ü¼ÒºÀ/.iotlink/sdk/IoT_LINK/iot_link/network/lwm2m/wakaama_lwm2m/wakaama-master/core/er-coap-13\er-coap-13.c **** }
 1877              		.loc 1 247 5 is_stmt 0 view .LVU638
 1878              	.LBE78:
 1879              	.LBE77:
 1880              		.loc 1 617 5 view .LVU639
 1881 01ec 4544     		add	r5, r5, r8
 1882              	.LVL209:
 1883              		.loc 1 617 5 is_stmt 1 view .LVU640
 1884              		.loc 1 617 5 is_stmt 0 view .LVU641
 1885 01ee 1420     		movs	r0, #20
 1886              	.LVL210:
 1887              	.L156:
 618:C:/Users/²Ü¼ÒºÀ/.iotlink/sdk/IoT_LINK/iot_link/network/lwm2m/wakaama_lwm2m/wakaama-master/core/er-coap-13\er-coap-13.c ****     COAP_SERIALIZE_BLOCK_OPTION(  COAP_OPTION_BLOCK2,         block2, "Block2")
 1888              		.loc 1 618 5 is_stmt 1 view .LVU642
 1889 01f0 94F90C30 		ldrsb	r3, [r4, #12]
 1890 01f4 002B     		cmp	r3, #0
 1891 01f6 1DDA     		bge	.L160
 1892              	.LBB81:
 1893              		.loc 1 618 5 discriminator 1 view .LVU643
 1894 01f8 636E     		ldr	r3, [r4, #100]
 1895 01fa 94F86820 		ldrb	r2, [r4, #104]	@ zero_extendqisi2
 1896 01fe 1B01     		lsls	r3, r3, #4
 1897              	.LVL211:
 1898              		.loc 1 618 5 discriminator 1 view .LVU644
 1899              		.loc 1 618 5 discriminator 1 view .LVU645
 1900 0200 0AB1     		cbz	r2, .L161
 1901              		.loc 1 618 5 discriminator 2 view .LVU646
 1902 0202 43F00803 		orr	r3, r3, #8
 1903              	.LVL212:
 1904              	.L161:
 1905              		.loc 1 618 5 discriminator 4 view .LVU647
 1906 0206 B4F86A60 		ldrh	r6, [r4, #106]
 1907              	.LBB82:
 1908              	.LBB83:
 111:C:/Users/²Ü¼ÒºÀ/.iotlink/sdk/IoT_LINK/iot_link/network/lwm2m/wakaama_lwm2m/wakaama-master/core/er-coap-13\er-coap-13.c ****     do
 1909              		.loc 1 111 14 is_stmt 0 discriminator 4 view .LVU648
 1910 020a 0021     		movs	r1, #0
ARM GAS  C:\Users\²Ü¼ÒºÀ\AppData\Local\Temp\cczrlpTg.s 			page 49


 1911              	.LBE83:
 1912              	.LBE82:
 1913              		.loc 1 618 5 discriminator 4 view .LVU649
 1914 020c 3609     		lsrs	r6, r6, #4
 1915              	.LVL213:
 1916              	.LBB85:
 1917              	.LBI82:
 109:C:/Users/²Ü¼ÒºÀ/.iotlink/sdk/IoT_LINK/iot_link/network/lwm2m/wakaama_lwm2m/wakaama-master/core/er-coap-13\er-coap-13.c **** {
 1918              		.loc 1 109 1 is_stmt 1 discriminator 4 view .LVU650
 1919              	.LBB84:
 111:C:/Users/²Ü¼ÒºÀ/.iotlink/sdk/IoT_LINK/iot_link/network/lwm2m/wakaama_lwm2m/wakaama-master/core/er-coap-13\er-coap-13.c ****     do
 1920              		.loc 1 111 5 discriminator 4 view .LVU651
 1921              	.L162:
 112:C:/Users/²Ü¼ÒºÀ/.iotlink/sdk/IoT_LINK/iot_link/network/lwm2m/wakaama_lwm2m/wakaama-master/core/er-coap-13\er-coap-13.c ****     {
 1922              		.loc 1 112 5 view .LVU652
 114:C:/Users/²Ü¼ÒºÀ/.iotlink/sdk/IoT_LINK/iot_link/network/lwm2m/wakaama_lwm2m/wakaama-master/core/er-coap-13\er-coap-13.c ****         result++;
 1923              		.loc 1 114 9 view .LVU653
 115:C:/Users/²Ü¼ÒºÀ/.iotlink/sdk/IoT_LINK/iot_link/network/lwm2m/wakaama_lwm2m/wakaama-master/core/er-coap-13\er-coap-13.c ****     }
 1924              		.loc 1 115 9 view .LVU654
 1925 020e 0A46     		mov	r2, r1
 117:C:/Users/²Ü¼ÒºÀ/.iotlink/sdk/IoT_LINK/iot_link/network/lwm2m/wakaama_lwm2m/wakaama-master/core/er-coap-13\er-coap-13.c **** 
 1926              		.loc 1 117 5 is_stmt 0 view .LVU655
 1927 0210 7608     		lsrs	r6, r6, #1
 1928              	.LVL214:
 115:C:/Users/²Ü¼ÒºÀ/.iotlink/sdk/IoT_LINK/iot_link/network/lwm2m/wakaama_lwm2m/wakaama-master/core/er-coap-13\er-coap-13.c ****     }
 1929              		.loc 1 115 15 view .LVU656
 1930 0212 01F10101 		add	r1, r1, #1
 1931              	.LVL215:
 115:C:/Users/²Ü¼ÒºÀ/.iotlink/sdk/IoT_LINK/iot_link/network/lwm2m/wakaama_lwm2m/wakaama-master/core/er-coap-13\er-coap-13.c ****     }
 1932              		.loc 1 115 15 view .LVU657
 1933 0216 89B2     		uxth	r1, r1
 1934              	.LVL216:
 117:C:/Users/²Ü¼ÒºÀ/.iotlink/sdk/IoT_LINK/iot_link/network/lwm2m/wakaama_lwm2m/wakaama-master/core/er-coap-13\er-coap-13.c **** 
 1935              		.loc 1 117 11 is_stmt 1 view .LVU658
 117:C:/Users/²Ü¼ÒºÀ/.iotlink/sdk/IoT_LINK/iot_link/network/lwm2m/wakaama_lwm2m/wakaama-master/core/er-coap-13\er-coap-13.c **** 
 1936              		.loc 1 117 5 is_stmt 0 view .LVU659
 1937 0218 F9D1     		bne	.L162
 119:C:/Users/²Ü¼ÒºÀ/.iotlink/sdk/IoT_LINK/iot_link/network/lwm2m/wakaama_lwm2m/wakaama-master/core/er-coap-13\er-coap-13.c **** }
 1938              		.loc 1 119 5 is_stmt 1 view .LVU660
 115:C:/Users/²Ü¼ÒºÀ/.iotlink/sdk/IoT_LINK/iot_link/network/lwm2m/wakaama_lwm2m/wakaama-master/core/er-coap-13\er-coap-13.c ****     }
 1939              		.loc 1 115 15 is_stmt 0 view .LVU661
 1940 021a 0029     		cmp	r1, #0
 1941 021c 08BF     		it	eq
 1942 021e 0022     		moveq	r2, #0
 1943              	.LVL217:
 115:C:/Users/²Ü¼ÒºÀ/.iotlink/sdk/IoT_LINK/iot_link/network/lwm2m/wakaama_lwm2m/wakaama-master/core/er-coap-13\er-coap-13.c ****     }
 1944              		.loc 1 115 15 view .LVU662
 1945              	.LBE84:
 1946              	.LBE85:
 1947              		.loc 1 618 5 is_stmt 1 view .LVU663
 1948              		.loc 1 618 5 view .LVU664
 1949 0220 02F00F02 		and	r2, r2, #15
 1950              	.LVL218:
 1951              		.loc 1 618 5 is_stmt 0 view .LVU665
 1952 0224 1343     		orrs	r3, r3, r2
 1953 0226 0146     		mov	r1, r0
 1954 0228 2A46     		mov	r2, r5
ARM GAS  C:\Users\²Ü¼ÒºÀ\AppData\Local\Temp\cczrlpTg.s 			page 50


 1955 022a 1720     		movs	r0, #23
 1956              	.LVL219:
 1957              		.loc 1 618 5 view .LVU666
 1958 022c FFF7FEFF 		bl	coap_serialize_int_option
 1959              	.LVL220:
 1960              		.loc 1 618 5 view .LVU667
 1961 0230 0544     		add	r5, r5, r0
 1962              	.LVL221:
 1963              		.loc 1 618 5 is_stmt 1 view .LVU668
 1964              		.loc 1 618 5 is_stmt 0 view .LVU669
 1965 0232 1720     		movs	r0, #23
 1966              	.LVL222:
 1967              	.L160:
 1968              		.loc 1 618 5 view .LVU670
 1969              	.LBE81:
 619:C:/Users/²Ü¼ÒºÀ/.iotlink/sdk/IoT_LINK/iot_link/network/lwm2m/wakaama_lwm2m/wakaama-master/core/er-coap-13\er-coap-13.c ****     COAP_SERIALIZE_BLOCK_OPTION(  COAP_OPTION_BLOCK1,         block1, "Block1")
 1970              		.loc 1 619 5 is_stmt 1 view .LVU671
 1971 0234 637B     		ldrb	r3, [r4, #13]	@ zero_extendqisi2
 1972 0236 1907     		lsls	r1, r3, #28
 1973 0238 1DD5     		bpl	.L164
 1974              	.LBB86:
 1975              		.loc 1 619 5 discriminator 1 view .LVU672
 1976 023a 236F     		ldr	r3, [r4, #112]
 1977 023c 94F87420 		ldrb	r2, [r4, #116]	@ zero_extendqisi2
 1978 0240 1B01     		lsls	r3, r3, #4
 1979              	.LVL223:
 1980              		.loc 1 619 5 discriminator 1 view .LVU673
 1981              		.loc 1 619 5 discriminator 1 view .LVU674
 1982 0242 0AB1     		cbz	r2, .L165
 1983              		.loc 1 619 5 discriminator 2 view .LVU675
 1984 0244 43F00803 		orr	r3, r3, #8
 1985              	.LVL224:
 1986              	.L165:
 1987              		.loc 1 619 5 discriminator 4 view .LVU676
 1988 0248 B4F87660 		ldrh	r6, [r4, #118]
 1989              	.LBB87:
 1990              	.LBB88:
 111:C:/Users/²Ü¼ÒºÀ/.iotlink/sdk/IoT_LINK/iot_link/network/lwm2m/wakaama_lwm2m/wakaama-master/core/er-coap-13\er-coap-13.c ****     do
 1991              		.loc 1 111 14 is_stmt 0 discriminator 4 view .LVU677
 1992 024c 0021     		movs	r1, #0
 1993              	.LBE88:
 1994              	.LBE87:
 1995              		.loc 1 619 5 discriminator 4 view .LVU678
 1996 024e 3609     		lsrs	r6, r6, #4
 1997              	.LVL225:
 1998              	.LBB90:
 1999              	.LBI87:
 109:C:/Users/²Ü¼ÒºÀ/.iotlink/sdk/IoT_LINK/iot_link/network/lwm2m/wakaama_lwm2m/wakaama-master/core/er-coap-13\er-coap-13.c **** {
 2000              		.loc 1 109 1 is_stmt 1 discriminator 4 view .LVU679
 2001              	.LBB89:
 111:C:/Users/²Ü¼ÒºÀ/.iotlink/sdk/IoT_LINK/iot_link/network/lwm2m/wakaama_lwm2m/wakaama-master/core/er-coap-13\er-coap-13.c ****     do
 2002              		.loc 1 111 5 discriminator 4 view .LVU680
 2003              	.L166:
 112:C:/Users/²Ü¼ÒºÀ/.iotlink/sdk/IoT_LINK/iot_link/network/lwm2m/wakaama_lwm2m/wakaama-master/core/er-coap-13\er-coap-13.c ****     {
 2004              		.loc 1 112 5 view .LVU681
 114:C:/Users/²Ü¼ÒºÀ/.iotlink/sdk/IoT_LINK/iot_link/network/lwm2m/wakaama_lwm2m/wakaama-master/core/er-coap-13\er-coap-13.c ****         result++;
 2005              		.loc 1 114 9 view .LVU682
ARM GAS  C:\Users\²Ü¼ÒºÀ\AppData\Local\Temp\cczrlpTg.s 			page 51


 115:C:/Users/²Ü¼ÒºÀ/.iotlink/sdk/IoT_LINK/iot_link/network/lwm2m/wakaama_lwm2m/wakaama-master/core/er-coap-13\er-coap-13.c ****     }
 2006              		.loc 1 115 9 view .LVU683
 2007 0250 0A46     		mov	r2, r1
 117:C:/Users/²Ü¼ÒºÀ/.iotlink/sdk/IoT_LINK/iot_link/network/lwm2m/wakaama_lwm2m/wakaama-master/core/er-coap-13\er-coap-13.c **** 
 2008              		.loc 1 117 5 is_stmt 0 view .LVU684
 2009 0252 7608     		lsrs	r6, r6, #1
 2010              	.LVL226:
 115:C:/Users/²Ü¼ÒºÀ/.iotlink/sdk/IoT_LINK/iot_link/network/lwm2m/wakaama_lwm2m/wakaama-master/core/er-coap-13\er-coap-13.c ****     }
 2011              		.loc 1 115 15 view .LVU685
 2012 0254 01F10101 		add	r1, r1, #1
 2013              	.LVL227:
 115:C:/Users/²Ü¼ÒºÀ/.iotlink/sdk/IoT_LINK/iot_link/network/lwm2m/wakaama_lwm2m/wakaama-master/core/er-coap-13\er-coap-13.c ****     }
 2014              		.loc 1 115 15 view .LVU686
 2015 0258 89B2     		uxth	r1, r1
 2016              	.LVL228:
 117:C:/Users/²Ü¼ÒºÀ/.iotlink/sdk/IoT_LINK/iot_link/network/lwm2m/wakaama_lwm2m/wakaama-master/core/er-coap-13\er-coap-13.c **** 
 2017              		.loc 1 117 11 is_stmt 1 view .LVU687
 117:C:/Users/²Ü¼ÒºÀ/.iotlink/sdk/IoT_LINK/iot_link/network/lwm2m/wakaama_lwm2m/wakaama-master/core/er-coap-13\er-coap-13.c **** 
 2018              		.loc 1 117 5 is_stmt 0 view .LVU688
 2019 025a F9D1     		bne	.L166
 119:C:/Users/²Ü¼ÒºÀ/.iotlink/sdk/IoT_LINK/iot_link/network/lwm2m/wakaama_lwm2m/wakaama-master/core/er-coap-13\er-coap-13.c **** }
 2020              		.loc 1 119 5 is_stmt 1 view .LVU689
 115:C:/Users/²Ü¼ÒºÀ/.iotlink/sdk/IoT_LINK/iot_link/network/lwm2m/wakaama_lwm2m/wakaama-master/core/er-coap-13\er-coap-13.c ****     }
 2021              		.loc 1 115 15 is_stmt 0 view .LVU690
 2022 025c 0029     		cmp	r1, #0
 2023 025e 08BF     		it	eq
 2024 0260 0022     		moveq	r2, #0
 2025              	.LVL229:
 115:C:/Users/²Ü¼ÒºÀ/.iotlink/sdk/IoT_LINK/iot_link/network/lwm2m/wakaama_lwm2m/wakaama-master/core/er-coap-13\er-coap-13.c ****     }
 2026              		.loc 1 115 15 view .LVU691
 2027              	.LBE89:
 2028              	.LBE90:
 2029              		.loc 1 619 5 is_stmt 1 view .LVU692
 2030              		.loc 1 619 5 view .LVU693
 2031 0262 02F00F02 		and	r2, r2, #15
 2032              	.LVL230:
 2033              		.loc 1 619 5 is_stmt 0 view .LVU694
 2034 0266 1343     		orrs	r3, r3, r2
 2035 0268 0146     		mov	r1, r0
 2036 026a 2A46     		mov	r2, r5
 2037 026c 1B20     		movs	r0, #27
 2038              	.LVL231:
 2039              		.loc 1 619 5 view .LVU695
 2040 026e FFF7FEFF 		bl	coap_serialize_int_option
 2041              	.LVL232:
 2042              		.loc 1 619 5 view .LVU696
 2043 0272 0544     		add	r5, r5, r0
 2044              	.LVL233:
 2045              		.loc 1 619 5 is_stmt 1 view .LVU697
 2046              		.loc 1 619 5 is_stmt 0 view .LVU698
 2047 0274 1B20     		movs	r0, #27
 2048              	.LVL234:
 2049              	.L164:
 2050              		.loc 1 619 5 view .LVU699
 2051              	.LBE86:
 620:C:/Users/²Ü¼ÒºÀ/.iotlink/sdk/IoT_LINK/iot_link/network/lwm2m/wakaama_lwm2m/wakaama-master/core/er-coap-13\er-coap-13.c ****     COAP_SERIALIZE_INT_OPTION(    COAP_OPTION_SIZE,           size, "Size")
 2052              		.loc 1 620 5 is_stmt 1 view .LVU700
ARM GAS  C:\Users\²Ü¼ÒºÀ\AppData\Local\Temp\cczrlpTg.s 			page 52


 2053 0276 637B     		ldrb	r3, [r4, #13]	@ zero_extendqisi2
 2054 0278 DA06     		lsls	r2, r3, #27
 2055 027a 07D5     		bpl	.L168
 2056              		.loc 1 620 5 discriminator 1 view .LVU701
 2057              		.loc 1 620 5 discriminator 1 view .LVU702
 2058 027c 2A46     		mov	r2, r5
 2059 027e 0146     		mov	r1, r0
 2060 0280 E36F     		ldr	r3, [r4, #124]
 2061 0282 1C20     		movs	r0, #28
 2062              	.LVL235:
 2063              		.loc 1 620 5 is_stmt 0 discriminator 1 view .LVU703
 2064 0284 FFF7FEFF 		bl	coap_serialize_int_option
 2065              	.LVL236:
 2066              		.loc 1 620 5 discriminator 1 view .LVU704
 2067 0288 0544     		add	r5, r5, r0
 2068              	.LVL237:
 2069              		.loc 1 620 5 is_stmt 1 discriminator 1 view .LVU705
 2070              		.loc 1 620 5 is_stmt 0 discriminator 1 view .LVU706
 2071 028a 1C20     		movs	r0, #28
 2072              	.LVL238:
 2073              	.L168:
 621:C:/Users/²Ü¼ÒºÀ/.iotlink/sdk/IoT_LINK/iot_link/network/lwm2m/wakaama_lwm2m/wakaama-master/core/er-coap-13\er-coap-13.c ****     COAP_SERIALIZE_STRING_OPTION( COAP_OPTION_PROXY_URI,      proxy_uri, '\0', "Proxy-Uri")
 2074              		.loc 1 621 5 is_stmt 1 view .LVU707
 2075 028c A37B     		ldrb	r3, [r4, #14]	@ zero_extendqisi2
 2076 028e 1B07     		lsls	r3, r3, #28
 2077 0290 08D5     		bpl	.L169
 2078              		.loc 1 621 5 discriminator 1 view .LVU708
 2079              		.loc 1 621 5 discriminator 1 view .LVU709
 2080              	.LVL239:
 2081              	.LBB91:
 2082              	.LBI91:
 208:C:/Users/²Ü¼ÒºÀ/.iotlink/sdk/IoT_LINK/iot_link/network/lwm2m/wakaama_lwm2m/wakaama-master/core/er-coap-13\er-coap-13.c **** {
 2083              		.loc 1 208 1 discriminator 1 view .LVU710
 2084              	.LBB92:
 210:C:/Users/²Ü¼ÒºÀ/.iotlink/sdk/IoT_LINK/iot_link/network/lwm2m/wakaama_lwm2m/wakaama-master/core/er-coap-13\er-coap-13.c **** 
 2085              		.loc 1 210 5 discriminator 1 view .LVU711
 212:C:/Users/²Ü¼ÒºÀ/.iotlink/sdk/IoT_LINK/iot_link/network/lwm2m/wakaama_lwm2m/wakaama-master/core/er-coap-13\er-coap-13.c ****     {
 2086              		.loc 1 212 5 discriminator 1 view .LVU712
 2087 0292 A369     		ldr	r3, [r4, #24]
 2088 0294 0093     		str	r3, [sp]
 2089              	.LVL240:
 212:C:/Users/²Ü¼ÒºÀ/.iotlink/sdk/IoT_LINK/iot_link/network/lwm2m/wakaama_lwm2m/wakaama-master/core/er-coap-13\er-coap-13.c ****     {
 2090              		.loc 1 212 5 is_stmt 0 discriminator 1 view .LVU713
 2091 0296 2A46     		mov	r2, r5
 2092 0298 0146     		mov	r1, r0
 2093 029a E369     		ldr	r3, [r4, #28]
 2094              	.LVL241:
 212:C:/Users/²Ü¼ÒºÀ/.iotlink/sdk/IoT_LINK/iot_link/network/lwm2m/wakaama_lwm2m/wakaama-master/core/er-coap-13\er-coap-13.c ****     {
 2095              		.loc 1 212 5 discriminator 1 view .LVU714
 2096 029c 2320     		movs	r0, #35
 2097              	.LVL242:
 212:C:/Users/²Ü¼ÒºÀ/.iotlink/sdk/IoT_LINK/iot_link/network/lwm2m/wakaama_lwm2m/wakaama-master/core/er-coap-13\er-coap-13.c ****     {
 2098              		.loc 1 212 5 discriminator 1 view .LVU715
 2099 029e FFF7FEFF 		bl	coap_serialize_array_option.part.0
 2100              	.LVL243:
 244:C:/Users/²Ü¼ÒºÀ/.iotlink/sdk/IoT_LINK/iot_link/network/lwm2m/wakaama_lwm2m/wakaama-master/core/er-coap-13\er-coap-13.c ****     }
 2101              		.loc 1 244 94 is_stmt 1 discriminator 1 view .LVU716
ARM GAS  C:\Users\²Ü¼ÒºÀ\AppData\Local\Temp\cczrlpTg.s 			page 53


 247:C:/Users/²Ü¼ÒºÀ/.iotlink/sdk/IoT_LINK/iot_link/network/lwm2m/wakaama_lwm2m/wakaama-master/core/er-coap-13\er-coap-13.c **** }
 2102              		.loc 1 247 5 discriminator 1 view .LVU717
 247:C:/Users/²Ü¼ÒºÀ/.iotlink/sdk/IoT_LINK/iot_link/network/lwm2m/wakaama_lwm2m/wakaama-master/core/er-coap-13\er-coap-13.c **** }
 2103              		.loc 1 247 5 is_stmt 0 discriminator 1 view .LVU718
 2104              	.LBE92:
 2105              	.LBE91:
 2106              		.loc 1 621 5 discriminator 1 view .LVU719
 2107 02a2 0544     		add	r5, r5, r0
 2108              	.LVL244:
 2109              		.loc 1 621 5 is_stmt 1 discriminator 1 view .LVU720
 2110              	.L169:
 622:C:/Users/²Ü¼ÒºÀ/.iotlink/sdk/IoT_LINK/iot_link/network/lwm2m/wakaama_lwm2m/wakaama-master/core/er-coap-13\er-coap-13.c **** 
 623:C:/Users/²Ü¼ÒºÀ/.iotlink/sdk/IoT_LINK/iot_link/network/lwm2m/wakaama_lwm2m/wakaama-master/core/er-coap-13\er-coap-13.c ****     PRINTF("-Done serializing at %p----\n", option);
 2111              		.loc 1 623 52 view .LVU721
 624:C:/Users/²Ü¼ÒºÀ/.iotlink/sdk/IoT_LINK/iot_link/network/lwm2m/wakaama_lwm2m/wakaama-master/core/er-coap-13\er-coap-13.c **** 
 625:C:/Users/²Ü¼ÒºÀ/.iotlink/sdk/IoT_LINK/iot_link/network/lwm2m/wakaama_lwm2m/wakaama-master/core/er-coap-13\er-coap-13.c ****     /* Free allocated header fields */
 626:C:/Users/²Ü¼ÒºÀ/.iotlink/sdk/IoT_LINK/iot_link/network/lwm2m/wakaama_lwm2m/wakaama-master/core/er-coap-13\er-coap-13.c ****     coap_free_header(packet);
 2112              		.loc 1 626 5 view .LVU722
 2113 02a4 2046     		mov	r0, r4
 2114 02a6 FFF7FEFF 		bl	coap_free_header
 2115              	.LVL245:
 627:C:/Users/²Ü¼ÒºÀ/.iotlink/sdk/IoT_LINK/iot_link/network/lwm2m/wakaama_lwm2m/wakaama-master/core/er-coap-13\er-coap-13.c **** 
 628:C:/Users/²Ü¼ÒºÀ/.iotlink/sdk/IoT_LINK/iot_link/network/lwm2m/wakaama_lwm2m/wakaama-master/core/er-coap-13\er-coap-13.c ****     /* Pack payload */
 629:C:/Users/²Ü¼ÒºÀ/.iotlink/sdk/IoT_LINK/iot_link/network/lwm2m/wakaama_lwm2m/wakaama-master/core/er-coap-13\er-coap-13.c ****     /* Payload marker */
 630:C:/Users/²Ü¼ÒºÀ/.iotlink/sdk/IoT_LINK/iot_link/network/lwm2m/wakaama_lwm2m/wakaama-master/core/er-coap-13\er-coap-13.c ****     if (coap_pkt->payload_len)
 2116              		.loc 1 630 5 view .LVU723
 2117              		.loc 1 630 8 is_stmt 0 view .LVU724
 2118 02aa B4F88630 		ldrh	r3, [r4, #134]
 2119 02ae 13B1     		cbz	r3, .L170
 631:C:/Users/²Ü¼ÒºÀ/.iotlink/sdk/IoT_LINK/iot_link/network/lwm2m/wakaama_lwm2m/wakaama-master/core/er-coap-13\er-coap-13.c ****     {
 632:C:/Users/²Ü¼ÒºÀ/.iotlink/sdk/IoT_LINK/iot_link/network/lwm2m/wakaama_lwm2m/wakaama-master/core/er-coap-13\er-coap-13.c ****         *option = 0xFF;
 2120              		.loc 1 632 9 is_stmt 1 view .LVU725
 2121              		.loc 1 632 17 is_stmt 0 view .LVU726
 2122 02b0 FF23     		movs	r3, #255
 2123 02b2 05F8013B 		strb	r3, [r5], #1
 2124              	.LVL246:
 633:C:/Users/²Ü¼ÒºÀ/.iotlink/sdk/IoT_LINK/iot_link/network/lwm2m/wakaama_lwm2m/wakaama-master/core/er-coap-13\er-coap-13.c ****         ++option;
 2125              		.loc 1 633 9 is_stmt 1 view .LVU727
 2126              	.L170:
 634:C:/Users/²Ü¼ÒºÀ/.iotlink/sdk/IoT_LINK/iot_link/network/lwm2m/wakaama_lwm2m/wakaama-master/core/er-coap-13\er-coap-13.c ****     }
 635:C:/Users/²Ü¼ÒºÀ/.iotlink/sdk/IoT_LINK/iot_link/network/lwm2m/wakaama_lwm2m/wakaama-master/core/er-coap-13\er-coap-13.c **** 
 636:C:/Users/²Ü¼ÒºÀ/.iotlink/sdk/IoT_LINK/iot_link/network/lwm2m/wakaama_lwm2m/wakaama-master/core/er-coap-13\er-coap-13.c ****     memmove(option, coap_pkt->payload, coap_pkt->payload_len);
 2127              		.loc 1 636 5 view .LVU728
 2128 02b6 B4F88620 		ldrh	r2, [r4, #134]
 2129 02ba D4F88810 		ldr	r1, [r4, #136]
 2130 02be 2846     		mov	r0, r5
 2131 02c0 FFF7FEFF 		bl	memmove
 2132              	.LVL247:
 637:C:/Users/²Ü¼ÒºÀ/.iotlink/sdk/IoT_LINK/iot_link/network/lwm2m/wakaama_lwm2m/wakaama-master/core/er-coap-13\er-coap-13.c **** 
 638:C:/Users/²Ü¼ÒºÀ/.iotlink/sdk/IoT_LINK/iot_link/network/lwm2m/wakaama_lwm2m/wakaama-master/core/er-coap-13\er-coap-13.c ****     PRINTF("-Done %u B (header len %u, payload len %u)-\n", coap_pkt->payload_len + option - buffer
 2133              		.loc 1 638 141 view .LVU729
 639:C:/Users/²Ü¼ÒºÀ/.iotlink/sdk/IoT_LINK/iot_link/network/lwm2m/wakaama_lwm2m/wakaama-master/core/er-coap-13\er-coap-13.c **** 
 640:C:/Users/²Ü¼ÒºÀ/.iotlink/sdk/IoT_LINK/iot_link/network/lwm2m/wakaama_lwm2m/wakaama-master/core/er-coap-13\er-coap-13.c ****     PRINTF("Dump [0x%02X %02X %02X %02X  %02X %02X %02X %02X]\n",
 641:C:/Users/²Ü¼ÒºÀ/.iotlink/sdk/IoT_LINK/iot_link/network/lwm2m/wakaama_lwm2m/wakaama-master/core/er-coap-13\er-coap-13.c ****            coap_pkt->buffer[0],
 642:C:/Users/²Ü¼ÒºÀ/.iotlink/sdk/IoT_LINK/iot_link/network/lwm2m/wakaama_lwm2m/wakaama-master/core/er-coap-13\er-coap-13.c ****            coap_pkt->buffer[1],
 643:C:/Users/²Ü¼ÒºÀ/.iotlink/sdk/IoT_LINK/iot_link/network/lwm2m/wakaama_lwm2m/wakaama-master/core/er-coap-13\er-coap-13.c ****            coap_pkt->buffer[2],
 644:C:/Users/²Ü¼ÒºÀ/.iotlink/sdk/IoT_LINK/iot_link/network/lwm2m/wakaama_lwm2m/wakaama-master/core/er-coap-13\er-coap-13.c ****            coap_pkt->buffer[3],
ARM GAS  C:\Users\²Ü¼ÒºÀ\AppData\Local\Temp\cczrlpTg.s 			page 54


 645:C:/Users/²Ü¼ÒºÀ/.iotlink/sdk/IoT_LINK/iot_link/network/lwm2m/wakaama_lwm2m/wakaama-master/core/er-coap-13\er-coap-13.c ****            coap_pkt->buffer[4],
 646:C:/Users/²Ü¼ÒºÀ/.iotlink/sdk/IoT_LINK/iot_link/network/lwm2m/wakaama_lwm2m/wakaama-master/core/er-coap-13\er-coap-13.c ****            coap_pkt->buffer[5],
 647:C:/Users/²Ü¼ÒºÀ/.iotlink/sdk/IoT_LINK/iot_link/network/lwm2m/wakaama_lwm2m/wakaama-master/core/er-coap-13\er-coap-13.c ****            coap_pkt->buffer[6],
 648:C:/Users/²Ü¼ÒºÀ/.iotlink/sdk/IoT_LINK/iot_link/network/lwm2m/wakaama_lwm2m/wakaama-master/core/er-coap-13\er-coap-13.c ****            coap_pkt->buffer[7]
 649:C:/Users/²Ü¼ÒºÀ/.iotlink/sdk/IoT_LINK/iot_link/network/lwm2m/wakaama_lwm2m/wakaama-master/core/er-coap-13\er-coap-13.c ****           );
 2134              		.loc 1 649 12 view .LVU730
 650:C:/Users/²Ü¼ÒºÀ/.iotlink/sdk/IoT_LINK/iot_link/network/lwm2m/wakaama_lwm2m/wakaama-master/core/er-coap-13\er-coap-13.c **** 
 651:C:/Users/²Ü¼ÒºÀ/.iotlink/sdk/IoT_LINK/iot_link/network/lwm2m/wakaama_lwm2m/wakaama-master/core/er-coap-13\er-coap-13.c ****     return (option - buffer) + coap_pkt->payload_len; /* packet length */
 2135              		.loc 1 651 5 view .LVU731
 2136              		.loc 1 651 40 is_stmt 0 view .LVU732
 2137 02c4 B4F88600 		ldrh	r0, [r4, #134]
 2138              		.loc 1 651 20 view .LVU733
 2139 02c8 ED1B     		subs	r5, r5, r7
 2140              	.LVL248:
 652:C:/Users/²Ü¼ÒºÀ/.iotlink/sdk/IoT_LINK/iot_link/network/lwm2m/wakaama_lwm2m/wakaama-master/core/er-coap-13\er-coap-13.c **** }
 2141              		.loc 1 652 1 view .LVU734
 2142 02ca 2844     		add	r0, r0, r5
 2143 02cc 05B0     		add	sp, sp, #20
 2144              	.LCFI16:
 2145              		.cfi_remember_state
 2146              		.cfi_def_cfa_offset 36
 2147              		@ sp needed
 2148 02ce BDE8F08F 		pop	{r4, r5, r6, r7, r8, r9, r10, fp, pc}
 2149              	.LVL249:
 2150              	.L141:
 2151              	.LCFI17:
 2152              		.cfi_restore_state
 593:C:/Users/²Ü¼ÒºÀ/.iotlink/sdk/IoT_LINK/iot_link/network/lwm2m/wakaama_lwm2m/wakaama-master/core/er-coap-13\er-coap-13.c ****         *option = coap_pkt->token[current_number];
 2153              		.loc 1 593 57 is_stmt 1 discriminator 3 view .LVU735
 594:C:/Users/²Ü¼ÒºÀ/.iotlink/sdk/IoT_LINK/iot_link/network/lwm2m/wakaama_lwm2m/wakaama-master/core/er-coap-13\er-coap-13.c ****         ++option;
 2154              		.loc 1 594 9 discriminator 3 view .LVU736
 594:C:/Users/²Ü¼ÒºÀ/.iotlink/sdk/IoT_LINK/iot_link/network/lwm2m/wakaama_lwm2m/wakaama-master/core/er-coap-13\er-coap-13.c ****         ++option;
 2155              		.loc 1 594 34 is_stmt 0 discriminator 3 view .LVU737
 2156 02d2 12F8011B 		ldrb	r1, [r2], #1	@ zero_extendqisi2
 594:C:/Users/²Ü¼ÒºÀ/.iotlink/sdk/IoT_LINK/iot_link/network/lwm2m/wakaama_lwm2m/wakaama-master/core/er-coap-13\er-coap-13.c ****         ++option;
 2157              		.loc 1 594 17 discriminator 3 view .LVU738
 2158 02d6 05F8011B 		strb	r1, [r5], #1
 2159              	.LVL250:
 595:C:/Users/²Ü¼ÒºÀ/.iotlink/sdk/IoT_LINK/iot_link/network/lwm2m/wakaama_lwm2m/wakaama-master/core/er-coap-13\er-coap-13.c ****     }
 2160              		.loc 1 595 9 is_stmt 1 discriminator 3 view .LVU739
 591:C:/Users/²Ü¼ÒºÀ/.iotlink/sdk/IoT_LINK/iot_link/network/lwm2m/wakaama_lwm2m/wakaama-master/core/er-coap-13\er-coap-13.c ****     {
 2161              		.loc 1 591 68 discriminator 3 view .LVU740
 2162 02da C4E6     		b	.L140
 2163              	.LVL251:
 2164              	.L155:
 2165              	.LBB93:
 616:C:/Users/²Ü¼ÒºÀ/.iotlink/sdk/IoT_LINK/iot_link/network/lwm2m/wakaama_lwm2m/wakaama-master/core/er-coap-13\er-coap-13.c ****     COAP_SERIALIZE_STRING_OPTION( COAP_OPTION_LOCATION_QUERY, location_query, '&', "Location-Query"
 2166              		.loc 1 616 5 discriminator 4 view .LVU741
 616:C:/Users/²Ü¼ÒºÀ/.iotlink/sdk/IoT_LINK/iot_link/network/lwm2m/wakaama_lwm2m/wakaama-master/core/er-coap-13\er-coap-13.c ****     COAP_SERIALIZE_STRING_OPTION( COAP_OPTION_LOCATION_QUERY, location_query, '&', "Location-Query"
 2167              		.loc 1 616 5 discriminator 4 view .LVU742
 2168 02dc 2A46     		mov	r2, r5
 2169 02de 0146     		mov	r1, r0
 2170 02e0 38F8023B 		ldrh	r3, [r8], #2
 2171 02e4 1120     		movs	r0, #17
 2172              	.LVL252:
 616:C:/Users/²Ü¼ÒºÀ/.iotlink/sdk/IoT_LINK/iot_link/network/lwm2m/wakaama_lwm2m/wakaama-master/core/er-coap-13\er-coap-13.c ****     COAP_SERIALIZE_STRING_OPTION( COAP_OPTION_LOCATION_QUERY, location_query, '&', "Location-Query"
 2173              		.loc 1 616 5 is_stmt 0 discriminator 4 view .LVU743
ARM GAS  C:\Users\²Ü¼ÒºÀ\AppData\Local\Temp\cczrlpTg.s 			page 55


 2174 02e6 FFF7FEFF 		bl	coap_serialize_int_option
 2175              	.LVL253:
 616:C:/Users/²Ü¼ÒºÀ/.iotlink/sdk/IoT_LINK/iot_link/network/lwm2m/wakaama_lwm2m/wakaama-master/core/er-coap-13\er-coap-13.c ****     COAP_SERIALIZE_STRING_OPTION( COAP_OPTION_LOCATION_QUERY, location_query, '&', "Location-Query"
 2176              		.loc 1 616 5 discriminator 4 view .LVU744
 2177 02ea 0136     		adds	r6, r6, #1
 2178              	.LVL254:
 616:C:/Users/²Ü¼ÒºÀ/.iotlink/sdk/IoT_LINK/iot_link/network/lwm2m/wakaama_lwm2m/wakaama-master/core/er-coap-13\er-coap-13.c ****     COAP_SERIALIZE_STRING_OPTION( COAP_OPTION_LOCATION_QUERY, location_query, '&', "Location-Query"
 2179              		.loc 1 616 5 discriminator 4 view .LVU745
 2180 02ec 0544     		add	r5, r5, r0
 2181              	.LVL255:
 616:C:/Users/²Ü¼ÒºÀ/.iotlink/sdk/IoT_LINK/iot_link/network/lwm2m/wakaama_lwm2m/wakaama-master/core/er-coap-13\er-coap-13.c ****     COAP_SERIALIZE_STRING_OPTION( COAP_OPTION_LOCATION_QUERY, location_query, '&', "Location-Query"
 2182              		.loc 1 616 5 is_stmt 1 discriminator 4 view .LVU746
 616:C:/Users/²Ü¼ÒºÀ/.iotlink/sdk/IoT_LINK/iot_link/network/lwm2m/wakaama_lwm2m/wakaama-master/core/er-coap-13\er-coap-13.c ****     COAP_SERIALIZE_STRING_OPTION( COAP_OPTION_LOCATION_QUERY, location_query, '&', "Location-Query"
 2183              		.loc 1 616 5 discriminator 4 view .LVU747
 616:C:/Users/²Ü¼ÒºÀ/.iotlink/sdk/IoT_LINK/iot_link/network/lwm2m/wakaama_lwm2m/wakaama-master/core/er-coap-13\er-coap-13.c ****     COAP_SERIALIZE_STRING_OPTION( COAP_OPTION_LOCATION_QUERY, location_query, '&', "Location-Query"
 2184              		.loc 1 616 5 is_stmt 0 discriminator 4 view .LVU748
 2185 02ee 1120     		movs	r0, #17
 2186 02f0 4CE7     		b	.L154
 2187              	.LBE93:
 2188              		.cfi_endproc
 2189              	.LFE20:
 2191              		.section	.rodata.coap_parse_message.str1.1,"aMS",%progbits,1
 2192              	.LC0:
 2193 0000 436F4150 		.ascii	"CoAP version must be 1\000"
 2193      20766572 
 2193      73696F6E 
 2193      206D7573 
 2193      74206265 
 2194              	.LC1:
 2195 0017 54686973 		.ascii	"This is a constrained server (Contiki)\000"
 2195      20697320 
 2195      6120636F 
 2195      6E737472 
 2195      61696E65 
 2196              	.LC2:
 2197 003e 556E7375 		.ascii	"Unsupported critical option\000"
 2197      70706F72 
 2197      74656420 
 2197      63726974 
 2197      6963616C 
 2198              		.section	.text.coap_parse_message,"ax",%progbits
 2199              		.align	1
 2200              		.global	coap_parse_message
 2201              		.syntax unified
 2202              		.thumb
 2203              		.thumb_func
 2204              		.fpu fpv4-sp-d16
 2206              	coap_parse_message:
 2207              	.LVL256:
 2208              	.LFB21:
 653:C:/Users/²Ü¼ÒºÀ/.iotlink/sdk/IoT_LINK/iot_link/network/lwm2m/wakaama_lwm2m/wakaama-master/core/er-coap-13\er-coap-13.c **** /*-----------------------------------------------------------------------------------*/
 654:C:/Users/²Ü¼ÒºÀ/.iotlink/sdk/IoT_LINK/iot_link/network/lwm2m/wakaama_lwm2m/wakaama-master/core/er-coap-13\er-coap-13.c **** coap_status_t
 655:C:/Users/²Ü¼ÒºÀ/.iotlink/sdk/IoT_LINK/iot_link/network/lwm2m/wakaama_lwm2m/wakaama-master/core/er-coap-13\er-coap-13.c **** coap_parse_message(void *packet, uint8_t *data, uint16_t data_len)
 656:C:/Users/²Ü¼ÒºÀ/.iotlink/sdk/IoT_LINK/iot_link/network/lwm2m/wakaama_lwm2m/wakaama-master/core/er-coap-13\er-coap-13.c **** {
 2209              		.loc 1 656 1 is_stmt 1 view -0
 2210              		.cfi_startproc
 2211              		@ args = 0, pretend = 0, frame = 16
ARM GAS  C:\Users\²Ü¼ÒºÀ\AppData\Local\Temp\cczrlpTg.s 			page 56


 2212              		@ frame_needed = 0, uses_anonymous_args = 0
 657:C:/Users/²Ü¼ÒºÀ/.iotlink/sdk/IoT_LINK/iot_link/network/lwm2m/wakaama_lwm2m/wakaama-master/core/er-coap-13\er-coap-13.c ****     coap_packet_t *const coap_pkt = (coap_packet_t *) packet;
 2213              		.loc 1 657 5 view .LVU750
 658:C:/Users/²Ü¼ÒºÀ/.iotlink/sdk/IoT_LINK/iot_link/network/lwm2m/wakaama_lwm2m/wakaama-master/core/er-coap-13\er-coap-13.c ****     uint8_t *current_option;
 2214              		.loc 1 658 5 view .LVU751
 659:C:/Users/²Ü¼ÒºÀ/.iotlink/sdk/IoT_LINK/iot_link/network/lwm2m/wakaama_lwm2m/wakaama-master/core/er-coap-13\er-coap-13.c ****     unsigned int option_number = 0;
 2215              		.loc 1 659 5 view .LVU752
 660:C:/Users/²Ü¼ÒºÀ/.iotlink/sdk/IoT_LINK/iot_link/network/lwm2m/wakaama_lwm2m/wakaama-master/core/er-coap-13\er-coap-13.c ****     unsigned int option_delta = 0;
 2216              		.loc 1 660 5 view .LVU753
 656:C:/Users/²Ü¼ÒºÀ/.iotlink/sdk/IoT_LINK/iot_link/network/lwm2m/wakaama_lwm2m/wakaama-master/core/er-coap-13\er-coap-13.c ****     coap_packet_t *const coap_pkt = (coap_packet_t *) packet;
 2217              		.loc 1 656 1 is_stmt 0 view .LVU754
 2218 0000 2DE9FF47 		push	{r0, r1, r2, r3, r4, r5, r6, r7, r8, r9, r10, lr}
 2219              	.LCFI18:
 2220              		.cfi_def_cfa_offset 48
 2221              		.cfi_offset 4, -32
 2222              		.cfi_offset 5, -28
 2223              		.cfi_offset 6, -24
 2224              		.cfi_offset 7, -20
 2225              		.cfi_offset 8, -16
 2226              		.cfi_offset 9, -12
 2227              		.cfi_offset 10, -8
 2228              		.cfi_offset 14, -4
 656:C:/Users/²Ü¼ÒºÀ/.iotlink/sdk/IoT_LINK/iot_link/network/lwm2m/wakaama_lwm2m/wakaama-master/core/er-coap-13\er-coap-13.c ****     coap_packet_t *const coap_pkt = (coap_packet_t *) packet;
 2229              		.loc 1 656 1 view .LVU755
 2230 0004 0446     		mov	r4, r0
 2231 0006 0D46     		mov	r5, r1
 2232 0008 9046     		mov	r8, r2
 2233              		.loc 1 660 18 view .LVU756
 2234 000a 0021     		movs	r1, #0
 2235              	.LVL257:
 661:C:/Users/²Ü¼ÒºÀ/.iotlink/sdk/IoT_LINK/iot_link/network/lwm2m/wakaama_lwm2m/wakaama-master/core/er-coap-13\er-coap-13.c ****     size_t option_length = 0;
 662:C:/Users/²Ü¼ÒºÀ/.iotlink/sdk/IoT_LINK/iot_link/network/lwm2m/wakaama_lwm2m/wakaama-master/core/er-coap-13\er-coap-13.c ****     unsigned int *x;
 663:C:/Users/²Ü¼ÒºÀ/.iotlink/sdk/IoT_LINK/iot_link/network/lwm2m/wakaama_lwm2m/wakaama-master/core/er-coap-13\er-coap-13.c **** 
 664:C:/Users/²Ü¼ÒºÀ/.iotlink/sdk/IoT_LINK/iot_link/network/lwm2m/wakaama_lwm2m/wakaama-master/core/er-coap-13\er-coap-13.c ****     /* Initialize packet */
 665:C:/Users/²Ü¼ÒºÀ/.iotlink/sdk/IoT_LINK/iot_link/network/lwm2m/wakaama_lwm2m/wakaama-master/core/er-coap-13\er-coap-13.c ****     memset(coap_pkt, 0, sizeof(coap_packet_t));
 2236              		.loc 1 665 5 view .LVU757
 2237 000c 8822     		movs	r2, #136
 2238              	.LVL258:
 2239              		.loc 1 665 5 view .LVU758
 2240 000e 0430     		adds	r0, r0, #4
 2241              	.LVL259:
 661:C:/Users/²Ü¼ÒºÀ/.iotlink/sdk/IoT_LINK/iot_link/network/lwm2m/wakaama_lwm2m/wakaama-master/core/er-coap-13\er-coap-13.c ****     size_t option_length = 0;
 2242              		.loc 1 661 12 view .LVU759
 2243 0010 CDE90211 		strd	r1, r1, [sp, #8]
 662:C:/Users/²Ü¼ÒºÀ/.iotlink/sdk/IoT_LINK/iot_link/network/lwm2m/wakaama_lwm2m/wakaama-master/core/er-coap-13\er-coap-13.c **** 
 2244              		.loc 1 662 5 is_stmt 1 view .LVU760
 2245              		.loc 1 665 5 view .LVU761
 2246 0014 FFF7FEFF 		bl	memset
 2247              	.LVL260:
 666:C:/Users/²Ü¼ÒºÀ/.iotlink/sdk/IoT_LINK/iot_link/network/lwm2m/wakaama_lwm2m/wakaama-master/core/er-coap-13\er-coap-13.c **** 
 667:C:/Users/²Ü¼ÒºÀ/.iotlink/sdk/IoT_LINK/iot_link/network/lwm2m/wakaama_lwm2m/wakaama-master/core/er-coap-13\er-coap-13.c ****     /* pointer to packet bytes */
