ARM GAS  C:\Users\²Ü¼ÒºÀ\AppData\Local\Temp\cczrlpTg.s 			page 1


   1              		.cpu cortex-m4
   2              		.eabi_attribute 27, 1
   3              		.eabi_attribute 28, 1
   4              		.eabi_attribute 20, 1
   5              		.eabi_attribute 21, 1
   6              		.eabi_attribute 23, 3
   7              		.eabi_attribute 24, 1
   8              		.eabi_attribute 25, 1
   9              		.eabi_attribute 26, 1
  10              		.eabi_attribute 30, 4
  11              		.eabi_attribute 34, 1
  12              		.eabi_attribute 18, 4
  13              		.file	"er-coap-13.c"
  14              		.text
  15              	.Ltext0:
  16              		.cfi_sections	.debug_frame
  17              		.section	.text.coap_parse_int_option,"ax",%progbits
  18              		.align	1
  19              		.arch armv7e-m
  20              		.syntax unified
  21              		.thumb
  22              		.thumb_func
  23              		.fpu fpv4-sp-d16
  25              	coap_parse_int_option:
  26              	.LVL0:
  27              	.LFB5:
  28              		.file 1 "C:/Users/\262\334\274\322\272\300/.iotlink/sdk/IoT_LINK/iot_link/network/lwm2m/wakaama_lw
   1:C:/Users/²Ü¼ÒºÀ/.iotlink/sdk/IoT_LINK/iot_link/network/lwm2m/wakaama_lwm2m/wakaama-master/core/er-coap-13\er-coap-13.c **** /*----------------------------------------------------------------------------
   2:C:/Users/²Ü¼ÒºÀ/.iotlink/sdk/IoT_LINK/iot_link/network/lwm2m/wakaama_lwm2m/wakaama-master/core/er-coap-13\er-coap-13.c ****  * Copyright (c) <2016-2018>, <Huawei Technologies Co., Ltd>
   3:C:/Users/²Ü¼ÒºÀ/.iotlink/sdk/IoT_LINK/iot_link/network/lwm2m/wakaama_lwm2m/wakaama-master/core/er-coap-13\er-coap-13.c ****  * All rights reserved.
   4:C:/Users/²Ü¼ÒºÀ/.iotlink/sdk/IoT_LINK/iot_link/network/lwm2m/wakaama_lwm2m/wakaama-master/core/er-coap-13\er-coap-13.c ****  * Redistribution and use in source and binary forms, with or without modification,
   5:C:/Users/²Ü¼ÒºÀ/.iotlink/sdk/IoT_LINK/iot_link/network/lwm2m/wakaama_lwm2m/wakaama-master/core/er-coap-13\er-coap-13.c ****  * are permitted provided that the following conditions are met:
   6:C:/Users/²Ü¼ÒºÀ/.iotlink/sdk/IoT_LINK/iot_link/network/lwm2m/wakaama_lwm2m/wakaama-master/core/er-coap-13\er-coap-13.c ****  * 1. Redistributions of source code must retain the above copyright notice, this list of
   7:C:/Users/²Ü¼ÒºÀ/.iotlink/sdk/IoT_LINK/iot_link/network/lwm2m/wakaama_lwm2m/wakaama-master/core/er-coap-13\er-coap-13.c ****  * conditions and the following disclaimer.
   8:C:/Users/²Ü¼ÒºÀ/.iotlink/sdk/IoT_LINK/iot_link/network/lwm2m/wakaama_lwm2m/wakaama-master/core/er-coap-13\er-coap-13.c ****  * 2. Redistributions in binary form must reproduce the above copyright notice, this list
   9:C:/Users/²Ü¼ÒºÀ/.iotlink/sdk/IoT_LINK/iot_link/network/lwm2m/wakaama_lwm2m/wakaama-master/core/er-coap-13\er-coap-13.c ****  * of conditions and the following disclaimer in the documentation and/or other materials
  10:C:/Users/²Ü¼ÒºÀ/.iotlink/sdk/IoT_LINK/iot_link/network/lwm2m/wakaama_lwm2m/wakaama-master/core/er-coap-13\er-coap-13.c ****  * provided with the distribution.
  11:C:/Users/²Ü¼ÒºÀ/.iotlink/sdk/IoT_LINK/iot_link/network/lwm2m/wakaama_lwm2m/wakaama-master/core/er-coap-13\er-coap-13.c ****  * 3. Neither the name of the copyright holder nor the names of its contributors may be used
  12:C:/Users/²Ü¼ÒºÀ/.iotlink/sdk/IoT_LINK/iot_link/network/lwm2m/wakaama_lwm2m/wakaama-master/core/er-coap-13\er-coap-13.c ****  * to endorse or promote products derived from this software without specific prior written
  13:C:/Users/²Ü¼ÒºÀ/.iotlink/sdk/IoT_LINK/iot_link/network/lwm2m/wakaama_lwm2m/wakaama-master/core/er-coap-13\er-coap-13.c ****  * permission.
  14:C:/Users/²Ü¼ÒºÀ/.iotlink/sdk/IoT_LINK/iot_link/network/lwm2m/wakaama_lwm2m/wakaama-master/core/er-coap-13\er-coap-13.c ****  * THIS SOFTWARE IS PROVIDED BY THE COPYRIGHT HOLDERS AND CONTRIBUTORS
  15:C:/Users/²Ü¼ÒºÀ/.iotlink/sdk/IoT_LINK/iot_link/network/lwm2m/wakaama_lwm2m/wakaama-master/core/er-coap-13\er-coap-13.c ****  * "AS IS" AND ANY EXPRESS OR IMPLIED WARRANTIES, INCLUDING, BUT NOT LIMITED TO,
  16:C:/Users/²Ü¼ÒºÀ/.iotlink/sdk/IoT_LINK/iot_link/network/lwm2m/wakaama_lwm2m/wakaama-master/core/er-coap-13\er-coap-13.c ****  * THE IMPLIED WARRANTIES OF MERCHANTABILITY AND FITNESS FOR A PARTICULAR
  17:C:/Users/²Ü¼ÒºÀ/.iotlink/sdk/IoT_LINK/iot_link/network/lwm2m/wakaama_lwm2m/wakaama-master/core/er-coap-13\er-coap-13.c ****  * PURPOSE ARE DISCLAIMED. IN NO EVENT SHALL THE COPYRIGHT HOLDER OR
  18:C:/Users/²Ü¼ÒºÀ/.iotlink/sdk/IoT_LINK/iot_link/network/lwm2m/wakaama_lwm2m/wakaama-master/core/er-coap-13\er-coap-13.c ****  * CONTRIBUTORS BE LIABLE FOR ANY DIRECT, INDIRECT, INCIDENTAL, SPECIAL,
  19:C:/Users/²Ü¼ÒºÀ/.iotlink/sdk/IoT_LINK/iot_link/network/lwm2m/wakaama_lwm2m/wakaama-master/core/er-coap-13\er-coap-13.c ****  * EXEMPLARY, OR CONSEQUENTIAL DAMAGES (INCLUDING, BUT NOT LIMITED TO,
  20:C:/Users/²Ü¼ÒºÀ/.iotlink/sdk/IoT_LINK/iot_link/network/lwm2m/wakaama_lwm2m/wakaama-master/core/er-coap-13\er-coap-13.c ****  * PROCUREMENT OF SUBSTITUTE GOODS OR SERVICES; LOSS OF USE, DATA, OR PROFITS;
  21:C:/Users/²Ü¼ÒºÀ/.iotlink/sdk/IoT_LINK/iot_link/network/lwm2m/wakaama_lwm2m/wakaama-master/core/er-coap-13\er-coap-13.c ****  * OR BUSINESS INTERRUPTION) HOWEVER CAUSED AND ON ANY THEORY OF LIABILITY,
  22:C:/Users/²Ü¼ÒºÀ/.iotlink/sdk/IoT_LINK/iot_link/network/lwm2m/wakaama_lwm2m/wakaama-master/core/er-coap-13\er-coap-13.c ****  * WHETHER IN CONTRACT, STRICT LIABILITY, OR TORT (INCLUDING NEGLIGENCE OR
  23:C:/Users/²Ü¼ÒºÀ/.iotlink/sdk/IoT_LINK/iot_link/network/lwm2m/wakaama_lwm2m/wakaama-master/core/er-coap-13\er-coap-13.c ****  * OTHERWISE) ARISING IN ANY WAY OUT OF THE USE OF THIS SOFTWARE, EVEN IF
  24:C:/Users/²Ü¼ÒºÀ/.iotlink/sdk/IoT_LINK/iot_link/network/lwm2m/wakaama_lwm2m/wakaama-master/core/er-coap-13\er-coap-13.c ****  * ADVISED OF THE POSSIBILITY OF SUCH DAMAGE.
  25:C:/Users/²Ü¼ÒºÀ/.iotlink/sdk/IoT_LINK/iot_link/network/lwm2m/wakaama_lwm2m/wakaama-master/core/er-coap-13\er-coap-13.c ****  *---------------------------------------------------------------------------*/
  26:C:/Users/²Ü¼ÒºÀ/.iotlink/sdk/IoT_LINK/iot_link/network/lwm2m/wakaama_lwm2m/wakaama-master/core/er-coap-13\er-coap-13.c **** /*----------------------------------------------------------------------------
  27:C:/Users/²Ü¼ÒºÀ/.iotlink/sdk/IoT_LINK/iot_link/network/lwm2m/wakaama_lwm2m/wakaama-master/core/er-coap-13\er-coap-13.c ****  * Notice of Export Control Law
  28:C:/Users/²Ü¼ÒºÀ/.iotlink/sdk/IoT_LINK/iot_link/network/lwm2m/wakaama_lwm2m/wakaama-master/core/er-coap-13\er-coap-13.c ****  * ===============================================
  29:C:/Users/²Ü¼ÒºÀ/.iotlink/sdk/IoT_LINK/iot_link/network/lwm2m/wakaama_lwm2m/wakaama-master/core/er-coap-13\er-coap-13.c ****  * Huawei LiteOS may be subject to applicable export control laws and regulations, which might
  30:C:/Users/²Ü¼ÒºÀ/.iotlink/sdk/IoT_LINK/iot_link/network/lwm2m/wakaama_lwm2m/wakaama-master/core/er-coap-13\er-coap-13.c ****  * include those applicable to Huawei LiteOS of U.S. and the country in which you are located.
ARM GAS  C:\Users\²Ü¼ÒºÀ\AppData\Local\Temp\cczrlpTg.s 			page 2


  31:C:/Users/²Ü¼ÒºÀ/.iotlink/sdk/IoT_LINK/iot_link/network/lwm2m/wakaama_lwm2m/wakaama-master/core/er-coap-13\er-coap-13.c ****  * Import, export and usage of Huawei LiteOS in any manner by you shall be in compliance with such
  32:C:/Users/²Ü¼ÒºÀ/.iotlink/sdk/IoT_LINK/iot_link/network/lwm2m/wakaama_lwm2m/wakaama-master/core/er-coap-13\er-coap-13.c ****  * applicable export control laws and regulations.
  33:C:/Users/²Ü¼ÒºÀ/.iotlink/sdk/IoT_LINK/iot_link/network/lwm2m/wakaama_lwm2m/wakaama-master/core/er-coap-13\er-coap-13.c ****  *---------------------------------------------------------------------------*/
  34:C:/Users/²Ü¼ÒºÀ/.iotlink/sdk/IoT_LINK/iot_link/network/lwm2m/wakaama_lwm2m/wakaama-master/core/er-coap-13\er-coap-13.c **** 
  35:C:/Users/²Ü¼ÒºÀ/.iotlink/sdk/IoT_LINK/iot_link/network/lwm2m/wakaama_lwm2m/wakaama-master/core/er-coap-13\er-coap-13.c **** /*
  36:C:/Users/²Ü¼ÒºÀ/.iotlink/sdk/IoT_LINK/iot_link/network/lwm2m/wakaama_lwm2m/wakaama-master/core/er-coap-13\er-coap-13.c ****  * Copyright (c) 2013, Institute for Pervasive Computing, ETH Zurich
  37:C:/Users/²Ü¼ÒºÀ/.iotlink/sdk/IoT_LINK/iot_link/network/lwm2m/wakaama_lwm2m/wakaama-master/core/er-coap-13\er-coap-13.c ****  * All rights reserved.
  38:C:/Users/²Ü¼ÒºÀ/.iotlink/sdk/IoT_LINK/iot_link/network/lwm2m/wakaama_lwm2m/wakaama-master/core/er-coap-13\er-coap-13.c ****  *
  39:C:/Users/²Ü¼ÒºÀ/.iotlink/sdk/IoT_LINK/iot_link/network/lwm2m/wakaama_lwm2m/wakaama-master/core/er-coap-13\er-coap-13.c ****  * Redistribution and use in source and binary forms, with or without
  40:C:/Users/²Ü¼ÒºÀ/.iotlink/sdk/IoT_LINK/iot_link/network/lwm2m/wakaama_lwm2m/wakaama-master/core/er-coap-13\er-coap-13.c ****  * modification, are permitted provided that the following conditions
  41:C:/Users/²Ü¼ÒºÀ/.iotlink/sdk/IoT_LINK/iot_link/network/lwm2m/wakaama_lwm2m/wakaama-master/core/er-coap-13\er-coap-13.c ****  * are met:
  42:C:/Users/²Ü¼ÒºÀ/.iotlink/sdk/IoT_LINK/iot_link/network/lwm2m/wakaama_lwm2m/wakaama-master/core/er-coap-13\er-coap-13.c ****  * 1. Redistributions of source code must retain the above copyright
  43:C:/Users/²Ü¼ÒºÀ/.iotlink/sdk/IoT_LINK/iot_link/network/lwm2m/wakaama_lwm2m/wakaama-master/core/er-coap-13\er-coap-13.c ****  *    notice, this list of conditions and the following disclaimer.
  44:C:/Users/²Ü¼ÒºÀ/.iotlink/sdk/IoT_LINK/iot_link/network/lwm2m/wakaama_lwm2m/wakaama-master/core/er-coap-13\er-coap-13.c ****  * 2. Redistributions in binary form must reproduce the above copyright
  45:C:/Users/²Ü¼ÒºÀ/.iotlink/sdk/IoT_LINK/iot_link/network/lwm2m/wakaama_lwm2m/wakaama-master/core/er-coap-13\er-coap-13.c ****  *    notice, this list of conditions and the following disclaimer in the
  46:C:/Users/²Ü¼ÒºÀ/.iotlink/sdk/IoT_LINK/iot_link/network/lwm2m/wakaama_lwm2m/wakaama-master/core/er-coap-13\er-coap-13.c ****  *    documentation and/or other materials provided with the distribution.
  47:C:/Users/²Ü¼ÒºÀ/.iotlink/sdk/IoT_LINK/iot_link/network/lwm2m/wakaama_lwm2m/wakaama-master/core/er-coap-13\er-coap-13.c ****  * 3. Neither the name of the Institute nor the names of its contributors
  48:C:/Users/²Ü¼ÒºÀ/.iotlink/sdk/IoT_LINK/iot_link/network/lwm2m/wakaama_lwm2m/wakaama-master/core/er-coap-13\er-coap-13.c ****  *    may be used to endorse or promote products derived from this software
  49:C:/Users/²Ü¼ÒºÀ/.iotlink/sdk/IoT_LINK/iot_link/network/lwm2m/wakaama_lwm2m/wakaama-master/core/er-coap-13\er-coap-13.c ****  *    without specific prior written permission.
  50:C:/Users/²Ü¼ÒºÀ/.iotlink/sdk/IoT_LINK/iot_link/network/lwm2m/wakaama_lwm2m/wakaama-master/core/er-coap-13\er-coap-13.c ****  *
  51:C:/Users/²Ü¼ÒºÀ/.iotlink/sdk/IoT_LINK/iot_link/network/lwm2m/wakaama_lwm2m/wakaama-master/core/er-coap-13\er-coap-13.c ****  * THIS SOFTWARE IS PROVIDED BY THE INSTITUTE AND CONTRIBUTORS ``AS IS'' AND
  52:C:/Users/²Ü¼ÒºÀ/.iotlink/sdk/IoT_LINK/iot_link/network/lwm2m/wakaama_lwm2m/wakaama-master/core/er-coap-13\er-coap-13.c ****  * ANY EXPRESS OR IMPLIED WARRANTIES, INCLUDING, BUT NOT LIMITED TO, THE
  53:C:/Users/²Ü¼ÒºÀ/.iotlink/sdk/IoT_LINK/iot_link/network/lwm2m/wakaama_lwm2m/wakaama-master/core/er-coap-13\er-coap-13.c ****  * IMPLIED WARRANTIES OF MERCHANTABILITY AND FITNESS FOR A PARTICULAR PURPOSE
  54:C:/Users/²Ü¼ÒºÀ/.iotlink/sdk/IoT_LINK/iot_link/network/lwm2m/wakaama_lwm2m/wakaama-master/core/er-coap-13\er-coap-13.c ****  * ARE DISCLAIMED.  IN NO EVENT SHALL THE INSTITUTE OR CONTRIBUTORS BE LIABLE
  55:C:/Users/²Ü¼ÒºÀ/.iotlink/sdk/IoT_LINK/iot_link/network/lwm2m/wakaama_lwm2m/wakaama-master/core/er-coap-13\er-coap-13.c ****  * FOR ANY DIRECT, INDIRECT, INCIDENTAL, SPECIAL, EXEMPLARY, OR CONSEQUENTIAL
  56:C:/Users/²Ü¼ÒºÀ/.iotlink/sdk/IoT_LINK/iot_link/network/lwm2m/wakaama_lwm2m/wakaama-master/core/er-coap-13\er-coap-13.c ****  * DAMAGES (INCLUDING, BUT NOT LIMITED TO, PROCUREMENT OF SUBSTITUTE GOODS
  57:C:/Users/²Ü¼ÒºÀ/.iotlink/sdk/IoT_LINK/iot_link/network/lwm2m/wakaama_lwm2m/wakaama-master/core/er-coap-13\er-coap-13.c ****  * OR SERVICES; LOSS OF USE, DATA, OR PROFITS; OR BUSINESS INTERRUPTION)
  58:C:/Users/²Ü¼ÒºÀ/.iotlink/sdk/IoT_LINK/iot_link/network/lwm2m/wakaama_lwm2m/wakaama-master/core/er-coap-13\er-coap-13.c ****  * HOWEVER CAUSED AND ON ANY THEORY OF LIABILITY, WHETHER IN CONTRACT, STRICT
  59:C:/Users/²Ü¼ÒºÀ/.iotlink/sdk/IoT_LINK/iot_link/network/lwm2m/wakaama_lwm2m/wakaama-master/core/er-coap-13\er-coap-13.c ****  * LIABILITY, OR TORT (INCLUDING NEGLIGENCE OR OTHERWISE) ARISING IN ANY WAY
  60:C:/Users/²Ü¼ÒºÀ/.iotlink/sdk/IoT_LINK/iot_link/network/lwm2m/wakaama_lwm2m/wakaama-master/core/er-coap-13\er-coap-13.c ****  * OUT OF THE USE OF THIS SOFTWARE, EVEN IF ADVISED OF THE POSSIBILITY OF
  61:C:/Users/²Ü¼ÒºÀ/.iotlink/sdk/IoT_LINK/iot_link/network/lwm2m/wakaama_lwm2m/wakaama-master/core/er-coap-13\er-coap-13.c ****  * SUCH DAMAGE.
  62:C:/Users/²Ü¼ÒºÀ/.iotlink/sdk/IoT_LINK/iot_link/network/lwm2m/wakaama_lwm2m/wakaama-master/core/er-coap-13\er-coap-13.c ****  *
  63:C:/Users/²Ü¼ÒºÀ/.iotlink/sdk/IoT_LINK/iot_link/network/lwm2m/wakaama_lwm2m/wakaama-master/core/er-coap-13\er-coap-13.c ****  * This file is part of the Contiki operating system.
  64:C:/Users/²Ü¼ÒºÀ/.iotlink/sdk/IoT_LINK/iot_link/network/lwm2m/wakaama_lwm2m/wakaama-master/core/er-coap-13\er-coap-13.c ****  */
  65:C:/Users/²Ü¼ÒºÀ/.iotlink/sdk/IoT_LINK/iot_link/network/lwm2m/wakaama_lwm2m/wakaama-master/core/er-coap-13\er-coap-13.c **** 
  66:C:/Users/²Ü¼ÒºÀ/.iotlink/sdk/IoT_LINK/iot_link/network/lwm2m/wakaama_lwm2m/wakaama-master/core/er-coap-13\er-coap-13.c **** /**
  67:C:/Users/²Ü¼ÒºÀ/.iotlink/sdk/IoT_LINK/iot_link/network/lwm2m/wakaama_lwm2m/wakaama-master/core/er-coap-13\er-coap-13.c ****  * \file
  68:C:/Users/²Ü¼ÒºÀ/.iotlink/sdk/IoT_LINK/iot_link/network/lwm2m/wakaama_lwm2m/wakaama-master/core/er-coap-13\er-coap-13.c ****  *      An implementation of the Constrained Application Protocol (draft 12)
  69:C:/Users/²Ü¼ÒºÀ/.iotlink/sdk/IoT_LINK/iot_link/network/lwm2m/wakaama_lwm2m/wakaama-master/core/er-coap-13\er-coap-13.c ****  * \author
  70:C:/Users/²Ü¼ÒºÀ/.iotlink/sdk/IoT_LINK/iot_link/network/lwm2m/wakaama_lwm2m/wakaama-master/core/er-coap-13\er-coap-13.c ****  *      Matthias Kovatsch <kovatsch@inf.ethz.ch>
  71:C:/Users/²Ü¼ÒºÀ/.iotlink/sdk/IoT_LINK/iot_link/network/lwm2m/wakaama_lwm2m/wakaama-master/core/er-coap-13\er-coap-13.c ****  * \contributors
  72:C:/Users/²Ü¼ÒºÀ/.iotlink/sdk/IoT_LINK/iot_link/network/lwm2m/wakaama_lwm2m/wakaama-master/core/er-coap-13\er-coap-13.c ****  *    David Navarro, Intel Corporation - Adapt to usage in liblwm2m
  73:C:/Users/²Ü¼ÒºÀ/.iotlink/sdk/IoT_LINK/iot_link/network/lwm2m/wakaama_lwm2m/wakaama-master/core/er-coap-13\er-coap-13.c ****  */
  74:C:/Users/²Ü¼ÒºÀ/.iotlink/sdk/IoT_LINK/iot_link/network/lwm2m/wakaama_lwm2m/wakaama-master/core/er-coap-13\er-coap-13.c **** 
  75:C:/Users/²Ü¼ÒºÀ/.iotlink/sdk/IoT_LINK/iot_link/network/lwm2m/wakaama_lwm2m/wakaama-master/core/er-coap-13\er-coap-13.c **** 
  76:C:/Users/²Ü¼ÒºÀ/.iotlink/sdk/IoT_LINK/iot_link/network/lwm2m/wakaama_lwm2m/wakaama-master/core/er-coap-13\er-coap-13.c **** #include <stdlib.h>
  77:C:/Users/²Ü¼ÒºÀ/.iotlink/sdk/IoT_LINK/iot_link/network/lwm2m/wakaama_lwm2m/wakaama-master/core/er-coap-13\er-coap-13.c **** 
  78:C:/Users/²Ü¼ÒºÀ/.iotlink/sdk/IoT_LINK/iot_link/network/lwm2m/wakaama_lwm2m/wakaama-master/core/er-coap-13\er-coap-13.c **** #include <string.h>
  79:C:/Users/²Ü¼ÒºÀ/.iotlink/sdk/IoT_LINK/iot_link/network/lwm2m/wakaama_lwm2m/wakaama-master/core/er-coap-13\er-coap-13.c **** #include <stdio.h>
  80:C:/Users/²Ü¼ÒºÀ/.iotlink/sdk/IoT_LINK/iot_link/network/lwm2m/wakaama_lwm2m/wakaama-master/core/er-coap-13\er-coap-13.c **** 
  81:C:/Users/²Ü¼ÒºÀ/.iotlink/sdk/IoT_LINK/iot_link/network/lwm2m/wakaama_lwm2m/wakaama-master/core/er-coap-13\er-coap-13.c **** #include "er-coap-13.h"
  82:C:/Users/²Ü¼ÒºÀ/.iotlink/sdk/IoT_LINK/iot_link/network/lwm2m/wakaama_lwm2m/wakaama-master/core/er-coap-13\er-coap-13.c **** #include "internals.h"
  83:C:/Users/²Ü¼ÒºÀ/.iotlink/sdk/IoT_LINK/iot_link/network/lwm2m/wakaama_lwm2m/wakaama-master/core/er-coap-13\er-coap-13.c **** #include "liblwm2m.h" /* for lwm2m_malloc() and lwm2m_free() */
  84:C:/Users/²Ü¼ÒºÀ/.iotlink/sdk/IoT_LINK/iot_link/network/lwm2m/wakaama_lwm2m/wakaama-master/core/er-coap-13\er-coap-13.c **** 
  85:C:/Users/²Ü¼ÒºÀ/.iotlink/sdk/IoT_LINK/iot_link/network/lwm2m/wakaama_lwm2m/wakaama-master/core/er-coap-13\er-coap-13.c **** #define DEBUG 0
  86:C:/Users/²Ü¼ÒºÀ/.iotlink/sdk/IoT_LINK/iot_link/network/lwm2m/wakaama_lwm2m/wakaama-master/core/er-coap-13\er-coap-13.c **** #if DEBUG
  87:C:/Users/²Ü¼ÒºÀ/.iotlink/sdk/IoT_LINK/iot_link/network/lwm2m/wakaama_lwm2m/wakaama-master/core/er-coap-13\er-coap-13.c **** #include <stdio.h>
ARM GAS  C:\Users\²Ü¼ÒºÀ\AppData\Local\Temp\cczrlpTg.s 			page 3


  88:C:/Users/²Ü¼ÒºÀ/.iotlink/sdk/IoT_LINK/iot_link/network/lwm2m/wakaama_lwm2m/wakaama-master/core/er-coap-13\er-coap-13.c **** #define PRINTF(...) printf(__VA_ARGS__)
  89:C:/Users/²Ü¼ÒºÀ/.iotlink/sdk/IoT_LINK/iot_link/network/lwm2m/wakaama_lwm2m/wakaama-master/core/er-coap-13\er-coap-13.c **** #define PRINT6ADDR(addr) PRINTF("[%02x%02x:%02x%02x:%02x%02x:%02x%02x:%02x%02x:%02x%02x:%02x%02x:%0
  90:C:/Users/²Ü¼ÒºÀ/.iotlink/sdk/IoT_LINK/iot_link/network/lwm2m/wakaama_lwm2m/wakaama-master/core/er-coap-13\er-coap-13.c **** #define PRINTLLADDR(lladdr) PRINTF("[%02x:%02x:%02x:%02x:%02x:%02x]",(lladdr)->addr[0], (lladdr)->a
  91:C:/Users/²Ü¼ÒºÀ/.iotlink/sdk/IoT_LINK/iot_link/network/lwm2m/wakaama_lwm2m/wakaama-master/core/er-coap-13\er-coap-13.c **** #else
  92:C:/Users/²Ü¼ÒºÀ/.iotlink/sdk/IoT_LINK/iot_link/network/lwm2m/wakaama_lwm2m/wakaama-master/core/er-coap-13\er-coap-13.c **** #define PRINTF(...)
  93:C:/Users/²Ü¼ÒºÀ/.iotlink/sdk/IoT_LINK/iot_link/network/lwm2m/wakaama_lwm2m/wakaama-master/core/er-coap-13\er-coap-13.c **** #define PRINT6ADDR(addr)
  94:C:/Users/²Ü¼ÒºÀ/.iotlink/sdk/IoT_LINK/iot_link/network/lwm2m/wakaama_lwm2m/wakaama-master/core/er-coap-13\er-coap-13.c **** #define PRINTLLADDR(addr)
  95:C:/Users/²Ü¼ÒºÀ/.iotlink/sdk/IoT_LINK/iot_link/network/lwm2m/wakaama_lwm2m/wakaama-master/core/er-coap-13\er-coap-13.c **** #endif
  96:C:/Users/²Ü¼ÒºÀ/.iotlink/sdk/IoT_LINK/iot_link/network/lwm2m/wakaama_lwm2m/wakaama-master/core/er-coap-13\er-coap-13.c **** 
  97:C:/Users/²Ü¼ÒºÀ/.iotlink/sdk/IoT_LINK/iot_link/network/lwm2m/wakaama_lwm2m/wakaama-master/core/er-coap-13\er-coap-13.c **** /*-----------------------------------------------------------------------------------*/
  98:C:/Users/²Ü¼ÒºÀ/.iotlink/sdk/IoT_LINK/iot_link/network/lwm2m/wakaama_lwm2m/wakaama-master/core/er-coap-13\er-coap-13.c **** /*- Variables -----------------------------------------------------------------------*/
  99:C:/Users/²Ü¼ÒºÀ/.iotlink/sdk/IoT_LINK/iot_link/network/lwm2m/wakaama_lwm2m/wakaama-master/core/er-coap-13\er-coap-13.c **** /*-----------------------------------------------------------------------------------*/
 100:C:/Users/²Ü¼ÒºÀ/.iotlink/sdk/IoT_LINK/iot_link/network/lwm2m/wakaama_lwm2m/wakaama-master/core/er-coap-13\er-coap-13.c **** static uint16_t current_mid = 0;
 101:C:/Users/²Ü¼ÒºÀ/.iotlink/sdk/IoT_LINK/iot_link/network/lwm2m/wakaama_lwm2m/wakaama-master/core/er-coap-13\er-coap-13.c **** 
 102:C:/Users/²Ü¼ÒºÀ/.iotlink/sdk/IoT_LINK/iot_link/network/lwm2m/wakaama_lwm2m/wakaama-master/core/er-coap-13\er-coap-13.c **** coap_status_t coap_error_code = NO_ERROR;
 103:C:/Users/²Ü¼ÒºÀ/.iotlink/sdk/IoT_LINK/iot_link/network/lwm2m/wakaama_lwm2m/wakaama-master/core/er-coap-13\er-coap-13.c **** const char *coap_error_message = "";
 104:C:/Users/²Ü¼ÒºÀ/.iotlink/sdk/IoT_LINK/iot_link/network/lwm2m/wakaama_lwm2m/wakaama-master/core/er-coap-13\er-coap-13.c **** /*-----------------------------------------------------------------------------------*/
 105:C:/Users/²Ü¼ÒºÀ/.iotlink/sdk/IoT_LINK/iot_link/network/lwm2m/wakaama_lwm2m/wakaama-master/core/er-coap-13\er-coap-13.c **** /*- LOCAL HELP FUNCTIONS ------------------------------------------------------------*/
 106:C:/Users/²Ü¼ÒºÀ/.iotlink/sdk/IoT_LINK/iot_link/network/lwm2m/wakaama_lwm2m/wakaama-master/core/er-coap-13\er-coap-13.c **** /*-----------------------------------------------------------------------------------*/
 107:C:/Users/²Ü¼ÒºÀ/.iotlink/sdk/IoT_LINK/iot_link/network/lwm2m/wakaama_lwm2m/wakaama-master/core/er-coap-13\er-coap-13.c **** static
 108:C:/Users/²Ü¼ÒºÀ/.iotlink/sdk/IoT_LINK/iot_link/network/lwm2m/wakaama_lwm2m/wakaama-master/core/er-coap-13\er-coap-13.c **** uint16_t
 109:C:/Users/²Ü¼ÒºÀ/.iotlink/sdk/IoT_LINK/iot_link/network/lwm2m/wakaama_lwm2m/wakaama-master/core/er-coap-13\er-coap-13.c **** coap_log_2(uint16_t value)
 110:C:/Users/²Ü¼ÒºÀ/.iotlink/sdk/IoT_LINK/iot_link/network/lwm2m/wakaama_lwm2m/wakaama-master/core/er-coap-13\er-coap-13.c **** {
 111:C:/Users/²Ü¼ÒºÀ/.iotlink/sdk/IoT_LINK/iot_link/network/lwm2m/wakaama_lwm2m/wakaama-master/core/er-coap-13\er-coap-13.c ****     uint16_t result = 0;
 112:C:/Users/²Ü¼ÒºÀ/.iotlink/sdk/IoT_LINK/iot_link/network/lwm2m/wakaama_lwm2m/wakaama-master/core/er-coap-13\er-coap-13.c ****     do
 113:C:/Users/²Ü¼ÒºÀ/.iotlink/sdk/IoT_LINK/iot_link/network/lwm2m/wakaama_lwm2m/wakaama-master/core/er-coap-13\er-coap-13.c ****     {
 114:C:/Users/²Ü¼ÒºÀ/.iotlink/sdk/IoT_LINK/iot_link/network/lwm2m/wakaama_lwm2m/wakaama-master/core/er-coap-13\er-coap-13.c ****         value = value >> 1;
 115:C:/Users/²Ü¼ÒºÀ/.iotlink/sdk/IoT_LINK/iot_link/network/lwm2m/wakaama_lwm2m/wakaama-master/core/er-coap-13\er-coap-13.c ****         result++;
 116:C:/Users/²Ü¼ÒºÀ/.iotlink/sdk/IoT_LINK/iot_link/network/lwm2m/wakaama_lwm2m/wakaama-master/core/er-coap-13\er-coap-13.c ****     }
 117:C:/Users/²Ü¼ÒºÀ/.iotlink/sdk/IoT_LINK/iot_link/network/lwm2m/wakaama_lwm2m/wakaama-master/core/er-coap-13\er-coap-13.c ****     while (value);
 118:C:/Users/²Ü¼ÒºÀ/.iotlink/sdk/IoT_LINK/iot_link/network/lwm2m/wakaama_lwm2m/wakaama-master/core/er-coap-13\er-coap-13.c **** 
 119:C:/Users/²Ü¼ÒºÀ/.iotlink/sdk/IoT_LINK/iot_link/network/lwm2m/wakaama_lwm2m/wakaama-master/core/er-coap-13\er-coap-13.c ****     return result ? result - 1 : result;
 120:C:/Users/²Ü¼ÒºÀ/.iotlink/sdk/IoT_LINK/iot_link/network/lwm2m/wakaama_lwm2m/wakaama-master/core/er-coap-13\er-coap-13.c **** }
 121:C:/Users/²Ü¼ÒºÀ/.iotlink/sdk/IoT_LINK/iot_link/network/lwm2m/wakaama_lwm2m/wakaama-master/core/er-coap-13\er-coap-13.c **** /*-----------------------------------------------------------------------------------*/
 122:C:/Users/²Ü¼ÒºÀ/.iotlink/sdk/IoT_LINK/iot_link/network/lwm2m/wakaama_lwm2m/wakaama-master/core/er-coap-13\er-coap-13.c **** static
 123:C:/Users/²Ü¼ÒºÀ/.iotlink/sdk/IoT_LINK/iot_link/network/lwm2m/wakaama_lwm2m/wakaama-master/core/er-coap-13\er-coap-13.c **** uint32_t
 124:C:/Users/²Ü¼ÒºÀ/.iotlink/sdk/IoT_LINK/iot_link/network/lwm2m/wakaama_lwm2m/wakaama-master/core/er-coap-13\er-coap-13.c **** coap_parse_int_option(uint8_t *bytes, size_t length)
 125:C:/Users/²Ü¼ÒºÀ/.iotlink/sdk/IoT_LINK/iot_link/network/lwm2m/wakaama_lwm2m/wakaama-master/core/er-coap-13\er-coap-13.c **** {
  29              		.loc 1 125 1 view -0
  30              		.cfi_startproc
  31              		@ args = 0, pretend = 0, frame = 0
  32              		@ frame_needed = 0, uses_anonymous_args = 0
  33              		@ link register save eliminated.
 126:C:/Users/²Ü¼ÒºÀ/.iotlink/sdk/IoT_LINK/iot_link/network/lwm2m/wakaama_lwm2m/wakaama-master/core/er-coap-13\er-coap-13.c ****     uint32_t var = 0;
  34              		.loc 1 126 5 view .LVU1
 127:C:/Users/²Ü¼ÒºÀ/.iotlink/sdk/IoT_LINK/iot_link/network/lwm2m/wakaama_lwm2m/wakaama-master/core/er-coap-13\er-coap-13.c ****     size_t i = 0;
  35              		.loc 1 127 5 view .LVU2
 128:C:/Users/²Ü¼ÒºÀ/.iotlink/sdk/IoT_LINK/iot_link/network/lwm2m/wakaama_lwm2m/wakaama-master/core/er-coap-13\er-coap-13.c ****     while (i < length)
  36              		.loc 1 128 5 view .LVU3
  37 0000 0144     		add	r1, r1, r0
  38              	.LVL1:
 126:C:/Users/²Ü¼ÒºÀ/.iotlink/sdk/IoT_LINK/iot_link/network/lwm2m/wakaama_lwm2m/wakaama-master/core/er-coap-13\er-coap-13.c ****     uint32_t var = 0;
  39              		.loc 1 126 14 is_stmt 0 view .LVU4
  40 0002 0023     		movs	r3, #0
  41              	.LVL2:
  42              	.L2:
  43              		.loc 1 128 11 is_stmt 1 view .LVU5
ARM GAS  C:\Users\²Ü¼ÒºÀ\AppData\Local\Temp\cczrlpTg.s 			page 4


  44 0004 8842     		cmp	r0, r1
  45 0006 01D1     		bne	.L3
 129:C:/Users/²Ü¼ÒºÀ/.iotlink/sdk/IoT_LINK/iot_link/network/lwm2m/wakaama_lwm2m/wakaama-master/core/er-coap-13\er-coap-13.c ****     {
 130:C:/Users/²Ü¼ÒºÀ/.iotlink/sdk/IoT_LINK/iot_link/network/lwm2m/wakaama_lwm2m/wakaama-master/core/er-coap-13\er-coap-13.c ****         var <<= 8;
 131:C:/Users/²Ü¼ÒºÀ/.iotlink/sdk/IoT_LINK/iot_link/network/lwm2m/wakaama_lwm2m/wakaama-master/core/er-coap-13\er-coap-13.c ****         var |= bytes[i++];
 132:C:/Users/²Ü¼ÒºÀ/.iotlink/sdk/IoT_LINK/iot_link/network/lwm2m/wakaama_lwm2m/wakaama-master/core/er-coap-13\er-coap-13.c ****     }
 133:C:/Users/²Ü¼ÒºÀ/.iotlink/sdk/IoT_LINK/iot_link/network/lwm2m/wakaama_lwm2m/wakaama-master/core/er-coap-13\er-coap-13.c ****     return var;
  46              		.loc 1 133 5 view .LVU6
 134:C:/Users/²Ü¼ÒºÀ/.iotlink/sdk/IoT_LINK/iot_link/network/lwm2m/wakaama_lwm2m/wakaama-master/core/er-coap-13\er-coap-13.c **** }
  47              		.loc 1 134 1 is_stmt 0 view .LVU7
  48 0008 1846     		mov	r0, r3
  49              	.LVL3:
  50              		.loc 1 134 1 view .LVU8
  51 000a 7047     		bx	lr
  52              	.LVL4:
  53              	.L3:
 130:C:/Users/²Ü¼ÒºÀ/.iotlink/sdk/IoT_LINK/iot_link/network/lwm2m/wakaama_lwm2m/wakaama-master/core/er-coap-13\er-coap-13.c ****         var |= bytes[i++];
  54              		.loc 1 130 9 is_stmt 1 view .LVU9
 131:C:/Users/²Ü¼ÒºÀ/.iotlink/sdk/IoT_LINK/iot_link/network/lwm2m/wakaama_lwm2m/wakaama-master/core/er-coap-13\er-coap-13.c ****     }
  55              		.loc 1 131 9 view .LVU10
 131:C:/Users/²Ü¼ÒºÀ/.iotlink/sdk/IoT_LINK/iot_link/network/lwm2m/wakaama_lwm2m/wakaama-master/core/er-coap-13\er-coap-13.c ****     }
  56              		.loc 1 131 21 is_stmt 0 view .LVU11
  57 000c 10F8012B 		ldrb	r2, [r0], #1	@ zero_extendqisi2
  58              	.LVL5:
 131:C:/Users/²Ü¼ÒºÀ/.iotlink/sdk/IoT_LINK/iot_link/network/lwm2m/wakaama_lwm2m/wakaama-master/core/er-coap-13\er-coap-13.c ****     }
  59              		.loc 1 131 13 view .LVU12
  60 0010 42EA0323 		orr	r3, r2, r3, lsl #8
  61              	.LVL6:
 131:C:/Users/²Ü¼ÒºÀ/.iotlink/sdk/IoT_LINK/iot_link/network/lwm2m/wakaama_lwm2m/wakaama-master/core/er-coap-13\er-coap-13.c ****     }
  62              		.loc 1 131 13 view .LVU13
  63 0014 F6E7     		b	.L2
  64              		.cfi_endproc
  65              	.LFE5:
  67              		.section	.text.coap_set_option_header,"ax",%progbits
  68              		.align	1
  69              		.syntax unified
  70              		.thumb
  71              		.thumb_func
  72              		.fpu fpv4-sp-d16
  74              	coap_set_option_header:
  75              	.LVL7:
  76              	.LFB7:
 135:C:/Users/²Ü¼ÒºÀ/.iotlink/sdk/IoT_LINK/iot_link/network/lwm2m/wakaama_lwm2m/wakaama-master/core/er-coap-13\er-coap-13.c **** /*-----------------------------------------------------------------------------------*/
 136:C:/Users/²Ü¼ÒºÀ/.iotlink/sdk/IoT_LINK/iot_link/network/lwm2m/wakaama_lwm2m/wakaama-master/core/er-coap-13\er-coap-13.c **** static
 137:C:/Users/²Ü¼ÒºÀ/.iotlink/sdk/IoT_LINK/iot_link/network/lwm2m/wakaama_lwm2m/wakaama-master/core/er-coap-13\er-coap-13.c **** uint8_t
 138:C:/Users/²Ü¼ÒºÀ/.iotlink/sdk/IoT_LINK/iot_link/network/lwm2m/wakaama_lwm2m/wakaama-master/core/er-coap-13\er-coap-13.c **** coap_option_nibble(unsigned int value)
 139:C:/Users/²Ü¼ÒºÀ/.iotlink/sdk/IoT_LINK/iot_link/network/lwm2m/wakaama_lwm2m/wakaama-master/core/er-coap-13\er-coap-13.c **** {
 140:C:/Users/²Ü¼ÒºÀ/.iotlink/sdk/IoT_LINK/iot_link/network/lwm2m/wakaama_lwm2m/wakaama-master/core/er-coap-13\er-coap-13.c ****     if (value < 13)
 141:C:/Users/²Ü¼ÒºÀ/.iotlink/sdk/IoT_LINK/iot_link/network/lwm2m/wakaama_lwm2m/wakaama-master/core/er-coap-13\er-coap-13.c ****     {
 142:C:/Users/²Ü¼ÒºÀ/.iotlink/sdk/IoT_LINK/iot_link/network/lwm2m/wakaama_lwm2m/wakaama-master/core/er-coap-13\er-coap-13.c ****         return value;
 143:C:/Users/²Ü¼ÒºÀ/.iotlink/sdk/IoT_LINK/iot_link/network/lwm2m/wakaama_lwm2m/wakaama-master/core/er-coap-13\er-coap-13.c ****     }
 144:C:/Users/²Ü¼ÒºÀ/.iotlink/sdk/IoT_LINK/iot_link/network/lwm2m/wakaama_lwm2m/wakaama-master/core/er-coap-13\er-coap-13.c ****     else if (value <= 0xFF + 13)
 145:C:/Users/²Ü¼ÒºÀ/.iotlink/sdk/IoT_LINK/iot_link/network/lwm2m/wakaama_lwm2m/wakaama-master/core/er-coap-13\er-coap-13.c ****     {
 146:C:/Users/²Ü¼ÒºÀ/.iotlink/sdk/IoT_LINK/iot_link/network/lwm2m/wakaama_lwm2m/wakaama-master/core/er-coap-13\er-coap-13.c ****         return 13;
 147:C:/Users/²Ü¼ÒºÀ/.iotlink/sdk/IoT_LINK/iot_link/network/lwm2m/wakaama_lwm2m/wakaama-master/core/er-coap-13\er-coap-13.c ****     }
 148:C:/Users/²Ü¼ÒºÀ/.iotlink/sdk/IoT_LINK/iot_link/network/lwm2m/wakaama_lwm2m/wakaama-master/core/er-coap-13\er-coap-13.c ****     else
 149:C:/Users/²Ü¼ÒºÀ/.iotlink/sdk/IoT_LINK/iot_link/network/lwm2m/wakaama_lwm2m/wakaama-master/core/er-coap-13\er-coap-13.c ****     {
ARM GAS  C:\Users\²Ü¼ÒºÀ\AppData\Local\Temp\cczrlpTg.s 			page 5


 150:C:/Users/²Ü¼ÒºÀ/.iotlink/sdk/IoT_LINK/iot_link/network/lwm2m/wakaama_lwm2m/wakaama-master/core/er-coap-13\er-coap-13.c ****         return 14;
 151:C:/Users/²Ü¼ÒºÀ/.iotlink/sdk/IoT_LINK/iot_link/network/lwm2m/wakaama_lwm2m/wakaama-master/core/er-coap-13\er-coap-13.c ****     }
 152:C:/Users/²Ü¼ÒºÀ/.iotlink/sdk/IoT_LINK/iot_link/network/lwm2m/wakaama_lwm2m/wakaama-master/core/er-coap-13\er-coap-13.c **** }
 153:C:/Users/²Ü¼ÒºÀ/.iotlink/sdk/IoT_LINK/iot_link/network/lwm2m/wakaama_lwm2m/wakaama-master/core/er-coap-13\er-coap-13.c **** /*-----------------------------------------------------------------------------------*/
 154:C:/Users/²Ü¼ÒºÀ/.iotlink/sdk/IoT_LINK/iot_link/network/lwm2m/wakaama_lwm2m/wakaama-master/core/er-coap-13\er-coap-13.c **** static
 155:C:/Users/²Ü¼ÒºÀ/.iotlink/sdk/IoT_LINK/iot_link/network/lwm2m/wakaama_lwm2m/wakaama-master/core/er-coap-13\er-coap-13.c **** size_t
 156:C:/Users/²Ü¼ÒºÀ/.iotlink/sdk/IoT_LINK/iot_link/network/lwm2m/wakaama_lwm2m/wakaama-master/core/er-coap-13\er-coap-13.c **** coap_set_option_header(unsigned int delta, size_t length, uint8_t *buffer)
 157:C:/Users/²Ü¼ÒºÀ/.iotlink/sdk/IoT_LINK/iot_link/network/lwm2m/wakaama_lwm2m/wakaama-master/core/er-coap-13\er-coap-13.c **** {
  77              		.loc 1 157 1 is_stmt 1 view -0
  78              		.cfi_startproc
  79              		@ args = 0, pretend = 0, frame = 8
  80              		@ frame_needed = 0, uses_anonymous_args = 0
 158:C:/Users/²Ü¼ÒºÀ/.iotlink/sdk/IoT_LINK/iot_link/network/lwm2m/wakaama_lwm2m/wakaama-master/core/er-coap-13\er-coap-13.c ****     size_t written = 0;
  81              		.loc 1 158 5 view .LVU15
 159:C:/Users/²Ü¼ÒºÀ/.iotlink/sdk/IoT_LINK/iot_link/network/lwm2m/wakaama_lwm2m/wakaama-master/core/er-coap-13\er-coap-13.c ****     unsigned int *x = &delta;
  82              		.loc 1 159 5 view .LVU16
 157:C:/Users/²Ü¼ÒºÀ/.iotlink/sdk/IoT_LINK/iot_link/network/lwm2m/wakaama_lwm2m/wakaama-master/core/er-coap-13\er-coap-13.c ****     size_t written = 0;
  83              		.loc 1 157 1 is_stmt 0 view .LVU17
  84 0000 37B5     		push	{r0, r1, r2, r4, r5, lr}
  85              	.LCFI0:
  86              		.cfi_def_cfa_offset 24
  87              		.cfi_offset 4, -12
  88              		.cfi_offset 5, -8
  89              		.cfi_offset 14, -4
  90              	.LVL8:
 160:C:/Users/²Ü¼ÒºÀ/.iotlink/sdk/IoT_LINK/iot_link/network/lwm2m/wakaama_lwm2m/wakaama-master/core/er-coap-13\er-coap-13.c **** 
 161:C:/Users/²Ü¼ÒºÀ/.iotlink/sdk/IoT_LINK/iot_link/network/lwm2m/wakaama_lwm2m/wakaama-master/core/er-coap-13\er-coap-13.c ****     buffer[0] = coap_option_nibble(delta) << 4 | coap_option_nibble(length);
  91              		.loc 1 161 5 is_stmt 1 view .LVU18
  92              	.LBB23:
  93              	.LBI23:
 138:C:/Users/²Ü¼ÒºÀ/.iotlink/sdk/IoT_LINK/iot_link/network/lwm2m/wakaama_lwm2m/wakaama-master/core/er-coap-13\er-coap-13.c **** {
  94              		.loc 1 138 1 view .LVU19
  95              	.LBB24:
 140:C:/Users/²Ü¼ÒºÀ/.iotlink/sdk/IoT_LINK/iot_link/network/lwm2m/wakaama_lwm2m/wakaama-master/core/er-coap-13\er-coap-13.c ****     {
  96              		.loc 1 140 5 view .LVU20
 140:C:/Users/²Ü¼ÒºÀ/.iotlink/sdk/IoT_LINK/iot_link/network/lwm2m/wakaama_lwm2m/wakaama-master/core/er-coap-13\er-coap-13.c ****     {
  97              		.loc 1 140 8 is_stmt 0 view .LVU21
  98 0002 0C28     		cmp	r0, #12
  99              	.LBE24:
 100              	.LBE23:
 157:C:/Users/²Ü¼ÒºÀ/.iotlink/sdk/IoT_LINK/iot_link/network/lwm2m/wakaama_lwm2m/wakaama-master/core/er-coap-13\er-coap-13.c ****     size_t written = 0;
 101              		.loc 1 157 1 view .LVU22
 102 0004 CDE90010 		strd	r1, r0, [sp]
 103              	.LBB27:
 104              	.LBB25:
 140:C:/Users/²Ü¼ÒºÀ/.iotlink/sdk/IoT_LINK/iot_link/network/lwm2m/wakaama_lwm2m/wakaama-master/core/er-coap-13\er-coap-13.c ****     {
 105              		.loc 1 140 8 view .LVU23
 106 0008 1FD8     		bhi	.L5
 142:C:/Users/²Ü¼ÒºÀ/.iotlink/sdk/IoT_LINK/iot_link/network/lwm2m/wakaama_lwm2m/wakaama-master/core/er-coap-13\er-coap-13.c ****     }
 107              		.loc 1 142 9 is_stmt 1 view .LVU24
 142:C:/Users/²Ü¼ÒºÀ/.iotlink/sdk/IoT_LINK/iot_link/network/lwm2m/wakaama_lwm2m/wakaama-master/core/er-coap-13\er-coap-13.c ****     }
 108              		.loc 1 142 16 is_stmt 0 view .LVU25
 109 000a C0B2     		uxtb	r0, r0
 110              	.LVL9:
 111              	.L6:
 142:C:/Users/²Ü¼ÒºÀ/.iotlink/sdk/IoT_LINK/iot_link/network/lwm2m/wakaama_lwm2m/wakaama-master/core/er-coap-13\er-coap-13.c ****     }
 112              		.loc 1 142 16 view .LVU26
ARM GAS  C:\Users\²Ü¼ÒºÀ\AppData\Local\Temp\cczrlpTg.s 			page 6


 113              	.LBE25:
 114              	.LBE27:
 115              		.loc 1 161 50 view .LVU27
 116 000c 009B     		ldr	r3, [sp]
 117              	.LVL10:
 118              	.LBB28:
 119              	.LBI28:
 138:C:/Users/²Ü¼ÒºÀ/.iotlink/sdk/IoT_LINK/iot_link/network/lwm2m/wakaama_lwm2m/wakaama-master/core/er-coap-13\er-coap-13.c **** {
 120              		.loc 1 138 1 is_stmt 1 view .LVU28
 121              	.LBB29:
 140:C:/Users/²Ü¼ÒºÀ/.iotlink/sdk/IoT_LINK/iot_link/network/lwm2m/wakaama_lwm2m/wakaama-master/core/er-coap-13\er-coap-13.c ****     {
 122              		.loc 1 140 5 view .LVU29
 123              	.LBE29:
 124              	.LBE28:
 125              		.loc 1 161 43 is_stmt 0 view .LVU30
 126 000e 0001     		lsls	r0, r0, #4
 127              	.LBB33:
 128              	.LBB30:
 140:C:/Users/²Ü¼ÒºÀ/.iotlink/sdk/IoT_LINK/iot_link/network/lwm2m/wakaama_lwm2m/wakaama-master/core/er-coap-13\er-coap-13.c ****     {
 129              		.loc 1 140 8 view .LVU31
 130 0010 0C2B     		cmp	r3, #12
 131              	.LBE30:
 132              	.LBE33:
 133              		.loc 1 161 48 view .LVU32
 134 0012 40B2     		sxtb	r0, r0
 135              	.LBB34:
 136              	.LBB31:
 140:C:/Users/²Ü¼ÒºÀ/.iotlink/sdk/IoT_LINK/iot_link/network/lwm2m/wakaama_lwm2m/wakaama-master/core/er-coap-13\er-coap-13.c ****     {
 137              		.loc 1 140 8 view .LVU33
 138 0014 1FD8     		bhi	.L7
 142:C:/Users/²Ü¼ÒºÀ/.iotlink/sdk/IoT_LINK/iot_link/network/lwm2m/wakaama_lwm2m/wakaama-master/core/er-coap-13\er-coap-13.c ****     }
 139              		.loc 1 142 9 is_stmt 1 view .LVU34
 142:C:/Users/²Ü¼ÒºÀ/.iotlink/sdk/IoT_LINK/iot_link/network/lwm2m/wakaama_lwm2m/wakaama-master/core/er-coap-13\er-coap-13.c ****     }
 140              		.loc 1 142 16 is_stmt 0 view .LVU35
 141 0016 DBB2     		uxtb	r3, r3
 142              	.LVL11:
 143              	.L8:
 142:C:/Users/²Ü¼ÒºÀ/.iotlink/sdk/IoT_LINK/iot_link/network/lwm2m/wakaama_lwm2m/wakaama-master/core/er-coap-13\er-coap-13.c ****     }
 144              		.loc 1 142 16 view .LVU36
 145              	.LBE31:
 146              	.LBE34:
 147              		.loc 1 161 48 view .LVU37
 148 0018 1843     		orrs	r0, r0, r3
 149              		.loc 1 161 15 view .LVU38
 150 001a 1070     		strb	r0, [r2]
 151 001c 0225     		movs	r5, #2
 159:C:/Users/²Ü¼ÒºÀ/.iotlink/sdk/IoT_LINK/iot_link/network/lwm2m/wakaama_lwm2m/wakaama-master/core/er-coap-13\er-coap-13.c **** 
 152              		.loc 1 159 19 view .LVU39
 153 001e 01AB     		add	r3, sp, #4
 154              	.LVL12:
 158:C:/Users/²Ü¼ÒºÀ/.iotlink/sdk/IoT_LINK/iot_link/network/lwm2m/wakaama_lwm2m/wakaama-master/core/er-coap-13\er-coap-13.c ****     unsigned int *x = &delta;
 155              		.loc 1 158 12 view .LVU40
 156 0020 0020     		movs	r0, #0
 157              	.LVL13:
 158              	.L11:
 162:C:/Users/²Ü¼ÒºÀ/.iotlink/sdk/IoT_LINK/iot_link/network/lwm2m/wakaama_lwm2m/wakaama-master/core/er-coap-13\er-coap-13.c **** 
 163:C:/Users/²Ü¼ÒºÀ/.iotlink/sdk/IoT_LINK/iot_link/network/lwm2m/wakaama_lwm2m/wakaama-master/core/er-coap-13\er-coap-13.c ****     /* avoids code duplication without function overhead */
ARM GAS  C:\Users\²Ü¼ÒºÀ\AppData\Local\Temp\cczrlpTg.s 			page 7


 164:C:/Users/²Ü¼ÒºÀ/.iotlink/sdk/IoT_LINK/iot_link/network/lwm2m/wakaama_lwm2m/wakaama-master/core/er-coap-13\er-coap-13.c ****     do
 159              		.loc 1 164 5 is_stmt 1 view .LVU41
 165:C:/Users/²Ü¼ÒºÀ/.iotlink/sdk/IoT_LINK/iot_link/network/lwm2m/wakaama_lwm2m/wakaama-master/core/er-coap-13\er-coap-13.c ****     {
 166:C:/Users/²Ü¼ÒºÀ/.iotlink/sdk/IoT_LINK/iot_link/network/lwm2m/wakaama_lwm2m/wakaama-master/core/er-coap-13\er-coap-13.c ****         if (*x > 268)
 160              		.loc 1 166 9 view .LVU42
 161              		.loc 1 166 13 is_stmt 0 view .LVU43
 162 0022 1B68     		ldr	r3, [r3]
 163              	.LVL14:
 164              		.loc 1 166 12 view .LVU44
 165 0024 B3F5867F 		cmp	r3, #268
 166 0028 00F10101 		add	r1, r0, #1
 167 002c 1BD9     		bls	.L9
 167:C:/Users/²Ü¼ÒºÀ/.iotlink/sdk/IoT_LINK/iot_link/network/lwm2m/wakaama_lwm2m/wakaama-master/core/er-coap-13\er-coap-13.c ****         {
 168:C:/Users/²Ü¼ÒºÀ/.iotlink/sdk/IoT_LINK/iot_link/network/lwm2m/wakaama_lwm2m/wakaama-master/core/er-coap-13\er-coap-13.c ****             buffer[++written] = (*x - 269) >> 8;
 168              		.loc 1 168 13 is_stmt 1 view .LVU45
 169              		.loc 1 168 37 is_stmt 0 view .LVU46
 170 002e 6FF48674 		mvn	r4, #268
 171 0032 1C19     		adds	r4, r3, r4
 169:C:/Users/²Ü¼ÒºÀ/.iotlink/sdk/IoT_LINK/iot_link/network/lwm2m/wakaama_lwm2m/wakaama-master/core/er-coap-13\er-coap-13.c ****             buffer[++written] = (*x - 269);
 172              		.loc 1 169 31 view .LVU47
 173 0034 0230     		adds	r0, r0, #2
 168:C:/Users/²Ü¼ÒºÀ/.iotlink/sdk/IoT_LINK/iot_link/network/lwm2m/wakaama_lwm2m/wakaama-master/core/er-coap-13\er-coap-13.c ****             buffer[++written] = (*x - 269);
 174              		.loc 1 168 44 view .LVU48
 175 0036 240A     		lsrs	r4, r4, #8
 176              		.loc 1 169 37 view .LVU49
 177 0038 0D3B     		subs	r3, r3, #13
 168:C:/Users/²Ü¼ÒºÀ/.iotlink/sdk/IoT_LINK/iot_link/network/lwm2m/wakaama_lwm2m/wakaama-master/core/er-coap-13\er-coap-13.c ****             buffer[++written] = (*x - 269);
 178              		.loc 1 168 31 view .LVU50
 179 003a 5454     		strb	r4, [r2, r1]
 180              		.loc 1 169 13 is_stmt 1 view .LVU51
 181              		.loc 1 169 31 is_stmt 0 view .LVU52
 182 003c 1354     		strb	r3, [r2, r0]
 183              	.L10:
 170:C:/Users/²Ü¼ÒºÀ/.iotlink/sdk/IoT_LINK/iot_link/network/lwm2m/wakaama_lwm2m/wakaama-master/core/er-coap-13\er-coap-13.c ****         }
 171:C:/Users/²Ü¼ÒºÀ/.iotlink/sdk/IoT_LINK/iot_link/network/lwm2m/wakaama_lwm2m/wakaama-master/core/er-coap-13\er-coap-13.c ****         else if (*x > 12)
 172:C:/Users/²Ü¼ÒºÀ/.iotlink/sdk/IoT_LINK/iot_link/network/lwm2m/wakaama_lwm2m/wakaama-master/core/er-coap-13\er-coap-13.c ****         {
 173:C:/Users/²Ü¼ÒºÀ/.iotlink/sdk/IoT_LINK/iot_link/network/lwm2m/wakaama_lwm2m/wakaama-master/core/er-coap-13\er-coap-13.c ****             buffer[++written] = (*x - 13);
 174:C:/Users/²Ü¼ÒºÀ/.iotlink/sdk/IoT_LINK/iot_link/network/lwm2m/wakaama_lwm2m/wakaama-master/core/er-coap-13\er-coap-13.c ****         }
 175:C:/Users/²Ü¼ÒºÀ/.iotlink/sdk/IoT_LINK/iot_link/network/lwm2m/wakaama_lwm2m/wakaama-master/core/er-coap-13\er-coap-13.c ****     }
 176:C:/Users/²Ü¼ÒºÀ/.iotlink/sdk/IoT_LINK/iot_link/network/lwm2m/wakaama_lwm2m/wakaama-master/core/er-coap-13\er-coap-13.c ****     while (x != (unsigned int *)&length && NULL != (x = (unsigned int *)&length));
 184              		.loc 1 176 11 is_stmt 1 view .LVU53
 185              		.loc 1 176 5 is_stmt 0 view .LVU54
 186 003e 012D     		cmp	r5, #1
 187              		.loc 1 176 55 view .LVU55
 188 0040 6B46     		mov	r3, sp
 189              		.loc 1 176 5 view .LVU56
 190 0042 0ED1     		bne	.L14
 177:C:/Users/²Ü¼ÒºÀ/.iotlink/sdk/IoT_LINK/iot_link/network/lwm2m/wakaama_lwm2m/wakaama-master/core/er-coap-13\er-coap-13.c **** 
 178:C:/Users/²Ü¼ÒºÀ/.iotlink/sdk/IoT_LINK/iot_link/network/lwm2m/wakaama_lwm2m/wakaama-master/core/er-coap-13\er-coap-13.c ****     PRINTF("WRITTEN %u B opt header\n", written);
 191              		.loc 1 178 49 is_stmt 1 view .LVU57
 179:C:/Users/²Ü¼ÒºÀ/.iotlink/sdk/IoT_LINK/iot_link/network/lwm2m/wakaama_lwm2m/wakaama-master/core/er-coap-13\er-coap-13.c **** 
 180:C:/Users/²Ü¼ÒºÀ/.iotlink/sdk/IoT_LINK/iot_link/network/lwm2m/wakaama_lwm2m/wakaama-master/core/er-coap-13\er-coap-13.c ****     return ++written;
 192              		.loc 1 180 5 view .LVU58
 181:C:/Users/²Ü¼ÒºÀ/.iotlink/sdk/IoT_LINK/iot_link/network/lwm2m/wakaama_lwm2m/wakaama-master/core/er-coap-13\er-coap-13.c **** }
 193              		.loc 1 181 1 is_stmt 0 view .LVU59
 194 0044 0130     		adds	r0, r0, #1
 195 0046 03B0     		add	sp, sp, #12
ARM GAS  C:\Users\²Ü¼ÒºÀ\AppData\Local\Temp\cczrlpTg.s 			page 8


 196              	.LCFI1:
 197              		.cfi_remember_state
 198              		.cfi_def_cfa_offset 12
 199              	.LVL15:
 200              		.loc 1 181 1 view .LVU60
 201              		@ sp needed
 202 0048 30BD     		pop	{r4, r5, pc}
 203              	.LVL16:
 204              	.L5:
 205              	.LCFI2:
 206              		.cfi_restore_state
 207              	.LBB35:
 208              	.LBB26:
 144:C:/Users/²Ü¼ÒºÀ/.iotlink/sdk/IoT_LINK/iot_link/network/lwm2m/wakaama_lwm2m/wakaama-master/core/er-coap-13\er-coap-13.c ****     {
 209              		.loc 1 144 10 is_stmt 1 view .LVU61
 150:C:/Users/²Ü¼ÒºÀ/.iotlink/sdk/IoT_LINK/iot_link/network/lwm2m/wakaama_lwm2m/wakaama-master/core/er-coap-13\er-coap-13.c ****     }
 210              		.loc 1 150 16 is_stmt 0 view .LVU62
 211 004a B0F5867F 		cmp	r0, #268
 212 004e 94BF     		ite	ls
 213 0050 0D20     		movls	r0, #13
 214              	.LVL17:
 150:C:/Users/²Ü¼ÒºÀ/.iotlink/sdk/IoT_LINK/iot_link/network/lwm2m/wakaama_lwm2m/wakaama-master/core/er-coap-13\er-coap-13.c ****     }
 215              		.loc 1 150 16 view .LVU63
 216 0052 0E20     		movhi	r0, #14
 217 0054 DAE7     		b	.L6
 218              	.LVL18:
 219              	.L7:
 150:C:/Users/²Ü¼ÒºÀ/.iotlink/sdk/IoT_LINK/iot_link/network/lwm2m/wakaama_lwm2m/wakaama-master/core/er-coap-13\er-coap-13.c ****     }
 220              		.loc 1 150 16 view .LVU64
 221              	.LBE26:
 222              	.LBE35:
 223              	.LBB36:
 224              	.LBB32:
 144:C:/Users/²Ü¼ÒºÀ/.iotlink/sdk/IoT_LINK/iot_link/network/lwm2m/wakaama_lwm2m/wakaama-master/core/er-coap-13\er-coap-13.c ****     {
 225              		.loc 1 144 10 is_stmt 1 view .LVU65
 150:C:/Users/²Ü¼ÒºÀ/.iotlink/sdk/IoT_LINK/iot_link/network/lwm2m/wakaama_lwm2m/wakaama-master/core/er-coap-13\er-coap-13.c ****     }
 226              		.loc 1 150 16 is_stmt 0 view .LVU66
 227 0056 B3F5867F 		cmp	r3, #268
 228 005a 94BF     		ite	ls
 229 005c 0D23     		movls	r3, #13
 230              	.LVL19:
 150:C:/Users/²Ü¼ÒºÀ/.iotlink/sdk/IoT_LINK/iot_link/network/lwm2m/wakaama_lwm2m/wakaama-master/core/er-coap-13\er-coap-13.c ****     }
 231              		.loc 1 150 16 view .LVU67
 232 005e 0E23     		movhi	r3, #14
 233 0060 DAE7     		b	.L8
 234              	.LVL20:
 235              	.L14:
 150:C:/Users/²Ü¼ÒºÀ/.iotlink/sdk/IoT_LINK/iot_link/network/lwm2m/wakaama_lwm2m/wakaama-master/core/er-coap-13\er-coap-13.c ****     }
 236              		.loc 1 150 16 view .LVU68
 237              	.LBE32:
 238              	.LBE36:
 239 0062 0125     		movs	r5, #1
 240 0064 DDE7     		b	.L11
 241              	.LVL21:
 242              	.L9:
 171:C:/Users/²Ü¼ÒºÀ/.iotlink/sdk/IoT_LINK/iot_link/network/lwm2m/wakaama_lwm2m/wakaama-master/core/er-coap-13\er-coap-13.c ****         {
 243              		.loc 1 171 14 is_stmt 1 view .LVU69
ARM GAS  C:\Users\²Ü¼ÒºÀ\AppData\Local\Temp\cczrlpTg.s 			page 9


 171:C:/Users/²Ü¼ÒºÀ/.iotlink/sdk/IoT_LINK/iot_link/network/lwm2m/wakaama_lwm2m/wakaama-master/core/er-coap-13\er-coap-13.c ****         {
 244              		.loc 1 171 17 is_stmt 0 view .LVU70
 245 0066 0C2B     		cmp	r3, #12
 173:C:/Users/²Ü¼ÒºÀ/.iotlink/sdk/IoT_LINK/iot_link/network/lwm2m/wakaama_lwm2m/wakaama-master/core/er-coap-13\er-coap-13.c ****         }
 246              		.loc 1 173 13 is_stmt 1 view .LVU71
 173:C:/Users/²Ü¼ÒºÀ/.iotlink/sdk/IoT_LINK/iot_link/network/lwm2m/wakaama_lwm2m/wakaama-master/core/er-coap-13\er-coap-13.c ****         }
 247              		.loc 1 173 37 is_stmt 0 view .LVU72
 248 0068 82BF     		ittt	hi
 249 006a 0D3B     		subhi	r3, r3, #13
 173:C:/Users/²Ü¼ÒºÀ/.iotlink/sdk/IoT_LINK/iot_link/network/lwm2m/wakaama_lwm2m/wakaama-master/core/er-coap-13\er-coap-13.c ****         }
 250              		.loc 1 173 31 view .LVU73
 251 006c 5354     		strbhi	r3, [r2, r1]
 252              	.LVL22:
 173:C:/Users/²Ü¼ÒºÀ/.iotlink/sdk/IoT_LINK/iot_link/network/lwm2m/wakaama_lwm2m/wakaama-master/core/er-coap-13\er-coap-13.c ****         }
 253              		.loc 1 173 31 view .LVU74
 254 006e 0846     		movhi	r0, r1
 255 0070 E5E7     		b	.L10
 256              		.cfi_endproc
 257              	.LFE7:
 259              		.section	.text.coap_serialize_int_option,"ax",%progbits
 260              		.align	1
 261              		.syntax unified
 262              		.thumb
 263              		.thumb_func
 264              		.fpu fpv4-sp-d16
 266              	coap_serialize_int_option:
 267              	.LVL23:
 268              	.LFB8:
 182:C:/Users/²Ü¼ÒºÀ/.iotlink/sdk/IoT_LINK/iot_link/network/lwm2m/wakaama_lwm2m/wakaama-master/core/er-coap-13\er-coap-13.c **** /*-----------------------------------------------------------------------------------*/
 183:C:/Users/²Ü¼ÒºÀ/.iotlink/sdk/IoT_LINK/iot_link/network/lwm2m/wakaama_lwm2m/wakaama-master/core/er-coap-13\er-coap-13.c **** static
 184:C:/Users/²Ü¼ÒºÀ/.iotlink/sdk/IoT_LINK/iot_link/network/lwm2m/wakaama_lwm2m/wakaama-master/core/er-coap-13\er-coap-13.c **** size_t
 185:C:/Users/²Ü¼ÒºÀ/.iotlink/sdk/IoT_LINK/iot_link/network/lwm2m/wakaama_lwm2m/wakaama-master/core/er-coap-13\er-coap-13.c **** coap_serialize_int_option(unsigned int number, unsigned int current_number, uint8_t *buffer, uint32
 186:C:/Users/²Ü¼ÒºÀ/.iotlink/sdk/IoT_LINK/iot_link/network/lwm2m/wakaama_lwm2m/wakaama-master/core/er-coap-13\er-coap-13.c **** {
 269              		.loc 1 186 1 is_stmt 1 view -0
 270              		.cfi_startproc
 271              		@ args = 0, pretend = 0, frame = 0
 272              		@ frame_needed = 0, uses_anonymous_args = 0
 187:C:/Users/²Ü¼ÒºÀ/.iotlink/sdk/IoT_LINK/iot_link/network/lwm2m/wakaama_lwm2m/wakaama-master/core/er-coap-13\er-coap-13.c ****     size_t i = 0;
 273              		.loc 1 187 5 view .LVU76
 188:C:/Users/²Ü¼ÒºÀ/.iotlink/sdk/IoT_LINK/iot_link/network/lwm2m/wakaama_lwm2m/wakaama-master/core/er-coap-13\er-coap-13.c **** 
 189:C:/Users/²Ü¼ÒºÀ/.iotlink/sdk/IoT_LINK/iot_link/network/lwm2m/wakaama_lwm2m/wakaama-master/core/er-coap-13\er-coap-13.c ****     if (0xFF000000 & value) ++i;
 274              		.loc 1 189 5 view .LVU77
 186:C:/Users/²Ü¼ÒºÀ/.iotlink/sdk/IoT_LINK/iot_link/network/lwm2m/wakaama_lwm2m/wakaama-master/core/er-coap-13\er-coap-13.c ****     size_t i = 0;
 275              		.loc 1 186 1 is_stmt 0 view .LVU78
 276 0000 2DE9F041 		push	{r4, r5, r6, r7, r8, lr}
 277              	.LCFI3:
 278              		.cfi_def_cfa_offset 24
 279              		.cfi_offset 4, -24
 280              		.cfi_offset 5, -20
 281              		.cfi_offset 6, -16
 282              		.cfi_offset 7, -12
 283              		.cfi_offset 8, -8
 284              		.cfi_offset 14, -4
 190:C:/Users/²Ü¼ÒºÀ/.iotlink/sdk/IoT_LINK/iot_link/network/lwm2m/wakaama_lwm2m/wakaama-master/core/er-coap-13\er-coap-13.c ****     if (0xFFFF0000 & value) ++i;
 285              		.loc 1 190 20 view .LVU79
 286 0004 1D0C     		lsrs	r5, r3, #16
 189:C:/Users/²Ü¼ÒºÀ/.iotlink/sdk/IoT_LINK/iot_link/network/lwm2m/wakaama_lwm2m/wakaama-master/core/er-coap-13\er-coap-13.c ****     if (0xFFFF0000 & value) ++i;
ARM GAS  C:\Users\²Ü¼ÒºÀ\AppData\Local\Temp\cczrlpTg.s 			page 10


 287              		.loc 1 189 8 view .LVU80
 288 0006 13F07F48 		ands	r8, r3, #-16777216
 289              		.loc 1 190 20 view .LVU81
 290 000a 4FEA0545 		lsl	r5, r5, #16
 186:C:/Users/²Ü¼ÒºÀ/.iotlink/sdk/IoT_LINK/iot_link/network/lwm2m/wakaama_lwm2m/wakaama-master/core/er-coap-13\er-coap-13.c ****     size_t i = 0;
 291              		.loc 1 186 1 view .LVU82
 292 000e 0E46     		mov	r6, r1
 293 0010 1C46     		mov	r4, r3
 189:C:/Users/²Ü¼ÒºÀ/.iotlink/sdk/IoT_LINK/iot_link/network/lwm2m/wakaama_lwm2m/wakaama-master/core/er-coap-13\er-coap-13.c ****     if (0xFFFF0000 & value) ++i;
 294              		.loc 1 189 8 view .LVU83
 295 0012 14BF     		ite	ne
 296 0014 0121     		movne	r1, #1
 297              	.LVL24:
 189:C:/Users/²Ü¼ÒºÀ/.iotlink/sdk/IoT_LINK/iot_link/network/lwm2m/wakaama_lwm2m/wakaama-master/core/er-coap-13\er-coap-13.c ****     if (0xFFFF0000 & value) ++i;
 298              		.loc 1 189 8 view .LVU84
 299 0016 0021     		moveq	r1, #0
 300              	.LVL25:
 301              		.loc 1 190 5 is_stmt 1 view .LVU85
 302              		.loc 1 190 8 is_stmt 0 view .LVU86
 303 0018 05B1     		cbz	r5, .L16
 304              		.loc 1 190 29 is_stmt 1 discriminator 1 view .LVU87
 305 001a 0131     		adds	r1, r1, #1
 306              	.LVL26:
 307              	.L16:
 191:C:/Users/²Ü¼ÒºÀ/.iotlink/sdk/IoT_LINK/iot_link/network/lwm2m/wakaama_lwm2m/wakaama-master/core/er-coap-13\er-coap-13.c ****     if (0xFFFFFF00 & value) ++i;
 308              		.loc 1 191 5 view .LVU88
 309              		.loc 1 191 8 is_stmt 0 view .LVU89
 310 001c 34F0FF07 		bics	r7, r4, #255
 311 0020 02D0     		beq	.L17
 312              		.loc 1 191 29 is_stmt 1 discriminator 1 view .LVU90
 313 0022 0131     		adds	r1, r1, #1
 314              	.LVL27:
 192:C:/Users/²Ü¼ÒºÀ/.iotlink/sdk/IoT_LINK/iot_link/network/lwm2m/wakaama_lwm2m/wakaama-master/core/er-coap-13\er-coap-13.c ****     if (0xFFFFFFFF & value) ++i;
 315              		.loc 1 192 5 discriminator 1 view .LVU91
 316              	.L18:
 317              		.loc 1 192 29 discriminator 1 view .LVU92
 318 0024 0131     		adds	r1, r1, #1
 319              	.LVL28:
 320              		.loc 1 192 29 is_stmt 0 discriminator 1 view .LVU93
 321 0026 01E0     		b	.L19
 322              	.L17:
 323              		.loc 1 192 5 is_stmt 1 view .LVU94
 324              		.loc 1 192 8 is_stmt 0 view .LVU95
 325 0028 002C     		cmp	r4, #0
 326 002a FBD1     		bne	.L18
 327              	.L19:
 193:C:/Users/²Ü¼ÒºÀ/.iotlink/sdk/IoT_LINK/iot_link/network/lwm2m/wakaama_lwm2m/wakaama-master/core/er-coap-13\er-coap-13.c **** 
 194:C:/Users/²Ü¼ÒºÀ/.iotlink/sdk/IoT_LINK/iot_link/network/lwm2m/wakaama_lwm2m/wakaama-master/core/er-coap-13\er-coap-13.c ****     PRINTF("OPTION %u (delta %u, len %u)\n", number, number - current_number, i);
 328              		.loc 1 194 81 is_stmt 1 view .LVU96
 195:C:/Users/²Ü¼ÒºÀ/.iotlink/sdk/IoT_LINK/iot_link/network/lwm2m/wakaama_lwm2m/wakaama-master/core/er-coap-13\er-coap-13.c **** 
 196:C:/Users/²Ü¼ÒºÀ/.iotlink/sdk/IoT_LINK/iot_link/network/lwm2m/wakaama_lwm2m/wakaama-master/core/er-coap-13\er-coap-13.c ****     i = coap_set_option_header(number - current_number, i, buffer);
 329              		.loc 1 196 5 view .LVU97
 330              		.loc 1 196 9 is_stmt 0 view .LVU98
 331 002c 801B     		subs	r0, r0, r6
 332              	.LVL29:
 333              		.loc 1 196 9 view .LVU99
 334 002e FFF7FEFF 		bl	coap_set_option_header
ARM GAS  C:\Users\²Ü¼ÒºÀ\AppData\Local\Temp\cczrlpTg.s 			page 11


 335              	.LVL30:
 197:C:/Users/²Ü¼ÒºÀ/.iotlink/sdk/IoT_LINK/iot_link/network/lwm2m/wakaama_lwm2m/wakaama-master/core/er-coap-13\er-coap-13.c **** 
 198:C:/Users/²Ü¼ÒºÀ/.iotlink/sdk/IoT_LINK/iot_link/network/lwm2m/wakaama_lwm2m/wakaama-master/core/er-coap-13\er-coap-13.c ****     if (0xFF000000 & value) buffer[i++] = (uint8_t) (value >> 24);
 336              		.loc 1 198 5 is_stmt 1 view .LVU100
 337              		.loc 1 198 8 is_stmt 0 view .LVU101
 338 0032 B8F1000F 		cmp	r8, #0
 339 0036 02D0     		beq	.L20
 340              		.loc 1 198 29 is_stmt 1 discriminator 1 view .LVU102
 341              	.LVL31:
 342              		.loc 1 198 60 is_stmt 0 discriminator 1 view .LVU103
 343 0038 230E     		lsrs	r3, r4, #24
 344              		.loc 1 198 43 discriminator 1 view .LVU104
 345 003a 1354     		strb	r3, [r2, r0]
 346              		.loc 1 198 37 discriminator 1 view .LVU105
 347 003c 0130     		adds	r0, r0, #1
 348              	.LVL32:
 349              	.L20:
 199:C:/Users/²Ü¼ÒºÀ/.iotlink/sdk/IoT_LINK/iot_link/network/lwm2m/wakaama_lwm2m/wakaama-master/core/er-coap-13\er-coap-13.c ****     if (0xFFFF0000 & value) buffer[i++] = (uint8_t) (value >> 16);
 350              		.loc 1 199 5 is_stmt 1 view .LVU106
 351              		.loc 1 199 8 is_stmt 0 view .LVU107
 352 003e 3DB1     		cbz	r5, .L21
 353              		.loc 1 199 29 is_stmt 1 discriminator 1 view .LVU108
 354              		.loc 1 199 60 is_stmt 0 discriminator 1 view .LVU109
 355 0040 210C     		lsrs	r1, r4, #16
 356              		.loc 1 199 43 discriminator 1 view .LVU110
 357 0042 1154     		strb	r1, [r2, r0]
 358              		.loc 1 199 37 discriminator 1 view .LVU111
 359 0044 431C     		adds	r3, r0, #1
 360              	.LVL33:
 200:C:/Users/²Ü¼ÒºÀ/.iotlink/sdk/IoT_LINK/iot_link/network/lwm2m/wakaama_lwm2m/wakaama-master/core/er-coap-13\er-coap-13.c ****     if (0xFFFFFF00 & value) buffer[i++] = (uint8_t) (value >> 8);
 361              		.loc 1 200 5 is_stmt 1 discriminator 1 view .LVU112
 362              		.loc 1 200 8 is_stmt 0 discriminator 1 view .LVU113
 363 0046 2FB9     		cbnz	r7, .L22
 364              	.L23:
 201:C:/Users/²Ü¼ÒºÀ/.iotlink/sdk/IoT_LINK/iot_link/network/lwm2m/wakaama_lwm2m/wakaama-master/core/er-coap-13\er-coap-13.c ****     if (0xFFFFFFFF & value) buffer[i++] = (uint8_t) (value);
 365              		.loc 1 201 29 is_stmt 1 discriminator 1 view .LVU114
 366              		.loc 1 201 43 is_stmt 0 discriminator 1 view .LVU115
 367 0048 D454     		strb	r4, [r2, r3]
 368              		.loc 1 201 37 discriminator 1 view .LVU116
 369 004a 581C     		adds	r0, r3, #1
 370              	.LVL34:
 202:C:/Users/²Ü¼ÒºÀ/.iotlink/sdk/IoT_LINK/iot_link/network/lwm2m/wakaama_lwm2m/wakaama-master/core/er-coap-13\er-coap-13.c **** 
 203:C:/Users/²Ü¼ÒºÀ/.iotlink/sdk/IoT_LINK/iot_link/network/lwm2m/wakaama_lwm2m/wakaama-master/core/er-coap-13\er-coap-13.c ****     return i;
 371              		.loc 1 203 5 is_stmt 1 discriminator 1 view .LVU117
 372              	.L15:
 204:C:/Users/²Ü¼ÒºÀ/.iotlink/sdk/IoT_LINK/iot_link/network/lwm2m/wakaama_lwm2m/wakaama-master/core/er-coap-13\er-coap-13.c **** }
 373              		.loc 1 204 1 is_stmt 0 view .LVU118
 374 004c BDE8F081 		pop	{r4, r5, r6, r7, r8, pc}
 375              	.LVL35:
 376              	.L21:
 200:C:/Users/²Ü¼ÒºÀ/.iotlink/sdk/IoT_LINK/iot_link/network/lwm2m/wakaama_lwm2m/wakaama-master/core/er-coap-13\er-coap-13.c ****     if (0xFFFFFFFF & value) buffer[i++] = (uint8_t) (value);
 377              		.loc 1 200 5 is_stmt 1 view .LVU119
 200:C:/Users/²Ü¼ÒºÀ/.iotlink/sdk/IoT_LINK/iot_link/network/lwm2m/wakaama_lwm2m/wakaama-master/core/er-coap-13\er-coap-13.c ****     if (0xFFFFFFFF & value) buffer[i++] = (uint8_t) (value);
 378              		.loc 1 200 8 is_stmt 0 view .LVU120
 379 0050 27B1     		cbz	r7, .L24
 380 0052 0346     		mov	r3, r0
 381              	.LVL36:
ARM GAS  C:\Users\²Ü¼ÒºÀ\AppData\Local\Temp\cczrlpTg.s 			page 12


 382              	.L22:
 200:C:/Users/²Ü¼ÒºÀ/.iotlink/sdk/IoT_LINK/iot_link/network/lwm2m/wakaama_lwm2m/wakaama-master/core/er-coap-13\er-coap-13.c ****     if (0xFFFFFFFF & value) buffer[i++] = (uint8_t) (value);
 383              		.loc 1 200 29 is_stmt 1 discriminator 1 view .LVU121
 200:C:/Users/²Ü¼ÒºÀ/.iotlink/sdk/IoT_LINK/iot_link/network/lwm2m/wakaama_lwm2m/wakaama-master/core/er-coap-13\er-coap-13.c ****     if (0xFFFFFFFF & value) buffer[i++] = (uint8_t) (value);
 384              		.loc 1 200 60 is_stmt 0 discriminator 1 view .LVU122
 385 0054 210A     		lsrs	r1, r4, #8
 200:C:/Users/²Ü¼ÒºÀ/.iotlink/sdk/IoT_LINK/iot_link/network/lwm2m/wakaama_lwm2m/wakaama-master/core/er-coap-13\er-coap-13.c ****     if (0xFFFFFFFF & value) buffer[i++] = (uint8_t) (value);
 386              		.loc 1 200 43 discriminator 1 view .LVU123
 387 0056 D154     		strb	r1, [r2, r3]
 201:C:/Users/²Ü¼ÒºÀ/.iotlink/sdk/IoT_LINK/iot_link/network/lwm2m/wakaama_lwm2m/wakaama-master/core/er-coap-13\er-coap-13.c **** 
 388              		.loc 1 201 5 is_stmt 1 discriminator 1 view .LVU124
 200:C:/Users/²Ü¼ÒºÀ/.iotlink/sdk/IoT_LINK/iot_link/network/lwm2m/wakaama_lwm2m/wakaama-master/core/er-coap-13\er-coap-13.c ****     if (0xFFFFFFFF & value) buffer[i++] = (uint8_t) (value);
 389              		.loc 1 200 37 is_stmt 0 discriminator 1 view .LVU125
 390 0058 0133     		adds	r3, r3, #1
 391              	.LVL37:
 200:C:/Users/²Ü¼ÒºÀ/.iotlink/sdk/IoT_LINK/iot_link/network/lwm2m/wakaama_lwm2m/wakaama-master/core/er-coap-13\er-coap-13.c ****     if (0xFFFFFFFF & value) buffer[i++] = (uint8_t) (value);
 392              		.loc 1 200 37 discriminator 1 view .LVU126
 393 005a F5E7     		b	.L23
 394              	.LVL38:
 395              	.L24:
 201:C:/Users/²Ü¼ÒºÀ/.iotlink/sdk/IoT_LINK/iot_link/network/lwm2m/wakaama_lwm2m/wakaama-master/core/er-coap-13\er-coap-13.c **** 
 396              		.loc 1 201 5 is_stmt 1 view .LVU127
 201:C:/Users/²Ü¼ÒºÀ/.iotlink/sdk/IoT_LINK/iot_link/network/lwm2m/wakaama_lwm2m/wakaama-master/core/er-coap-13\er-coap-13.c **** 
 397              		.loc 1 201 8 is_stmt 0 view .LVU128
 398 005c 002C     		cmp	r4, #0
 399 005e F5D0     		beq	.L15
 400 0060 0346     		mov	r3, r0
 401 0062 F1E7     		b	.L23
 402              		.cfi_endproc
 403              	.LFE8:
 405              		.section	.text.coap_serialize_multi_option,"ax",%progbits
 406              		.align	1
 407              		.syntax unified
 408              		.thumb
 409              		.thumb_func
 410              		.fpu fpv4-sp-d16
 412              	coap_serialize_multi_option:
 413              	.LVL39:
 414              	.LFB10:
 205:C:/Users/²Ü¼ÒºÀ/.iotlink/sdk/IoT_LINK/iot_link/network/lwm2m/wakaama_lwm2m/wakaama-master/core/er-coap-13\er-coap-13.c **** /*-----------------------------------------------------------------------------------*/
 206:C:/Users/²Ü¼ÒºÀ/.iotlink/sdk/IoT_LINK/iot_link/network/lwm2m/wakaama_lwm2m/wakaama-master/core/er-coap-13\er-coap-13.c **** static
 207:C:/Users/²Ü¼ÒºÀ/.iotlink/sdk/IoT_LINK/iot_link/network/lwm2m/wakaama_lwm2m/wakaama-master/core/er-coap-13\er-coap-13.c **** size_t
 208:C:/Users/²Ü¼ÒºÀ/.iotlink/sdk/IoT_LINK/iot_link/network/lwm2m/wakaama_lwm2m/wakaama-master/core/er-coap-13\er-coap-13.c **** coap_serialize_array_option(unsigned int number, unsigned int current_number, uint8_t *buffer, uint
 209:C:/Users/²Ü¼ÒºÀ/.iotlink/sdk/IoT_LINK/iot_link/network/lwm2m/wakaama_lwm2m/wakaama-master/core/er-coap-13\er-coap-13.c **** {
 210:C:/Users/²Ü¼ÒºÀ/.iotlink/sdk/IoT_LINK/iot_link/network/lwm2m/wakaama_lwm2m/wakaama-master/core/er-coap-13\er-coap-13.c ****     size_t i = 0;
 211:C:/Users/²Ü¼ÒºÀ/.iotlink/sdk/IoT_LINK/iot_link/network/lwm2m/wakaama_lwm2m/wakaama-master/core/er-coap-13\er-coap-13.c **** 
 212:C:/Users/²Ü¼ÒºÀ/.iotlink/sdk/IoT_LINK/iot_link/network/lwm2m/wakaama_lwm2m/wakaama-master/core/er-coap-13\er-coap-13.c ****     if (split_char != '\0')
 213:C:/Users/²Ü¼ÒºÀ/.iotlink/sdk/IoT_LINK/iot_link/network/lwm2m/wakaama_lwm2m/wakaama-master/core/er-coap-13\er-coap-13.c ****     {
 214:C:/Users/²Ü¼ÒºÀ/.iotlink/sdk/IoT_LINK/iot_link/network/lwm2m/wakaama_lwm2m/wakaama-master/core/er-coap-13\er-coap-13.c ****         size_t j;
 215:C:/Users/²Ü¼ÒºÀ/.iotlink/sdk/IoT_LINK/iot_link/network/lwm2m/wakaama_lwm2m/wakaama-master/core/er-coap-13\er-coap-13.c ****         uint8_t *part_start = array;
 216:C:/Users/²Ü¼ÒºÀ/.iotlink/sdk/IoT_LINK/iot_link/network/lwm2m/wakaama_lwm2m/wakaama-master/core/er-coap-13\er-coap-13.c ****         uint8_t *part_end = NULL;
 217:C:/Users/²Ü¼ÒºÀ/.iotlink/sdk/IoT_LINK/iot_link/network/lwm2m/wakaama_lwm2m/wakaama-master/core/er-coap-13\er-coap-13.c ****         size_t temp_length;
 218:C:/Users/²Ü¼ÒºÀ/.iotlink/sdk/IoT_LINK/iot_link/network/lwm2m/wakaama_lwm2m/wakaama-master/core/er-coap-13\er-coap-13.c **** 
 219:C:/Users/²Ü¼ÒºÀ/.iotlink/sdk/IoT_LINK/iot_link/network/lwm2m/wakaama_lwm2m/wakaama-master/core/er-coap-13\er-coap-13.c ****         for (j = 0; j <= length; ++j)
 220:C:/Users/²Ü¼ÒºÀ/.iotlink/sdk/IoT_LINK/iot_link/network/lwm2m/wakaama_lwm2m/wakaama-master/core/er-coap-13\er-coap-13.c ****         {
 221:C:/Users/²Ü¼ÒºÀ/.iotlink/sdk/IoT_LINK/iot_link/network/lwm2m/wakaama_lwm2m/wakaama-master/core/er-coap-13\er-coap-13.c ****             if (array[j] == split_char || j == length)
 222:C:/Users/²Ü¼ÒºÀ/.iotlink/sdk/IoT_LINK/iot_link/network/lwm2m/wakaama_lwm2m/wakaama-master/core/er-coap-13\er-coap-13.c ****             {
ARM GAS  C:\Users\²Ü¼ÒºÀ\AppData\Local\Temp\cczrlpTg.s 			page 13


 223:C:/Users/²Ü¼ÒºÀ/.iotlink/sdk/IoT_LINK/iot_link/network/lwm2m/wakaama_lwm2m/wakaama-master/core/er-coap-13\er-coap-13.c ****                 part_end = array + j;
 224:C:/Users/²Ü¼ÒºÀ/.iotlink/sdk/IoT_LINK/iot_link/network/lwm2m/wakaama_lwm2m/wakaama-master/core/er-coap-13\er-coap-13.c ****                 temp_length = part_end - part_start;
 225:C:/Users/²Ü¼ÒºÀ/.iotlink/sdk/IoT_LINK/iot_link/network/lwm2m/wakaama_lwm2m/wakaama-master/core/er-coap-13\er-coap-13.c **** 
 226:C:/Users/²Ü¼ÒºÀ/.iotlink/sdk/IoT_LINK/iot_link/network/lwm2m/wakaama_lwm2m/wakaama-master/core/er-coap-13\er-coap-13.c ****                 i += coap_set_option_header(number - current_number, temp_length, &buffer[i]);
 227:C:/Users/²Ü¼ÒºÀ/.iotlink/sdk/IoT_LINK/iot_link/network/lwm2m/wakaama_lwm2m/wakaama-master/core/er-coap-13\er-coap-13.c ****                 memcpy(&buffer[i], part_start, temp_length);
 228:C:/Users/²Ü¼ÒºÀ/.iotlink/sdk/IoT_LINK/iot_link/network/lwm2m/wakaama_lwm2m/wakaama-master/core/er-coap-13\er-coap-13.c ****                 i += temp_length;
 229:C:/Users/²Ü¼ÒºÀ/.iotlink/sdk/IoT_LINK/iot_link/network/lwm2m/wakaama_lwm2m/wakaama-master/core/er-coap-13\er-coap-13.c **** 
 230:C:/Users/²Ü¼ÒºÀ/.iotlink/sdk/IoT_LINK/iot_link/network/lwm2m/wakaama_lwm2m/wakaama-master/core/er-coap-13\er-coap-13.c ****                 PRINTF("OPTION type %u, delta %u, len %u, part [%.*s]\n", number, number - current_
 231:C:/Users/²Ü¼ÒºÀ/.iotlink/sdk/IoT_LINK/iot_link/network/lwm2m/wakaama_lwm2m/wakaama-master/core/er-coap-13\er-coap-13.c **** 
 232:C:/Users/²Ü¼ÒºÀ/.iotlink/sdk/IoT_LINK/iot_link/network/lwm2m/wakaama_lwm2m/wakaama-master/core/er-coap-13\er-coap-13.c ****                 ++j; /* skip the splitter */
 233:C:/Users/²Ü¼ÒºÀ/.iotlink/sdk/IoT_LINK/iot_link/network/lwm2m/wakaama_lwm2m/wakaama-master/core/er-coap-13\er-coap-13.c ****                 current_number = number;
 234:C:/Users/²Ü¼ÒºÀ/.iotlink/sdk/IoT_LINK/iot_link/network/lwm2m/wakaama_lwm2m/wakaama-master/core/er-coap-13\er-coap-13.c ****                 part_start = array + j;
 235:C:/Users/²Ü¼ÒºÀ/.iotlink/sdk/IoT_LINK/iot_link/network/lwm2m/wakaama_lwm2m/wakaama-master/core/er-coap-13\er-coap-13.c ****             }
 236:C:/Users/²Ü¼ÒºÀ/.iotlink/sdk/IoT_LINK/iot_link/network/lwm2m/wakaama_lwm2m/wakaama-master/core/er-coap-13\er-coap-13.c ****         } /* for */
 237:C:/Users/²Ü¼ÒºÀ/.iotlink/sdk/IoT_LINK/iot_link/network/lwm2m/wakaama_lwm2m/wakaama-master/core/er-coap-13\er-coap-13.c ****     }
 238:C:/Users/²Ü¼ÒºÀ/.iotlink/sdk/IoT_LINK/iot_link/network/lwm2m/wakaama_lwm2m/wakaama-master/core/er-coap-13\er-coap-13.c ****     else
 239:C:/Users/²Ü¼ÒºÀ/.iotlink/sdk/IoT_LINK/iot_link/network/lwm2m/wakaama_lwm2m/wakaama-master/core/er-coap-13\er-coap-13.c ****     {
 240:C:/Users/²Ü¼ÒºÀ/.iotlink/sdk/IoT_LINK/iot_link/network/lwm2m/wakaama_lwm2m/wakaama-master/core/er-coap-13\er-coap-13.c ****         i += coap_set_option_header(number - current_number, length, &buffer[i]);
 241:C:/Users/²Ü¼ÒºÀ/.iotlink/sdk/IoT_LINK/iot_link/network/lwm2m/wakaama_lwm2m/wakaama-master/core/er-coap-13\er-coap-13.c ****         memcpy(&buffer[i], array, length);
 242:C:/Users/²Ü¼ÒºÀ/.iotlink/sdk/IoT_LINK/iot_link/network/lwm2m/wakaama_lwm2m/wakaama-master/core/er-coap-13\er-coap-13.c ****         i += length;
 243:C:/Users/²Ü¼ÒºÀ/.iotlink/sdk/IoT_LINK/iot_link/network/lwm2m/wakaama_lwm2m/wakaama-master/core/er-coap-13\er-coap-13.c **** 
 244:C:/Users/²Ü¼ÒºÀ/.iotlink/sdk/IoT_LINK/iot_link/network/lwm2m/wakaama_lwm2m/wakaama-master/core/er-coap-13\er-coap-13.c ****         PRINTF("OPTION type %u, delta %u, len %u\n", number, number - current_number, length);
 245:C:/Users/²Ü¼ÒºÀ/.iotlink/sdk/IoT_LINK/iot_link/network/lwm2m/wakaama_lwm2m/wakaama-master/core/er-coap-13\er-coap-13.c ****     }
 246:C:/Users/²Ü¼ÒºÀ/.iotlink/sdk/IoT_LINK/iot_link/network/lwm2m/wakaama_lwm2m/wakaama-master/core/er-coap-13\er-coap-13.c **** 
 247:C:/Users/²Ü¼ÒºÀ/.iotlink/sdk/IoT_LINK/iot_link/network/lwm2m/wakaama_lwm2m/wakaama-master/core/er-coap-13\er-coap-13.c ****     return i;
 248:C:/Users/²Ü¼ÒºÀ/.iotlink/sdk/IoT_LINK/iot_link/network/lwm2m/wakaama_lwm2m/wakaama-master/core/er-coap-13\er-coap-13.c **** }
 249:C:/Users/²Ü¼ÒºÀ/.iotlink/sdk/IoT_LINK/iot_link/network/lwm2m/wakaama_lwm2m/wakaama-master/core/er-coap-13\er-coap-13.c **** /*-----------------------------------------------------------------------------------*/
 250:C:/Users/²Ü¼ÒºÀ/.iotlink/sdk/IoT_LINK/iot_link/network/lwm2m/wakaama_lwm2m/wakaama-master/core/er-coap-13\er-coap-13.c **** static
 251:C:/Users/²Ü¼ÒºÀ/.iotlink/sdk/IoT_LINK/iot_link/network/lwm2m/wakaama_lwm2m/wakaama-master/core/er-coap-13\er-coap-13.c **** size_t
 252:C:/Users/²Ü¼ÒºÀ/.iotlink/sdk/IoT_LINK/iot_link/network/lwm2m/wakaama_lwm2m/wakaama-master/core/er-coap-13\er-coap-13.c **** coap_serialize_multi_option(unsigned int number, unsigned int current_number, uint8_t *buffer, mult
 253:C:/Users/²Ü¼ÒºÀ/.iotlink/sdk/IoT_LINK/iot_link/network/lwm2m/wakaama_lwm2m/wakaama-master/core/er-coap-13\er-coap-13.c **** {
 415              		.loc 1 253 1 is_stmt 1 view -0
 416              		.cfi_startproc
 417              		@ args = 0, pretend = 0, frame = 0
 418              		@ frame_needed = 0, uses_anonymous_args = 0
 254:C:/Users/²Ü¼ÒºÀ/.iotlink/sdk/IoT_LINK/iot_link/network/lwm2m/wakaama_lwm2m/wakaama-master/core/er-coap-13\er-coap-13.c ****     size_t i = 0;
 419              		.loc 1 254 5 view .LVU130
 255:C:/Users/²Ü¼ÒºÀ/.iotlink/sdk/IoT_LINK/iot_link/network/lwm2m/wakaama_lwm2m/wakaama-master/core/er-coap-13\er-coap-13.c ****     multi_option_t *j;
 420              		.loc 1 255 5 view .LVU131
 256:C:/Users/²Ü¼ÒºÀ/.iotlink/sdk/IoT_LINK/iot_link/network/lwm2m/wakaama_lwm2m/wakaama-master/core/er-coap-13\er-coap-13.c **** 
 257:C:/Users/²Ü¼ÒºÀ/.iotlink/sdk/IoT_LINK/iot_link/network/lwm2m/wakaama_lwm2m/wakaama-master/core/er-coap-13\er-coap-13.c ****     for (j = array; j != NULL; j = j->next)
 421              		.loc 1 257 5 view .LVU132
 253:C:/Users/²Ü¼ÒºÀ/.iotlink/sdk/IoT_LINK/iot_link/network/lwm2m/wakaama_lwm2m/wakaama-master/core/er-coap-13\er-coap-13.c ****     size_t i = 0;
 422              		.loc 1 253 1 is_stmt 0 view .LVU133
 423 0000 F8B5     		push	{r3, r4, r5, r6, r7, lr}
 424              	.LCFI4:
 425              		.cfi_def_cfa_offset 24
 426              		.cfi_offset 3, -24
 427              		.cfi_offset 4, -20
 428              		.cfi_offset 5, -16
 429              		.cfi_offset 6, -12
 430              		.cfi_offset 7, -8
 431              		.cfi_offset 14, -4
 253:C:/Users/²Ü¼ÒºÀ/.iotlink/sdk/IoT_LINK/iot_link/network/lwm2m/wakaama_lwm2m/wakaama-master/core/er-coap-13\er-coap-13.c ****     size_t i = 0;
 432              		.loc 1 253 1 view .LVU134
 433 0002 0646     		mov	r6, r0
 434 0004 1746     		mov	r7, r2
ARM GAS  C:\Users\²Ü¼ÒºÀ\AppData\Local\Temp\cczrlpTg.s 			page 14


 435 0006 0846     		mov	r0, r1
 436              	.LVL40:
 253:C:/Users/²Ü¼ÒºÀ/.iotlink/sdk/IoT_LINK/iot_link/network/lwm2m/wakaama_lwm2m/wakaama-master/core/er-coap-13\er-coap-13.c ****     size_t i = 0;
 437              		.loc 1 253 1 view .LVU135
 438 0008 1C46     		mov	r4, r3
 439              	.LVL41:
 254:C:/Users/²Ü¼ÒºÀ/.iotlink/sdk/IoT_LINK/iot_link/network/lwm2m/wakaama_lwm2m/wakaama-master/core/er-coap-13\er-coap-13.c ****     multi_option_t *j;
 440              		.loc 1 254 12 view .LVU136
 441 000a 0025     		movs	r5, #0
 442              	.LVL42:
 443              	.L39:
 444              		.loc 1 257 21 is_stmt 1 discriminator 1 view .LVU137
 445              		.loc 1 257 5 is_stmt 0 discriminator 1 view .LVU138
 446 000c 0CB9     		cbnz	r4, .L40
 258:C:/Users/²Ü¼ÒºÀ/.iotlink/sdk/IoT_LINK/iot_link/network/lwm2m/wakaama_lwm2m/wakaama-master/core/er-coap-13\er-coap-13.c ****     {
 259:C:/Users/²Ü¼ÒºÀ/.iotlink/sdk/IoT_LINK/iot_link/network/lwm2m/wakaama_lwm2m/wakaama-master/core/er-coap-13\er-coap-13.c ****         i += coap_set_option_header(number - current_number, j->len, &buffer[i]);
 260:C:/Users/²Ü¼ÒºÀ/.iotlink/sdk/IoT_LINK/iot_link/network/lwm2m/wakaama_lwm2m/wakaama-master/core/er-coap-13\er-coap-13.c ****         current_number = number;
 261:C:/Users/²Ü¼ÒºÀ/.iotlink/sdk/IoT_LINK/iot_link/network/lwm2m/wakaama_lwm2m/wakaama-master/core/er-coap-13\er-coap-13.c ****         memcpy(&buffer[i], j->data, j->len);
 262:C:/Users/²Ü¼ÒºÀ/.iotlink/sdk/IoT_LINK/iot_link/network/lwm2m/wakaama_lwm2m/wakaama-master/core/er-coap-13\er-coap-13.c ****         i += j->len;
 263:C:/Users/²Ü¼ÒºÀ/.iotlink/sdk/IoT_LINK/iot_link/network/lwm2m/wakaama_lwm2m/wakaama-master/core/er-coap-13\er-coap-13.c ****     } /* for */
 264:C:/Users/²Ü¼ÒºÀ/.iotlink/sdk/IoT_LINK/iot_link/network/lwm2m/wakaama_lwm2m/wakaama-master/core/er-coap-13\er-coap-13.c **** 
 265:C:/Users/²Ü¼ÒºÀ/.iotlink/sdk/IoT_LINK/iot_link/network/lwm2m/wakaama_lwm2m/wakaama-master/core/er-coap-13\er-coap-13.c ****     return i;
 447              		.loc 1 265 5 is_stmt 1 view .LVU139
 266:C:/Users/²Ü¼ÒºÀ/.iotlink/sdk/IoT_LINK/iot_link/network/lwm2m/wakaama_lwm2m/wakaama-master/core/er-coap-13\er-coap-13.c **** }
 448              		.loc 1 266 1 is_stmt 0 view .LVU140
 449 000e 2846     		mov	r0, r5
 450              	.LVL43:
 451              		.loc 1 266 1 view .LVU141
 452 0010 F8BD     		pop	{r3, r4, r5, r6, r7, pc}
 453              	.LVL44:
 454              	.L40:
 259:C:/Users/²Ü¼ÒºÀ/.iotlink/sdk/IoT_LINK/iot_link/network/lwm2m/wakaama_lwm2m/wakaama-master/core/er-coap-13\er-coap-13.c ****         current_number = number;
 455              		.loc 1 259 9 is_stmt 1 discriminator 3 view .LVU142
 259:C:/Users/²Ü¼ÒºÀ/.iotlink/sdk/IoT_LINK/iot_link/network/lwm2m/wakaama_lwm2m/wakaama-master/core/er-coap-13\er-coap-13.c ****         current_number = number;
 456              		.loc 1 259 14 is_stmt 0 discriminator 3 view .LVU143
 457 0012 6179     		ldrb	r1, [r4, #5]	@ zero_extendqisi2
 458 0014 7A19     		adds	r2, r7, r5
 459 0016 301A     		subs	r0, r6, r0
 460              	.LVL45:
 259:C:/Users/²Ü¼ÒºÀ/.iotlink/sdk/IoT_LINK/iot_link/network/lwm2m/wakaama_lwm2m/wakaama-master/core/er-coap-13\er-coap-13.c ****         current_number = number;
 461              		.loc 1 259 14 discriminator 3 view .LVU144
 462 0018 FFF7FEFF 		bl	coap_set_option_header
 463              	.LVL46:
 259:C:/Users/²Ü¼ÒºÀ/.iotlink/sdk/IoT_LINK/iot_link/network/lwm2m/wakaama_lwm2m/wakaama-master/core/er-coap-13\er-coap-13.c ****         current_number = number;
 464              		.loc 1 259 11 discriminator 3 view .LVU145
 465 001c 0544     		add	r5, r5, r0
 466              	.LVL47:
 260:C:/Users/²Ü¼ÒºÀ/.iotlink/sdk/IoT_LINK/iot_link/network/lwm2m/wakaama_lwm2m/wakaama-master/core/er-coap-13\er-coap-13.c ****         memcpy(&buffer[i], j->data, j->len);
 467              		.loc 1 260 9 is_stmt 1 discriminator 3 view .LVU146
 261:C:/Users/²Ü¼ÒºÀ/.iotlink/sdk/IoT_LINK/iot_link/network/lwm2m/wakaama_lwm2m/wakaama-master/core/er-coap-13\er-coap-13.c ****         i += j->len;
 468              		.loc 1 261 9 discriminator 3 view .LVU147
 469 001e 6279     		ldrb	r2, [r4, #5]	@ zero_extendqisi2
 470 0020 A168     		ldr	r1, [r4, #8]
 471 0022 7819     		adds	r0, r7, r5
 472 0024 FFF7FEFF 		bl	memcpy
 473              	.LVL48:
 262:C:/Users/²Ü¼ÒºÀ/.iotlink/sdk/IoT_LINK/iot_link/network/lwm2m/wakaama_lwm2m/wakaama-master/core/er-coap-13\er-coap-13.c ****     } /* for */
ARM GAS  C:\Users\²Ü¼ÒºÀ\AppData\Local\Temp\cczrlpTg.s 			page 15


 474              		.loc 1 262 9 discriminator 3 view .LVU148
 262:C:/Users/²Ü¼ÒºÀ/.iotlink/sdk/IoT_LINK/iot_link/network/lwm2m/wakaama_lwm2m/wakaama-master/core/er-coap-13\er-coap-13.c ****     } /* for */
 475              		.loc 1 262 15 is_stmt 0 discriminator 3 view .LVU149
 476 0028 6079     		ldrb	r0, [r4, #5]	@ zero_extendqisi2
 257:C:/Users/²Ü¼ÒºÀ/.iotlink/sdk/IoT_LINK/iot_link/network/lwm2m/wakaama_lwm2m/wakaama-master/core/er-coap-13\er-coap-13.c ****     {
 477              		.loc 1 257 34 discriminator 3 view .LVU150
 478 002a 2468     		ldr	r4, [r4]
 479              	.LVL49:
 262:C:/Users/²Ü¼ÒºÀ/.iotlink/sdk/IoT_LINK/iot_link/network/lwm2m/wakaama_lwm2m/wakaama-master/core/er-coap-13\er-coap-13.c ****     } /* for */
 480              		.loc 1 262 11 discriminator 3 view .LVU151
 481 002c 0544     		add	r5, r5, r0
 482              	.LVL50:
 257:C:/Users/²Ü¼ÒºÀ/.iotlink/sdk/IoT_LINK/iot_link/network/lwm2m/wakaama_lwm2m/wakaama-master/core/er-coap-13\er-coap-13.c ****     {
 483              		.loc 1 257 32 is_stmt 1 discriminator 3 view .LVU152
 260:C:/Users/²Ü¼ÒºÀ/.iotlink/sdk/IoT_LINK/iot_link/network/lwm2m/wakaama_lwm2m/wakaama-master/core/er-coap-13\er-coap-13.c ****         memcpy(&buffer[i], j->data, j->len);
 484              		.loc 1 260 24 is_stmt 0 discriminator 3 view .LVU153
 485 002e 3046     		mov	r0, r6
 486 0030 ECE7     		b	.L39
 487              		.cfi_endproc
 488              	.LFE10:
 490              		.section	.text.coap_serialize_array_option.part.0,"ax",%progbits
 491              		.align	1
 492              		.syntax unified
 493              		.thumb
 494              		.thumb_func
 495              		.fpu fpv4-sp-d16
 497              	coap_serialize_array_option.part.0:
 498              	.LVL51:
 499              	.LFB62:
 208:C:/Users/²Ü¼ÒºÀ/.iotlink/sdk/IoT_LINK/iot_link/network/lwm2m/wakaama_lwm2m/wakaama-master/core/er-coap-13\er-coap-13.c **** {
 500              		.loc 1 208 1 is_stmt 1 view -0
 501              		.cfi_startproc
 502              		@ args = 4, pretend = 0, frame = 0
 503              		@ frame_needed = 0, uses_anonymous_args = 0
 240:C:/Users/²Ü¼ÒºÀ/.iotlink/sdk/IoT_LINK/iot_link/network/lwm2m/wakaama_lwm2m/wakaama-master/core/er-coap-13\er-coap-13.c ****         memcpy(&buffer[i], array, length);
 504              		.loc 1 240 9 view .LVU155
 208:C:/Users/²Ü¼ÒºÀ/.iotlink/sdk/IoT_LINK/iot_link/network/lwm2m/wakaama_lwm2m/wakaama-master/core/er-coap-13\er-coap-13.c **** {
 505              		.loc 1 208 1 is_stmt 0 view .LVU156
 506 0000 F8B5     		push	{r3, r4, r5, r6, r7, lr}
 507              	.LCFI5:
 508              		.cfi_def_cfa_offset 24
 509              		.cfi_offset 3, -24
 510              		.cfi_offset 4, -20
 511              		.cfi_offset 5, -16
 512              		.cfi_offset 6, -12
 513              		.cfi_offset 7, -8
 514              		.cfi_offset 14, -4
 208:C:/Users/²Ü¼ÒºÀ/.iotlink/sdk/IoT_LINK/iot_link/network/lwm2m/wakaama_lwm2m/wakaama-master/core/er-coap-13\er-coap-13.c **** {
 515              		.loc 1 208 1 view .LVU157
 516 0002 069D     		ldr	r5, [sp, #24]
 517 0004 0C46     		mov	r4, r1
 240:C:/Users/²Ü¼ÒºÀ/.iotlink/sdk/IoT_LINK/iot_link/network/lwm2m/wakaama_lwm2m/wakaama-master/core/er-coap-13\er-coap-13.c ****         memcpy(&buffer[i], array, length);
 518              		.loc 1 240 14 view .LVU158
 519 0006 001B     		subs	r0, r0, r4
 520              	.LVL52:
 240:C:/Users/²Ü¼ÒºÀ/.iotlink/sdk/IoT_LINK/iot_link/network/lwm2m/wakaama_lwm2m/wakaama-master/core/er-coap-13\er-coap-13.c ****         memcpy(&buffer[i], array, length);
 521              		.loc 1 240 14 view .LVU159
ARM GAS  C:\Users\²Ü¼ÒºÀ\AppData\Local\Temp\cczrlpTg.s 			page 16


 522 0008 2946     		mov	r1, r5
 523              	.LVL53:
 208:C:/Users/²Ü¼ÒºÀ/.iotlink/sdk/IoT_LINK/iot_link/network/lwm2m/wakaama_lwm2m/wakaama-master/core/er-coap-13\er-coap-13.c **** {
 524              		.loc 1 208 1 view .LVU160
 525 000a 1646     		mov	r6, r2
 526 000c 1F46     		mov	r7, r3
 240:C:/Users/²Ü¼ÒºÀ/.iotlink/sdk/IoT_LINK/iot_link/network/lwm2m/wakaama_lwm2m/wakaama-master/core/er-coap-13\er-coap-13.c ****         memcpy(&buffer[i], array, length);
 527              		.loc 1 240 14 view .LVU161
 528 000e FFF7FEFF 		bl	coap_set_option_header
 529              	.LVL54:
 241:C:/Users/²Ü¼ÒºÀ/.iotlink/sdk/IoT_LINK/iot_link/network/lwm2m/wakaama_lwm2m/wakaama-master/core/er-coap-13\er-coap-13.c ****         i += length;
 530              		.loc 1 241 9 view .LVU162
 531 0012 2A46     		mov	r2, r5
 532              	.LVL55:
 240:C:/Users/²Ü¼ÒºÀ/.iotlink/sdk/IoT_LINK/iot_link/network/lwm2m/wakaama_lwm2m/wakaama-master/core/er-coap-13\er-coap-13.c ****         memcpy(&buffer[i], array, length);
 533              		.loc 1 240 14 view .LVU163
 534 0014 0446     		mov	r4, r0
 535              	.LVL56:
 241:C:/Users/²Ü¼ÒºÀ/.iotlink/sdk/IoT_LINK/iot_link/network/lwm2m/wakaama_lwm2m/wakaama-master/core/er-coap-13\er-coap-13.c ****         i += length;
 536              		.loc 1 241 9 is_stmt 1 view .LVU164
 537 0016 3946     		mov	r1, r7
 538 0018 3018     		adds	r0, r6, r0
 539              	.LVL57:
 241:C:/Users/²Ü¼ÒºÀ/.iotlink/sdk/IoT_LINK/iot_link/network/lwm2m/wakaama_lwm2m/wakaama-master/core/er-coap-13\er-coap-13.c ****         i += length;
 540              		.loc 1 241 9 is_stmt 0 view .LVU165
 541 001a FFF7FEFF 		bl	memcpy
 542              	.LVL58:
 242:C:/Users/²Ü¼ÒºÀ/.iotlink/sdk/IoT_LINK/iot_link/network/lwm2m/wakaama_lwm2m/wakaama-master/core/er-coap-13\er-coap-13.c **** 
 543              		.loc 1 242 9 is_stmt 1 view .LVU166
 244:C:/Users/²Ü¼ÒºÀ/.iotlink/sdk/IoT_LINK/iot_link/network/lwm2m/wakaama_lwm2m/wakaama-master/core/er-coap-13\er-coap-13.c ****     }
 544              		.loc 1 244 94 view .LVU167
 247:C:/Users/²Ü¼ÒºÀ/.iotlink/sdk/IoT_LINK/iot_link/network/lwm2m/wakaama_lwm2m/wakaama-master/core/er-coap-13\er-coap-13.c **** }
 545              		.loc 1 247 5 view .LVU168
 248:C:/Users/²Ü¼ÒºÀ/.iotlink/sdk/IoT_LINK/iot_link/network/lwm2m/wakaama_lwm2m/wakaama-master/core/er-coap-13\er-coap-13.c **** /*-----------------------------------------------------------------------------------*/
 546              		.loc 1 248 1 is_stmt 0 view .LVU169
 547 001e 2819     		adds	r0, r5, r4
 548              	.LVL59:
 248:C:/Users/²Ü¼ÒºÀ/.iotlink/sdk/IoT_LINK/iot_link/network/lwm2m/wakaama_lwm2m/wakaama-master/core/er-coap-13\er-coap-13.c **** /*-----------------------------------------------------------------------------------*/
 549              		.loc 1 248 1 view .LVU170
 550 0020 F8BD     		pop	{r3, r4, r5, r6, r7, pc}
 248:C:/Users/²Ü¼ÒºÀ/.iotlink/sdk/IoT_LINK/iot_link/network/lwm2m/wakaama_lwm2m/wakaama-master/core/er-coap-13\er-coap-13.c **** /*-----------------------------------------------------------------------------------*/
 551              		.loc 1 248 1 view .LVU171
 552              		.cfi_endproc
 553              	.LFE62:
 555              		.section	.text.coap_add_multi_option,"ax",%progbits
 556              		.align	1
 557              		.global	coap_add_multi_option
 558              		.syntax unified
 559              		.thumb
 560              		.thumb_func
 561              		.fpu fpv4-sp-d16
 563              	coap_add_multi_option:
 564              	.LVL60:
 565              	.LFB12:
 267:C:/Users/²Ü¼ÒºÀ/.iotlink/sdk/IoT_LINK/iot_link/network/lwm2m/wakaama_lwm2m/wakaama-master/core/er-coap-13\er-coap-13.c **** /*-----------------------------------------------------------------------------------*/
 268:C:/Users/²Ü¼ÒºÀ/.iotlink/sdk/IoT_LINK/iot_link/network/lwm2m/wakaama_lwm2m/wakaama-master/core/er-coap-13\er-coap-13.c **** static
 269:C:/Users/²Ü¼ÒºÀ/.iotlink/sdk/IoT_LINK/iot_link/network/lwm2m/wakaama_lwm2m/wakaama-master/core/er-coap-13\er-coap-13.c **** void
ARM GAS  C:\Users\²Ü¼ÒºÀ\AppData\Local\Temp\cczrlpTg.s 			page 17


 270:C:/Users/²Ü¼ÒºÀ/.iotlink/sdk/IoT_LINK/iot_link/network/lwm2m/wakaama_lwm2m/wakaama-master/core/er-coap-13\er-coap-13.c **** coap_merge_multi_option(uint8_t **dst, size_t *dst_len, uint8_t *option, size_t option_len, char se
 271:C:/Users/²Ü¼ÒºÀ/.iotlink/sdk/IoT_LINK/iot_link/network/lwm2m/wakaama_lwm2m/wakaama-master/core/er-coap-13\er-coap-13.c **** {
 272:C:/Users/²Ü¼ÒºÀ/.iotlink/sdk/IoT_LINK/iot_link/network/lwm2m/wakaama_lwm2m/wakaama-master/core/er-coap-13\er-coap-13.c ****     /* Merge multiple options. */
 273:C:/Users/²Ü¼ÒºÀ/.iotlink/sdk/IoT_LINK/iot_link/network/lwm2m/wakaama_lwm2m/wakaama-master/core/er-coap-13\er-coap-13.c ****     if (*dst_len > 0)
 274:C:/Users/²Ü¼ÒºÀ/.iotlink/sdk/IoT_LINK/iot_link/network/lwm2m/wakaama_lwm2m/wakaama-master/core/er-coap-13\er-coap-13.c ****     {
 275:C:/Users/²Ü¼ÒºÀ/.iotlink/sdk/IoT_LINK/iot_link/network/lwm2m/wakaama_lwm2m/wakaama-master/core/er-coap-13\er-coap-13.c ****         /* dst already contains an option: concatenate */
 276:C:/Users/²Ü¼ÒºÀ/.iotlink/sdk/IoT_LINK/iot_link/network/lwm2m/wakaama_lwm2m/wakaama-master/core/er-coap-13\er-coap-13.c ****         (*dst)[*dst_len] = separator;
 277:C:/Users/²Ü¼ÒºÀ/.iotlink/sdk/IoT_LINK/iot_link/network/lwm2m/wakaama_lwm2m/wakaama-master/core/er-coap-13\er-coap-13.c ****         *dst_len += 1;
 278:C:/Users/²Ü¼ÒºÀ/.iotlink/sdk/IoT_LINK/iot_link/network/lwm2m/wakaama_lwm2m/wakaama-master/core/er-coap-13\er-coap-13.c **** 
 279:C:/Users/²Ü¼ÒºÀ/.iotlink/sdk/IoT_LINK/iot_link/network/lwm2m/wakaama_lwm2m/wakaama-master/core/er-coap-13\er-coap-13.c ****         /* memmove handles 2-byte option headers */
 280:C:/Users/²Ü¼ÒºÀ/.iotlink/sdk/IoT_LINK/iot_link/network/lwm2m/wakaama_lwm2m/wakaama-master/core/er-coap-13\er-coap-13.c ****         memmove((*dst) + (*dst_len), option, option_len);
 281:C:/Users/²Ü¼ÒºÀ/.iotlink/sdk/IoT_LINK/iot_link/network/lwm2m/wakaama_lwm2m/wakaama-master/core/er-coap-13\er-coap-13.c **** 
 282:C:/Users/²Ü¼ÒºÀ/.iotlink/sdk/IoT_LINK/iot_link/network/lwm2m/wakaama_lwm2m/wakaama-master/core/er-coap-13\er-coap-13.c ****         *dst_len += option_len;
 283:C:/Users/²Ü¼ÒºÀ/.iotlink/sdk/IoT_LINK/iot_link/network/lwm2m/wakaama_lwm2m/wakaama-master/core/er-coap-13\er-coap-13.c ****     }
 284:C:/Users/²Ü¼ÒºÀ/.iotlink/sdk/IoT_LINK/iot_link/network/lwm2m/wakaama_lwm2m/wakaama-master/core/er-coap-13\er-coap-13.c ****     else
 285:C:/Users/²Ü¼ÒºÀ/.iotlink/sdk/IoT_LINK/iot_link/network/lwm2m/wakaama_lwm2m/wakaama-master/core/er-coap-13\er-coap-13.c ****     {
 286:C:/Users/²Ü¼ÒºÀ/.iotlink/sdk/IoT_LINK/iot_link/network/lwm2m/wakaama_lwm2m/wakaama-master/core/er-coap-13\er-coap-13.c ****         /* dst is empty: set to option */
 287:C:/Users/²Ü¼ÒºÀ/.iotlink/sdk/IoT_LINK/iot_link/network/lwm2m/wakaama_lwm2m/wakaama-master/core/er-coap-13\er-coap-13.c ****         *dst = option;
 288:C:/Users/²Ü¼ÒºÀ/.iotlink/sdk/IoT_LINK/iot_link/network/lwm2m/wakaama_lwm2m/wakaama-master/core/er-coap-13\er-coap-13.c ****         *dst_len = option_len;
 289:C:/Users/²Ü¼ÒºÀ/.iotlink/sdk/IoT_LINK/iot_link/network/lwm2m/wakaama_lwm2m/wakaama-master/core/er-coap-13\er-coap-13.c ****     }
 290:C:/Users/²Ü¼ÒºÀ/.iotlink/sdk/IoT_LINK/iot_link/network/lwm2m/wakaama_lwm2m/wakaama-master/core/er-coap-13\er-coap-13.c **** }
 291:C:/Users/²Ü¼ÒºÀ/.iotlink/sdk/IoT_LINK/iot_link/network/lwm2m/wakaama_lwm2m/wakaama-master/core/er-coap-13\er-coap-13.c **** 
 292:C:/Users/²Ü¼ÒºÀ/.iotlink/sdk/IoT_LINK/iot_link/network/lwm2m/wakaama_lwm2m/wakaama-master/core/er-coap-13\er-coap-13.c **** void
 293:C:/Users/²Ü¼ÒºÀ/.iotlink/sdk/IoT_LINK/iot_link/network/lwm2m/wakaama_lwm2m/wakaama-master/core/er-coap-13\er-coap-13.c **** coap_add_multi_option(multi_option_t **dst, uint8_t *option, size_t option_len, uint8_t is_static)
 294:C:/Users/²Ü¼ÒºÀ/.iotlink/sdk/IoT_LINK/iot_link/network/lwm2m/wakaama_lwm2m/wakaama-master/core/er-coap-13\er-coap-13.c **** {
 566              		.loc 1 294 1 is_stmt 1 view -0
 567              		.cfi_startproc
 568              		@ args = 0, pretend = 0, frame = 0
 569              		@ frame_needed = 0, uses_anonymous_args = 0
 295:C:/Users/²Ü¼ÒºÀ/.iotlink/sdk/IoT_LINK/iot_link/network/lwm2m/wakaama_lwm2m/wakaama-master/core/er-coap-13\er-coap-13.c ****     multi_option_t *opt = (multi_option_t *)lwm2m_malloc(sizeof(multi_option_t));
 570              		.loc 1 295 5 view .LVU173
 294:C:/Users/²Ü¼ÒºÀ/.iotlink/sdk/IoT_LINK/iot_link/network/lwm2m/wakaama_lwm2m/wakaama-master/core/er-coap-13\er-coap-13.c ****     multi_option_t *opt = (multi_option_t *)lwm2m_malloc(sizeof(multi_option_t));
 571              		.loc 1 294 1 is_stmt 0 view .LVU174
 572 0000 2DE9F041 		push	{r4, r5, r6, r7, r8, lr}
 573              	.LCFI6:
 574              		.cfi_def_cfa_offset 24
 575              		.cfi_offset 4, -24
 576              		.cfi_offset 5, -20
 577              		.cfi_offset 6, -16
 578              		.cfi_offset 7, -12
 579              		.cfi_offset 8, -8
 580              		.cfi_offset 14, -4
 294:C:/Users/²Ü¼ÒºÀ/.iotlink/sdk/IoT_LINK/iot_link/network/lwm2m/wakaama_lwm2m/wakaama-master/core/er-coap-13\er-coap-13.c ****     multi_option_t *opt = (multi_option_t *)lwm2m_malloc(sizeof(multi_option_t));
 581              		.loc 1 294 1 view .LVU175
 582 0004 0646     		mov	r6, r0
 583              		.loc 1 295 45 view .LVU176
 584 0006 0C20     		movs	r0, #12
 585              	.LVL61:
 294:C:/Users/²Ü¼ÒºÀ/.iotlink/sdk/IoT_LINK/iot_link/network/lwm2m/wakaama_lwm2m/wakaama-master/core/er-coap-13\er-coap-13.c ****     multi_option_t *opt = (multi_option_t *)lwm2m_malloc(sizeof(multi_option_t));
 586              		.loc 1 294 1 view .LVU177
 587 0008 0F46     		mov	r7, r1
 588 000a 1546     		mov	r5, r2
 589 000c 9846     		mov	r8, r3
 590              		.loc 1 295 45 view .LVU178
 591 000e FFF7FEFF 		bl	lwm2m_malloc
 592              	.LVL62:
 296:C:/Users/²Ü¼ÒºÀ/.iotlink/sdk/IoT_LINK/iot_link/network/lwm2m/wakaama_lwm2m/wakaama-master/core/er-coap-13\er-coap-13.c **** 
ARM GAS  C:\Users\²Ü¼ÒºÀ\AppData\Local\Temp\cczrlpTg.s 			page 18


 297:C:/Users/²Ü¼ÒºÀ/.iotlink/sdk/IoT_LINK/iot_link/network/lwm2m/wakaama_lwm2m/wakaama-master/core/er-coap-13\er-coap-13.c ****     if (opt)
 593              		.loc 1 297 5 is_stmt 1 view .LVU179
 594              		.loc 1 297 8 is_stmt 0 view .LVU180
 595 0012 0446     		mov	r4, r0
 596 0014 78B1     		cbz	r0, .L42
 298:C:/Users/²Ü¼ÒºÀ/.iotlink/sdk/IoT_LINK/iot_link/network/lwm2m/wakaama_lwm2m/wakaama-master/core/er-coap-13\er-coap-13.c ****     {
 299:C:/Users/²Ü¼ÒºÀ/.iotlink/sdk/IoT_LINK/iot_link/network/lwm2m/wakaama_lwm2m/wakaama-master/core/er-coap-13\er-coap-13.c ****         opt->next = NULL;
 597              		.loc 1 299 9 is_stmt 1 view .LVU181
 598              		.loc 1 299 19 is_stmt 0 view .LVU182
 599 0016 0023     		movs	r3, #0
 600 0018 0360     		str	r3, [r0]
 300:C:/Users/²Ü¼ÒºÀ/.iotlink/sdk/IoT_LINK/iot_link/network/lwm2m/wakaama_lwm2m/wakaama-master/core/er-coap-13\er-coap-13.c ****         opt->len = (uint8_t)option_len;
 601              		.loc 1 300 9 is_stmt 1 view .LVU183
 602              		.loc 1 300 20 is_stmt 0 view .LVU184
 603 001a 4571     		strb	r5, [r0, #5]
 301:C:/Users/²Ü¼ÒºÀ/.iotlink/sdk/IoT_LINK/iot_link/network/lwm2m/wakaama_lwm2m/wakaama-master/core/er-coap-13\er-coap-13.c ****         if (is_static)
 604              		.loc 1 301 9 is_stmt 1 view .LVU185
 605              		.loc 1 301 12 is_stmt 0 view .LVU186
 606 001c B8F1000F 		cmp	r8, #0
 607 0020 0BD0     		beq	.L44
 302:C:/Users/²Ü¼ÒºÀ/.iotlink/sdk/IoT_LINK/iot_link/network/lwm2m/wakaama_lwm2m/wakaama-master/core/er-coap-13\er-coap-13.c ****         {
 303:C:/Users/²Ü¼ÒºÀ/.iotlink/sdk/IoT_LINK/iot_link/network/lwm2m/wakaama_lwm2m/wakaama-master/core/er-coap-13\er-coap-13.c ****             opt->data = option;
 608              		.loc 1 303 13 is_stmt 1 view .LVU187
 304:C:/Users/²Ü¼ÒºÀ/.iotlink/sdk/IoT_LINK/iot_link/network/lwm2m/wakaama_lwm2m/wakaama-master/core/er-coap-13\er-coap-13.c ****             opt->is_static = 1;
 609              		.loc 1 304 28 is_stmt 0 view .LVU188
 610 0022 0123     		movs	r3, #1
 303:C:/Users/²Ü¼ÒºÀ/.iotlink/sdk/IoT_LINK/iot_link/network/lwm2m/wakaama_lwm2m/wakaama-master/core/er-coap-13\er-coap-13.c ****             opt->is_static = 1;
 611              		.loc 1 303 23 view .LVU189
 612 0024 8760     		str	r7, [r0, #8]
 613              		.loc 1 304 13 is_stmt 1 view .LVU190
 614              		.loc 1 304 28 is_stmt 0 view .LVU191
 615 0026 0371     		strb	r3, [r0, #4]
 616              	.LVL63:
 617              	.L45:
 305:C:/Users/²Ü¼ÒºÀ/.iotlink/sdk/IoT_LINK/iot_link/network/lwm2m/wakaama_lwm2m/wakaama-master/core/er-coap-13\er-coap-13.c ****         }
 306:C:/Users/²Ü¼ÒºÀ/.iotlink/sdk/IoT_LINK/iot_link/network/lwm2m/wakaama_lwm2m/wakaama-master/core/er-coap-13\er-coap-13.c ****         else
 307:C:/Users/²Ü¼ÒºÀ/.iotlink/sdk/IoT_LINK/iot_link/network/lwm2m/wakaama_lwm2m/wakaama-master/core/er-coap-13\er-coap-13.c ****         {
 308:C:/Users/²Ü¼ÒºÀ/.iotlink/sdk/IoT_LINK/iot_link/network/lwm2m/wakaama_lwm2m/wakaama-master/core/er-coap-13\er-coap-13.c ****             opt->is_static = 0;
 309:C:/Users/²Ü¼ÒºÀ/.iotlink/sdk/IoT_LINK/iot_link/network/lwm2m/wakaama_lwm2m/wakaama-master/core/er-coap-13\er-coap-13.c ****             opt->data = (uint8_t *)lwm2m_malloc(option_len);
 310:C:/Users/²Ü¼ÒºÀ/.iotlink/sdk/IoT_LINK/iot_link/network/lwm2m/wakaama_lwm2m/wakaama-master/core/er-coap-13\er-coap-13.c ****             if (opt->data == NULL)
 311:C:/Users/²Ü¼ÒºÀ/.iotlink/sdk/IoT_LINK/iot_link/network/lwm2m/wakaama_lwm2m/wakaama-master/core/er-coap-13\er-coap-13.c ****             {
 312:C:/Users/²Ü¼ÒºÀ/.iotlink/sdk/IoT_LINK/iot_link/network/lwm2m/wakaama_lwm2m/wakaama-master/core/er-coap-13\er-coap-13.c ****                 lwm2m_free(opt);
 313:C:/Users/²Ü¼ÒºÀ/.iotlink/sdk/IoT_LINK/iot_link/network/lwm2m/wakaama_lwm2m/wakaama-master/core/er-coap-13\er-coap-13.c ****                 return;
 314:C:/Users/²Ü¼ÒºÀ/.iotlink/sdk/IoT_LINK/iot_link/network/lwm2m/wakaama_lwm2m/wakaama-master/core/er-coap-13\er-coap-13.c ****             }
 315:C:/Users/²Ü¼ÒºÀ/.iotlink/sdk/IoT_LINK/iot_link/network/lwm2m/wakaama_lwm2m/wakaama-master/core/er-coap-13\er-coap-13.c ****             memcpy(opt->data, option, option_len);
 316:C:/Users/²Ü¼ÒºÀ/.iotlink/sdk/IoT_LINK/iot_link/network/lwm2m/wakaama_lwm2m/wakaama-master/core/er-coap-13\er-coap-13.c ****         }
 317:C:/Users/²Ü¼ÒºÀ/.iotlink/sdk/IoT_LINK/iot_link/network/lwm2m/wakaama_lwm2m/wakaama-master/core/er-coap-13\er-coap-13.c **** 
 318:C:/Users/²Ü¼ÒºÀ/.iotlink/sdk/IoT_LINK/iot_link/network/lwm2m/wakaama_lwm2m/wakaama-master/core/er-coap-13\er-coap-13.c ****         if (*dst)
 618              		.loc 1 318 9 is_stmt 1 view .LVU192
 619              		.loc 1 318 13 is_stmt 0 view .LVU193
 620 0028 3368     		ldr	r3, [r6]
 621              		.loc 1 318 12 view .LVU194
 622 002a BBB1     		cbz	r3, .L47
 623              	.L48:
 624              	.LVL64:
 625              	.LBB37:
 319:C:/Users/²Ü¼ÒºÀ/.iotlink/sdk/IoT_LINK/iot_link/network/lwm2m/wakaama_lwm2m/wakaama-master/core/er-coap-13\er-coap-13.c ****         {
ARM GAS  C:\Users\²Ü¼ÒºÀ\AppData\Local\Temp\cczrlpTg.s 			page 19


 320:C:/Users/²Ü¼ÒºÀ/.iotlink/sdk/IoT_LINK/iot_link/network/lwm2m/wakaama_lwm2m/wakaama-master/core/er-coap-13\er-coap-13.c ****             multi_option_t *i = *dst;
 321:C:/Users/²Ü¼ÒºÀ/.iotlink/sdk/IoT_LINK/iot_link/network/lwm2m/wakaama_lwm2m/wakaama-master/core/er-coap-13\er-coap-13.c ****             while (i->next)
 626              		.loc 1 321 19 is_stmt 1 view .LVU195
 627 002c 1A46     		mov	r2, r3
 628              		.loc 1 321 21 is_stmt 0 view .LVU196
 629 002e 1B68     		ldr	r3, [r3]
 630              	.LVL65:
 631              		.loc 1 321 19 view .LVU197
 632 0030 002B     		cmp	r3, #0
 633 0032 FBD1     		bne	.L48
 322:C:/Users/²Ü¼ÒºÀ/.iotlink/sdk/IoT_LINK/iot_link/network/lwm2m/wakaama_lwm2m/wakaama-master/core/er-coap-13\er-coap-13.c ****             {
 323:C:/Users/²Ü¼ÒºÀ/.iotlink/sdk/IoT_LINK/iot_link/network/lwm2m/wakaama_lwm2m/wakaama-master/core/er-coap-13\er-coap-13.c ****                 i = i->next;
 324:C:/Users/²Ü¼ÒºÀ/.iotlink/sdk/IoT_LINK/iot_link/network/lwm2m/wakaama_lwm2m/wakaama-master/core/er-coap-13\er-coap-13.c ****             }
 325:C:/Users/²Ü¼ÒºÀ/.iotlink/sdk/IoT_LINK/iot_link/network/lwm2m/wakaama_lwm2m/wakaama-master/core/er-coap-13\er-coap-13.c ****             i->next = opt;
 634              		.loc 1 325 13 is_stmt 1 view .LVU198
 635              		.loc 1 325 21 is_stmt 0 view .LVU199
 636 0034 1460     		str	r4, [r2]
 637              	.LVL66:
 638              	.L42:
 639              		.loc 1 325 21 view .LVU200
 640              	.LBE37:
 326:C:/Users/²Ü¼ÒºÀ/.iotlink/sdk/IoT_LINK/iot_link/network/lwm2m/wakaama_lwm2m/wakaama-master/core/er-coap-13\er-coap-13.c ****         }
 327:C:/Users/²Ü¼ÒºÀ/.iotlink/sdk/IoT_LINK/iot_link/network/lwm2m/wakaama_lwm2m/wakaama-master/core/er-coap-13\er-coap-13.c ****         else
 328:C:/Users/²Ü¼ÒºÀ/.iotlink/sdk/IoT_LINK/iot_link/network/lwm2m/wakaama_lwm2m/wakaama-master/core/er-coap-13\er-coap-13.c ****         {
 329:C:/Users/²Ü¼ÒºÀ/.iotlink/sdk/IoT_LINK/iot_link/network/lwm2m/wakaama_lwm2m/wakaama-master/core/er-coap-13\er-coap-13.c ****             *dst = opt;
 330:C:/Users/²Ü¼ÒºÀ/.iotlink/sdk/IoT_LINK/iot_link/network/lwm2m/wakaama_lwm2m/wakaama-master/core/er-coap-13\er-coap-13.c ****         }
 331:C:/Users/²Ü¼ÒºÀ/.iotlink/sdk/IoT_LINK/iot_link/network/lwm2m/wakaama_lwm2m/wakaama-master/core/er-coap-13\er-coap-13.c ****     }
 332:C:/Users/²Ü¼ÒºÀ/.iotlink/sdk/IoT_LINK/iot_link/network/lwm2m/wakaama_lwm2m/wakaama-master/core/er-coap-13\er-coap-13.c **** }
 641              		.loc 1 332 1 view .LVU201
 642 0036 BDE8F081 		pop	{r4, r5, r6, r7, r8, pc}
 643              	.LVL67:
 644              	.L44:
 308:C:/Users/²Ü¼ÒºÀ/.iotlink/sdk/IoT_LINK/iot_link/network/lwm2m/wakaama_lwm2m/wakaama-master/core/er-coap-13\er-coap-13.c ****             opt->data = (uint8_t *)lwm2m_malloc(option_len);
 645              		.loc 1 308 13 is_stmt 1 view .LVU202
 308:C:/Users/²Ü¼ÒºÀ/.iotlink/sdk/IoT_LINK/iot_link/network/lwm2m/wakaama_lwm2m/wakaama-master/core/er-coap-13\er-coap-13.c ****             opt->data = (uint8_t *)lwm2m_malloc(option_len);
 646              		.loc 1 308 28 is_stmt 0 view .LVU203
 647 003a 80F80480 		strb	r8, [r0, #4]
 309:C:/Users/²Ü¼ÒºÀ/.iotlink/sdk/IoT_LINK/iot_link/network/lwm2m/wakaama_lwm2m/wakaama-master/core/er-coap-13\er-coap-13.c ****             if (opt->data == NULL)
 648              		.loc 1 309 13 is_stmt 1 view .LVU204
 309:C:/Users/²Ü¼ÒºÀ/.iotlink/sdk/IoT_LINK/iot_link/network/lwm2m/wakaama_lwm2m/wakaama-master/core/er-coap-13\er-coap-13.c ****             if (opt->data == NULL)
 649              		.loc 1 309 36 is_stmt 0 view .LVU205
 650 003e 2846     		mov	r0, r5
 651              	.LVL68:
 309:C:/Users/²Ü¼ÒºÀ/.iotlink/sdk/IoT_LINK/iot_link/network/lwm2m/wakaama_lwm2m/wakaama-master/core/er-coap-13\er-coap-13.c ****             if (opt->data == NULL)
 652              		.loc 1 309 36 view .LVU206
 653 0040 FFF7FEFF 		bl	lwm2m_malloc
 654              	.LVL69:
 309:C:/Users/²Ü¼ÒºÀ/.iotlink/sdk/IoT_LINK/iot_link/network/lwm2m/wakaama_lwm2m/wakaama-master/core/er-coap-13\er-coap-13.c ****             if (opt->data == NULL)
 655              		.loc 1 309 23 view .LVU207
 656 0044 A060     		str	r0, [r4, #8]
 310:C:/Users/²Ü¼ÒºÀ/.iotlink/sdk/IoT_LINK/iot_link/network/lwm2m/wakaama_lwm2m/wakaama-master/core/er-coap-13\er-coap-13.c ****             {
 657              		.loc 1 310 13 is_stmt 1 view .LVU208
 310:C:/Users/²Ü¼ÒºÀ/.iotlink/sdk/IoT_LINK/iot_link/network/lwm2m/wakaama_lwm2m/wakaama-master/core/er-coap-13\er-coap-13.c ****             {
 658              		.loc 1 310 16 is_stmt 0 view .LVU209
 659 0046 20B9     		cbnz	r0, .L46
 312:C:/Users/²Ü¼ÒºÀ/.iotlink/sdk/IoT_LINK/iot_link/network/lwm2m/wakaama_lwm2m/wakaama-master/core/er-coap-13\er-coap-13.c ****                 return;
 660              		.loc 1 312 17 is_stmt 1 view .LVU210
ARM GAS  C:\Users\²Ü¼ÒºÀ\AppData\Local\Temp\cczrlpTg.s 			page 20


 661 0048 2046     		mov	r0, r4
 662              		.loc 1 332 1 is_stmt 0 view .LVU211
 663 004a BDE8F041 		pop	{r4, r5, r6, r7, r8, lr}
 664              	.LCFI7:
 665              		.cfi_remember_state
 666              		.cfi_restore 14
 667              		.cfi_restore 8
 668              		.cfi_restore 7
 669              		.cfi_restore 6
 670              		.cfi_restore 5
 671              		.cfi_restore 4
 672              		.cfi_def_cfa_offset 0
 673              	.LVL70:
 312:C:/Users/²Ü¼ÒºÀ/.iotlink/sdk/IoT_LINK/iot_link/network/lwm2m/wakaama_lwm2m/wakaama-master/core/er-coap-13\er-coap-13.c ****                 return;
 674              		.loc 1 312 17 view .LVU212
 675 004e FFF7FEBF 		b	lwm2m_free
 676              	.LVL71:
 677              	.L46:
 678              	.LCFI8:
 679              		.cfi_restore_state
 315:C:/Users/²Ü¼ÒºÀ/.iotlink/sdk/IoT_LINK/iot_link/network/lwm2m/wakaama_lwm2m/wakaama-master/core/er-coap-13\er-coap-13.c ****         }
 680              		.loc 1 315 13 is_stmt 1 view .LVU213
 681 0052 2A46     		mov	r2, r5
 682 0054 3946     		mov	r1, r7
 683 0056 FFF7FEFF 		bl	memcpy
 684              	.LVL72:
 685 005a E5E7     		b	.L45
 686              	.L47:
 329:C:/Users/²Ü¼ÒºÀ/.iotlink/sdk/IoT_LINK/iot_link/network/lwm2m/wakaama_lwm2m/wakaama-master/core/er-coap-13\er-coap-13.c ****         }
 687              		.loc 1 329 13 view .LVU214
 329:C:/Users/²Ü¼ÒºÀ/.iotlink/sdk/IoT_LINK/iot_link/network/lwm2m/wakaama_lwm2m/wakaama-master/core/er-coap-13\er-coap-13.c ****         }
 688              		.loc 1 329 18 is_stmt 0 view .LVU215
 689 005c 3460     		str	r4, [r6]
 690 005e EAE7     		b	.L42
 691              		.cfi_endproc
 692              	.LFE12:
 694              		.section	.text.free_multi_option,"ax",%progbits
 695              		.align	1
 696              		.global	free_multi_option
 697              		.syntax unified
 698              		.thumb
 699              		.thumb_func
 700              		.fpu fpv4-sp-d16
 702              	free_multi_option:
 703              	.LVL73:
 704              	.LFB13:
 333:C:/Users/²Ü¼ÒºÀ/.iotlink/sdk/IoT_LINK/iot_link/network/lwm2m/wakaama_lwm2m/wakaama-master/core/er-coap-13\er-coap-13.c **** 
 334:C:/Users/²Ü¼ÒºÀ/.iotlink/sdk/IoT_LINK/iot_link/network/lwm2m/wakaama_lwm2m/wakaama-master/core/er-coap-13\er-coap-13.c **** void
 335:C:/Users/²Ü¼ÒºÀ/.iotlink/sdk/IoT_LINK/iot_link/network/lwm2m/wakaama_lwm2m/wakaama-master/core/er-coap-13\er-coap-13.c **** free_multi_option(multi_option_t *dst)
 336:C:/Users/²Ü¼ÒºÀ/.iotlink/sdk/IoT_LINK/iot_link/network/lwm2m/wakaama_lwm2m/wakaama-master/core/er-coap-13\er-coap-13.c **** {
 705              		.loc 1 336 1 is_stmt 1 view -0
 706              		.cfi_startproc
 707              		@ args = 0, pretend = 0, frame = 0
 708              		@ frame_needed = 0, uses_anonymous_args = 0
 709              		.loc 1 336 1 is_stmt 0 view .LVU217
 710 0000 70B5     		push	{r4, r5, r6, lr}
 711              	.LCFI9:
ARM GAS  C:\Users\²Ü¼ÒºÀ\AppData\Local\Temp\cczrlpTg.s 			page 21


 712              		.cfi_def_cfa_offset 16
 713              		.cfi_offset 4, -16
 714              		.cfi_offset 5, -12
 715              		.cfi_offset 6, -8
 716              		.cfi_offset 14, -4
 717              		.loc 1 336 1 view .LVU218
 718 0002 0446     		mov	r4, r0
 719              	.LBB38:
 337:C:/Users/²Ü¼ÒºÀ/.iotlink/sdk/IoT_LINK/iot_link/network/lwm2m/wakaama_lwm2m/wakaama-master/core/er-coap-13\er-coap-13.c ****     if (dst)
 338:C:/Users/²Ü¼ÒºÀ/.iotlink/sdk/IoT_LINK/iot_link/network/lwm2m/wakaama_lwm2m/wakaama-master/core/er-coap-13\er-coap-13.c ****     {
 339:C:/Users/²Ü¼ÒºÀ/.iotlink/sdk/IoT_LINK/iot_link/network/lwm2m/wakaama_lwm2m/wakaama-master/core/er-coap-13\er-coap-13.c ****         multi_option_t *n = dst->next;
 340:C:/Users/²Ü¼ÒºÀ/.iotlink/sdk/IoT_LINK/iot_link/network/lwm2m/wakaama_lwm2m/wakaama-master/core/er-coap-13\er-coap-13.c ****         dst->next = NULL;
 720              		.loc 1 340 19 view .LVU219
 721 0004 0026     		movs	r6, #0
 722              	.LVL74:
 723              	.L56:
 724              		.loc 1 340 19 view .LVU220
 725              	.LBE38:
 337:C:/Users/²Ü¼ÒºÀ/.iotlink/sdk/IoT_LINK/iot_link/network/lwm2m/wakaama_lwm2m/wakaama-master/core/er-coap-13\er-coap-13.c ****     if (dst)
 726              		.loc 1 337 5 is_stmt 1 view .LVU221
 337:C:/Users/²Ü¼ÒºÀ/.iotlink/sdk/IoT_LINK/iot_link/network/lwm2m/wakaama_lwm2m/wakaama-master/core/er-coap-13\er-coap-13.c ****     if (dst)
 727              		.loc 1 337 8 is_stmt 0 view .LVU222
 728 0006 5CB1     		cbz	r4, .L53
 729              	.LBB39:
 339:C:/Users/²Ü¼ÒºÀ/.iotlink/sdk/IoT_LINK/iot_link/network/lwm2m/wakaama_lwm2m/wakaama-master/core/er-coap-13\er-coap-13.c ****         dst->next = NULL;
 730              		.loc 1 339 9 is_stmt 1 view .LVU223
 341:C:/Users/²Ü¼ÒºÀ/.iotlink/sdk/IoT_LINK/iot_link/network/lwm2m/wakaama_lwm2m/wakaama-master/core/er-coap-13\er-coap-13.c ****         if (dst->is_static == 0)
 731              		.loc 1 341 12 is_stmt 0 view .LVU224
 732 0008 2379     		ldrb	r3, [r4, #4]	@ zero_extendqisi2
 339:C:/Users/²Ü¼ÒºÀ/.iotlink/sdk/IoT_LINK/iot_link/network/lwm2m/wakaama_lwm2m/wakaama-master/core/er-coap-13\er-coap-13.c ****         dst->next = NULL;
 733              		.loc 1 339 25 view .LVU225
 734 000a 2568     		ldr	r5, [r4]
 735              	.LVL75:
 340:C:/Users/²Ü¼ÒºÀ/.iotlink/sdk/IoT_LINK/iot_link/network/lwm2m/wakaama_lwm2m/wakaama-master/core/er-coap-13\er-coap-13.c ****         if (dst->is_static == 0)
 736              		.loc 1 340 9 is_stmt 1 view .LVU226
 340:C:/Users/²Ü¼ÒºÀ/.iotlink/sdk/IoT_LINK/iot_link/network/lwm2m/wakaama_lwm2m/wakaama-master/core/er-coap-13\er-coap-13.c ****         if (dst->is_static == 0)
 737              		.loc 1 340 19 is_stmt 0 view .LVU227
 738 000c 2660     		str	r6, [r4]
 739              		.loc 1 341 9 is_stmt 1 view .LVU228
 740              		.loc 1 341 12 is_stmt 0 view .LVU229
 741 000e 13B9     		cbnz	r3, .L55
 342:C:/Users/²Ü¼ÒºÀ/.iotlink/sdk/IoT_LINK/iot_link/network/lwm2m/wakaama_lwm2m/wakaama-master/core/er-coap-13\er-coap-13.c ****         {
 343:C:/Users/²Ü¼ÒºÀ/.iotlink/sdk/IoT_LINK/iot_link/network/lwm2m/wakaama_lwm2m/wakaama-master/core/er-coap-13\er-coap-13.c ****             lwm2m_free(dst->data);
 742              		.loc 1 343 13 is_stmt 1 view .LVU230
 743 0010 A068     		ldr	r0, [r4, #8]
 744 0012 FFF7FEFF 		bl	lwm2m_free
 745              	.LVL76:
 746              	.L55:
 344:C:/Users/²Ü¼ÒºÀ/.iotlink/sdk/IoT_LINK/iot_link/network/lwm2m/wakaama_lwm2m/wakaama-master/core/er-coap-13\er-coap-13.c ****         }
 345:C:/Users/²Ü¼ÒºÀ/.iotlink/sdk/IoT_LINK/iot_link/network/lwm2m/wakaama_lwm2m/wakaama-master/core/er-coap-13\er-coap-13.c ****         lwm2m_free(dst);
 747              		.loc 1 345 9 view .LVU231
 748 0016 2046     		mov	r0, r4
 749 0018 FFF7FEFF 		bl	lwm2m_free
 750              	.LVL77:
 346:C:/Users/²Ü¼ÒºÀ/.iotlink/sdk/IoT_LINK/iot_link/network/lwm2m/wakaama_lwm2m/wakaama-master/core/er-coap-13\er-coap-13.c ****         free_multi_option(n);
 751              		.loc 1 346 9 view .LVU232
 752 001c 2C46     		mov	r4, r5
ARM GAS  C:\Users\²Ü¼ÒºÀ\AppData\Local\Temp\cczrlpTg.s 			page 22


 753 001e F2E7     		b	.L56
 754              	.LVL78:
 755              	.L53:
 756              		.loc 1 346 9 is_stmt 0 view .LVU233
 757              	.LBE39:
 347:C:/Users/²Ü¼ÒºÀ/.iotlink/sdk/IoT_LINK/iot_link/network/lwm2m/wakaama_lwm2m/wakaama-master/core/er-coap-13\er-coap-13.c ****     }
 348:C:/Users/²Ü¼ÒºÀ/.iotlink/sdk/IoT_LINK/iot_link/network/lwm2m/wakaama_lwm2m/wakaama-master/core/er-coap-13\er-coap-13.c **** }
 758              		.loc 1 348 1 view .LVU234
 759 0020 70BD     		pop	{r4, r5, r6, pc}
 760              		.cfi_endproc
 761              	.LFE13:
 763              		.section	.text.coap_get_multi_option_as_string,"ax",%progbits
 764              		.align	1
 765              		.global	coap_get_multi_option_as_string
 766              		.syntax unified
 767              		.thumb
 768              		.thumb_func
 769              		.fpu fpv4-sp-d16
 771              	coap_get_multi_option_as_string:
 772              	.LVL79:
 773              	.LFB14:
 349:C:/Users/²Ü¼ÒºÀ/.iotlink/sdk/IoT_LINK/iot_link/network/lwm2m/wakaama_lwm2m/wakaama-master/core/er-coap-13\er-coap-13.c **** 
 350:C:/Users/²Ü¼ÒºÀ/.iotlink/sdk/IoT_LINK/iot_link/network/lwm2m/wakaama_lwm2m/wakaama-master/core/er-coap-13\er-coap-13.c **** char *coap_get_multi_option_as_string(multi_option_t *option)
 351:C:/Users/²Ü¼ÒºÀ/.iotlink/sdk/IoT_LINK/iot_link/network/lwm2m/wakaama_lwm2m/wakaama-master/core/er-coap-13\er-coap-13.c **** {
 774              		.loc 1 351 1 is_stmt 1 view -0
 775              		.cfi_startproc
 776              		@ args = 0, pretend = 0, frame = 0
 777              		@ frame_needed = 0, uses_anonymous_args = 0
 352:C:/Users/²Ü¼ÒºÀ/.iotlink/sdk/IoT_LINK/iot_link/network/lwm2m/wakaama_lwm2m/wakaama-master/core/er-coap-13\er-coap-13.c ****     size_t len = 0;
 778              		.loc 1 352 5 view .LVU236
 353:C:/Users/²Ü¼ÒºÀ/.iotlink/sdk/IoT_LINK/iot_link/network/lwm2m/wakaama_lwm2m/wakaama-master/core/er-coap-13\er-coap-13.c ****     multi_option_t *opt;
 779              		.loc 1 353 5 view .LVU237
 354:C:/Users/²Ü¼ÒºÀ/.iotlink/sdk/IoT_LINK/iot_link/network/lwm2m/wakaama_lwm2m/wakaama-master/core/er-coap-13\er-coap-13.c ****     char *output;
 780              		.loc 1 354 5 view .LVU238
 355:C:/Users/²Ü¼ÒºÀ/.iotlink/sdk/IoT_LINK/iot_link/network/lwm2m/wakaama_lwm2m/wakaama-master/core/er-coap-13\er-coap-13.c **** 
 356:C:/Users/²Ü¼ÒºÀ/.iotlink/sdk/IoT_LINK/iot_link/network/lwm2m/wakaama_lwm2m/wakaama-master/core/er-coap-13\er-coap-13.c ****     for (opt = option; opt != NULL; opt = opt->next)
 781              		.loc 1 356 5 view .LVU239
 351:C:/Users/²Ü¼ÒºÀ/.iotlink/sdk/IoT_LINK/iot_link/network/lwm2m/wakaama_lwm2m/wakaama-master/core/er-coap-13\er-coap-13.c ****     size_t len = 0;
 782              		.loc 1 351 1 is_stmt 0 view .LVU240
 783 0000 F8B5     		push	{r3, r4, r5, r6, r7, lr}
 784              	.LCFI10:
 785              		.cfi_def_cfa_offset 24
 786              		.cfi_offset 3, -24
 787              		.cfi_offset 4, -20
 788              		.cfi_offset 5, -16
 789              		.cfi_offset 6, -12
 790              		.cfi_offset 7, -8
 791              		.cfi_offset 14, -4
 351:C:/Users/²Ü¼ÒºÀ/.iotlink/sdk/IoT_LINK/iot_link/network/lwm2m/wakaama_lwm2m/wakaama-master/core/er-coap-13\er-coap-13.c ****     size_t len = 0;
 792              		.loc 1 351 1 view .LVU241
 793 0002 0546     		mov	r5, r0
 794              		.loc 1 356 14 view .LVU242
 795 0004 0446     		mov	r4, r0
 352:C:/Users/²Ü¼ÒºÀ/.iotlink/sdk/IoT_LINK/iot_link/network/lwm2m/wakaama_lwm2m/wakaama-master/core/er-coap-13\er-coap-13.c ****     multi_option_t *opt;
 796              		.loc 1 352 12 view .LVU243
 797 0006 0020     		movs	r0, #0
 798              	.LVL80:
ARM GAS  C:\Users\²Ü¼ÒºÀ\AppData\Local\Temp\cczrlpTg.s 			page 23


 799              	.L58:
 800              		.loc 1 356 24 is_stmt 1 discriminator 1 view .LVU244
 801              		.loc 1 356 5 is_stmt 0 discriminator 1 view .LVU245
 802 0008 34B9     		cbnz	r4, .L59
 357:C:/Users/²Ü¼ÒºÀ/.iotlink/sdk/IoT_LINK/iot_link/network/lwm2m/wakaama_lwm2m/wakaama-master/core/er-coap-13\er-coap-13.c ****     {
 358:C:/Users/²Ü¼ÒºÀ/.iotlink/sdk/IoT_LINK/iot_link/network/lwm2m/wakaama_lwm2m/wakaama-master/core/er-coap-13\er-coap-13.c ****         len += opt->len + 1;     // for separator
 359:C:/Users/²Ü¼ÒºÀ/.iotlink/sdk/IoT_LINK/iot_link/network/lwm2m/wakaama_lwm2m/wakaama-master/core/er-coap-13\er-coap-13.c ****     }
 360:C:/Users/²Ü¼ÒºÀ/.iotlink/sdk/IoT_LINK/iot_link/network/lwm2m/wakaama_lwm2m/wakaama-master/core/er-coap-13\er-coap-13.c **** 
 361:C:/Users/²Ü¼ÒºÀ/.iotlink/sdk/IoT_LINK/iot_link/network/lwm2m/wakaama_lwm2m/wakaama-master/core/er-coap-13\er-coap-13.c ****     output = lwm2m_malloc(len + 1); // for String terminator
 803              		.loc 1 361 5 is_stmt 1 view .LVU246
 804              		.loc 1 361 14 is_stmt 0 view .LVU247
 805 000a 0130     		adds	r0, r0, #1
 806              	.LVL81:
 807              		.loc 1 361 14 view .LVU248
 808 000c FFF7FEFF 		bl	lwm2m_malloc
 809              	.LVL82:
 362:C:/Users/²Ü¼ÒºÀ/.iotlink/sdk/IoT_LINK/iot_link/network/lwm2m/wakaama_lwm2m/wakaama-master/core/er-coap-13\er-coap-13.c ****     if (output != NULL)
 810              		.loc 1 362 5 is_stmt 1 view .LVU249
 811              		.loc 1 362 8 is_stmt 0 view .LVU250
 812 0010 0646     		mov	r6, r0
 813 0012 A8B9     		cbnz	r0, .L63
 814              	.LVL83:
 815              	.L57:
 363:C:/Users/²Ü¼ÒºÀ/.iotlink/sdk/IoT_LINK/iot_link/network/lwm2m/wakaama_lwm2m/wakaama-master/core/er-coap-13\er-coap-13.c ****     {
 364:C:/Users/²Ü¼ÒºÀ/.iotlink/sdk/IoT_LINK/iot_link/network/lwm2m/wakaama_lwm2m/wakaama-master/core/er-coap-13\er-coap-13.c ****         size_t i = 0;
 365:C:/Users/²Ü¼ÒºÀ/.iotlink/sdk/IoT_LINK/iot_link/network/lwm2m/wakaama_lwm2m/wakaama-master/core/er-coap-13\er-coap-13.c **** 
 366:C:/Users/²Ü¼ÒºÀ/.iotlink/sdk/IoT_LINK/iot_link/network/lwm2m/wakaama_lwm2m/wakaama-master/core/er-coap-13\er-coap-13.c ****         for (opt = option; opt != NULL; opt = opt->next)
 367:C:/Users/²Ü¼ÒºÀ/.iotlink/sdk/IoT_LINK/iot_link/network/lwm2m/wakaama_lwm2m/wakaama-master/core/er-coap-13\er-coap-13.c ****         {
 368:C:/Users/²Ü¼ÒºÀ/.iotlink/sdk/IoT_LINK/iot_link/network/lwm2m/wakaama_lwm2m/wakaama-master/core/er-coap-13\er-coap-13.c ****             output[i] = '/';
 369:C:/Users/²Ü¼ÒºÀ/.iotlink/sdk/IoT_LINK/iot_link/network/lwm2m/wakaama_lwm2m/wakaama-master/core/er-coap-13\er-coap-13.c ****             i += 1;
 370:C:/Users/²Ü¼ÒºÀ/.iotlink/sdk/IoT_LINK/iot_link/network/lwm2m/wakaama_lwm2m/wakaama-master/core/er-coap-13\er-coap-13.c **** 
 371:C:/Users/²Ü¼ÒºÀ/.iotlink/sdk/IoT_LINK/iot_link/network/lwm2m/wakaama_lwm2m/wakaama-master/core/er-coap-13\er-coap-13.c ****             memmove(output + i, opt->data, opt->len);
 372:C:/Users/²Ü¼ÒºÀ/.iotlink/sdk/IoT_LINK/iot_link/network/lwm2m/wakaama_lwm2m/wakaama-master/core/er-coap-13\er-coap-13.c ****             i += opt->len;
 373:C:/Users/²Ü¼ÒºÀ/.iotlink/sdk/IoT_LINK/iot_link/network/lwm2m/wakaama_lwm2m/wakaama-master/core/er-coap-13\er-coap-13.c ****         }
 374:C:/Users/²Ü¼ÒºÀ/.iotlink/sdk/IoT_LINK/iot_link/network/lwm2m/wakaama_lwm2m/wakaama-master/core/er-coap-13\er-coap-13.c ****         output[i] = 0;
 375:C:/Users/²Ü¼ÒºÀ/.iotlink/sdk/IoT_LINK/iot_link/network/lwm2m/wakaama_lwm2m/wakaama-master/core/er-coap-13\er-coap-13.c ****     }
 376:C:/Users/²Ü¼ÒºÀ/.iotlink/sdk/IoT_LINK/iot_link/network/lwm2m/wakaama_lwm2m/wakaama-master/core/er-coap-13\er-coap-13.c **** 
 377:C:/Users/²Ü¼ÒºÀ/.iotlink/sdk/IoT_LINK/iot_link/network/lwm2m/wakaama_lwm2m/wakaama-master/core/er-coap-13\er-coap-13.c ****     return output;
 378:C:/Users/²Ü¼ÒºÀ/.iotlink/sdk/IoT_LINK/iot_link/network/lwm2m/wakaama_lwm2m/wakaama-master/core/er-coap-13\er-coap-13.c **** }
 816              		.loc 1 378 1 view .LVU251
 817 0014 3046     		mov	r0, r6
 818 0016 F8BD     		pop	{r3, r4, r5, r6, r7, pc}
 819              	.LVL84:
 820              	.L59:
 358:C:/Users/²Ü¼ÒºÀ/.iotlink/sdk/IoT_LINK/iot_link/network/lwm2m/wakaama_lwm2m/wakaama-master/core/er-coap-13\er-coap-13.c ****     }
 821              		.loc 1 358 9 is_stmt 1 discriminator 3 view .LVU252
 358:C:/Users/²Ü¼ÒºÀ/.iotlink/sdk/IoT_LINK/iot_link/network/lwm2m/wakaama_lwm2m/wakaama-master/core/er-coap-13\er-coap-13.c ****     }
 822              		.loc 1 358 13 is_stmt 0 discriminator 3 view .LVU253
 823 0018 6379     		ldrb	r3, [r4, #5]	@ zero_extendqisi2
 356:C:/Users/²Ü¼ÒºÀ/.iotlink/sdk/IoT_LINK/iot_link/network/lwm2m/wakaama_lwm2m/wakaama-master/core/er-coap-13\er-coap-13.c ****     {
 824              		.loc 1 356 41 discriminator 3 view .LVU254
 825 001a 2468     		ldr	r4, [r4]
 826              	.LVL85:
 358:C:/Users/²Ü¼ÒºÀ/.iotlink/sdk/IoT_LINK/iot_link/network/lwm2m/wakaama_lwm2m/wakaama-master/core/er-coap-13\er-coap-13.c ****     }
 827              		.loc 1 358 13 discriminator 3 view .LVU255
 828 001c 0133     		adds	r3, r3, #1
 829 001e 1844     		add	r0, r0, r3
ARM GAS  C:\Users\²Ü¼ÒºÀ\AppData\Local\Temp\cczrlpTg.s 			page 24


 830              	.LVL86:
 356:C:/Users/²Ü¼ÒºÀ/.iotlink/sdk/IoT_LINK/iot_link/network/lwm2m/wakaama_lwm2m/wakaama-master/core/er-coap-13\er-coap-13.c ****     {
 831              		.loc 1 356 37 is_stmt 1 discriminator 3 view .LVU256
 356:C:/Users/²Ü¼ÒºÀ/.iotlink/sdk/IoT_LINK/iot_link/network/lwm2m/wakaama_lwm2m/wakaama-master/core/er-coap-13\er-coap-13.c ****     {
 832              		.loc 1 356 37 is_stmt 0 discriminator 3 view .LVU257
 833 0020 F2E7     		b	.L58
 834              	.LVL87:
 835              	.L62:
 836              	.LBB40:
 368:C:/Users/²Ü¼ÒºÀ/.iotlink/sdk/IoT_LINK/iot_link/network/lwm2m/wakaama_lwm2m/wakaama-master/core/er-coap-13\er-coap-13.c ****             i += 1;
 837              		.loc 1 368 13 is_stmt 1 discriminator 3 view .LVU258
 368:C:/Users/²Ü¼ÒºÀ/.iotlink/sdk/IoT_LINK/iot_link/network/lwm2m/wakaama_lwm2m/wakaama-master/core/er-coap-13\er-coap-13.c ****             i += 1;
 838              		.loc 1 368 23 is_stmt 0 discriminator 3 view .LVU259
 839 0022 3755     		strb	r7, [r6, r4]
 369:C:/Users/²Ü¼ÒºÀ/.iotlink/sdk/IoT_LINK/iot_link/network/lwm2m/wakaama_lwm2m/wakaama-master/core/er-coap-13\er-coap-13.c **** 
 840              		.loc 1 369 13 is_stmt 1 discriminator 3 view .LVU260
 369:C:/Users/²Ü¼ÒºÀ/.iotlink/sdk/IoT_LINK/iot_link/network/lwm2m/wakaama_lwm2m/wakaama-master/core/er-coap-13\er-coap-13.c **** 
 841              		.loc 1 369 15 is_stmt 0 discriminator 3 view .LVU261
 842 0024 0134     		adds	r4, r4, #1
 843              	.LVL88:
 371:C:/Users/²Ü¼ÒºÀ/.iotlink/sdk/IoT_LINK/iot_link/network/lwm2m/wakaama_lwm2m/wakaama-master/core/er-coap-13\er-coap-13.c ****             i += opt->len;
 844              		.loc 1 371 13 is_stmt 1 discriminator 3 view .LVU262
 845 0026 6A79     		ldrb	r2, [r5, #5]	@ zero_extendqisi2
 846 0028 A968     		ldr	r1, [r5, #8]
 847 002a 3019     		adds	r0, r6, r4
 848 002c FFF7FEFF 		bl	memmove
 849              	.LVL89:
 372:C:/Users/²Ü¼ÒºÀ/.iotlink/sdk/IoT_LINK/iot_link/network/lwm2m/wakaama_lwm2m/wakaama-master/core/er-coap-13\er-coap-13.c ****         }
 850              		.loc 1 372 13 discriminator 3 view .LVU263
 372:C:/Users/²Ü¼ÒºÀ/.iotlink/sdk/IoT_LINK/iot_link/network/lwm2m/wakaama_lwm2m/wakaama-master/core/er-coap-13\er-coap-13.c ****         }
 851              		.loc 1 372 21 is_stmt 0 discriminator 3 view .LVU264
 852 0030 6B79     		ldrb	r3, [r5, #5]	@ zero_extendqisi2
 366:C:/Users/²Ü¼ÒºÀ/.iotlink/sdk/IoT_LINK/iot_link/network/lwm2m/wakaama_lwm2m/wakaama-master/core/er-coap-13\er-coap-13.c ****         {
 853              		.loc 1 366 45 discriminator 3 view .LVU265
 854 0032 2D68     		ldr	r5, [r5]
 855              	.LVL90:
 372:C:/Users/²Ü¼ÒºÀ/.iotlink/sdk/IoT_LINK/iot_link/network/lwm2m/wakaama_lwm2m/wakaama-master/core/er-coap-13\er-coap-13.c ****         }
 856              		.loc 1 372 15 discriminator 3 view .LVU266
 857 0034 1C44     		add	r4, r4, r3
 858              	.LVL91:
 366:C:/Users/²Ü¼ÒºÀ/.iotlink/sdk/IoT_LINK/iot_link/network/lwm2m/wakaama_lwm2m/wakaama-master/core/er-coap-13\er-coap-13.c ****         {
 859              		.loc 1 366 41 is_stmt 1 discriminator 3 view .LVU267
 860              	.L60:
 366:C:/Users/²Ü¼ÒºÀ/.iotlink/sdk/IoT_LINK/iot_link/network/lwm2m/wakaama_lwm2m/wakaama-master/core/er-coap-13\er-coap-13.c ****         {
 861              		.loc 1 366 28 discriminator 1 view .LVU268
 862 0036 3319     		adds	r3, r6, r4
 366:C:/Users/²Ü¼ÒºÀ/.iotlink/sdk/IoT_LINK/iot_link/network/lwm2m/wakaama_lwm2m/wakaama-master/core/er-coap-13\er-coap-13.c ****         {
 863              		.loc 1 366 9 is_stmt 0 discriminator 1 view .LVU269
 864 0038 002D     		cmp	r5, #0
 865 003a F2D1     		bne	.L62
 374:C:/Users/²Ü¼ÒºÀ/.iotlink/sdk/IoT_LINK/iot_link/network/lwm2m/wakaama_lwm2m/wakaama-master/core/er-coap-13\er-coap-13.c ****     }
 866              		.loc 1 374 9 is_stmt 1 view .LVU270
 374:C:/Users/²Ü¼ÒºÀ/.iotlink/sdk/IoT_LINK/iot_link/network/lwm2m/wakaama_lwm2m/wakaama-master/core/er-coap-13\er-coap-13.c ****     }
 867              		.loc 1 374 19 is_stmt 0 view .LVU271
 868 003c 1D70     		strb	r5, [r3]
 869              	.LBE40:
 377:C:/Users/²Ü¼ÒºÀ/.iotlink/sdk/IoT_LINK/iot_link/network/lwm2m/wakaama_lwm2m/wakaama-master/core/er-coap-13\er-coap-13.c **** }
ARM GAS  C:\Users\²Ü¼ÒºÀ\AppData\Local\Temp\cczrlpTg.s 			page 25


 870              		.loc 1 377 5 is_stmt 1 view .LVU272
 377:C:/Users/²Ü¼ÒºÀ/.iotlink/sdk/IoT_LINK/iot_link/network/lwm2m/wakaama_lwm2m/wakaama-master/core/er-coap-13\er-coap-13.c **** }
 871              		.loc 1 377 12 is_stmt 0 view .LVU273
 872 003e E9E7     		b	.L57
 873              	.LVL92:
 874              	.L63:
 875              	.LBB41:
 368:C:/Users/²Ü¼ÒºÀ/.iotlink/sdk/IoT_LINK/iot_link/network/lwm2m/wakaama_lwm2m/wakaama-master/core/er-coap-13\er-coap-13.c ****             i += 1;
 876              		.loc 1 368 23 view .LVU274
 877 0040 2F27     		movs	r7, #47
 878 0042 F8E7     		b	.L60
 879              	.LBE41:
 880              		.cfi_endproc
 881              	.LFE14:
 883              		.section	.text.coap_get_mid,"ax",%progbits
 884              		.align	1
 885              		.global	coap_get_mid
 886              		.syntax unified
 887              		.thumb
 888              		.thumb_func
 889              		.fpu fpv4-sp-d16
 891              	coap_get_mid:
 892              	.LFB16:
 379:C:/Users/²Ü¼ÒºÀ/.iotlink/sdk/IoT_LINK/iot_link/network/lwm2m/wakaama_lwm2m/wakaama-master/core/er-coap-13\er-coap-13.c **** 
 380:C:/Users/²Ü¼ÒºÀ/.iotlink/sdk/IoT_LINK/iot_link/network/lwm2m/wakaama_lwm2m/wakaama-master/core/er-coap-13\er-coap-13.c **** /*-----------------------------------------------------------------------------------*/
 381:C:/Users/²Ü¼ÒºÀ/.iotlink/sdk/IoT_LINK/iot_link/network/lwm2m/wakaama_lwm2m/wakaama-master/core/er-coap-13\er-coap-13.c **** static
 382:C:/Users/²Ü¼ÒºÀ/.iotlink/sdk/IoT_LINK/iot_link/network/lwm2m/wakaama_lwm2m/wakaama-master/core/er-coap-13\er-coap-13.c **** int
 383:C:/Users/²Ü¼ÒºÀ/.iotlink/sdk/IoT_LINK/iot_link/network/lwm2m/wakaama_lwm2m/wakaama-master/core/er-coap-13\er-coap-13.c **** coap_get_variable(const uint8_t *buffer, size_t length, const char *name, const char **output)
 384:C:/Users/²Ü¼ÒºÀ/.iotlink/sdk/IoT_LINK/iot_link/network/lwm2m/wakaama_lwm2m/wakaama-master/core/er-coap-13\er-coap-13.c **** {
 385:C:/Users/²Ü¼ÒºÀ/.iotlink/sdk/IoT_LINK/iot_link/network/lwm2m/wakaama_lwm2m/wakaama-master/core/er-coap-13\er-coap-13.c ****     const uint8_t *start = NULL;
 386:C:/Users/²Ü¼ÒºÀ/.iotlink/sdk/IoT_LINK/iot_link/network/lwm2m/wakaama_lwm2m/wakaama-master/core/er-coap-13\er-coap-13.c ****     const uint8_t *end = NULL;
 387:C:/Users/²Ü¼ÒºÀ/.iotlink/sdk/IoT_LINK/iot_link/network/lwm2m/wakaama_lwm2m/wakaama-master/core/er-coap-13\er-coap-13.c ****     const uint8_t *value_end = NULL;
 388:C:/Users/²Ü¼ÒºÀ/.iotlink/sdk/IoT_LINK/iot_link/network/lwm2m/wakaama_lwm2m/wakaama-master/core/er-coap-13\er-coap-13.c ****     size_t name_len = 0;
 389:C:/Users/²Ü¼ÒºÀ/.iotlink/sdk/IoT_LINK/iot_link/network/lwm2m/wakaama_lwm2m/wakaama-master/core/er-coap-13\er-coap-13.c **** 
 390:C:/Users/²Ü¼ÒºÀ/.iotlink/sdk/IoT_LINK/iot_link/network/lwm2m/wakaama_lwm2m/wakaama-master/core/er-coap-13\er-coap-13.c ****     /*initialize the output buffer first*/
 391:C:/Users/²Ü¼ÒºÀ/.iotlink/sdk/IoT_LINK/iot_link/network/lwm2m/wakaama_lwm2m/wakaama-master/core/er-coap-13\er-coap-13.c ****     *output = 0;
 392:C:/Users/²Ü¼ÒºÀ/.iotlink/sdk/IoT_LINK/iot_link/network/lwm2m/wakaama_lwm2m/wakaama-master/core/er-coap-13\er-coap-13.c **** 
 393:C:/Users/²Ü¼ÒºÀ/.iotlink/sdk/IoT_LINK/iot_link/network/lwm2m/wakaama_lwm2m/wakaama-master/core/er-coap-13\er-coap-13.c ****     name_len = strlen(name);
 394:C:/Users/²Ü¼ÒºÀ/.iotlink/sdk/IoT_LINK/iot_link/network/lwm2m/wakaama_lwm2m/wakaama-master/core/er-coap-13\er-coap-13.c ****     end = buffer + length;
 395:C:/Users/²Ü¼ÒºÀ/.iotlink/sdk/IoT_LINK/iot_link/network/lwm2m/wakaama_lwm2m/wakaama-master/core/er-coap-13\er-coap-13.c **** 
 396:C:/Users/²Ü¼ÒºÀ/.iotlink/sdk/IoT_LINK/iot_link/network/lwm2m/wakaama_lwm2m/wakaama-master/core/er-coap-13\er-coap-13.c ****     for (start = buffer; start + name_len < end; ++start)
 397:C:/Users/²Ü¼ÒºÀ/.iotlink/sdk/IoT_LINK/iot_link/network/lwm2m/wakaama_lwm2m/wakaama-master/core/er-coap-13\er-coap-13.c ****     {
 398:C:/Users/²Ü¼ÒºÀ/.iotlink/sdk/IoT_LINK/iot_link/network/lwm2m/wakaama_lwm2m/wakaama-master/core/er-coap-13\er-coap-13.c ****         if ((start == buffer || start[-1] == '&') && start[name_len] == '=' &&
 399:C:/Users/²Ü¼ÒºÀ/.iotlink/sdk/IoT_LINK/iot_link/network/lwm2m/wakaama_lwm2m/wakaama-master/core/er-coap-13\er-coap-13.c ****                 strncmp(name, (char *)start, name_len) == 0)
 400:C:/Users/²Ü¼ÒºÀ/.iotlink/sdk/IoT_LINK/iot_link/network/lwm2m/wakaama_lwm2m/wakaama-master/core/er-coap-13\er-coap-13.c ****         {
 401:C:/Users/²Ü¼ÒºÀ/.iotlink/sdk/IoT_LINK/iot_link/network/lwm2m/wakaama_lwm2m/wakaama-master/core/er-coap-13\er-coap-13.c **** 
 402:C:/Users/²Ü¼ÒºÀ/.iotlink/sdk/IoT_LINK/iot_link/network/lwm2m/wakaama_lwm2m/wakaama-master/core/er-coap-13\er-coap-13.c ****             /* Point start to variable value */
 403:C:/Users/²Ü¼ÒºÀ/.iotlink/sdk/IoT_LINK/iot_link/network/lwm2m/wakaama_lwm2m/wakaama-master/core/er-coap-13\er-coap-13.c ****             start += name_len + 1;
 404:C:/Users/²Ü¼ÒºÀ/.iotlink/sdk/IoT_LINK/iot_link/network/lwm2m/wakaama_lwm2m/wakaama-master/core/er-coap-13\er-coap-13.c **** 
 405:C:/Users/²Ü¼ÒºÀ/.iotlink/sdk/IoT_LINK/iot_link/network/lwm2m/wakaama_lwm2m/wakaama-master/core/er-coap-13\er-coap-13.c ****             /* Point end to the end of the value */
 406:C:/Users/²Ü¼ÒºÀ/.iotlink/sdk/IoT_LINK/iot_link/network/lwm2m/wakaama_lwm2m/wakaama-master/core/er-coap-13\er-coap-13.c ****             value_end = (const uint8_t *) memchr(start, '&', end - start);
 407:C:/Users/²Ü¼ÒºÀ/.iotlink/sdk/IoT_LINK/iot_link/network/lwm2m/wakaama_lwm2m/wakaama-master/core/er-coap-13\er-coap-13.c ****             if (value_end == NULL)
 408:C:/Users/²Ü¼ÒºÀ/.iotlink/sdk/IoT_LINK/iot_link/network/lwm2m/wakaama_lwm2m/wakaama-master/core/er-coap-13\er-coap-13.c ****             {
 409:C:/Users/²Ü¼ÒºÀ/.iotlink/sdk/IoT_LINK/iot_link/network/lwm2m/wakaama_lwm2m/wakaama-master/core/er-coap-13\er-coap-13.c ****                 value_end = end;
 410:C:/Users/²Ü¼ÒºÀ/.iotlink/sdk/IoT_LINK/iot_link/network/lwm2m/wakaama_lwm2m/wakaama-master/core/er-coap-13\er-coap-13.c ****             }
 411:C:/Users/²Ü¼ÒºÀ/.iotlink/sdk/IoT_LINK/iot_link/network/lwm2m/wakaama_lwm2m/wakaama-master/core/er-coap-13\er-coap-13.c **** 
 412:C:/Users/²Ü¼ÒºÀ/.iotlink/sdk/IoT_LINK/iot_link/network/lwm2m/wakaama_lwm2m/wakaama-master/core/er-coap-13\er-coap-13.c ****             *output = (char *)start;
ARM GAS  C:\Users\²Ü¼ÒºÀ\AppData\Local\Temp\cczrlpTg.s 			page 26


 413:C:/Users/²Ü¼ÒºÀ/.iotlink/sdk/IoT_LINK/iot_link/network/lwm2m/wakaama_lwm2m/wakaama-master/core/er-coap-13\er-coap-13.c **** 
 414:C:/Users/²Ü¼ÒºÀ/.iotlink/sdk/IoT_LINK/iot_link/network/lwm2m/wakaama_lwm2m/wakaama-master/core/er-coap-13\er-coap-13.c ****             return (value_end - start);
 415:C:/Users/²Ü¼ÒºÀ/.iotlink/sdk/IoT_LINK/iot_link/network/lwm2m/wakaama_lwm2m/wakaama-master/core/er-coap-13\er-coap-13.c ****         }
 416:C:/Users/²Ü¼ÒºÀ/.iotlink/sdk/IoT_LINK/iot_link/network/lwm2m/wakaama_lwm2m/wakaama-master/core/er-coap-13\er-coap-13.c ****     }
 417:C:/Users/²Ü¼ÒºÀ/.iotlink/sdk/IoT_LINK/iot_link/network/lwm2m/wakaama_lwm2m/wakaama-master/core/er-coap-13\er-coap-13.c **** 
 418:C:/Users/²Ü¼ÒºÀ/.iotlink/sdk/IoT_LINK/iot_link/network/lwm2m/wakaama_lwm2m/wakaama-master/core/er-coap-13\er-coap-13.c ****     return 0;
 419:C:/Users/²Ü¼ÒºÀ/.iotlink/sdk/IoT_LINK/iot_link/network/lwm2m/wakaama_lwm2m/wakaama-master/core/er-coap-13\er-coap-13.c **** }
 420:C:/Users/²Ü¼ÒºÀ/.iotlink/sdk/IoT_LINK/iot_link/network/lwm2m/wakaama_lwm2m/wakaama-master/core/er-coap-13\er-coap-13.c **** 
 421:C:/Users/²Ü¼ÒºÀ/.iotlink/sdk/IoT_LINK/iot_link/network/lwm2m/wakaama_lwm2m/wakaama-master/core/er-coap-13\er-coap-13.c **** /*-----------------------------------------------------------------------------------*/
 422:C:/Users/²Ü¼ÒºÀ/.iotlink/sdk/IoT_LINK/iot_link/network/lwm2m/wakaama_lwm2m/wakaama-master/core/er-coap-13\er-coap-13.c **** uint16_t
 423:C:/Users/²Ü¼ÒºÀ/.iotlink/sdk/IoT_LINK/iot_link/network/lwm2m/wakaama_lwm2m/wakaama-master/core/er-coap-13\er-coap-13.c **** coap_get_mid()
 424:C:/Users/²Ü¼ÒºÀ/.iotlink/sdk/IoT_LINK/iot_link/network/lwm2m/wakaama_lwm2m/wakaama-master/core/er-coap-13\er-coap-13.c **** {
 893              		.loc 1 424 1 is_stmt 1 view -0
 894              		.cfi_startproc
 895              		@ args = 0, pretend = 0, frame = 0
 896              		@ frame_needed = 0, uses_anonymous_args = 0
 897              		@ link register save eliminated.
 425:C:/Users/²Ü¼ÒºÀ/.iotlink/sdk/IoT_LINK/iot_link/network/lwm2m/wakaama_lwm2m/wakaama-master/core/er-coap-13\er-coap-13.c ****     return ++current_mid;
 898              		.loc 1 425 5 view .LVU276
 899              		.loc 1 425 12 is_stmt 0 view .LVU277
 900 0000 024B     		ldr	r3, .L65
 901 0002 1888     		ldrh	r0, [r3]
 902 0004 0130     		adds	r0, r0, #1
 903 0006 80B2     		uxth	r0, r0
 904 0008 1880     		strh	r0, [r3]	@ movhi
 426:C:/Users/²Ü¼ÒºÀ/.iotlink/sdk/IoT_LINK/iot_link/network/lwm2m/wakaama_lwm2m/wakaama-master/core/er-coap-13\er-coap-13.c **** }
 905              		.loc 1 426 1 view .LVU278
 906 000a 7047     		bx	lr
 907              	.L66:
 908              		.align	2
 909              	.L65:
 910 000c 00000000 		.word	.LANCHOR0
 911              		.cfi_endproc
 912              	.LFE16:
 914              		.section	.text.coap_init_message,"ax",%progbits
 915              		.align	1
 916              		.global	coap_init_message
 917              		.syntax unified
 918              		.thumb
 919              		.thumb_func
 920              		.fpu fpv4-sp-d16
 922              	coap_init_message:
 923              	.LVL93:
 924              	.LFB17:
 427:C:/Users/²Ü¼ÒºÀ/.iotlink/sdk/IoT_LINK/iot_link/network/lwm2m/wakaama_lwm2m/wakaama-master/core/er-coap-13\er-coap-13.c **** /*-----------------------------------------------------------------------------------*/
 428:C:/Users/²Ü¼ÒºÀ/.iotlink/sdk/IoT_LINK/iot_link/network/lwm2m/wakaama_lwm2m/wakaama-master/core/er-coap-13\er-coap-13.c **** /*- MEASSAGE PROCESSING -------------------------------------------------------------*/
 429:C:/Users/²Ü¼ÒºÀ/.iotlink/sdk/IoT_LINK/iot_link/network/lwm2m/wakaama_lwm2m/wakaama-master/core/er-coap-13\er-coap-13.c **** /*-----------------------------------------------------------------------------------*/
 430:C:/Users/²Ü¼ÒºÀ/.iotlink/sdk/IoT_LINK/iot_link/network/lwm2m/wakaama_lwm2m/wakaama-master/core/er-coap-13\er-coap-13.c **** void
 431:C:/Users/²Ü¼ÒºÀ/.iotlink/sdk/IoT_LINK/iot_link/network/lwm2m/wakaama_lwm2m/wakaama-master/core/er-coap-13\er-coap-13.c **** coap_init_message(void *packet, coap_message_type_t type, uint8_t code, uint16_t mid)
 432:C:/Users/²Ü¼ÒºÀ/.iotlink/sdk/IoT_LINK/iot_link/network/lwm2m/wakaama_lwm2m/wakaama-master/core/er-coap-13\er-coap-13.c **** {
 925              		.loc 1 432 1 is_stmt 1 view -0
 926              		.cfi_startproc
 927              		@ args = 0, pretend = 0, frame = 0
 928              		@ frame_needed = 0, uses_anonymous_args = 0
 433:C:/Users/²Ü¼ÒºÀ/.iotlink/sdk/IoT_LINK/iot_link/network/lwm2m/wakaama_lwm2m/wakaama-master/core/er-coap-13\er-coap-13.c ****     coap_packet_t *const coap_pkt = (coap_packet_t *) packet;
 929              		.loc 1 433 5 view .LVU280
 432:C:/Users/²Ü¼ÒºÀ/.iotlink/sdk/IoT_LINK/iot_link/network/lwm2m/wakaama_lwm2m/wakaama-master/core/er-coap-13\er-coap-13.c ****     coap_packet_t *const coap_pkt = (coap_packet_t *) packet;
ARM GAS  C:\Users\²Ü¼ÒºÀ\AppData\Local\Temp\cczrlpTg.s 			page 27


 930              		.loc 1 432 1 is_stmt 0 view .LVU281
 931 0000 F8B5     		push	{r3, r4, r5, r6, r7, lr}
 932              	.LCFI11:
 933              		.cfi_def_cfa_offset 24
 934              		.cfi_offset 3, -24
 935              		.cfi_offset 4, -20
 936              		.cfi_offset 5, -16
 937              		.cfi_offset 6, -12
 938              		.cfi_offset 7, -8
 939              		.cfi_offset 14, -4
 432:C:/Users/²Ü¼ÒºÀ/.iotlink/sdk/IoT_LINK/iot_link/network/lwm2m/wakaama_lwm2m/wakaama-master/core/er-coap-13\er-coap-13.c ****     coap_packet_t *const coap_pkt = (coap_packet_t *) packet;
 940              		.loc 1 432 1 view .LVU282
 941 0002 0446     		mov	r4, r0
 942              	.LVL94:
 434:C:/Users/²Ü¼ÒºÀ/.iotlink/sdk/IoT_LINK/iot_link/network/lwm2m/wakaama_lwm2m/wakaama-master/core/er-coap-13\er-coap-13.c **** 
 435:C:/Users/²Ü¼ÒºÀ/.iotlink/sdk/IoT_LINK/iot_link/network/lwm2m/wakaama_lwm2m/wakaama-master/core/er-coap-13\er-coap-13.c ****     /* Important thing */
 436:C:/Users/²Ü¼ÒºÀ/.iotlink/sdk/IoT_LINK/iot_link/network/lwm2m/wakaama_lwm2m/wakaama-master/core/er-coap-13\er-coap-13.c ****     memset(coap_pkt, 0, sizeof(coap_packet_t));
 943              		.loc 1 436 5 is_stmt 1 view .LVU283
 432:C:/Users/²Ü¼ÒºÀ/.iotlink/sdk/IoT_LINK/iot_link/network/lwm2m/wakaama_lwm2m/wakaama-master/core/er-coap-13\er-coap-13.c ****     coap_packet_t *const coap_pkt = (coap_packet_t *) packet;
 944              		.loc 1 432 1 is_stmt 0 view .LVU284
 945 0004 0F46     		mov	r7, r1
 946 0006 1646     		mov	r6, r2
 947 0008 1D46     		mov	r5, r3
 948              		.loc 1 436 5 view .LVU285
 949 000a 8C22     		movs	r2, #140
 950              	.LVL95:
 951              		.loc 1 436 5 view .LVU286
 952 000c 0021     		movs	r1, #0
 953              	.LVL96:
 954              		.loc 1 436 5 view .LVU287
 955 000e FFF7FEFF 		bl	memset
 956              	.LVL97:
 437:C:/Users/²Ü¼ÒºÀ/.iotlink/sdk/IoT_LINK/iot_link/network/lwm2m/wakaama_lwm2m/wakaama-master/core/er-coap-13\er-coap-13.c **** 
 438:C:/Users/²Ü¼ÒºÀ/.iotlink/sdk/IoT_LINK/iot_link/network/lwm2m/wakaama_lwm2m/wakaama-master/core/er-coap-13\er-coap-13.c ****     coap_pkt->type = type;
 957              		.loc 1 438 5 is_stmt 1 view .LVU288
 958              		.loc 1 438 20 is_stmt 0 view .LVU289
 959 0012 6771     		strb	r7, [r4, #5]
 439:C:/Users/²Ü¼ÒºÀ/.iotlink/sdk/IoT_LINK/iot_link/network/lwm2m/wakaama_lwm2m/wakaama-master/core/er-coap-13\er-coap-13.c ****     coap_pkt->code = code;
 960              		.loc 1 439 5 is_stmt 1 view .LVU290
 961              		.loc 1 439 20 is_stmt 0 view .LVU291
 962 0014 A671     		strb	r6, [r4, #6]
 440:C:/Users/²Ü¼ÒºÀ/.iotlink/sdk/IoT_LINK/iot_link/network/lwm2m/wakaama_lwm2m/wakaama-master/core/er-coap-13\er-coap-13.c ****     coap_pkt->mid = mid;
 963              		.loc 1 440 5 is_stmt 1 view .LVU292
 964              		.loc 1 440 19 is_stmt 0 view .LVU293
 965 0016 2581     		strh	r5, [r4, #8]	@ movhi
 441:C:/Users/²Ü¼ÒºÀ/.iotlink/sdk/IoT_LINK/iot_link/network/lwm2m/wakaama_lwm2m/wakaama-master/core/er-coap-13\er-coap-13.c **** }
 966              		.loc 1 441 1 view .LVU294
 967 0018 F8BD     		pop	{r3, r4, r5, r6, r7, pc}
 968              		.loc 1 441 1 view .LVU295
 969              		.cfi_endproc
 970              	.LFE17:
 972              		.section	.text.coap_free_header,"ax",%progbits
 973              		.align	1
 974              		.global	coap_free_header
 975              		.syntax unified
 976              		.thumb
 977              		.thumb_func
ARM GAS  C:\Users\²Ü¼ÒºÀ\AppData\Local\Temp\cczrlpTg.s 			page 28


 978              		.fpu fpv4-sp-d16
 980              	coap_free_header:
 981              	.LVL98:
 982              	.LFB18:
 442:C:/Users/²Ü¼ÒºÀ/.iotlink/sdk/IoT_LINK/iot_link/network/lwm2m/wakaama_lwm2m/wakaama-master/core/er-coap-13\er-coap-13.c **** 
 443:C:/Users/²Ü¼ÒºÀ/.iotlink/sdk/IoT_LINK/iot_link/network/lwm2m/wakaama_lwm2m/wakaama-master/core/er-coap-13\er-coap-13.c **** void
 444:C:/Users/²Ü¼ÒºÀ/.iotlink/sdk/IoT_LINK/iot_link/network/lwm2m/wakaama_lwm2m/wakaama-master/core/er-coap-13\er-coap-13.c **** coap_free_header(void *packet)
 445:C:/Users/²Ü¼ÒºÀ/.iotlink/sdk/IoT_LINK/iot_link/network/lwm2m/wakaama_lwm2m/wakaama-master/core/er-coap-13\er-coap-13.c **** {
 983              		.loc 1 445 1 is_stmt 1 view -0
 984              		.cfi_startproc
 985              		@ args = 0, pretend = 0, frame = 0
 986              		@ frame_needed = 0, uses_anonymous_args = 0
 446:C:/Users/²Ü¼ÒºÀ/.iotlink/sdk/IoT_LINK/iot_link/network/lwm2m/wakaama_lwm2m/wakaama-master/core/er-coap-13\er-coap-13.c ****     coap_packet_t *const coap_pkt = (coap_packet_t *) packet;
 987              		.loc 1 446 5 view .LVU297
 447:C:/Users/²Ü¼ÒºÀ/.iotlink/sdk/IoT_LINK/iot_link/network/lwm2m/wakaama_lwm2m/wakaama-master/core/er-coap-13\er-coap-13.c **** 
 448:C:/Users/²Ü¼ÒºÀ/.iotlink/sdk/IoT_LINK/iot_link/network/lwm2m/wakaama_lwm2m/wakaama-master/core/er-coap-13\er-coap-13.c ****     free_multi_option(coap_pkt->uri_path);
 988              		.loc 1 448 5 view .LVU298
 445:C:/Users/²Ü¼ÒºÀ/.iotlink/sdk/IoT_LINK/iot_link/network/lwm2m/wakaama_lwm2m/wakaama-master/core/er-coap-13\er-coap-13.c ****     coap_packet_t *const coap_pkt = (coap_packet_t *) packet;
 989              		.loc 1 445 1 is_stmt 0 view .LVU299
 990 0000 10B5     		push	{r4, lr}
 991              	.LCFI12:
 992              		.cfi_def_cfa_offset 8
 993              		.cfi_offset 4, -8
 994              		.cfi_offset 14, -4
 445:C:/Users/²Ü¼ÒºÀ/.iotlink/sdk/IoT_LINK/iot_link/network/lwm2m/wakaama_lwm2m/wakaama-master/core/er-coap-13\er-coap-13.c ****     coap_packet_t *const coap_pkt = (coap_packet_t *) packet;
 995              		.loc 1 445 1 view .LVU300
 996 0002 0446     		mov	r4, r0
 997              		.loc 1 448 5 view .LVU301
 998 0004 406C     		ldr	r0, [r0, #68]
 999              	.LVL99:
 1000              		.loc 1 448 5 view .LVU302
 1001 0006 FFF7FEFF 		bl	free_multi_option
 1002              	.LVL100:
 449:C:/Users/²Ü¼ÒºÀ/.iotlink/sdk/IoT_LINK/iot_link/network/lwm2m/wakaama_lwm2m/wakaama-master/core/er-coap-13\er-coap-13.c ****     free_multi_option(coap_pkt->uri_query);
 1003              		.loc 1 449 5 is_stmt 1 view .LVU303
 1004 000a D4F88000 		ldr	r0, [r4, #128]
 1005 000e FFF7FEFF 		bl	free_multi_option
 1006              	.LVL101:
 450:C:/Users/²Ü¼ÒºÀ/.iotlink/sdk/IoT_LINK/iot_link/network/lwm2m/wakaama_lwm2m/wakaama-master/core/er-coap-13\er-coap-13.c ****     free_multi_option(coap_pkt->location_path);
 1007              		.loc 1 450 5 view .LVU304
 1008 0012 606B     		ldr	r0, [r4, #52]
 1009 0014 FFF7FEFF 		bl	free_multi_option
 1010              	.LVL102:
 451:C:/Users/²Ü¼ÒºÀ/.iotlink/sdk/IoT_LINK/iot_link/network/lwm2m/wakaama_lwm2m/wakaama-master/core/er-coap-13\er-coap-13.c ****     coap_pkt->uri_path = NULL;
 1011              		.loc 1 451 5 view .LVU305
 1012              		.loc 1 451 24 is_stmt 0 view .LVU306
 1013 0018 0023     		movs	r3, #0
 1014 001a 6364     		str	r3, [r4, #68]
 452:C:/Users/²Ü¼ÒºÀ/.iotlink/sdk/IoT_LINK/iot_link/network/lwm2m/wakaama_lwm2m/wakaama-master/core/er-coap-13\er-coap-13.c ****     coap_pkt->uri_query = NULL;
 1015              		.loc 1 452 5 is_stmt 1 view .LVU307
 1016              		.loc 1 452 25 is_stmt 0 view .LVU308
 1017 001c C4F88030 		str	r3, [r4, #128]
 453:C:/Users/²Ü¼ÒºÀ/.iotlink/sdk/IoT_LINK/iot_link/network/lwm2m/wakaama_lwm2m/wakaama-master/core/er-coap-13\er-coap-13.c ****     coap_pkt->location_path = NULL;
 1018              		.loc 1 453 5 is_stmt 1 view .LVU309
 1019              		.loc 1 453 29 is_stmt 0 view .LVU310
 1020 0020 6363     		str	r3, [r4, #52]
 454:C:/Users/²Ü¼ÒºÀ/.iotlink/sdk/IoT_LINK/iot_link/network/lwm2m/wakaama_lwm2m/wakaama-master/core/er-coap-13\er-coap-13.c **** }
ARM GAS  C:\Users\²Ü¼ÒºÀ\AppData\Local\Temp\cczrlpTg.s 			page 29


 1021              		.loc 1 454 1 view .LVU311
 1022 0022 10BD     		pop	{r4, pc}
 1023              		.loc 1 454 1 view .LVU312
 1024              		.cfi_endproc
 1025              	.LFE18:
 1027              		.section	.text.coap_serialize_get_size,"ax",%progbits
 1028              		.align	1
 1029              		.global	coap_serialize_get_size
 1030              		.syntax unified
 1031              		.thumb
 1032              		.thumb_func
 1033              		.fpu fpv4-sp-d16
 1035              	coap_serialize_get_size:
 1036              	.LVL103:
 1037              	.LFB19:
 455:C:/Users/²Ü¼ÒºÀ/.iotlink/sdk/IoT_LINK/iot_link/network/lwm2m/wakaama_lwm2m/wakaama-master/core/er-coap-13\er-coap-13.c **** 
 456:C:/Users/²Ü¼ÒºÀ/.iotlink/sdk/IoT_LINK/iot_link/network/lwm2m/wakaama_lwm2m/wakaama-master/core/er-coap-13\er-coap-13.c **** /*-----------------------------------------------------------------------------------*/
 457:C:/Users/²Ü¼ÒºÀ/.iotlink/sdk/IoT_LINK/iot_link/network/lwm2m/wakaama_lwm2m/wakaama-master/core/er-coap-13\er-coap-13.c **** size_t coap_serialize_get_size(void *packet)
 458:C:/Users/²Ü¼ÒºÀ/.iotlink/sdk/IoT_LINK/iot_link/network/lwm2m/wakaama_lwm2m/wakaama-master/core/er-coap-13\er-coap-13.c **** {
 1038              		.loc 1 458 1 is_stmt 1 view -0
 1039              		.cfi_startproc
 1040              		@ args = 0, pretend = 0, frame = 0
 1041              		@ frame_needed = 0, uses_anonymous_args = 0
 459:C:/Users/²Ü¼ÒºÀ/.iotlink/sdk/IoT_LINK/iot_link/network/lwm2m/wakaama_lwm2m/wakaama-master/core/er-coap-13\er-coap-13.c ****     coap_packet_t *const coap_pkt = (coap_packet_t *) packet;
 1042              		.loc 1 459 5 view .LVU314
 460:C:/Users/²Ü¼ÒºÀ/.iotlink/sdk/IoT_LINK/iot_link/network/lwm2m/wakaama_lwm2m/wakaama-master/core/er-coap-13\er-coap-13.c ****     size_t length = 0;
 1043              		.loc 1 460 5 view .LVU315
 461:C:/Users/²Ü¼ÒºÀ/.iotlink/sdk/IoT_LINK/iot_link/network/lwm2m/wakaama_lwm2m/wakaama-master/core/er-coap-13\er-coap-13.c **** 
 462:C:/Users/²Ü¼ÒºÀ/.iotlink/sdk/IoT_LINK/iot_link/network/lwm2m/wakaama_lwm2m/wakaama-master/core/er-coap-13\er-coap-13.c ****     length = COAP_HEADER_LEN + coap_pkt->payload_len + coap_pkt->token_len;
 1044              		.loc 1 462 5 view .LVU316
 458:C:/Users/²Ü¼ÒºÀ/.iotlink/sdk/IoT_LINK/iot_link/network/lwm2m/wakaama_lwm2m/wakaama-master/core/er-coap-13\er-coap-13.c ****     coap_packet_t *const coap_pkt = (coap_packet_t *) packet;
 1045              		.loc 1 458 1 is_stmt 0 view .LVU317
 1046 0000 30B5     		push	{r4, r5, lr}
 1047              	.LCFI13:
 1048              		.cfi_def_cfa_offset 12
 1049              		.cfi_offset 4, -12
 1050              		.cfi_offset 5, -8
 1051              		.cfi_offset 14, -4
 1052              		.loc 1 462 40 view .LVU318
 1053 0002 B0F88640 		ldrh	r4, [r0, #134]
 458:C:/Users/²Ü¼ÒºÀ/.iotlink/sdk/IoT_LINK/iot_link/network/lwm2m/wakaama_lwm2m/wakaama-master/core/er-coap-13\er-coap-13.c ****     coap_packet_t *const coap_pkt = (coap_packet_t *) packet;
 1054              		.loc 1 458 1 view .LVU319
 1055 0006 0346     		mov	r3, r0
 1056              		.loc 1 462 64 view .LVU320
 1057 0008 90F84C00 		ldrb	r0, [r0, #76]	@ zero_extendqisi2
 1058              	.LVL104:
 1059              		.loc 1 462 30 view .LVU321
 1060 000c 221D     		adds	r2, r4, #4
 1061              		.loc 1 462 54 view .LVU322
 1062 000e 1044     		add	r0, r0, r2
 1063              	.LVL105:
 463:C:/Users/²Ü¼ÒºÀ/.iotlink/sdk/IoT_LINK/iot_link/network/lwm2m/wakaama_lwm2m/wakaama-master/core/er-coap-13\er-coap-13.c **** 
 464:C:/Users/²Ü¼ÒºÀ/.iotlink/sdk/IoT_LINK/iot_link/network/lwm2m/wakaama_lwm2m/wakaama-master/core/er-coap-13\er-coap-13.c ****     if (IS_OPTION(coap_pkt, COAP_OPTION_IF_MATCH))
 1064              		.loc 1 464 5 is_stmt 1 view .LVU323
 1065              		.loc 1 464 9 is_stmt 0 view .LVU324
 1066 0010 9A7A     		ldrb	r2, [r3, #10]	@ zero_extendqisi2
 1067              		.loc 1 464 8 view .LVU325
ARM GAS  C:\Users\²Ü¼ÒºÀ\AppData\Local\Temp\cczrlpTg.s 			page 30


 1068 0012 9107     		lsls	r1, r2, #30
 465:C:/Users/²Ü¼ÒºÀ/.iotlink/sdk/IoT_LINK/iot_link/network/lwm2m/wakaama_lwm2m/wakaama-master/core/er-coap-13\er-coap-13.c ****     {
 466:C:/Users/²Ü¼ÒºÀ/.iotlink/sdk/IoT_LINK/iot_link/network/lwm2m/wakaama_lwm2m/wakaama-master/core/er-coap-13\er-coap-13.c ****         length += COAP_MAX_OPTION_HEADER_LEN + coap_pkt->if_match_len;
 1069              		.loc 1 466 9 is_stmt 1 view .LVU326
 1070              		.loc 1 466 16 is_stmt 0 view .LVU327
 1071 0014 42BF     		ittt	mi
 1072 0016 93F85A10 		ldrbmi	r1, [r3, #90]	@ zero_extendqisi2
 1073 001a 0531     		addmi	r1, r1, #5
 1074 001c 4018     		addmi	r0, r0, r1
 1075              	.LVL106:
 467:C:/Users/²Ü¼ÒºÀ/.iotlink/sdk/IoT_LINK/iot_link/network/lwm2m/wakaama_lwm2m/wakaama-master/core/er-coap-13\er-coap-13.c ****     }
 468:C:/Users/²Ü¼ÒºÀ/.iotlink/sdk/IoT_LINK/iot_link/network/lwm2m/wakaama_lwm2m/wakaama-master/core/er-coap-13\er-coap-13.c ****     if (IS_OPTION(coap_pkt, COAP_OPTION_URI_HOST))
 1076              		.loc 1 468 5 is_stmt 1 view .LVU328
 1077              		.loc 1 468 8 is_stmt 0 view .LVU329
 1078 001e 1507     		lsls	r5, r2, #28
 469:C:/Users/²Ü¼ÒºÀ/.iotlink/sdk/IoT_LINK/iot_link/network/lwm2m/wakaama_lwm2m/wakaama-master/core/er-coap-13\er-coap-13.c ****     {
 470:C:/Users/²Ü¼ÒºÀ/.iotlink/sdk/IoT_LINK/iot_link/network/lwm2m/wakaama_lwm2m/wakaama-master/core/er-coap-13\er-coap-13.c ****         length += COAP_MAX_OPTION_HEADER_LEN + coap_pkt->uri_host_len;
 1079              		.loc 1 470 9 is_stmt 1 view .LVU330
 1080              		.loc 1 470 16 is_stmt 0 view .LVU331
 1081 0020 42BF     		ittt	mi
 1082 0022 D96A     		ldrmi	r1, [r3, #44]
 1083 0024 0531     		addmi	r1, r1, #5
 1084 0026 4018     		addmi	r0, r0, r1
 1085              	.LVL107:
 471:C:/Users/²Ü¼ÒºÀ/.iotlink/sdk/IoT_LINK/iot_link/network/lwm2m/wakaama_lwm2m/wakaama-master/core/er-coap-13\er-coap-13.c ****     }
 472:C:/Users/²Ü¼ÒºÀ/.iotlink/sdk/IoT_LINK/iot_link/network/lwm2m/wakaama_lwm2m/wakaama-master/core/er-coap-13\er-coap-13.c ****     if (IS_OPTION(coap_pkt, COAP_OPTION_ETAG))
 1086              		.loc 1 472 5 is_stmt 1 view .LVU332
 1087              		.loc 1 472 8 is_stmt 0 view .LVU333
 1088 0028 D106     		lsls	r1, r2, #27
 473:C:/Users/²Ü¼ÒºÀ/.iotlink/sdk/IoT_LINK/iot_link/network/lwm2m/wakaama_lwm2m/wakaama-master/core/er-coap-13\er-coap-13.c ****     {
 474:C:/Users/²Ü¼ÒºÀ/.iotlink/sdk/IoT_LINK/iot_link/network/lwm2m/wakaama_lwm2m/wakaama-master/core/er-coap-13\er-coap-13.c ****         length += COAP_MAX_OPTION_HEADER_LEN + coap_pkt->etag_len;
 1089              		.loc 1 474 9 is_stmt 1 view .LVU334
 1090              		.loc 1 474 16 is_stmt 0 view .LVU335
 1091 002a 42BF     		ittt	mi
 1092 002c 93F82010 		ldrbmi	r1, [r3, #32]	@ zero_extendqisi2
 1093 0030 0531     		addmi	r1, r1, #5
 1094 0032 4018     		addmi	r0, r0, r1
 1095              	.LVL108:
 475:C:/Users/²Ü¼ÒºÀ/.iotlink/sdk/IoT_LINK/iot_link/network/lwm2m/wakaama_lwm2m/wakaama-master/core/er-coap-13\er-coap-13.c ****     }
 476:C:/Users/²Ü¼ÒºÀ/.iotlink/sdk/IoT_LINK/iot_link/network/lwm2m/wakaama_lwm2m/wakaama-master/core/er-coap-13\er-coap-13.c ****     if (IS_OPTION(coap_pkt, COAP_OPTION_IF_NONE_MATCH))
 1096              		.loc 1 476 5 is_stmt 1 view .LVU336
 1097              		.loc 1 476 8 is_stmt 0 view .LVU337
 1098 0034 9506     		lsls	r5, r2, #26
 477:C:/Users/²Ü¼ÒºÀ/.iotlink/sdk/IoT_LINK/iot_link/network/lwm2m/wakaama_lwm2m/wakaama-master/core/er-coap-13\er-coap-13.c ****     {
 478:C:/Users/²Ü¼ÒºÀ/.iotlink/sdk/IoT_LINK/iot_link/network/lwm2m/wakaama_lwm2m/wakaama-master/core/er-coap-13\er-coap-13.c ****         // can be stored in extended fields
 479:C:/Users/²Ü¼ÒºÀ/.iotlink/sdk/IoT_LINK/iot_link/network/lwm2m/wakaama_lwm2m/wakaama-master/core/er-coap-13\er-coap-13.c ****         length += COAP_MAX_OPTION_HEADER_LEN;
 1099              		.loc 1 479 9 is_stmt 1 view .LVU338
 1100              		.loc 1 479 16 is_stmt 0 view .LVU339
 1101 0036 48BF     		it	mi
 1102 0038 0530     		addmi	r0, r0, #5
 1103              	.LVL109:
 480:C:/Users/²Ü¼ÒºÀ/.iotlink/sdk/IoT_LINK/iot_link/network/lwm2m/wakaama_lwm2m/wakaama-master/core/er-coap-13\er-coap-13.c ****     }
 481:C:/Users/²Ü¼ÒºÀ/.iotlink/sdk/IoT_LINK/iot_link/network/lwm2m/wakaama_lwm2m/wakaama-master/core/er-coap-13\er-coap-13.c ****     if (IS_OPTION(coap_pkt, COAP_OPTION_OBSERVE))
 1104              		.loc 1 481 5 is_stmt 1 view .LVU340
 1105              		.loc 1 481 8 is_stmt 0 view .LVU341
 1106 003a 5106     		lsls	r1, r2, #25
 482:C:/Users/²Ü¼ÒºÀ/.iotlink/sdk/IoT_LINK/iot_link/network/lwm2m/wakaama_lwm2m/wakaama-master/core/er-coap-13\er-coap-13.c ****     {
ARM GAS  C:\Users\²Ü¼ÒºÀ\AppData\Local\Temp\cczrlpTg.s 			page 31


 483:C:/Users/²Ü¼ÒºÀ/.iotlink/sdk/IoT_LINK/iot_link/network/lwm2m/wakaama_lwm2m/wakaama-master/core/er-coap-13\er-coap-13.c ****         // can be stored in extended fields
 484:C:/Users/²Ü¼ÒºÀ/.iotlink/sdk/IoT_LINK/iot_link/network/lwm2m/wakaama_lwm2m/wakaama-master/core/er-coap-13\er-coap-13.c ****         length += COAP_MAX_OPTION_HEADER_LEN;
 1107              		.loc 1 484 9 is_stmt 1 view .LVU342
 1108              		.loc 1 484 16 is_stmt 0 view .LVU343
 1109 003c 48BF     		it	mi
 1110 003e 0530     		addmi	r0, r0, #5
 1111              	.LVL110:
 485:C:/Users/²Ü¼ÒºÀ/.iotlink/sdk/IoT_LINK/iot_link/network/lwm2m/wakaama_lwm2m/wakaama-master/core/er-coap-13\er-coap-13.c ****     }
 486:C:/Users/²Ü¼ÒºÀ/.iotlink/sdk/IoT_LINK/iot_link/network/lwm2m/wakaama_lwm2m/wakaama-master/core/er-coap-13\er-coap-13.c ****     if (IS_OPTION(coap_pkt, COAP_OPTION_URI_PORT))
 1112              		.loc 1 486 5 is_stmt 1 view .LVU344
 1113              		.loc 1 486 8 is_stmt 0 view .LVU345
 1114 0040 1206     		lsls	r2, r2, #24
 487:C:/Users/²Ü¼ÒºÀ/.iotlink/sdk/IoT_LINK/iot_link/network/lwm2m/wakaama_lwm2m/wakaama-master/core/er-coap-13\er-coap-13.c ****     {
 488:C:/Users/²Ü¼ÒºÀ/.iotlink/sdk/IoT_LINK/iot_link/network/lwm2m/wakaama_lwm2m/wakaama-master/core/er-coap-13\er-coap-13.c ****         // can be stored in extended fields
 489:C:/Users/²Ü¼ÒºÀ/.iotlink/sdk/IoT_LINK/iot_link/network/lwm2m/wakaama_lwm2m/wakaama-master/core/er-coap-13\er-coap-13.c ****         length += COAP_MAX_OPTION_HEADER_LEN;
 1115              		.loc 1 489 9 is_stmt 1 view .LVU346
 490:C:/Users/²Ü¼ÒºÀ/.iotlink/sdk/IoT_LINK/iot_link/network/lwm2m/wakaama_lwm2m/wakaama-master/core/er-coap-13\er-coap-13.c ****     }
 491:C:/Users/²Ü¼ÒºÀ/.iotlink/sdk/IoT_LINK/iot_link/network/lwm2m/wakaama_lwm2m/wakaama-master/core/er-coap-13\er-coap-13.c ****     if (IS_OPTION(coap_pkt, COAP_OPTION_LOCATION_PATH))
 1116              		.loc 1 491 9 is_stmt 0 view .LVU347
 1117 0042 DA7A     		ldrb	r2, [r3, #11]	@ zero_extendqisi2
 489:C:/Users/²Ü¼ÒºÀ/.iotlink/sdk/IoT_LINK/iot_link/network/lwm2m/wakaama_lwm2m/wakaama-master/core/er-coap-13\er-coap-13.c ****     }
 1118              		.loc 1 489 16 view .LVU348
 1119 0044 48BF     		it	mi
 1120 0046 0530     		addmi	r0, r0, #5
 1121              	.LVL111:
 1122              		.loc 1 491 5 is_stmt 1 view .LVU349
 1123              		.loc 1 491 8 is_stmt 0 view .LVU350
 1124 0048 D507     		lsls	r5, r2, #31
 1125 004a 02D5     		bpl	.L76
 1126              	.LBB42:
 492:C:/Users/²Ü¼ÒºÀ/.iotlink/sdk/IoT_LINK/iot_link/network/lwm2m/wakaama_lwm2m/wakaama-master/core/er-coap-13\er-coap-13.c ****     {
 493:C:/Users/²Ü¼ÒºÀ/.iotlink/sdk/IoT_LINK/iot_link/network/lwm2m/wakaama_lwm2m/wakaama-master/core/er-coap-13\er-coap-13.c ****         multi_option_t *optP;
 1127              		.loc 1 493 9 is_stmt 1 view .LVU351
 494:C:/Users/²Ü¼ÒºÀ/.iotlink/sdk/IoT_LINK/iot_link/network/lwm2m/wakaama_lwm2m/wakaama-master/core/er-coap-13\er-coap-13.c **** 
 495:C:/Users/²Ü¼ÒºÀ/.iotlink/sdk/IoT_LINK/iot_link/network/lwm2m/wakaama_lwm2m/wakaama-master/core/er-coap-13\er-coap-13.c ****         for (optP = coap_pkt->location_path ; optP != NULL ; optP = optP->next)
 1128              		.loc 1 495 9 view .LVU352
 1129              		.loc 1 495 19 is_stmt 0 view .LVU353
 1130 004c 596B     		ldr	r1, [r3, #52]
 1131              	.LVL112:
 1132              	.L77:
 1133              		.loc 1 495 47 is_stmt 1 discriminator 1 view .LVU354
 1134              		.loc 1 495 9 is_stmt 0 discriminator 1 view .LVU355
 1135 004e 0029     		cmp	r1, #0
 1136 0050 30D1     		bne	.L78
 1137              	.LVL113:
 1138              	.L76:
 1139              		.loc 1 495 9 discriminator 1 view .LVU356
 1140              	.LBE42:
 496:C:/Users/²Ü¼ÒºÀ/.iotlink/sdk/IoT_LINK/iot_link/network/lwm2m/wakaama_lwm2m/wakaama-master/core/er-coap-13\er-coap-13.c ****         {
 497:C:/Users/²Ü¼ÒºÀ/.iotlink/sdk/IoT_LINK/iot_link/network/lwm2m/wakaama_lwm2m/wakaama-master/core/er-coap-13\er-coap-13.c ****             length += COAP_MAX_OPTION_HEADER_LEN + optP->len;
 498:C:/Users/²Ü¼ÒºÀ/.iotlink/sdk/IoT_LINK/iot_link/network/lwm2m/wakaama_lwm2m/wakaama-master/core/er-coap-13\er-coap-13.c ****         }
 499:C:/Users/²Ü¼ÒºÀ/.iotlink/sdk/IoT_LINK/iot_link/network/lwm2m/wakaama_lwm2m/wakaama-master/core/er-coap-13\er-coap-13.c ****     }
 500:C:/Users/²Ü¼ÒºÀ/.iotlink/sdk/IoT_LINK/iot_link/network/lwm2m/wakaama_lwm2m/wakaama-master/core/er-coap-13\er-coap-13.c ****     if (IS_OPTION(coap_pkt, COAP_OPTION_URI_PATH))
 1141              		.loc 1 500 5 is_stmt 1 view .LVU357
 1142              		.loc 1 500 8 is_stmt 0 view .LVU358
 1143 0052 1107     		lsls	r1, r2, #28
 1144 0054 02D5     		bpl	.L79
ARM GAS  C:\Users\²Ü¼ÒºÀ\AppData\Local\Temp\cczrlpTg.s 			page 32


 1145              	.LBB43:
 501:C:/Users/²Ü¼ÒºÀ/.iotlink/sdk/IoT_LINK/iot_link/network/lwm2m/wakaama_lwm2m/wakaama-master/core/er-coap-13\er-coap-13.c ****     {
 502:C:/Users/²Ü¼ÒºÀ/.iotlink/sdk/IoT_LINK/iot_link/network/lwm2m/wakaama_lwm2m/wakaama-master/core/er-coap-13\er-coap-13.c ****         multi_option_t *optP;
 1146              		.loc 1 502 9 is_stmt 1 view .LVU359
 503:C:/Users/²Ü¼ÒºÀ/.iotlink/sdk/IoT_LINK/iot_link/network/lwm2m/wakaama_lwm2m/wakaama-master/core/er-coap-13\er-coap-13.c **** 
 504:C:/Users/²Ü¼ÒºÀ/.iotlink/sdk/IoT_LINK/iot_link/network/lwm2m/wakaama_lwm2m/wakaama-master/core/er-coap-13\er-coap-13.c ****         for (optP = coap_pkt->uri_path ; optP != NULL ; optP = optP->next)
 1147              		.loc 1 504 9 view .LVU360
 1148              		.loc 1 504 19 is_stmt 0 view .LVU361
 1149 0056 596C     		ldr	r1, [r3, #68]
 1150              	.LVL114:
 1151              	.L80:
 1152              		.loc 1 504 42 is_stmt 1 discriminator 1 view .LVU362
 1153              		.loc 1 504 9 is_stmt 0 discriminator 1 view .LVU363
 1154 0058 0029     		cmp	r1, #0
 1155 005a 30D1     		bne	.L81
 1156              	.LVL115:
 1157              	.L79:
 1158              		.loc 1 504 9 discriminator 1 view .LVU364
 1159              	.LBE43:
 505:C:/Users/²Ü¼ÒºÀ/.iotlink/sdk/IoT_LINK/iot_link/network/lwm2m/wakaama_lwm2m/wakaama-master/core/er-coap-13\er-coap-13.c ****         {
 506:C:/Users/²Ü¼ÒºÀ/.iotlink/sdk/IoT_LINK/iot_link/network/lwm2m/wakaama_lwm2m/wakaama-master/core/er-coap-13\er-coap-13.c ****             length += COAP_MAX_OPTION_HEADER_LEN + optP->len;
 507:C:/Users/²Ü¼ÒºÀ/.iotlink/sdk/IoT_LINK/iot_link/network/lwm2m/wakaama_lwm2m/wakaama-master/core/er-coap-13\er-coap-13.c ****         }
 508:C:/Users/²Ü¼ÒºÀ/.iotlink/sdk/IoT_LINK/iot_link/network/lwm2m/wakaama_lwm2m/wakaama-master/core/er-coap-13\er-coap-13.c ****     }
 509:C:/Users/²Ü¼ÒºÀ/.iotlink/sdk/IoT_LINK/iot_link/network/lwm2m/wakaama_lwm2m/wakaama-master/core/er-coap-13\er-coap-13.c ****     if (IS_OPTION(coap_pkt, COAP_OPTION_CONTENT_TYPE))
 1160              		.loc 1 509 5 is_stmt 1 view .LVU365
 1161              		.loc 1 509 8 is_stmt 0 view .LVU366
 1162 005c D506     		lsls	r5, r2, #27
 510:C:/Users/²Ü¼ÒºÀ/.iotlink/sdk/IoT_LINK/iot_link/network/lwm2m/wakaama_lwm2m/wakaama-master/core/er-coap-13\er-coap-13.c ****     {
 511:C:/Users/²Ü¼ÒºÀ/.iotlink/sdk/IoT_LINK/iot_link/network/lwm2m/wakaama_lwm2m/wakaama-master/core/er-coap-13\er-coap-13.c ****         // can be stored in extended fields
 512:C:/Users/²Ü¼ÒºÀ/.iotlink/sdk/IoT_LINK/iot_link/network/lwm2m/wakaama_lwm2m/wakaama-master/core/er-coap-13\er-coap-13.c ****         length += COAP_MAX_OPTION_HEADER_LEN;
 1163              		.loc 1 512 9 is_stmt 1 view .LVU367
 1164              		.loc 1 512 16 is_stmt 0 view .LVU368
 1165 005e 48BF     		it	mi
 1166 0060 0530     		addmi	r0, r0, #5
 1167              	.LVL116:
 513:C:/Users/²Ü¼ÒºÀ/.iotlink/sdk/IoT_LINK/iot_link/network/lwm2m/wakaama_lwm2m/wakaama-master/core/er-coap-13\er-coap-13.c ****     }
 514:C:/Users/²Ü¼ÒºÀ/.iotlink/sdk/IoT_LINK/iot_link/network/lwm2m/wakaama_lwm2m/wakaama-master/core/er-coap-13\er-coap-13.c ****     if (IS_OPTION(coap_pkt, COAP_OPTION_MAX_AGE))
 1168              		.loc 1 514 5 is_stmt 1 view .LVU369
 1169              		.loc 1 514 8 is_stmt 0 view .LVU370
 1170 0062 5106     		lsls	r1, r2, #25
 515:C:/Users/²Ü¼ÒºÀ/.iotlink/sdk/IoT_LINK/iot_link/network/lwm2m/wakaama_lwm2m/wakaama-master/core/er-coap-13\er-coap-13.c ****     {
 516:C:/Users/²Ü¼ÒºÀ/.iotlink/sdk/IoT_LINK/iot_link/network/lwm2m/wakaama_lwm2m/wakaama-master/core/er-coap-13\er-coap-13.c ****         // can be stored in extended fields
 517:C:/Users/²Ü¼ÒºÀ/.iotlink/sdk/IoT_LINK/iot_link/network/lwm2m/wakaama_lwm2m/wakaama-master/core/er-coap-13\er-coap-13.c ****         length += COAP_MAX_OPTION_HEADER_LEN;
 1171              		.loc 1 517 9 is_stmt 1 view .LVU371
 1172              		.loc 1 517 16 is_stmt 0 view .LVU372
 1173 0064 48BF     		it	mi
 1174 0066 0530     		addmi	r0, r0, #5
 1175              	.LVL117:
 518:C:/Users/²Ü¼ÒºÀ/.iotlink/sdk/IoT_LINK/iot_link/network/lwm2m/wakaama_lwm2m/wakaama-master/core/er-coap-13\er-coap-13.c ****     }
 519:C:/Users/²Ü¼ÒºÀ/.iotlink/sdk/IoT_LINK/iot_link/network/lwm2m/wakaama_lwm2m/wakaama-master/core/er-coap-13\er-coap-13.c ****     if (IS_OPTION(coap_pkt, COAP_OPTION_URI_QUERY))
 1176              		.loc 1 519 5 is_stmt 1 view .LVU373
 1177              		.loc 1 519 8 is_stmt 0 view .LVU374
 1178 0068 1206     		lsls	r2, r2, #24
 1179 006a 03D5     		bpl	.L84
 1180              	.LBB44:
 520:C:/Users/²Ü¼ÒºÀ/.iotlink/sdk/IoT_LINK/iot_link/network/lwm2m/wakaama_lwm2m/wakaama-master/core/er-coap-13\er-coap-13.c ****     {
 521:C:/Users/²Ü¼ÒºÀ/.iotlink/sdk/IoT_LINK/iot_link/network/lwm2m/wakaama_lwm2m/wakaama-master/core/er-coap-13\er-coap-13.c ****         multi_option_t *optP;
ARM GAS  C:\Users\²Ü¼ÒºÀ\AppData\Local\Temp\cczrlpTg.s 			page 33


 1181              		.loc 1 521 9 is_stmt 1 view .LVU375
 522:C:/Users/²Ü¼ÒºÀ/.iotlink/sdk/IoT_LINK/iot_link/network/lwm2m/wakaama_lwm2m/wakaama-master/core/er-coap-13\er-coap-13.c **** 
 523:C:/Users/²Ü¼ÒºÀ/.iotlink/sdk/IoT_LINK/iot_link/network/lwm2m/wakaama_lwm2m/wakaama-master/core/er-coap-13\er-coap-13.c ****         for (optP = coap_pkt->uri_query ; optP != NULL ; optP = optP->next)
 1182              		.loc 1 523 9 view .LVU376
 1183              		.loc 1 523 19 is_stmt 0 view .LVU377
 1184 006c D3F88020 		ldr	r2, [r3, #128]
 1185              	.LVL118:
 1186              	.L85:
 1187              		.loc 1 523 43 is_stmt 1 discriminator 1 view .LVU378
 1188              		.loc 1 523 9 is_stmt 0 discriminator 1 view .LVU379
 1189 0070 002A     		cmp	r2, #0
 1190 0072 29D1     		bne	.L86
 1191              	.LVL119:
 1192              	.L84:
 1193              		.loc 1 523 9 discriminator 1 view .LVU380
 1194              	.LBE44:
 524:C:/Users/²Ü¼ÒºÀ/.iotlink/sdk/IoT_LINK/iot_link/network/lwm2m/wakaama_lwm2m/wakaama-master/core/er-coap-13\er-coap-13.c ****         {
 525:C:/Users/²Ü¼ÒºÀ/.iotlink/sdk/IoT_LINK/iot_link/network/lwm2m/wakaama_lwm2m/wakaama-master/core/er-coap-13\er-coap-13.c ****             length += COAP_MAX_OPTION_HEADER_LEN + optP->len;
 526:C:/Users/²Ü¼ÒºÀ/.iotlink/sdk/IoT_LINK/iot_link/network/lwm2m/wakaama_lwm2m/wakaama-master/core/er-coap-13\er-coap-13.c ****         }
 527:C:/Users/²Ü¼ÒºÀ/.iotlink/sdk/IoT_LINK/iot_link/network/lwm2m/wakaama_lwm2m/wakaama-master/core/er-coap-13\er-coap-13.c ****     }
 528:C:/Users/²Ü¼ÒºÀ/.iotlink/sdk/IoT_LINK/iot_link/network/lwm2m/wakaama_lwm2m/wakaama-master/core/er-coap-13\er-coap-13.c ****     if (IS_OPTION(coap_pkt, COAP_OPTION_ACCEPT))
 1195              		.loc 1 528 5 is_stmt 1 view .LVU381
 1196              		.loc 1 528 9 is_stmt 0 view .LVU382
 1197 0074 1A7B     		ldrb	r2, [r3, #12]	@ zero_extendqisi2
 1198              		.loc 1 528 8 view .LVU383
 1199 0076 9507     		lsls	r5, r2, #30
 529:C:/Users/²Ü¼ÒºÀ/.iotlink/sdk/IoT_LINK/iot_link/network/lwm2m/wakaama_lwm2m/wakaama-master/core/er-coap-13\er-coap-13.c ****     {
 530:C:/Users/²Ü¼ÒºÀ/.iotlink/sdk/IoT_LINK/iot_link/network/lwm2m/wakaama_lwm2m/wakaama-master/core/er-coap-13\er-coap-13.c ****         length += coap_pkt->accept_num * COAP_MAX_OPTION_HEADER_LEN;
 1200              		.loc 1 530 9 is_stmt 1 view .LVU384
 1201              		.loc 1 530 16 is_stmt 0 view .LVU385
 1202 0078 42BF     		ittt	mi
 1203 007a 93F85510 		ldrbmi	r1, [r3, #85]	@ zero_extendqisi2
 1204 007e 0525     		movmi	r5, #5
 1205 0080 15FB0100 		smlabbmi	r0, r5, r1, r0
 1206              	.LVL120:
 531:C:/Users/²Ü¼ÒºÀ/.iotlink/sdk/IoT_LINK/iot_link/network/lwm2m/wakaama_lwm2m/wakaama-master/core/er-coap-13\er-coap-13.c ****     }
 532:C:/Users/²Ü¼ÒºÀ/.iotlink/sdk/IoT_LINK/iot_link/network/lwm2m/wakaama_lwm2m/wakaama-master/core/er-coap-13\er-coap-13.c ****     if (IS_OPTION(coap_pkt, COAP_OPTION_LOCATION_QUERY))
 1207              		.loc 1 532 5 is_stmt 1 view .LVU386
 1208              		.loc 1 532 8 is_stmt 0 view .LVU387
 1209 0084 D106     		lsls	r1, r2, #27
 533:C:/Users/²Ü¼ÒºÀ/.iotlink/sdk/IoT_LINK/iot_link/network/lwm2m/wakaama_lwm2m/wakaama-master/core/er-coap-13\er-coap-13.c ****     {
 534:C:/Users/²Ü¼ÒºÀ/.iotlink/sdk/IoT_LINK/iot_link/network/lwm2m/wakaama_lwm2m/wakaama-master/core/er-coap-13\er-coap-13.c ****         length += COAP_MAX_OPTION_HEADER_LEN + coap_pkt->location_query_len;
 1210              		.loc 1 534 9 is_stmt 1 view .LVU388
 1211              		.loc 1 534 16 is_stmt 0 view .LVU389
 1212 0086 42BF     		ittt	mi
 1213 0088 D96B     		ldrmi	r1, [r3, #60]
 1214 008a 0531     		addmi	r1, r1, #5
 1215 008c 4018     		addmi	r0, r0, r1
 1216              	.LVL121:
 535:C:/Users/²Ü¼ÒºÀ/.iotlink/sdk/IoT_LINK/iot_link/network/lwm2m/wakaama_lwm2m/wakaama-master/core/er-coap-13\er-coap-13.c ****     }
 536:C:/Users/²Ü¼ÒºÀ/.iotlink/sdk/IoT_LINK/iot_link/network/lwm2m/wakaama_lwm2m/wakaama-master/core/er-coap-13\er-coap-13.c ****     if (IS_OPTION(coap_pkt, COAP_OPTION_BLOCK2))
 1217              		.loc 1 536 5 is_stmt 1 view .LVU390
 1218              		.loc 1 536 8 is_stmt 0 view .LVU391
 1219 008e 1206     		lsls	r2, r2, #24
 537:C:/Users/²Ü¼ÒºÀ/.iotlink/sdk/IoT_LINK/iot_link/network/lwm2m/wakaama_lwm2m/wakaama-master/core/er-coap-13\er-coap-13.c ****     {
 538:C:/Users/²Ü¼ÒºÀ/.iotlink/sdk/IoT_LINK/iot_link/network/lwm2m/wakaama_lwm2m/wakaama-master/core/er-coap-13\er-coap-13.c ****         // can be stored in extended fields
 539:C:/Users/²Ü¼ÒºÀ/.iotlink/sdk/IoT_LINK/iot_link/network/lwm2m/wakaama_lwm2m/wakaama-master/core/er-coap-13\er-coap-13.c ****         length += COAP_MAX_OPTION_HEADER_LEN;
ARM GAS  C:\Users\²Ü¼ÒºÀ\AppData\Local\Temp\cczrlpTg.s 			page 34


 1220              		.loc 1 539 9 is_stmt 1 view .LVU392
 540:C:/Users/²Ü¼ÒºÀ/.iotlink/sdk/IoT_LINK/iot_link/network/lwm2m/wakaama_lwm2m/wakaama-master/core/er-coap-13\er-coap-13.c ****     }
 541:C:/Users/²Ü¼ÒºÀ/.iotlink/sdk/IoT_LINK/iot_link/network/lwm2m/wakaama_lwm2m/wakaama-master/core/er-coap-13\er-coap-13.c ****     if (IS_OPTION(coap_pkt, COAP_OPTION_BLOCK1))
 1221              		.loc 1 541 9 is_stmt 0 view .LVU393
 1222 0090 5A7B     		ldrb	r2, [r3, #13]	@ zero_extendqisi2
 539:C:/Users/²Ü¼ÒºÀ/.iotlink/sdk/IoT_LINK/iot_link/network/lwm2m/wakaama_lwm2m/wakaama-master/core/er-coap-13\er-coap-13.c ****     }
 1223              		.loc 1 539 16 view .LVU394
 1224 0092 48BF     		it	mi
 1225 0094 0530     		addmi	r0, r0, #5
 1226              	.LVL122:
 1227              		.loc 1 541 5 is_stmt 1 view .LVU395
 1228              		.loc 1 541 8 is_stmt 0 view .LVU396
 1229 0096 1507     		lsls	r5, r2, #28
 542:C:/Users/²Ü¼ÒºÀ/.iotlink/sdk/IoT_LINK/iot_link/network/lwm2m/wakaama_lwm2m/wakaama-master/core/er-coap-13\er-coap-13.c ****     {
 543:C:/Users/²Ü¼ÒºÀ/.iotlink/sdk/IoT_LINK/iot_link/network/lwm2m/wakaama_lwm2m/wakaama-master/core/er-coap-13\er-coap-13.c ****         // can be stored in extended fields
 544:C:/Users/²Ü¼ÒºÀ/.iotlink/sdk/IoT_LINK/iot_link/network/lwm2m/wakaama_lwm2m/wakaama-master/core/er-coap-13\er-coap-13.c ****         length += COAP_MAX_OPTION_HEADER_LEN;
 1230              		.loc 1 544 9 is_stmt 1 view .LVU397
 1231              		.loc 1 544 16 is_stmt 0 view .LVU398
 1232 0098 48BF     		it	mi
 1233 009a 0530     		addmi	r0, r0, #5
 1234              	.LVL123:
 545:C:/Users/²Ü¼ÒºÀ/.iotlink/sdk/IoT_LINK/iot_link/network/lwm2m/wakaama_lwm2m/wakaama-master/core/er-coap-13\er-coap-13.c ****     }
 546:C:/Users/²Ü¼ÒºÀ/.iotlink/sdk/IoT_LINK/iot_link/network/lwm2m/wakaama_lwm2m/wakaama-master/core/er-coap-13\er-coap-13.c ****     if (IS_OPTION(coap_pkt, COAP_OPTION_SIZE))
 1235              		.loc 1 546 5 is_stmt 1 view .LVU399
 1236              		.loc 1 546 8 is_stmt 0 view .LVU400
 1237 009c D106     		lsls	r1, r2, #27
 547:C:/Users/²Ü¼ÒºÀ/.iotlink/sdk/IoT_LINK/iot_link/network/lwm2m/wakaama_lwm2m/wakaama-master/core/er-coap-13\er-coap-13.c ****     {
 548:C:/Users/²Ü¼ÒºÀ/.iotlink/sdk/IoT_LINK/iot_link/network/lwm2m/wakaama_lwm2m/wakaama-master/core/er-coap-13\er-coap-13.c ****         // can be stored in extended fields
 549:C:/Users/²Ü¼ÒºÀ/.iotlink/sdk/IoT_LINK/iot_link/network/lwm2m/wakaama_lwm2m/wakaama-master/core/er-coap-13\er-coap-13.c ****         length += COAP_MAX_OPTION_HEADER_LEN;
 1238              		.loc 1 549 9 is_stmt 1 view .LVU401
 550:C:/Users/²Ü¼ÒºÀ/.iotlink/sdk/IoT_LINK/iot_link/network/lwm2m/wakaama_lwm2m/wakaama-master/core/er-coap-13\er-coap-13.c ****     }
 551:C:/Users/²Ü¼ÒºÀ/.iotlink/sdk/IoT_LINK/iot_link/network/lwm2m/wakaama_lwm2m/wakaama-master/core/er-coap-13\er-coap-13.c ****     if (IS_OPTION(coap_pkt, COAP_OPTION_PROXY_URI))
 1239              		.loc 1 551 8 is_stmt 0 view .LVU402
 1240 009e 9A7B     		ldrb	r2, [r3, #14]	@ zero_extendqisi2
 549:C:/Users/²Ü¼ÒºÀ/.iotlink/sdk/IoT_LINK/iot_link/network/lwm2m/wakaama_lwm2m/wakaama-master/core/er-coap-13\er-coap-13.c ****     }
 1241              		.loc 1 549 16 view .LVU403
 1242 00a0 48BF     		it	mi
 1243 00a2 0530     		addmi	r0, r0, #5
 1244              	.LVL124:
 1245              		.loc 1 551 5 is_stmt 1 view .LVU404
 1246              		.loc 1 551 8 is_stmt 0 view .LVU405
 1247 00a4 1207     		lsls	r2, r2, #28
 552:C:/Users/²Ü¼ÒºÀ/.iotlink/sdk/IoT_LINK/iot_link/network/lwm2m/wakaama_lwm2m/wakaama-master/core/er-coap-13\er-coap-13.c ****     {
 553:C:/Users/²Ü¼ÒºÀ/.iotlink/sdk/IoT_LINK/iot_link/network/lwm2m/wakaama_lwm2m/wakaama-master/core/er-coap-13\er-coap-13.c ****         length += COAP_MAX_OPTION_HEADER_LEN + coap_pkt->proxy_uri_len;
 1248              		.loc 1 553 9 is_stmt 1 view .LVU406
 1249              		.loc 1 553 16 is_stmt 0 view .LVU407
 1250 00a6 42BF     		ittt	mi
 1251 00a8 9B69     		ldrmi	r3, [r3, #24]
 1252              	.LVL125:
 1253              		.loc 1 553 16 view .LVU408
 1254 00aa 0533     		addmi	r3, r3, #5
 1255 00ac C018     		addmi	r0, r0, r3
 1256              	.LVL126:
 554:C:/Users/²Ü¼ÒºÀ/.iotlink/sdk/IoT_LINK/iot_link/network/lwm2m/wakaama_lwm2m/wakaama-master/core/er-coap-13\er-coap-13.c ****     }
 555:C:/Users/²Ü¼ÒºÀ/.iotlink/sdk/IoT_LINK/iot_link/network/lwm2m/wakaama_lwm2m/wakaama-master/core/er-coap-13\er-coap-13.c **** 
 556:C:/Users/²Ü¼ÒºÀ/.iotlink/sdk/IoT_LINK/iot_link/network/lwm2m/wakaama_lwm2m/wakaama-master/core/er-coap-13\er-coap-13.c ****     if (coap_pkt->payload_len)
 1257              		.loc 1 556 5 is_stmt 1 view .LVU409
ARM GAS  C:\Users\²Ü¼ÒºÀ\AppData\Local\Temp\cczrlpTg.s 			page 35


 1258              		.loc 1 556 8 is_stmt 0 view .LVU410
 1259 00ae 04B1     		cbz	r4, .L69
 557:C:/Users/²Ü¼ÒºÀ/.iotlink/sdk/IoT_LINK/iot_link/network/lwm2m/wakaama_lwm2m/wakaama-master/core/er-coap-13\er-coap-13.c ****     {
 558:C:/Users/²Ü¼ÒºÀ/.iotlink/sdk/IoT_LINK/iot_link/network/lwm2m/wakaama_lwm2m/wakaama-master/core/er-coap-13\er-coap-13.c ****         // Account for the payload marker.
 559:C:/Users/²Ü¼ÒºÀ/.iotlink/sdk/IoT_LINK/iot_link/network/lwm2m/wakaama_lwm2m/wakaama-master/core/er-coap-13\er-coap-13.c ****         length += 1;
 1260              		.loc 1 559 9 is_stmt 1 view .LVU411
 1261              		.loc 1 559 16 is_stmt 0 view .LVU412
 1262 00b0 0130     		adds	r0, r0, #1
 1263              	.LVL127:
 560:C:/Users/²Ü¼ÒºÀ/.iotlink/sdk/IoT_LINK/iot_link/network/lwm2m/wakaama_lwm2m/wakaama-master/core/er-coap-13\er-coap-13.c ****     }
 561:C:/Users/²Ü¼ÒºÀ/.iotlink/sdk/IoT_LINK/iot_link/network/lwm2m/wakaama_lwm2m/wakaama-master/core/er-coap-13\er-coap-13.c **** 
 562:C:/Users/²Ü¼ÒºÀ/.iotlink/sdk/IoT_LINK/iot_link/network/lwm2m/wakaama_lwm2m/wakaama-master/core/er-coap-13\er-coap-13.c ****     return length;
 1264              		.loc 1 562 5 is_stmt 1 view .LVU413
 1265              	.L69:
 563:C:/Users/²Ü¼ÒºÀ/.iotlink/sdk/IoT_LINK/iot_link/network/lwm2m/wakaama_lwm2m/wakaama-master/core/er-coap-13\er-coap-13.c **** }
 1266              		.loc 1 563 1 is_stmt 0 view .LVU414
 1267 00b2 30BD     		pop	{r4, r5, pc}
 1268              	.LVL128:
 1269              	.L78:
 1270              	.LBB45:
 497:C:/Users/²Ü¼ÒºÀ/.iotlink/sdk/IoT_LINK/iot_link/network/lwm2m/wakaama_lwm2m/wakaama-master/core/er-coap-13\er-coap-13.c ****         }
 1271              		.loc 1 497 13 is_stmt 1 discriminator 3 view .LVU415
 497:C:/Users/²Ü¼ÒºÀ/.iotlink/sdk/IoT_LINK/iot_link/network/lwm2m/wakaama_lwm2m/wakaama-master/core/er-coap-13\er-coap-13.c ****         }
 1272              		.loc 1 497 20 is_stmt 0 discriminator 3 view .LVU416
 1273 00b4 4D79     		ldrb	r5, [r1, #5]	@ zero_extendqisi2
 495:C:/Users/²Ü¼ÒºÀ/.iotlink/sdk/IoT_LINK/iot_link/network/lwm2m/wakaama_lwm2m/wakaama-master/core/er-coap-13\er-coap-13.c ****         {
 1274              		.loc 1 495 67 discriminator 3 view .LVU417
 1275 00b6 0968     		ldr	r1, [r1]
 1276              	.LVL129:
 497:C:/Users/²Ü¼ÒºÀ/.iotlink/sdk/IoT_LINK/iot_link/network/lwm2m/wakaama_lwm2m/wakaama-master/core/er-coap-13\er-coap-13.c ****         }
 1277              		.loc 1 497 20 discriminator 3 view .LVU418
 1278 00b8 0535     		adds	r5, r5, #5
 1279 00ba 2844     		add	r0, r0, r5
 1280              	.LVL130:
 495:C:/Users/²Ü¼ÒºÀ/.iotlink/sdk/IoT_LINK/iot_link/network/lwm2m/wakaama_lwm2m/wakaama-master/core/er-coap-13\er-coap-13.c ****         {
 1281              		.loc 1 495 62 is_stmt 1 discriminator 3 view .LVU419
 495:C:/Users/²Ü¼ÒºÀ/.iotlink/sdk/IoT_LINK/iot_link/network/lwm2m/wakaama_lwm2m/wakaama-master/core/er-coap-13\er-coap-13.c ****         {
 1282              		.loc 1 495 62 is_stmt 0 discriminator 3 view .LVU420
 1283 00bc C7E7     		b	.L77
 1284              	.LVL131:
 1285              	.L81:
 495:C:/Users/²Ü¼ÒºÀ/.iotlink/sdk/IoT_LINK/iot_link/network/lwm2m/wakaama_lwm2m/wakaama-master/core/er-coap-13\er-coap-13.c ****         {
 1286              		.loc 1 495 62 discriminator 3 view .LVU421
 1287              	.LBE45:
 1288              	.LBB46:
 506:C:/Users/²Ü¼ÒºÀ/.iotlink/sdk/IoT_LINK/iot_link/network/lwm2m/wakaama_lwm2m/wakaama-master/core/er-coap-13\er-coap-13.c ****         }
 1289              		.loc 1 506 13 is_stmt 1 discriminator 3 view .LVU422
 506:C:/Users/²Ü¼ÒºÀ/.iotlink/sdk/IoT_LINK/iot_link/network/lwm2m/wakaama_lwm2m/wakaama-master/core/er-coap-13\er-coap-13.c ****         }
 1290              		.loc 1 506 20 is_stmt 0 discriminator 3 view .LVU423
 1291 00be 4D79     		ldrb	r5, [r1, #5]	@ zero_extendqisi2
 504:C:/Users/²Ü¼ÒºÀ/.iotlink/sdk/IoT_LINK/iot_link/network/lwm2m/wakaama_lwm2m/wakaama-master/core/er-coap-13\er-coap-13.c ****         {
 1292              		.loc 1 504 62 discriminator 3 view .LVU424
 1293 00c0 0968     		ldr	r1, [r1]
 1294              	.LVL132:
 506:C:/Users/²Ü¼ÒºÀ/.iotlink/sdk/IoT_LINK/iot_link/network/lwm2m/wakaama_lwm2m/wakaama-master/core/er-coap-13\er-coap-13.c ****         }
 1295              		.loc 1 506 20 discriminator 3 view .LVU425
 1296 00c2 0535     		adds	r5, r5, #5
ARM GAS  C:\Users\²Ü¼ÒºÀ\AppData\Local\Temp\cczrlpTg.s 			page 36


 1297 00c4 2844     		add	r0, r0, r5
 1298              	.LVL133:
 504:C:/Users/²Ü¼ÒºÀ/.iotlink/sdk/IoT_LINK/iot_link/network/lwm2m/wakaama_lwm2m/wakaama-master/core/er-coap-13\er-coap-13.c ****         {
 1299              		.loc 1 504 57 is_stmt 1 discriminator 3 view .LVU426
 504:C:/Users/²Ü¼ÒºÀ/.iotlink/sdk/IoT_LINK/iot_link/network/lwm2m/wakaama_lwm2m/wakaama-master/core/er-coap-13\er-coap-13.c ****         {
 1300              		.loc 1 504 57 is_stmt 0 discriminator 3 view .LVU427
 1301 00c6 C7E7     		b	.L80
 1302              	.LVL134:
 1303              	.L86:
 504:C:/Users/²Ü¼ÒºÀ/.iotlink/sdk/IoT_LINK/iot_link/network/lwm2m/wakaama_lwm2m/wakaama-master/core/er-coap-13\er-coap-13.c ****         {
 1304              		.loc 1 504 57 discriminator 3 view .LVU428
 1305              	.LBE46:
 1306              	.LBB47:
 525:C:/Users/²Ü¼ÒºÀ/.iotlink/sdk/IoT_LINK/iot_link/network/lwm2m/wakaama_lwm2m/wakaama-master/core/er-coap-13\er-coap-13.c ****         }
 1307              		.loc 1 525 13 is_stmt 1 discriminator 3 view .LVU429
 525:C:/Users/²Ü¼ÒºÀ/.iotlink/sdk/IoT_LINK/iot_link/network/lwm2m/wakaama_lwm2m/wakaama-master/core/er-coap-13\er-coap-13.c ****         }
 1308              		.loc 1 525 20 is_stmt 0 discriminator 3 view .LVU430
 1309 00c8 5179     		ldrb	r1, [r2, #5]	@ zero_extendqisi2
 523:C:/Users/²Ü¼ÒºÀ/.iotlink/sdk/IoT_LINK/iot_link/network/lwm2m/wakaama_lwm2m/wakaama-master/core/er-coap-13\er-coap-13.c ****         {
 1310              		.loc 1 523 63 discriminator 3 view .LVU431
 1311 00ca 1268     		ldr	r2, [r2]
 1312              	.LVL135:
 525:C:/Users/²Ü¼ÒºÀ/.iotlink/sdk/IoT_LINK/iot_link/network/lwm2m/wakaama_lwm2m/wakaama-master/core/er-coap-13\er-coap-13.c ****         }
 1313              		.loc 1 525 20 discriminator 3 view .LVU432
 1314 00cc 0531     		adds	r1, r1, #5
 1315 00ce 0844     		add	r0, r0, r1
 1316              	.LVL136:
 523:C:/Users/²Ü¼ÒºÀ/.iotlink/sdk/IoT_LINK/iot_link/network/lwm2m/wakaama_lwm2m/wakaama-master/core/er-coap-13\er-coap-13.c ****         {
 1317              		.loc 1 523 58 is_stmt 1 discriminator 3 view .LVU433
 523:C:/Users/²Ü¼ÒºÀ/.iotlink/sdk/IoT_LINK/iot_link/network/lwm2m/wakaama_lwm2m/wakaama-master/core/er-coap-13\er-coap-13.c ****         {
 1318              		.loc 1 523 58 is_stmt 0 discriminator 3 view .LVU434
 1319 00d0 CEE7     		b	.L85
 1320              	.LBE47:
 1321              		.cfi_endproc
 1322              	.LFE19:
 1324              		.section	.text.coap_serialize_message,"ax",%progbits
 1325              		.align	1
 1326              		.global	coap_serialize_message
 1327              		.syntax unified
 1328              		.thumb
 1329              		.thumb_func
 1330              		.fpu fpv4-sp-d16
 1332              	coap_serialize_message:
 1333              	.LVL137:
 1334              	.LFB20:
 564:C:/Users/²Ü¼ÒºÀ/.iotlink/sdk/IoT_LINK/iot_link/network/lwm2m/wakaama_lwm2m/wakaama-master/core/er-coap-13\er-coap-13.c **** 
 565:C:/Users/²Ü¼ÒºÀ/.iotlink/sdk/IoT_LINK/iot_link/network/lwm2m/wakaama_lwm2m/wakaama-master/core/er-coap-13\er-coap-13.c **** /*-----------------------------------------------------------------------------------*/
 566:C:/Users/²Ü¼ÒºÀ/.iotlink/sdk/IoT_LINK/iot_link/network/lwm2m/wakaama_lwm2m/wakaama-master/core/er-coap-13\er-coap-13.c **** size_t
 567:C:/Users/²Ü¼ÒºÀ/.iotlink/sdk/IoT_LINK/iot_link/network/lwm2m/wakaama_lwm2m/wakaama-master/core/er-coap-13\er-coap-13.c **** coap_serialize_message(void *packet, uint8_t *buffer)
 568:C:/Users/²Ü¼ÒºÀ/.iotlink/sdk/IoT_LINK/iot_link/network/lwm2m/wakaama_lwm2m/wakaama-master/core/er-coap-13\er-coap-13.c **** {
 1335              		.loc 1 568 1 is_stmt 1 view -0
 1336              		.cfi_startproc
 1337              		@ args = 0, pretend = 0, frame = 8
 1338              		@ frame_needed = 0, uses_anonymous_args = 0
 569:C:/Users/²Ü¼ÒºÀ/.iotlink/sdk/IoT_LINK/iot_link/network/lwm2m/wakaama_lwm2m/wakaama-master/core/er-coap-13\er-coap-13.c ****     coap_packet_t *const coap_pkt = (coap_packet_t *) packet;
 1339              		.loc 1 569 5 view .LVU436
 570:C:/Users/²Ü¼ÒºÀ/.iotlink/sdk/IoT_LINK/iot_link/network/lwm2m/wakaama_lwm2m/wakaama-master/core/er-coap-13\er-coap-13.c ****     uint8_t *option;
ARM GAS  C:\Users\²Ü¼ÒºÀ\AppData\Local\Temp\cczrlpTg.s 			page 37


 1340              		.loc 1 570 5 view .LVU437
 571:C:/Users/²Ü¼ÒºÀ/.iotlink/sdk/IoT_LINK/iot_link/network/lwm2m/wakaama_lwm2m/wakaama-master/core/er-coap-13\er-coap-13.c ****     unsigned int current_number = 0;
 1341              		.loc 1 571 5 view .LVU438
 572:C:/Users/²Ü¼ÒºÀ/.iotlink/sdk/IoT_LINK/iot_link/network/lwm2m/wakaama_lwm2m/wakaama-master/core/er-coap-13\er-coap-13.c **** 
 573:C:/Users/²Ü¼ÒºÀ/.iotlink/sdk/IoT_LINK/iot_link/network/lwm2m/wakaama_lwm2m/wakaama-master/core/er-coap-13\er-coap-13.c ****     /* Initialize */
 574:C:/Users/²Ü¼ÒºÀ/.iotlink/sdk/IoT_LINK/iot_link/network/lwm2m/wakaama_lwm2m/wakaama-master/core/er-coap-13\er-coap-13.c ****     coap_pkt->buffer = buffer;
 1342              		.loc 1 574 5 view .LVU439
 568:C:/Users/²Ü¼ÒºÀ/.iotlink/sdk/IoT_LINK/iot_link/network/lwm2m/wakaama_lwm2m/wakaama-master/core/er-coap-13\er-coap-13.c ****     coap_packet_t *const coap_pkt = (coap_packet_t *) packet;
 1343              		.loc 1 568 1 is_stmt 0 view .LVU440
 1344 0000 2DE9F04F 		push	{r4, r5, r6, r7, r8, r9, r10, fp, lr}
 1345              	.LCFI14:
 1346              		.cfi_def_cfa_offset 36
 1347              		.cfi_offset 4, -36
 1348              		.cfi_offset 5, -32
 1349              		.cfi_offset 6, -28
 1350              		.cfi_offset 7, -24
 1351              		.cfi_offset 8, -20
 1352              		.cfi_offset 9, -16
 1353              		.cfi_offset 10, -12
 1354              		.cfi_offset 11, -8
 1355              		.cfi_offset 14, -4
 575:C:/Users/²Ü¼ÒºÀ/.iotlink/sdk/IoT_LINK/iot_link/network/lwm2m/wakaama_lwm2m/wakaama-master/core/er-coap-13\er-coap-13.c ****     coap_pkt->version = 1;
 1356              		.loc 1 575 23 view .LVU441
 1357 0004 0123     		movs	r3, #1
 1358 0006 0371     		strb	r3, [r0, #4]
 576:C:/Users/²Ü¼ÒºÀ/.iotlink/sdk/IoT_LINK/iot_link/network/lwm2m/wakaama_lwm2m/wakaama-master/core/er-coap-13\er-coap-13.c **** 
 577:C:/Users/²Ü¼ÒºÀ/.iotlink/sdk/IoT_LINK/iot_link/network/lwm2m/wakaama_lwm2m/wakaama-master/core/er-coap-13\er-coap-13.c ****     PRINTF("-Serializing MID %u to %p, ", coap_pkt->mid, coap_pkt->buffer);
 578:C:/Users/²Ü¼ÒºÀ/.iotlink/sdk/IoT_LINK/iot_link/network/lwm2m/wakaama_lwm2m/wakaama-master/core/er-coap-13\er-coap-13.c **** 
 579:C:/Users/²Ü¼ÒºÀ/.iotlink/sdk/IoT_LINK/iot_link/network/lwm2m/wakaama_lwm2m/wakaama-master/core/er-coap-13\er-coap-13.c ****     /* set header fields */
 580:C:/Users/²Ü¼ÒºÀ/.iotlink/sdk/IoT_LINK/iot_link/network/lwm2m/wakaama_lwm2m/wakaama-master/core/er-coap-13\er-coap-13.c ****     coap_pkt->buffer[0]  = 0x00;
 1359              		.loc 1 580 26 view .LVU442
 1360 0008 0023     		movs	r3, #0
 574:C:/Users/²Ü¼ÒºÀ/.iotlink/sdk/IoT_LINK/iot_link/network/lwm2m/wakaama_lwm2m/wakaama-master/core/er-coap-13\er-coap-13.c ****     coap_pkt->version = 1;
 1361              		.loc 1 574 22 view .LVU443
 1362 000a 0160     		str	r1, [r0]
 575:C:/Users/²Ü¼ÒºÀ/.iotlink/sdk/IoT_LINK/iot_link/network/lwm2m/wakaama_lwm2m/wakaama-master/core/er-coap-13\er-coap-13.c ****     coap_pkt->version = 1;
 1363              		.loc 1 575 5 is_stmt 1 view .LVU444
 577:C:/Users/²Ü¼ÒºÀ/.iotlink/sdk/IoT_LINK/iot_link/network/lwm2m/wakaama_lwm2m/wakaama-master/core/er-coap-13\er-coap-13.c **** 
 1364              		.loc 1 577 75 view .LVU445
 1365              		.loc 1 580 5 view .LVU446
 1366              		.loc 1 580 26 is_stmt 0 view .LVU447
 1367 000c 0B70     		strb	r3, [r1]
 581:C:/Users/²Ü¼ÒºÀ/.iotlink/sdk/IoT_LINK/iot_link/network/lwm2m/wakaama_lwm2m/wakaama-master/core/er-coap-13\er-coap-13.c ****     coap_pkt->buffer[0] |= COAP_HEADER_VERSION_MASK & (coap_pkt->version) << COAP_HEADER_VERSION_PO
 1368              		.loc 1 581 5 is_stmt 1 view .LVU448
 1369              		.loc 1 581 13 is_stmt 0 view .LVU449
 1370 000e 0268     		ldr	r2, [r0]
 568:C:/Users/²Ü¼ÒºÀ/.iotlink/sdk/IoT_LINK/iot_link/network/lwm2m/wakaama_lwm2m/wakaama-master/core/er-coap-13\er-coap-13.c ****     coap_packet_t *const coap_pkt = (coap_packet_t *) packet;
 1371              		.loc 1 568 1 view .LVU450
 1372 0010 0F46     		mov	r7, r1
 1373              		.loc 1 581 25 view .LVU451
 1374 0012 1378     		ldrb	r3, [r2]	@ zero_extendqisi2
 1375              		.loc 1 581 64 view .LVU452
 1376 0014 0179     		ldrb	r1, [r0, #4]	@ zero_extendqisi2
 1377              	.LVL138:
 1378              		.loc 1 581 25 view .LVU453
 1379 0016 43EA8113 		orr	r3, r3, r1, lsl #6
 1380 001a 1370     		strb	r3, [r2]
ARM GAS  C:\Users\²Ü¼ÒºÀ\AppData\Local\Temp\cczrlpTg.s 			page 38


 582:C:/Users/²Ü¼ÒºÀ/.iotlink/sdk/IoT_LINK/iot_link/network/lwm2m/wakaama_lwm2m/wakaama-master/core/er-coap-13\er-coap-13.c ****     coap_pkt->buffer[0] |= COAP_HEADER_TYPE_MASK & (coap_pkt->type) << COAP_HEADER_TYPE_POSITION;
 1381              		.loc 1 582 5 is_stmt 1 view .LVU454
 1382              		.loc 1 582 13 is_stmt 0 view .LVU455
 1383 001c 0268     		ldr	r2, [r0]
 1384              		.loc 1 582 61 view .LVU456
 1385 001e 4379     		ldrb	r3, [r0, #5]	@ zero_extendqisi2
 1386              		.loc 1 582 25 view .LVU457
 1387 0020 1178     		ldrb	r1, [r2]	@ zero_extendqisi2
 1388              		.loc 1 582 69 view .LVU458
 1389 0022 1B01     		lsls	r3, r3, #4
 1390              		.loc 1 582 50 view .LVU459
 1391 0024 03F03003 		and	r3, r3, #48
 1392              		.loc 1 582 25 view .LVU460
 1393 0028 0B43     		orrs	r3, r3, r1
 1394 002a 1370     		strb	r3, [r2]
 583:C:/Users/²Ü¼ÒºÀ/.iotlink/sdk/IoT_LINK/iot_link/network/lwm2m/wakaama_lwm2m/wakaama-master/core/er-coap-13\er-coap-13.c ****     coap_pkt->buffer[0] |= COAP_HEADER_TOKEN_LEN_MASK & (coap_pkt->token_len) << COAP_HEADER_TOKEN_
 1395              		.loc 1 583 5 is_stmt 1 view .LVU461
 1396              		.loc 1 583 13 is_stmt 0 view .LVU462
 1397 002c 0268     		ldr	r2, [r0]
 1398              		.loc 1 583 55 view .LVU463
 1399 002e 90F84C30 		ldrb	r3, [r0, #76]	@ zero_extendqisi2
 1400              		.loc 1 583 25 view .LVU464
 1401 0032 1178     		ldrb	r1, [r2]	@ zero_extendqisi2
 1402              		.loc 1 583 55 view .LVU465
 1403 0034 03F00F03 		and	r3, r3, #15
 1404              		.loc 1 583 25 view .LVU466
 1405 0038 0B43     		orrs	r3, r3, r1
 1406 003a 1370     		strb	r3, [r2]
 584:C:/Users/²Ü¼ÒºÀ/.iotlink/sdk/IoT_LINK/iot_link/network/lwm2m/wakaama_lwm2m/wakaama-master/core/er-coap-13\er-coap-13.c ****     coap_pkt->buffer[1] = coap_pkt->code;
 1407              		.loc 1 584 5 is_stmt 1 view .LVU467
 1408              		.loc 1 584 13 is_stmt 0 view .LVU468
 1409 003c 0368     		ldr	r3, [r0]
 1410              		.loc 1 584 35 view .LVU469
 1411 003e 8279     		ldrb	r2, [r0, #6]	@ zero_extendqisi2
 1412              		.loc 1 584 25 view .LVU470
 1413 0040 5A70     		strb	r2, [r3, #1]
 585:C:/Users/²Ü¼ÒºÀ/.iotlink/sdk/IoT_LINK/iot_link/network/lwm2m/wakaama_lwm2m/wakaama-master/core/er-coap-13\er-coap-13.c ****     coap_pkt->buffer[2] = (uint8_t) ((coap_pkt->mid) >> 8);
 1414              		.loc 1 585 5 is_stmt 1 view .LVU471
 1415              		.loc 1 585 27 is_stmt 0 view .LVU472
 1416 0042 0389     		ldrh	r3, [r0, #8]
 1417              		.loc 1 585 13 view .LVU473
 1418 0044 0268     		ldr	r2, [r0]
 1419              		.loc 1 585 27 view .LVU474
 1420 0046 1B0A     		lsrs	r3, r3, #8
 1421 0048 9370     		strb	r3, [r2, #2]
 586:C:/Users/²Ü¼ÒºÀ/.iotlink/sdk/IoT_LINK/iot_link/network/lwm2m/wakaama_lwm2m/wakaama-master/core/er-coap-13\er-coap-13.c ****     coap_pkt->buffer[3] = (uint8_t) (coap_pkt->mid);
 1422              		.loc 1 586 5 is_stmt 1 view .LVU475
 1423              		.loc 1 586 13 is_stmt 0 view .LVU476
 1424 004a 0368     		ldr	r3, [r0]
 1425              		.loc 1 586 27 view .LVU477
 1426 004c 0289     		ldrh	r2, [r0, #8]
 1427 004e DA70     		strb	r2, [r3, #3]
 587:C:/Users/²Ü¼ÒºÀ/.iotlink/sdk/IoT_LINK/iot_link/network/lwm2m/wakaama_lwm2m/wakaama-master/core/er-coap-13\er-coap-13.c **** 
 588:C:/Users/²Ü¼ÒºÀ/.iotlink/sdk/IoT_LINK/iot_link/network/lwm2m/wakaama_lwm2m/wakaama-master/core/er-coap-13\er-coap-13.c ****     /* set Token */
 589:C:/Users/²Ü¼ÒºÀ/.iotlink/sdk/IoT_LINK/iot_link/network/lwm2m/wakaama_lwm2m/wakaama-master/core/er-coap-13\er-coap-13.c ****     PRINTF("Token (len %u)", coap_pkt->token_len);
 1428              		.loc 1 589 50 is_stmt 1 view .LVU478
 590:C:/Users/²Ü¼ÒºÀ/.iotlink/sdk/IoT_LINK/iot_link/network/lwm2m/wakaama_lwm2m/wakaama-master/core/er-coap-13\er-coap-13.c ****     option = coap_pkt->buffer + COAP_HEADER_LEN;
ARM GAS  C:\Users\²Ü¼ÒºÀ\AppData\Local\Temp\cczrlpTg.s 			page 39


 1429              		.loc 1 590 5 view .LVU479
 1430              		.loc 1 590 22 is_stmt 0 view .LVU480
 1431 0050 0246     		mov	r2, r0
 568:C:/Users/²Ü¼ÒºÀ/.iotlink/sdk/IoT_LINK/iot_link/network/lwm2m/wakaama_lwm2m/wakaama-master/core/er-coap-13\er-coap-13.c ****     coap_packet_t *const coap_pkt = (coap_packet_t *) packet;
 1432              		.loc 1 568 1 view .LVU481
 1433 0052 85B0     		sub	sp, sp, #20
 1434              	.LCFI15:
 1435              		.cfi_def_cfa_offset 56
 1436              		.loc 1 590 22 view .LVU482
 1437 0054 52F84D3B 		ldr	r3, [r2], #77
 1438              		.loc 1 590 12 view .LVU483
 1439 0058 1D1D     		adds	r5, r3, #4
 1440              	.LVL139:
 591:C:/Users/²Ü¼ÒºÀ/.iotlink/sdk/IoT_LINK/iot_link/network/lwm2m/wakaama_lwm2m/wakaama-master/core/er-coap-13\er-coap-13.c ****     for (current_number = 0; current_number < coap_pkt->token_len; ++current_number)
 1441              		.loc 1 591 5 is_stmt 1 view .LVU484
 1442              		.loc 1 591 5 is_stmt 0 view .LVU485
 1443 005a C3F1FF23 		rsb	r3, r3, #-16711936
 1444 005e 03F57F03 		add	r3, r3, #16711680
 568:C:/Users/²Ü¼ÒºÀ/.iotlink/sdk/IoT_LINK/iot_link/network/lwm2m/wakaama_lwm2m/wakaama-master/core/er-coap-13\er-coap-13.c ****     coap_packet_t *const coap_pkt = (coap_packet_t *) packet;
 1445              		.loc 1 568 1 view .LVU486
 1446 0062 0446     		mov	r4, r0
 1447              		.loc 1 591 5 view .LVU487
 1448 0064 FC33     		adds	r3, r3, #252
 1449              	.LVL140:
 1450              	.L140:
 1451              		.loc 1 591 30 is_stmt 1 discriminator 1 view .LVU488
 1452              		.loc 1 591 55 is_stmt 0 discriminator 1 view .LVU489
 1453 0066 94F84C00 		ldrb	r0, [r4, #76]	@ zero_extendqisi2
 1454              		.loc 1 591 5 discriminator 1 view .LVU490
 1455 006a E918     		adds	r1, r5, r3
 1456 006c 8842     		cmp	r0, r1
 1457 006e 00F23081 		bhi	.L141
 592:C:/Users/²Ü¼ÒºÀ/.iotlink/sdk/IoT_LINK/iot_link/network/lwm2m/wakaama_lwm2m/wakaama-master/core/er-coap-13\er-coap-13.c ****     {
 593:C:/Users/²Ü¼ÒºÀ/.iotlink/sdk/IoT_LINK/iot_link/network/lwm2m/wakaama_lwm2m/wakaama-master/core/er-coap-13\er-coap-13.c ****         PRINTF(" %02X", coap_pkt->token[current_number]);
 594:C:/Users/²Ü¼ÒºÀ/.iotlink/sdk/IoT_LINK/iot_link/network/lwm2m/wakaama_lwm2m/wakaama-master/core/er-coap-13\er-coap-13.c ****         *option = coap_pkt->token[current_number];
 595:C:/Users/²Ü¼ÒºÀ/.iotlink/sdk/IoT_LINK/iot_link/network/lwm2m/wakaama_lwm2m/wakaama-master/core/er-coap-13\er-coap-13.c ****         ++option;
 596:C:/Users/²Ü¼ÒºÀ/.iotlink/sdk/IoT_LINK/iot_link/network/lwm2m/wakaama_lwm2m/wakaama-master/core/er-coap-13\er-coap-13.c ****     }
 597:C:/Users/²Ü¼ÒºÀ/.iotlink/sdk/IoT_LINK/iot_link/network/lwm2m/wakaama_lwm2m/wakaama-master/core/er-coap-13\er-coap-13.c ****     PRINTF("-\n");
 1458              		.loc 1 597 18 is_stmt 1 view .LVU491
 598:C:/Users/²Ü¼ÒºÀ/.iotlink/sdk/IoT_LINK/iot_link/network/lwm2m/wakaama_lwm2m/wakaama-master/core/er-coap-13\er-coap-13.c **** 
 599:C:/Users/²Ü¼ÒºÀ/.iotlink/sdk/IoT_LINK/iot_link/network/lwm2m/wakaama_lwm2m/wakaama-master/core/er-coap-13\er-coap-13.c ****     /* Serialize options */
 600:C:/Users/²Ü¼ÒºÀ/.iotlink/sdk/IoT_LINK/iot_link/network/lwm2m/wakaama_lwm2m/wakaama-master/core/er-coap-13\er-coap-13.c ****     current_number = 0;
 1459              		.loc 1 600 5 view .LVU492
 1460              	.LVL141:
 601:C:/Users/²Ü¼ÒºÀ/.iotlink/sdk/IoT_LINK/iot_link/network/lwm2m/wakaama_lwm2m/wakaama-master/core/er-coap-13\er-coap-13.c **** 
 602:C:/Users/²Ü¼ÒºÀ/.iotlink/sdk/IoT_LINK/iot_link/network/lwm2m/wakaama_lwm2m/wakaama-master/core/er-coap-13\er-coap-13.c ****     PRINTF("-Serializing options at %p-\n", option);
 1461              		.loc 1 602 52 view .LVU493
 603:C:/Users/²Ü¼ÒºÀ/.iotlink/sdk/IoT_LINK/iot_link/network/lwm2m/wakaama_lwm2m/wakaama-master/core/er-coap-13\er-coap-13.c **** 
 604:C:/Users/²Ü¼ÒºÀ/.iotlink/sdk/IoT_LINK/iot_link/network/lwm2m/wakaama_lwm2m/wakaama-master/core/er-coap-13\er-coap-13.c ****     /* The options must be serialized in the order of their number */
 605:C:/Users/²Ü¼ÒºÀ/.iotlink/sdk/IoT_LINK/iot_link/network/lwm2m/wakaama_lwm2m/wakaama-master/core/er-coap-13\er-coap-13.c ****     COAP_SERIALIZE_BYTE_OPTION(   COAP_OPTION_IF_MATCH,       if_match, "If-Match")
 1462              		.loc 1 605 5 view .LVU494
 1463 0072 A07A     		ldrb	r0, [r4, #10]	@ zero_extendqisi2
 1464 0074 10F00200 		ands	r0, r0, #2
 1465 0078 0BD0     		beq	.L142
 1466              		.loc 1 605 5 discriminator 1 view .LVU495
 1467              		.loc 1 605 5 discriminator 1 view .LVU496
 1468              	.LVL142:
ARM GAS  C:\Users\²Ü¼ÒºÀ\AppData\Local\Temp\cczrlpTg.s 			page 40


 1469              	.LBB66:
 1470              	.LBI66:
 208:C:/Users/²Ü¼ÒºÀ/.iotlink/sdk/IoT_LINK/iot_link/network/lwm2m/wakaama_lwm2m/wakaama-master/core/er-coap-13\er-coap-13.c **** {
 1471              		.loc 1 208 1 discriminator 1 view .LVU497
 1472              	.LBB67:
 210:C:/Users/²Ü¼ÒºÀ/.iotlink/sdk/IoT_LINK/iot_link/network/lwm2m/wakaama_lwm2m/wakaama-master/core/er-coap-13\er-coap-13.c **** 
 1473              		.loc 1 210 5 discriminator 1 view .LVU498
 212:C:/Users/²Ü¼ÒºÀ/.iotlink/sdk/IoT_LINK/iot_link/network/lwm2m/wakaama_lwm2m/wakaama-master/core/er-coap-13\er-coap-13.c ****     {
 1474              		.loc 1 212 5 discriminator 1 view .LVU499
 1475              	.LBE67:
 1476              	.LBE66:
 1477              		.loc 1 605 5 is_stmt 0 discriminator 1 view .LVU500
 1478 007a 94F85A30 		ldrb	r3, [r4, #90]	@ zero_extendqisi2
 1479              	.LVL143:
 1480              		.loc 1 605 5 discriminator 1 view .LVU501
 1481 007e 0093     		str	r3, [sp]
 1482              	.LBB69:
 1483              	.LBB68:
 1484 0080 2A46     		mov	r2, r5
 1485 0082 04F15B03 		add	r3, r4, #91
 1486              	.LVL144:
 1487              		.loc 1 605 5 discriminator 1 view .LVU502
 1488 0086 0021     		movs	r1, #0
 1489 0088 0120     		movs	r0, #1
 1490 008a FFF7FEFF 		bl	coap_serialize_array_option.part.0
 1491              	.LVL145:
 244:C:/Users/²Ü¼ÒºÀ/.iotlink/sdk/IoT_LINK/iot_link/network/lwm2m/wakaama_lwm2m/wakaama-master/core/er-coap-13\er-coap-13.c ****     }
 1492              		.loc 1 244 94 is_stmt 1 discriminator 1 view .LVU503
 247:C:/Users/²Ü¼ÒºÀ/.iotlink/sdk/IoT_LINK/iot_link/network/lwm2m/wakaama_lwm2m/wakaama-master/core/er-coap-13\er-coap-13.c **** }
 1493              		.loc 1 247 5 discriminator 1 view .LVU504
 247:C:/Users/²Ü¼ÒºÀ/.iotlink/sdk/IoT_LINK/iot_link/network/lwm2m/wakaama_lwm2m/wakaama-master/core/er-coap-13\er-coap-13.c **** }
 1494              		.loc 1 247 5 is_stmt 0 discriminator 1 view .LVU505
 1495              	.LBE68:
 1496              	.LBE69:
 1497              		.loc 1 605 5 discriminator 1 view .LVU506
 1498 008e 0544     		add	r5, r5, r0
 1499              	.LVL146:
 1500              		.loc 1 605 5 is_stmt 1 discriminator 1 view .LVU507
 1501              		.loc 1 605 5 is_stmt 0 discriminator 1 view .LVU508
 1502 0090 0120     		movs	r0, #1
 1503              	.LVL147:
 1504              	.L142:
 606:C:/Users/²Ü¼ÒºÀ/.iotlink/sdk/IoT_LINK/iot_link/network/lwm2m/wakaama_lwm2m/wakaama-master/core/er-coap-13\er-coap-13.c ****     COAP_SERIALIZE_STRING_OPTION( COAP_OPTION_URI_HOST,       uri_host, '\0', "Uri-Host")
 1505              		.loc 1 606 5 is_stmt 1 view .LVU509
 1506 0092 A37A     		ldrb	r3, [r4, #10]	@ zero_extendqisi2
 1507 0094 1B07     		lsls	r3, r3, #28
 1508 0096 09D5     		bpl	.L143
 1509              		.loc 1 606 5 discriminator 1 view .LVU510
 1510              		.loc 1 606 5 discriminator 1 view .LVU511
 1511              	.LVL148:
 1512              	.LBB70:
 1513              	.LBI70:
 208:C:/Users/²Ü¼ÒºÀ/.iotlink/sdk/IoT_LINK/iot_link/network/lwm2m/wakaama_lwm2m/wakaama-master/core/er-coap-13\er-coap-13.c **** {
 1514              		.loc 1 208 1 discriminator 1 view .LVU512
 1515              	.LBB71:
 210:C:/Users/²Ü¼ÒºÀ/.iotlink/sdk/IoT_LINK/iot_link/network/lwm2m/wakaama_lwm2m/wakaama-master/core/er-coap-13\er-coap-13.c **** 
 1516              		.loc 1 210 5 discriminator 1 view .LVU513
ARM GAS  C:\Users\²Ü¼ÒºÀ\AppData\Local\Temp\cczrlpTg.s 			page 41


 212:C:/Users/²Ü¼ÒºÀ/.iotlink/sdk/IoT_LINK/iot_link/network/lwm2m/wakaama_lwm2m/wakaama-master/core/er-coap-13\er-coap-13.c ****     {
 1517              		.loc 1 212 5 discriminator 1 view .LVU514
 1518 0098 E36A     		ldr	r3, [r4, #44]
 1519 009a 0093     		str	r3, [sp]
 1520              	.LVL149:
 212:C:/Users/²Ü¼ÒºÀ/.iotlink/sdk/IoT_LINK/iot_link/network/lwm2m/wakaama_lwm2m/wakaama-master/core/er-coap-13\er-coap-13.c ****     {
 1521              		.loc 1 212 5 is_stmt 0 discriminator 1 view .LVU515
 1522 009c 2A46     		mov	r2, r5
 1523 009e 0146     		mov	r1, r0
 1524 00a0 236B     		ldr	r3, [r4, #48]
 1525              	.LVL150:
 212:C:/Users/²Ü¼ÒºÀ/.iotlink/sdk/IoT_LINK/iot_link/network/lwm2m/wakaama_lwm2m/wakaama-master/core/er-coap-13\er-coap-13.c ****     {
 1526              		.loc 1 212 5 discriminator 1 view .LVU516
 1527 00a2 0320     		movs	r0, #3
 1528              	.LVL151:
 212:C:/Users/²Ü¼ÒºÀ/.iotlink/sdk/IoT_LINK/iot_link/network/lwm2m/wakaama_lwm2m/wakaama-master/core/er-coap-13\er-coap-13.c ****     {
 1529              		.loc 1 212 5 discriminator 1 view .LVU517
 1530 00a4 FFF7FEFF 		bl	coap_serialize_array_option.part.0
 1531              	.LVL152:
 244:C:/Users/²Ü¼ÒºÀ/.iotlink/sdk/IoT_LINK/iot_link/network/lwm2m/wakaama_lwm2m/wakaama-master/core/er-coap-13\er-coap-13.c ****     }
 1532              		.loc 1 244 94 is_stmt 1 discriminator 1 view .LVU518
 247:C:/Users/²Ü¼ÒºÀ/.iotlink/sdk/IoT_LINK/iot_link/network/lwm2m/wakaama_lwm2m/wakaama-master/core/er-coap-13\er-coap-13.c **** }
 1533              		.loc 1 247 5 discriminator 1 view .LVU519
 247:C:/Users/²Ü¼ÒºÀ/.iotlink/sdk/IoT_LINK/iot_link/network/lwm2m/wakaama_lwm2m/wakaama-master/core/er-coap-13\er-coap-13.c **** }
 1534              		.loc 1 247 5 is_stmt 0 discriminator 1 view .LVU520
 1535              	.LBE71:
 1536              	.LBE70:
 1537              		.loc 1 606 5 discriminator 1 view .LVU521
 1538 00a8 0544     		add	r5, r5, r0
 1539              	.LVL153:
 1540              		.loc 1 606 5 is_stmt 1 discriminator 1 view .LVU522
 1541              		.loc 1 606 5 is_stmt 0 discriminator 1 view .LVU523
 1542 00aa 0320     		movs	r0, #3
 1543              	.LVL154:
 1544              	.L143:
 607:C:/Users/²Ü¼ÒºÀ/.iotlink/sdk/IoT_LINK/iot_link/network/lwm2m/wakaama_lwm2m/wakaama-master/core/er-coap-13\er-coap-13.c ****     COAP_SERIALIZE_BYTE_OPTION(   COAP_OPTION_ETAG,           etag, "ETag")
 1545              		.loc 1 607 5 is_stmt 1 view .LVU524
 1546 00ac A37A     		ldrb	r3, [r4, #10]	@ zero_extendqisi2
 1547 00ae DE06     		lsls	r6, r3, #27
 1548 00b0 0BD5     		bpl	.L144
 1549              		.loc 1 607 5 discriminator 1 view .LVU525
 1550              		.loc 1 607 5 discriminator 1 view .LVU526
 1551              	.LVL155:
 1552              	.LBB72:
 1553              	.LBI72:
 208:C:/Users/²Ü¼ÒºÀ/.iotlink/sdk/IoT_LINK/iot_link/network/lwm2m/wakaama_lwm2m/wakaama-master/core/er-coap-13\er-coap-13.c **** {
 1554              		.loc 1 208 1 discriminator 1 view .LVU527
 1555              	.LBB73:
 210:C:/Users/²Ü¼ÒºÀ/.iotlink/sdk/IoT_LINK/iot_link/network/lwm2m/wakaama_lwm2m/wakaama-master/core/er-coap-13\er-coap-13.c **** 
 1556              		.loc 1 210 5 discriminator 1 view .LVU528
 212:C:/Users/²Ü¼ÒºÀ/.iotlink/sdk/IoT_LINK/iot_link/network/lwm2m/wakaama_lwm2m/wakaama-master/core/er-coap-13\er-coap-13.c ****     {
 1557              		.loc 1 212 5 discriminator 1 view .LVU529
 1558              	.LBE73:
 1559              	.LBE72:
 1560              		.loc 1 607 5 is_stmt 0 discriminator 1 view .LVU530
 1561 00b2 94F82030 		ldrb	r3, [r4, #32]	@ zero_extendqisi2
 1562              	.LVL156:
ARM GAS  C:\Users\²Ü¼ÒºÀ\AppData\Local\Temp\cczrlpTg.s 			page 42


 1563              		.loc 1 607 5 discriminator 1 view .LVU531
 1564 00b6 0093     		str	r3, [sp]
 1565              	.LBB75:
 1566              	.LBB74:
 1567 00b8 2A46     		mov	r2, r5
 1568 00ba 0146     		mov	r1, r0
 1569 00bc 04F12103 		add	r3, r4, #33
 1570              	.LVL157:
 1571              		.loc 1 607 5 discriminator 1 view .LVU532
 1572 00c0 0420     		movs	r0, #4
 1573              	.LVL158:
 1574              		.loc 1 607 5 discriminator 1 view .LVU533
 1575 00c2 FFF7FEFF 		bl	coap_serialize_array_option.part.0
 1576              	.LVL159:
 244:C:/Users/²Ü¼ÒºÀ/.iotlink/sdk/IoT_LINK/iot_link/network/lwm2m/wakaama_lwm2m/wakaama-master/core/er-coap-13\er-coap-13.c ****     }
 1577              		.loc 1 244 94 is_stmt 1 discriminator 1 view .LVU534
 247:C:/Users/²Ü¼ÒºÀ/.iotlink/sdk/IoT_LINK/iot_link/network/lwm2m/wakaama_lwm2m/wakaama-master/core/er-coap-13\er-coap-13.c **** }
 1578              		.loc 1 247 5 discriminator 1 view .LVU535
 247:C:/Users/²Ü¼ÒºÀ/.iotlink/sdk/IoT_LINK/iot_link/network/lwm2m/wakaama_lwm2m/wakaama-master/core/er-coap-13\er-coap-13.c **** }
 1579              		.loc 1 247 5 is_stmt 0 discriminator 1 view .LVU536
 1580              	.LBE74:
 1581              	.LBE75:
 1582              		.loc 1 607 5 discriminator 1 view .LVU537
 1583 00c6 0544     		add	r5, r5, r0
 1584              	.LVL160:
 1585              		.loc 1 607 5 is_stmt 1 discriminator 1 view .LVU538
 1586              		.loc 1 607 5 is_stmt 0 discriminator 1 view .LVU539
 1587 00c8 0420     		movs	r0, #4
 1588              	.LVL161:
 1589              	.L144:
 608:C:/Users/²Ü¼ÒºÀ/.iotlink/sdk/IoT_LINK/iot_link/network/lwm2m/wakaama_lwm2m/wakaama-master/core/er-coap-13\er-coap-13.c ****     COAP_SERIALIZE_INT_OPTION(    COAP_OPTION_IF_NONE_MATCH,  content_type - coap_pkt->content_type
 1590              		.loc 1 608 5 is_stmt 1 view .LVU540
 1591 00ca A37A     		ldrb	r3, [r4, #10]	@ zero_extendqisi2
 1592 00cc 9906     		lsls	r1, r3, #26
 1593 00ce 07D5     		bpl	.L145
 1594              		.loc 1 608 5 discriminator 1 view .LVU541
 1595              		.loc 1 608 5 discriminator 1 view .LVU542
 1596 00d0 2A46     		mov	r2, r5
 1597 00d2 0146     		mov	r1, r0
 1598 00d4 0023     		movs	r3, #0
 1599 00d6 0520     		movs	r0, #5
 1600              	.LVL162:
 1601              		.loc 1 608 5 is_stmt 0 discriminator 1 view .LVU543
 1602 00d8 FFF7FEFF 		bl	coap_serialize_int_option
 1603              	.LVL163:
 1604              		.loc 1 608 5 discriminator 1 view .LVU544
 1605 00dc 0544     		add	r5, r5, r0
 1606              	.LVL164:
 1607              		.loc 1 608 5 is_stmt 1 discriminator 1 view .LVU545
 1608              		.loc 1 608 5 is_stmt 0 discriminator 1 view .LVU546
 1609 00de 0520     		movs	r0, #5
 1610              	.LVL165:
 1611              	.L145:
 609:C:/Users/²Ü¼ÒºÀ/.iotlink/sdk/IoT_LINK/iot_link/network/lwm2m/wakaama_lwm2m/wakaama-master/core/er-coap-13\er-coap-13.c ****     COAP_SERIALIZE_INT_OPTION(    COAP_OPTION_OBSERVE,        observe, "Observe")
 1612              		.loc 1 609 5 is_stmt 1 view .LVU547
 1613 00e0 A37A     		ldrb	r3, [r4, #10]	@ zero_extendqisi2
 1614 00e2 5A06     		lsls	r2, r3, #25
ARM GAS  C:\Users\²Ü¼ÒºÀ\AppData\Local\Temp\cczrlpTg.s 			page 43


 1615 00e4 07D5     		bpl	.L146
 1616              		.loc 1 609 5 discriminator 1 view .LVU548
 1617              		.loc 1 609 5 discriminator 1 view .LVU549
 1618 00e6 2A46     		mov	r2, r5
 1619 00e8 0146     		mov	r1, r0
 1620 00ea A36C     		ldr	r3, [r4, #72]
 1621 00ec 0620     		movs	r0, #6
 1622              	.LVL166:
 1623              		.loc 1 609 5 is_stmt 0 discriminator 1 view .LVU550
 1624 00ee FFF7FEFF 		bl	coap_serialize_int_option
 1625              	.LVL167:
 1626              		.loc 1 609 5 discriminator 1 view .LVU551
 1627 00f2 0544     		add	r5, r5, r0
 1628              	.LVL168:
 1629              		.loc 1 609 5 is_stmt 1 discriminator 1 view .LVU552
 1630              		.loc 1 609 5 is_stmt 0 discriminator 1 view .LVU553
 1631 00f4 0620     		movs	r0, #6
 1632              	.LVL169:
 1633              	.L146:
 610:C:/Users/²Ü¼ÒºÀ/.iotlink/sdk/IoT_LINK/iot_link/network/lwm2m/wakaama_lwm2m/wakaama-master/core/er-coap-13\er-coap-13.c ****     COAP_SERIALIZE_INT_OPTION(    COAP_OPTION_URI_PORT,       uri_port, "Uri-Port")
 1634              		.loc 1 610 5 is_stmt 1 view .LVU554
 1635 00f6 94F90A30 		ldrsb	r3, [r4, #10]
 1636 00fa 002B     		cmp	r3, #0
 1637 00fc 07DA     		bge	.L147
 1638              		.loc 1 610 5 discriminator 1 view .LVU555
 1639              		.loc 1 610 5 discriminator 1 view .LVU556
 1640 00fe 2A46     		mov	r2, r5
 1641 0100 0146     		mov	r1, r0
 1642 0102 238F     		ldrh	r3, [r4, #56]
 1643 0104 0720     		movs	r0, #7
 1644              	.LVL170:
 1645              		.loc 1 610 5 is_stmt 0 discriminator 1 view .LVU557
 1646 0106 FFF7FEFF 		bl	coap_serialize_int_option
 1647              	.LVL171:
 1648              		.loc 1 610 5 discriminator 1 view .LVU558
 1649 010a 0544     		add	r5, r5, r0
 1650              	.LVL172:
 1651              		.loc 1 610 5 is_stmt 1 discriminator 1 view .LVU559
 1652              		.loc 1 610 5 is_stmt 0 discriminator 1 view .LVU560
 1653 010c 0720     		movs	r0, #7
 1654              	.LVL173:
 1655              	.L147:
 611:C:/Users/²Ü¼ÒºÀ/.iotlink/sdk/IoT_LINK/iot_link/network/lwm2m/wakaama_lwm2m/wakaama-master/core/er-coap-13\er-coap-13.c ****     COAP_SERIALIZE_MULTI_OPTION(  COAP_OPTION_LOCATION_PATH,  location_path, "Location-Path")
 1656              		.loc 1 611 5 is_stmt 1 view .LVU561
 1657 010e E37A     		ldrb	r3, [r4, #11]	@ zero_extendqisi2
 1658 0110 DB07     		lsls	r3, r3, #31
 1659 0112 07D5     		bpl	.L148
 1660              		.loc 1 611 5 discriminator 1 view .LVU562
 1661              		.loc 1 611 5 discriminator 1 view .LVU563
 1662 0114 2A46     		mov	r2, r5
 1663 0116 0146     		mov	r1, r0
 1664 0118 636B     		ldr	r3, [r4, #52]
 1665 011a 0820     		movs	r0, #8
 1666              	.LVL174:
 1667              		.loc 1 611 5 is_stmt 0 discriminator 1 view .LVU564
 1668 011c FFF7FEFF 		bl	coap_serialize_multi_option
 1669              	.LVL175:
ARM GAS  C:\Users\²Ü¼ÒºÀ\AppData\Local\Temp\cczrlpTg.s 			page 44


 1670              		.loc 1 611 5 discriminator 1 view .LVU565
 1671 0120 0544     		add	r5, r5, r0
 1672              	.LVL176:
 1673              		.loc 1 611 5 is_stmt 1 discriminator 1 view .LVU566
 1674              		.loc 1 611 5 is_stmt 0 discriminator 1 view .LVU567
 1675 0122 0820     		movs	r0, #8
 1676              	.LVL177:
 1677              	.L148:
 612:C:/Users/²Ü¼ÒºÀ/.iotlink/sdk/IoT_LINK/iot_link/network/lwm2m/wakaama_lwm2m/wakaama-master/core/er-coap-13\er-coap-13.c ****     COAP_SERIALIZE_MULTI_OPTION(  COAP_OPTION_URI_PATH,       uri_path, "Uri-Path")
 1678              		.loc 1 612 5 is_stmt 1 view .LVU568
 1679 0124 E37A     		ldrb	r3, [r4, #11]	@ zero_extendqisi2
 1680 0126 1E07     		lsls	r6, r3, #28
 1681 0128 07D5     		bpl	.L149
 1682              		.loc 1 612 5 discriminator 1 view .LVU569
 1683              		.loc 1 612 5 discriminator 1 view .LVU570
 1684 012a 2A46     		mov	r2, r5
 1685 012c 0146     		mov	r1, r0
 1686 012e 636C     		ldr	r3, [r4, #68]
 1687 0130 0B20     		movs	r0, #11
 1688              	.LVL178:
 1689              		.loc 1 612 5 is_stmt 0 discriminator 1 view .LVU571
 1690 0132 FFF7FEFF 		bl	coap_serialize_multi_option
 1691              	.LVL179:
 1692              		.loc 1 612 5 discriminator 1 view .LVU572
 1693 0136 0544     		add	r5, r5, r0
 1694              	.LVL180:
 1695              		.loc 1 612 5 is_stmt 1 discriminator 1 view .LVU573
 1696              		.loc 1 612 5 is_stmt 0 discriminator 1 view .LVU574
 1697 0138 0B20     		movs	r0, #11
 1698              	.LVL181:
 1699              	.L149:
 613:C:/Users/²Ü¼ÒºÀ/.iotlink/sdk/IoT_LINK/iot_link/network/lwm2m/wakaama_lwm2m/wakaama-master/core/er-coap-13\er-coap-13.c ****     COAP_SERIALIZE_INT_OPTION(    COAP_OPTION_CONTENT_TYPE,   content_type, "Content-Format")
 1700              		.loc 1 613 5 is_stmt 1 view .LVU575
 1701 013a E37A     		ldrb	r3, [r4, #11]	@ zero_extendqisi2
 1702 013c D906     		lsls	r1, r3, #27
 1703 013e 07D5     		bpl	.L150
 1704              		.loc 1 613 5 discriminator 1 view .LVU576
 1705              		.loc 1 613 5 discriminator 1 view .LVU577
 1706 0140 2A46     		mov	r2, r5
 1707 0142 0146     		mov	r1, r0
 1708 0144 238A     		ldrh	r3, [r4, #16]
 1709 0146 0C20     		movs	r0, #12
 1710              	.LVL182:
 1711              		.loc 1 613 5 is_stmt 0 discriminator 1 view .LVU578
 1712 0148 FFF7FEFF 		bl	coap_serialize_int_option
 1713              	.LVL183:
 1714              		.loc 1 613 5 discriminator 1 view .LVU579
 1715 014c 0544     		add	r5, r5, r0
 1716              	.LVL184:
 1717              		.loc 1 613 5 is_stmt 1 discriminator 1 view .LVU580
 1718              		.loc 1 613 5 is_stmt 0 discriminator 1 view .LVU581
 1719 014e 0C20     		movs	r0, #12
 1720              	.LVL185:
 1721              	.L150:
 614:C:/Users/²Ü¼ÒºÀ/.iotlink/sdk/IoT_LINK/iot_link/network/lwm2m/wakaama_lwm2m/wakaama-master/core/er-coap-13\er-coap-13.c ****     COAP_SERIALIZE_INT_OPTION(    COAP_OPTION_MAX_AGE,        max_age, "Max-Age")
 1722              		.loc 1 614 5 is_stmt 1 view .LVU582
 1723 0150 E37A     		ldrb	r3, [r4, #11]	@ zero_extendqisi2
ARM GAS  C:\Users\²Ü¼ÒºÀ\AppData\Local\Temp\cczrlpTg.s 			page 45


 1724 0152 5A06     		lsls	r2, r3, #25
 1725 0154 07D5     		bpl	.L151
 1726              		.loc 1 614 5 discriminator 1 view .LVU583
 1727              		.loc 1 614 5 discriminator 1 view .LVU584
 1728 0156 2A46     		mov	r2, r5
 1729 0158 0146     		mov	r1, r0
 1730 015a 6369     		ldr	r3, [r4, #20]
 1731 015c 0E20     		movs	r0, #14
 1732              	.LVL186:
 1733              		.loc 1 614 5 is_stmt 0 discriminator 1 view .LVU585
 1734 015e FFF7FEFF 		bl	coap_serialize_int_option
 1735              	.LVL187:
 1736              		.loc 1 614 5 discriminator 1 view .LVU586
 1737 0162 0544     		add	r5, r5, r0
 1738              	.LVL188:
 1739              		.loc 1 614 5 is_stmt 1 discriminator 1 view .LVU587
 1740              		.loc 1 614 5 is_stmt 0 discriminator 1 view .LVU588
 1741 0164 0E20     		movs	r0, #14
 1742              	.LVL189:
 1743              	.L151:
 615:C:/Users/²Ü¼ÒºÀ/.iotlink/sdk/IoT_LINK/iot_link/network/lwm2m/wakaama_lwm2m/wakaama-master/core/er-coap-13\er-coap-13.c ****     COAP_SERIALIZE_MULTI_OPTION(  COAP_OPTION_URI_QUERY,      uri_query, "Uri-Query")
 1744              		.loc 1 615 5 is_stmt 1 view .LVU589
 1745 0166 94F90B30 		ldrsb	r3, [r4, #11]
 1746 016a 002B     		cmp	r3, #0
 1747 016c 08DA     		bge	.L152
 1748              		.loc 1 615 5 discriminator 1 view .LVU590
 1749              		.loc 1 615 5 discriminator 1 view .LVU591
 1750 016e 2A46     		mov	r2, r5
 1751 0170 0146     		mov	r1, r0
 1752 0172 D4F88030 		ldr	r3, [r4, #128]
 1753 0176 0F20     		movs	r0, #15
 1754              	.LVL190:
 1755              		.loc 1 615 5 is_stmt 0 discriminator 1 view .LVU592
 1756 0178 FFF7FEFF 		bl	coap_serialize_multi_option
 1757              	.LVL191:
 1758              		.loc 1 615 5 discriminator 1 view .LVU593
 1759 017c 0544     		add	r5, r5, r0
 1760              	.LVL192:
 1761              		.loc 1 615 5 is_stmt 1 discriminator 1 view .LVU594
 1762              		.loc 1 615 5 is_stmt 0 discriminator 1 view .LVU595
 1763 017e 0F20     		movs	r0, #15
 1764              	.LVL193:
 1765              	.L152:
 616:C:/Users/²Ü¼ÒºÀ/.iotlink/sdk/IoT_LINK/iot_link/network/lwm2m/wakaama_lwm2m/wakaama-master/core/er-coap-13\er-coap-13.c ****     COAP_SERIALIZE_ACCEPT_OPTION( COAP_OPTION_ACCEPT,         accept, "Accept")
 1766              		.loc 1 616 5 is_stmt 1 view .LVU596
 1767 0180 237B     		ldrb	r3, [r4, #12]	@ zero_extendqisi2
 1768 0182 9B07     		lsls	r3, r3, #30
 1769 0184 07D5     		bpl	.L153
 1770              		.loc 1 616 5 is_stmt 0 view .LVU597
 1771 0186 04F15608 		add	r8, r4, #86
 1772              	.LBB76:
 1773 018a 0026     		movs	r6, #0
 1774              	.LVL194:
 1775              	.L154:
 1776              		.loc 1 616 5 is_stmt 1 discriminator 2 view .LVU598
 1777 018c 94F85530 		ldrb	r3, [r4, #85]	@ zero_extendqisi2
 1778 0190 B342     		cmp	r3, r6
ARM GAS  C:\Users\²Ü¼ÒºÀ\AppData\Local\Temp\cczrlpTg.s 			page 46


 1779 0192 00F3A380 		bgt	.L155
 1780              	.LVL195:
 1781              	.L153:
 1782              		.loc 1 616 5 is_stmt 0 discriminator 2 view .LVU599
 1783              	.LBE76:
 617:C:/Users/²Ü¼ÒºÀ/.iotlink/sdk/IoT_LINK/iot_link/network/lwm2m/wakaama_lwm2m/wakaama-master/core/er-coap-13\er-coap-13.c ****     COAP_SERIALIZE_STRING_OPTION( COAP_OPTION_LOCATION_QUERY, location_query, '&', "Location-Query"
 1784              		.loc 1 617 5 is_stmt 1 view .LVU600
 1785 0196 237B     		ldrb	r3, [r4, #12]	@ zero_extendqisi2
 1786 0198 DE06     		lsls	r6, r3, #27
 1787 019a 29D5     		bpl	.L156
 1788              		.loc 1 617 5 discriminator 1 view .LVU601
 1789              		.loc 1 617 5 discriminator 1 view .LVU602
 1790 019c D4E90F3A 		ldrd	r3, r10, [r4, #60]
 1791              	.LVL196:
 1792              	.LBB77:
 1793              	.LBI77:
 208:C:/Users/²Ü¼ÒºÀ/.iotlink/sdk/IoT_LINK/iot_link/network/lwm2m/wakaama_lwm2m/wakaama-master/core/er-coap-13\er-coap-13.c **** {
 1794              		.loc 1 208 1 discriminator 1 view .LVU603
 1795              	.LBB78:
 1796              	.LBB79:
 219:C:/Users/²Ü¼ÒºÀ/.iotlink/sdk/IoT_LINK/iot_link/network/lwm2m/wakaama_lwm2m/wakaama-master/core/er-coap-13\er-coap-13.c ****         {
 1797              		.loc 1 219 21 discriminator 1 view .LVU604
 1798              	.LBE79:
 210:C:/Users/²Ü¼ÒºÀ/.iotlink/sdk/IoT_LINK/iot_link/network/lwm2m/wakaama_lwm2m/wakaama-master/core/er-coap-13\er-coap-13.c **** 
 1799              		.loc 1 210 12 is_stmt 0 discriminator 1 view .LVU605
 1800 01a0 4FF00008 		mov	r8, #0
 1801              	.LBB80:
 215:C:/Users/²Ü¼ÒºÀ/.iotlink/sdk/IoT_LINK/iot_link/network/lwm2m/wakaama_lwm2m/wakaama-master/core/er-coap-13\er-coap-13.c ****         uint8_t *part_end = NULL;
 1802              		.loc 1 215 18 discriminator 1 view .LVU606
 1803 01a4 D346     		mov	fp, r10
 219:C:/Users/²Ü¼ÒºÀ/.iotlink/sdk/IoT_LINK/iot_link/network/lwm2m/wakaama_lwm2m/wakaama-master/core/er-coap-13\er-coap-13.c ****         {
 1804              		.loc 1 219 16 discriminator 1 view .LVU607
 1805 01a6 4646     		mov	r6, r8
 1806              	.LVL197:
 1807              	.L159:
 221:C:/Users/²Ü¼ÒºÀ/.iotlink/sdk/IoT_LINK/iot_link/network/lwm2m/wakaama_lwm2m/wakaama-master/core/er-coap-13\er-coap-13.c ****             {
 1808              		.loc 1 221 13 is_stmt 1 view .LVU608
 221:C:/Users/²Ü¼ÒºÀ/.iotlink/sdk/IoT_LINK/iot_link/network/lwm2m/wakaama_lwm2m/wakaama-master/core/er-coap-13\er-coap-13.c ****             {
 1809              		.loc 1 221 16 is_stmt 0 view .LVU609
 1810 01a8 1AF80620 		ldrb	r2, [r10, r6]	@ zero_extendqisi2
 1811 01ac 262A     		cmp	r2, #38
 221:C:/Users/²Ü¼ÒºÀ/.iotlink/sdk/IoT_LINK/iot_link/network/lwm2m/wakaama_lwm2m/wakaama-master/core/er-coap-13\er-coap-13.c ****             {
 1812              		.loc 1 221 22 view .LVU610
 1813 01ae 0AEB0609 		add	r9, r10, r6
 221:C:/Users/²Ü¼ÒºÀ/.iotlink/sdk/IoT_LINK/iot_link/network/lwm2m/wakaama_lwm2m/wakaama-master/core/er-coap-13\er-coap-13.c ****             {
 1814              		.loc 1 221 16 view .LVU611
 1815 01b2 01D0     		beq	.L157
 221:C:/Users/²Ü¼ÒºÀ/.iotlink/sdk/IoT_LINK/iot_link/network/lwm2m/wakaama_lwm2m/wakaama-master/core/er-coap-13\er-coap-13.c ****             {
 1816              		.loc 1 221 40 view .LVU612
 1817 01b4 B342     		cmp	r3, r6
 1818 01b6 16D1     		bne	.L158
 1819              	.L157:
 224:C:/Users/²Ü¼ÒºÀ/.iotlink/sdk/IoT_LINK/iot_link/network/lwm2m/wakaama_lwm2m/wakaama-master/core/er-coap-13\er-coap-13.c **** 
 1820              		.loc 1 224 40 view .LVU613
 1821 01b8 A9EB0B09 		sub	r9, r9, fp
 226:C:/Users/²Ü¼ÒºÀ/.iotlink/sdk/IoT_LINK/iot_link/network/lwm2m/wakaama_lwm2m/wakaama-master/core/er-coap-13\er-coap-13.c ****                 memcpy(&buffer[i], part_start, temp_length);
 1822              		.loc 1 226 22 view .LVU614
ARM GAS  C:\Users\²Ü¼ÒºÀ\AppData\Local\Temp\cczrlpTg.s 			page 47


 1823 01bc 05EB0802 		add	r2, r5, r8
 1824 01c0 4946     		mov	r1, r9
 1825 01c2 C0F11400 		rsb	r0, r0, #20
 1826              	.LVL198:
 226:C:/Users/²Ü¼ÒºÀ/.iotlink/sdk/IoT_LINK/iot_link/network/lwm2m/wakaama_lwm2m/wakaama-master/core/er-coap-13\er-coap-13.c ****                 memcpy(&buffer[i], part_start, temp_length);
 1827              		.loc 1 226 22 view .LVU615
 1828 01c6 0393     		str	r3, [sp, #12]
 223:C:/Users/²Ü¼ÒºÀ/.iotlink/sdk/IoT_LINK/iot_link/network/lwm2m/wakaama_lwm2m/wakaama-master/core/er-coap-13\er-coap-13.c ****                 temp_length = part_end - part_start;
 1829              		.loc 1 223 17 is_stmt 1 view .LVU616
 224:C:/Users/²Ü¼ÒºÀ/.iotlink/sdk/IoT_LINK/iot_link/network/lwm2m/wakaama_lwm2m/wakaama-master/core/er-coap-13\er-coap-13.c **** 
 1830              		.loc 1 224 17 view .LVU617
 1831              	.LVL199:
 226:C:/Users/²Ü¼ÒºÀ/.iotlink/sdk/IoT_LINK/iot_link/network/lwm2m/wakaama_lwm2m/wakaama-master/core/er-coap-13\er-coap-13.c ****                 memcpy(&buffer[i], part_start, temp_length);
 1832              		.loc 1 226 17 view .LVU618
 226:C:/Users/²Ü¼ÒºÀ/.iotlink/sdk/IoT_LINK/iot_link/network/lwm2m/wakaama_lwm2m/wakaama-master/core/er-coap-13\er-coap-13.c ****                 memcpy(&buffer[i], part_start, temp_length);
 1833              		.loc 1 226 22 is_stmt 0 view .LVU619
 1834 01c8 FFF7FEFF 		bl	coap_set_option_header
 1835              	.LVL200:
 226:C:/Users/²Ü¼ÒºÀ/.iotlink/sdk/IoT_LINK/iot_link/network/lwm2m/wakaama_lwm2m/wakaama-master/core/er-coap-13\er-coap-13.c ****                 memcpy(&buffer[i], part_start, temp_length);
 1836              		.loc 1 226 19 view .LVU620
 1837 01cc 8044     		add	r8, r8, r0
 1838              	.LVL201:
 227:C:/Users/²Ü¼ÒºÀ/.iotlink/sdk/IoT_LINK/iot_link/network/lwm2m/wakaama_lwm2m/wakaama-master/core/er-coap-13\er-coap-13.c ****                 i += temp_length;
 1839              		.loc 1 227 17 is_stmt 1 view .LVU621
 1840 01ce 5946     		mov	r1, fp
 1841 01d0 05EB0800 		add	r0, r5, r8
 1842 01d4 4A46     		mov	r2, r9
 1843 01d6 FFF7FEFF 		bl	memcpy
 1844              	.LVL202:
 228:C:/Users/²Ü¼ÒºÀ/.iotlink/sdk/IoT_LINK/iot_link/network/lwm2m/wakaama_lwm2m/wakaama-master/core/er-coap-13\er-coap-13.c **** 
 1845              		.loc 1 228 17 view .LVU622
 232:C:/Users/²Ü¼ÒºÀ/.iotlink/sdk/IoT_LINK/iot_link/network/lwm2m/wakaama_lwm2m/wakaama-master/core/er-coap-13\er-coap-13.c ****                 current_number = number;
 1846              		.loc 1 232 17 is_stmt 0 view .LVU623
 1847 01da 0136     		adds	r6, r6, #1
 1848              	.LVL203:
 233:C:/Users/²Ü¼ÒºÀ/.iotlink/sdk/IoT_LINK/iot_link/network/lwm2m/wakaama_lwm2m/wakaama-master/core/er-coap-13\er-coap-13.c ****                 part_start = array + j;
 1849              		.loc 1 233 32 view .LVU624
 1850 01dc 039B     		ldr	r3, [sp, #12]
 228:C:/Users/²Ü¼ÒºÀ/.iotlink/sdk/IoT_LINK/iot_link/network/lwm2m/wakaama_lwm2m/wakaama-master/core/er-coap-13\er-coap-13.c **** 
 1851              		.loc 1 228 19 view .LVU625
 1852 01de C844     		add	r8, r8, r9
 1853              	.LVL204:
 230:C:/Users/²Ü¼ÒºÀ/.iotlink/sdk/IoT_LINK/iot_link/network/lwm2m/wakaama_lwm2m/wakaama-master/core/er-coap-13\er-coap-13.c **** 
 1854              		.loc 1 230 135 is_stmt 1 view .LVU626
 232:C:/Users/²Ü¼ÒºÀ/.iotlink/sdk/IoT_LINK/iot_link/network/lwm2m/wakaama_lwm2m/wakaama-master/core/er-coap-13\er-coap-13.c ****                 current_number = number;
 1855              		.loc 1 232 17 view .LVU627
 233:C:/Users/²Ü¼ÒºÀ/.iotlink/sdk/IoT_LINK/iot_link/network/lwm2m/wakaama_lwm2m/wakaama-master/core/er-coap-13\er-coap-13.c ****                 part_start = array + j;
 1856              		.loc 1 233 17 view .LVU628
 234:C:/Users/²Ü¼ÒºÀ/.iotlink/sdk/IoT_LINK/iot_link/network/lwm2m/wakaama_lwm2m/wakaama-master/core/er-coap-13\er-coap-13.c ****             }
 1857              		.loc 1 234 17 view .LVU629
 234:C:/Users/²Ü¼ÒºÀ/.iotlink/sdk/IoT_LINK/iot_link/network/lwm2m/wakaama_lwm2m/wakaama-master/core/er-coap-13\er-coap-13.c ****             }
 1858              		.loc 1 234 28 is_stmt 0 view .LVU630
 1859 01e0 0AEB060B 		add	fp, r10, r6
 1860              	.LVL205:
 233:C:/Users/²Ü¼ÒºÀ/.iotlink/sdk/IoT_LINK/iot_link/network/lwm2m/wakaama_lwm2m/wakaama-master/core/er-coap-13\er-coap-13.c ****                 part_start = array + j;
 1861              		.loc 1 233 32 view .LVU631
 1862 01e4 1420     		movs	r0, #20
ARM GAS  C:\Users\²Ü¼ÒºÀ\AppData\Local\Temp\cczrlpTg.s 			page 48


 1863              	.LVL206:
 1864              	.L158:
 219:C:/Users/²Ü¼ÒºÀ/.iotlink/sdk/IoT_LINK/iot_link/network/lwm2m/wakaama_lwm2m/wakaama-master/core/er-coap-13\er-coap-13.c ****         {
 1865              		.loc 1 219 34 is_stmt 1 view .LVU632
 1866 01e6 0136     		adds	r6, r6, #1
 1867              	.LVL207:
 219:C:/Users/²Ü¼ÒºÀ/.iotlink/sdk/IoT_LINK/iot_link/network/lwm2m/wakaama_lwm2m/wakaama-master/core/er-coap-13\er-coap-13.c ****         {
 1868              		.loc 1 219 21 view .LVU633
 219:C:/Users/²Ü¼ÒºÀ/.iotlink/sdk/IoT_LINK/iot_link/network/lwm2m/wakaama_lwm2m/wakaama-master/core/er-coap-13\er-coap-13.c ****         {
 1869              		.loc 1 219 9 is_stmt 0 view .LVU634
 1870 01e8 B342     		cmp	r3, r6
 1871 01ea DDD2     		bcs	.L159
 219:C:/Users/²Ü¼ÒºÀ/.iotlink/sdk/IoT_LINK/iot_link/network/lwm2m/wakaama_lwm2m/wakaama-master/core/er-coap-13\er-coap-13.c ****         {
 1872              		.loc 1 219 9 view .LVU635
 1873              	.LBE80:
 244:C:/Users/²Ü¼ÒºÀ/.iotlink/sdk/IoT_LINK/iot_link/network/lwm2m/wakaama_lwm2m/wakaama-master/core/er-coap-13\er-coap-13.c ****     }
 1874              		.loc 1 244 94 is_stmt 1 view .LVU636
 247:C:/Users/²Ü¼ÒºÀ/.iotlink/sdk/IoT_LINK/iot_link/network/lwm2m/wakaama_lwm2m/wakaama-master/core/er-coap-13\er-coap-13.c **** }
 1875              		.loc 1 247 5 view .LVU637
 1876              	.LVL208:
 247:C:/Users/²Ü¼ÒºÀ/.iotlink/sdk/IoT_LINK/iot_link/network/lwm2m/wakaama_lwm2m/wakaama-master/core/er-coap-13\er-coap-13.c **** }
 1877              		.loc 1 247 5 is_stmt 0 view .LVU638
 1878              	.LBE78:
 1879              	.LBE77:
 1880              		.loc 1 617 5 view .LVU639
 1881 01ec 4544     		add	r5, r5, r8
 1882              	.LVL209:
 1883              		.loc 1 617 5 is_stmt 1 view .LVU640
 1884              		.loc 1 617 5 is_stmt 0 view .LVU641
 1885 01ee 1420     		movs	r0, #20
 1886              	.LVL210:
 1887              	.L156:
 618:C:/Users/²Ü¼ÒºÀ/.iotlink/sdk/IoT_LINK/iot_link/network/lwm2m/wakaama_lwm2m/wakaama-master/core/er-coap-13\er-coap-13.c ****     COAP_SERIALIZE_BLOCK_OPTION(  COAP_OPTION_BLOCK2,         block2, "Block2")
 1888              		.loc 1 618 5 is_stmt 1 view .LVU642
 1889 01f0 94F90C30 		ldrsb	r3, [r4, #12]
 1890 01f4 002B     		cmp	r3, #0
 1891 01f6 1DDA     		bge	.L160
 1892              	.LBB81:
 1893              		.loc 1 618 5 discriminator 1 view .LVU643
 1894 01f8 636E     		ldr	r3, [r4, #100]
 1895 01fa 94F86820 		ldrb	r2, [r4, #104]	@ zero_extendqisi2
 1896 01fe 1B01     		lsls	r3, r3, #4
 1897              	.LVL211:
 1898              		.loc 1 618 5 discriminator 1 view .LVU644
 1899              		.loc 1 618 5 discriminator 1 view .LVU645
 1900 0200 0AB1     		cbz	r2, .L161
 1901              		.loc 1 618 5 discriminator 2 view .LVU646
 1902 0202 43F00803 		orr	r3, r3, #8
 1903              	.LVL212:
 1904              	.L161:
 1905              		.loc 1 618 5 discriminator 4 view .LVU647
 1906 0206 B4F86A60 		ldrh	r6, [r4, #106]
 1907              	.LBB82:
 1908              	.LBB83:
 111:C:/Users/²Ü¼ÒºÀ/.iotlink/sdk/IoT_LINK/iot_link/network/lwm2m/wakaama_lwm2m/wakaama-master/core/er-coap-13\er-coap-13.c ****     do
 1909              		.loc 1 111 14 is_stmt 0 discriminator 4 view .LVU648
 1910 020a 0021     		movs	r1, #0
ARM GAS  C:\Users\²Ü¼ÒºÀ\AppData\Local\Temp\cczrlpTg.s 			page 49


 1911              	.LBE83:
 1912              	.LBE82:
 1913              		.loc 1 618 5 discriminator 4 view .LVU649
 1914 020c 3609     		lsrs	r6, r6, #4
 1915              	.LVL213:
 1916              	.LBB85:
 1917              	.LBI82:
 109:C:/Users/²Ü¼ÒºÀ/.iotlink/sdk/IoT_LINK/iot_link/network/lwm2m/wakaama_lwm2m/wakaama-master/core/er-coap-13\er-coap-13.c **** {
 1918              		.loc 1 109 1 is_stmt 1 discriminator 4 view .LVU650
 1919              	.LBB84:
 111:C:/Users/²Ü¼ÒºÀ/.iotlink/sdk/IoT_LINK/iot_link/network/lwm2m/wakaama_lwm2m/wakaama-master/core/er-coap-13\er-coap-13.c ****     do
 1920              		.loc 1 111 5 discriminator 4 view .LVU651
 1921              	.L162:
 112:C:/Users/²Ü¼ÒºÀ/.iotlink/sdk/IoT_LINK/iot_link/network/lwm2m/wakaama_lwm2m/wakaama-master/core/er-coap-13\er-coap-13.c ****     {
 1922              		.loc 1 112 5 view .LVU652
 114:C:/Users/²Ü¼ÒºÀ/.iotlink/sdk/IoT_LINK/iot_link/network/lwm2m/wakaama_lwm2m/wakaama-master/core/er-coap-13\er-coap-13.c ****         result++;
 1923              		.loc 1 114 9 view .LVU653
 115:C:/Users/²Ü¼ÒºÀ/.iotlink/sdk/IoT_LINK/iot_link/network/lwm2m/wakaama_lwm2m/wakaama-master/core/er-coap-13\er-coap-13.c ****     }
 1924              		.loc 1 115 9 view .LVU654
 1925 020e 0A46     		mov	r2, r1
 117:C:/Users/²Ü¼ÒºÀ/.iotlink/sdk/IoT_LINK/iot_link/network/lwm2m/wakaama_lwm2m/wakaama-master/core/er-coap-13\er-coap-13.c **** 
 1926              		.loc 1 117 5 is_stmt 0 view .LVU655
 1927 0210 7608     		lsrs	r6, r6, #1
 1928              	.LVL214:
 115:C:/Users/²Ü¼ÒºÀ/.iotlink/sdk/IoT_LINK/iot_link/network/lwm2m/wakaama_lwm2m/wakaama-master/core/er-coap-13\er-coap-13.c ****     }
 1929              		.loc 1 115 15 view .LVU656
 1930 0212 01F10101 		add	r1, r1, #1
 1931              	.LVL215:
 115:C:/Users/²Ü¼ÒºÀ/.iotlink/sdk/IoT_LINK/iot_link/network/lwm2m/wakaama_lwm2m/wakaama-master/core/er-coap-13\er-coap-13.c ****     }
 1932              		.loc 1 115 15 view .LVU657
 1933 0216 89B2     		uxth	r1, r1
 1934              	.LVL216:
 117:C:/Users/²Ü¼ÒºÀ/.iotlink/sdk/IoT_LINK/iot_link/network/lwm2m/wakaama_lwm2m/wakaama-master/core/er-coap-13\er-coap-13.c **** 
 1935              		.loc 1 117 11 is_stmt 1 view .LVU658
 117:C:/Users/²Ü¼ÒºÀ/.iotlink/sdk/IoT_LINK/iot_link/network/lwm2m/wakaama_lwm2m/wakaama-master/core/er-coap-13\er-coap-13.c **** 
 1936              		.loc 1 117 5 is_stmt 0 view .LVU659
 1937 0218 F9D1     		bne	.L162
 119:C:/Users/²Ü¼ÒºÀ/.iotlink/sdk/IoT_LINK/iot_link/network/lwm2m/wakaama_lwm2m/wakaama-master/core/er-coap-13\er-coap-13.c **** }
 1938              		.loc 1 119 5 is_stmt 1 view .LVU660
 115:C:/Users/²Ü¼ÒºÀ/.iotlink/sdk/IoT_LINK/iot_link/network/lwm2m/wakaama_lwm2m/wakaama-master/core/er-coap-13\er-coap-13.c ****     }
 1939              		.loc 1 115 15 is_stmt 0 view .LVU661
 1940 021a 0029     		cmp	r1, #0
 1941 021c 08BF     		it	eq
 1942 021e 0022     		moveq	r2, #0
 1943              	.LVL217:
 115:C:/Users/²Ü¼ÒºÀ/.iotlink/sdk/IoT_LINK/iot_link/network/lwm2m/wakaama_lwm2m/wakaama-master/core/er-coap-13\er-coap-13.c ****     }
 1944              		.loc 1 115 15 view .LVU662
 1945              	.LBE84:
 1946              	.LBE85:
 1947              		.loc 1 618 5 is_stmt 1 view .LVU663
 1948              		.loc 1 618 5 view .LVU664
 1949 0220 02F00F02 		and	r2, r2, #15
 1950              	.LVL218:
 1951              		.loc 1 618 5 is_stmt 0 view .LVU665
 1952 0224 1343     		orrs	r3, r3, r2
 1953 0226 0146     		mov	r1, r0
 1954 0228 2A46     		mov	r2, r5
ARM GAS  C:\Users\²Ü¼ÒºÀ\AppData\Local\Temp\cczrlpTg.s 			page 50


 1955 022a 1720     		movs	r0, #23
 1956              	.LVL219:
 1957              		.loc 1 618 5 view .LVU666
 1958 022c FFF7FEFF 		bl	coap_serialize_int_option
 1959              	.LVL220:
 1960              		.loc 1 618 5 view .LVU667
 1961 0230 0544     		add	r5, r5, r0
 1962              	.LVL221:
 1963              		.loc 1 618 5 is_stmt 1 view .LVU668
 1964              		.loc 1 618 5 is_stmt 0 view .LVU669
 1965 0232 1720     		movs	r0, #23
 1966              	.LVL222:
 1967              	.L160:
 1968              		.loc 1 618 5 view .LVU670
 1969              	.LBE81:
 619:C:/Users/²Ü¼ÒºÀ/.iotlink/sdk/IoT_LINK/iot_link/network/lwm2m/wakaama_lwm2m/wakaama-master/core/er-coap-13\er-coap-13.c ****     COAP_SERIALIZE_BLOCK_OPTION(  COAP_OPTION_BLOCK1,         block1, "Block1")
 1970              		.loc 1 619 5 is_stmt 1 view .LVU671
 1971 0234 637B     		ldrb	r3, [r4, #13]	@ zero_extendqisi2
 1972 0236 1907     		lsls	r1, r3, #28
 1973 0238 1DD5     		bpl	.L164
 1974              	.LBB86:
 1975              		.loc 1 619 5 discriminator 1 view .LVU672
 1976 023a 236F     		ldr	r3, [r4, #112]
 1977 023c 94F87420 		ldrb	r2, [r4, #116]	@ zero_extendqisi2
 1978 0240 1B01     		lsls	r3, r3, #4
 1979              	.LVL223:
 1980              		.loc 1 619 5 discriminator 1 view .LVU673
 1981              		.loc 1 619 5 discriminator 1 view .LVU674
 1982 0242 0AB1     		cbz	r2, .L165
 1983              		.loc 1 619 5 discriminator 2 view .LVU675
 1984 0244 43F00803 		orr	r3, r3, #8
 1985              	.LVL224:
 1986              	.L165:
 1987              		.loc 1 619 5 discriminator 4 view .LVU676
 1988 0248 B4F87660 		ldrh	r6, [r4, #118]
 1989              	.LBB87:
 1990              	.LBB88:
 111:C:/Users/²Ü¼ÒºÀ/.iotlink/sdk/IoT_LINK/iot_link/network/lwm2m/wakaama_lwm2m/wakaama-master/core/er-coap-13\er-coap-13.c ****     do
 1991              		.loc 1 111 14 is_stmt 0 discriminator 4 view .LVU677
 1992 024c 0021     		movs	r1, #0
 1993              	.LBE88:
 1994              	.LBE87:
 1995              		.loc 1 619 5 discriminator 4 view .LVU678
 1996 024e 3609     		lsrs	r6, r6, #4
 1997              	.LVL225:
 1998              	.LBB90:
 1999              	.LBI87:
 109:C:/Users/²Ü¼ÒºÀ/.iotlink/sdk/IoT_LINK/iot_link/network/lwm2m/wakaama_lwm2m/wakaama-master/core/er-coap-13\er-coap-13.c **** {
 2000              		.loc 1 109 1 is_stmt 1 discriminator 4 view .LVU679
 2001              	.LBB89:
 111:C:/Users/²Ü¼ÒºÀ/.iotlink/sdk/IoT_LINK/iot_link/network/lwm2m/wakaama_lwm2m/wakaama-master/core/er-coap-13\er-coap-13.c ****     do
 2002              		.loc 1 111 5 discriminator 4 view .LVU680
 2003              	.L166:
 112:C:/Users/²Ü¼ÒºÀ/.iotlink/sdk/IoT_LINK/iot_link/network/lwm2m/wakaama_lwm2m/wakaama-master/core/er-coap-13\er-coap-13.c ****     {
 2004              		.loc 1 112 5 view .LVU681
 114:C:/Users/²Ü¼ÒºÀ/.iotlink/sdk/IoT_LINK/iot_link/network/lwm2m/wakaama_lwm2m/wakaama-master/core/er-coap-13\er-coap-13.c ****         result++;
 2005              		.loc 1 114 9 view .LVU682
ARM GAS  C:\Users\²Ü¼ÒºÀ\AppData\Local\Temp\cczrlpTg.s 			page 51


 115:C:/Users/²Ü¼ÒºÀ/.iotlink/sdk/IoT_LINK/iot_link/network/lwm2m/wakaama_lwm2m/wakaama-master/core/er-coap-13\er-coap-13.c ****     }
 2006              		.loc 1 115 9 view .LVU683
 2007 0250 0A46     		mov	r2, r1
 117:C:/Users/²Ü¼ÒºÀ/.iotlink/sdk/IoT_LINK/iot_link/network/lwm2m/wakaama_lwm2m/wakaama-master/core/er-coap-13\er-coap-13.c **** 
 2008              		.loc 1 117 5 is_stmt 0 view .LVU684
 2009 0252 7608     		lsrs	r6, r6, #1
 2010              	.LVL226:
 115:C:/Users/²Ü¼ÒºÀ/.iotlink/sdk/IoT_LINK/iot_link/network/lwm2m/wakaama_lwm2m/wakaama-master/core/er-coap-13\er-coap-13.c ****     }
 2011              		.loc 1 115 15 view .LVU685
 2012 0254 01F10101 		add	r1, r1, #1
 2013              	.LVL227:
 115:C:/Users/²Ü¼ÒºÀ/.iotlink/sdk/IoT_LINK/iot_link/network/lwm2m/wakaama_lwm2m/wakaama-master/core/er-coap-13\er-coap-13.c ****     }
 2014              		.loc 1 115 15 view .LVU686
 2015 0258 89B2     		uxth	r1, r1
 2016              	.LVL228:
 117:C:/Users/²Ü¼ÒºÀ/.iotlink/sdk/IoT_LINK/iot_link/network/lwm2m/wakaama_lwm2m/wakaama-master/core/er-coap-13\er-coap-13.c **** 
 2017              		.loc 1 117 11 is_stmt 1 view .LVU687
 117:C:/Users/²Ü¼ÒºÀ/.iotlink/sdk/IoT_LINK/iot_link/network/lwm2m/wakaama_lwm2m/wakaama-master/core/er-coap-13\er-coap-13.c **** 
 2018              		.loc 1 117 5 is_stmt 0 view .LVU688
 2019 025a F9D1     		bne	.L166
 119:C:/Users/²Ü¼ÒºÀ/.iotlink/sdk/IoT_LINK/iot_link/network/lwm2m/wakaama_lwm2m/wakaama-master/core/er-coap-13\er-coap-13.c **** }
 2020              		.loc 1 119 5 is_stmt 1 view .LVU689
 115:C:/Users/²Ü¼ÒºÀ/.iotlink/sdk/IoT_LINK/iot_link/network/lwm2m/wakaama_lwm2m/wakaama-master/core/er-coap-13\er-coap-13.c ****     }
 2021              		.loc 1 115 15 is_stmt 0 view .LVU690
 2022 025c 0029     		cmp	r1, #0
 2023 025e 08BF     		it	eq
 2024 0260 0022     		moveq	r2, #0
 2025              	.LVL229:
 115:C:/Users/²Ü¼ÒºÀ/.iotlink/sdk/IoT_LINK/iot_link/network/lwm2m/wakaama_lwm2m/wakaama-master/core/er-coap-13\er-coap-13.c ****     }
 2026              		.loc 1 115 15 view .LVU691
 2027              	.LBE89:
 2028              	.LBE90:
 2029              		.loc 1 619 5 is_stmt 1 view .LVU692
 2030              		.loc 1 619 5 view .LVU693
 2031 0262 02F00F02 		and	r2, r2, #15
 2032              	.LVL230:
 2033              		.loc 1 619 5 is_stmt 0 view .LVU694
 2034 0266 1343     		orrs	r3, r3, r2
 2035 0268 0146     		mov	r1, r0
 2036 026a 2A46     		mov	r2, r5
 2037 026c 1B20     		movs	r0, #27
 2038              	.LVL231:
 2039              		.loc 1 619 5 view .LVU695
 2040 026e FFF7FEFF 		bl	coap_serialize_int_option
 2041              	.LVL232:
 2042              		.loc 1 619 5 view .LVU696
 2043 0272 0544     		add	r5, r5, r0
 2044              	.LVL233:
 2045              		.loc 1 619 5 is_stmt 1 view .LVU697
 2046              		.loc 1 619 5 is_stmt 0 view .LVU698
 2047 0274 1B20     		movs	r0, #27
 2048              	.LVL234:
 2049              	.L164:
 2050              		.loc 1 619 5 view .LVU699
 2051              	.LBE86:
 620:C:/Users/²Ü¼ÒºÀ/.iotlink/sdk/IoT_LINK/iot_link/network/lwm2m/wakaama_lwm2m/wakaama-master/core/er-coap-13\er-coap-13.c ****     COAP_SERIALIZE_INT_OPTION(    COAP_OPTION_SIZE,           size, "Size")
 2052              		.loc 1 620 5 is_stmt 1 view .LVU700
ARM GAS  C:\Users\²Ü¼ÒºÀ\AppData\Local\Temp\cczrlpTg.s 			page 52


 2053 0276 637B     		ldrb	r3, [r4, #13]	@ zero_extendqisi2
 2054 0278 DA06     		lsls	r2, r3, #27
 2055 027a 07D5     		bpl	.L168
 2056              		.loc 1 620 5 discriminator 1 view .LVU701
 2057              		.loc 1 620 5 discriminator 1 view .LVU702
 2058 027c 2A46     		mov	r2, r5
 2059 027e 0146     		mov	r1, r0
 2060 0280 E36F     		ldr	r3, [r4, #124]
 2061 0282 1C20     		movs	r0, #28
 2062              	.LVL235:
 2063              		.loc 1 620 5 is_stmt 0 discriminator 1 view .LVU703
 2064 0284 FFF7FEFF 		bl	coap_serialize_int_option
 2065              	.LVL236:
 2066              		.loc 1 620 5 discriminator 1 view .LVU704
 2067 0288 0544     		add	r5, r5, r0
 2068              	.LVL237:
 2069              		.loc 1 620 5 is_stmt 1 discriminator 1 view .LVU705
 2070              		.loc 1 620 5 is_stmt 0 discriminator 1 view .LVU706
 2071 028a 1C20     		movs	r0, #28
 2072              	.LVL238:
 2073              	.L168:
 621:C:/Users/²Ü¼ÒºÀ/.iotlink/sdk/IoT_LINK/iot_link/network/lwm2m/wakaama_lwm2m/wakaama-master/core/er-coap-13\er-coap-13.c ****     COAP_SERIALIZE_STRING_OPTION( COAP_OPTION_PROXY_URI,      proxy_uri, '\0', "Proxy-Uri")
 2074              		.loc 1 621 5 is_stmt 1 view .LVU707
 2075 028c A37B     		ldrb	r3, [r4, #14]	@ zero_extendqisi2
 2076 028e 1B07     		lsls	r3, r3, #28
 2077 0290 08D5     		bpl	.L169
 2078              		.loc 1 621 5 discriminator 1 view .LVU708
 2079              		.loc 1 621 5 discriminator 1 view .LVU709
 2080              	.LVL239:
 2081              	.LBB91:
 2082              	.LBI91:
 208:C:/Users/²Ü¼ÒºÀ/.iotlink/sdk/IoT_LINK/iot_link/network/lwm2m/wakaama_lwm2m/wakaama-master/core/er-coap-13\er-coap-13.c **** {
 2083              		.loc 1 208 1 discriminator 1 view .LVU710
 2084              	.LBB92:
 210:C:/Users/²Ü¼ÒºÀ/.iotlink/sdk/IoT_LINK/iot_link/network/lwm2m/wakaama_lwm2m/wakaama-master/core/er-coap-13\er-coap-13.c **** 
 2085              		.loc 1 210 5 discriminator 1 view .LVU711
 212:C:/Users/²Ü¼ÒºÀ/.iotlink/sdk/IoT_LINK/iot_link/network/lwm2m/wakaama_lwm2m/wakaama-master/core/er-coap-13\er-coap-13.c ****     {
 2086              		.loc 1 212 5 discriminator 1 view .LVU712
 2087 0292 A369     		ldr	r3, [r4, #24]
 2088 0294 0093     		str	r3, [sp]
 2089              	.LVL240:
 212:C:/Users/²Ü¼ÒºÀ/.iotlink/sdk/IoT_LINK/iot_link/network/lwm2m/wakaama_lwm2m/wakaama-master/core/er-coap-13\er-coap-13.c ****     {
 2090              		.loc 1 212 5 is_stmt 0 discriminator 1 view .LVU713
 2091 0296 2A46     		mov	r2, r5
 2092 0298 0146     		mov	r1, r0
 2093 029a E369     		ldr	r3, [r4, #28]
 2094              	.LVL241:
 212:C:/Users/²Ü¼ÒºÀ/.iotlink/sdk/IoT_LINK/iot_link/network/lwm2m/wakaama_lwm2m/wakaama-master/core/er-coap-13\er-coap-13.c ****     {
 2095              		.loc 1 212 5 discriminator 1 view .LVU714
 2096 029c 2320     		movs	r0, #35
 2097              	.LVL242:
 212:C:/Users/²Ü¼ÒºÀ/.iotlink/sdk/IoT_LINK/iot_link/network/lwm2m/wakaama_lwm2m/wakaama-master/core/er-coap-13\er-coap-13.c ****     {
 2098              		.loc 1 212 5 discriminator 1 view .LVU715
 2099 029e FFF7FEFF 		bl	coap_serialize_array_option.part.0
 2100              	.LVL243:
 244:C:/Users/²Ü¼ÒºÀ/.iotlink/sdk/IoT_LINK/iot_link/network/lwm2m/wakaama_lwm2m/wakaama-master/core/er-coap-13\er-coap-13.c ****     }
 2101              		.loc 1 244 94 is_stmt 1 discriminator 1 view .LVU716
ARM GAS  C:\Users\²Ü¼ÒºÀ\AppData\Local\Temp\cczrlpTg.s 			page 53


 247:C:/Users/²Ü¼ÒºÀ/.iotlink/sdk/IoT_LINK/iot_link/network/lwm2m/wakaama_lwm2m/wakaama-master/core/er-coap-13\er-coap-13.c **** }
 2102              		.loc 1 247 5 discriminator 1 view .LVU717
 247:C:/Users/²Ü¼ÒºÀ/.iotlink/sdk/IoT_LINK/iot_link/network/lwm2m/wakaama_lwm2m/wakaama-master/core/er-coap-13\er-coap-13.c **** }
 2103              		.loc 1 247 5 is_stmt 0 discriminator 1 view .LVU718
 2104              	.LBE92:
 2105              	.LBE91:
 2106              		.loc 1 621 5 discriminator 1 view .LVU719
 2107 02a2 0544     		add	r5, r5, r0
 2108              	.LVL244:
 2109              		.loc 1 621 5 is_stmt 1 discriminator 1 view .LVU720
 2110              	.L169:
 622:C:/Users/²Ü¼ÒºÀ/.iotlink/sdk/IoT_LINK/iot_link/network/lwm2m/wakaama_lwm2m/wakaama-master/core/er-coap-13\er-coap-13.c **** 
 623:C:/Users/²Ü¼ÒºÀ/.iotlink/sdk/IoT_LINK/iot_link/network/lwm2m/wakaama_lwm2m/wakaama-master/core/er-coap-13\er-coap-13.c ****     PRINTF("-Done serializing at %p----\n", option);
 2111              		.loc 1 623 52 view .LVU721
 624:C:/Users/²Ü¼ÒºÀ/.iotlink/sdk/IoT_LINK/iot_link/network/lwm2m/wakaama_lwm2m/wakaama-master/core/er-coap-13\er-coap-13.c **** 
 625:C:/Users/²Ü¼ÒºÀ/.iotlink/sdk/IoT_LINK/iot_link/network/lwm2m/wakaama_lwm2m/wakaama-master/core/er-coap-13\er-coap-13.c ****     /* Free allocated header fields */
 626:C:/Users/²Ü¼ÒºÀ/.iotlink/sdk/IoT_LINK/iot_link/network/lwm2m/wakaama_lwm2m/wakaama-master/core/er-coap-13\er-coap-13.c ****     coap_free_header(packet);
 2112              		.loc 1 626 5 view .LVU722
 2113 02a4 2046     		mov	r0, r4
 2114 02a6 FFF7FEFF 		bl	coap_free_header
 2115              	.LVL245:
 627:C:/Users/²Ü¼ÒºÀ/.iotlink/sdk/IoT_LINK/iot_link/network/lwm2m/wakaama_lwm2m/wakaama-master/core/er-coap-13\er-coap-13.c **** 
 628:C:/Users/²Ü¼ÒºÀ/.iotlink/sdk/IoT_LINK/iot_link/network/lwm2m/wakaama_lwm2m/wakaama-master/core/er-coap-13\er-coap-13.c ****     /* Pack payload */
 629:C:/Users/²Ü¼ÒºÀ/.iotlink/sdk/IoT_LINK/iot_link/network/lwm2m/wakaama_lwm2m/wakaama-master/core/er-coap-13\er-coap-13.c ****     /* Payload marker */
 630:C:/Users/²Ü¼ÒºÀ/.iotlink/sdk/IoT_LINK/iot_link/network/lwm2m/wakaama_lwm2m/wakaama-master/core/er-coap-13\er-coap-13.c ****     if (coap_pkt->payload_len)
 2116              		.loc 1 630 5 view .LVU723
 2117              		.loc 1 630 8 is_stmt 0 view .LVU724
 2118 02aa B4F88630 		ldrh	r3, [r4, #134]
 2119 02ae 13B1     		cbz	r3, .L170
 631:C:/Users/²Ü¼ÒºÀ/.iotlink/sdk/IoT_LINK/iot_link/network/lwm2m/wakaama_lwm2m/wakaama-master/core/er-coap-13\er-coap-13.c ****     {
 632:C:/Users/²Ü¼ÒºÀ/.iotlink/sdk/IoT_LINK/iot_link/network/lwm2m/wakaama_lwm2m/wakaama-master/core/er-coap-13\er-coap-13.c ****         *option = 0xFF;
 2120              		.loc 1 632 9 is_stmt 1 view .LVU725
 2121              		.loc 1 632 17 is_stmt 0 view .LVU726
 2122 02b0 FF23     		movs	r3, #255
 2123 02b2 05F8013B 		strb	r3, [r5], #1
 2124              	.LVL246:
 633:C:/Users/²Ü¼ÒºÀ/.iotlink/sdk/IoT_LINK/iot_link/network/lwm2m/wakaama_lwm2m/wakaama-master/core/er-coap-13\er-coap-13.c ****         ++option;
 2125              		.loc 1 633 9 is_stmt 1 view .LVU727
 2126              	.L170:
 634:C:/Users/²Ü¼ÒºÀ/.iotlink/sdk/IoT_LINK/iot_link/network/lwm2m/wakaama_lwm2m/wakaama-master/core/er-coap-13\er-coap-13.c ****     }
 635:C:/Users/²Ü¼ÒºÀ/.iotlink/sdk/IoT_LINK/iot_link/network/lwm2m/wakaama_lwm2m/wakaama-master/core/er-coap-13\er-coap-13.c **** 
 636:C:/Users/²Ü¼ÒºÀ/.iotlink/sdk/IoT_LINK/iot_link/network/lwm2m/wakaama_lwm2m/wakaama-master/core/er-coap-13\er-coap-13.c ****     memmove(option, coap_pkt->payload, coap_pkt->payload_len);
 2127              		.loc 1 636 5 view .LVU728
 2128 02b6 B4F88620 		ldrh	r2, [r4, #134]
 2129 02ba D4F88810 		ldr	r1, [r4, #136]
 2130 02be 2846     		mov	r0, r5
 2131 02c0 FFF7FEFF 		bl	memmove
 2132              	.LVL247:
 637:C:/Users/²Ü¼ÒºÀ/.iotlink/sdk/IoT_LINK/iot_link/network/lwm2m/wakaama_lwm2m/wakaama-master/core/er-coap-13\er-coap-13.c **** 
 638:C:/Users/²Ü¼ÒºÀ/.iotlink/sdk/IoT_LINK/iot_link/network/lwm2m/wakaama_lwm2m/wakaama-master/core/er-coap-13\er-coap-13.c ****     PRINTF("-Done %u B (header len %u, payload len %u)-\n", coap_pkt->payload_len + option - buffer
 2133              		.loc 1 638 141 view .LVU729
 639:C:/Users/²Ü¼ÒºÀ/.iotlink/sdk/IoT_LINK/iot_link/network/lwm2m/wakaama_lwm2m/wakaama-master/core/er-coap-13\er-coap-13.c **** 
 640:C:/Users/²Ü¼ÒºÀ/.iotlink/sdk/IoT_LINK/iot_link/network/lwm2m/wakaama_lwm2m/wakaama-master/core/er-coap-13\er-coap-13.c ****     PRINTF("Dump [0x%02X %02X %02X %02X  %02X %02X %02X %02X]\n",
 641:C:/Users/²Ü¼ÒºÀ/.iotlink/sdk/IoT_LINK/iot_link/network/lwm2m/wakaama_lwm2m/wakaama-master/core/er-coap-13\er-coap-13.c ****            coap_pkt->buffer[0],
 642:C:/Users/²Ü¼ÒºÀ/.iotlink/sdk/IoT_LINK/iot_link/network/lwm2m/wakaama_lwm2m/wakaama-master/core/er-coap-13\er-coap-13.c ****            coap_pkt->buffer[1],
 643:C:/Users/²Ü¼ÒºÀ/.iotlink/sdk/IoT_LINK/iot_link/network/lwm2m/wakaama_lwm2m/wakaama-master/core/er-coap-13\er-coap-13.c ****            coap_pkt->buffer[2],
 644:C:/Users/²Ü¼ÒºÀ/.iotlink/sdk/IoT_LINK/iot_link/network/lwm2m/wakaama_lwm2m/wakaama-master/core/er-coap-13\er-coap-13.c ****            coap_pkt->buffer[3],
ARM GAS  C:\Users\²Ü¼ÒºÀ\AppData\Local\Temp\cczrlpTg.s 			page 54


 645:C:/Users/²Ü¼ÒºÀ/.iotlink/sdk/IoT_LINK/iot_link/network/lwm2m/wakaama_lwm2m/wakaama-master/core/er-coap-13\er-coap-13.c ****            coap_pkt->buffer[4],
 646:C:/Users/²Ü¼ÒºÀ/.iotlink/sdk/IoT_LINK/iot_link/network/lwm2m/wakaama_lwm2m/wakaama-master/core/er-coap-13\er-coap-13.c ****            coap_pkt->buffer[5],
 647:C:/Users/²Ü¼ÒºÀ/.iotlink/sdk/IoT_LINK/iot_link/network/lwm2m/wakaama_lwm2m/wakaama-master/core/er-coap-13\er-coap-13.c ****            coap_pkt->buffer[6],
 648:C:/Users/²Ü¼ÒºÀ/.iotlink/sdk/IoT_LINK/iot_link/network/lwm2m/wakaama_lwm2m/wakaama-master/core/er-coap-13\er-coap-13.c ****            coap_pkt->buffer[7]
 649:C:/Users/²Ü¼ÒºÀ/.iotlink/sdk/IoT_LINK/iot_link/network/lwm2m/wakaama_lwm2m/wakaama-master/core/er-coap-13\er-coap-13.c ****           );
 2134              		.loc 1 649 12 view .LVU730
 650:C:/Users/²Ü¼ÒºÀ/.iotlink/sdk/IoT_LINK/iot_link/network/lwm2m/wakaama_lwm2m/wakaama-master/core/er-coap-13\er-coap-13.c **** 
 651:C:/Users/²Ü¼ÒºÀ/.iotlink/sdk/IoT_LINK/iot_link/network/lwm2m/wakaama_lwm2m/wakaama-master/core/er-coap-13\er-coap-13.c ****     return (option - buffer) + coap_pkt->payload_len; /* packet length */
 2135              		.loc 1 651 5 view .LVU731
 2136              		.loc 1 651 40 is_stmt 0 view .LVU732
 2137 02c4 B4F88600 		ldrh	r0, [r4, #134]
 2138              		.loc 1 651 20 view .LVU733
 2139 02c8 ED1B     		subs	r5, r5, r7
 2140              	.LVL248:
 652:C:/Users/²Ü¼ÒºÀ/.iotlink/sdk/IoT_LINK/iot_link/network/lwm2m/wakaama_lwm2m/wakaama-master/core/er-coap-13\er-coap-13.c **** }
 2141              		.loc 1 652 1 view .LVU734
 2142 02ca 2844     		add	r0, r0, r5
 2143 02cc 05B0     		add	sp, sp, #20
 2144              	.LCFI16:
 2145              		.cfi_remember_state
 2146              		.cfi_def_cfa_offset 36
 2147              		@ sp needed
 2148 02ce BDE8F08F 		pop	{r4, r5, r6, r7, r8, r9, r10, fp, pc}
 2149              	.LVL249:
 2150              	.L141:
 2151              	.LCFI17:
 2152              		.cfi_restore_state
 593:C:/Users/²Ü¼ÒºÀ/.iotlink/sdk/IoT_LINK/iot_link/network/lwm2m/wakaama_lwm2m/wakaama-master/core/er-coap-13\er-coap-13.c ****         *option = coap_pkt->token[current_number];
 2153              		.loc 1 593 57 is_stmt 1 discriminator 3 view .LVU735
 594:C:/Users/²Ü¼ÒºÀ/.iotlink/sdk/IoT_LINK/iot_link/network/lwm2m/wakaama_lwm2m/wakaama-master/core/er-coap-13\er-coap-13.c ****         ++option;
 2154              		.loc 1 594 9 discriminator 3 view .LVU736
 594:C:/Users/²Ü¼ÒºÀ/.iotlink/sdk/IoT_LINK/iot_link/network/lwm2m/wakaama_lwm2m/wakaama-master/core/er-coap-13\er-coap-13.c ****         ++option;
 2155              		.loc 1 594 34 is_stmt 0 discriminator 3 view .LVU737
 2156 02d2 12F8011B 		ldrb	r1, [r2], #1	@ zero_extendqisi2
 594:C:/Users/²Ü¼ÒºÀ/.iotlink/sdk/IoT_LINK/iot_link/network/lwm2m/wakaama_lwm2m/wakaama-master/core/er-coap-13\er-coap-13.c ****         ++option;
 2157              		.loc 1 594 17 discriminator 3 view .LVU738
 2158 02d6 05F8011B 		strb	r1, [r5], #1
 2159              	.LVL250:
 595:C:/Users/²Ü¼ÒºÀ/.iotlink/sdk/IoT_LINK/iot_link/network/lwm2m/wakaama_lwm2m/wakaama-master/core/er-coap-13\er-coap-13.c ****     }
 2160              		.loc 1 595 9 is_stmt 1 discriminator 3 view .LVU739
 591:C:/Users/²Ü¼ÒºÀ/.iotlink/sdk/IoT_LINK/iot_link/network/lwm2m/wakaama_lwm2m/wakaama-master/core/er-coap-13\er-coap-13.c ****     {
 2161              		.loc 1 591 68 discriminator 3 view .LVU740
 2162 02da C4E6     		b	.L140
 2163              	.LVL251:
 2164              	.L155:
 2165              	.LBB93:
 616:C:/Users/²Ü¼ÒºÀ/.iotlink/sdk/IoT_LINK/iot_link/network/lwm2m/wakaama_lwm2m/wakaama-master/core/er-coap-13\er-coap-13.c ****     COAP_SERIALIZE_STRING_OPTION( COAP_OPTION_LOCATION_QUERY, location_query, '&', "Location-Query"
 2166              		.loc 1 616 5 discriminator 4 view .LVU741
 616:C:/Users/²Ü¼ÒºÀ/.iotlink/sdk/IoT_LINK/iot_link/network/lwm2m/wakaama_lwm2m/wakaama-master/core/er-coap-13\er-coap-13.c ****     COAP_SERIALIZE_STRING_OPTION( COAP_OPTION_LOCATION_QUERY, location_query, '&', "Location-Query"
 2167              		.loc 1 616 5 discriminator 4 view .LVU742
 2168 02dc 2A46     		mov	r2, r5
 2169 02de 0146     		mov	r1, r0
 2170 02e0 38F8023B 		ldrh	r3, [r8], #2
 2171 02e4 1120     		movs	r0, #17
 2172              	.LVL252:
 616:C:/Users/²Ü¼ÒºÀ/.iotlink/sdk/IoT_LINK/iot_link/network/lwm2m/wakaama_lwm2m/wakaama-master/core/er-coap-13\er-coap-13.c ****     COAP_SERIALIZE_STRING_OPTION( COAP_OPTION_LOCATION_QUERY, location_query, '&', "Location-Query"
 2173              		.loc 1 616 5 is_stmt 0 discriminator 4 view .LVU743
ARM GAS  C:\Users\²Ü¼ÒºÀ\AppData\Local\Temp\cczrlpTg.s 			page 55


 2174 02e6 FFF7FEFF 		bl	coap_serialize_int_option
 2175              	.LVL253:
 616:C:/Users/²Ü¼ÒºÀ/.iotlink/sdk/IoT_LINK/iot_link/network/lwm2m/wakaama_lwm2m/wakaama-master/core/er-coap-13\er-coap-13.c ****     COAP_SERIALIZE_STRING_OPTION( COAP_OPTION_LOCATION_QUERY, location_query, '&', "Location-Query"
 2176              		.loc 1 616 5 discriminator 4 view .LVU744
 2177 02ea 0136     		adds	r6, r6, #1
 2178              	.LVL254:
 616:C:/Users/²Ü¼ÒºÀ/.iotlink/sdk/IoT_LINK/iot_link/network/lwm2m/wakaama_lwm2m/wakaama-master/core/er-coap-13\er-coap-13.c ****     COAP_SERIALIZE_STRING_OPTION( COAP_OPTION_LOCATION_QUERY, location_query, '&', "Location-Query"
 2179              		.loc 1 616 5 discriminator 4 view .LVU745
 2180 02ec 0544     		add	r5, r5, r0
 2181              	.LVL255:
 616:C:/Users/²Ü¼ÒºÀ/.iotlink/sdk/IoT_LINK/iot_link/network/lwm2m/wakaama_lwm2m/wakaama-master/core/er-coap-13\er-coap-13.c ****     COAP_SERIALIZE_STRING_OPTION( COAP_OPTION_LOCATION_QUERY, location_query, '&', "Location-Query"
 2182              		.loc 1 616 5 is_stmt 1 discriminator 4 view .LVU746
 616:C:/Users/²Ü¼ÒºÀ/.iotlink/sdk/IoT_LINK/iot_link/network/lwm2m/wakaama_lwm2m/wakaama-master/core/er-coap-13\er-coap-13.c ****     COAP_SERIALIZE_STRING_OPTION( COAP_OPTION_LOCATION_QUERY, location_query, '&', "Location-Query"
 2183              		.loc 1 616 5 discriminator 4 view .LVU747
 616:C:/Users/²Ü¼ÒºÀ/.iotlink/sdk/IoT_LINK/iot_link/network/lwm2m/wakaama_lwm2m/wakaama-master/core/er-coap-13\er-coap-13.c ****     COAP_SERIALIZE_STRING_OPTION( COAP_OPTION_LOCATION_QUERY, location_query, '&', "Location-Query"
 2184              		.loc 1 616 5 is_stmt 0 discriminator 4 view .LVU748
 2185 02ee 1120     		movs	r0, #17
 2186 02f0 4CE7     		b	.L154
 2187              	.LBE93:
 2188              		.cfi_endproc
 2189              	.LFE20:
 2191              		.section	.rodata.coap_parse_message.str1.1,"aMS",%progbits,1
 2192              	.LC0:
 2193 0000 436F4150 		.ascii	"CoAP version must be 1\000"
 2193      20766572 
 2193      73696F6E 
 2193      206D7573 
 2193      74206265 
 2194              	.LC1:
 2195 0017 54686973 		.ascii	"This is a constrained server (Contiki)\000"
 2195      20697320 
 2195      6120636F 
 2195      6E737472 
 2195      61696E65 
 2196              	.LC2:
 2197 003e 556E7375 		.ascii	"Unsupported critical option\000"
 2197      70706F72 
 2197      74656420 
 2197      63726974 
 2197      6963616C 
 2198              		.section	.text.coap_parse_message,"ax",%progbits
 2199              		.align	1
 2200              		.global	coap_parse_message
 2201              		.syntax unified
 2202              		.thumb
 2203              		.thumb_func
 2204              		.fpu fpv4-sp-d16
 2206              	coap_parse_message:
 2207              	.LVL256:
 2208              	.LFB21:
 653:C:/Users/²Ü¼ÒºÀ/.iotlink/sdk/IoT_LINK/iot_link/network/lwm2m/wakaama_lwm2m/wakaama-master/core/er-coap-13\er-coap-13.c **** /*-----------------------------------------------------------------------------------*/
 654:C:/Users/²Ü¼ÒºÀ/.iotlink/sdk/IoT_LINK/iot_link/network/lwm2m/wakaama_lwm2m/wakaama-master/core/er-coap-13\er-coap-13.c **** coap_status_t
 655:C:/Users/²Ü¼ÒºÀ/.iotlink/sdk/IoT_LINK/iot_link/network/lwm2m/wakaama_lwm2m/wakaama-master/core/er-coap-13\er-coap-13.c **** coap_parse_message(void *packet, uint8_t *data, uint16_t data_len)
 656:C:/Users/²Ü¼ÒºÀ/.iotlink/sdk/IoT_LINK/iot_link/network/lwm2m/wakaama_lwm2m/wakaama-master/core/er-coap-13\er-coap-13.c **** {
 2209              		.loc 1 656 1 is_stmt 1 view -0
 2210              		.cfi_startproc
 2211              		@ args = 0, pretend = 0, frame = 16
ARM GAS  C:\Users\²Ü¼ÒºÀ\AppData\Local\Temp\cczrlpTg.s 			page 56


 2212              		@ frame_needed = 0, uses_anonymous_args = 0
 657:C:/Users/²Ü¼ÒºÀ/.iotlink/sdk/IoT_LINK/iot_link/network/lwm2m/wakaama_lwm2m/wakaama-master/core/er-coap-13\er-coap-13.c ****     coap_packet_t *const coap_pkt = (coap_packet_t *) packet;
 2213              		.loc 1 657 5 view .LVU750
 658:C:/Users/²Ü¼ÒºÀ/.iotlink/sdk/IoT_LINK/iot_link/network/lwm2m/wakaama_lwm2m/wakaama-master/core/er-coap-13\er-coap-13.c ****     uint8_t *current_option;
 2214              		.loc 1 658 5 view .LVU751
 659:C:/Users/²Ü¼ÒºÀ/.iotlink/sdk/IoT_LINK/iot_link/network/lwm2m/wakaama_lwm2m/wakaama-master/core/er-coap-13\er-coap-13.c ****     unsigned int option_number = 0;
 2215              		.loc 1 659 5 view .LVU752
 660:C:/Users/²Ü¼ÒºÀ/.iotlink/sdk/IoT_LINK/iot_link/network/lwm2m/wakaama_lwm2m/wakaama-master/core/er-coap-13\er-coap-13.c ****     unsigned int option_delta = 0;
 2216              		.loc 1 660 5 view .LVU753
 656:C:/Users/²Ü¼ÒºÀ/.iotlink/sdk/IoT_LINK/iot_link/network/lwm2m/wakaama_lwm2m/wakaama-master/core/er-coap-13\er-coap-13.c ****     coap_packet_t *const coap_pkt = (coap_packet_t *) packet;
 2217              		.loc 1 656 1 is_stmt 0 view .LVU754
 2218 0000 2DE9FF47 		push	{r0, r1, r2, r3, r4, r5, r6, r7, r8, r9, r10, lr}
 2219              	.LCFI18:
 2220              		.cfi_def_cfa_offset 48
 2221              		.cfi_offset 4, -32
 2222              		.cfi_offset 5, -28
 2223              		.cfi_offset 6, -24
 2224              		.cfi_offset 7, -20
 2225              		.cfi_offset 8, -16
 2226              		.cfi_offset 9, -12
 2227              		.cfi_offset 10, -8
 2228              		.cfi_offset 14, -4
 656:C:/Users/²Ü¼ÒºÀ/.iotlink/sdk/IoT_LINK/iot_link/network/lwm2m/wakaama_lwm2m/wakaama-master/core/er-coap-13\er-coap-13.c ****     coap_packet_t *const coap_pkt = (coap_packet_t *) packet;
 2229              		.loc 1 656 1 view .LVU755
 2230 0004 0446     		mov	r4, r0
 2231 0006 0D46     		mov	r5, r1
 2232 0008 9046     		mov	r8, r2
 2233              		.loc 1 660 18 view .LVU756
 2234 000a 0021     		movs	r1, #0
 2235              	.LVL257:
 661:C:/Users/²Ü¼ÒºÀ/.iotlink/sdk/IoT_LINK/iot_link/network/lwm2m/wakaama_lwm2m/wakaama-master/core/er-coap-13\er-coap-13.c ****     size_t option_length = 0;
 662:C:/Users/²Ü¼ÒºÀ/.iotlink/sdk/IoT_LINK/iot_link/network/lwm2m/wakaama_lwm2m/wakaama-master/core/er-coap-13\er-coap-13.c ****     unsigned int *x;
 663:C:/Users/²Ü¼ÒºÀ/.iotlink/sdk/IoT_LINK/iot_link/network/lwm2m/wakaama_lwm2m/wakaama-master/core/er-coap-13\er-coap-13.c **** 
 664:C:/Users/²Ü¼ÒºÀ/.iotlink/sdk/IoT_LINK/iot_link/network/lwm2m/wakaama_lwm2m/wakaama-master/core/er-coap-13\er-coap-13.c ****     /* Initialize packet */
 665:C:/Users/²Ü¼ÒºÀ/.iotlink/sdk/IoT_LINK/iot_link/network/lwm2m/wakaama_lwm2m/wakaama-master/core/er-coap-13\er-coap-13.c ****     memset(coap_pkt, 0, sizeof(coap_packet_t));
 2236              		.loc 1 665 5 view .LVU757
 2237 000c 8822     		movs	r2, #136
 2238              	.LVL258:
 2239              		.loc 1 665 5 view .LVU758
 2240 000e 0430     		adds	r0, r0, #4
 2241              	.LVL259:
 661:C:/Users/²Ü¼ÒºÀ/.iotlink/sdk/IoT_LINK/iot_link/network/lwm2m/wakaama_lwm2m/wakaama-master/core/er-coap-13\er-coap-13.c ****     size_t option_length = 0;
 2242              		.loc 1 661 12 view .LVU759
 2243 0010 CDE90211 		strd	r1, r1, [sp, #8]
 662:C:/Users/²Ü¼ÒºÀ/.iotlink/sdk/IoT_LINK/iot_link/network/lwm2m/wakaama_lwm2m/wakaama-master/core/er-coap-13\er-coap-13.c **** 
 2244              		.loc 1 662 5 is_stmt 1 view .LVU760
 2245              		.loc 1 665 5 view .LVU761
 2246 0014 FFF7FEFF 		bl	memset
 2247              	.LVL260:
 666:C:/Users/²Ü¼ÒºÀ/.iotlink/sdk/IoT_LINK/iot_link/network/lwm2m/wakaama_lwm2m/wakaama-master/core/er-coap-13\er-coap-13.c **** 
 667:C:/Users/²Ü¼ÒºÀ/.iotlink/sdk/IoT_LINK/iot_link/network/lwm2m/wakaama_lwm2m/wakaama-master/core/er-coap-13\er-coap-13.c ****     /* pointer to packet bytes */
 668:C:/Users/²Ü¼ÒºÀ/.iotlink/sdk/IoT_LINK/iot_link/network/lwm2m/wakaama_lwm2m/wakaama-master/core/er-coap-13\er-coap-13.c ****     coap_pkt->buffer = data;
 2248              		.loc 1 668 5 view .LVU762
 2249              		.loc 1 668 22 is_stmt 0 view .LVU763
 2250 0018 2560     		str	r5, [r4]
 669:C:/Users/²Ü¼ÒºÀ/.iotlink/sdk/IoT_LINK/iot_link/network/lwm2m/wakaama_lwm2m/wakaama-master/core/er-coap-13\er-coap-13.c **** 
 670:C:/Users/²Ü¼ÒºÀ/.iotlink/sdk/IoT_LINK/iot_link/network/lwm2m/wakaama_lwm2m/wakaama-master/core/er-coap-13\er-coap-13.c ****     /* parse header fields */
ARM GAS  C:\Users\²Ü¼ÒºÀ\AppData\Local\Temp\cczrlpTg.s 			page 57


 671:C:/Users/²Ü¼ÒºÀ/.iotlink/sdk/IoT_LINK/iot_link/network/lwm2m/wakaama_lwm2m/wakaama-master/core/er-coap-13\er-coap-13.c ****     coap_pkt->version = (COAP_HEADER_VERSION_MASK & coap_pkt->buffer[0]) >> COAP_HEADER_VERSION_POS
 2251              		.loc 1 671 5 is_stmt 1 view .LVU764
 2252              		.loc 1 671 23 is_stmt 0 view .LVU765
 2253 001a 2978     		ldrb	r1, [r5]	@ zero_extendqisi2
 2254 001c 8909     		lsrs	r1, r1, #6
 2255 001e 2171     		strb	r1, [r4, #4]
 672:C:/Users/²Ü¼ÒºÀ/.iotlink/sdk/IoT_LINK/iot_link/network/lwm2m/wakaama_lwm2m/wakaama-master/core/er-coap-13\er-coap-13.c ****     coap_pkt->type = (coap_message_type_t)((COAP_HEADER_TYPE_MASK & coap_pkt->buffer[0]) >> COAP_HE
 2256              		.loc 1 672 5 is_stmt 1 view .LVU766
 2257              		.loc 1 672 22 is_stmt 0 view .LVU767
 2258 0020 2B78     		ldrb	r3, [r5]	@ zero_extendqisi2
 2259              		.loc 1 672 20 view .LVU768
 2260 0022 C3F30113 		ubfx	r3, r3, #4, #2
 2261 0026 6371     		strb	r3, [r4, #5]
 673:C:/Users/²Ü¼ÒºÀ/.iotlink/sdk/IoT_LINK/iot_link/network/lwm2m/wakaama_lwm2m/wakaama-master/core/er-coap-13\er-coap-13.c ****     coap_pkt->token_len = MIN(COAP_TOKEN_LEN, (COAP_HEADER_TOKEN_LEN_MASK & coap_pkt->buffer[0]) >>
 2262              		.loc 1 673 5 is_stmt 1 view .LVU769
 2263 0028 2B78     		ldrb	r3, [r5]	@ zero_extendqisi2
 2264 002a 03F00F03 		and	r3, r3, #15
 2265              		.loc 1 673 27 is_stmt 0 view .LVU770
 2266 002e 082B     		cmp	r3, #8
 2267 0030 1E46     		mov	r6, r3
 2268 0032 A8BF     		it	ge
 2269 0034 0826     		movge	r6, #8
 2270              		.loc 1 673 25 view .LVU771
 2271 0036 84F84C60 		strb	r6, [r4, #76]
 674:C:/Users/²Ü¼ÒºÀ/.iotlink/sdk/IoT_LINK/iot_link/network/lwm2m/wakaama_lwm2m/wakaama-master/core/er-coap-13\er-coap-13.c ****     coap_pkt->code = coap_pkt->buffer[1];
 2272              		.loc 1 674 5 is_stmt 1 view .LVU772
 2273              		.loc 1 674 20 is_stmt 0 view .LVU773
 2274 003a 6A78     		ldrb	r2, [r5, #1]	@ zero_extendqisi2
 2275 003c A271     		strb	r2, [r4, #6]
 675:C:/Users/²Ü¼ÒºÀ/.iotlink/sdk/IoT_LINK/iot_link/network/lwm2m/wakaama_lwm2m/wakaama-master/core/er-coap-13\er-coap-13.c ****     coap_pkt->mid = coap_pkt->buffer[2] << 8 | coap_pkt->buffer[3];
 2276              		.loc 1 675 5 is_stmt 1 view .LVU774
 2277              		.loc 1 675 37 is_stmt 0 view .LVU775
 2278 003e A878     		ldrb	r0, [r5, #2]	@ zero_extendqisi2
 2279              		.loc 1 675 64 view .LVU776
 2280 0040 EA78     		ldrb	r2, [r5, #3]	@ zero_extendqisi2
 676:C:/Users/²Ü¼ÒºÀ/.iotlink/sdk/IoT_LINK/iot_link/network/lwm2m/wakaama_lwm2m/wakaama-master/core/er-coap-13\er-coap-13.c **** 
 677:C:/Users/²Ü¼ÒºÀ/.iotlink/sdk/IoT_LINK/iot_link/network/lwm2m/wakaama_lwm2m/wakaama-master/core/er-coap-13\er-coap-13.c ****     if (coap_pkt->version != 1)
 2281              		.loc 1 677 8 view .LVU777
 2282 0042 0129     		cmp	r1, #1
 675:C:/Users/²Ü¼ÒºÀ/.iotlink/sdk/IoT_LINK/iot_link/network/lwm2m/wakaama_lwm2m/wakaama-master/core/er-coap-13\er-coap-13.c ****     coap_pkt->mid = coap_pkt->buffer[2] << 8 | coap_pkt->buffer[3];
 2283              		.loc 1 675 46 view .LVU778
 2284 0044 42EA0022 		orr	r2, r2, r0, lsl #8
 675:C:/Users/²Ü¼ÒºÀ/.iotlink/sdk/IoT_LINK/iot_link/network/lwm2m/wakaama_lwm2m/wakaama-master/core/er-coap-13\er-coap-13.c ****     coap_pkt->mid = coap_pkt->buffer[2] << 8 | coap_pkt->buffer[3];
 2285              		.loc 1 675 19 view .LVU779
 2286 0048 2281     		strh	r2, [r4, #8]	@ movhi
 2287              		.loc 1 677 5 is_stmt 1 view .LVU780
 2288              		.loc 1 677 8 is_stmt 0 view .LVU781
 2289 004a 04D0     		beq	.L227
 678:C:/Users/²Ü¼ÒºÀ/.iotlink/sdk/IoT_LINK/iot_link/network/lwm2m/wakaama_lwm2m/wakaama-master/core/er-coap-13\er-coap-13.c ****     {
 679:C:/Users/²Ü¼ÒºÀ/.iotlink/sdk/IoT_LINK/iot_link/network/lwm2m/wakaama_lwm2m/wakaama-master/core/er-coap-13\er-coap-13.c ****         coap_error_message = "CoAP version must be 1";
 2290              		.loc 1 679 9 is_stmt 1 view .LVU782
 2291              		.loc 1 679 28 is_stmt 0 view .LVU783
 2292 004c 8A4B     		ldr	r3, .L269
 2293 004e 8B4A     		ldr	r2, .L269+4
 2294 0050 1A60     		str	r2, [r3]
 680:C:/Users/²Ü¼ÒºÀ/.iotlink/sdk/IoT_LINK/iot_link/network/lwm2m/wakaama_lwm2m/wakaama-master/core/er-coap-13\er-coap-13.c ****         return BAD_REQUEST_4_00;
 2295              		.loc 1 680 9 is_stmt 1 view .LVU784
ARM GAS  C:\Users\²Ü¼ÒºÀ\AppData\Local\Temp\cczrlpTg.s 			page 58


 2296              	.LVL261:
 2297              	.L258:
 681:C:/Users/²Ü¼ÒºÀ/.iotlink/sdk/IoT_LINK/iot_link/network/lwm2m/wakaama_lwm2m/wakaama-master/core/er-coap-13\er-coap-13.c ****     }
 682:C:/Users/²Ü¼ÒºÀ/.iotlink/sdk/IoT_LINK/iot_link/network/lwm2m/wakaama_lwm2m/wakaama-master/core/er-coap-13\er-coap-13.c **** 
 683:C:/Users/²Ü¼ÒºÀ/.iotlink/sdk/IoT_LINK/iot_link/network/lwm2m/wakaama_lwm2m/wakaama-master/core/er-coap-13\er-coap-13.c ****     current_option = data + COAP_HEADER_LEN;
 684:C:/Users/²Ü¼ÒºÀ/.iotlink/sdk/IoT_LINK/iot_link/network/lwm2m/wakaama_lwm2m/wakaama-master/core/er-coap-13\er-coap-13.c **** 
 685:C:/Users/²Ü¼ÒºÀ/.iotlink/sdk/IoT_LINK/iot_link/network/lwm2m/wakaama_lwm2m/wakaama-master/core/er-coap-13\er-coap-13.c ****     if (coap_pkt->token_len != 0)
 686:C:/Users/²Ü¼ÒºÀ/.iotlink/sdk/IoT_LINK/iot_link/network/lwm2m/wakaama_lwm2m/wakaama-master/core/er-coap-13\er-coap-13.c ****     {
 687:C:/Users/²Ü¼ÒºÀ/.iotlink/sdk/IoT_LINK/iot_link/network/lwm2m/wakaama_lwm2m/wakaama-master/core/er-coap-13\er-coap-13.c ****         memcpy(coap_pkt->token, current_option, coap_pkt->token_len);
 688:C:/Users/²Ü¼ÒºÀ/.iotlink/sdk/IoT_LINK/iot_link/network/lwm2m/wakaama_lwm2m/wakaama-master/core/er-coap-13\er-coap-13.c ****         SET_OPTION(coap_pkt, COAP_OPTION_TOKEN);
 689:C:/Users/²Ü¼ÒºÀ/.iotlink/sdk/IoT_LINK/iot_link/network/lwm2m/wakaama_lwm2m/wakaama-master/core/er-coap-13\er-coap-13.c **** 
 690:C:/Users/²Ü¼ÒºÀ/.iotlink/sdk/IoT_LINK/iot_link/network/lwm2m/wakaama_lwm2m/wakaama-master/core/er-coap-13\er-coap-13.c ****         PRINTF("Token (len %u) [0x%02X%02X%02X%02X%02X%02X%02X%02X]\n", coap_pkt->token_len,
 691:C:/Users/²Ü¼ÒºÀ/.iotlink/sdk/IoT_LINK/iot_link/network/lwm2m/wakaama_lwm2m/wakaama-master/core/er-coap-13\er-coap-13.c ****                coap_pkt->token[0],
 692:C:/Users/²Ü¼ÒºÀ/.iotlink/sdk/IoT_LINK/iot_link/network/lwm2m/wakaama_lwm2m/wakaama-master/core/er-coap-13\er-coap-13.c ****                coap_pkt->token[1],
 693:C:/Users/²Ü¼ÒºÀ/.iotlink/sdk/IoT_LINK/iot_link/network/lwm2m/wakaama_lwm2m/wakaama-master/core/er-coap-13\er-coap-13.c ****                coap_pkt->token[2],
 694:C:/Users/²Ü¼ÒºÀ/.iotlink/sdk/IoT_LINK/iot_link/network/lwm2m/wakaama_lwm2m/wakaama-master/core/er-coap-13\er-coap-13.c ****                coap_pkt->token[3],
 695:C:/Users/²Ü¼ÒºÀ/.iotlink/sdk/IoT_LINK/iot_link/network/lwm2m/wakaama_lwm2m/wakaama-master/core/er-coap-13\er-coap-13.c ****                coap_pkt->token[4],
 696:C:/Users/²Ü¼ÒºÀ/.iotlink/sdk/IoT_LINK/iot_link/network/lwm2m/wakaama_lwm2m/wakaama-master/core/er-coap-13\er-coap-13.c ****                coap_pkt->token[5],
 697:C:/Users/²Ü¼ÒºÀ/.iotlink/sdk/IoT_LINK/iot_link/network/lwm2m/wakaama_lwm2m/wakaama-master/core/er-coap-13\er-coap-13.c ****                coap_pkt->token[6],
 698:C:/Users/²Ü¼ÒºÀ/.iotlink/sdk/IoT_LINK/iot_link/network/lwm2m/wakaama_lwm2m/wakaama-master/core/er-coap-13\er-coap-13.c ****                coap_pkt->token[7]
 699:C:/Users/²Ü¼ÒºÀ/.iotlink/sdk/IoT_LINK/iot_link/network/lwm2m/wakaama_lwm2m/wakaama-master/core/er-coap-13\er-coap-13.c ****               ); /*FIXME always prints 8 bytes */
 700:C:/Users/²Ü¼ÒºÀ/.iotlink/sdk/IoT_LINK/iot_link/network/lwm2m/wakaama_lwm2m/wakaama-master/core/er-coap-13\er-coap-13.c ****     }
 701:C:/Users/²Ü¼ÒºÀ/.iotlink/sdk/IoT_LINK/iot_link/network/lwm2m/wakaama_lwm2m/wakaama-master/core/er-coap-13\er-coap-13.c **** 
 702:C:/Users/²Ü¼ÒºÀ/.iotlink/sdk/IoT_LINK/iot_link/network/lwm2m/wakaama_lwm2m/wakaama-master/core/er-coap-13\er-coap-13.c ****     /* parse options */
 703:C:/Users/²Ü¼ÒºÀ/.iotlink/sdk/IoT_LINK/iot_link/network/lwm2m/wakaama_lwm2m/wakaama-master/core/er-coap-13\er-coap-13.c ****     current_option += coap_pkt->token_len;
 704:C:/Users/²Ü¼ÒºÀ/.iotlink/sdk/IoT_LINK/iot_link/network/lwm2m/wakaama_lwm2m/wakaama-master/core/er-coap-13\er-coap-13.c **** 
 705:C:/Users/²Ü¼ÒºÀ/.iotlink/sdk/IoT_LINK/iot_link/network/lwm2m/wakaama_lwm2m/wakaama-master/core/er-coap-13\er-coap-13.c ****     while (current_option < data + data_len)
 706:C:/Users/²Ü¼ÒºÀ/.iotlink/sdk/IoT_LINK/iot_link/network/lwm2m/wakaama_lwm2m/wakaama-master/core/er-coap-13\er-coap-13.c ****     {
 707:C:/Users/²Ü¼ÒºÀ/.iotlink/sdk/IoT_LINK/iot_link/network/lwm2m/wakaama_lwm2m/wakaama-master/core/er-coap-13\er-coap-13.c ****         /* Payload marker 0xFF, currently only checking for 0xF* because rest is reserved */
 708:C:/Users/²Ü¼ÒºÀ/.iotlink/sdk/IoT_LINK/iot_link/network/lwm2m/wakaama_lwm2m/wakaama-master/core/er-coap-13\er-coap-13.c ****         if ((current_option[0] & 0xF0) == 0xF0)
 709:C:/Users/²Ü¼ÒºÀ/.iotlink/sdk/IoT_LINK/iot_link/network/lwm2m/wakaama_lwm2m/wakaama-master/core/er-coap-13\er-coap-13.c ****         {
 710:C:/Users/²Ü¼ÒºÀ/.iotlink/sdk/IoT_LINK/iot_link/network/lwm2m/wakaama_lwm2m/wakaama-master/core/er-coap-13\er-coap-13.c ****             coap_pkt->payload = ++current_option;
 711:C:/Users/²Ü¼ÒºÀ/.iotlink/sdk/IoT_LINK/iot_link/network/lwm2m/wakaama_lwm2m/wakaama-master/core/er-coap-13\er-coap-13.c ****             coap_pkt->payload_len = data_len - (coap_pkt->payload - data);
 712:C:/Users/²Ü¼ÒºÀ/.iotlink/sdk/IoT_LINK/iot_link/network/lwm2m/wakaama_lwm2m/wakaama-master/core/er-coap-13\er-coap-13.c **** 
 713:C:/Users/²Ü¼ÒºÀ/.iotlink/sdk/IoT_LINK/iot_link/network/lwm2m/wakaama_lwm2m/wakaama-master/core/er-coap-13\er-coap-13.c ****             break;
 714:C:/Users/²Ü¼ÒºÀ/.iotlink/sdk/IoT_LINK/iot_link/network/lwm2m/wakaama_lwm2m/wakaama-master/core/er-coap-13\er-coap-13.c ****         }
 715:C:/Users/²Ü¼ÒºÀ/.iotlink/sdk/IoT_LINK/iot_link/network/lwm2m/wakaama_lwm2m/wakaama-master/core/er-coap-13\er-coap-13.c **** 
 716:C:/Users/²Ü¼ÒºÀ/.iotlink/sdk/IoT_LINK/iot_link/network/lwm2m/wakaama_lwm2m/wakaama-master/core/er-coap-13\er-coap-13.c ****         option_delta = current_option[0] >> 4;
 717:C:/Users/²Ü¼ÒºÀ/.iotlink/sdk/IoT_LINK/iot_link/network/lwm2m/wakaama_lwm2m/wakaama-master/core/er-coap-13\er-coap-13.c ****         option_length = current_option[0] & 0x0F;
 718:C:/Users/²Ü¼ÒºÀ/.iotlink/sdk/IoT_LINK/iot_link/network/lwm2m/wakaama_lwm2m/wakaama-master/core/er-coap-13\er-coap-13.c ****         ++current_option;
 719:C:/Users/²Ü¼ÒºÀ/.iotlink/sdk/IoT_LINK/iot_link/network/lwm2m/wakaama_lwm2m/wakaama-master/core/er-coap-13\er-coap-13.c **** 
 720:C:/Users/²Ü¼ÒºÀ/.iotlink/sdk/IoT_LINK/iot_link/network/lwm2m/wakaama_lwm2m/wakaama-master/core/er-coap-13\er-coap-13.c ****         /* avoids code duplication without function overhead */
 721:C:/Users/²Ü¼ÒºÀ/.iotlink/sdk/IoT_LINK/iot_link/network/lwm2m/wakaama_lwm2m/wakaama-master/core/er-coap-13\er-coap-13.c ****         x = &option_delta;
 722:C:/Users/²Ü¼ÒºÀ/.iotlink/sdk/IoT_LINK/iot_link/network/lwm2m/wakaama_lwm2m/wakaama-master/core/er-coap-13\er-coap-13.c ****         do
 723:C:/Users/²Ü¼ÒºÀ/.iotlink/sdk/IoT_LINK/iot_link/network/lwm2m/wakaama_lwm2m/wakaama-master/core/er-coap-13\er-coap-13.c ****         {
 724:C:/Users/²Ü¼ÒºÀ/.iotlink/sdk/IoT_LINK/iot_link/network/lwm2m/wakaama_lwm2m/wakaama-master/core/er-coap-13\er-coap-13.c ****             if (*x == 13)
 725:C:/Users/²Ü¼ÒºÀ/.iotlink/sdk/IoT_LINK/iot_link/network/lwm2m/wakaama_lwm2m/wakaama-master/core/er-coap-13\er-coap-13.c ****             {
 726:C:/Users/²Ü¼ÒºÀ/.iotlink/sdk/IoT_LINK/iot_link/network/lwm2m/wakaama_lwm2m/wakaama-master/core/er-coap-13\er-coap-13.c ****                 *x += current_option[0];
 727:C:/Users/²Ü¼ÒºÀ/.iotlink/sdk/IoT_LINK/iot_link/network/lwm2m/wakaama_lwm2m/wakaama-master/core/er-coap-13\er-coap-13.c ****                 ++current_option;
 728:C:/Users/²Ü¼ÒºÀ/.iotlink/sdk/IoT_LINK/iot_link/network/lwm2m/wakaama_lwm2m/wakaama-master/core/er-coap-13\er-coap-13.c ****             }
 729:C:/Users/²Ü¼ÒºÀ/.iotlink/sdk/IoT_LINK/iot_link/network/lwm2m/wakaama_lwm2m/wakaama-master/core/er-coap-13\er-coap-13.c ****             else if (*x == 14)
 730:C:/Users/²Ü¼ÒºÀ/.iotlink/sdk/IoT_LINK/iot_link/network/lwm2m/wakaama_lwm2m/wakaama-master/core/er-coap-13\er-coap-13.c ****             {
 731:C:/Users/²Ü¼ÒºÀ/.iotlink/sdk/IoT_LINK/iot_link/network/lwm2m/wakaama_lwm2m/wakaama-master/core/er-coap-13\er-coap-13.c ****                 *x += 255;
 732:C:/Users/²Ü¼ÒºÀ/.iotlink/sdk/IoT_LINK/iot_link/network/lwm2m/wakaama_lwm2m/wakaama-master/core/er-coap-13\er-coap-13.c ****                 *x += current_option[0] << 8;
 733:C:/Users/²Ü¼ÒºÀ/.iotlink/sdk/IoT_LINK/iot_link/network/lwm2m/wakaama_lwm2m/wakaama-master/core/er-coap-13\er-coap-13.c ****                 ++current_option;
 734:C:/Users/²Ü¼ÒºÀ/.iotlink/sdk/IoT_LINK/iot_link/network/lwm2m/wakaama_lwm2m/wakaama-master/core/er-coap-13\er-coap-13.c ****                 *x += current_option[0];
 735:C:/Users/²Ü¼ÒºÀ/.iotlink/sdk/IoT_LINK/iot_link/network/lwm2m/wakaama_lwm2m/wakaama-master/core/er-coap-13\er-coap-13.c ****                 ++current_option;
ARM GAS  C:\Users\²Ü¼ÒºÀ\AppData\Local\Temp\cczrlpTg.s 			page 59


 736:C:/Users/²Ü¼ÒºÀ/.iotlink/sdk/IoT_LINK/iot_link/network/lwm2m/wakaama_lwm2m/wakaama-master/core/er-coap-13\er-coap-13.c ****             }
 737:C:/Users/²Ü¼ÒºÀ/.iotlink/sdk/IoT_LINK/iot_link/network/lwm2m/wakaama_lwm2m/wakaama-master/core/er-coap-13\er-coap-13.c ****         }
 738:C:/Users/²Ü¼ÒºÀ/.iotlink/sdk/IoT_LINK/iot_link/network/lwm2m/wakaama_lwm2m/wakaama-master/core/er-coap-13\er-coap-13.c ****         while (x != (unsigned int *)&option_length && NULL != (x = (unsigned int *)&option_length))
 739:C:/Users/²Ü¼ÒºÀ/.iotlink/sdk/IoT_LINK/iot_link/network/lwm2m/wakaama_lwm2m/wakaama-master/core/er-coap-13\er-coap-13.c **** 
 740:C:/Users/²Ü¼ÒºÀ/.iotlink/sdk/IoT_LINK/iot_link/network/lwm2m/wakaama_lwm2m/wakaama-master/core/er-coap-13\er-coap-13.c ****         option_number += option_delta;
 741:C:/Users/²Ü¼ÒºÀ/.iotlink/sdk/IoT_LINK/iot_link/network/lwm2m/wakaama_lwm2m/wakaama-master/core/er-coap-13\er-coap-13.c **** 
 742:C:/Users/²Ü¼ÒºÀ/.iotlink/sdk/IoT_LINK/iot_link/network/lwm2m/wakaama_lwm2m/wakaama-master/core/er-coap-13\er-coap-13.c ****         if (current_option + option_length > data + data_len)
 743:C:/Users/²Ü¼ÒºÀ/.iotlink/sdk/IoT_LINK/iot_link/network/lwm2m/wakaama_lwm2m/wakaama-master/core/er-coap-13\er-coap-13.c ****         {
 744:C:/Users/²Ü¼ÒºÀ/.iotlink/sdk/IoT_LINK/iot_link/network/lwm2m/wakaama_lwm2m/wakaama-master/core/er-coap-13\er-coap-13.c ****             PRINTF("OPTION %u (delta %u, len %u) has invalid length.\n", option_number, option_delt
 745:C:/Users/²Ü¼ÒºÀ/.iotlink/sdk/IoT_LINK/iot_link/network/lwm2m/wakaama_lwm2m/wakaama-master/core/er-coap-13\er-coap-13.c ****             return BAD_REQUEST_4_00;
 2298              		.loc 1 745 20 is_stmt 0 view .LVU785
 2299 0052 8020     		movs	r0, #128
 2300 0054 D2E0     		b	.L228
 2301              	.LVL262:
 2302              	.L227:
 683:C:/Users/²Ü¼ÒºÀ/.iotlink/sdk/IoT_LINK/iot_link/network/lwm2m/wakaama_lwm2m/wakaama-master/core/er-coap-13\er-coap-13.c **** 
 2303              		.loc 1 683 5 is_stmt 1 view .LVU786
 683:C:/Users/²Ü¼ÒºÀ/.iotlink/sdk/IoT_LINK/iot_link/network/lwm2m/wakaama_lwm2m/wakaama-master/core/er-coap-13\er-coap-13.c **** 
 2304              		.loc 1 683 20 is_stmt 0 view .LVU787
 2305 0056 2F1D     		adds	r7, r5, #4
 2306              	.LVL263:
 685:C:/Users/²Ü¼ÒºÀ/.iotlink/sdk/IoT_LINK/iot_link/network/lwm2m/wakaama_lwm2m/wakaama-master/core/er-coap-13\er-coap-13.c ****     {
 2307              		.loc 1 685 5 is_stmt 1 view .LVU788
 685:C:/Users/²Ü¼ÒºÀ/.iotlink/sdk/IoT_LINK/iot_link/network/lwm2m/wakaama_lwm2m/wakaama-master/core/er-coap-13\er-coap-13.c ****     {
 2308              		.loc 1 685 8 is_stmt 0 view .LVU789
 2309 0058 3BB1     		cbz	r3, .L229
 687:C:/Users/²Ü¼ÒºÀ/.iotlink/sdk/IoT_LINK/iot_link/network/lwm2m/wakaama_lwm2m/wakaama-master/core/er-coap-13\er-coap-13.c ****         SET_OPTION(coap_pkt, COAP_OPTION_TOKEN);
 2310              		.loc 1 687 9 is_stmt 1 view .LVU790
 2311 005a 3246     		mov	r2, r6
 2312 005c 3946     		mov	r1, r7
 2313 005e 04F14D00 		add	r0, r4, #77
 2314 0062 FFF7FEFF 		bl	memcpy
 2315              	.LVL264:
 688:C:/Users/²Ü¼ÒºÀ/.iotlink/sdk/IoT_LINK/iot_link/network/lwm2m/wakaama_lwm2m/wakaama-master/core/er-coap-13\er-coap-13.c **** 
 2316              		.loc 1 688 9 view .LVU791
 688:C:/Users/²Ü¼ÒºÀ/.iotlink/sdk/IoT_LINK/iot_link/network/lwm2m/wakaama_lwm2m/wakaama-master/core/er-coap-13\er-coap-13.c **** 
 2317              		.loc 1 688 9 view .LVU792
 2318 0066 0823     		movs	r3, #8
 2319 0068 2373     		strb	r3, [r4, #12]
 2320              	.L229:
 688:C:/Users/²Ü¼ÒºÀ/.iotlink/sdk/IoT_LINK/iot_link/network/lwm2m/wakaama_lwm2m/wakaama-master/core/er-coap-13\er-coap-13.c **** 
 2321              		.loc 1 688 48 discriminator 3 view .LVU793
 699:C:/Users/²Ü¼ÒºÀ/.iotlink/sdk/IoT_LINK/iot_link/network/lwm2m/wakaama_lwm2m/wakaama-master/core/er-coap-13\er-coap-13.c ****     }
 2322              		.loc 1 699 16 discriminator 3 view .LVU794
 703:C:/Users/²Ü¼ÒºÀ/.iotlink/sdk/IoT_LINK/iot_link/network/lwm2m/wakaama_lwm2m/wakaama-master/core/er-coap-13\er-coap-13.c **** 
 2323              		.loc 1 703 5 discriminator 3 view .LVU795
 703:C:/Users/²Ü¼ÒºÀ/.iotlink/sdk/IoT_LINK/iot_link/network/lwm2m/wakaama_lwm2m/wakaama-master/core/er-coap-13\er-coap-13.c **** 
 2324              		.loc 1 703 20 is_stmt 0 discriminator 3 view .LVU796
 2325 006a 3E44     		add	r6, r6, r7
 2326              	.LVL265:
 705:C:/Users/²Ü¼ÒºÀ/.iotlink/sdk/IoT_LINK/iot_link/network/lwm2m/wakaama_lwm2m/wakaama-master/core/er-coap-13\er-coap-13.c ****     {
 2327              		.loc 1 705 5 is_stmt 1 discriminator 3 view .LVU797
 705:C:/Users/²Ü¼ÒºÀ/.iotlink/sdk/IoT_LINK/iot_link/network/lwm2m/wakaama_lwm2m/wakaama-master/core/er-coap-13\er-coap-13.c ****     {
 2328              		.loc 1 705 34 is_stmt 0 discriminator 3 view .LVU798
 2329 006c 05EB0809 		add	r9, r5, r8
 659:C:/Users/²Ü¼ÒºÀ/.iotlink/sdk/IoT_LINK/iot_link/network/lwm2m/wakaama_lwm2m/wakaama-master/core/er-coap-13\er-coap-13.c ****     unsigned int option_delta = 0;
 2330              		.loc 1 659 18 discriminator 3 view .LVU799
ARM GAS  C:\Users\²Ü¼ÒºÀ\AppData\Local\Temp\cczrlpTg.s 			page 60


 2331 0070 0027     		movs	r7, #0
 2332              	.LVL266:
 2333              	.L230:
 705:C:/Users/²Ü¼ÒºÀ/.iotlink/sdk/IoT_LINK/iot_link/network/lwm2m/wakaama_lwm2m/wakaama-master/core/er-coap-13\er-coap-13.c ****     {
 2334              		.loc 1 705 11 is_stmt 1 view .LVU800
 2335 0072 B145     		cmp	r9, r6
 2336 0074 0DD9     		bls	.L268
 708:C:/Users/²Ü¼ÒºÀ/.iotlink/sdk/IoT_LINK/iot_link/network/lwm2m/wakaama_lwm2m/wakaama-master/core/er-coap-13\er-coap-13.c ****         {
 2337              		.loc 1 708 9 view .LVU801
 708:C:/Users/²Ü¼ÒºÀ/.iotlink/sdk/IoT_LINK/iot_link/network/lwm2m/wakaama_lwm2m/wakaama-master/core/er-coap-13\er-coap-13.c ****         {
 2338              		.loc 1 708 28 is_stmt 0 view .LVU802
 2339 0076 3046     		mov	r0, r6
 2340 0078 10F8013B 		ldrb	r3, [r0], #1	@ zero_extendqisi2
 708:C:/Users/²Ü¼ÒºÀ/.iotlink/sdk/IoT_LINK/iot_link/network/lwm2m/wakaama_lwm2m/wakaama-master/core/er-coap-13\er-coap-13.c ****         {
 2341              		.loc 1 708 12 view .LVU803
 2342 007c 03F0F002 		and	r2, r3, #240
 2343 0080 F02A     		cmp	r2, #240
 2344 0082 08D1     		bne	.L231
 710:C:/Users/²Ü¼ÒºÀ/.iotlink/sdk/IoT_LINK/iot_link/network/lwm2m/wakaama_lwm2m/wakaama-master/core/er-coap-13\er-coap-13.c ****             coap_pkt->payload_len = data_len - (coap_pkt->payload - data);
 2345              		.loc 1 710 13 is_stmt 1 view .LVU804
 2346              	.LVL267:
 710:C:/Users/²Ü¼ÒºÀ/.iotlink/sdk/IoT_LINK/iot_link/network/lwm2m/wakaama_lwm2m/wakaama-master/core/er-coap-13\er-coap-13.c ****             coap_pkt->payload_len = data_len - (coap_pkt->payload - data);
 2347              		.loc 1 710 31 is_stmt 0 view .LVU805
 2348 0084 C4F88800 		str	r0, [r4, #136]
 711:C:/Users/²Ü¼ÒºÀ/.iotlink/sdk/IoT_LINK/iot_link/network/lwm2m/wakaama_lwm2m/wakaama-master/core/er-coap-13\er-coap-13.c **** 
 2349              		.loc 1 711 13 is_stmt 1 view .LVU806
 711:C:/Users/²Ü¼ÒºÀ/.iotlink/sdk/IoT_LINK/iot_link/network/lwm2m/wakaama_lwm2m/wakaama-master/core/er-coap-13\er-coap-13.c **** 
 2350              		.loc 1 711 67 is_stmt 0 view .LVU807
 2351 0088 401B     		subs	r0, r0, r5
 711:C:/Users/²Ü¼ÒºÀ/.iotlink/sdk/IoT_LINK/iot_link/network/lwm2m/wakaama_lwm2m/wakaama-master/core/er-coap-13\er-coap-13.c **** 
 2352              		.loc 1 711 46 view .LVU808
 2353 008a A8EB0008 		sub	r8, r8, r0
 711:C:/Users/²Ü¼ÒºÀ/.iotlink/sdk/IoT_LINK/iot_link/network/lwm2m/wakaama_lwm2m/wakaama-master/core/er-coap-13\er-coap-13.c **** 
 2354              		.loc 1 711 35 view .LVU809
 2355 008e A4F88680 		strh	r8, [r4, #134]	@ movhi
 713:C:/Users/²Ü¼ÒºÀ/.iotlink/sdk/IoT_LINK/iot_link/network/lwm2m/wakaama_lwm2m/wakaama-master/core/er-coap-13\er-coap-13.c ****         }
 2356              		.loc 1 713 13 is_stmt 1 view .LVU810
 2357              	.LVL268:
 2358              	.L268:
 746:C:/Users/²Ü¼ÒºÀ/.iotlink/sdk/IoT_LINK/iot_link/network/lwm2m/wakaama_lwm2m/wakaama-master/core/er-coap-13\er-coap-13.c ****         }
 747:C:/Users/²Ü¼ÒºÀ/.iotlink/sdk/IoT_LINK/iot_link/network/lwm2m/wakaama_lwm2m/wakaama-master/core/er-coap-13\er-coap-13.c ****         else
 748:C:/Users/²Ü¼ÒºÀ/.iotlink/sdk/IoT_LINK/iot_link/network/lwm2m/wakaama_lwm2m/wakaama-master/core/er-coap-13\er-coap-13.c ****         {
 749:C:/Users/²Ü¼ÒºÀ/.iotlink/sdk/IoT_LINK/iot_link/network/lwm2m/wakaama_lwm2m/wakaama-master/core/er-coap-13\er-coap-13.c ****             PRINTF("OPTION %u (delta %u, len %u): ", option_number, option_delta, option_length);
 750:C:/Users/²Ü¼ÒºÀ/.iotlink/sdk/IoT_LINK/iot_link/network/lwm2m/wakaama_lwm2m/wakaama-master/core/er-coap-13\er-coap-13.c ****         }
 751:C:/Users/²Ü¼ÒºÀ/.iotlink/sdk/IoT_LINK/iot_link/network/lwm2m/wakaama_lwm2m/wakaama-master/core/er-coap-13\er-coap-13.c **** 
 752:C:/Users/²Ü¼ÒºÀ/.iotlink/sdk/IoT_LINK/iot_link/network/lwm2m/wakaama_lwm2m/wakaama-master/core/er-coap-13\er-coap-13.c ****         SET_OPTION(coap_pkt, option_number);
 753:C:/Users/²Ü¼ÒºÀ/.iotlink/sdk/IoT_LINK/iot_link/network/lwm2m/wakaama_lwm2m/wakaama-master/core/er-coap-13\er-coap-13.c **** 
 754:C:/Users/²Ü¼ÒºÀ/.iotlink/sdk/IoT_LINK/iot_link/network/lwm2m/wakaama_lwm2m/wakaama-master/core/er-coap-13\er-coap-13.c ****         switch (option_number)
 755:C:/Users/²Ü¼ÒºÀ/.iotlink/sdk/IoT_LINK/iot_link/network/lwm2m/wakaama_lwm2m/wakaama-master/core/er-coap-13\er-coap-13.c ****         {
 756:C:/Users/²Ü¼ÒºÀ/.iotlink/sdk/IoT_LINK/iot_link/network/lwm2m/wakaama_lwm2m/wakaama-master/core/er-coap-13\er-coap-13.c ****         case COAP_OPTION_CONTENT_TYPE:
 757:C:/Users/²Ü¼ÒºÀ/.iotlink/sdk/IoT_LINK/iot_link/network/lwm2m/wakaama_lwm2m/wakaama-master/core/er-coap-13\er-coap-13.c ****             coap_pkt->content_type = (coap_content_type_t)coap_parse_int_option(current_option, opt
 758:C:/Users/²Ü¼ÒºÀ/.iotlink/sdk/IoT_LINK/iot_link/network/lwm2m/wakaama_lwm2m/wakaama-master/core/er-coap-13\er-coap-13.c ****             PRINTF("Content-Format [%u]\n", coap_pkt->content_type);
 759:C:/Users/²Ü¼ÒºÀ/.iotlink/sdk/IoT_LINK/iot_link/network/lwm2m/wakaama_lwm2m/wakaama-master/core/er-coap-13\er-coap-13.c ****             break;
 760:C:/Users/²Ü¼ÒºÀ/.iotlink/sdk/IoT_LINK/iot_link/network/lwm2m/wakaama_lwm2m/wakaama-master/core/er-coap-13\er-coap-13.c ****         case COAP_OPTION_MAX_AGE:
 761:C:/Users/²Ü¼ÒºÀ/.iotlink/sdk/IoT_LINK/iot_link/network/lwm2m/wakaama_lwm2m/wakaama-master/core/er-coap-13\er-coap-13.c ****             coap_pkt->max_age = coap_parse_int_option(current_option, option_length);
 762:C:/Users/²Ü¼ÒºÀ/.iotlink/sdk/IoT_LINK/iot_link/network/lwm2m/wakaama_lwm2m/wakaama-master/core/er-coap-13\er-coap-13.c ****             PRINTF("Max-Age [%lu]\n", coap_pkt->max_age);
 763:C:/Users/²Ü¼ÒºÀ/.iotlink/sdk/IoT_LINK/iot_link/network/lwm2m/wakaama_lwm2m/wakaama-master/core/er-coap-13\er-coap-13.c ****             break;
ARM GAS  C:\Users\²Ü¼ÒºÀ\AppData\Local\Temp\cczrlpTg.s 			page 61


 764:C:/Users/²Ü¼ÒºÀ/.iotlink/sdk/IoT_LINK/iot_link/network/lwm2m/wakaama_lwm2m/wakaama-master/core/er-coap-13\er-coap-13.c ****         case COAP_OPTION_ETAG:
 765:C:/Users/²Ü¼ÒºÀ/.iotlink/sdk/IoT_LINK/iot_link/network/lwm2m/wakaama_lwm2m/wakaama-master/core/er-coap-13\er-coap-13.c ****             coap_pkt->etag_len = (uint8_t)(MIN(COAP_ETAG_LEN, option_length));
 766:C:/Users/²Ü¼ÒºÀ/.iotlink/sdk/IoT_LINK/iot_link/network/lwm2m/wakaama_lwm2m/wakaama-master/core/er-coap-13\er-coap-13.c ****             memcpy(coap_pkt->etag, current_option, coap_pkt->etag_len);
 767:C:/Users/²Ü¼ÒºÀ/.iotlink/sdk/IoT_LINK/iot_link/network/lwm2m/wakaama_lwm2m/wakaama-master/core/er-coap-13\er-coap-13.c ****             PRINTF("ETag %u [0x%02X%02X%02X%02X%02X%02X%02X%02X]\n", coap_pkt->etag_len,
 768:C:/Users/²Ü¼ÒºÀ/.iotlink/sdk/IoT_LINK/iot_link/network/lwm2m/wakaama_lwm2m/wakaama-master/core/er-coap-13\er-coap-13.c ****                    coap_pkt->etag[0],
 769:C:/Users/²Ü¼ÒºÀ/.iotlink/sdk/IoT_LINK/iot_link/network/lwm2m/wakaama_lwm2m/wakaama-master/core/er-coap-13\er-coap-13.c ****                    coap_pkt->etag[1],
 770:C:/Users/²Ü¼ÒºÀ/.iotlink/sdk/IoT_LINK/iot_link/network/lwm2m/wakaama_lwm2m/wakaama-master/core/er-coap-13\er-coap-13.c ****                    coap_pkt->etag[2],
 771:C:/Users/²Ü¼ÒºÀ/.iotlink/sdk/IoT_LINK/iot_link/network/lwm2m/wakaama_lwm2m/wakaama-master/core/er-coap-13\er-coap-13.c ****                    coap_pkt->etag[3],
 772:C:/Users/²Ü¼ÒºÀ/.iotlink/sdk/IoT_LINK/iot_link/network/lwm2m/wakaama_lwm2m/wakaama-master/core/er-coap-13\er-coap-13.c ****                    coap_pkt->etag[4],
 773:C:/Users/²Ü¼ÒºÀ/.iotlink/sdk/IoT_LINK/iot_link/network/lwm2m/wakaama_lwm2m/wakaama-master/core/er-coap-13\er-coap-13.c ****                    coap_pkt->etag[5],
 774:C:/Users/²Ü¼ÒºÀ/.iotlink/sdk/IoT_LINK/iot_link/network/lwm2m/wakaama_lwm2m/wakaama-master/core/er-coap-13\er-coap-13.c ****                    coap_pkt->etag[6],
 775:C:/Users/²Ü¼ÒºÀ/.iotlink/sdk/IoT_LINK/iot_link/network/lwm2m/wakaama_lwm2m/wakaama-master/core/er-coap-13\er-coap-13.c ****                    coap_pkt->etag[7]
 776:C:/Users/²Ü¼ÒºÀ/.iotlink/sdk/IoT_LINK/iot_link/network/lwm2m/wakaama_lwm2m/wakaama-master/core/er-coap-13\er-coap-13.c ****                   ); /*FIXME always prints 8 bytes */
 777:C:/Users/²Ü¼ÒºÀ/.iotlink/sdk/IoT_LINK/iot_link/network/lwm2m/wakaama_lwm2m/wakaama-master/core/er-coap-13\er-coap-13.c ****             break;
 778:C:/Users/²Ü¼ÒºÀ/.iotlink/sdk/IoT_LINK/iot_link/network/lwm2m/wakaama_lwm2m/wakaama-master/core/er-coap-13\er-coap-13.c ****         case COAP_OPTION_ACCEPT:
 779:C:/Users/²Ü¼ÒºÀ/.iotlink/sdk/IoT_LINK/iot_link/network/lwm2m/wakaama_lwm2m/wakaama-master/core/er-coap-13\er-coap-13.c ****             if (coap_pkt->accept_num < COAP_MAX_ACCEPT_NUM)
 780:C:/Users/²Ü¼ÒºÀ/.iotlink/sdk/IoT_LINK/iot_link/network/lwm2m/wakaama_lwm2m/wakaama-master/core/er-coap-13\er-coap-13.c ****             {
 781:C:/Users/²Ü¼ÒºÀ/.iotlink/sdk/IoT_LINK/iot_link/network/lwm2m/wakaama_lwm2m/wakaama-master/core/er-coap-13\er-coap-13.c ****                 coap_pkt->accept[coap_pkt->accept_num] = coap_parse_int_option(current_option, opti
 782:C:/Users/²Ü¼ÒºÀ/.iotlink/sdk/IoT_LINK/iot_link/network/lwm2m/wakaama_lwm2m/wakaama-master/core/er-coap-13\er-coap-13.c ****                 coap_pkt->accept_num += 1;
 783:C:/Users/²Ü¼ÒºÀ/.iotlink/sdk/IoT_LINK/iot_link/network/lwm2m/wakaama_lwm2m/wakaama-master/core/er-coap-13\er-coap-13.c ****                 PRINTF("Accept [%u]\n", coap_pkt->content_type);
 784:C:/Users/²Ü¼ÒºÀ/.iotlink/sdk/IoT_LINK/iot_link/network/lwm2m/wakaama_lwm2m/wakaama-master/core/er-coap-13\er-coap-13.c ****             }
 785:C:/Users/²Ü¼ÒºÀ/.iotlink/sdk/IoT_LINK/iot_link/network/lwm2m/wakaama_lwm2m/wakaama-master/core/er-coap-13\er-coap-13.c ****             break;
 786:C:/Users/²Ü¼ÒºÀ/.iotlink/sdk/IoT_LINK/iot_link/network/lwm2m/wakaama_lwm2m/wakaama-master/core/er-coap-13\er-coap-13.c ****         case COAP_OPTION_IF_MATCH:
 787:C:/Users/²Ü¼ÒºÀ/.iotlink/sdk/IoT_LINK/iot_link/network/lwm2m/wakaama_lwm2m/wakaama-master/core/er-coap-13\er-coap-13.c ****             /*FIXME support multiple ETags */
 788:C:/Users/²Ü¼ÒºÀ/.iotlink/sdk/IoT_LINK/iot_link/network/lwm2m/wakaama_lwm2m/wakaama-master/core/er-coap-13\er-coap-13.c ****             coap_pkt->if_match_len = (uint8_t)(MIN(COAP_ETAG_LEN, option_length));
 789:C:/Users/²Ü¼ÒºÀ/.iotlink/sdk/IoT_LINK/iot_link/network/lwm2m/wakaama_lwm2m/wakaama-master/core/er-coap-13\er-coap-13.c ****             memcpy(coap_pkt->if_match, current_option, coap_pkt->if_match_len);
 790:C:/Users/²Ü¼ÒºÀ/.iotlink/sdk/IoT_LINK/iot_link/network/lwm2m/wakaama_lwm2m/wakaama-master/core/er-coap-13\er-coap-13.c ****             PRINTF("If-Match %u [0x%02X%02X%02X%02X%02X%02X%02X%02X]\n", coap_pkt->if_match_len,
 791:C:/Users/²Ü¼ÒºÀ/.iotlink/sdk/IoT_LINK/iot_link/network/lwm2m/wakaama_lwm2m/wakaama-master/core/er-coap-13\er-coap-13.c ****                    coap_pkt->if_match[0],
 792:C:/Users/²Ü¼ÒºÀ/.iotlink/sdk/IoT_LINK/iot_link/network/lwm2m/wakaama_lwm2m/wakaama-master/core/er-coap-13\er-coap-13.c ****                    coap_pkt->if_match[1],
 793:C:/Users/²Ü¼ÒºÀ/.iotlink/sdk/IoT_LINK/iot_link/network/lwm2m/wakaama_lwm2m/wakaama-master/core/er-coap-13\er-coap-13.c ****                    coap_pkt->if_match[2],
 794:C:/Users/²Ü¼ÒºÀ/.iotlink/sdk/IoT_LINK/iot_link/network/lwm2m/wakaama_lwm2m/wakaama-master/core/er-coap-13\er-coap-13.c ****                    coap_pkt->if_match[3],
 795:C:/Users/²Ü¼ÒºÀ/.iotlink/sdk/IoT_LINK/iot_link/network/lwm2m/wakaama_lwm2m/wakaama-master/core/er-coap-13\er-coap-13.c ****                    coap_pkt->if_match[4],
 796:C:/Users/²Ü¼ÒºÀ/.iotlink/sdk/IoT_LINK/iot_link/network/lwm2m/wakaama_lwm2m/wakaama-master/core/er-coap-13\er-coap-13.c ****                    coap_pkt->if_match[5],
 797:C:/Users/²Ü¼ÒºÀ/.iotlink/sdk/IoT_LINK/iot_link/network/lwm2m/wakaama_lwm2m/wakaama-master/core/er-coap-13\er-coap-13.c ****                    coap_pkt->if_match[6],
 798:C:/Users/²Ü¼ÒºÀ/.iotlink/sdk/IoT_LINK/iot_link/network/lwm2m/wakaama_lwm2m/wakaama-master/core/er-coap-13\er-coap-13.c ****                    coap_pkt->if_match[7]
 799:C:/Users/²Ü¼ÒºÀ/.iotlink/sdk/IoT_LINK/iot_link/network/lwm2m/wakaama_lwm2m/wakaama-master/core/er-coap-13\er-coap-13.c ****                   ); /*FIXME always prints 8 bytes */
 800:C:/Users/²Ü¼ÒºÀ/.iotlink/sdk/IoT_LINK/iot_link/network/lwm2m/wakaama_lwm2m/wakaama-master/core/er-coap-13\er-coap-13.c ****             break;
 801:C:/Users/²Ü¼ÒºÀ/.iotlink/sdk/IoT_LINK/iot_link/network/lwm2m/wakaama_lwm2m/wakaama-master/core/er-coap-13\er-coap-13.c ****         case COAP_OPTION_IF_NONE_MATCH:
 802:C:/Users/²Ü¼ÒºÀ/.iotlink/sdk/IoT_LINK/iot_link/network/lwm2m/wakaama_lwm2m/wakaama-master/core/er-coap-13\er-coap-13.c ****             coap_pkt->if_none_match = 1;
 803:C:/Users/²Ü¼ÒºÀ/.iotlink/sdk/IoT_LINK/iot_link/network/lwm2m/wakaama_lwm2m/wakaama-master/core/er-coap-13\er-coap-13.c ****             PRINTF("If-None-Match\n");
 804:C:/Users/²Ü¼ÒºÀ/.iotlink/sdk/IoT_LINK/iot_link/network/lwm2m/wakaama_lwm2m/wakaama-master/core/er-coap-13\er-coap-13.c ****             break;
 805:C:/Users/²Ü¼ÒºÀ/.iotlink/sdk/IoT_LINK/iot_link/network/lwm2m/wakaama_lwm2m/wakaama-master/core/er-coap-13\er-coap-13.c **** 
 806:C:/Users/²Ü¼ÒºÀ/.iotlink/sdk/IoT_LINK/iot_link/network/lwm2m/wakaama_lwm2m/wakaama-master/core/er-coap-13\er-coap-13.c ****         case COAP_OPTION_URI_HOST:
 807:C:/Users/²Ü¼ÒºÀ/.iotlink/sdk/IoT_LINK/iot_link/network/lwm2m/wakaama_lwm2m/wakaama-master/core/er-coap-13\er-coap-13.c ****             coap_pkt->uri_host = current_option;
 808:C:/Users/²Ü¼ÒºÀ/.iotlink/sdk/IoT_LINK/iot_link/network/lwm2m/wakaama_lwm2m/wakaama-master/core/er-coap-13\er-coap-13.c ****             coap_pkt->uri_host_len = option_length;
 809:C:/Users/²Ü¼ÒºÀ/.iotlink/sdk/IoT_LINK/iot_link/network/lwm2m/wakaama_lwm2m/wakaama-master/core/er-coap-13\er-coap-13.c ****             PRINTF("Uri-Host [%.*s]\n", coap_pkt->uri_host_len, coap_pkt->uri_host);
 810:C:/Users/²Ü¼ÒºÀ/.iotlink/sdk/IoT_LINK/iot_link/network/lwm2m/wakaama_lwm2m/wakaama-master/core/er-coap-13\er-coap-13.c ****             break;
 811:C:/Users/²Ü¼ÒºÀ/.iotlink/sdk/IoT_LINK/iot_link/network/lwm2m/wakaama_lwm2m/wakaama-master/core/er-coap-13\er-coap-13.c ****         case COAP_OPTION_URI_PORT:
 812:C:/Users/²Ü¼ÒºÀ/.iotlink/sdk/IoT_LINK/iot_link/network/lwm2m/wakaama_lwm2m/wakaama-master/core/er-coap-13\er-coap-13.c ****             coap_pkt->uri_port = coap_parse_int_option(current_option, option_length);
 813:C:/Users/²Ü¼ÒºÀ/.iotlink/sdk/IoT_LINK/iot_link/network/lwm2m/wakaama_lwm2m/wakaama-master/core/er-coap-13\er-coap-13.c ****             PRINTF("Uri-Port [%u]\n", coap_pkt->uri_port);
 814:C:/Users/²Ü¼ÒºÀ/.iotlink/sdk/IoT_LINK/iot_link/network/lwm2m/wakaama_lwm2m/wakaama-master/core/er-coap-13\er-coap-13.c ****             break;
 815:C:/Users/²Ü¼ÒºÀ/.iotlink/sdk/IoT_LINK/iot_link/network/lwm2m/wakaama_lwm2m/wakaama-master/core/er-coap-13\er-coap-13.c ****         case COAP_OPTION_URI_PATH:
 816:C:/Users/²Ü¼ÒºÀ/.iotlink/sdk/IoT_LINK/iot_link/network/lwm2m/wakaama_lwm2m/wakaama-master/core/er-coap-13\er-coap-13.c ****             /* coap_merge_multi_option() operates in-place on the IPBUF, but final packet field sho
 817:C:/Users/²Ü¼ÒºÀ/.iotlink/sdk/IoT_LINK/iot_link/network/lwm2m/wakaama_lwm2m/wakaama-master/core/er-coap-13\er-coap-13.c ****             // coap_merge_multi_option( (char **) &(coap_pkt->uri_path), &(coap_pkt->uri_path_len),
 818:C:/Users/²Ü¼ÒºÀ/.iotlink/sdk/IoT_LINK/iot_link/network/lwm2m/wakaama_lwm2m/wakaama-master/core/er-coap-13\er-coap-13.c ****             coap_add_multi_option( &(coap_pkt->uri_path), current_option, option_length, 1);
 819:C:/Users/²Ü¼ÒºÀ/.iotlink/sdk/IoT_LINK/iot_link/network/lwm2m/wakaama_lwm2m/wakaama-master/core/er-coap-13\er-coap-13.c ****             PRINTF("Uri-Path [%.*s]\n", option_length, current_option);
 820:C:/Users/²Ü¼ÒºÀ/.iotlink/sdk/IoT_LINK/iot_link/network/lwm2m/wakaama_lwm2m/wakaama-master/core/er-coap-13\er-coap-13.c ****             break;
ARM GAS  C:\Users\²Ü¼ÒºÀ\AppData\Local\Temp\cczrlpTg.s 			page 62


 821:C:/Users/²Ü¼ÒºÀ/.iotlink/sdk/IoT_LINK/iot_link/network/lwm2m/wakaama_lwm2m/wakaama-master/core/er-coap-13\er-coap-13.c ****         case COAP_OPTION_URI_QUERY:
 822:C:/Users/²Ü¼ÒºÀ/.iotlink/sdk/IoT_LINK/iot_link/network/lwm2m/wakaama_lwm2m/wakaama-master/core/er-coap-13\er-coap-13.c ****             /* coap_merge_multi_option() operates in-place on the IPBUF, but final packet field sho
 823:C:/Users/²Ü¼ÒºÀ/.iotlink/sdk/IoT_LINK/iot_link/network/lwm2m/wakaama_lwm2m/wakaama-master/core/er-coap-13\er-coap-13.c ****             // coap_merge_multi_option( (char **) &(coap_pkt->uri_query), &(coap_pkt->uri_query_len
 824:C:/Users/²Ü¼ÒºÀ/.iotlink/sdk/IoT_LINK/iot_link/network/lwm2m/wakaama_lwm2m/wakaama-master/core/er-coap-13\er-coap-13.c ****             coap_add_multi_option( &(coap_pkt->uri_query), current_option, option_length, 1);
 825:C:/Users/²Ü¼ÒºÀ/.iotlink/sdk/IoT_LINK/iot_link/network/lwm2m/wakaama_lwm2m/wakaama-master/core/er-coap-13\er-coap-13.c ****             PRINTF("Uri-Query [%.*s]\n", option_length, current_option);
 826:C:/Users/²Ü¼ÒºÀ/.iotlink/sdk/IoT_LINK/iot_link/network/lwm2m/wakaama_lwm2m/wakaama-master/core/er-coap-13\er-coap-13.c ****             break;
 827:C:/Users/²Ü¼ÒºÀ/.iotlink/sdk/IoT_LINK/iot_link/network/lwm2m/wakaama_lwm2m/wakaama-master/core/er-coap-13\er-coap-13.c **** 
 828:C:/Users/²Ü¼ÒºÀ/.iotlink/sdk/IoT_LINK/iot_link/network/lwm2m/wakaama_lwm2m/wakaama-master/core/er-coap-13\er-coap-13.c ****         case COAP_OPTION_LOCATION_PATH:
 829:C:/Users/²Ü¼ÒºÀ/.iotlink/sdk/IoT_LINK/iot_link/network/lwm2m/wakaama_lwm2m/wakaama-master/core/er-coap-13\er-coap-13.c ****             coap_add_multi_option( &(coap_pkt->location_path), current_option, option_length, 1);
 830:C:/Users/²Ü¼ÒºÀ/.iotlink/sdk/IoT_LINK/iot_link/network/lwm2m/wakaama_lwm2m/wakaama-master/core/er-coap-13\er-coap-13.c ****             break;
 831:C:/Users/²Ü¼ÒºÀ/.iotlink/sdk/IoT_LINK/iot_link/network/lwm2m/wakaama_lwm2m/wakaama-master/core/er-coap-13\er-coap-13.c ****         case COAP_OPTION_LOCATION_QUERY:
 832:C:/Users/²Ü¼ÒºÀ/.iotlink/sdk/IoT_LINK/iot_link/network/lwm2m/wakaama_lwm2m/wakaama-master/core/er-coap-13\er-coap-13.c ****             /* coap_merge_multi_option() operates in-place on the IPBUF, but final packet field sho
 833:C:/Users/²Ü¼ÒºÀ/.iotlink/sdk/IoT_LINK/iot_link/network/lwm2m/wakaama_lwm2m/wakaama-master/core/er-coap-13\er-coap-13.c ****             coap_merge_multi_option( &(coap_pkt->location_query), &(coap_pkt->location_query_len), 
 834:C:/Users/²Ü¼ÒºÀ/.iotlink/sdk/IoT_LINK/iot_link/network/lwm2m/wakaama_lwm2m/wakaama-master/core/er-coap-13\er-coap-13.c ****             PRINTF("Location-Query [%.*s]\n", option_length, current_option);
 835:C:/Users/²Ü¼ÒºÀ/.iotlink/sdk/IoT_LINK/iot_link/network/lwm2m/wakaama_lwm2m/wakaama-master/core/er-coap-13\er-coap-13.c ****             break;
 836:C:/Users/²Ü¼ÒºÀ/.iotlink/sdk/IoT_LINK/iot_link/network/lwm2m/wakaama_lwm2m/wakaama-master/core/er-coap-13\er-coap-13.c **** 
 837:C:/Users/²Ü¼ÒºÀ/.iotlink/sdk/IoT_LINK/iot_link/network/lwm2m/wakaama_lwm2m/wakaama-master/core/er-coap-13\er-coap-13.c ****         case COAP_OPTION_PROXY_URI:
 838:C:/Users/²Ü¼ÒºÀ/.iotlink/sdk/IoT_LINK/iot_link/network/lwm2m/wakaama_lwm2m/wakaama-master/core/er-coap-13\er-coap-13.c ****             /*FIXME check for own end-point */
 839:C:/Users/²Ü¼ÒºÀ/.iotlink/sdk/IoT_LINK/iot_link/network/lwm2m/wakaama_lwm2m/wakaama-master/core/er-coap-13\er-coap-13.c ****             coap_pkt->proxy_uri = current_option;
 840:C:/Users/²Ü¼ÒºÀ/.iotlink/sdk/IoT_LINK/iot_link/network/lwm2m/wakaama_lwm2m/wakaama-master/core/er-coap-13\er-coap-13.c ****             coap_pkt->proxy_uri_len = option_length;
 841:C:/Users/²Ü¼ÒºÀ/.iotlink/sdk/IoT_LINK/iot_link/network/lwm2m/wakaama_lwm2m/wakaama-master/core/er-coap-13\er-coap-13.c ****             /*TODO length > 270 not implemented (actually not required) */
 842:C:/Users/²Ü¼ÒºÀ/.iotlink/sdk/IoT_LINK/iot_link/network/lwm2m/wakaama_lwm2m/wakaama-master/core/er-coap-13\er-coap-13.c ****             PRINTF("Proxy-Uri NOT IMPLEMENTED [%.*s]\n", coap_pkt->proxy_uri_len, coap_pkt->proxy_u
 843:C:/Users/²Ü¼ÒºÀ/.iotlink/sdk/IoT_LINK/iot_link/network/lwm2m/wakaama_lwm2m/wakaama-master/core/er-coap-13\er-coap-13.c ****             coap_error_message = "This is a constrained server (Contiki)";
 844:C:/Users/²Ü¼ÒºÀ/.iotlink/sdk/IoT_LINK/iot_link/network/lwm2m/wakaama_lwm2m/wakaama-master/core/er-coap-13\er-coap-13.c ****             return PROXYING_NOT_SUPPORTED_5_05;
 845:C:/Users/²Ü¼ÒºÀ/.iotlink/sdk/IoT_LINK/iot_link/network/lwm2m/wakaama_lwm2m/wakaama-master/core/er-coap-13\er-coap-13.c ****         //        break;
 846:C:/Users/²Ü¼ÒºÀ/.iotlink/sdk/IoT_LINK/iot_link/network/lwm2m/wakaama_lwm2m/wakaama-master/core/er-coap-13\er-coap-13.c **** 
 847:C:/Users/²Ü¼ÒºÀ/.iotlink/sdk/IoT_LINK/iot_link/network/lwm2m/wakaama_lwm2m/wakaama-master/core/er-coap-13\er-coap-13.c ****         case COAP_OPTION_OBSERVE:
 848:C:/Users/²Ü¼ÒºÀ/.iotlink/sdk/IoT_LINK/iot_link/network/lwm2m/wakaama_lwm2m/wakaama-master/core/er-coap-13\er-coap-13.c ****             coap_pkt->observe = coap_parse_int_option(current_option, option_length);
 849:C:/Users/²Ü¼ÒºÀ/.iotlink/sdk/IoT_LINK/iot_link/network/lwm2m/wakaama_lwm2m/wakaama-master/core/er-coap-13\er-coap-13.c ****             PRINTF("Observe [%lu]\n", coap_pkt->observe);
 850:C:/Users/²Ü¼ÒºÀ/.iotlink/sdk/IoT_LINK/iot_link/network/lwm2m/wakaama_lwm2m/wakaama-master/core/er-coap-13\er-coap-13.c ****             break;
 851:C:/Users/²Ü¼ÒºÀ/.iotlink/sdk/IoT_LINK/iot_link/network/lwm2m/wakaama_lwm2m/wakaama-master/core/er-coap-13\er-coap-13.c ****         case COAP_OPTION_BLOCK2:
 852:C:/Users/²Ü¼ÒºÀ/.iotlink/sdk/IoT_LINK/iot_link/network/lwm2m/wakaama_lwm2m/wakaama-master/core/er-coap-13\er-coap-13.c ****             coap_pkt->block2_num = coap_parse_int_option(current_option, option_length);
 853:C:/Users/²Ü¼ÒºÀ/.iotlink/sdk/IoT_LINK/iot_link/network/lwm2m/wakaama_lwm2m/wakaama-master/core/er-coap-13\er-coap-13.c ****             coap_pkt->block2_more = (coap_pkt->block2_num & 0x08) >> 3;
 854:C:/Users/²Ü¼ÒºÀ/.iotlink/sdk/IoT_LINK/iot_link/network/lwm2m/wakaama_lwm2m/wakaama-master/core/er-coap-13\er-coap-13.c ****             coap_pkt->block2_size = 16 << (coap_pkt->block2_num & 0x07);
 855:C:/Users/²Ü¼ÒºÀ/.iotlink/sdk/IoT_LINK/iot_link/network/lwm2m/wakaama_lwm2m/wakaama-master/core/er-coap-13\er-coap-13.c ****             coap_pkt->block2_offset = (coap_pkt->block2_num & ~0x0000000F) << (coap_pkt->block2_num
 856:C:/Users/²Ü¼ÒºÀ/.iotlink/sdk/IoT_LINK/iot_link/network/lwm2m/wakaama_lwm2m/wakaama-master/core/er-coap-13\er-coap-13.c ****             coap_pkt->block2_num >>= 4;
 857:C:/Users/²Ü¼ÒºÀ/.iotlink/sdk/IoT_LINK/iot_link/network/lwm2m/wakaama_lwm2m/wakaama-master/core/er-coap-13\er-coap-13.c ****             PRINTF("Block2 [%lu%s (%u B/blk)]\n", coap_pkt->block2_num, coap_pkt->block2_more ? "+"
 858:C:/Users/²Ü¼ÒºÀ/.iotlink/sdk/IoT_LINK/iot_link/network/lwm2m/wakaama_lwm2m/wakaama-master/core/er-coap-13\er-coap-13.c ****             break;
 859:C:/Users/²Ü¼ÒºÀ/.iotlink/sdk/IoT_LINK/iot_link/network/lwm2m/wakaama_lwm2m/wakaama-master/core/er-coap-13\er-coap-13.c ****         case COAP_OPTION_BLOCK1:
 860:C:/Users/²Ü¼ÒºÀ/.iotlink/sdk/IoT_LINK/iot_link/network/lwm2m/wakaama_lwm2m/wakaama-master/core/er-coap-13\er-coap-13.c ****             coap_pkt->block1_num = coap_parse_int_option(current_option, option_length);
 861:C:/Users/²Ü¼ÒºÀ/.iotlink/sdk/IoT_LINK/iot_link/network/lwm2m/wakaama_lwm2m/wakaama-master/core/er-coap-13\er-coap-13.c ****             coap_pkt->block1_more = (coap_pkt->block1_num & 0x08) >> 3;
 862:C:/Users/²Ü¼ÒºÀ/.iotlink/sdk/IoT_LINK/iot_link/network/lwm2m/wakaama_lwm2m/wakaama-master/core/er-coap-13\er-coap-13.c ****             coap_pkt->block1_size = 16 << (coap_pkt->block1_num & 0x07);
 863:C:/Users/²Ü¼ÒºÀ/.iotlink/sdk/IoT_LINK/iot_link/network/lwm2m/wakaama_lwm2m/wakaama-master/core/er-coap-13\er-coap-13.c ****             coap_pkt->block1_offset = (coap_pkt->block1_num & ~0x0000000F) << (coap_pkt->block1_num
 864:C:/Users/²Ü¼ÒºÀ/.iotlink/sdk/IoT_LINK/iot_link/network/lwm2m/wakaama_lwm2m/wakaama-master/core/er-coap-13\er-coap-13.c ****             coap_pkt->block1_num >>= 4;
 865:C:/Users/²Ü¼ÒºÀ/.iotlink/sdk/IoT_LINK/iot_link/network/lwm2m/wakaama_lwm2m/wakaama-master/core/er-coap-13\er-coap-13.c ****             PRINTF("Block1 [%lu%s (%u B/blk)]\n", coap_pkt->block1_num, coap_pkt->block1_more ? "+"
 866:C:/Users/²Ü¼ÒºÀ/.iotlink/sdk/IoT_LINK/iot_link/network/lwm2m/wakaama_lwm2m/wakaama-master/core/er-coap-13\er-coap-13.c ****             break;
 867:C:/Users/²Ü¼ÒºÀ/.iotlink/sdk/IoT_LINK/iot_link/network/lwm2m/wakaama_lwm2m/wakaama-master/core/er-coap-13\er-coap-13.c ****         case COAP_OPTION_SIZE:
 868:C:/Users/²Ü¼ÒºÀ/.iotlink/sdk/IoT_LINK/iot_link/network/lwm2m/wakaama_lwm2m/wakaama-master/core/er-coap-13\er-coap-13.c ****             coap_pkt->size = coap_parse_int_option(current_option, option_length);
 869:C:/Users/²Ü¼ÒºÀ/.iotlink/sdk/IoT_LINK/iot_link/network/lwm2m/wakaama_lwm2m/wakaama-master/core/er-coap-13\er-coap-13.c ****             PRINTF("Size [%lu]\n", coap_pkt->size);
 870:C:/Users/²Ü¼ÒºÀ/.iotlink/sdk/IoT_LINK/iot_link/network/lwm2m/wakaama_lwm2m/wakaama-master/core/er-coap-13\er-coap-13.c ****             break;
 871:C:/Users/²Ü¼ÒºÀ/.iotlink/sdk/IoT_LINK/iot_link/network/lwm2m/wakaama_lwm2m/wakaama-master/core/er-coap-13\er-coap-13.c ****         default:
 872:C:/Users/²Ü¼ÒºÀ/.iotlink/sdk/IoT_LINK/iot_link/network/lwm2m/wakaama_lwm2m/wakaama-master/core/er-coap-13\er-coap-13.c ****             PRINTF("unknown (%u)\n", option_number);
 873:C:/Users/²Ü¼ÒºÀ/.iotlink/sdk/IoT_LINK/iot_link/network/lwm2m/wakaama_lwm2m/wakaama-master/core/er-coap-13\er-coap-13.c ****             /* Check if critical (odd) */
 874:C:/Users/²Ü¼ÒºÀ/.iotlink/sdk/IoT_LINK/iot_link/network/lwm2m/wakaama_lwm2m/wakaama-master/core/er-coap-13\er-coap-13.c ****             if (option_number & 1)
 875:C:/Users/²Ü¼ÒºÀ/.iotlink/sdk/IoT_LINK/iot_link/network/lwm2m/wakaama_lwm2m/wakaama-master/core/er-coap-13\er-coap-13.c ****             {
 876:C:/Users/²Ü¼ÒºÀ/.iotlink/sdk/IoT_LINK/iot_link/network/lwm2m/wakaama_lwm2m/wakaama-master/core/er-coap-13\er-coap-13.c ****                 coap_error_message = "Unsupported critical option";
 877:C:/Users/²Ü¼ÒºÀ/.iotlink/sdk/IoT_LINK/iot_link/network/lwm2m/wakaama_lwm2m/wakaama-master/core/er-coap-13\er-coap-13.c ****                 return BAD_OPTION_4_02;
ARM GAS  C:\Users\²Ü¼ÒºÀ\AppData\Local\Temp\cczrlpTg.s 			page 63


 878:C:/Users/²Ü¼ÒºÀ/.iotlink/sdk/IoT_LINK/iot_link/network/lwm2m/wakaama_lwm2m/wakaama-master/core/er-coap-13\er-coap-13.c ****             }
 879:C:/Users/²Ü¼ÒºÀ/.iotlink/sdk/IoT_LINK/iot_link/network/lwm2m/wakaama_lwm2m/wakaama-master/core/er-coap-13\er-coap-13.c ****         }
 880:C:/Users/²Ü¼ÒºÀ/.iotlink/sdk/IoT_LINK/iot_link/network/lwm2m/wakaama_lwm2m/wakaama-master/core/er-coap-13\er-coap-13.c **** 
 881:C:/Users/²Ü¼ÒºÀ/.iotlink/sdk/IoT_LINK/iot_link/network/lwm2m/wakaama_lwm2m/wakaama-master/core/er-coap-13\er-coap-13.c ****         current_option += option_length;
 882:C:/Users/²Ü¼ÒºÀ/.iotlink/sdk/IoT_LINK/iot_link/network/lwm2m/wakaama_lwm2m/wakaama-master/core/er-coap-13\er-coap-13.c ****     } /* for */
 883:C:/Users/²Ü¼ÒºÀ/.iotlink/sdk/IoT_LINK/iot_link/network/lwm2m/wakaama_lwm2m/wakaama-master/core/er-coap-13\er-coap-13.c ****     PRINTF("-Done parsing-------\n");
 884:C:/Users/²Ü¼ÒºÀ/.iotlink/sdk/IoT_LINK/iot_link/network/lwm2m/wakaama_lwm2m/wakaama-master/core/er-coap-13\er-coap-13.c **** 
 885:C:/Users/²Ü¼ÒºÀ/.iotlink/sdk/IoT_LINK/iot_link/network/lwm2m/wakaama_lwm2m/wakaama-master/core/er-coap-13\er-coap-13.c **** 
 886:C:/Users/²Ü¼ÒºÀ/.iotlink/sdk/IoT_LINK/iot_link/network/lwm2m/wakaama_lwm2m/wakaama-master/core/er-coap-13\er-coap-13.c **** 
 887:C:/Users/²Ü¼ÒºÀ/.iotlink/sdk/IoT_LINK/iot_link/network/lwm2m/wakaama_lwm2m/wakaama-master/core/er-coap-13\er-coap-13.c ****     return NO_ERROR;
 2359              		.loc 1 887 12 is_stmt 0 view .LVU811
 2360 0092 0020     		movs	r0, #0
 2361 0094 B2E0     		b	.L228
 2362              	.LVL269:
 2363              	.L231:
 716:C:/Users/²Ü¼ÒºÀ/.iotlink/sdk/IoT_LINK/iot_link/network/lwm2m/wakaama_lwm2m/wakaama-master/core/er-coap-13\er-coap-13.c ****         option_length = current_option[0] & 0x0F;
 2364              		.loc 1 716 9 is_stmt 1 view .LVU812
 716:C:/Users/²Ü¼ÒºÀ/.iotlink/sdk/IoT_LINK/iot_link/network/lwm2m/wakaama_lwm2m/wakaama-master/core/er-coap-13\er-coap-13.c ****         option_length = current_option[0] & 0x0F;
 2365              		.loc 1 716 42 is_stmt 0 view .LVU813
 2366 0096 1A09     		lsrs	r2, r3, #4
 717:C:/Users/²Ü¼ÒºÀ/.iotlink/sdk/IoT_LINK/iot_link/network/lwm2m/wakaama_lwm2m/wakaama-master/core/er-coap-13\er-coap-13.c ****         ++current_option;
 2367              		.loc 1 717 43 view .LVU814
 2368 0098 03F00F03 		and	r3, r3, #15
 2369 009c 0393     		str	r3, [sp, #12]
 716:C:/Users/²Ü¼ÒºÀ/.iotlink/sdk/IoT_LINK/iot_link/network/lwm2m/wakaama_lwm2m/wakaama-master/core/er-coap-13\er-coap-13.c ****         option_length = current_option[0] & 0x0F;
 2370              		.loc 1 716 42 view .LVU815
 2371 009e 0292     		str	r2, [sp, #8]
 717:C:/Users/²Ü¼ÒºÀ/.iotlink/sdk/IoT_LINK/iot_link/network/lwm2m/wakaama_lwm2m/wakaama-master/core/er-coap-13\er-coap-13.c ****         ++current_option;
 2372              		.loc 1 717 9 is_stmt 1 view .LVU816
 718:C:/Users/²Ü¼ÒºÀ/.iotlink/sdk/IoT_LINK/iot_link/network/lwm2m/wakaama_lwm2m/wakaama-master/core/er-coap-13\er-coap-13.c **** 
 2373              		.loc 1 718 9 view .LVU817
 2374              	.LVL270:
 721:C:/Users/²Ü¼ÒºÀ/.iotlink/sdk/IoT_LINK/iot_link/network/lwm2m/wakaama_lwm2m/wakaama-master/core/er-coap-13\er-coap-13.c ****         do
 2375              		.loc 1 721 9 view .LVU818
 717:C:/Users/²Ü¼ÒºÀ/.iotlink/sdk/IoT_LINK/iot_link/network/lwm2m/wakaama_lwm2m/wakaama-master/core/er-coap-13\er-coap-13.c ****         ++current_option;
 2376              		.loc 1 717 23 is_stmt 0 view .LVU819
 2377 00a0 0223     		movs	r3, #2
 721:C:/Users/²Ü¼ÒºÀ/.iotlink/sdk/IoT_LINK/iot_link/network/lwm2m/wakaama_lwm2m/wakaama-master/core/er-coap-13\er-coap-13.c ****         do
 2378              		.loc 1 721 11 view .LVU820
 2379 00a2 02A9     		add	r1, sp, #8
 2380              	.LVL271:
 2381              	.L234:
 722:C:/Users/²Ü¼ÒºÀ/.iotlink/sdk/IoT_LINK/iot_link/network/lwm2m/wakaama_lwm2m/wakaama-master/core/er-coap-13\er-coap-13.c ****         {
 2382              		.loc 1 722 9 is_stmt 1 view .LVU821
 724:C:/Users/²Ü¼ÒºÀ/.iotlink/sdk/IoT_LINK/iot_link/network/lwm2m/wakaama_lwm2m/wakaama-master/core/er-coap-13\er-coap-13.c ****             {
 2383              		.loc 1 724 13 view .LVU822
 724:C:/Users/²Ü¼ÒºÀ/.iotlink/sdk/IoT_LINK/iot_link/network/lwm2m/wakaama_lwm2m/wakaama-master/core/er-coap-13\er-coap-13.c ****             {
 2384              		.loc 1 724 17 is_stmt 0 view .LVU823
 2385 00a4 0A68     		ldr	r2, [r1]
 724:C:/Users/²Ü¼ÒºÀ/.iotlink/sdk/IoT_LINK/iot_link/network/lwm2m/wakaama_lwm2m/wakaama-master/core/er-coap-13\er-coap-13.c ****             {
 2386              		.loc 1 724 16 view .LVU824
 2387 00a6 0D2A     		cmp	r2, #13
 2388 00a8 34D1     		bne	.L232
 726:C:/Users/²Ü¼ÒºÀ/.iotlink/sdk/IoT_LINK/iot_link/network/lwm2m/wakaama_lwm2m/wakaama-master/core/er-coap-13\er-coap-13.c ****                 ++current_option;
 2389              		.loc 1 726 17 is_stmt 1 view .LVU825
 726:C:/Users/²Ü¼ÒºÀ/.iotlink/sdk/IoT_LINK/iot_link/network/lwm2m/wakaama_lwm2m/wakaama-master/core/er-coap-13\er-coap-13.c ****                 ++current_option;
 2390              		.loc 1 726 37 is_stmt 0 view .LVU826
ARM GAS  C:\Users\²Ü¼ÒºÀ\AppData\Local\Temp\cczrlpTg.s 			page 64


 2391 00aa 10F8012B 		ldrb	r2, [r0], #1	@ zero_extendqisi2
 2392              	.LVL272:
 726:C:/Users/²Ü¼ÒºÀ/.iotlink/sdk/IoT_LINK/iot_link/network/lwm2m/wakaama_lwm2m/wakaama-master/core/er-coap-13\er-coap-13.c ****                 ++current_option;
 2393              		.loc 1 726 20 view .LVU827
 2394 00ae 0D32     		adds	r2, r2, #13
 2395 00b0 0A60     		str	r2, [r1]
 727:C:/Users/²Ü¼ÒºÀ/.iotlink/sdk/IoT_LINK/iot_link/network/lwm2m/wakaama_lwm2m/wakaama-master/core/er-coap-13\er-coap-13.c ****             }
 2396              		.loc 1 727 17 is_stmt 1 view .LVU828
 2397              	.LVL273:
 2398              	.L233:
 738:C:/Users/²Ü¼ÒºÀ/.iotlink/sdk/IoT_LINK/iot_link/network/lwm2m/wakaama_lwm2m/wakaama-master/core/er-coap-13\er-coap-13.c **** 
 2399              		.loc 1 738 15 view .LVU829
 738:C:/Users/²Ü¼ÒºÀ/.iotlink/sdk/IoT_LINK/iot_link/network/lwm2m/wakaama_lwm2m/wakaama-master/core/er-coap-13\er-coap-13.c **** 
 2400              		.loc 1 738 9 is_stmt 0 view .LVU830
 2401 00b2 012B     		cmp	r3, #1
 738:C:/Users/²Ü¼ÒºÀ/.iotlink/sdk/IoT_LINK/iot_link/network/lwm2m/wakaama_lwm2m/wakaama-master/core/er-coap-13\er-coap-13.c **** 
 2402              		.loc 1 738 66 view .LVU831
 2403 00b4 03A9     		add	r1, sp, #12
 2404              	.LVL274:
 738:C:/Users/²Ü¼ÒºÀ/.iotlink/sdk/IoT_LINK/iot_link/network/lwm2m/wakaama_lwm2m/wakaama-master/core/er-coap-13\er-coap-13.c **** 
 2405              		.loc 1 738 9 view .LVU832
 2406 00b6 2BD1     		bne	.L257
 740:C:/Users/²Ü¼ÒºÀ/.iotlink/sdk/IoT_LINK/iot_link/network/lwm2m/wakaama_lwm2m/wakaama-master/core/er-coap-13\er-coap-13.c **** 
 2407              		.loc 1 740 9 is_stmt 1 view .LVU833
 740:C:/Users/²Ü¼ÒºÀ/.iotlink/sdk/IoT_LINK/iot_link/network/lwm2m/wakaama_lwm2m/wakaama-master/core/er-coap-13\er-coap-13.c **** 
 2408              		.loc 1 740 23 is_stmt 0 view .LVU834
 2409 00b8 029A     		ldr	r2, [sp, #8]
 2410 00ba 1744     		add	r7, r7, r2
 2411              	.LVL275:
 742:C:/Users/²Ü¼ÒºÀ/.iotlink/sdk/IoT_LINK/iot_link/network/lwm2m/wakaama_lwm2m/wakaama-master/core/er-coap-13\er-coap-13.c ****         {
 2412              		.loc 1 742 9 is_stmt 1 view .LVU835
 742:C:/Users/²Ü¼ÒºÀ/.iotlink/sdk/IoT_LINK/iot_link/network/lwm2m/wakaama_lwm2m/wakaama-master/core/er-coap-13\er-coap-13.c ****         {
 2413              		.loc 1 742 28 is_stmt 0 view .LVU836
 2414 00bc 039A     		ldr	r2, [sp, #12]
 2415 00be 8618     		adds	r6, r0, r2
 742:C:/Users/²Ü¼ÒºÀ/.iotlink/sdk/IoT_LINK/iot_link/network/lwm2m/wakaama_lwm2m/wakaama-master/core/er-coap-13\er-coap-13.c ****         {
 2416              		.loc 1 742 12 view .LVU837
 2417 00c0 4E45     		cmp	r6, r9
 2418 00c2 C6D8     		bhi	.L258
 749:C:/Users/²Ü¼ÒºÀ/.iotlink/sdk/IoT_LINK/iot_link/network/lwm2m/wakaama_lwm2m/wakaama-master/core/er-coap-13\er-coap-13.c ****         }
 2419              		.loc 1 749 97 is_stmt 1 view .LVU838
 752:C:/Users/²Ü¼ÒºÀ/.iotlink/sdk/IoT_LINK/iot_link/network/lwm2m/wakaama_lwm2m/wakaama-master/core/er-coap-13\er-coap-13.c **** 
 2420              		.loc 1 752 9 view .LVU839
 2421 00c4 282F     		cmp	r7, #40
 2422 00c6 00F2CE80 		bhi	.L235
 752:C:/Users/²Ü¼ÒºÀ/.iotlink/sdk/IoT_LINK/iot_link/network/lwm2m/wakaama_lwm2m/wakaama-master/core/er-coap-13\er-coap-13.c **** 
 2423              		.loc 1 752 9 discriminator 1 view .LVU840
 2424 00ca 04EBD701 		add	r1, r4, r7, lsr #3
 2425 00ce 07F0070C 		and	ip, r7, #7
 2426 00d2 03FA0CF3 		lsl	r3, r3, ip
 2427 00d6 91F80AC0 		ldrb	ip, [r1, #10]	@ zero_extendqisi2
 2428 00da 43EA0C03 		orr	r3, r3, ip
 2429 00de 8B72     		strb	r3, [r1, #10]
 752:C:/Users/²Ü¼ÒºÀ/.iotlink/sdk/IoT_LINK/iot_link/network/lwm2m/wakaama_lwm2m/wakaama-master/core/er-coap-13\er-coap-13.c **** 
 2430              		.loc 1 752 44 discriminator 1 view .LVU841
 754:C:/Users/²Ü¼ÒºÀ/.iotlink/sdk/IoT_LINK/iot_link/network/lwm2m/wakaama_lwm2m/wakaama-master/core/er-coap-13\er-coap-13.c ****         {
 2431              		.loc 1 754 9 discriminator 1 view .LVU842
ARM GAS  C:\Users\²Ü¼ÒºÀ\AppData\Local\Temp\cczrlpTg.s 			page 65


 2432 00e0 7B1E     		subs	r3, r7, #1
 2433 00e2 222B     		cmp	r3, #34
 2434 00e4 00F2BF80 		bhi	.L235
 2435 00e8 DFE803F0 		tbb	[pc, r3]
 2436              	.L237:
 2437 00ec 45       		.byte	(.L253-.L237)/2
 2438 00ed BD       		.byte	(.L235-.L237)/2
 2439 00ee 52       		.byte	(.L252-.L237)/2
 2440 00ef 29       		.byte	(.L251-.L237)/2
 2441 00f0 4E       		.byte	(.L250-.L237)/2
 2442 00f1 8B       		.byte	(.L249-.L237)/2
 2443 00f2 55       		.byte	(.L248-.L237)/2
 2444 00f3 66       		.byte	(.L247-.L237)/2
 2445 00f4 BD       		.byte	(.L235-.L237)/2
 2446 00f5 BD       		.byte	(.L235-.L237)/2
 2447 00f6 5A       		.byte	(.L246-.L237)/2
 2448 00f7 1F       		.byte	(.L245-.L237)/2
 2449 00f8 BD       		.byte	(.L235-.L237)/2
 2450 00f9 24       		.byte	(.L244-.L237)/2
 2451 00fa 61       		.byte	(.L243-.L237)/2
 2452 00fb BD       		.byte	(.L235-.L237)/2
 2453 00fc 34       		.byte	(.L242-.L237)/2
 2454 00fd BD       		.byte	(.L235-.L237)/2
 2455 00fe BD       		.byte	(.L235-.L237)/2
 2456 00ff 6B       		.byte	(.L241-.L237)/2
 2457 0100 BD       		.byte	(.L235-.L237)/2
 2458 0101 BD       		.byte	(.L235-.L237)/2
 2459 0102 90       		.byte	(.L240-.L237)/2
 2460 0103 BD       		.byte	(.L235-.L237)/2
 2461 0104 BD       		.byte	(.L235-.L237)/2
 2462 0105 BD       		.byte	(.L235-.L237)/2
 2463 0106 A4       		.byte	(.L239-.L237)/2
 2464 0107 B8       		.byte	(.L238-.L237)/2
 2465 0108 BD       		.byte	(.L235-.L237)/2
 2466 0109 BD       		.byte	(.L235-.L237)/2
 2467 010a BD       		.byte	(.L235-.L237)/2
 2468 010b BD       		.byte	(.L235-.L237)/2
 2469 010c BD       		.byte	(.L235-.L237)/2
 2470 010d BD       		.byte	(.L235-.L237)/2
 2471 010e 82       		.byte	(.L236-.L237)/2
 2472 010f 00       		.p2align 1
 2473              	.L257:
 754:C:/Users/²Ü¼ÒºÀ/.iotlink/sdk/IoT_LINK/iot_link/network/lwm2m/wakaama_lwm2m/wakaama-master/core/er-coap-13\er-coap-13.c ****         {
 2474              		.loc 1 754 9 is_stmt 0 discriminator 1 view .LVU843
 2475 0110 0123     		movs	r3, #1
 2476 0112 C7E7     		b	.L234
 2477              	.LVL276:
 2478              	.L232:
 729:C:/Users/²Ü¼ÒºÀ/.iotlink/sdk/IoT_LINK/iot_link/network/lwm2m/wakaama_lwm2m/wakaama-master/core/er-coap-13\er-coap-13.c ****             {
 2479              		.loc 1 729 18 is_stmt 1 view .LVU844
 729:C:/Users/²Ü¼ÒºÀ/.iotlink/sdk/IoT_LINK/iot_link/network/lwm2m/wakaama_lwm2m/wakaama-master/core/er-coap-13\er-coap-13.c ****             {
 2480              		.loc 1 729 21 is_stmt 0 view .LVU845
 2481 0114 0E2A     		cmp	r2, #14
 2482 0116 CCD1     		bne	.L233
 731:C:/Users/²Ü¼ÒºÀ/.iotlink/sdk/IoT_LINK/iot_link/network/lwm2m/wakaama_lwm2m/wakaama-master/core/er-coap-13\er-coap-13.c ****                 *x += current_option[0] << 8;
 2483              		.loc 1 731 17 is_stmt 1 view .LVU846
 732:C:/Users/²Ü¼ÒºÀ/.iotlink/sdk/IoT_LINK/iot_link/network/lwm2m/wakaama_lwm2m/wakaama-master/core/er-coap-13\er-coap-13.c ****                 ++current_option;
ARM GAS  C:\Users\²Ü¼ÒºÀ\AppData\Local\Temp\cczrlpTg.s 			page 66


 2484              		.loc 1 732 17 view .LVU847
 733:C:/Users/²Ü¼ÒºÀ/.iotlink/sdk/IoT_LINK/iot_link/network/lwm2m/wakaama_lwm2m/wakaama-master/core/er-coap-13\er-coap-13.c ****                 *x += current_option[0];
 2485              		.loc 1 733 17 view .LVU848
 2486              	.LVL277:
 734:C:/Users/²Ü¼ÒºÀ/.iotlink/sdk/IoT_LINK/iot_link/network/lwm2m/wakaama_lwm2m/wakaama-master/core/er-coap-13\er-coap-13.c ****                 ++current_option;
 2487              		.loc 1 734 17 view .LVU849
 734:C:/Users/²Ü¼ÒºÀ/.iotlink/sdk/IoT_LINK/iot_link/network/lwm2m/wakaama_lwm2m/wakaama-master/core/er-coap-13\er-coap-13.c ****                 ++current_option;
 2488              		.loc 1 734 37 is_stmt 0 view .LVU850
 2489 0118 4278     		ldrb	r2, [r0, #1]	@ zero_extendqisi2
 732:C:/Users/²Ü¼ÒºÀ/.iotlink/sdk/IoT_LINK/iot_link/network/lwm2m/wakaama_lwm2m/wakaama-master/core/er-coap-13\er-coap-13.c ****                 ++current_option;
 2490              		.loc 1 732 37 view .LVU851
 2491 011a 0678     		ldrb	r6, [r0]	@ zero_extendqisi2
 734:C:/Users/²Ü¼ÒºÀ/.iotlink/sdk/IoT_LINK/iot_link/network/lwm2m/wakaama_lwm2m/wakaama-master/core/er-coap-13\er-coap-13.c ****                 ++current_option;
 2492              		.loc 1 734 20 view .LVU852
 2493 011c 02F20D12 		addw	r2, r2, #269
 2494 0120 02EB0622 		add	r2, r2, r6, lsl #8
 2495 0124 0A60     		str	r2, [r1]
 735:C:/Users/²Ü¼ÒºÀ/.iotlink/sdk/IoT_LINK/iot_link/network/lwm2m/wakaama_lwm2m/wakaama-master/core/er-coap-13\er-coap-13.c ****             }
 2496              		.loc 1 735 17 is_stmt 1 view .LVU853
 2497 0126 0230     		adds	r0, r0, #2
 2498              	.LVL278:
 735:C:/Users/²Ü¼ÒºÀ/.iotlink/sdk/IoT_LINK/iot_link/network/lwm2m/wakaama_lwm2m/wakaama-master/core/er-coap-13\er-coap-13.c ****             }
 2499              		.loc 1 735 17 is_stmt 0 view .LVU854
 2500 0128 C3E7     		b	.L233
 2501              	.LVL279:
 2502              	.L245:
 757:C:/Users/²Ü¼ÒºÀ/.iotlink/sdk/IoT_LINK/iot_link/network/lwm2m/wakaama_lwm2m/wakaama-master/core/er-coap-13\er-coap-13.c ****             PRINTF("Content-Format [%u]\n", coap_pkt->content_type);
 2503              		.loc 1 757 13 is_stmt 1 view .LVU855
 757:C:/Users/²Ü¼ÒºÀ/.iotlink/sdk/IoT_LINK/iot_link/network/lwm2m/wakaama_lwm2m/wakaama-master/core/er-coap-13\er-coap-13.c ****             PRINTF("Content-Format [%u]\n", coap_pkt->content_type);
 2504              		.loc 1 757 59 is_stmt 0 view .LVU856
 2505 012a 1146     		mov	r1, r2
 2506 012c FFF7FEFF 		bl	coap_parse_int_option
 2507              	.LVL280:
 757:C:/Users/²Ü¼ÒºÀ/.iotlink/sdk/IoT_LINK/iot_link/network/lwm2m/wakaama_lwm2m/wakaama-master/core/er-coap-13\er-coap-13.c ****             PRINTF("Content-Format [%u]\n", coap_pkt->content_type);
 2508              		.loc 1 757 38 view .LVU857
 2509 0130 2082     		strh	r0, [r4, #16]	@ movhi
 758:C:/Users/²Ü¼ÒºÀ/.iotlink/sdk/IoT_LINK/iot_link/network/lwm2m/wakaama_lwm2m/wakaama-master/core/er-coap-13\er-coap-13.c ****             break;
 2510              		.loc 1 758 68 is_stmt 1 view .LVU858
 759:C:/Users/²Ü¼ÒºÀ/.iotlink/sdk/IoT_LINK/iot_link/network/lwm2m/wakaama_lwm2m/wakaama-master/core/er-coap-13\er-coap-13.c ****         case COAP_OPTION_MAX_AGE:
 2511              		.loc 1 759 13 view .LVU859
 2512 0132 9EE7     		b	.L230
 2513              	.LVL281:
 2514              	.L244:
 761:C:/Users/²Ü¼ÒºÀ/.iotlink/sdk/IoT_LINK/iot_link/network/lwm2m/wakaama_lwm2m/wakaama-master/core/er-coap-13\er-coap-13.c ****             PRINTF("Max-Age [%lu]\n", coap_pkt->max_age);
 2515              		.loc 1 761 13 view .LVU860
 761:C:/Users/²Ü¼ÒºÀ/.iotlink/sdk/IoT_LINK/iot_link/network/lwm2m/wakaama_lwm2m/wakaama-master/core/er-coap-13\er-coap-13.c ****             PRINTF("Max-Age [%lu]\n", coap_pkt->max_age);
 2516              		.loc 1 761 33 is_stmt 0 view .LVU861
 2517 0134 1146     		mov	r1, r2
 2518 0136 FFF7FEFF 		bl	coap_parse_int_option
 2519              	.LVL282:
 761:C:/Users/²Ü¼ÒºÀ/.iotlink/sdk/IoT_LINK/iot_link/network/lwm2m/wakaama_lwm2m/wakaama-master/core/er-coap-13\er-coap-13.c ****             PRINTF("Max-Age [%lu]\n", coap_pkt->max_age);
 2520              		.loc 1 761 31 view .LVU862
 2521 013a 6061     		str	r0, [r4, #20]
 762:C:/Users/²Ü¼ÒºÀ/.iotlink/sdk/IoT_LINK/iot_link/network/lwm2m/wakaama_lwm2m/wakaama-master/core/er-coap-13\er-coap-13.c ****             break;
 2522              		.loc 1 762 57 is_stmt 1 view .LVU863
 763:C:/Users/²Ü¼ÒºÀ/.iotlink/sdk/IoT_LINK/iot_link/network/lwm2m/wakaama_lwm2m/wakaama-master/core/er-coap-13\er-coap-13.c ****         case COAP_OPTION_ETAG:
 2523              		.loc 1 763 13 view .LVU864
ARM GAS  C:\Users\²Ü¼ÒºÀ\AppData\Local\Temp\cczrlpTg.s 			page 67


 2524 013c 99E7     		b	.L230
 2525              	.LVL283:
 2526              	.L251:
 765:C:/Users/²Ü¼ÒºÀ/.iotlink/sdk/IoT_LINK/iot_link/network/lwm2m/wakaama_lwm2m/wakaama-master/core/er-coap-13\er-coap-13.c ****             memcpy(coap_pkt->etag, current_option, coap_pkt->etag_len);
 2527              		.loc 1 765 13 view .LVU865
 2528 013e 082A     		cmp	r2, #8
 2529 0140 28BF     		it	cs
 2530 0142 0822     		movcs	r2, #8
 766:C:/Users/²Ü¼ÒºÀ/.iotlink/sdk/IoT_LINK/iot_link/network/lwm2m/wakaama_lwm2m/wakaama-master/core/er-coap-13\er-coap-13.c ****             PRINTF("ETag %u [0x%02X%02X%02X%02X%02X%02X%02X%02X]\n", coap_pkt->etag_len,
 2531              		.loc 1 766 13 is_stmt 0 view .LVU866
 2532 0144 0146     		mov	r1, r0
 765:C:/Users/²Ü¼ÒºÀ/.iotlink/sdk/IoT_LINK/iot_link/network/lwm2m/wakaama_lwm2m/wakaama-master/core/er-coap-13\er-coap-13.c ****             memcpy(coap_pkt->etag, current_option, coap_pkt->etag_len);
 2533              		.loc 1 765 32 view .LVU867
 2534 0146 84F82020 		strb	r2, [r4, #32]
 766:C:/Users/²Ü¼ÒºÀ/.iotlink/sdk/IoT_LINK/iot_link/network/lwm2m/wakaama_lwm2m/wakaama-master/core/er-coap-13\er-coap-13.c ****             PRINTF("ETag %u [0x%02X%02X%02X%02X%02X%02X%02X%02X]\n", coap_pkt->etag_len,
 2535              		.loc 1 766 13 is_stmt 1 view .LVU868
 2536 014a 04F12100 		add	r0, r4, #33
 2537              	.LVL284:
 2538              	.L265:
 789:C:/Users/²Ü¼ÒºÀ/.iotlink/sdk/IoT_LINK/iot_link/network/lwm2m/wakaama_lwm2m/wakaama-master/core/er-coap-13\er-coap-13.c ****             PRINTF("If-Match %u [0x%02X%02X%02X%02X%02X%02X%02X%02X]\n", coap_pkt->if_match_len,
 2539              		.loc 1 789 13 is_stmt 0 view .LVU869
 2540 014e FFF7FEFF 		bl	memcpy
 2541              	.LVL285:
 799:C:/Users/²Ü¼ÒºÀ/.iotlink/sdk/IoT_LINK/iot_link/network/lwm2m/wakaama_lwm2m/wakaama-master/core/er-coap-13\er-coap-13.c ****             break;
 2542              		.loc 1 799 20 is_stmt 1 view .LVU870
 800:C:/Users/²Ü¼ÒºÀ/.iotlink/sdk/IoT_LINK/iot_link/network/lwm2m/wakaama_lwm2m/wakaama-master/core/er-coap-13\er-coap-13.c ****         case COAP_OPTION_IF_NONE_MATCH:
 2543              		.loc 1 800 13 view .LVU871
 2544 0152 8EE7     		b	.L230
 2545              	.LVL286:
 2546              	.L242:
 779:C:/Users/²Ü¼ÒºÀ/.iotlink/sdk/IoT_LINK/iot_link/network/lwm2m/wakaama_lwm2m/wakaama-master/core/er-coap-13\er-coap-13.c ****             {
 2547              		.loc 1 779 13 view .LVU872
 779:C:/Users/²Ü¼ÒºÀ/.iotlink/sdk/IoT_LINK/iot_link/network/lwm2m/wakaama_lwm2m/wakaama-master/core/er-coap-13\er-coap-13.c ****             {
 2548              		.loc 1 779 25 is_stmt 0 view .LVU873
 2549 0154 94F855A0 		ldrb	r10, [r4, #85]	@ zero_extendqisi2
 779:C:/Users/²Ü¼ÒºÀ/.iotlink/sdk/IoT_LINK/iot_link/network/lwm2m/wakaama_lwm2m/wakaama-master/core/er-coap-13\er-coap-13.c ****             {
 2550              		.loc 1 779 16 view .LVU874
 2551 0158 BAF1010F 		cmp	r10, #1
 2552 015c 89D8     		bhi	.L230
 781:C:/Users/²Ü¼ÒºÀ/.iotlink/sdk/IoT_LINK/iot_link/network/lwm2m/wakaama_lwm2m/wakaama-master/core/er-coap-13\er-coap-13.c ****                 coap_pkt->accept_num += 1;
 2553              		.loc 1 781 17 is_stmt 1 view .LVU875
 781:C:/Users/²Ü¼ÒºÀ/.iotlink/sdk/IoT_LINK/iot_link/network/lwm2m/wakaama_lwm2m/wakaama-master/core/er-coap-13\er-coap-13.c ****                 coap_pkt->accept_num += 1;
 2554              		.loc 1 781 58 is_stmt 0 view .LVU876
 2555 015e 1146     		mov	r1, r2
 2556 0160 FFF7FEFF 		bl	coap_parse_int_option
 2557              	.LVL287:
 781:C:/Users/²Ü¼ÒºÀ/.iotlink/sdk/IoT_LINK/iot_link/network/lwm2m/wakaama_lwm2m/wakaama-master/core/er-coap-13\er-coap-13.c ****                 coap_pkt->accept_num += 1;
 2558              		.loc 1 781 56 view .LVU877
 2559 0164 04EB4A03 		add	r3, r4, r10, lsl #1
 782:C:/Users/²Ü¼ÒºÀ/.iotlink/sdk/IoT_LINK/iot_link/network/lwm2m/wakaama_lwm2m/wakaama-master/core/er-coap-13\er-coap-13.c ****                 PRINTF("Accept [%u]\n", coap_pkt->content_type);
 2560              		.loc 1 782 38 view .LVU878
 2561 0168 0AF1010A 		add	r10, r10, #1
 781:C:/Users/²Ü¼ÒºÀ/.iotlink/sdk/IoT_LINK/iot_link/network/lwm2m/wakaama_lwm2m/wakaama-master/core/er-coap-13\er-coap-13.c ****                 coap_pkt->accept_num += 1;
 2562              		.loc 1 781 56 view .LVU879
 2563 016c A3F85600 		strh	r0, [r3, #86]	@ movhi
 782:C:/Users/²Ü¼ÒºÀ/.iotlink/sdk/IoT_LINK/iot_link/network/lwm2m/wakaama_lwm2m/wakaama-master/core/er-coap-13\er-coap-13.c ****                 PRINTF("Accept [%u]\n", coap_pkt->content_type);
 2564              		.loc 1 782 17 is_stmt 1 view .LVU880
ARM GAS  C:\Users\²Ü¼ÒºÀ\AppData\Local\Temp\cczrlpTg.s 			page 68


 782:C:/Users/²Ü¼ÒºÀ/.iotlink/sdk/IoT_LINK/iot_link/network/lwm2m/wakaama_lwm2m/wakaama-master/core/er-coap-13\er-coap-13.c ****                 PRINTF("Accept [%u]\n", coap_pkt->content_type);
 2565              		.loc 1 782 38 is_stmt 0 view .LVU881
 2566 0170 84F855A0 		strb	r10, [r4, #85]
 2567 0174 7DE7     		b	.L230
 2568              	.LVL288:
 2569              	.L253:
 788:C:/Users/²Ü¼ÒºÀ/.iotlink/sdk/IoT_LINK/iot_link/network/lwm2m/wakaama_lwm2m/wakaama-master/core/er-coap-13\er-coap-13.c ****             memcpy(coap_pkt->if_match, current_option, coap_pkt->if_match_len);
 2570              		.loc 1 788 13 is_stmt 1 view .LVU882
 2571 0176 082A     		cmp	r2, #8
 2572 0178 28BF     		it	cs
 2573 017a 0822     		movcs	r2, #8
 789:C:/Users/²Ü¼ÒºÀ/.iotlink/sdk/IoT_LINK/iot_link/network/lwm2m/wakaama_lwm2m/wakaama-master/core/er-coap-13\er-coap-13.c ****             PRINTF("If-Match %u [0x%02X%02X%02X%02X%02X%02X%02X%02X]\n", coap_pkt->if_match_len,
 2574              		.loc 1 789 13 is_stmt 0 view .LVU883
 2575 017c 0146     		mov	r1, r0
 788:C:/Users/²Ü¼ÒºÀ/.iotlink/sdk/IoT_LINK/iot_link/network/lwm2m/wakaama_lwm2m/wakaama-master/core/er-coap-13\er-coap-13.c ****             memcpy(coap_pkt->if_match, current_option, coap_pkt->if_match_len);
 2576              		.loc 1 788 36 view .LVU884
 2577 017e 84F85A20 		strb	r2, [r4, #90]
 789:C:/Users/²Ü¼ÒºÀ/.iotlink/sdk/IoT_LINK/iot_link/network/lwm2m/wakaama_lwm2m/wakaama-master/core/er-coap-13\er-coap-13.c ****             PRINTF("If-Match %u [0x%02X%02X%02X%02X%02X%02X%02X%02X]\n", coap_pkt->if_match_len,
 2578              		.loc 1 789 13 is_stmt 1 view .LVU885
 2579 0182 04F15B00 		add	r0, r4, #91
 2580              	.LVL289:
 789:C:/Users/²Ü¼ÒºÀ/.iotlink/sdk/IoT_LINK/iot_link/network/lwm2m/wakaama_lwm2m/wakaama-master/core/er-coap-13\er-coap-13.c ****             PRINTF("If-Match %u [0x%02X%02X%02X%02X%02X%02X%02X%02X]\n", coap_pkt->if_match_len,
 2581              		.loc 1 789 13 is_stmt 0 view .LVU886
 2582 0186 E2E7     		b	.L265
 2583              	.LVL290:
 2584              	.L250:
 802:C:/Users/²Ü¼ÒºÀ/.iotlink/sdk/IoT_LINK/iot_link/network/lwm2m/wakaama_lwm2m/wakaama-master/core/er-coap-13\er-coap-13.c ****             PRINTF("If-None-Match\n");
 2585              		.loc 1 802 13 is_stmt 1 view .LVU887
 802:C:/Users/²Ü¼ÒºÀ/.iotlink/sdk/IoT_LINK/iot_link/network/lwm2m/wakaama_lwm2m/wakaama-master/core/er-coap-13\er-coap-13.c ****             PRINTF("If-None-Match\n");
 2586              		.loc 1 802 37 is_stmt 0 view .LVU888
 2587 0188 0123     		movs	r3, #1
 2588 018a 84F88430 		strb	r3, [r4, #132]
 803:C:/Users/²Ü¼ÒºÀ/.iotlink/sdk/IoT_LINK/iot_link/network/lwm2m/wakaama_lwm2m/wakaama-master/core/er-coap-13\er-coap-13.c ****             break;
 2589              		.loc 1 803 38 is_stmt 1 view .LVU889
 804:C:/Users/²Ü¼ÒºÀ/.iotlink/sdk/IoT_LINK/iot_link/network/lwm2m/wakaama_lwm2m/wakaama-master/core/er-coap-13\er-coap-13.c **** 
 2590              		.loc 1 804 13 view .LVU890
 2591 018e 70E7     		b	.L230
 2592              	.L252:
 807:C:/Users/²Ü¼ÒºÀ/.iotlink/sdk/IoT_LINK/iot_link/network/lwm2m/wakaama_lwm2m/wakaama-master/core/er-coap-13\er-coap-13.c ****             coap_pkt->uri_host_len = option_length;
 2593              		.loc 1 807 13 view .LVU891
 808:C:/Users/²Ü¼ÒºÀ/.iotlink/sdk/IoT_LINK/iot_link/network/lwm2m/wakaama_lwm2m/wakaama-master/core/er-coap-13\er-coap-13.c ****             PRINTF("Uri-Host [%.*s]\n", coap_pkt->uri_host_len, coap_pkt->uri_host);
 2594              		.loc 1 808 36 is_stmt 0 view .LVU892
 2595 0190 C4E90B20 		strd	r2, r0, [r4, #44]
 809:C:/Users/²Ü¼ÒºÀ/.iotlink/sdk/IoT_LINK/iot_link/network/lwm2m/wakaama_lwm2m/wakaama-master/core/er-coap-13\er-coap-13.c ****             break;
 2596              		.loc 1 809 84 is_stmt 1 view .LVU893
 810:C:/Users/²Ü¼ÒºÀ/.iotlink/sdk/IoT_LINK/iot_link/network/lwm2m/wakaama_lwm2m/wakaama-master/core/er-coap-13\er-coap-13.c ****         case COAP_OPTION_URI_PORT:
 2597              		.loc 1 810 13 view .LVU894
 2598 0194 6DE7     		b	.L230
 2599              	.L248:
 812:C:/Users/²Ü¼ÒºÀ/.iotlink/sdk/IoT_LINK/iot_link/network/lwm2m/wakaama_lwm2m/wakaama-master/core/er-coap-13\er-coap-13.c ****             PRINTF("Uri-Port [%u]\n", coap_pkt->uri_port);
 2600              		.loc 1 812 13 view .LVU895
 812:C:/Users/²Ü¼ÒºÀ/.iotlink/sdk/IoT_LINK/iot_link/network/lwm2m/wakaama_lwm2m/wakaama-master/core/er-coap-13\er-coap-13.c ****             PRINTF("Uri-Port [%u]\n", coap_pkt->uri_port);
 2601              		.loc 1 812 34 is_stmt 0 view .LVU896
 2602 0196 1146     		mov	r1, r2
 2603 0198 FFF7FEFF 		bl	coap_parse_int_option
 2604              	.LVL291:
 812:C:/Users/²Ü¼ÒºÀ/.iotlink/sdk/IoT_LINK/iot_link/network/lwm2m/wakaama_lwm2m/wakaama-master/core/er-coap-13\er-coap-13.c ****             PRINTF("Uri-Port [%u]\n", coap_pkt->uri_port);
ARM GAS  C:\Users\²Ü¼ÒºÀ\AppData\Local\Temp\cczrlpTg.s 			page 69


 2605              		.loc 1 812 32 view .LVU897
 2606 019c 2087     		strh	r0, [r4, #56]	@ movhi
 813:C:/Users/²Ü¼ÒºÀ/.iotlink/sdk/IoT_LINK/iot_link/network/lwm2m/wakaama_lwm2m/wakaama-master/core/er-coap-13\er-coap-13.c ****             break;
 2607              		.loc 1 813 58 is_stmt 1 view .LVU898
 814:C:/Users/²Ü¼ÒºÀ/.iotlink/sdk/IoT_LINK/iot_link/network/lwm2m/wakaama_lwm2m/wakaama-master/core/er-coap-13\er-coap-13.c ****         case COAP_OPTION_URI_PATH:
 2608              		.loc 1 814 13 view .LVU899
 2609 019e 68E7     		b	.L230
 2610              	.LVL292:
 2611              	.L246:
 818:C:/Users/²Ü¼ÒºÀ/.iotlink/sdk/IoT_LINK/iot_link/network/lwm2m/wakaama_lwm2m/wakaama-master/core/er-coap-13\er-coap-13.c ****             PRINTF("Uri-Path [%.*s]\n", option_length, current_option);
 2612              		.loc 1 818 13 view .LVU900
 2613 01a0 0146     		mov	r1, r0
 2614 01a2 0123     		movs	r3, #1
 2615 01a4 04F14400 		add	r0, r4, #68
 2616              	.LVL293:
 2617              	.L266:
 824:C:/Users/²Ü¼ÒºÀ/.iotlink/sdk/IoT_LINK/iot_link/network/lwm2m/wakaama_lwm2m/wakaama-master/core/er-coap-13\er-coap-13.c ****             PRINTF("Uri-Query [%.*s]\n", option_length, current_option);
 2618              		.loc 1 824 13 is_stmt 0 view .LVU901
 2619 01a8 FFF7FEFF 		bl	coap_add_multi_option
 2620              	.LVL294:
 825:C:/Users/²Ü¼ÒºÀ/.iotlink/sdk/IoT_LINK/iot_link/network/lwm2m/wakaama_lwm2m/wakaama-master/core/er-coap-13\er-coap-13.c ****             break;
 2621              		.loc 1 825 72 is_stmt 1 view .LVU902
 826:C:/Users/²Ü¼ÒºÀ/.iotlink/sdk/IoT_LINK/iot_link/network/lwm2m/wakaama_lwm2m/wakaama-master/core/er-coap-13\er-coap-13.c **** 
 2622              		.loc 1 826 13 view .LVU903
 2623 01ac 61E7     		b	.L230
 2624              	.LVL295:
 2625              	.L243:
 824:C:/Users/²Ü¼ÒºÀ/.iotlink/sdk/IoT_LINK/iot_link/network/lwm2m/wakaama_lwm2m/wakaama-master/core/er-coap-13\er-coap-13.c ****             PRINTF("Uri-Query [%.*s]\n", option_length, current_option);
 2626              		.loc 1 824 13 view .LVU904
 2627 01ae 0146     		mov	r1, r0
 2628 01b0 0123     		movs	r3, #1
 2629 01b2 04F18000 		add	r0, r4, #128
 2630              	.LVL296:
 824:C:/Users/²Ü¼ÒºÀ/.iotlink/sdk/IoT_LINK/iot_link/network/lwm2m/wakaama_lwm2m/wakaama-master/core/er-coap-13\er-coap-13.c ****             PRINTF("Uri-Query [%.*s]\n", option_length, current_option);
 2631              		.loc 1 824 13 is_stmt 0 view .LVU905
 2632 01b6 F7E7     		b	.L266
 2633              	.LVL297:
 2634              	.L247:
 829:C:/Users/²Ü¼ÒºÀ/.iotlink/sdk/IoT_LINK/iot_link/network/lwm2m/wakaama_lwm2m/wakaama-master/core/er-coap-13\er-coap-13.c ****             break;
 2635              		.loc 1 829 13 is_stmt 1 view .LVU906
 2636 01b8 0146     		mov	r1, r0
 2637 01ba 0123     		movs	r3, #1
 2638 01bc 04F13400 		add	r0, r4, #52
 2639              	.LVL298:
 829:C:/Users/²Ü¼ÒºÀ/.iotlink/sdk/IoT_LINK/iot_link/network/lwm2m/wakaama_lwm2m/wakaama-master/core/er-coap-13\er-coap-13.c ****             break;
 2640              		.loc 1 829 13 is_stmt 0 view .LVU907
 2641 01c0 F2E7     		b	.L266
 2642              	.LVL299:
 2643              	.L241:
 833:C:/Users/²Ü¼ÒºÀ/.iotlink/sdk/IoT_LINK/iot_link/network/lwm2m/wakaama_lwm2m/wakaama-master/core/er-coap-13\er-coap-13.c ****             PRINTF("Location-Query [%.*s]\n", option_length, current_option);
 2644              		.loc 1 833 13 is_stmt 1 view .LVU908
 2645              	.LBB96:
 2646              	.LBI96:
 270:C:/Users/²Ü¼ÒºÀ/.iotlink/sdk/IoT_LINK/iot_link/network/lwm2m/wakaama_lwm2m/wakaama-master/core/er-coap-13\er-coap-13.c **** {
 2647              		.loc 1 270 1 view .LVU909
 2648              	.LBB97:
 273:C:/Users/²Ü¼ÒºÀ/.iotlink/sdk/IoT_LINK/iot_link/network/lwm2m/wakaama_lwm2m/wakaama-master/core/er-coap-13\er-coap-13.c ****     {
ARM GAS  C:\Users\²Ü¼ÒºÀ\AppData\Local\Temp\cczrlpTg.s 			page 70


 2649              		.loc 1 273 5 view .LVU910
 273:C:/Users/²Ü¼ÒºÀ/.iotlink/sdk/IoT_LINK/iot_link/network/lwm2m/wakaama_lwm2m/wakaama-master/core/er-coap-13\er-coap-13.c ****     {
 2650              		.loc 1 273 9 is_stmt 0 view .LVU911
 2651 01c2 E36B     		ldr	r3, [r4, #60]
 273:C:/Users/²Ü¼ÒºÀ/.iotlink/sdk/IoT_LINK/iot_link/network/lwm2m/wakaama_lwm2m/wakaama-master/core/er-coap-13\er-coap-13.c ****     {
 2652              		.loc 1 273 8 view .LVU912
 2653 01c4 93B1     		cbz	r3, .L255
 276:C:/Users/²Ü¼ÒºÀ/.iotlink/sdk/IoT_LINK/iot_link/network/lwm2m/wakaama_lwm2m/wakaama-master/core/er-coap-13\er-coap-13.c ****         *dst_len += 1;
 2654              		.loc 1 276 9 is_stmt 1 view .LVU913
 276:C:/Users/²Ü¼ÒºÀ/.iotlink/sdk/IoT_LINK/iot_link/network/lwm2m/wakaama_lwm2m/wakaama-master/core/er-coap-13\er-coap-13.c ****         *dst_len += 1;
 2655              		.loc 1 276 26 is_stmt 0 view .LVU914
 2656 01c6 216C     		ldr	r1, [r4, #64]
 280:C:/Users/²Ü¼ÒºÀ/.iotlink/sdk/IoT_LINK/iot_link/network/lwm2m/wakaama_lwm2m/wakaama-master/core/er-coap-13\er-coap-13.c **** 
 2657              		.loc 1 280 9 view .LVU915
 2658 01c8 0192     		str	r2, [sp, #4]
 276:C:/Users/²Ü¼ÒºÀ/.iotlink/sdk/IoT_LINK/iot_link/network/lwm2m/wakaama_lwm2m/wakaama-master/core/er-coap-13\er-coap-13.c ****         *dst_len += 1;
 2659              		.loc 1 276 26 view .LVU916
 2660 01ca 4FF0260C 		mov	ip, #38
 2661 01ce 01F803C0 		strb	ip, [r1, r3]
 277:C:/Users/²Ü¼ÒºÀ/.iotlink/sdk/IoT_LINK/iot_link/network/lwm2m/wakaama_lwm2m/wakaama-master/core/er-coap-13\er-coap-13.c **** 
 2662              		.loc 1 277 9 is_stmt 1 view .LVU917
 277:C:/Users/²Ü¼ÒºÀ/.iotlink/sdk/IoT_LINK/iot_link/network/lwm2m/wakaama_lwm2m/wakaama-master/core/er-coap-13\er-coap-13.c **** 
 2663              		.loc 1 277 18 is_stmt 0 view .LVU918
 2664 01d2 E36B     		ldr	r3, [r4, #60]
 280:C:/Users/²Ü¼ÒºÀ/.iotlink/sdk/IoT_LINK/iot_link/network/lwm2m/wakaama_lwm2m/wakaama-master/core/er-coap-13\er-coap-13.c **** 
 2665              		.loc 1 280 9 view .LVU919
 2666 01d4 0146     		mov	r1, r0
 2667 01d6 206C     		ldr	r0, [r4, #64]
 2668              	.LVL300:
 277:C:/Users/²Ü¼ÒºÀ/.iotlink/sdk/IoT_LINK/iot_link/network/lwm2m/wakaama_lwm2m/wakaama-master/core/er-coap-13\er-coap-13.c **** 
 2669              		.loc 1 277 18 view .LVU920
 2670 01d8 0133     		adds	r3, r3, #1
 2671 01da E363     		str	r3, [r4, #60]
 280:C:/Users/²Ü¼ÒºÀ/.iotlink/sdk/IoT_LINK/iot_link/network/lwm2m/wakaama_lwm2m/wakaama-master/core/er-coap-13\er-coap-13.c **** 
 2672              		.loc 1 280 9 is_stmt 1 view .LVU921
 2673 01dc 1844     		add	r0, r0, r3
 2674 01de FFF7FEFF 		bl	memmove
 2675              	.LVL301:
 282:C:/Users/²Ü¼ÒºÀ/.iotlink/sdk/IoT_LINK/iot_link/network/lwm2m/wakaama_lwm2m/wakaama-master/core/er-coap-13\er-coap-13.c ****     }
 2676              		.loc 1 282 9 view .LVU922
 282:C:/Users/²Ü¼ÒºÀ/.iotlink/sdk/IoT_LINK/iot_link/network/lwm2m/wakaama_lwm2m/wakaama-master/core/er-coap-13\er-coap-13.c ****     }
 2677              		.loc 1 282 18 is_stmt 0 view .LVU923
 2678 01e2 E36B     		ldr	r3, [r4, #60]
 2679 01e4 019A     		ldr	r2, [sp, #4]
 2680 01e6 1A44     		add	r2, r2, r3
 2681              	.LVL302:
 2682              	.L267:
 288:C:/Users/²Ü¼ÒºÀ/.iotlink/sdk/IoT_LINK/iot_link/network/lwm2m/wakaama_lwm2m/wakaama-master/core/er-coap-13\er-coap-13.c ****     }
 2683              		.loc 1 288 9 is_stmt 1 view .LVU924
 288:C:/Users/²Ü¼ÒºÀ/.iotlink/sdk/IoT_LINK/iot_link/network/lwm2m/wakaama_lwm2m/wakaama-master/core/er-coap-13\er-coap-13.c ****     }
 2684              		.loc 1 288 18 is_stmt 0 view .LVU925
 2685 01e8 E263     		str	r2, [r4, #60]
 2686 01ea 42E7     		b	.L230
 2687              	.LVL303:
 2688              	.L255:
 287:C:/Users/²Ü¼ÒºÀ/.iotlink/sdk/IoT_LINK/iot_link/network/lwm2m/wakaama_lwm2m/wakaama-master/core/er-coap-13\er-coap-13.c ****         *dst_len = option_len;
 2689              		.loc 1 287 9 is_stmt 1 view .LVU926
ARM GAS  C:\Users\²Ü¼ÒºÀ\AppData\Local\Temp\cczrlpTg.s 			page 71


 287:C:/Users/²Ü¼ÒºÀ/.iotlink/sdk/IoT_LINK/iot_link/network/lwm2m/wakaama_lwm2m/wakaama-master/core/er-coap-13\er-coap-13.c ****         *dst_len = option_len;
 2690              		.loc 1 287 14 is_stmt 0 view .LVU927
 2691 01ec 2064     		str	r0, [r4, #64]
 2692 01ee FBE7     		b	.L267
 2693              	.LVL304:
 2694              	.L236:
 287:C:/Users/²Ü¼ÒºÀ/.iotlink/sdk/IoT_LINK/iot_link/network/lwm2m/wakaama_lwm2m/wakaama-master/core/er-coap-13\er-coap-13.c ****         *dst_len = option_len;
 2695              		.loc 1 287 14 view .LVU928
 2696              	.LBE97:
 2697              	.LBE96:
 839:C:/Users/²Ü¼ÒºÀ/.iotlink/sdk/IoT_LINK/iot_link/network/lwm2m/wakaama_lwm2m/wakaama-master/core/er-coap-13\er-coap-13.c ****             coap_pkt->proxy_uri_len = option_length;
 2698              		.loc 1 839 13 is_stmt 1 view .LVU929
 843:C:/Users/²Ü¼ÒºÀ/.iotlink/sdk/IoT_LINK/iot_link/network/lwm2m/wakaama_lwm2m/wakaama-master/core/er-coap-13\er-coap-13.c ****             return PROXYING_NOT_SUPPORTED_5_05;
 2699              		.loc 1 843 32 is_stmt 0 view .LVU930
 2700 01f0 214B     		ldr	r3, .L269
 840:C:/Users/²Ü¼ÒºÀ/.iotlink/sdk/IoT_LINK/iot_link/network/lwm2m/wakaama_lwm2m/wakaama-master/core/er-coap-13\er-coap-13.c ****             /*TODO length > 270 not implemented (actually not required) */
 2701              		.loc 1 840 37 view .LVU931
 2702 01f2 C4E90620 		strd	r2, r0, [r4, #24]
 842:C:/Users/²Ü¼ÒºÀ/.iotlink/sdk/IoT_LINK/iot_link/network/lwm2m/wakaama_lwm2m/wakaama-master/core/er-coap-13\er-coap-13.c ****             coap_error_message = "This is a constrained server (Contiki)";
 2703              		.loc 1 842 103 is_stmt 1 view .LVU932
 843:C:/Users/²Ü¼ÒºÀ/.iotlink/sdk/IoT_LINK/iot_link/network/lwm2m/wakaama_lwm2m/wakaama-master/core/er-coap-13\er-coap-13.c ****             return PROXYING_NOT_SUPPORTED_5_05;
 2704              		.loc 1 843 13 view .LVU933
 843:C:/Users/²Ü¼ÒºÀ/.iotlink/sdk/IoT_LINK/iot_link/network/lwm2m/wakaama_lwm2m/wakaama-master/core/er-coap-13\er-coap-13.c ****             return PROXYING_NOT_SUPPORTED_5_05;
 2705              		.loc 1 843 32 is_stmt 0 view .LVU934
 2706 01f6 224A     		ldr	r2, .L269+8
 2707 01f8 1A60     		str	r2, [r3]
 844:C:/Users/²Ü¼ÒºÀ/.iotlink/sdk/IoT_LINK/iot_link/network/lwm2m/wakaama_lwm2m/wakaama-master/core/er-coap-13\er-coap-13.c ****         //        break;
 2708              		.loc 1 844 13 is_stmt 1 view .LVU935
 844:C:/Users/²Ü¼ÒºÀ/.iotlink/sdk/IoT_LINK/iot_link/network/lwm2m/wakaama_lwm2m/wakaama-master/core/er-coap-13\er-coap-13.c ****         //        break;
 2709              		.loc 1 844 20 is_stmt 0 view .LVU936
 2710 01fa A520     		movs	r0, #165
 2711              	.LVL305:
 2712              	.L228:
 888:C:/Users/²Ü¼ÒºÀ/.iotlink/sdk/IoT_LINK/iot_link/network/lwm2m/wakaama_lwm2m/wakaama-master/core/er-coap-13\er-coap-13.c **** }
 2713              		.loc 1 888 1 view .LVU937
 2714 01fc 04B0     		add	sp, sp, #16
 2715              	.LCFI19:
 2716              		.cfi_remember_state
 2717              		.cfi_def_cfa_offset 32
 2718              		@ sp needed
 2719 01fe BDE8F087 		pop	{r4, r5, r6, r7, r8, r9, r10, pc}
 2720              	.LVL306:
 2721              	.L249:
 2722              	.LCFI20:
 2723              		.cfi_restore_state
 848:C:/Users/²Ü¼ÒºÀ/.iotlink/sdk/IoT_LINK/iot_link/network/lwm2m/wakaama_lwm2m/wakaama-master/core/er-coap-13\er-coap-13.c ****             PRINTF("Observe [%lu]\n", coap_pkt->observe);
 2724              		.loc 1 848 13 is_stmt 1 view .LVU938
 848:C:/Users/²Ü¼ÒºÀ/.iotlink/sdk/IoT_LINK/iot_link/network/lwm2m/wakaama_lwm2m/wakaama-master/core/er-coap-13\er-coap-13.c ****             PRINTF("Observe [%lu]\n", coap_pkt->observe);
 2725              		.loc 1 848 33 is_stmt 0 view .LVU939
 2726 0202 1146     		mov	r1, r2
 2727 0204 FFF7FEFF 		bl	coap_parse_int_option
 2728              	.LVL307:
 848:C:/Users/²Ü¼ÒºÀ/.iotlink/sdk/IoT_LINK/iot_link/network/lwm2m/wakaama_lwm2m/wakaama-master/core/er-coap-13\er-coap-13.c ****             PRINTF("Observe [%lu]\n", coap_pkt->observe);
 2729              		.loc 1 848 31 view .LVU940
 2730 0208 A064     		str	r0, [r4, #72]
 849:C:/Users/²Ü¼ÒºÀ/.iotlink/sdk/IoT_LINK/iot_link/network/lwm2m/wakaama_lwm2m/wakaama-master/core/er-coap-13\er-coap-13.c ****             break;
 2731              		.loc 1 849 57 is_stmt 1 view .LVU941
ARM GAS  C:\Users\²Ü¼ÒºÀ\AppData\Local\Temp\cczrlpTg.s 			page 72


 850:C:/Users/²Ü¼ÒºÀ/.iotlink/sdk/IoT_LINK/iot_link/network/lwm2m/wakaama_lwm2m/wakaama-master/core/er-coap-13\er-coap-13.c ****         case COAP_OPTION_BLOCK2:
 2732              		.loc 1 850 13 view .LVU942
 2733 020a 32E7     		b	.L230
 2734              	.LVL308:
 2735              	.L240:
 852:C:/Users/²Ü¼ÒºÀ/.iotlink/sdk/IoT_LINK/iot_link/network/lwm2m/wakaama_lwm2m/wakaama-master/core/er-coap-13\er-coap-13.c ****             coap_pkt->block2_more = (coap_pkt->block2_num & 0x08) >> 3;
 2736              		.loc 1 852 13 view .LVU943
 852:C:/Users/²Ü¼ÒºÀ/.iotlink/sdk/IoT_LINK/iot_link/network/lwm2m/wakaama_lwm2m/wakaama-master/core/er-coap-13\er-coap-13.c ****             coap_pkt->block2_more = (coap_pkt->block2_num & 0x08) >> 3;
 2737              		.loc 1 852 36 is_stmt 0 view .LVU944
 2738 020c 1146     		mov	r1, r2
 2739 020e FFF7FEFF 		bl	coap_parse_int_option
 2740              	.LVL309:
 853:C:/Users/²Ü¼ÒºÀ/.iotlink/sdk/IoT_LINK/iot_link/network/lwm2m/wakaama_lwm2m/wakaama-master/core/er-coap-13\er-coap-13.c ****             coap_pkt->block2_size = 16 << (coap_pkt->block2_num & 0x07);
 2741              		.loc 1 853 13 is_stmt 1 view .LVU945
 853:C:/Users/²Ü¼ÒºÀ/.iotlink/sdk/IoT_LINK/iot_link/network/lwm2m/wakaama_lwm2m/wakaama-master/core/er-coap-13\er-coap-13.c ****             coap_pkt->block2_size = 16 << (coap_pkt->block2_num & 0x07);
 2742              		.loc 1 853 67 is_stmt 0 view .LVU946
 2743 0212 C0F3C003 		ubfx	r3, r0, #3, #1
 854:C:/Users/²Ü¼ÒºÀ/.iotlink/sdk/IoT_LINK/iot_link/network/lwm2m/wakaama_lwm2m/wakaama-master/core/er-coap-13\er-coap-13.c ****             coap_pkt->block2_offset = (coap_pkt->block2_num & ~0x0000000F) << (coap_pkt->block2_num
 2744              		.loc 1 854 65 view .LVU947
 2745 0216 00F00701 		and	r1, r0, #7
 853:C:/Users/²Ü¼ÒºÀ/.iotlink/sdk/IoT_LINK/iot_link/network/lwm2m/wakaama_lwm2m/wakaama-master/core/er-coap-13\er-coap-13.c ****             coap_pkt->block2_size = 16 << (coap_pkt->block2_num & 0x07);
 2746              		.loc 1 853 35 view .LVU948
 2747 021a 84F86830 		strb	r3, [r4, #104]
 854:C:/Users/²Ü¼ÒºÀ/.iotlink/sdk/IoT_LINK/iot_link/network/lwm2m/wakaama_lwm2m/wakaama-master/core/er-coap-13\er-coap-13.c ****             coap_pkt->block2_offset = (coap_pkt->block2_num & ~0x0000000F) << (coap_pkt->block2_num
 2748              		.loc 1 854 13 is_stmt 1 view .LVU949
 854:C:/Users/²Ü¼ÒºÀ/.iotlink/sdk/IoT_LINK/iot_link/network/lwm2m/wakaama_lwm2m/wakaama-master/core/er-coap-13\er-coap-13.c ****             coap_pkt->block2_offset = (coap_pkt->block2_num & ~0x0000000F) << (coap_pkt->block2_num
 2749              		.loc 1 854 40 is_stmt 0 view .LVU950
 2750 021e 1022     		movs	r2, #16
 855:C:/Users/²Ü¼ÒºÀ/.iotlink/sdk/IoT_LINK/iot_link/network/lwm2m/wakaama_lwm2m/wakaama-master/core/er-coap-13\er-coap-13.c ****             coap_pkt->block2_num >>= 4;
 2751              		.loc 1 855 61 view .LVU951
 2752 0220 20F00F03 		bic	r3, r0, #15
 854:C:/Users/²Ü¼ÒºÀ/.iotlink/sdk/IoT_LINK/iot_link/network/lwm2m/wakaama_lwm2m/wakaama-master/core/er-coap-13\er-coap-13.c ****             coap_pkt->block2_offset = (coap_pkt->block2_num & ~0x0000000F) << (coap_pkt->block2_num
 2753              		.loc 1 854 40 view .LVU952
 2754 0224 8A40     		lsls	r2, r2, r1
 855:C:/Users/²Ü¼ÒºÀ/.iotlink/sdk/IoT_LINK/iot_link/network/lwm2m/wakaama_lwm2m/wakaama-master/core/er-coap-13\er-coap-13.c ****             coap_pkt->block2_num >>= 4;
 2755              		.loc 1 855 76 view .LVU953
 2756 0226 8B40     		lsls	r3, r3, r1
 856:C:/Users/²Ü¼ÒºÀ/.iotlink/sdk/IoT_LINK/iot_link/network/lwm2m/wakaama_lwm2m/wakaama-master/core/er-coap-13\er-coap-13.c ****             PRINTF("Block2 [%lu%s (%u B/blk)]\n", coap_pkt->block2_num, coap_pkt->block2_more ? "+"
 2757              		.loc 1 856 34 view .LVU954
 2758 0228 0009     		lsrs	r0, r0, #4
 854:C:/Users/²Ü¼ÒºÀ/.iotlink/sdk/IoT_LINK/iot_link/network/lwm2m/wakaama_lwm2m/wakaama-master/core/er-coap-13\er-coap-13.c ****             coap_pkt->block2_offset = (coap_pkt->block2_num & ~0x0000000F) << (coap_pkt->block2_num
 2759              		.loc 1 854 35 view .LVU955
 2760 022a A4F86A20 		strh	r2, [r4, #106]	@ movhi
 855:C:/Users/²Ü¼ÒºÀ/.iotlink/sdk/IoT_LINK/iot_link/network/lwm2m/wakaama_lwm2m/wakaama-master/core/er-coap-13\er-coap-13.c ****             coap_pkt->block2_num >>= 4;
 2761              		.loc 1 855 13 is_stmt 1 view .LVU956
 855:C:/Users/²Ü¼ÒºÀ/.iotlink/sdk/IoT_LINK/iot_link/network/lwm2m/wakaama_lwm2m/wakaama-master/core/er-coap-13\er-coap-13.c ****             coap_pkt->block2_num >>= 4;
 2762              		.loc 1 855 37 is_stmt 0 view .LVU957
 2763 022e E366     		str	r3, [r4, #108]
 856:C:/Users/²Ü¼ÒºÀ/.iotlink/sdk/IoT_LINK/iot_link/network/lwm2m/wakaama_lwm2m/wakaama-master/core/er-coap-13\er-coap-13.c ****             PRINTF("Block2 [%lu%s (%u B/blk)]\n", coap_pkt->block2_num, coap_pkt->block2_more ? "+"
 2764              		.loc 1 856 13 is_stmt 1 view .LVU958
 856:C:/Users/²Ü¼ÒºÀ/.iotlink/sdk/IoT_LINK/iot_link/network/lwm2m/wakaama_lwm2m/wakaama-master/core/er-coap-13\er-coap-13.c ****             PRINTF("Block2 [%lu%s (%u B/blk)]\n", coap_pkt->block2_num, coap_pkt->block2_more ? "+"
 2765              		.loc 1 856 34 is_stmt 0 view .LVU959
 2766 0230 6066     		str	r0, [r4, #100]
 857:C:/Users/²Ü¼ÒºÀ/.iotlink/sdk/IoT_LINK/iot_link/network/lwm2m/wakaama_lwm2m/wakaama-master/core/er-coap-13\er-coap-13.c ****             break;
 2767              		.loc 1 857 129 is_stmt 1 view .LVU960
 858:C:/Users/²Ü¼ÒºÀ/.iotlink/sdk/IoT_LINK/iot_link/network/lwm2m/wakaama_lwm2m/wakaama-master/core/er-coap-13\er-coap-13.c ****         case COAP_OPTION_BLOCK1:
 2768              		.loc 1 858 13 view .LVU961
ARM GAS  C:\Users\²Ü¼ÒºÀ\AppData\Local\Temp\cczrlpTg.s 			page 73


 2769 0232 1EE7     		b	.L230
 2770              	.LVL310:
 2771              	.L239:
 860:C:/Users/²Ü¼ÒºÀ/.iotlink/sdk/IoT_LINK/iot_link/network/lwm2m/wakaama_lwm2m/wakaama-master/core/er-coap-13\er-coap-13.c ****             coap_pkt->block1_more = (coap_pkt->block1_num & 0x08) >> 3;
 2772              		.loc 1 860 13 view .LVU962
 860:C:/Users/²Ü¼ÒºÀ/.iotlink/sdk/IoT_LINK/iot_link/network/lwm2m/wakaama_lwm2m/wakaama-master/core/er-coap-13\er-coap-13.c ****             coap_pkt->block1_more = (coap_pkt->block1_num & 0x08) >> 3;
 2773              		.loc 1 860 36 is_stmt 0 view .LVU963
 2774 0234 1146     		mov	r1, r2
 2775 0236 FFF7FEFF 		bl	coap_parse_int_option
 2776              	.LVL311:
 861:C:/Users/²Ü¼ÒºÀ/.iotlink/sdk/IoT_LINK/iot_link/network/lwm2m/wakaama_lwm2m/wakaama-master/core/er-coap-13\er-coap-13.c ****             coap_pkt->block1_size = 16 << (coap_pkt->block1_num & 0x07);
 2777              		.loc 1 861 13 is_stmt 1 view .LVU964
 861:C:/Users/²Ü¼ÒºÀ/.iotlink/sdk/IoT_LINK/iot_link/network/lwm2m/wakaama_lwm2m/wakaama-master/core/er-coap-13\er-coap-13.c ****             coap_pkt->block1_size = 16 << (coap_pkt->block1_num & 0x07);
 2778              		.loc 1 861 67 is_stmt 0 view .LVU965
 2779 023a C0F3C003 		ubfx	r3, r0, #3, #1
 862:C:/Users/²Ü¼ÒºÀ/.iotlink/sdk/IoT_LINK/iot_link/network/lwm2m/wakaama_lwm2m/wakaama-master/core/er-coap-13\er-coap-13.c ****             coap_pkt->block1_offset = (coap_pkt->block1_num & ~0x0000000F) << (coap_pkt->block1_num
 2780              		.loc 1 862 65 view .LVU966
 2781 023e 00F00701 		and	r1, r0, #7
 861:C:/Users/²Ü¼ÒºÀ/.iotlink/sdk/IoT_LINK/iot_link/network/lwm2m/wakaama_lwm2m/wakaama-master/core/er-coap-13\er-coap-13.c ****             coap_pkt->block1_size = 16 << (coap_pkt->block1_num & 0x07);
 2782              		.loc 1 861 35 view .LVU967
 2783 0242 84F87430 		strb	r3, [r4, #116]
 862:C:/Users/²Ü¼ÒºÀ/.iotlink/sdk/IoT_LINK/iot_link/network/lwm2m/wakaama_lwm2m/wakaama-master/core/er-coap-13\er-coap-13.c ****             coap_pkt->block1_offset = (coap_pkt->block1_num & ~0x0000000F) << (coap_pkt->block1_num
 2784              		.loc 1 862 13 is_stmt 1 view .LVU968
 862:C:/Users/²Ü¼ÒºÀ/.iotlink/sdk/IoT_LINK/iot_link/network/lwm2m/wakaama_lwm2m/wakaama-master/core/er-coap-13\er-coap-13.c ****             coap_pkt->block1_offset = (coap_pkt->block1_num & ~0x0000000F) << (coap_pkt->block1_num
 2785              		.loc 1 862 40 is_stmt 0 view .LVU969
 2786 0246 1022     		movs	r2, #16
 863:C:/Users/²Ü¼ÒºÀ/.iotlink/sdk/IoT_LINK/iot_link/network/lwm2m/wakaama_lwm2m/wakaama-master/core/er-coap-13\er-coap-13.c ****             coap_pkt->block1_num >>= 4;
 2787              		.loc 1 863 61 view .LVU970
 2788 0248 20F00F03 		bic	r3, r0, #15
 862:C:/Users/²Ü¼ÒºÀ/.iotlink/sdk/IoT_LINK/iot_link/network/lwm2m/wakaama_lwm2m/wakaama-master/core/er-coap-13\er-coap-13.c ****             coap_pkt->block1_offset = (coap_pkt->block1_num & ~0x0000000F) << (coap_pkt->block1_num
 2789              		.loc 1 862 40 view .LVU971
 2790 024c 8A40     		lsls	r2, r2, r1
 863:C:/Users/²Ü¼ÒºÀ/.iotlink/sdk/IoT_LINK/iot_link/network/lwm2m/wakaama_lwm2m/wakaama-master/core/er-coap-13\er-coap-13.c ****             coap_pkt->block1_num >>= 4;
 2791              		.loc 1 863 76 view .LVU972
 2792 024e 8B40     		lsls	r3, r3, r1
 864:C:/Users/²Ü¼ÒºÀ/.iotlink/sdk/IoT_LINK/iot_link/network/lwm2m/wakaama_lwm2m/wakaama-master/core/er-coap-13\er-coap-13.c ****             PRINTF("Block1 [%lu%s (%u B/blk)]\n", coap_pkt->block1_num, coap_pkt->block1_more ? "+"
 2793              		.loc 1 864 34 view .LVU973
 2794 0250 0009     		lsrs	r0, r0, #4
 862:C:/Users/²Ü¼ÒºÀ/.iotlink/sdk/IoT_LINK/iot_link/network/lwm2m/wakaama_lwm2m/wakaama-master/core/er-coap-13\er-coap-13.c ****             coap_pkt->block1_offset = (coap_pkt->block1_num & ~0x0000000F) << (coap_pkt->block1_num
 2795              		.loc 1 862 35 view .LVU974
 2796 0252 A4F87620 		strh	r2, [r4, #118]	@ movhi
 863:C:/Users/²Ü¼ÒºÀ/.iotlink/sdk/IoT_LINK/iot_link/network/lwm2m/wakaama_lwm2m/wakaama-master/core/er-coap-13\er-coap-13.c ****             coap_pkt->block1_num >>= 4;
 2797              		.loc 1 863 13 is_stmt 1 view .LVU975
 863:C:/Users/²Ü¼ÒºÀ/.iotlink/sdk/IoT_LINK/iot_link/network/lwm2m/wakaama_lwm2m/wakaama-master/core/er-coap-13\er-coap-13.c ****             coap_pkt->block1_num >>= 4;
 2798              		.loc 1 863 37 is_stmt 0 view .LVU976
 2799 0256 A367     		str	r3, [r4, #120]
 864:C:/Users/²Ü¼ÒºÀ/.iotlink/sdk/IoT_LINK/iot_link/network/lwm2m/wakaama_lwm2m/wakaama-master/core/er-coap-13\er-coap-13.c ****             PRINTF("Block1 [%lu%s (%u B/blk)]\n", coap_pkt->block1_num, coap_pkt->block1_more ? "+"
 2800              		.loc 1 864 13 is_stmt 1 view .LVU977
 864:C:/Users/²Ü¼ÒºÀ/.iotlink/sdk/IoT_LINK/iot_link/network/lwm2m/wakaama_lwm2m/wakaama-master/core/er-coap-13\er-coap-13.c ****             PRINTF("Block1 [%lu%s (%u B/blk)]\n", coap_pkt->block1_num, coap_pkt->block1_more ? "+"
 2801              		.loc 1 864 34 is_stmt 0 view .LVU978
 2802 0258 2067     		str	r0, [r4, #112]
 865:C:/Users/²Ü¼ÒºÀ/.iotlink/sdk/IoT_LINK/iot_link/network/lwm2m/wakaama_lwm2m/wakaama-master/core/er-coap-13\er-coap-13.c ****             break;
 2803              		.loc 1 865 129 is_stmt 1 view .LVU979
 866:C:/Users/²Ü¼ÒºÀ/.iotlink/sdk/IoT_LINK/iot_link/network/lwm2m/wakaama_lwm2m/wakaama-master/core/er-coap-13\er-coap-13.c ****         case COAP_OPTION_SIZE:
 2804              		.loc 1 866 13 view .LVU980
 2805 025a 0AE7     		b	.L230
 2806              	.LVL312:
ARM GAS  C:\Users\²Ü¼ÒºÀ\AppData\Local\Temp\cczrlpTg.s 			page 74


 2807              	.L238:
 868:C:/Users/²Ü¼ÒºÀ/.iotlink/sdk/IoT_LINK/iot_link/network/lwm2m/wakaama_lwm2m/wakaama-master/core/er-coap-13\er-coap-13.c ****             PRINTF("Size [%lu]\n", coap_pkt->size);
 2808              		.loc 1 868 13 view .LVU981
 868:C:/Users/²Ü¼ÒºÀ/.iotlink/sdk/IoT_LINK/iot_link/network/lwm2m/wakaama_lwm2m/wakaama-master/core/er-coap-13\er-coap-13.c ****             PRINTF("Size [%lu]\n", coap_pkt->size);
 2809              		.loc 1 868 30 is_stmt 0 view .LVU982
 2810 025c 1146     		mov	r1, r2
 2811 025e FFF7FEFF 		bl	coap_parse_int_option
 2812              	.LVL313:
 868:C:/Users/²Ü¼ÒºÀ/.iotlink/sdk/IoT_LINK/iot_link/network/lwm2m/wakaama_lwm2m/wakaama-master/core/er-coap-13\er-coap-13.c ****             PRINTF("Size [%lu]\n", coap_pkt->size);
 2813              		.loc 1 868 28 view .LVU983
 2814 0262 E067     		str	r0, [r4, #124]
 869:C:/Users/²Ü¼ÒºÀ/.iotlink/sdk/IoT_LINK/iot_link/network/lwm2m/wakaama_lwm2m/wakaama-master/core/er-coap-13\er-coap-13.c ****             break;
 2815              		.loc 1 869 51 is_stmt 1 view .LVU984
 870:C:/Users/²Ü¼ÒºÀ/.iotlink/sdk/IoT_LINK/iot_link/network/lwm2m/wakaama_lwm2m/wakaama-master/core/er-coap-13\er-coap-13.c ****         default:
 2816              		.loc 1 870 13 view .LVU985
 2817 0264 05E7     		b	.L230
 2818              	.LVL314:
 2819              	.L235:
 872:C:/Users/²Ü¼ÒºÀ/.iotlink/sdk/IoT_LINK/iot_link/network/lwm2m/wakaama_lwm2m/wakaama-master/core/er-coap-13\er-coap-13.c ****             /* Check if critical (odd) */
 2820              		.loc 1 872 52 view .LVU986
 874:C:/Users/²Ü¼ÒºÀ/.iotlink/sdk/IoT_LINK/iot_link/network/lwm2m/wakaama_lwm2m/wakaama-master/core/er-coap-13\er-coap-13.c ****             {
 2821              		.loc 1 874 13 view .LVU987
 874:C:/Users/²Ü¼ÒºÀ/.iotlink/sdk/IoT_LINK/iot_link/network/lwm2m/wakaama_lwm2m/wakaama-master/core/er-coap-13\er-coap-13.c ****             {
 2822              		.loc 1 874 16 is_stmt 0 view .LVU988
 2823 0266 FB07     		lsls	r3, r7, #31
 2824 0268 7FF503AF 		bpl	.L230
 876:C:/Users/²Ü¼ÒºÀ/.iotlink/sdk/IoT_LINK/iot_link/network/lwm2m/wakaama_lwm2m/wakaama-master/core/er-coap-13\er-coap-13.c ****                 return BAD_OPTION_4_02;
 2825              		.loc 1 876 17 is_stmt 1 view .LVU989
 876:C:/Users/²Ü¼ÒºÀ/.iotlink/sdk/IoT_LINK/iot_link/network/lwm2m/wakaama_lwm2m/wakaama-master/core/er-coap-13\er-coap-13.c ****                 return BAD_OPTION_4_02;
 2826              		.loc 1 876 36 is_stmt 0 view .LVU990
 2827 026c 024B     		ldr	r3, .L269
 2828 026e 054A     		ldr	r2, .L269+12
 2829 0270 1A60     		str	r2, [r3]
 877:C:/Users/²Ü¼ÒºÀ/.iotlink/sdk/IoT_LINK/iot_link/network/lwm2m/wakaama_lwm2m/wakaama-master/core/er-coap-13\er-coap-13.c ****             }
 2830              		.loc 1 877 17 is_stmt 1 view .LVU991
 877:C:/Users/²Ü¼ÒºÀ/.iotlink/sdk/IoT_LINK/iot_link/network/lwm2m/wakaama_lwm2m/wakaama-master/core/er-coap-13\er-coap-13.c ****             }
 2831              		.loc 1 877 24 is_stmt 0 view .LVU992
 2832 0272 8220     		movs	r0, #130
 2833              	.LVL315:
 877:C:/Users/²Ü¼ÒºÀ/.iotlink/sdk/IoT_LINK/iot_link/network/lwm2m/wakaama_lwm2m/wakaama-master/core/er-coap-13\er-coap-13.c ****             }
 2834              		.loc 1 877 24 view .LVU993
 2835 0274 C2E7     		b	.L228
 2836              	.L270:
 2837 0276 00BF     		.align	2
 2838              	.L269:
 2839 0278 00000000 		.word	.LANCHOR1
 2840 027c 00000000 		.word	.LC0
 2841 0280 17000000 		.word	.LC1
 2842 0284 3E000000 		.word	.LC2
 2843              		.cfi_endproc
 2844              	.LFE21:
 2846              		.section	.text.coap_get_query_variable,"ax",%progbits
 2847              		.align	1
 2848              		.global	coap_get_query_variable
 2849              		.syntax unified
 2850              		.thumb
 2851              		.thumb_func
ARM GAS  C:\Users\²Ü¼ÒºÀ\AppData\Local\Temp\cczrlpTg.s 			page 75


 2852              		.fpu fpv4-sp-d16
 2854              	coap_get_query_variable:
 2855              	.LVL316:
 2856              	.LFB22:
 889:C:/Users/²Ü¼ÒºÀ/.iotlink/sdk/IoT_LINK/iot_link/network/lwm2m/wakaama_lwm2m/wakaama-master/core/er-coap-13\er-coap-13.c **** /*-----------------------------------------------------------------------------------*/
 890:C:/Users/²Ü¼ÒºÀ/.iotlink/sdk/IoT_LINK/iot_link/network/lwm2m/wakaama_lwm2m/wakaama-master/core/er-coap-13\er-coap-13.c **** /*- REST FRAMEWORK FUNCTIONS --------------------------------------------------------*/
 891:C:/Users/²Ü¼ÒºÀ/.iotlink/sdk/IoT_LINK/iot_link/network/lwm2m/wakaama_lwm2m/wakaama-master/core/er-coap-13\er-coap-13.c **** /*-----------------------------------------------------------------------------------*/
 892:C:/Users/²Ü¼ÒºÀ/.iotlink/sdk/IoT_LINK/iot_link/network/lwm2m/wakaama_lwm2m/wakaama-master/core/er-coap-13\er-coap-13.c **** int
 893:C:/Users/²Ü¼ÒºÀ/.iotlink/sdk/IoT_LINK/iot_link/network/lwm2m/wakaama_lwm2m/wakaama-master/core/er-coap-13\er-coap-13.c **** coap_get_query_variable(void *packet, const char *name, const char **output)
 894:C:/Users/²Ü¼ÒºÀ/.iotlink/sdk/IoT_LINK/iot_link/network/lwm2m/wakaama_lwm2m/wakaama-master/core/er-coap-13\er-coap-13.c **** {
 2857              		.loc 1 894 1 is_stmt 1 view -0
 2858              		.cfi_startproc
 2859              		@ args = 0, pretend = 0, frame = 0
 2860              		@ frame_needed = 0, uses_anonymous_args = 0
 2861              		@ link register save eliminated.
 895:C:/Users/²Ü¼ÒºÀ/.iotlink/sdk/IoT_LINK/iot_link/network/lwm2m/wakaama_lwm2m/wakaama-master/core/er-coap-13\er-coap-13.c ****     /*
 896:C:/Users/²Ü¼ÒºÀ/.iotlink/sdk/IoT_LINK/iot_link/network/lwm2m/wakaama_lwm2m/wakaama-master/core/er-coap-13\er-coap-13.c ****       coap_packet_t *const coap_pkt = (coap_packet_t *) packet;
 897:C:/Users/²Ü¼ÒºÀ/.iotlink/sdk/IoT_LINK/iot_link/network/lwm2m/wakaama_lwm2m/wakaama-master/core/er-coap-13\er-coap-13.c **** 
 898:C:/Users/²Ü¼ÒºÀ/.iotlink/sdk/IoT_LINK/iot_link/network/lwm2m/wakaama_lwm2m/wakaama-master/core/er-coap-13\er-coap-13.c ****       if (IS_OPTION(coap_pkt, COAP_OPTION_URI_QUERY)) {
 899:C:/Users/²Ü¼ÒºÀ/.iotlink/sdk/IoT_LINK/iot_link/network/lwm2m/wakaama_lwm2m/wakaama-master/core/er-coap-13\er-coap-13.c ****         return coap_get_variable(coap_pkt->uri_query, coap_pkt->uri_query_len, name, output);
 900:C:/Users/²Ü¼ÒºÀ/.iotlink/sdk/IoT_LINK/iot_link/network/lwm2m/wakaama_lwm2m/wakaama-master/core/er-coap-13\er-coap-13.c ****       }
 901:C:/Users/²Ü¼ÒºÀ/.iotlink/sdk/IoT_LINK/iot_link/network/lwm2m/wakaama_lwm2m/wakaama-master/core/er-coap-13\er-coap-13.c ****     */
 902:C:/Users/²Ü¼ÒºÀ/.iotlink/sdk/IoT_LINK/iot_link/network/lwm2m/wakaama_lwm2m/wakaama-master/core/er-coap-13\er-coap-13.c ****     return 0;
 2862              		.loc 1 902 5 view .LVU995
 903:C:/Users/²Ü¼ÒºÀ/.iotlink/sdk/IoT_LINK/iot_link/network/lwm2m/wakaama_lwm2m/wakaama-master/core/er-coap-13\er-coap-13.c **** }
 2863              		.loc 1 903 1 is_stmt 0 view .LVU996
 2864 0000 0020     		movs	r0, #0
 2865              	.LVL317:
 2866              		.loc 1 903 1 view .LVU997
 2867 0002 7047     		bx	lr
 2868              		.cfi_endproc
 2869              	.LFE22:
 2871              		.section	.text.coap_get_post_variable,"ax",%progbits
 2872              		.align	1
 2873              		.global	coap_get_post_variable
 2874              		.syntax unified
 2875              		.thumb
 2876              		.thumb_func
 2877              		.fpu fpv4-sp-d16
 2879              	coap_get_post_variable:
 2880              	.LVL318:
 2881              	.LFB23:
 904:C:/Users/²Ü¼ÒºÀ/.iotlink/sdk/IoT_LINK/iot_link/network/lwm2m/wakaama_lwm2m/wakaama-master/core/er-coap-13\er-coap-13.c **** 
 905:C:/Users/²Ü¼ÒºÀ/.iotlink/sdk/IoT_LINK/iot_link/network/lwm2m/wakaama_lwm2m/wakaama-master/core/er-coap-13\er-coap-13.c **** int
 906:C:/Users/²Ü¼ÒºÀ/.iotlink/sdk/IoT_LINK/iot_link/network/lwm2m/wakaama_lwm2m/wakaama-master/core/er-coap-13\er-coap-13.c **** coap_get_post_variable(void *packet, const char *name, const char **output)
 907:C:/Users/²Ü¼ÒºÀ/.iotlink/sdk/IoT_LINK/iot_link/network/lwm2m/wakaama_lwm2m/wakaama-master/core/er-coap-13\er-coap-13.c **** {
 2882              		.loc 1 907 1 is_stmt 1 view -0
 2883              		.cfi_startproc
 2884              		@ args = 0, pretend = 0, frame = 0
 2885              		@ frame_needed = 0, uses_anonymous_args = 0
 908:C:/Users/²Ü¼ÒºÀ/.iotlink/sdk/IoT_LINK/iot_link/network/lwm2m/wakaama_lwm2m/wakaama-master/core/er-coap-13\er-coap-13.c ****     coap_packet_t *const coap_pkt = (coap_packet_t *) packet;
 2886              		.loc 1 908 5 view .LVU999
 909:C:/Users/²Ü¼ÒºÀ/.iotlink/sdk/IoT_LINK/iot_link/network/lwm2m/wakaama_lwm2m/wakaama-master/core/er-coap-13\er-coap-13.c **** 
 910:C:/Users/²Ü¼ÒºÀ/.iotlink/sdk/IoT_LINK/iot_link/network/lwm2m/wakaama_lwm2m/wakaama-master/core/er-coap-13\er-coap-13.c ****     if (coap_pkt->payload_len)
 2887              		.loc 1 910 5 view .LVU1000
 907:C:/Users/²Ü¼ÒºÀ/.iotlink/sdk/IoT_LINK/iot_link/network/lwm2m/wakaama_lwm2m/wakaama-master/core/er-coap-13\er-coap-13.c ****     coap_packet_t *const coap_pkt = (coap_packet_t *) packet;
 2888              		.loc 1 907 1 is_stmt 0 view .LVU1001
ARM GAS  C:\Users\²Ü¼ÒºÀ\AppData\Local\Temp\cczrlpTg.s 			page 76


 2889 0000 2DE9F843 		push	{r3, r4, r5, r6, r7, r8, r9, lr}
 2890              	.LCFI21:
 2891              		.cfi_def_cfa_offset 32
 2892              		.cfi_offset 3, -32
 2893              		.cfi_offset 4, -28
 2894              		.cfi_offset 5, -24
 2895              		.cfi_offset 6, -20
 2896              		.cfi_offset 7, -16
 2897              		.cfi_offset 8, -12
 2898              		.cfi_offset 9, -8
 2899              		.cfi_offset 14, -4
 2900              		.loc 1 910 17 view .LVU1002
 2901 0004 B0F88660 		ldrh	r6, [r0, #134]
 907:C:/Users/²Ü¼ÒºÀ/.iotlink/sdk/IoT_LINK/iot_link/network/lwm2m/wakaama_lwm2m/wakaama-master/core/er-coap-13\er-coap-13.c ****     coap_packet_t *const coap_pkt = (coap_packet_t *) packet;
 2902              		.loc 1 907 1 view .LVU1003
 2903 0008 8846     		mov	r8, r1
 2904 000a 1746     		mov	r7, r2
 2905              		.loc 1 910 8 view .LVU1004
 2906 000c 16B9     		cbnz	r6, .L273
 2907              	.LVL319:
 2908              	.L280:
 911:C:/Users/²Ü¼ÒºÀ/.iotlink/sdk/IoT_LINK/iot_link/network/lwm2m/wakaama_lwm2m/wakaama-master/core/er-coap-13\er-coap-13.c ****     {
 912:C:/Users/²Ü¼ÒºÀ/.iotlink/sdk/IoT_LINK/iot_link/network/lwm2m/wakaama_lwm2m/wakaama-master/core/er-coap-13\er-coap-13.c ****         return coap_get_variable(coap_pkt->payload, coap_pkt->payload_len, name, output);
 913:C:/Users/²Ü¼ÒºÀ/.iotlink/sdk/IoT_LINK/iot_link/network/lwm2m/wakaama_lwm2m/wakaama-master/core/er-coap-13\er-coap-13.c ****     }
 914:C:/Users/²Ü¼ÒºÀ/.iotlink/sdk/IoT_LINK/iot_link/network/lwm2m/wakaama_lwm2m/wakaama-master/core/er-coap-13\er-coap-13.c ****     return 0;
 2909              		.loc 1 914 12 view .LVU1005
 2910 000e 0020     		movs	r0, #0
 2911              	.L272:
 915:C:/Users/²Ü¼ÒºÀ/.iotlink/sdk/IoT_LINK/iot_link/network/lwm2m/wakaama_lwm2m/wakaama-master/core/er-coap-13\er-coap-13.c **** }
 2912              		.loc 1 915 1 view .LVU1006
 2913 0010 BDE8F883 		pop	{r3, r4, r5, r6, r7, r8, r9, pc}
 2914              	.LVL320:
 2915              	.L273:
 912:C:/Users/²Ü¼ÒºÀ/.iotlink/sdk/IoT_LINK/iot_link/network/lwm2m/wakaama_lwm2m/wakaama-master/core/er-coap-13\er-coap-13.c ****     }
 2916              		.loc 1 912 9 is_stmt 1 view .LVU1007
 2917              	.LBB100:
 2918              	.LBB101:
 391:C:/Users/²Ü¼ÒºÀ/.iotlink/sdk/IoT_LINK/iot_link/network/lwm2m/wakaama_lwm2m/wakaama-master/core/er-coap-13\er-coap-13.c **** 
 2919              		.loc 1 391 13 is_stmt 0 view .LVU1008
 2920 0014 0023     		movs	r3, #0
 2921              	.LBE101:
 2922              	.LBE100:
 912:C:/Users/²Ü¼ÒºÀ/.iotlink/sdk/IoT_LINK/iot_link/network/lwm2m/wakaama_lwm2m/wakaama-master/core/er-coap-13\er-coap-13.c ****     }
 2923              		.loc 1 912 42 view .LVU1009
 2924 0016 D0F88890 		ldr	r9, [r0, #136]
 2925              	.LVL321:
 2926              	.LBB103:
 2927              	.LBI100:
 383:C:/Users/²Ü¼ÒºÀ/.iotlink/sdk/IoT_LINK/iot_link/network/lwm2m/wakaama_lwm2m/wakaama-master/core/er-coap-13\er-coap-13.c **** {
 2928              		.loc 1 383 1 is_stmt 1 view .LVU1010
 2929              	.LBB102:
 385:C:/Users/²Ü¼ÒºÀ/.iotlink/sdk/IoT_LINK/iot_link/network/lwm2m/wakaama_lwm2m/wakaama-master/core/er-coap-13\er-coap-13.c ****     const uint8_t *end = NULL;
 2930              		.loc 1 385 5 view .LVU1011
 386:C:/Users/²Ü¼ÒºÀ/.iotlink/sdk/IoT_LINK/iot_link/network/lwm2m/wakaama_lwm2m/wakaama-master/core/er-coap-13\er-coap-13.c ****     const uint8_t *value_end = NULL;
 2931              		.loc 1 386 5 view .LVU1012
 387:C:/Users/²Ü¼ÒºÀ/.iotlink/sdk/IoT_LINK/iot_link/network/lwm2m/wakaama_lwm2m/wakaama-master/core/er-coap-13\er-coap-13.c ****     size_t name_len = 0;
 2932              		.loc 1 387 5 view .LVU1013
ARM GAS  C:\Users\²Ü¼ÒºÀ\AppData\Local\Temp\cczrlpTg.s 			page 77


 388:C:/Users/²Ü¼ÒºÀ/.iotlink/sdk/IoT_LINK/iot_link/network/lwm2m/wakaama_lwm2m/wakaama-master/core/er-coap-13\er-coap-13.c **** 
 2933              		.loc 1 388 5 view .LVU1014
 391:C:/Users/²Ü¼ÒºÀ/.iotlink/sdk/IoT_LINK/iot_link/network/lwm2m/wakaama_lwm2m/wakaama-master/core/er-coap-13\er-coap-13.c **** 
 2934              		.loc 1 391 5 view .LVU1015
 391:C:/Users/²Ü¼ÒºÀ/.iotlink/sdk/IoT_LINK/iot_link/network/lwm2m/wakaama_lwm2m/wakaama-master/core/er-coap-13\er-coap-13.c **** 
 2935              		.loc 1 391 13 is_stmt 0 view .LVU1016
 2936 001a 1360     		str	r3, [r2]
 393:C:/Users/²Ü¼ÒºÀ/.iotlink/sdk/IoT_LINK/iot_link/network/lwm2m/wakaama_lwm2m/wakaama-master/core/er-coap-13\er-coap-13.c ****     end = buffer + length;
 2937              		.loc 1 393 5 is_stmt 1 view .LVU1017
 393:C:/Users/²Ü¼ÒºÀ/.iotlink/sdk/IoT_LINK/iot_link/network/lwm2m/wakaama_lwm2m/wakaama-master/core/er-coap-13\er-coap-13.c ****     end = buffer + length;
 2938              		.loc 1 393 16 is_stmt 0 view .LVU1018
 2939 001c 0846     		mov	r0, r1
 2940              	.LVL322:
 393:C:/Users/²Ü¼ÒºÀ/.iotlink/sdk/IoT_LINK/iot_link/network/lwm2m/wakaama_lwm2m/wakaama-master/core/er-coap-13\er-coap-13.c ****     end = buffer + length;
 2941              		.loc 1 393 16 view .LVU1019
 2942 001e FFF7FEFF 		bl	strlen
 2943              	.LVL323:
 394:C:/Users/²Ü¼ÒºÀ/.iotlink/sdk/IoT_LINK/iot_link/network/lwm2m/wakaama_lwm2m/wakaama-master/core/er-coap-13\er-coap-13.c **** 
 2944              		.loc 1 394 9 view .LVU1020
 2945 0022 4E44     		add	r6, r6, r9
 2946              	.LVL324:
 393:C:/Users/²Ü¼ÒºÀ/.iotlink/sdk/IoT_LINK/iot_link/network/lwm2m/wakaama_lwm2m/wakaama-master/core/er-coap-13\er-coap-13.c ****     end = buffer + length;
 2947              		.loc 1 393 16 view .LVU1021
 2948 0024 0546     		mov	r5, r0
 2949              	.LVL325:
 394:C:/Users/²Ü¼ÒºÀ/.iotlink/sdk/IoT_LINK/iot_link/network/lwm2m/wakaama_lwm2m/wakaama-master/core/er-coap-13\er-coap-13.c **** 
 2950              		.loc 1 394 5 is_stmt 1 view .LVU1022
 396:C:/Users/²Ü¼ÒºÀ/.iotlink/sdk/IoT_LINK/iot_link/network/lwm2m/wakaama_lwm2m/wakaama-master/core/er-coap-13\er-coap-13.c ****     {
 2951              		.loc 1 396 5 view .LVU1023
 396:C:/Users/²Ü¼ÒºÀ/.iotlink/sdk/IoT_LINK/iot_link/network/lwm2m/wakaama_lwm2m/wakaama-master/core/er-coap-13\er-coap-13.c ****     {
 2952              		.loc 1 396 16 is_stmt 0 view .LVU1024
 2953 0026 4C46     		mov	r4, r9
 2954              	.LVL326:
 2955              	.L275:
 396:C:/Users/²Ü¼ÒºÀ/.iotlink/sdk/IoT_LINK/iot_link/network/lwm2m/wakaama_lwm2m/wakaama-master/core/er-coap-13\er-coap-13.c ****     {
 2956              		.loc 1 396 26 is_stmt 1 view .LVU1025
 396:C:/Users/²Ü¼ÒºÀ/.iotlink/sdk/IoT_LINK/iot_link/network/lwm2m/wakaama_lwm2m/wakaama-master/core/er-coap-13\er-coap-13.c ****     {
 2957              		.loc 1 396 5 is_stmt 0 view .LVU1026
 2958 0028 6319     		adds	r3, r4, r5
 2959 002a 9E42     		cmp	r6, r3
 2960 002c EFD9     		bls	.L280
 398:C:/Users/²Ü¼ÒºÀ/.iotlink/sdk/IoT_LINK/iot_link/network/lwm2m/wakaama_lwm2m/wakaama-master/core/er-coap-13\er-coap-13.c ****                 strncmp(name, (char *)start, name_len) == 0)
 2961              		.loc 1 398 9 is_stmt 1 view .LVU1027
 398:C:/Users/²Ü¼ÒºÀ/.iotlink/sdk/IoT_LINK/iot_link/network/lwm2m/wakaama_lwm2m/wakaama-master/core/er-coap-13\er-coap-13.c ****                 strncmp(name, (char *)start, name_len) == 0)
 2962              		.loc 1 398 12 is_stmt 0 view .LVU1028
 2963 002e A145     		cmp	r9, r4
 2964 0030 03D0     		beq	.L276
 398:C:/Users/²Ü¼ÒºÀ/.iotlink/sdk/IoT_LINK/iot_link/network/lwm2m/wakaama_lwm2m/wakaama-master/core/er-coap-13\er-coap-13.c ****                 strncmp(name, (char *)start, name_len) == 0)
 2965              		.loc 1 398 30 view .LVU1029
 2966 0032 14F8013C 		ldrb	r3, [r4, #-1]	@ zero_extendqisi2
 2967 0036 262B     		cmp	r3, #38
 2968 0038 15D1     		bne	.L277
 2969              	.L276:
 398:C:/Users/²Ü¼ÒºÀ/.iotlink/sdk/IoT_LINK/iot_link/network/lwm2m/wakaama_lwm2m/wakaama-master/core/er-coap-13\er-coap-13.c ****                 strncmp(name, (char *)start, name_len) == 0)
 2970              		.loc 1 398 51 view .LVU1030
 2971 003a 635D     		ldrb	r3, [r4, r5]	@ zero_extendqisi2
 2972 003c 3D2B     		cmp	r3, #61
ARM GAS  C:\Users\²Ü¼ÒºÀ\AppData\Local\Temp\cczrlpTg.s 			page 78


 2973 003e 12D1     		bne	.L277
 399:C:/Users/²Ü¼ÒºÀ/.iotlink/sdk/IoT_LINK/iot_link/network/lwm2m/wakaama_lwm2m/wakaama-master/core/er-coap-13\er-coap-13.c ****         {
 2974              		.loc 1 399 17 view .LVU1031
 2975 0040 2A46     		mov	r2, r5
 2976 0042 2146     		mov	r1, r4
 2977 0044 4046     		mov	r0, r8
 2978 0046 FFF7FEFF 		bl	strncmp
 2979              	.LVL327:
 398:C:/Users/²Ü¼ÒºÀ/.iotlink/sdk/IoT_LINK/iot_link/network/lwm2m/wakaama_lwm2m/wakaama-master/core/er-coap-13\er-coap-13.c ****                 strncmp(name, (char *)start, name_len) == 0)
 2980              		.loc 1 398 77 view .LVU1032
 2981 004a 60B9     		cbnz	r0, .L277
 403:C:/Users/²Ü¼ÒºÀ/.iotlink/sdk/IoT_LINK/iot_link/network/lwm2m/wakaama_lwm2m/wakaama-master/core/er-coap-13\er-coap-13.c **** 
 2982              		.loc 1 403 13 is_stmt 1 view .LVU1033
 403:C:/Users/²Ü¼ÒºÀ/.iotlink/sdk/IoT_LINK/iot_link/network/lwm2m/wakaama_lwm2m/wakaama-master/core/er-coap-13\er-coap-13.c **** 
 2983              		.loc 1 403 19 is_stmt 0 view .LVU1034
 2984 004c 681C     		adds	r0, r5, #1
 2985 004e 0444     		add	r4, r4, r0
 2986              	.LVL328:
 406:C:/Users/²Ü¼ÒºÀ/.iotlink/sdk/IoT_LINK/iot_link/network/lwm2m/wakaama_lwm2m/wakaama-master/core/er-coap-13\er-coap-13.c ****             if (value_end == NULL)
 2987              		.loc 1 406 13 is_stmt 1 view .LVU1035
 406:C:/Users/²Ü¼ÒºÀ/.iotlink/sdk/IoT_LINK/iot_link/network/lwm2m/wakaama_lwm2m/wakaama-master/core/er-coap-13\er-coap-13.c ****             if (value_end == NULL)
 2988              		.loc 1 406 43 is_stmt 0 view .LVU1036
 2989 0050 321B     		subs	r2, r6, r4
 2990 0052 2621     		movs	r1, #38
 2991 0054 2046     		mov	r0, r4
 2992 0056 FFF7FEFF 		bl	memchr
 2993              	.LVL329:
 407:C:/Users/²Ü¼ÒºÀ/.iotlink/sdk/IoT_LINK/iot_link/network/lwm2m/wakaama_lwm2m/wakaama-master/core/er-coap-13\er-coap-13.c ****             {
 2994              		.loc 1 407 13 is_stmt 1 view .LVU1037
 407:C:/Users/²Ü¼ÒºÀ/.iotlink/sdk/IoT_LINK/iot_link/network/lwm2m/wakaama_lwm2m/wakaama-master/core/er-coap-13\er-coap-13.c ****             {
 2995              		.loc 1 407 16 is_stmt 0 view .LVU1038
 2996 005a 0028     		cmp	r0, #0
 2997 005c 08BF     		it	eq
 2998 005e 3046     		moveq	r0, r6
 2999              	.LVL330:
 412:C:/Users/²Ü¼ÒºÀ/.iotlink/sdk/IoT_LINK/iot_link/network/lwm2m/wakaama_lwm2m/wakaama-master/core/er-coap-13\er-coap-13.c **** 
 3000              		.loc 1 412 13 is_stmt 1 view .LVU1039
 412:C:/Users/²Ü¼ÒºÀ/.iotlink/sdk/IoT_LINK/iot_link/network/lwm2m/wakaama_lwm2m/wakaama-master/core/er-coap-13\er-coap-13.c **** 
 3001              		.loc 1 412 21 is_stmt 0 view .LVU1040
 3002 0060 3C60     		str	r4, [r7]
 414:C:/Users/²Ü¼ÒºÀ/.iotlink/sdk/IoT_LINK/iot_link/network/lwm2m/wakaama_lwm2m/wakaama-master/core/er-coap-13\er-coap-13.c ****         }
 3003              		.loc 1 414 13 is_stmt 1 view .LVU1041
 414:C:/Users/²Ü¼ÒºÀ/.iotlink/sdk/IoT_LINK/iot_link/network/lwm2m/wakaama_lwm2m/wakaama-master/core/er-coap-13\er-coap-13.c ****         }
 3004              		.loc 1 414 31 is_stmt 0 view .LVU1042
 3005 0062 001B     		subs	r0, r0, r4
 3006              	.LVL331:
 414:C:/Users/²Ü¼ÒºÀ/.iotlink/sdk/IoT_LINK/iot_link/network/lwm2m/wakaama_lwm2m/wakaama-master/core/er-coap-13\er-coap-13.c ****         }
 3007              		.loc 1 414 31 view .LVU1043
 3008 0064 D4E7     		b	.L272
 3009              	.LVL332:
 3010              	.L277:
 396:C:/Users/²Ü¼ÒºÀ/.iotlink/sdk/IoT_LINK/iot_link/network/lwm2m/wakaama_lwm2m/wakaama-master/core/er-coap-13\er-coap-13.c ****     {
 3011              		.loc 1 396 50 is_stmt 1 view .LVU1044
 3012 0066 0134     		adds	r4, r4, #1
 3013              	.LVL333:
 396:C:/Users/²Ü¼ÒºÀ/.iotlink/sdk/IoT_LINK/iot_link/network/lwm2m/wakaama_lwm2m/wakaama-master/core/er-coap-13\er-coap-13.c ****     {
 3014              		.loc 1 396 50 is_stmt 0 view .LVU1045
ARM GAS  C:\Users\²Ü¼ÒºÀ\AppData\Local\Temp\cczrlpTg.s 			page 79


 3015 0068 DEE7     		b	.L275
 3016              	.LBE102:
 3017              	.LBE103:
 3018              		.cfi_endproc
 3019              	.LFE23:
 3021              		.section	.text.coap_set_status_code,"ax",%progbits
 3022              		.align	1
 3023              		.global	coap_set_status_code
 3024              		.syntax unified
 3025              		.thumb
 3026              		.thumb_func
 3027              		.fpu fpv4-sp-d16
 3029              	coap_set_status_code:
 3030              	.LVL334:
 3031              	.LFB24:
 916:C:/Users/²Ü¼ÒºÀ/.iotlink/sdk/IoT_LINK/iot_link/network/lwm2m/wakaama_lwm2m/wakaama-master/core/er-coap-13\er-coap-13.c **** /*-----------------------------------------------------------------------------------*/
 917:C:/Users/²Ü¼ÒºÀ/.iotlink/sdk/IoT_LINK/iot_link/network/lwm2m/wakaama_lwm2m/wakaama-master/core/er-coap-13\er-coap-13.c **** int
 918:C:/Users/²Ü¼ÒºÀ/.iotlink/sdk/IoT_LINK/iot_link/network/lwm2m/wakaama_lwm2m/wakaama-master/core/er-coap-13\er-coap-13.c **** coap_set_status_code(void *packet, unsigned int code)
 919:C:/Users/²Ü¼ÒºÀ/.iotlink/sdk/IoT_LINK/iot_link/network/lwm2m/wakaama_lwm2m/wakaama-master/core/er-coap-13\er-coap-13.c **** {
 3032              		.loc 1 919 1 is_stmt 1 view -0
 3033              		.cfi_startproc
 3034              		@ args = 0, pretend = 0, frame = 0
 3035              		@ frame_needed = 0, uses_anonymous_args = 0
 3036              		@ link register save eliminated.
 920:C:/Users/²Ü¼ÒºÀ/.iotlink/sdk/IoT_LINK/iot_link/network/lwm2m/wakaama_lwm2m/wakaama-master/core/er-coap-13\er-coap-13.c ****     if (code <= 0xFF)
 3037              		.loc 1 920 5 view .LVU1047
 3038              		.loc 1 920 8 is_stmt 0 view .LVU1048
 3039 0000 FF29     		cmp	r1, #255
 921:C:/Users/²Ü¼ÒºÀ/.iotlink/sdk/IoT_LINK/iot_link/network/lwm2m/wakaama_lwm2m/wakaama-master/core/er-coap-13\er-coap-13.c ****     {
 922:C:/Users/²Ü¼ÒºÀ/.iotlink/sdk/IoT_LINK/iot_link/network/lwm2m/wakaama_lwm2m/wakaama-master/core/er-coap-13\er-coap-13.c ****         ((coap_packet_t *)packet)->code = (uint8_t) code;
 3040              		.loc 1 922 9 is_stmt 1 view .LVU1049
 3041              		.loc 1 922 43 is_stmt 0 view .LVU1050
 3042 0002 9ABF     		itte	ls
 3043 0004 8171     		strbls	r1, [r0, #6]
 923:C:/Users/²Ü¼ÒºÀ/.iotlink/sdk/IoT_LINK/iot_link/network/lwm2m/wakaama_lwm2m/wakaama-master/core/er-coap-13\er-coap-13.c ****         return 1;
 3044              		.loc 1 923 9 is_stmt 1 view .LVU1051
 3045              		.loc 1 923 16 is_stmt 0 view .LVU1052
 3046 0006 0120     		movls	r0, #1
 3047              	.LVL335:
 924:C:/Users/²Ü¼ÒºÀ/.iotlink/sdk/IoT_LINK/iot_link/network/lwm2m/wakaama_lwm2m/wakaama-master/core/er-coap-13\er-coap-13.c ****     }
 925:C:/Users/²Ü¼ÒºÀ/.iotlink/sdk/IoT_LINK/iot_link/network/lwm2m/wakaama_lwm2m/wakaama-master/core/er-coap-13\er-coap-13.c ****     else
 926:C:/Users/²Ü¼ÒºÀ/.iotlink/sdk/IoT_LINK/iot_link/network/lwm2m/wakaama_lwm2m/wakaama-master/core/er-coap-13\er-coap-13.c ****     {
 927:C:/Users/²Ü¼ÒºÀ/.iotlink/sdk/IoT_LINK/iot_link/network/lwm2m/wakaama_lwm2m/wakaama-master/core/er-coap-13\er-coap-13.c ****         return 0;
 3048              		.loc 1 927 16 view .LVU1053
 3049 0008 0020     		movhi	r0, #0
 928:C:/Users/²Ü¼ÒºÀ/.iotlink/sdk/IoT_LINK/iot_link/network/lwm2m/wakaama_lwm2m/wakaama-master/core/er-coap-13\er-coap-13.c ****     }
 929:C:/Users/²Ü¼ÒºÀ/.iotlink/sdk/IoT_LINK/iot_link/network/lwm2m/wakaama_lwm2m/wakaama-master/core/er-coap-13\er-coap-13.c **** }
 3050              		.loc 1 929 1 view .LVU1054
 3051 000a 7047     		bx	lr
 3052              		.cfi_endproc
 3053              	.LFE24:
 3055              		.section	.text.coap_get_header_content_type,"ax",%progbits
 3056              		.align	1
 3057              		.global	coap_get_header_content_type
 3058              		.syntax unified
 3059              		.thumb
 3060              		.thumb_func
ARM GAS  C:\Users\²Ü¼ÒºÀ\AppData\Local\Temp\cczrlpTg.s 			page 80


 3061              		.fpu fpv4-sp-d16
 3063              	coap_get_header_content_type:
 3064              	.LVL336:
 3065              	.LFB25:
 930:C:/Users/²Ü¼ÒºÀ/.iotlink/sdk/IoT_LINK/iot_link/network/lwm2m/wakaama_lwm2m/wakaama-master/core/er-coap-13\er-coap-13.c **** /*-----------------------------------------------------------------------------------*/
 931:C:/Users/²Ü¼ÒºÀ/.iotlink/sdk/IoT_LINK/iot_link/network/lwm2m/wakaama_lwm2m/wakaama-master/core/er-coap-13\er-coap-13.c **** /*- HEADER OPTION GETTERS AND SETTERS -----------------------------------------------*/
 932:C:/Users/²Ü¼ÒºÀ/.iotlink/sdk/IoT_LINK/iot_link/network/lwm2m/wakaama_lwm2m/wakaama-master/core/er-coap-13\er-coap-13.c **** /*-----------------------------------------------------------------------------------*/
 933:C:/Users/²Ü¼ÒºÀ/.iotlink/sdk/IoT_LINK/iot_link/network/lwm2m/wakaama_lwm2m/wakaama-master/core/er-coap-13\er-coap-13.c **** unsigned int
 934:C:/Users/²Ü¼ÒºÀ/.iotlink/sdk/IoT_LINK/iot_link/network/lwm2m/wakaama_lwm2m/wakaama-master/core/er-coap-13\er-coap-13.c **** coap_get_header_content_type(void *packet)
 935:C:/Users/²Ü¼ÒºÀ/.iotlink/sdk/IoT_LINK/iot_link/network/lwm2m/wakaama_lwm2m/wakaama-master/core/er-coap-13\er-coap-13.c **** {
 3066              		.loc 1 935 1 is_stmt 1 view -0
 3067              		.cfi_startproc
 3068              		@ args = 0, pretend = 0, frame = 0
 3069              		@ frame_needed = 0, uses_anonymous_args = 0
 3070              		@ link register save eliminated.
 936:C:/Users/²Ü¼ÒºÀ/.iotlink/sdk/IoT_LINK/iot_link/network/lwm2m/wakaama_lwm2m/wakaama-master/core/er-coap-13\er-coap-13.c ****     coap_packet_t *const coap_pkt = (coap_packet_t *) packet;
 3071              		.loc 1 936 5 view .LVU1056
 937:C:/Users/²Ü¼ÒºÀ/.iotlink/sdk/IoT_LINK/iot_link/network/lwm2m/wakaama_lwm2m/wakaama-master/core/er-coap-13\er-coap-13.c **** 
 938:C:/Users/²Ü¼ÒºÀ/.iotlink/sdk/IoT_LINK/iot_link/network/lwm2m/wakaama_lwm2m/wakaama-master/core/er-coap-13\er-coap-13.c ****     if (!IS_OPTION(coap_pkt, COAP_OPTION_CONTENT_TYPE)) return (unsigned int) - 1;
 3072              		.loc 1 938 5 view .LVU1057
 3073              		.loc 1 938 8 is_stmt 0 view .LVU1058
 3074 0000 C37A     		ldrb	r3, [r0, #11]	@ zero_extendqisi2
 3075 0002 DB06     		lsls	r3, r3, #27
 939:C:/Users/²Ü¼ÒºÀ/.iotlink/sdk/IoT_LINK/iot_link/network/lwm2m/wakaama_lwm2m/wakaama-master/core/er-coap-13\er-coap-13.c **** 
 940:C:/Users/²Ü¼ÒºÀ/.iotlink/sdk/IoT_LINK/iot_link/network/lwm2m/wakaama_lwm2m/wakaama-master/core/er-coap-13\er-coap-13.c ****     return coap_pkt->content_type;
 3076              		.loc 1 940 5 is_stmt 1 view .LVU1059
 3077              		.loc 1 940 20 is_stmt 0 view .LVU1060
 3078 0004 4CBF     		ite	mi
 3079 0006 008A     		ldrhmi	r0, [r0, #16]
 3080              	.LVL337:
 938:C:/Users/²Ü¼ÒºÀ/.iotlink/sdk/IoT_LINK/iot_link/network/lwm2m/wakaama_lwm2m/wakaama-master/core/er-coap-13\er-coap-13.c **** 
 3081              		.loc 1 938 64 view .LVU1061
 3082 0008 4FF0FF30 		movpl	r0, #-1
 941:C:/Users/²Ü¼ÒºÀ/.iotlink/sdk/IoT_LINK/iot_link/network/lwm2m/wakaama_lwm2m/wakaama-master/core/er-coap-13\er-coap-13.c **** }
 3083              		.loc 1 941 1 view .LVU1062
 3084 000c 7047     		bx	lr
 3085              		.cfi_endproc
 3086              	.LFE25:
 3088              		.section	.text.coap_set_header_content_type,"ax",%progbits
 3089              		.align	1
 3090              		.global	coap_set_header_content_type
 3091              		.syntax unified
 3092              		.thumb
 3093              		.thumb_func
 3094              		.fpu fpv4-sp-d16
 3096              	coap_set_header_content_type:
 3097              	.LVL338:
 3098              	.LFB26:
 942:C:/Users/²Ü¼ÒºÀ/.iotlink/sdk/IoT_LINK/iot_link/network/lwm2m/wakaama_lwm2m/wakaama-master/core/er-coap-13\er-coap-13.c **** 
 943:C:/Users/²Ü¼ÒºÀ/.iotlink/sdk/IoT_LINK/iot_link/network/lwm2m/wakaama_lwm2m/wakaama-master/core/er-coap-13\er-coap-13.c **** int
 944:C:/Users/²Ü¼ÒºÀ/.iotlink/sdk/IoT_LINK/iot_link/network/lwm2m/wakaama_lwm2m/wakaama-master/core/er-coap-13\er-coap-13.c **** coap_set_header_content_type(void *packet, unsigned int content_type)
 945:C:/Users/²Ü¼ÒºÀ/.iotlink/sdk/IoT_LINK/iot_link/network/lwm2m/wakaama_lwm2m/wakaama-master/core/er-coap-13\er-coap-13.c **** {
 3099              		.loc 1 945 1 is_stmt 1 view -0
 3100              		.cfi_startproc
 3101              		@ args = 0, pretend = 0, frame = 0
 3102              		@ frame_needed = 0, uses_anonymous_args = 0
 3103              		@ link register save eliminated.
ARM GAS  C:\Users\²Ü¼ÒºÀ\AppData\Local\Temp\cczrlpTg.s 			page 81


 946:C:/Users/²Ü¼ÒºÀ/.iotlink/sdk/IoT_LINK/iot_link/network/lwm2m/wakaama_lwm2m/wakaama-master/core/er-coap-13\er-coap-13.c ****     coap_packet_t *const coap_pkt = (coap_packet_t *) packet;
 3104              		.loc 1 946 5 view .LVU1064
 947:C:/Users/²Ü¼ÒºÀ/.iotlink/sdk/IoT_LINK/iot_link/network/lwm2m/wakaama_lwm2m/wakaama-master/core/er-coap-13\er-coap-13.c **** 
 948:C:/Users/²Ü¼ÒºÀ/.iotlink/sdk/IoT_LINK/iot_link/network/lwm2m/wakaama_lwm2m/wakaama-master/core/er-coap-13\er-coap-13.c ****     coap_pkt->content_type = (coap_content_type_t) content_type;
 3105              		.loc 1 948 5 view .LVU1065
 949:C:/Users/²Ü¼ÒºÀ/.iotlink/sdk/IoT_LINK/iot_link/network/lwm2m/wakaama_lwm2m/wakaama-master/core/er-coap-13\er-coap-13.c ****     SET_OPTION(coap_pkt, COAP_OPTION_CONTENT_TYPE);
 3106              		.loc 1 949 5 is_stmt 0 view .LVU1066
 3107 0000 C37A     		ldrb	r3, [r0, #11]	@ zero_extendqisi2
 948:C:/Users/²Ü¼ÒºÀ/.iotlink/sdk/IoT_LINK/iot_link/network/lwm2m/wakaama_lwm2m/wakaama-master/core/er-coap-13\er-coap-13.c ****     SET_OPTION(coap_pkt, COAP_OPTION_CONTENT_TYPE);
 3108              		.loc 1 948 30 view .LVU1067
 3109 0002 0182     		strh	r1, [r0, #16]	@ movhi
 3110              		.loc 1 949 5 is_stmt 1 view .LVU1068
 3111              		.loc 1 949 5 view .LVU1069
 3112 0004 43F01003 		orr	r3, r3, #16
 3113 0008 C372     		strb	r3, [r0, #11]
 3114              		.loc 1 949 51 view .LVU1070
 950:C:/Users/²Ü¼ÒºÀ/.iotlink/sdk/IoT_LINK/iot_link/network/lwm2m/wakaama_lwm2m/wakaama-master/core/er-coap-13\er-coap-13.c ****     return 1;
 3115              		.loc 1 950 5 view .LVU1071
 951:C:/Users/²Ü¼ÒºÀ/.iotlink/sdk/IoT_LINK/iot_link/network/lwm2m/wakaama_lwm2m/wakaama-master/core/er-coap-13\er-coap-13.c **** }
 3116              		.loc 1 951 1 is_stmt 0 view .LVU1072
 3117 000a 0120     		movs	r0, #1
 3118              	.LVL339:
 3119              		.loc 1 951 1 view .LVU1073
 3120 000c 7047     		bx	lr
 3121              		.cfi_endproc
 3122              	.LFE26:
 3124              		.section	.text.coap_get_header_accept,"ax",%progbits
 3125              		.align	1
 3126              		.global	coap_get_header_accept
 3127              		.syntax unified
 3128              		.thumb
 3129              		.thumb_func
 3130              		.fpu fpv4-sp-d16
 3132              	coap_get_header_accept:
 3133              	.LVL340:
 3134              	.LFB27:
 952:C:/Users/²Ü¼ÒºÀ/.iotlink/sdk/IoT_LINK/iot_link/network/lwm2m/wakaama_lwm2m/wakaama-master/core/er-coap-13\er-coap-13.c **** /*-----------------------------------------------------------------------------------*/
 953:C:/Users/²Ü¼ÒºÀ/.iotlink/sdk/IoT_LINK/iot_link/network/lwm2m/wakaama_lwm2m/wakaama-master/core/er-coap-13\er-coap-13.c **** int
 954:C:/Users/²Ü¼ÒºÀ/.iotlink/sdk/IoT_LINK/iot_link/network/lwm2m/wakaama_lwm2m/wakaama-master/core/er-coap-13\er-coap-13.c **** coap_get_header_accept(void *packet, const uint16_t **accept)
 955:C:/Users/²Ü¼ÒºÀ/.iotlink/sdk/IoT_LINK/iot_link/network/lwm2m/wakaama_lwm2m/wakaama-master/core/er-coap-13\er-coap-13.c **** {
 3135              		.loc 1 955 1 is_stmt 1 view -0
 3136              		.cfi_startproc
 3137              		@ args = 0, pretend = 0, frame = 0
 3138              		@ frame_needed = 0, uses_anonymous_args = 0
 3139              		@ link register save eliminated.
 956:C:/Users/²Ü¼ÒºÀ/.iotlink/sdk/IoT_LINK/iot_link/network/lwm2m/wakaama_lwm2m/wakaama-master/core/er-coap-13\er-coap-13.c ****     coap_packet_t *const coap_pkt = (coap_packet_t *) packet;
 3140              		.loc 1 956 5 view .LVU1075
 957:C:/Users/²Ü¼ÒºÀ/.iotlink/sdk/IoT_LINK/iot_link/network/lwm2m/wakaama_lwm2m/wakaama-master/core/er-coap-13\er-coap-13.c **** 
 958:C:/Users/²Ü¼ÒºÀ/.iotlink/sdk/IoT_LINK/iot_link/network/lwm2m/wakaama_lwm2m/wakaama-master/core/er-coap-13\er-coap-13.c ****     if (!IS_OPTION(coap_pkt, COAP_OPTION_ACCEPT)) return 0;
 3141              		.loc 1 958 5 view .LVU1076
 3142              		.loc 1 958 8 is_stmt 0 view .LVU1077
 3143 0000 037B     		ldrb	r3, [r0, #12]	@ zero_extendqisi2
 3144 0002 13F00203 		ands	r3, r3, #2
 959:C:/Users/²Ü¼ÒºÀ/.iotlink/sdk/IoT_LINK/iot_link/network/lwm2m/wakaama_lwm2m/wakaama-master/core/er-coap-13\er-coap-13.c **** 
 960:C:/Users/²Ü¼ÒºÀ/.iotlink/sdk/IoT_LINK/iot_link/network/lwm2m/wakaama_lwm2m/wakaama-master/core/er-coap-13\er-coap-13.c ****     *accept = coap_pkt->accept;
 3145              		.loc 1 960 5 is_stmt 1 view .LVU1078
 3146              		.loc 1 960 15 is_stmt 0 view .LVU1079
ARM GAS  C:\Users\²Ü¼ÒºÀ\AppData\Local\Temp\cczrlpTg.s 			page 82


 3147 0006 1DBF     		ittte	ne
 3148 0008 00F15603 		addne	r3, r0, #86
 3149              		.loc 1 960 13 view .LVU1080
 3150 000c 0B60     		strne	r3, [r1]
 961:C:/Users/²Ü¼ÒºÀ/.iotlink/sdk/IoT_LINK/iot_link/network/lwm2m/wakaama_lwm2m/wakaama-master/core/er-coap-13\er-coap-13.c ****     return coap_pkt->accept_num;
 3151              		.loc 1 961 5 is_stmt 1 view .LVU1081
 3152              		.loc 1 961 20 is_stmt 0 view .LVU1082
 3153 000e 90F85500 		ldrbne	r0, [r0, #85]	@ zero_extendqisi2
 3154              	.LVL341:
 958:C:/Users/²Ü¼ÒºÀ/.iotlink/sdk/IoT_LINK/iot_link/network/lwm2m/wakaama_lwm2m/wakaama-master/core/er-coap-13\er-coap-13.c **** 
 3155              		.loc 1 958 58 view .LVU1083
 3156 0012 1846     		moveq	r0, r3
 962:C:/Users/²Ü¼ÒºÀ/.iotlink/sdk/IoT_LINK/iot_link/network/lwm2m/wakaama_lwm2m/wakaama-master/core/er-coap-13\er-coap-13.c **** }
 3157              		.loc 1 962 1 view .LVU1084
 3158 0014 7047     		bx	lr
 3159              		.cfi_endproc
 3160              	.LFE27:
 3162              		.section	.text.coap_set_header_accept,"ax",%progbits
 3163              		.align	1
 3164              		.global	coap_set_header_accept
 3165              		.syntax unified
 3166              		.thumb
 3167              		.thumb_func
 3168              		.fpu fpv4-sp-d16
 3170              	coap_set_header_accept:
 3171              	.LVL342:
 3172              	.LFB28:
 963:C:/Users/²Ü¼ÒºÀ/.iotlink/sdk/IoT_LINK/iot_link/network/lwm2m/wakaama_lwm2m/wakaama-master/core/er-coap-13\er-coap-13.c **** 
 964:C:/Users/²Ü¼ÒºÀ/.iotlink/sdk/IoT_LINK/iot_link/network/lwm2m/wakaama_lwm2m/wakaama-master/core/er-coap-13\er-coap-13.c **** int
 965:C:/Users/²Ü¼ÒºÀ/.iotlink/sdk/IoT_LINK/iot_link/network/lwm2m/wakaama_lwm2m/wakaama-master/core/er-coap-13\er-coap-13.c **** coap_set_header_accept(void *packet, uint16_t accept)
 966:C:/Users/²Ü¼ÒºÀ/.iotlink/sdk/IoT_LINK/iot_link/network/lwm2m/wakaama_lwm2m/wakaama-master/core/er-coap-13\er-coap-13.c **** {
 3173              		.loc 1 966 1 is_stmt 1 view -0
 3174              		.cfi_startproc
 3175              		@ args = 0, pretend = 0, frame = 0
 3176              		@ frame_needed = 0, uses_anonymous_args = 0
 3177              		@ link register save eliminated.
 967:C:/Users/²Ü¼ÒºÀ/.iotlink/sdk/IoT_LINK/iot_link/network/lwm2m/wakaama_lwm2m/wakaama-master/core/er-coap-13\er-coap-13.c ****     coap_packet_t *const coap_pkt = (coap_packet_t *) packet;
 3178              		.loc 1 967 5 view .LVU1086
 968:C:/Users/²Ü¼ÒºÀ/.iotlink/sdk/IoT_LINK/iot_link/network/lwm2m/wakaama_lwm2m/wakaama-master/core/er-coap-13\er-coap-13.c **** 
 969:C:/Users/²Ü¼ÒºÀ/.iotlink/sdk/IoT_LINK/iot_link/network/lwm2m/wakaama_lwm2m/wakaama-master/core/er-coap-13\er-coap-13.c ****     if (coap_pkt->accept_num < COAP_MAX_ACCEPT_NUM)
 3179              		.loc 1 969 5 view .LVU1087
 3180              		.loc 1 969 17 is_stmt 0 view .LVU1088
 3181 0000 90F85530 		ldrb	r3, [r0, #85]	@ zero_extendqisi2
 3182              		.loc 1 969 8 view .LVU1089
 3183 0004 012B     		cmp	r3, #1
 3184 0006 0AD8     		bhi	.L292
 970:C:/Users/²Ü¼ÒºÀ/.iotlink/sdk/IoT_LINK/iot_link/network/lwm2m/wakaama_lwm2m/wakaama-master/core/er-coap-13\er-coap-13.c ****     {
 971:C:/Users/²Ü¼ÒºÀ/.iotlink/sdk/IoT_LINK/iot_link/network/lwm2m/wakaama_lwm2m/wakaama-master/core/er-coap-13\er-coap-13.c ****         coap_pkt->accept[coap_pkt->accept_num] = accept;
 3185              		.loc 1 971 9 is_stmt 1 view .LVU1090
 3186              		.loc 1 971 48 is_stmt 0 view .LVU1091
 3187 0008 00EB4302 		add	r2, r0, r3, lsl #1
 972:C:/Users/²Ü¼ÒºÀ/.iotlink/sdk/IoT_LINK/iot_link/network/lwm2m/wakaama_lwm2m/wakaama-master/core/er-coap-13\er-coap-13.c ****         coap_pkt->accept_num += 1;
 3188              		.loc 1 972 30 view .LVU1092
 3189 000c 0133     		adds	r3, r3, #1
 971:C:/Users/²Ü¼ÒºÀ/.iotlink/sdk/IoT_LINK/iot_link/network/lwm2m/wakaama_lwm2m/wakaama-master/core/er-coap-13\er-coap-13.c ****         coap_pkt->accept_num += 1;
 3190              		.loc 1 971 48 view .LVU1093
 3191 000e A2F85610 		strh	r1, [r2, #86]	@ movhi
ARM GAS  C:\Users\²Ü¼ÒºÀ\AppData\Local\Temp\cczrlpTg.s 			page 83


 3192              		.loc 1 972 9 is_stmt 1 view .LVU1094
 3193              		.loc 1 972 30 is_stmt 0 view .LVU1095
 3194 0012 80F85530 		strb	r3, [r0, #85]
 973:C:/Users/²Ü¼ÒºÀ/.iotlink/sdk/IoT_LINK/iot_link/network/lwm2m/wakaama_lwm2m/wakaama-master/core/er-coap-13\er-coap-13.c **** 
 974:C:/Users/²Ü¼ÒºÀ/.iotlink/sdk/IoT_LINK/iot_link/network/lwm2m/wakaama_lwm2m/wakaama-master/core/er-coap-13\er-coap-13.c ****         SET_OPTION(coap_pkt, COAP_OPTION_ACCEPT);
 3195              		.loc 1 974 9 is_stmt 1 view .LVU1096
 3196              		.loc 1 974 9 view .LVU1097
 3197 0016 037B     		ldrb	r3, [r0, #12]	@ zero_extendqisi2
 3198 0018 43F00203 		orr	r3, r3, #2
 3199 001c 0373     		strb	r3, [r0, #12]
 3200              	.L292:
 3201              		.loc 1 974 49 discriminator 3 view .LVU1098
 975:C:/Users/²Ü¼ÒºÀ/.iotlink/sdk/IoT_LINK/iot_link/network/lwm2m/wakaama_lwm2m/wakaama-master/core/er-coap-13\er-coap-13.c ****     }
 976:C:/Users/²Ü¼ÒºÀ/.iotlink/sdk/IoT_LINK/iot_link/network/lwm2m/wakaama_lwm2m/wakaama-master/core/er-coap-13\er-coap-13.c ****     return coap_pkt->accept_num;
 3202              		.loc 1 976 5 discriminator 3 view .LVU1099
 977:C:/Users/²Ü¼ÒºÀ/.iotlink/sdk/IoT_LINK/iot_link/network/lwm2m/wakaama_lwm2m/wakaama-master/core/er-coap-13\er-coap-13.c **** }
 3203              		.loc 1 977 1 is_stmt 0 discriminator 3 view .LVU1100
 3204 001e 90F85500 		ldrb	r0, [r0, #85]	@ zero_extendqisi2
 3205              	.LVL343:
 3206              		.loc 1 977 1 discriminator 3 view .LVU1101
 3207 0022 7047     		bx	lr
 3208              		.cfi_endproc
 3209              	.LFE28:
 3211              		.section	.text.coap_get_header_max_age,"ax",%progbits
 3212              		.align	1
 3213              		.global	coap_get_header_max_age
 3214              		.syntax unified
 3215              		.thumb
 3216              		.thumb_func
 3217              		.fpu fpv4-sp-d16
 3219              	coap_get_header_max_age:
 3220              	.LVL344:
 3221              	.LFB29:
 978:C:/Users/²Ü¼ÒºÀ/.iotlink/sdk/IoT_LINK/iot_link/network/lwm2m/wakaama_lwm2m/wakaama-master/core/er-coap-13\er-coap-13.c **** /*-----------------------------------------------------------------------------------*/
 979:C:/Users/²Ü¼ÒºÀ/.iotlink/sdk/IoT_LINK/iot_link/network/lwm2m/wakaama_lwm2m/wakaama-master/core/er-coap-13\er-coap-13.c **** int
 980:C:/Users/²Ü¼ÒºÀ/.iotlink/sdk/IoT_LINK/iot_link/network/lwm2m/wakaama_lwm2m/wakaama-master/core/er-coap-13\er-coap-13.c **** coap_get_header_max_age(void *packet, uint32_t *age)
 981:C:/Users/²Ü¼ÒºÀ/.iotlink/sdk/IoT_LINK/iot_link/network/lwm2m/wakaama_lwm2m/wakaama-master/core/er-coap-13\er-coap-13.c **** {
 3222              		.loc 1 981 1 is_stmt 1 view -0
 3223              		.cfi_startproc
 3224              		@ args = 0, pretend = 0, frame = 0
 3225              		@ frame_needed = 0, uses_anonymous_args = 0
 3226              		@ link register save eliminated.
 982:C:/Users/²Ü¼ÒºÀ/.iotlink/sdk/IoT_LINK/iot_link/network/lwm2m/wakaama_lwm2m/wakaama-master/core/er-coap-13\er-coap-13.c ****     coap_packet_t *const coap_pkt = (coap_packet_t *) packet;
 3227              		.loc 1 982 5 view .LVU1103
 983:C:/Users/²Ü¼ÒºÀ/.iotlink/sdk/IoT_LINK/iot_link/network/lwm2m/wakaama_lwm2m/wakaama-master/core/er-coap-13\er-coap-13.c **** 
 984:C:/Users/²Ü¼ÒºÀ/.iotlink/sdk/IoT_LINK/iot_link/network/lwm2m/wakaama_lwm2m/wakaama-master/core/er-coap-13\er-coap-13.c ****     if (!IS_OPTION(coap_pkt, COAP_OPTION_MAX_AGE))
 3228              		.loc 1 984 5 view .LVU1104
 3229              		.loc 1 984 8 is_stmt 0 view .LVU1105
 3230 0000 C37A     		ldrb	r3, [r0, #11]	@ zero_extendqisi2
 3231 0002 5B06     		lsls	r3, r3, #25
 985:C:/Users/²Ü¼ÒºÀ/.iotlink/sdk/IoT_LINK/iot_link/network/lwm2m/wakaama_lwm2m/wakaama-master/core/er-coap-13\er-coap-13.c ****     {
 986:C:/Users/²Ü¼ÒºÀ/.iotlink/sdk/IoT_LINK/iot_link/network/lwm2m/wakaama_lwm2m/wakaama-master/core/er-coap-13\er-coap-13.c ****         *age = COAP_DEFAULT_MAX_AGE;
 987:C:/Users/²Ü¼ÒºÀ/.iotlink/sdk/IoT_LINK/iot_link/network/lwm2m/wakaama_lwm2m/wakaama-master/core/er-coap-13\er-coap-13.c ****     }
 988:C:/Users/²Ü¼ÒºÀ/.iotlink/sdk/IoT_LINK/iot_link/network/lwm2m/wakaama_lwm2m/wakaama-master/core/er-coap-13\er-coap-13.c ****     else
 989:C:/Users/²Ü¼ÒºÀ/.iotlink/sdk/IoT_LINK/iot_link/network/lwm2m/wakaama_lwm2m/wakaama-master/core/er-coap-13\er-coap-13.c ****     {
 990:C:/Users/²Ü¼ÒºÀ/.iotlink/sdk/IoT_LINK/iot_link/network/lwm2m/wakaama_lwm2m/wakaama-master/core/er-coap-13\er-coap-13.c ****         *age = coap_pkt->max_age;
 3232              		.loc 1 990 9 is_stmt 1 view .LVU1106
ARM GAS  C:\Users\²Ü¼ÒºÀ\AppData\Local\Temp\cczrlpTg.s 			page 84


 3233              		.loc 1 990 24 is_stmt 0 view .LVU1107
 3234 0004 4CBF     		ite	mi
 3235 0006 4369     		ldrmi	r3, [r0, #20]
 986:C:/Users/²Ü¼ÒºÀ/.iotlink/sdk/IoT_LINK/iot_link/network/lwm2m/wakaama_lwm2m/wakaama-master/core/er-coap-13\er-coap-13.c ****     }
 3236              		.loc 1 986 14 view .LVU1108
 3237 0008 3C23     		movpl	r3, #60
 3238 000a 0B60     		str	r3, [r1]
 991:C:/Users/²Ü¼ÒºÀ/.iotlink/sdk/IoT_LINK/iot_link/network/lwm2m/wakaama_lwm2m/wakaama-master/core/er-coap-13\er-coap-13.c ****     }
 992:C:/Users/²Ü¼ÒºÀ/.iotlink/sdk/IoT_LINK/iot_link/network/lwm2m/wakaama_lwm2m/wakaama-master/core/er-coap-13\er-coap-13.c ****     return 1;
 3239              		.loc 1 992 5 is_stmt 1 view .LVU1109
 993:C:/Users/²Ü¼ÒºÀ/.iotlink/sdk/IoT_LINK/iot_link/network/lwm2m/wakaama_lwm2m/wakaama-master/core/er-coap-13\er-coap-13.c **** }
 3240              		.loc 1 993 1 is_stmt 0 view .LVU1110
 3241 000c 0120     		movs	r0, #1
 3242              	.LVL345:
 3243              		.loc 1 993 1 view .LVU1111
 3244 000e 7047     		bx	lr
 3245              		.cfi_endproc
 3246              	.LFE29:
 3248              		.section	.text.coap_set_header_max_age,"ax",%progbits
 3249              		.align	1
 3250              		.global	coap_set_header_max_age
 3251              		.syntax unified
 3252              		.thumb
 3253              		.thumb_func
 3254              		.fpu fpv4-sp-d16
 3256              	coap_set_header_max_age:
 3257              	.LVL346:
 3258              	.LFB30:
 994:C:/Users/²Ü¼ÒºÀ/.iotlink/sdk/IoT_LINK/iot_link/network/lwm2m/wakaama_lwm2m/wakaama-master/core/er-coap-13\er-coap-13.c **** 
 995:C:/Users/²Ü¼ÒºÀ/.iotlink/sdk/IoT_LINK/iot_link/network/lwm2m/wakaama_lwm2m/wakaama-master/core/er-coap-13\er-coap-13.c **** int
 996:C:/Users/²Ü¼ÒºÀ/.iotlink/sdk/IoT_LINK/iot_link/network/lwm2m/wakaama_lwm2m/wakaama-master/core/er-coap-13\er-coap-13.c **** coap_set_header_max_age(void *packet, uint32_t age)
 997:C:/Users/²Ü¼ÒºÀ/.iotlink/sdk/IoT_LINK/iot_link/network/lwm2m/wakaama_lwm2m/wakaama-master/core/er-coap-13\er-coap-13.c **** {
 3259              		.loc 1 997 1 is_stmt 1 view -0
 3260              		.cfi_startproc
 3261              		@ args = 0, pretend = 0, frame = 0
 3262              		@ frame_needed = 0, uses_anonymous_args = 0
 3263              		@ link register save eliminated.
 998:C:/Users/²Ü¼ÒºÀ/.iotlink/sdk/IoT_LINK/iot_link/network/lwm2m/wakaama_lwm2m/wakaama-master/core/er-coap-13\er-coap-13.c ****     coap_packet_t *const coap_pkt = (coap_packet_t *) packet;
 3264              		.loc 1 998 5 view .LVU1113
 999:C:/Users/²Ü¼ÒºÀ/.iotlink/sdk/IoT_LINK/iot_link/network/lwm2m/wakaama_lwm2m/wakaama-master/core/er-coap-13\er-coap-13.c **** 
1000:C:/Users/²Ü¼ÒºÀ/.iotlink/sdk/IoT_LINK/iot_link/network/lwm2m/wakaama_lwm2m/wakaama-master/core/er-coap-13\er-coap-13.c ****     coap_pkt->max_age = age;
 3265              		.loc 1 1000 5 view .LVU1114
1001:C:/Users/²Ü¼ÒºÀ/.iotlink/sdk/IoT_LINK/iot_link/network/lwm2m/wakaama_lwm2m/wakaama-master/core/er-coap-13\er-coap-13.c ****     SET_OPTION(coap_pkt, COAP_OPTION_MAX_AGE);
 3266              		.loc 1 1001 5 is_stmt 0 view .LVU1115
 3267 0000 C37A     		ldrb	r3, [r0, #11]	@ zero_extendqisi2
1000:C:/Users/²Ü¼ÒºÀ/.iotlink/sdk/IoT_LINK/iot_link/network/lwm2m/wakaama_lwm2m/wakaama-master/core/er-coap-13\er-coap-13.c ****     SET_OPTION(coap_pkt, COAP_OPTION_MAX_AGE);
 3268              		.loc 1 1000 23 view .LVU1116
 3269 0002 4161     		str	r1, [r0, #20]
 3270              		.loc 1 1001 5 is_stmt 1 view .LVU1117
 3271              		.loc 1 1001 5 view .LVU1118
 3272 0004 43F04003 		orr	r3, r3, #64
 3273 0008 C372     		strb	r3, [r0, #11]
 3274              		.loc 1 1001 46 view .LVU1119
1002:C:/Users/²Ü¼ÒºÀ/.iotlink/sdk/IoT_LINK/iot_link/network/lwm2m/wakaama_lwm2m/wakaama-master/core/er-coap-13\er-coap-13.c ****     return 1;
 3275              		.loc 1 1002 5 view .LVU1120
1003:C:/Users/²Ü¼ÒºÀ/.iotlink/sdk/IoT_LINK/iot_link/network/lwm2m/wakaama_lwm2m/wakaama-master/core/er-coap-13\er-coap-13.c **** }
 3276              		.loc 1 1003 1 is_stmt 0 view .LVU1121
ARM GAS  C:\Users\²Ü¼ÒºÀ\AppData\Local\Temp\cczrlpTg.s 			page 85


 3277 000a 0120     		movs	r0, #1
 3278              	.LVL347:
 3279              		.loc 1 1003 1 view .LVU1122
 3280 000c 7047     		bx	lr
 3281              		.cfi_endproc
 3282              	.LFE30:
 3284              		.section	.text.coap_get_header_etag,"ax",%progbits
 3285              		.align	1
 3286              		.global	coap_get_header_etag
 3287              		.syntax unified
 3288              		.thumb
 3289              		.thumb_func
 3290              		.fpu fpv4-sp-d16
 3292              	coap_get_header_etag:
 3293              	.LVL348:
 3294              	.LFB31:
1004:C:/Users/²Ü¼ÒºÀ/.iotlink/sdk/IoT_LINK/iot_link/network/lwm2m/wakaama_lwm2m/wakaama-master/core/er-coap-13\er-coap-13.c **** /*-----------------------------------------------------------------------------------*/
1005:C:/Users/²Ü¼ÒºÀ/.iotlink/sdk/IoT_LINK/iot_link/network/lwm2m/wakaama_lwm2m/wakaama-master/core/er-coap-13\er-coap-13.c **** int
1006:C:/Users/²Ü¼ÒºÀ/.iotlink/sdk/IoT_LINK/iot_link/network/lwm2m/wakaama_lwm2m/wakaama-master/core/er-coap-13\er-coap-13.c **** coap_get_header_etag(void *packet, const uint8_t **etag)
1007:C:/Users/²Ü¼ÒºÀ/.iotlink/sdk/IoT_LINK/iot_link/network/lwm2m/wakaama_lwm2m/wakaama-master/core/er-coap-13\er-coap-13.c **** {
 3295              		.loc 1 1007 1 is_stmt 1 view -0
 3296              		.cfi_startproc
 3297              		@ args = 0, pretend = 0, frame = 0
 3298              		@ frame_needed = 0, uses_anonymous_args = 0
 3299              		@ link register save eliminated.
1008:C:/Users/²Ü¼ÒºÀ/.iotlink/sdk/IoT_LINK/iot_link/network/lwm2m/wakaama_lwm2m/wakaama-master/core/er-coap-13\er-coap-13.c ****     coap_packet_t *const coap_pkt = (coap_packet_t *) packet;
 3300              		.loc 1 1008 5 view .LVU1124
1009:C:/Users/²Ü¼ÒºÀ/.iotlink/sdk/IoT_LINK/iot_link/network/lwm2m/wakaama_lwm2m/wakaama-master/core/er-coap-13\er-coap-13.c **** 
1010:C:/Users/²Ü¼ÒºÀ/.iotlink/sdk/IoT_LINK/iot_link/network/lwm2m/wakaama_lwm2m/wakaama-master/core/er-coap-13\er-coap-13.c ****     if (!IS_OPTION(coap_pkt, COAP_OPTION_ETAG)) return 0;
 3301              		.loc 1 1010 5 view .LVU1125
 3302              		.loc 1 1010 8 is_stmt 0 view .LVU1126
 3303 0000 837A     		ldrb	r3, [r0, #10]	@ zero_extendqisi2
 3304 0002 13F01003 		ands	r3, r3, #16
1011:C:/Users/²Ü¼ÒºÀ/.iotlink/sdk/IoT_LINK/iot_link/network/lwm2m/wakaama_lwm2m/wakaama-master/core/er-coap-13\er-coap-13.c **** 
1012:C:/Users/²Ü¼ÒºÀ/.iotlink/sdk/IoT_LINK/iot_link/network/lwm2m/wakaama_lwm2m/wakaama-master/core/er-coap-13\er-coap-13.c ****     *etag = coap_pkt->etag;
 3305              		.loc 1 1012 5 is_stmt 1 view .LVU1127
 3306              		.loc 1 1012 13 is_stmt 0 view .LVU1128
 3307 0006 1DBF     		ittte	ne
 3308 0008 00F12103 		addne	r3, r0, #33
 3309              		.loc 1 1012 11 view .LVU1129
 3310 000c 0B60     		strne	r3, [r1]
1013:C:/Users/²Ü¼ÒºÀ/.iotlink/sdk/IoT_LINK/iot_link/network/lwm2m/wakaama_lwm2m/wakaama-master/core/er-coap-13\er-coap-13.c ****     return coap_pkt->etag_len;
 3311              		.loc 1 1013 5 is_stmt 1 view .LVU1130
 3312              		.loc 1 1013 20 is_stmt 0 view .LVU1131
 3313 000e 90F82000 		ldrbne	r0, [r0, #32]	@ zero_extendqisi2
 3314              	.LVL349:
1010:C:/Users/²Ü¼ÒºÀ/.iotlink/sdk/IoT_LINK/iot_link/network/lwm2m/wakaama_lwm2m/wakaama-master/core/er-coap-13\er-coap-13.c **** 
 3315              		.loc 1 1010 56 view .LVU1132
 3316 0012 1846     		moveq	r0, r3
1014:C:/Users/²Ü¼ÒºÀ/.iotlink/sdk/IoT_LINK/iot_link/network/lwm2m/wakaama_lwm2m/wakaama-master/core/er-coap-13\er-coap-13.c **** }
 3317              		.loc 1 1014 1 view .LVU1133
 3318 0014 7047     		bx	lr
 3319              		.cfi_endproc
 3320              	.LFE31:
 3322              		.section	.text.coap_set_header_etag,"ax",%progbits
 3323              		.align	1
 3324              		.global	coap_set_header_etag
ARM GAS  C:\Users\²Ü¼ÒºÀ\AppData\Local\Temp\cczrlpTg.s 			page 86


 3325              		.syntax unified
 3326              		.thumb
 3327              		.thumb_func
 3328              		.fpu fpv4-sp-d16
 3330              	coap_set_header_etag:
 3331              	.LVL350:
 3332              	.LFB32:
1015:C:/Users/²Ü¼ÒºÀ/.iotlink/sdk/IoT_LINK/iot_link/network/lwm2m/wakaama_lwm2m/wakaama-master/core/er-coap-13\er-coap-13.c **** 
1016:C:/Users/²Ü¼ÒºÀ/.iotlink/sdk/IoT_LINK/iot_link/network/lwm2m/wakaama_lwm2m/wakaama-master/core/er-coap-13\er-coap-13.c **** int
1017:C:/Users/²Ü¼ÒºÀ/.iotlink/sdk/IoT_LINK/iot_link/network/lwm2m/wakaama_lwm2m/wakaama-master/core/er-coap-13\er-coap-13.c **** coap_set_header_etag(void *packet, const uint8_t *etag, size_t etag_len)
1018:C:/Users/²Ü¼ÒºÀ/.iotlink/sdk/IoT_LINK/iot_link/network/lwm2m/wakaama_lwm2m/wakaama-master/core/er-coap-13\er-coap-13.c **** {
 3333              		.loc 1 1018 1 is_stmt 1 view -0
 3334              		.cfi_startproc
 3335              		@ args = 0, pretend = 0, frame = 0
 3336              		@ frame_needed = 0, uses_anonymous_args = 0
1019:C:/Users/²Ü¼ÒºÀ/.iotlink/sdk/IoT_LINK/iot_link/network/lwm2m/wakaama_lwm2m/wakaama-master/core/er-coap-13\er-coap-13.c ****     coap_packet_t *const coap_pkt = (coap_packet_t *) packet;
 3337              		.loc 1 1019 5 view .LVU1135
1020:C:/Users/²Ü¼ÒºÀ/.iotlink/sdk/IoT_LINK/iot_link/network/lwm2m/wakaama_lwm2m/wakaama-master/core/er-coap-13\er-coap-13.c **** 
1021:C:/Users/²Ü¼ÒºÀ/.iotlink/sdk/IoT_LINK/iot_link/network/lwm2m/wakaama_lwm2m/wakaama-master/core/er-coap-13\er-coap-13.c ****     coap_pkt->etag_len = (uint8_t)(MIN(COAP_ETAG_LEN, etag_len));
 3338              		.loc 1 1021 5 view .LVU1136
 3339 0000 082A     		cmp	r2, #8
1018:C:/Users/²Ü¼ÒºÀ/.iotlink/sdk/IoT_LINK/iot_link/network/lwm2m/wakaama_lwm2m/wakaama-master/core/er-coap-13\er-coap-13.c ****     coap_packet_t *const coap_pkt = (coap_packet_t *) packet;
 3340              		.loc 1 1018 1 is_stmt 0 view .LVU1137
 3341 0002 38B5     		push	{r3, r4, r5, lr}
 3342              	.LCFI22:
 3343              		.cfi_def_cfa_offset 16
 3344              		.cfi_offset 3, -16
 3345              		.cfi_offset 4, -12
 3346              		.cfi_offset 5, -8
 3347              		.cfi_offset 14, -4
 3348 0004 28BF     		it	cs
 3349 0006 0822     		movcs	r2, #8
 3350              	.LVL351:
1018:C:/Users/²Ü¼ÒºÀ/.iotlink/sdk/IoT_LINK/iot_link/network/lwm2m/wakaama_lwm2m/wakaama-master/core/er-coap-13\er-coap-13.c ****     coap_packet_t *const coap_pkt = (coap_packet_t *) packet;
 3351              		.loc 1 1018 1 view .LVU1138
 3352 0008 0446     		mov	r4, r0
 3353              		.loc 1 1021 24 view .LVU1139
 3354 000a 80F82020 		strb	r2, [r0, #32]
1022:C:/Users/²Ü¼ÒºÀ/.iotlink/sdk/IoT_LINK/iot_link/network/lwm2m/wakaama_lwm2m/wakaama-master/core/er-coap-13\er-coap-13.c ****     memcpy(coap_pkt->etag, etag, coap_pkt->etag_len);
 3355              		.loc 1 1022 5 is_stmt 1 view .LVU1140
 3356 000e 2130     		adds	r0, r0, #33
 3357              	.LVL352:
 3358              		.loc 1 1022 5 is_stmt 0 view .LVU1141
 3359 0010 1546     		mov	r5, r2
 3360 0012 FFF7FEFF 		bl	memcpy
 3361              	.LVL353:
1023:C:/Users/²Ü¼ÒºÀ/.iotlink/sdk/IoT_LINK/iot_link/network/lwm2m/wakaama_lwm2m/wakaama-master/core/er-coap-13\er-coap-13.c **** 
1024:C:/Users/²Ü¼ÒºÀ/.iotlink/sdk/IoT_LINK/iot_link/network/lwm2m/wakaama_lwm2m/wakaama-master/core/er-coap-13\er-coap-13.c ****     SET_OPTION(coap_pkt, COAP_OPTION_ETAG);
 3362              		.loc 1 1024 5 is_stmt 1 view .LVU1142
 3363              		.loc 1 1024 5 view .LVU1143
 3364 0016 A37A     		ldrb	r3, [r4, #10]	@ zero_extendqisi2
 3365 0018 43F01003 		orr	r3, r3, #16
 3366 001c A372     		strb	r3, [r4, #10]
 3367              		.loc 1 1024 43 view .LVU1144
1025:C:/Users/²Ü¼ÒºÀ/.iotlink/sdk/IoT_LINK/iot_link/network/lwm2m/wakaama_lwm2m/wakaama-master/core/er-coap-13\er-coap-13.c ****     return coap_pkt->etag_len;
 3368              		.loc 1 1025 5 view .LVU1145
1026:C:/Users/²Ü¼ÒºÀ/.iotlink/sdk/IoT_LINK/iot_link/network/lwm2m/wakaama_lwm2m/wakaama-master/core/er-coap-13\er-coap-13.c **** }
ARM GAS  C:\Users\²Ü¼ÒºÀ\AppData\Local\Temp\cczrlpTg.s 			page 87


 3369              		.loc 1 1026 1 is_stmt 0 view .LVU1146
 3370 001e 2846     		mov	r0, r5
 3371 0020 38BD     		pop	{r3, r4, r5, pc}
 3372              		.loc 1 1026 1 view .LVU1147
 3373              		.cfi_endproc
 3374              	.LFE32:
 3376              		.section	.text.coap_get_header_if_match,"ax",%progbits
 3377              		.align	1
 3378              		.global	coap_get_header_if_match
 3379              		.syntax unified
 3380              		.thumb
 3381              		.thumb_func
 3382              		.fpu fpv4-sp-d16
 3384              	coap_get_header_if_match:
 3385              	.LVL354:
 3386              	.LFB33:
1027:C:/Users/²Ü¼ÒºÀ/.iotlink/sdk/IoT_LINK/iot_link/network/lwm2m/wakaama_lwm2m/wakaama-master/core/er-coap-13\er-coap-13.c **** /*-----------------------------------------------------------------------------------*/
1028:C:/Users/²Ü¼ÒºÀ/.iotlink/sdk/IoT_LINK/iot_link/network/lwm2m/wakaama_lwm2m/wakaama-master/core/er-coap-13\er-coap-13.c **** /*FIXME support multiple ETags */
1029:C:/Users/²Ü¼ÒºÀ/.iotlink/sdk/IoT_LINK/iot_link/network/lwm2m/wakaama_lwm2m/wakaama-master/core/er-coap-13\er-coap-13.c **** int
1030:C:/Users/²Ü¼ÒºÀ/.iotlink/sdk/IoT_LINK/iot_link/network/lwm2m/wakaama_lwm2m/wakaama-master/core/er-coap-13\er-coap-13.c **** coap_get_header_if_match(void *packet, const uint8_t **etag)
1031:C:/Users/²Ü¼ÒºÀ/.iotlink/sdk/IoT_LINK/iot_link/network/lwm2m/wakaama_lwm2m/wakaama-master/core/er-coap-13\er-coap-13.c **** {
 3387              		.loc 1 1031 1 is_stmt 1 view -0
 3388              		.cfi_startproc
 3389              		@ args = 0, pretend = 0, frame = 0
 3390              		@ frame_needed = 0, uses_anonymous_args = 0
 3391              		@ link register save eliminated.
1032:C:/Users/²Ü¼ÒºÀ/.iotlink/sdk/IoT_LINK/iot_link/network/lwm2m/wakaama_lwm2m/wakaama-master/core/er-coap-13\er-coap-13.c ****     coap_packet_t *const coap_pkt = (coap_packet_t *) packet;
 3392              		.loc 1 1032 5 view .LVU1149
1033:C:/Users/²Ü¼ÒºÀ/.iotlink/sdk/IoT_LINK/iot_link/network/lwm2m/wakaama_lwm2m/wakaama-master/core/er-coap-13\er-coap-13.c **** 
1034:C:/Users/²Ü¼ÒºÀ/.iotlink/sdk/IoT_LINK/iot_link/network/lwm2m/wakaama_lwm2m/wakaama-master/core/er-coap-13\er-coap-13.c ****     if (!IS_OPTION(coap_pkt, COAP_OPTION_IF_MATCH)) return 0;
 3393              		.loc 1 1034 5 view .LVU1150
 3394              		.loc 1 1034 8 is_stmt 0 view .LVU1151
 3395 0000 837A     		ldrb	r3, [r0, #10]	@ zero_extendqisi2
 3396 0002 13F00203 		ands	r3, r3, #2
1035:C:/Users/²Ü¼ÒºÀ/.iotlink/sdk/IoT_LINK/iot_link/network/lwm2m/wakaama_lwm2m/wakaama-master/core/er-coap-13\er-coap-13.c **** 
1036:C:/Users/²Ü¼ÒºÀ/.iotlink/sdk/IoT_LINK/iot_link/network/lwm2m/wakaama_lwm2m/wakaama-master/core/er-coap-13\er-coap-13.c ****     *etag = coap_pkt->if_match;
 3397              		.loc 1 1036 5 is_stmt 1 view .LVU1152
 3398              		.loc 1 1036 13 is_stmt 0 view .LVU1153
 3399 0006 1DBF     		ittte	ne
 3400 0008 00F15B03 		addne	r3, r0, #91
 3401              		.loc 1 1036 11 view .LVU1154
 3402 000c 0B60     		strne	r3, [r1]
1037:C:/Users/²Ü¼ÒºÀ/.iotlink/sdk/IoT_LINK/iot_link/network/lwm2m/wakaama_lwm2m/wakaama-master/core/er-coap-13\er-coap-13.c ****     return coap_pkt->if_match_len;
 3403              		.loc 1 1037 5 is_stmt 1 view .LVU1155
 3404              		.loc 1 1037 20 is_stmt 0 view .LVU1156
 3405 000e 90F85A00 		ldrbne	r0, [r0, #90]	@ zero_extendqisi2
 3406              	.LVL355:
1034:C:/Users/²Ü¼ÒºÀ/.iotlink/sdk/IoT_LINK/iot_link/network/lwm2m/wakaama_lwm2m/wakaama-master/core/er-coap-13\er-coap-13.c **** 
 3407              		.loc 1 1034 60 view .LVU1157
 3408 0012 1846     		moveq	r0, r3
1038:C:/Users/²Ü¼ÒºÀ/.iotlink/sdk/IoT_LINK/iot_link/network/lwm2m/wakaama_lwm2m/wakaama-master/core/er-coap-13\er-coap-13.c **** }
 3409              		.loc 1 1038 1 view .LVU1158
 3410 0014 7047     		bx	lr
 3411              		.cfi_endproc
 3412              	.LFE33:
 3414              		.section	.text.coap_set_header_if_match,"ax",%progbits
 3415              		.align	1
ARM GAS  C:\Users\²Ü¼ÒºÀ\AppData\Local\Temp\cczrlpTg.s 			page 88


 3416              		.global	coap_set_header_if_match
 3417              		.syntax unified
 3418              		.thumb
 3419              		.thumb_func
 3420              		.fpu fpv4-sp-d16
 3422              	coap_set_header_if_match:
 3423              	.LVL356:
 3424              	.LFB34:
1039:C:/Users/²Ü¼ÒºÀ/.iotlink/sdk/IoT_LINK/iot_link/network/lwm2m/wakaama_lwm2m/wakaama-master/core/er-coap-13\er-coap-13.c **** 
1040:C:/Users/²Ü¼ÒºÀ/.iotlink/sdk/IoT_LINK/iot_link/network/lwm2m/wakaama_lwm2m/wakaama-master/core/er-coap-13\er-coap-13.c **** int
1041:C:/Users/²Ü¼ÒºÀ/.iotlink/sdk/IoT_LINK/iot_link/network/lwm2m/wakaama_lwm2m/wakaama-master/core/er-coap-13\er-coap-13.c **** coap_set_header_if_match(void *packet, const uint8_t *etag, size_t etag_len)
1042:C:/Users/²Ü¼ÒºÀ/.iotlink/sdk/IoT_LINK/iot_link/network/lwm2m/wakaama_lwm2m/wakaama-master/core/er-coap-13\er-coap-13.c **** {
 3425              		.loc 1 1042 1 is_stmt 1 view -0
 3426              		.cfi_startproc
 3427              		@ args = 0, pretend = 0, frame = 0
 3428              		@ frame_needed = 0, uses_anonymous_args = 0
1043:C:/Users/²Ü¼ÒºÀ/.iotlink/sdk/IoT_LINK/iot_link/network/lwm2m/wakaama_lwm2m/wakaama-master/core/er-coap-13\er-coap-13.c ****     coap_packet_t *const coap_pkt = (coap_packet_t *) packet;
 3429              		.loc 1 1043 5 view .LVU1160
1044:C:/Users/²Ü¼ÒºÀ/.iotlink/sdk/IoT_LINK/iot_link/network/lwm2m/wakaama_lwm2m/wakaama-master/core/er-coap-13\er-coap-13.c **** 
1045:C:/Users/²Ü¼ÒºÀ/.iotlink/sdk/IoT_LINK/iot_link/network/lwm2m/wakaama_lwm2m/wakaama-master/core/er-coap-13\er-coap-13.c ****     coap_pkt->if_match_len = (uint8_t)(MIN(COAP_ETAG_LEN, etag_len));
 3430              		.loc 1 1045 5 view .LVU1161
 3431 0000 082A     		cmp	r2, #8
1042:C:/Users/²Ü¼ÒºÀ/.iotlink/sdk/IoT_LINK/iot_link/network/lwm2m/wakaama_lwm2m/wakaama-master/core/er-coap-13\er-coap-13.c ****     coap_packet_t *const coap_pkt = (coap_packet_t *) packet;
 3432              		.loc 1 1042 1 is_stmt 0 view .LVU1162
 3433 0002 38B5     		push	{r3, r4, r5, lr}
 3434              	.LCFI23:
 3435              		.cfi_def_cfa_offset 16
 3436              		.cfi_offset 3, -16
 3437              		.cfi_offset 4, -12
 3438              		.cfi_offset 5, -8
 3439              		.cfi_offset 14, -4
 3440 0004 28BF     		it	cs
 3441 0006 0822     		movcs	r2, #8
 3442              	.LVL357:
1042:C:/Users/²Ü¼ÒºÀ/.iotlink/sdk/IoT_LINK/iot_link/network/lwm2m/wakaama_lwm2m/wakaama-master/core/er-coap-13\er-coap-13.c ****     coap_packet_t *const coap_pkt = (coap_packet_t *) packet;
 3443              		.loc 1 1042 1 view .LVU1163
 3444 0008 0446     		mov	r4, r0
 3445              		.loc 1 1045 28 view .LVU1164
 3446 000a 80F85A20 		strb	r2, [r0, #90]
1046:C:/Users/²Ü¼ÒºÀ/.iotlink/sdk/IoT_LINK/iot_link/network/lwm2m/wakaama_lwm2m/wakaama-master/core/er-coap-13\er-coap-13.c ****     memcpy(coap_pkt->if_match, etag, coap_pkt->if_match_len);
 3447              		.loc 1 1046 5 is_stmt 1 view .LVU1165
 3448 000e 5B30     		adds	r0, r0, #91
 3449              	.LVL358:
 3450              		.loc 1 1046 5 is_stmt 0 view .LVU1166
 3451 0010 1546     		mov	r5, r2
 3452 0012 FFF7FEFF 		bl	memcpy
 3453              	.LVL359:
1047:C:/Users/²Ü¼ÒºÀ/.iotlink/sdk/IoT_LINK/iot_link/network/lwm2m/wakaama_lwm2m/wakaama-master/core/er-coap-13\er-coap-13.c **** 
1048:C:/Users/²Ü¼ÒºÀ/.iotlink/sdk/IoT_LINK/iot_link/network/lwm2m/wakaama_lwm2m/wakaama-master/core/er-coap-13\er-coap-13.c ****     SET_OPTION(coap_pkt, COAP_OPTION_IF_MATCH);
 3454              		.loc 1 1048 5 is_stmt 1 view .LVU1167
 3455              		.loc 1 1048 5 view .LVU1168
 3456 0016 A37A     		ldrb	r3, [r4, #10]	@ zero_extendqisi2
 3457 0018 43F00203 		orr	r3, r3, #2
 3458 001c A372     		strb	r3, [r4, #10]
 3459              		.loc 1 1048 47 view .LVU1169
1049:C:/Users/²Ü¼ÒºÀ/.iotlink/sdk/IoT_LINK/iot_link/network/lwm2m/wakaama_lwm2m/wakaama-master/core/er-coap-13\er-coap-13.c ****     return coap_pkt->if_match_len;
 3460              		.loc 1 1049 5 view .LVU1170
ARM GAS  C:\Users\²Ü¼ÒºÀ\AppData\Local\Temp\cczrlpTg.s 			page 89


1050:C:/Users/²Ü¼ÒºÀ/.iotlink/sdk/IoT_LINK/iot_link/network/lwm2m/wakaama_lwm2m/wakaama-master/core/er-coap-13\er-coap-13.c **** }
 3461              		.loc 1 1050 1 is_stmt 0 view .LVU1171
 3462 001e 2846     		mov	r0, r5
 3463 0020 38BD     		pop	{r3, r4, r5, pc}
 3464              		.loc 1 1050 1 view .LVU1172
 3465              		.cfi_endproc
 3466              	.LFE34:
 3468              		.section	.text.coap_get_header_if_none_match,"ax",%progbits
 3469              		.align	1
 3470              		.global	coap_get_header_if_none_match
 3471              		.syntax unified
 3472              		.thumb
 3473              		.thumb_func
 3474              		.fpu fpv4-sp-d16
 3476              	coap_get_header_if_none_match:
 3477              	.LVL360:
 3478              	.LFB35:
1051:C:/Users/²Ü¼ÒºÀ/.iotlink/sdk/IoT_LINK/iot_link/network/lwm2m/wakaama_lwm2m/wakaama-master/core/er-coap-13\er-coap-13.c **** /*-----------------------------------------------------------------------------------*/
1052:C:/Users/²Ü¼ÒºÀ/.iotlink/sdk/IoT_LINK/iot_link/network/lwm2m/wakaama_lwm2m/wakaama-master/core/er-coap-13\er-coap-13.c **** int
1053:C:/Users/²Ü¼ÒºÀ/.iotlink/sdk/IoT_LINK/iot_link/network/lwm2m/wakaama_lwm2m/wakaama-master/core/er-coap-13\er-coap-13.c **** coap_get_header_if_none_match(void *packet)
1054:C:/Users/²Ü¼ÒºÀ/.iotlink/sdk/IoT_LINK/iot_link/network/lwm2m/wakaama_lwm2m/wakaama-master/core/er-coap-13\er-coap-13.c **** {
 3479              		.loc 1 1054 1 is_stmt 1 view -0
 3480              		.cfi_startproc
 3481              		@ args = 0, pretend = 0, frame = 0
 3482              		@ frame_needed = 0, uses_anonymous_args = 0
 3483              		@ link register save eliminated.
1055:C:/Users/²Ü¼ÒºÀ/.iotlink/sdk/IoT_LINK/iot_link/network/lwm2m/wakaama_lwm2m/wakaama-master/core/er-coap-13\er-coap-13.c ****     return IS_OPTION((coap_packet_t *)packet, COAP_OPTION_IF_NONE_MATCH) ? 1 : 0;
 3484              		.loc 1 1055 5 view .LVU1174
 3485              		.loc 1 1055 78 is_stmt 0 view .LVU1175
 3486 0000 807A     		ldrb	r0, [r0, #10]	@ zero_extendqisi2
 3487              	.LVL361:
1056:C:/Users/²Ü¼ÒºÀ/.iotlink/sdk/IoT_LINK/iot_link/network/lwm2m/wakaama_lwm2m/wakaama-master/core/er-coap-13\er-coap-13.c **** }
 3488              		.loc 1 1056 1 view .LVU1176
 3489 0002 C0F34010 		ubfx	r0, r0, #5, #1
 3490 0006 7047     		bx	lr
 3491              		.cfi_endproc
 3492              	.LFE35:
 3494              		.section	.text.coap_set_header_if_none_match,"ax",%progbits
 3495              		.align	1
 3496              		.global	coap_set_header_if_none_match
 3497              		.syntax unified
 3498              		.thumb
 3499              		.thumb_func
 3500              		.fpu fpv4-sp-d16
 3502              	coap_set_header_if_none_match:
 3503              	.LVL362:
 3504              	.LFB36:
1057:C:/Users/²Ü¼ÒºÀ/.iotlink/sdk/IoT_LINK/iot_link/network/lwm2m/wakaama_lwm2m/wakaama-master/core/er-coap-13\er-coap-13.c **** 
1058:C:/Users/²Ü¼ÒºÀ/.iotlink/sdk/IoT_LINK/iot_link/network/lwm2m/wakaama_lwm2m/wakaama-master/core/er-coap-13\er-coap-13.c **** int
1059:C:/Users/²Ü¼ÒºÀ/.iotlink/sdk/IoT_LINK/iot_link/network/lwm2m/wakaama_lwm2m/wakaama-master/core/er-coap-13\er-coap-13.c **** coap_set_header_if_none_match(void *packet)
1060:C:/Users/²Ü¼ÒºÀ/.iotlink/sdk/IoT_LINK/iot_link/network/lwm2m/wakaama_lwm2m/wakaama-master/core/er-coap-13\er-coap-13.c **** {
 3505              		.loc 1 1060 1 is_stmt 1 view -0
 3506              		.cfi_startproc
 3507              		@ args = 0, pretend = 0, frame = 0
 3508              		@ frame_needed = 0, uses_anonymous_args = 0
 3509              		@ link register save eliminated.
1061:C:/Users/²Ü¼ÒºÀ/.iotlink/sdk/IoT_LINK/iot_link/network/lwm2m/wakaama_lwm2m/wakaama-master/core/er-coap-13\er-coap-13.c ****     SET_OPTION((coap_packet_t *)packet, COAP_OPTION_IF_NONE_MATCH);
ARM GAS  C:\Users\²Ü¼ÒºÀ\AppData\Local\Temp\cczrlpTg.s 			page 90


 3510              		.loc 1 1061 5 view .LVU1178
 3511              		.loc 1 1061 5 view .LVU1179
 3512 0000 837A     		ldrb	r3, [r0, #10]	@ zero_extendqisi2
 3513 0002 43F02003 		orr	r3, r3, #32
 3514 0006 8372     		strb	r3, [r0, #10]
 3515              		.loc 1 1061 67 view .LVU1180
1062:C:/Users/²Ü¼ÒºÀ/.iotlink/sdk/IoT_LINK/iot_link/network/lwm2m/wakaama_lwm2m/wakaama-master/core/er-coap-13\er-coap-13.c ****     return 1;
 3516              		.loc 1 1062 5 view .LVU1181
1063:C:/Users/²Ü¼ÒºÀ/.iotlink/sdk/IoT_LINK/iot_link/network/lwm2m/wakaama_lwm2m/wakaama-master/core/er-coap-13\er-coap-13.c **** }
 3517              		.loc 1 1063 1 is_stmt 0 view .LVU1182
 3518 0008 0120     		movs	r0, #1
 3519              	.LVL363:
 3520              		.loc 1 1063 1 view .LVU1183
 3521 000a 7047     		bx	lr
 3522              		.cfi_endproc
 3523              	.LFE36:
 3525              		.section	.text.coap_get_header_token,"ax",%progbits
 3526              		.align	1
 3527              		.global	coap_get_header_token
 3528              		.syntax unified
 3529              		.thumb
 3530              		.thumb_func
 3531              		.fpu fpv4-sp-d16
 3533              	coap_get_header_token:
 3534              	.LVL364:
 3535              	.LFB37:
1064:C:/Users/²Ü¼ÒºÀ/.iotlink/sdk/IoT_LINK/iot_link/network/lwm2m/wakaama_lwm2m/wakaama-master/core/er-coap-13\er-coap-13.c **** /*-----------------------------------------------------------------------------------*/
1065:C:/Users/²Ü¼ÒºÀ/.iotlink/sdk/IoT_LINK/iot_link/network/lwm2m/wakaama_lwm2m/wakaama-master/core/er-coap-13\er-coap-13.c **** int
1066:C:/Users/²Ü¼ÒºÀ/.iotlink/sdk/IoT_LINK/iot_link/network/lwm2m/wakaama_lwm2m/wakaama-master/core/er-coap-13\er-coap-13.c **** coap_get_header_token(void *packet, const uint8_t **token)
1067:C:/Users/²Ü¼ÒºÀ/.iotlink/sdk/IoT_LINK/iot_link/network/lwm2m/wakaama_lwm2m/wakaama-master/core/er-coap-13\er-coap-13.c **** {
 3536              		.loc 1 1067 1 is_stmt 1 view -0
 3537              		.cfi_startproc
 3538              		@ args = 0, pretend = 0, frame = 0
 3539              		@ frame_needed = 0, uses_anonymous_args = 0
 3540              		@ link register save eliminated.
1068:C:/Users/²Ü¼ÒºÀ/.iotlink/sdk/IoT_LINK/iot_link/network/lwm2m/wakaama_lwm2m/wakaama-master/core/er-coap-13\er-coap-13.c ****     coap_packet_t *const coap_pkt = (coap_packet_t *) packet;
 3541              		.loc 1 1068 5 view .LVU1185
1069:C:/Users/²Ü¼ÒºÀ/.iotlink/sdk/IoT_LINK/iot_link/network/lwm2m/wakaama_lwm2m/wakaama-master/core/er-coap-13\er-coap-13.c **** 
1070:C:/Users/²Ü¼ÒºÀ/.iotlink/sdk/IoT_LINK/iot_link/network/lwm2m/wakaama_lwm2m/wakaama-master/core/er-coap-13\er-coap-13.c ****     if (!IS_OPTION(coap_pkt, COAP_OPTION_TOKEN)) return 0;
 3542              		.loc 1 1070 5 view .LVU1186
 3543              		.loc 1 1070 8 is_stmt 0 view .LVU1187
 3544 0000 037B     		ldrb	r3, [r0, #12]	@ zero_extendqisi2
 3545 0002 13F00803 		ands	r3, r3, #8
1071:C:/Users/²Ü¼ÒºÀ/.iotlink/sdk/IoT_LINK/iot_link/network/lwm2m/wakaama_lwm2m/wakaama-master/core/er-coap-13\er-coap-13.c **** 
1072:C:/Users/²Ü¼ÒºÀ/.iotlink/sdk/IoT_LINK/iot_link/network/lwm2m/wakaama_lwm2m/wakaama-master/core/er-coap-13\er-coap-13.c ****     *token = coap_pkt->token;
 3546              		.loc 1 1072 5 is_stmt 1 view .LVU1188
 3547              		.loc 1 1072 14 is_stmt 0 view .LVU1189
 3548 0006 1DBF     		ittte	ne
 3549 0008 00F14D03 		addne	r3, r0, #77
 3550              		.loc 1 1072 12 view .LVU1190
 3551 000c 0B60     		strne	r3, [r1]
1073:C:/Users/²Ü¼ÒºÀ/.iotlink/sdk/IoT_LINK/iot_link/network/lwm2m/wakaama_lwm2m/wakaama-master/core/er-coap-13\er-coap-13.c ****     return coap_pkt->token_len;
 3552              		.loc 1 1073 5 is_stmt 1 view .LVU1191
 3553              		.loc 1 1073 20 is_stmt 0 view .LVU1192
 3554 000e 90F84C00 		ldrbne	r0, [r0, #76]	@ zero_extendqisi2
 3555              	.LVL365:
1070:C:/Users/²Ü¼ÒºÀ/.iotlink/sdk/IoT_LINK/iot_link/network/lwm2m/wakaama_lwm2m/wakaama-master/core/er-coap-13\er-coap-13.c **** 
ARM GAS  C:\Users\²Ü¼ÒºÀ\AppData\Local\Temp\cczrlpTg.s 			page 91


 3556              		.loc 1 1070 57 view .LVU1193
 3557 0012 1846     		moveq	r0, r3
1074:C:/Users/²Ü¼ÒºÀ/.iotlink/sdk/IoT_LINK/iot_link/network/lwm2m/wakaama_lwm2m/wakaama-master/core/er-coap-13\er-coap-13.c **** }
 3558              		.loc 1 1074 1 view .LVU1194
 3559 0014 7047     		bx	lr
 3560              		.cfi_endproc
 3561              	.LFE37:
 3563              		.section	.text.coap_set_header_token,"ax",%progbits
 3564              		.align	1
 3565              		.global	coap_set_header_token
 3566              		.syntax unified
 3567              		.thumb
 3568              		.thumb_func
 3569              		.fpu fpv4-sp-d16
 3571              	coap_set_header_token:
 3572              	.LVL366:
 3573              	.LFB38:
1075:C:/Users/²Ü¼ÒºÀ/.iotlink/sdk/IoT_LINK/iot_link/network/lwm2m/wakaama_lwm2m/wakaama-master/core/er-coap-13\er-coap-13.c **** 
1076:C:/Users/²Ü¼ÒºÀ/.iotlink/sdk/IoT_LINK/iot_link/network/lwm2m/wakaama_lwm2m/wakaama-master/core/er-coap-13\er-coap-13.c **** int
1077:C:/Users/²Ü¼ÒºÀ/.iotlink/sdk/IoT_LINK/iot_link/network/lwm2m/wakaama_lwm2m/wakaama-master/core/er-coap-13\er-coap-13.c **** coap_set_header_token(void *packet, const uint8_t *token, size_t token_len)
1078:C:/Users/²Ü¼ÒºÀ/.iotlink/sdk/IoT_LINK/iot_link/network/lwm2m/wakaama_lwm2m/wakaama-master/core/er-coap-13\er-coap-13.c **** {
 3574              		.loc 1 1078 1 is_stmt 1 view -0
 3575              		.cfi_startproc
 3576              		@ args = 0, pretend = 0, frame = 0
 3577              		@ frame_needed = 0, uses_anonymous_args = 0
1079:C:/Users/²Ü¼ÒºÀ/.iotlink/sdk/IoT_LINK/iot_link/network/lwm2m/wakaama_lwm2m/wakaama-master/core/er-coap-13\er-coap-13.c ****     coap_packet_t *const coap_pkt = (coap_packet_t *) packet;
 3578              		.loc 1 1079 5 view .LVU1196
1080:C:/Users/²Ü¼ÒºÀ/.iotlink/sdk/IoT_LINK/iot_link/network/lwm2m/wakaama_lwm2m/wakaama-master/core/er-coap-13\er-coap-13.c **** 
1081:C:/Users/²Ü¼ÒºÀ/.iotlink/sdk/IoT_LINK/iot_link/network/lwm2m/wakaama_lwm2m/wakaama-master/core/er-coap-13\er-coap-13.c ****     coap_pkt->token_len = (uint8_t)(MIN(COAP_TOKEN_LEN, token_len));
 3579              		.loc 1 1081 5 view .LVU1197
 3580 0000 082A     		cmp	r2, #8
1078:C:/Users/²Ü¼ÒºÀ/.iotlink/sdk/IoT_LINK/iot_link/network/lwm2m/wakaama_lwm2m/wakaama-master/core/er-coap-13\er-coap-13.c ****     coap_packet_t *const coap_pkt = (coap_packet_t *) packet;
 3581              		.loc 1 1078 1 is_stmt 0 view .LVU1198
 3582 0002 38B5     		push	{r3, r4, r5, lr}
 3583              	.LCFI24:
 3584              		.cfi_def_cfa_offset 16
 3585              		.cfi_offset 3, -16
 3586              		.cfi_offset 4, -12
 3587              		.cfi_offset 5, -8
 3588              		.cfi_offset 14, -4
 3589 0004 28BF     		it	cs
 3590 0006 0822     		movcs	r2, #8
 3591              	.LVL367:
1078:C:/Users/²Ü¼ÒºÀ/.iotlink/sdk/IoT_LINK/iot_link/network/lwm2m/wakaama_lwm2m/wakaama-master/core/er-coap-13\er-coap-13.c ****     coap_packet_t *const coap_pkt = (coap_packet_t *) packet;
 3592              		.loc 1 1078 1 view .LVU1199
 3593 0008 0446     		mov	r4, r0
 3594              		.loc 1 1081 25 view .LVU1200
 3595 000a 80F84C20 		strb	r2, [r0, #76]
1082:C:/Users/²Ü¼ÒºÀ/.iotlink/sdk/IoT_LINK/iot_link/network/lwm2m/wakaama_lwm2m/wakaama-master/core/er-coap-13\er-coap-13.c ****     memcpy(coap_pkt->token, token, coap_pkt->token_len);
 3596              		.loc 1 1082 5 is_stmt 1 view .LVU1201
 3597 000e 4D30     		adds	r0, r0, #77
 3598              	.LVL368:
 3599              		.loc 1 1082 5 is_stmt 0 view .LVU1202
 3600 0010 1546     		mov	r5, r2
 3601 0012 FFF7FEFF 		bl	memcpy
 3602              	.LVL369:
1083:C:/Users/²Ü¼ÒºÀ/.iotlink/sdk/IoT_LINK/iot_link/network/lwm2m/wakaama_lwm2m/wakaama-master/core/er-coap-13\er-coap-13.c **** 
ARM GAS  C:\Users\²Ü¼ÒºÀ\AppData\Local\Temp\cczrlpTg.s 			page 92


1084:C:/Users/²Ü¼ÒºÀ/.iotlink/sdk/IoT_LINK/iot_link/network/lwm2m/wakaama_lwm2m/wakaama-master/core/er-coap-13\er-coap-13.c ****     SET_OPTION(coap_pkt, COAP_OPTION_TOKEN);
 3603              		.loc 1 1084 5 is_stmt 1 view .LVU1203
 3604              		.loc 1 1084 5 view .LVU1204
 3605 0016 237B     		ldrb	r3, [r4, #12]	@ zero_extendqisi2
 3606 0018 43F00803 		orr	r3, r3, #8
 3607 001c 2373     		strb	r3, [r4, #12]
 3608              		.loc 1 1084 44 view .LVU1205
1085:C:/Users/²Ü¼ÒºÀ/.iotlink/sdk/IoT_LINK/iot_link/network/lwm2m/wakaama_lwm2m/wakaama-master/core/er-coap-13\er-coap-13.c ****     return coap_pkt->token_len;
 3609              		.loc 1 1085 5 view .LVU1206
1086:C:/Users/²Ü¼ÒºÀ/.iotlink/sdk/IoT_LINK/iot_link/network/lwm2m/wakaama_lwm2m/wakaama-master/core/er-coap-13\er-coap-13.c **** }
 3610              		.loc 1 1086 1 is_stmt 0 view .LVU1207
 3611 001e 2846     		mov	r0, r5
 3612 0020 38BD     		pop	{r3, r4, r5, pc}
 3613              		.loc 1 1086 1 view .LVU1208
 3614              		.cfi_endproc
 3615              	.LFE38:
 3617              		.section	.text.coap_get_header_proxy_uri,"ax",%progbits
 3618              		.align	1
 3619              		.global	coap_get_header_proxy_uri
 3620              		.syntax unified
 3621              		.thumb
 3622              		.thumb_func
 3623              		.fpu fpv4-sp-d16
 3625              	coap_get_header_proxy_uri:
 3626              	.LVL370:
 3627              	.LFB39:
1087:C:/Users/²Ü¼ÒºÀ/.iotlink/sdk/IoT_LINK/iot_link/network/lwm2m/wakaama_lwm2m/wakaama-master/core/er-coap-13\er-coap-13.c **** /*-----------------------------------------------------------------------------------*/
1088:C:/Users/²Ü¼ÒºÀ/.iotlink/sdk/IoT_LINK/iot_link/network/lwm2m/wakaama_lwm2m/wakaama-master/core/er-coap-13\er-coap-13.c **** int
1089:C:/Users/²Ü¼ÒºÀ/.iotlink/sdk/IoT_LINK/iot_link/network/lwm2m/wakaama_lwm2m/wakaama-master/core/er-coap-13\er-coap-13.c **** coap_get_header_proxy_uri(void *packet, const char **uri)
1090:C:/Users/²Ü¼ÒºÀ/.iotlink/sdk/IoT_LINK/iot_link/network/lwm2m/wakaama_lwm2m/wakaama-master/core/er-coap-13\er-coap-13.c **** {
 3628              		.loc 1 1090 1 is_stmt 1 view -0
 3629              		.cfi_startproc
 3630              		@ args = 0, pretend = 0, frame = 0
 3631              		@ frame_needed = 0, uses_anonymous_args = 0
 3632              		@ link register save eliminated.
1091:C:/Users/²Ü¼ÒºÀ/.iotlink/sdk/IoT_LINK/iot_link/network/lwm2m/wakaama_lwm2m/wakaama-master/core/er-coap-13\er-coap-13.c ****     coap_packet_t *const coap_pkt = (coap_packet_t *) packet;
 3633              		.loc 1 1091 5 view .LVU1210
1092:C:/Users/²Ü¼ÒºÀ/.iotlink/sdk/IoT_LINK/iot_link/network/lwm2m/wakaama_lwm2m/wakaama-master/core/er-coap-13\er-coap-13.c **** 
1093:C:/Users/²Ü¼ÒºÀ/.iotlink/sdk/IoT_LINK/iot_link/network/lwm2m/wakaama_lwm2m/wakaama-master/core/er-coap-13\er-coap-13.c ****     if (!IS_OPTION(coap_pkt, COAP_OPTION_PROXY_URI)) return 0;
 3634              		.loc 1 1093 5 view .LVU1211
 3635              		.loc 1 1093 8 is_stmt 0 view .LVU1212
 3636 0000 837B     		ldrb	r3, [r0, #14]	@ zero_extendqisi2
 3637 0002 13F00803 		ands	r3, r3, #8
1094:C:/Users/²Ü¼ÒºÀ/.iotlink/sdk/IoT_LINK/iot_link/network/lwm2m/wakaama_lwm2m/wakaama-master/core/er-coap-13\er-coap-13.c **** 
1095:C:/Users/²Ü¼ÒºÀ/.iotlink/sdk/IoT_LINK/iot_link/network/lwm2m/wakaama_lwm2m/wakaama-master/core/er-coap-13\er-coap-13.c ****     *uri = (const char *)coap_pkt->proxy_uri;
 3638              		.loc 1 1095 5 is_stmt 1 view .LVU1213
 3639              		.loc 1 1095 10 is_stmt 0 view .LVU1214
 3640 0006 1DBF     		ittte	ne
 3641 0008 C369     		ldrne	r3, [r0, #28]
 3642 000a 0B60     		strne	r3, [r1]
1096:C:/Users/²Ü¼ÒºÀ/.iotlink/sdk/IoT_LINK/iot_link/network/lwm2m/wakaama_lwm2m/wakaama-master/core/er-coap-13\er-coap-13.c ****     return coap_pkt->proxy_uri_len;
 3643              		.loc 1 1096 5 is_stmt 1 view .LVU1215
 3644              		.loc 1 1096 20 is_stmt 0 view .LVU1216
 3645 000c 8069     		ldrne	r0, [r0, #24]
 3646              	.LVL371:
1093:C:/Users/²Ü¼ÒºÀ/.iotlink/sdk/IoT_LINK/iot_link/network/lwm2m/wakaama_lwm2m/wakaama-master/core/er-coap-13\er-coap-13.c **** 
 3647              		.loc 1 1093 61 view .LVU1217
ARM GAS  C:\Users\²Ü¼ÒºÀ\AppData\Local\Temp\cczrlpTg.s 			page 93


 3648 000e 1846     		moveq	r0, r3
1097:C:/Users/²Ü¼ÒºÀ/.iotlink/sdk/IoT_LINK/iot_link/network/lwm2m/wakaama_lwm2m/wakaama-master/core/er-coap-13\er-coap-13.c **** }
 3649              		.loc 1 1097 1 view .LVU1218
 3650 0010 7047     		bx	lr
 3651              		.cfi_endproc
 3652              	.LFE39:
 3654              		.section	.text.coap_set_header_proxy_uri,"ax",%progbits
 3655              		.align	1
 3656              		.global	coap_set_header_proxy_uri
 3657              		.syntax unified
 3658              		.thumb
 3659              		.thumb_func
 3660              		.fpu fpv4-sp-d16
 3662              	coap_set_header_proxy_uri:
 3663              	.LVL372:
 3664              	.LFB40:
1098:C:/Users/²Ü¼ÒºÀ/.iotlink/sdk/IoT_LINK/iot_link/network/lwm2m/wakaama_lwm2m/wakaama-master/core/er-coap-13\er-coap-13.c **** 
1099:C:/Users/²Ü¼ÒºÀ/.iotlink/sdk/IoT_LINK/iot_link/network/lwm2m/wakaama_lwm2m/wakaama-master/core/er-coap-13\er-coap-13.c **** int
1100:C:/Users/²Ü¼ÒºÀ/.iotlink/sdk/IoT_LINK/iot_link/network/lwm2m/wakaama_lwm2m/wakaama-master/core/er-coap-13\er-coap-13.c **** coap_set_header_proxy_uri(void *packet, const char *uri)
1101:C:/Users/²Ü¼ÒºÀ/.iotlink/sdk/IoT_LINK/iot_link/network/lwm2m/wakaama_lwm2m/wakaama-master/core/er-coap-13\er-coap-13.c **** {
 3665              		.loc 1 1101 1 is_stmt 1 view -0
 3666              		.cfi_startproc
 3667              		@ args = 0, pretend = 0, frame = 0
 3668              		@ frame_needed = 0, uses_anonymous_args = 0
1102:C:/Users/²Ü¼ÒºÀ/.iotlink/sdk/IoT_LINK/iot_link/network/lwm2m/wakaama_lwm2m/wakaama-master/core/er-coap-13\er-coap-13.c ****     coap_packet_t *const coap_pkt = (coap_packet_t *) packet;
 3669              		.loc 1 1102 5 view .LVU1220
1101:C:/Users/²Ü¼ÒºÀ/.iotlink/sdk/IoT_LINK/iot_link/network/lwm2m/wakaama_lwm2m/wakaama-master/core/er-coap-13\er-coap-13.c ****     coap_packet_t *const coap_pkt = (coap_packet_t *) packet;
 3670              		.loc 1 1101 1 is_stmt 0 view .LVU1221
 3671 0000 10B5     		push	{r4, lr}
 3672              	.LCFI25:
 3673              		.cfi_def_cfa_offset 8
 3674              		.cfi_offset 4, -8
 3675              		.cfi_offset 14, -4
1101:C:/Users/²Ü¼ÒºÀ/.iotlink/sdk/IoT_LINK/iot_link/network/lwm2m/wakaama_lwm2m/wakaama-master/core/er-coap-13\er-coap-13.c ****     coap_packet_t *const coap_pkt = (coap_packet_t *) packet;
 3676              		.loc 1 1101 1 view .LVU1222
 3677 0002 0446     		mov	r4, r0
 3678              	.LVL373:
1103:C:/Users/²Ü¼ÒºÀ/.iotlink/sdk/IoT_LINK/iot_link/network/lwm2m/wakaama_lwm2m/wakaama-master/core/er-coap-13\er-coap-13.c **** 
1104:C:/Users/²Ü¼ÒºÀ/.iotlink/sdk/IoT_LINK/iot_link/network/lwm2m/wakaama_lwm2m/wakaama-master/core/er-coap-13\er-coap-13.c ****     coap_pkt->proxy_uri = (uint8_t *)uri;
 3679              		.loc 1 1104 5 is_stmt 1 view .LVU1223
1101:C:/Users/²Ü¼ÒºÀ/.iotlink/sdk/IoT_LINK/iot_link/network/lwm2m/wakaama_lwm2m/wakaama-master/core/er-coap-13\er-coap-13.c ****     coap_packet_t *const coap_pkt = (coap_packet_t *) packet;
 3680              		.loc 1 1101 1 is_stmt 0 view .LVU1224
 3681 0004 0846     		mov	r0, r1
 3682              	.LVL374:
 3683              		.loc 1 1104 25 view .LVU1225
 3684 0006 E161     		str	r1, [r4, #28]
1105:C:/Users/²Ü¼ÒºÀ/.iotlink/sdk/IoT_LINK/iot_link/network/lwm2m/wakaama_lwm2m/wakaama-master/core/er-coap-13\er-coap-13.c ****     coap_pkt->proxy_uri_len = strlen(uri);
 3685              		.loc 1 1105 5 is_stmt 1 view .LVU1226
 3686              		.loc 1 1105 31 is_stmt 0 view .LVU1227
 3687 0008 FFF7FEFF 		bl	strlen
 3688              	.LVL375:
1106:C:/Users/²Ü¼ÒºÀ/.iotlink/sdk/IoT_LINK/iot_link/network/lwm2m/wakaama_lwm2m/wakaama-master/core/er-coap-13\er-coap-13.c **** 
1107:C:/Users/²Ü¼ÒºÀ/.iotlink/sdk/IoT_LINK/iot_link/network/lwm2m/wakaama_lwm2m/wakaama-master/core/er-coap-13\er-coap-13.c ****     SET_OPTION(coap_pkt, COAP_OPTION_PROXY_URI);
 3689              		.loc 1 1107 5 view .LVU1228
 3690 000c A37B     		ldrb	r3, [r4, #14]	@ zero_extendqisi2
1105:C:/Users/²Ü¼ÒºÀ/.iotlink/sdk/IoT_LINK/iot_link/network/lwm2m/wakaama_lwm2m/wakaama-master/core/er-coap-13\er-coap-13.c ****     coap_pkt->proxy_uri_len = strlen(uri);
 3691              		.loc 1 1105 29 view .LVU1229
ARM GAS  C:\Users\²Ü¼ÒºÀ\AppData\Local\Temp\cczrlpTg.s 			page 94


 3692 000e A061     		str	r0, [r4, #24]
 3693              		.loc 1 1107 5 is_stmt 1 view .LVU1230
 3694              		.loc 1 1107 5 view .LVU1231
 3695 0010 43F00803 		orr	r3, r3, #8
 3696 0014 A373     		strb	r3, [r4, #14]
 3697              		.loc 1 1107 48 view .LVU1232
1108:C:/Users/²Ü¼ÒºÀ/.iotlink/sdk/IoT_LINK/iot_link/network/lwm2m/wakaama_lwm2m/wakaama-master/core/er-coap-13\er-coap-13.c ****     return coap_pkt->proxy_uri_len;
 3698              		.loc 1 1108 5 view .LVU1233
1109:C:/Users/²Ü¼ÒºÀ/.iotlink/sdk/IoT_LINK/iot_link/network/lwm2m/wakaama_lwm2m/wakaama-master/core/er-coap-13\er-coap-13.c **** }
 3699              		.loc 1 1109 1 is_stmt 0 view .LVU1234
 3700 0016 10BD     		pop	{r4, pc}
 3701              		.loc 1 1109 1 view .LVU1235
 3702              		.cfi_endproc
 3703              	.LFE40:
 3705              		.section	.text.coap_get_header_uri_host,"ax",%progbits
 3706              		.align	1
 3707              		.global	coap_get_header_uri_host
 3708              		.syntax unified
 3709              		.thumb
 3710              		.thumb_func
 3711              		.fpu fpv4-sp-d16
 3713              	coap_get_header_uri_host:
 3714              	.LVL376:
 3715              	.LFB41:
1110:C:/Users/²Ü¼ÒºÀ/.iotlink/sdk/IoT_LINK/iot_link/network/lwm2m/wakaama_lwm2m/wakaama-master/core/er-coap-13\er-coap-13.c **** /*-----------------------------------------------------------------------------------*/
1111:C:/Users/²Ü¼ÒºÀ/.iotlink/sdk/IoT_LINK/iot_link/network/lwm2m/wakaama_lwm2m/wakaama-master/core/er-coap-13\er-coap-13.c **** int
1112:C:/Users/²Ü¼ÒºÀ/.iotlink/sdk/IoT_LINK/iot_link/network/lwm2m/wakaama_lwm2m/wakaama-master/core/er-coap-13\er-coap-13.c **** coap_get_header_uri_host(void *packet, const char **host)
1113:C:/Users/²Ü¼ÒºÀ/.iotlink/sdk/IoT_LINK/iot_link/network/lwm2m/wakaama_lwm2m/wakaama-master/core/er-coap-13\er-coap-13.c **** {
 3716              		.loc 1 1113 1 is_stmt 1 view -0
 3717              		.cfi_startproc
 3718              		@ args = 0, pretend = 0, frame = 0
 3719              		@ frame_needed = 0, uses_anonymous_args = 0
 3720              		@ link register save eliminated.
1114:C:/Users/²Ü¼ÒºÀ/.iotlink/sdk/IoT_LINK/iot_link/network/lwm2m/wakaama_lwm2m/wakaama-master/core/er-coap-13\er-coap-13.c ****     coap_packet_t *const coap_pkt = (coap_packet_t *) packet;
 3721              		.loc 1 1114 5 view .LVU1237
1115:C:/Users/²Ü¼ÒºÀ/.iotlink/sdk/IoT_LINK/iot_link/network/lwm2m/wakaama_lwm2m/wakaama-master/core/er-coap-13\er-coap-13.c **** 
1116:C:/Users/²Ü¼ÒºÀ/.iotlink/sdk/IoT_LINK/iot_link/network/lwm2m/wakaama_lwm2m/wakaama-master/core/er-coap-13\er-coap-13.c ****     if (!IS_OPTION(coap_pkt, COAP_OPTION_URI_HOST)) return 0;
 3722              		.loc 1 1116 5 view .LVU1238
 3723              		.loc 1 1116 8 is_stmt 0 view .LVU1239
 3724 0000 837A     		ldrb	r3, [r0, #10]	@ zero_extendqisi2
 3725 0002 13F00803 		ands	r3, r3, #8
1117:C:/Users/²Ü¼ÒºÀ/.iotlink/sdk/IoT_LINK/iot_link/network/lwm2m/wakaama_lwm2m/wakaama-master/core/er-coap-13\er-coap-13.c **** 
1118:C:/Users/²Ü¼ÒºÀ/.iotlink/sdk/IoT_LINK/iot_link/network/lwm2m/wakaama_lwm2m/wakaama-master/core/er-coap-13\er-coap-13.c ****     *host = (char *)coap_pkt->uri_host;
 3726              		.loc 1 1118 5 is_stmt 1 view .LVU1240
 3727              		.loc 1 1118 11 is_stmt 0 view .LVU1241
 3728 0006 1DBF     		ittte	ne
 3729 0008 036B     		ldrne	r3, [r0, #48]
 3730 000a 0B60     		strne	r3, [r1]
1119:C:/Users/²Ü¼ÒºÀ/.iotlink/sdk/IoT_LINK/iot_link/network/lwm2m/wakaama_lwm2m/wakaama-master/core/er-coap-13\er-coap-13.c ****     return coap_pkt->uri_host_len;
 3731              		.loc 1 1119 5 is_stmt 1 view .LVU1242
 3732              		.loc 1 1119 20 is_stmt 0 view .LVU1243
 3733 000c C06A     		ldrne	r0, [r0, #44]
 3734              	.LVL377:
1116:C:/Users/²Ü¼ÒºÀ/.iotlink/sdk/IoT_LINK/iot_link/network/lwm2m/wakaama_lwm2m/wakaama-master/core/er-coap-13\er-coap-13.c **** 
 3735              		.loc 1 1116 60 view .LVU1244
 3736 000e 1846     		moveq	r0, r3
1120:C:/Users/²Ü¼ÒºÀ/.iotlink/sdk/IoT_LINK/iot_link/network/lwm2m/wakaama_lwm2m/wakaama-master/core/er-coap-13\er-coap-13.c **** }
ARM GAS  C:\Users\²Ü¼ÒºÀ\AppData\Local\Temp\cczrlpTg.s 			page 95


 3737              		.loc 1 1120 1 view .LVU1245
 3738 0010 7047     		bx	lr
 3739              		.cfi_endproc
 3740              	.LFE41:
 3742              		.section	.text.coap_set_header_uri_host,"ax",%progbits
 3743              		.align	1
 3744              		.global	coap_set_header_uri_host
 3745              		.syntax unified
 3746              		.thumb
 3747              		.thumb_func
 3748              		.fpu fpv4-sp-d16
 3750              	coap_set_header_uri_host:
 3751              	.LVL378:
 3752              	.LFB42:
1121:C:/Users/²Ü¼ÒºÀ/.iotlink/sdk/IoT_LINK/iot_link/network/lwm2m/wakaama_lwm2m/wakaama-master/core/er-coap-13\er-coap-13.c **** 
1122:C:/Users/²Ü¼ÒºÀ/.iotlink/sdk/IoT_LINK/iot_link/network/lwm2m/wakaama_lwm2m/wakaama-master/core/er-coap-13\er-coap-13.c **** int
1123:C:/Users/²Ü¼ÒºÀ/.iotlink/sdk/IoT_LINK/iot_link/network/lwm2m/wakaama_lwm2m/wakaama-master/core/er-coap-13\er-coap-13.c **** coap_set_header_uri_host(void *packet, const char *host)
1124:C:/Users/²Ü¼ÒºÀ/.iotlink/sdk/IoT_LINK/iot_link/network/lwm2m/wakaama_lwm2m/wakaama-master/core/er-coap-13\er-coap-13.c **** {
 3753              		.loc 1 1124 1 is_stmt 1 view -0
 3754              		.cfi_startproc
 3755              		@ args = 0, pretend = 0, frame = 0
 3756              		@ frame_needed = 0, uses_anonymous_args = 0
1125:C:/Users/²Ü¼ÒºÀ/.iotlink/sdk/IoT_LINK/iot_link/network/lwm2m/wakaama_lwm2m/wakaama-master/core/er-coap-13\er-coap-13.c ****     coap_packet_t *const coap_pkt = (coap_packet_t *) packet;
 3757              		.loc 1 1125 5 view .LVU1247
1124:C:/Users/²Ü¼ÒºÀ/.iotlink/sdk/IoT_LINK/iot_link/network/lwm2m/wakaama_lwm2m/wakaama-master/core/er-coap-13\er-coap-13.c ****     coap_packet_t *const coap_pkt = (coap_packet_t *) packet;
 3758              		.loc 1 1124 1 is_stmt 0 view .LVU1248
 3759 0000 10B5     		push	{r4, lr}
 3760              	.LCFI26:
 3761              		.cfi_def_cfa_offset 8
 3762              		.cfi_offset 4, -8
 3763              		.cfi_offset 14, -4
1124:C:/Users/²Ü¼ÒºÀ/.iotlink/sdk/IoT_LINK/iot_link/network/lwm2m/wakaama_lwm2m/wakaama-master/core/er-coap-13\er-coap-13.c ****     coap_packet_t *const coap_pkt = (coap_packet_t *) packet;
 3764              		.loc 1 1124 1 view .LVU1249
 3765 0002 0446     		mov	r4, r0
 3766              	.LVL379:
1126:C:/Users/²Ü¼ÒºÀ/.iotlink/sdk/IoT_LINK/iot_link/network/lwm2m/wakaama_lwm2m/wakaama-master/core/er-coap-13\er-coap-13.c **** 
1127:C:/Users/²Ü¼ÒºÀ/.iotlink/sdk/IoT_LINK/iot_link/network/lwm2m/wakaama_lwm2m/wakaama-master/core/er-coap-13\er-coap-13.c ****     coap_pkt->uri_host = (uint8_t *)host;
 3767              		.loc 1 1127 5 is_stmt 1 view .LVU1250
1124:C:/Users/²Ü¼ÒºÀ/.iotlink/sdk/IoT_LINK/iot_link/network/lwm2m/wakaama_lwm2m/wakaama-master/core/er-coap-13\er-coap-13.c ****     coap_packet_t *const coap_pkt = (coap_packet_t *) packet;
 3768              		.loc 1 1124 1 is_stmt 0 view .LVU1251
 3769 0004 0846     		mov	r0, r1
 3770              	.LVL380:
 3771              		.loc 1 1127 24 view .LVU1252
 3772 0006 2163     		str	r1, [r4, #48]
1128:C:/Users/²Ü¼ÒºÀ/.iotlink/sdk/IoT_LINK/iot_link/network/lwm2m/wakaama_lwm2m/wakaama-master/core/er-coap-13\er-coap-13.c ****     coap_pkt->uri_host_len = strlen(host);
 3773              		.loc 1 1128 5 is_stmt 1 view .LVU1253
 3774              		.loc 1 1128 30 is_stmt 0 view .LVU1254
 3775 0008 FFF7FEFF 		bl	strlen
 3776              	.LVL381:
1129:C:/Users/²Ü¼ÒºÀ/.iotlink/sdk/IoT_LINK/iot_link/network/lwm2m/wakaama_lwm2m/wakaama-master/core/er-coap-13\er-coap-13.c **** 
1130:C:/Users/²Ü¼ÒºÀ/.iotlink/sdk/IoT_LINK/iot_link/network/lwm2m/wakaama_lwm2m/wakaama-master/core/er-coap-13\er-coap-13.c ****     SET_OPTION(coap_pkt, COAP_OPTION_URI_HOST);
 3777              		.loc 1 1130 5 view .LVU1255
 3778 000c A37A     		ldrb	r3, [r4, #10]	@ zero_extendqisi2
1128:C:/Users/²Ü¼ÒºÀ/.iotlink/sdk/IoT_LINK/iot_link/network/lwm2m/wakaama_lwm2m/wakaama-master/core/er-coap-13\er-coap-13.c ****     coap_pkt->uri_host_len = strlen(host);
 3779              		.loc 1 1128 28 view .LVU1256
 3780 000e E062     		str	r0, [r4, #44]
 3781              		.loc 1 1130 5 is_stmt 1 view .LVU1257
ARM GAS  C:\Users\²Ü¼ÒºÀ\AppData\Local\Temp\cczrlpTg.s 			page 96


 3782              		.loc 1 1130 5 view .LVU1258
 3783 0010 43F00803 		orr	r3, r3, #8
 3784 0014 A372     		strb	r3, [r4, #10]
 3785              		.loc 1 1130 47 view .LVU1259
1131:C:/Users/²Ü¼ÒºÀ/.iotlink/sdk/IoT_LINK/iot_link/network/lwm2m/wakaama_lwm2m/wakaama-master/core/er-coap-13\er-coap-13.c ****     return coap_pkt->uri_host_len;
 3786              		.loc 1 1131 5 view .LVU1260
1132:C:/Users/²Ü¼ÒºÀ/.iotlink/sdk/IoT_LINK/iot_link/network/lwm2m/wakaama_lwm2m/wakaama-master/core/er-coap-13\er-coap-13.c **** }
 3787              		.loc 1 1132 1 is_stmt 0 view .LVU1261
 3788 0016 10BD     		pop	{r4, pc}
 3789              		.loc 1 1132 1 view .LVU1262
 3790              		.cfi_endproc
 3791              	.LFE42:
 3793              		.section	.text.coap_get_header_uri_path,"ax",%progbits
 3794              		.align	1
 3795              		.global	coap_get_header_uri_path
 3796              		.syntax unified
 3797              		.thumb
 3798              		.thumb_func
 3799              		.fpu fpv4-sp-d16
 3801              	coap_get_header_uri_path:
 3802              	.LVL382:
 3803              	.LFB43:
1133:C:/Users/²Ü¼ÒºÀ/.iotlink/sdk/IoT_LINK/iot_link/network/lwm2m/wakaama_lwm2m/wakaama-master/core/er-coap-13\er-coap-13.c **** /*-----------------------------------------------------------------------------------*/
1134:C:/Users/²Ü¼ÒºÀ/.iotlink/sdk/IoT_LINK/iot_link/network/lwm2m/wakaama_lwm2m/wakaama-master/core/er-coap-13\er-coap-13.c **** int
1135:C:/Users/²Ü¼ÒºÀ/.iotlink/sdk/IoT_LINK/iot_link/network/lwm2m/wakaama_lwm2m/wakaama-master/core/er-coap-13\er-coap-13.c **** coap_get_header_uri_path(void *packet, const char **path)
1136:C:/Users/²Ü¼ÒºÀ/.iotlink/sdk/IoT_LINK/iot_link/network/lwm2m/wakaama_lwm2m/wakaama-master/core/er-coap-13\er-coap-13.c **** {
 3804              		.loc 1 1136 1 is_stmt 1 view -0
 3805              		.cfi_startproc
 3806              		@ args = 0, pretend = 0, frame = 0
 3807              		@ frame_needed = 0, uses_anonymous_args = 0
 3808              		@ link register save eliminated.
1137:C:/Users/²Ü¼ÒºÀ/.iotlink/sdk/IoT_LINK/iot_link/network/lwm2m/wakaama_lwm2m/wakaama-master/core/er-coap-13\er-coap-13.c ****     coap_packet_t *const coap_pkt = (coap_packet_t *) packet;
 3809              		.loc 1 1137 5 view .LVU1264
1138:C:/Users/²Ü¼ÒºÀ/.iotlink/sdk/IoT_LINK/iot_link/network/lwm2m/wakaama_lwm2m/wakaama-master/core/er-coap-13\er-coap-13.c **** 
1139:C:/Users/²Ü¼ÒºÀ/.iotlink/sdk/IoT_LINK/iot_link/network/lwm2m/wakaama_lwm2m/wakaama-master/core/er-coap-13\er-coap-13.c ****     if (!IS_OPTION(coap_pkt, COAP_OPTION_URI_PATH)) return 0;
 3810              		.loc 1 1139 5 view .LVU1265
 3811              		.loc 1 1139 8 is_stmt 0 view .LVU1266
 3812 0000 C37A     		ldrb	r3, [r0, #11]	@ zero_extendqisi2
 3813 0002 1B07     		lsls	r3, r3, #28
1140:C:/Users/²Ü¼ÒºÀ/.iotlink/sdk/IoT_LINK/iot_link/network/lwm2m/wakaama_lwm2m/wakaama-master/core/er-coap-13\er-coap-13.c **** 
1141:C:/Users/²Ü¼ÒºÀ/.iotlink/sdk/IoT_LINK/iot_link/network/lwm2m/wakaama_lwm2m/wakaama-master/core/er-coap-13\er-coap-13.c ****     *path = NULL; //coap_pkt->uri_path;
 3814              		.loc 1 1141 5 is_stmt 1 view .LVU1267
 3815              		.loc 1 1141 11 is_stmt 0 view .LVU1268
 3816 0004 44BF     		itt	mi
 3817 0006 0023     		movmi	r3, #0
 3818 0008 0B60     		strmi	r3, [r1]
1142:C:/Users/²Ü¼ÒºÀ/.iotlink/sdk/IoT_LINK/iot_link/network/lwm2m/wakaama_lwm2m/wakaama-master/core/er-coap-13\er-coap-13.c ****     return 0; //coap_pkt->uri_path_len;
 3819              		.loc 1 1142 5 is_stmt 1 view .LVU1269
1143:C:/Users/²Ü¼ÒºÀ/.iotlink/sdk/IoT_LINK/iot_link/network/lwm2m/wakaama_lwm2m/wakaama-master/core/er-coap-13\er-coap-13.c **** }
 3820              		.loc 1 1143 1 is_stmt 0 view .LVU1270
 3821 000a 0020     		movs	r0, #0
 3822              	.LVL383:
 3823              		.loc 1 1143 1 view .LVU1271
 3824 000c 7047     		bx	lr
 3825              		.cfi_endproc
 3826              	.LFE43:
 3828              		.section	.text.coap_set_header_uri_path,"ax",%progbits
ARM GAS  C:\Users\²Ü¼ÒºÀ\AppData\Local\Temp\cczrlpTg.s 			page 97


 3829              		.align	1
 3830              		.global	coap_set_header_uri_path
 3831              		.syntax unified
 3832              		.thumb
 3833              		.thumb_func
 3834              		.fpu fpv4-sp-d16
 3836              	coap_set_header_uri_path:
 3837              	.LVL384:
 3838              	.LFB44:
1144:C:/Users/²Ü¼ÒºÀ/.iotlink/sdk/IoT_LINK/iot_link/network/lwm2m/wakaama_lwm2m/wakaama-master/core/er-coap-13\er-coap-13.c **** 
1145:C:/Users/²Ü¼ÒºÀ/.iotlink/sdk/IoT_LINK/iot_link/network/lwm2m/wakaama_lwm2m/wakaama-master/core/er-coap-13\er-coap-13.c **** int
1146:C:/Users/²Ü¼ÒºÀ/.iotlink/sdk/IoT_LINK/iot_link/network/lwm2m/wakaama_lwm2m/wakaama-master/core/er-coap-13\er-coap-13.c **** coap_set_header_uri_path(void *packet, const char *path)
1147:C:/Users/²Ü¼ÒºÀ/.iotlink/sdk/IoT_LINK/iot_link/network/lwm2m/wakaama_lwm2m/wakaama-master/core/er-coap-13\er-coap-13.c **** {
 3839              		.loc 1 1147 1 is_stmt 1 view -0
 3840              		.cfi_startproc
 3841              		@ args = 0, pretend = 0, frame = 0
 3842              		@ frame_needed = 0, uses_anonymous_args = 0
1148:C:/Users/²Ü¼ÒºÀ/.iotlink/sdk/IoT_LINK/iot_link/network/lwm2m/wakaama_lwm2m/wakaama-master/core/er-coap-13\er-coap-13.c ****     coap_packet_t *coap_pkt = (coap_packet_t *) packet;
 3843              		.loc 1 1148 5 view .LVU1273
1149:C:/Users/²Ü¼ÒºÀ/.iotlink/sdk/IoT_LINK/iot_link/network/lwm2m/wakaama_lwm2m/wakaama-master/core/er-coap-13\er-coap-13.c ****     int length = 0;
 3844              		.loc 1 1149 5 view .LVU1274
1150:C:/Users/²Ü¼ÒºÀ/.iotlink/sdk/IoT_LINK/iot_link/network/lwm2m/wakaama_lwm2m/wakaama-master/core/er-coap-13\er-coap-13.c **** 
1151:C:/Users/²Ü¼ÒºÀ/.iotlink/sdk/IoT_LINK/iot_link/network/lwm2m/wakaama_lwm2m/wakaama-master/core/er-coap-13\er-coap-13.c ****     free_multi_option(coap_pkt->uri_path);
 3845              		.loc 1 1151 5 view .LVU1275
1147:C:/Users/²Ü¼ÒºÀ/.iotlink/sdk/IoT_LINK/iot_link/network/lwm2m/wakaama_lwm2m/wakaama-master/core/er-coap-13\er-coap-13.c ****     coap_packet_t *coap_pkt = (coap_packet_t *) packet;
 3846              		.loc 1 1147 1 is_stmt 0 view .LVU1276
 3847 0000 2DE9F843 		push	{r3, r4, r5, r6, r7, r8, r9, lr}
 3848              	.LCFI27:
 3849              		.cfi_def_cfa_offset 32
 3850              		.cfi_offset 3, -32
 3851              		.cfi_offset 4, -28
 3852              		.cfi_offset 5, -24
 3853              		.cfi_offset 6, -20
 3854              		.cfi_offset 7, -16
 3855              		.cfi_offset 8, -12
 3856              		.cfi_offset 9, -8
 3857              		.cfi_offset 14, -4
1147:C:/Users/²Ü¼ÒºÀ/.iotlink/sdk/IoT_LINK/iot_link/network/lwm2m/wakaama_lwm2m/wakaama-master/core/er-coap-13\er-coap-13.c ****     coap_packet_t *coap_pkt = (coap_packet_t *) packet;
 3858              		.loc 1 1147 1 view .LVU1277
 3859 0004 0546     		mov	r5, r0
 3860              		.loc 1 1151 5 view .LVU1278
 3861 0006 406C     		ldr	r0, [r0, #68]
 3862              	.LVL385:
1147:C:/Users/²Ü¼ÒºÀ/.iotlink/sdk/IoT_LINK/iot_link/network/lwm2m/wakaama_lwm2m/wakaama-master/core/er-coap-13\er-coap-13.c ****     coap_packet_t *coap_pkt = (coap_packet_t *) packet;
 3863              		.loc 1 1147 1 view .LVU1279
 3864 0008 0C46     		mov	r4, r1
 3865              		.loc 1 1151 5 view .LVU1280
 3866 000a FFF7FEFF 		bl	free_multi_option
 3867              	.LVL386:
1152:C:/Users/²Ü¼ÒºÀ/.iotlink/sdk/IoT_LINK/iot_link/network/lwm2m/wakaama_lwm2m/wakaama-master/core/er-coap-13\er-coap-13.c ****     coap_pkt->uri_path = NULL;
 3868              		.loc 1 1152 5 is_stmt 1 view .LVU1281
 3869              		.loc 1 1152 24 is_stmt 0 view .LVU1282
 3870 000e 0023     		movs	r3, #0
 3871 0010 6B64     		str	r3, [r5, #68]
1153:C:/Users/²Ü¼ÒºÀ/.iotlink/sdk/IoT_LINK/iot_link/network/lwm2m/wakaama_lwm2m/wakaama-master/core/er-coap-13\er-coap-13.c **** 
1154:C:/Users/²Ü¼ÒºÀ/.iotlink/sdk/IoT_LINK/iot_link/network/lwm2m/wakaama_lwm2m/wakaama-master/core/er-coap-13\er-coap-13.c ****     if (path[0] == '/') ++path;
 3872              		.loc 1 1154 5 is_stmt 1 view .LVU1283
ARM GAS  C:\Users\²Ü¼ÒºÀ\AppData\Local\Temp\cczrlpTg.s 			page 98


 3873              		.loc 1 1154 8 is_stmt 0 view .LVU1284
 3874 0012 2378     		ldrb	r3, [r4]	@ zero_extendqisi2
 3875 0014 2F2B     		cmp	r3, #47
 3876              		.loc 1 1154 25 is_stmt 1 view .LVU1285
 3877 0016 08BF     		it	eq
 3878 0018 0134     		addeq	r4, r4, #1
 3879              	.LVL387:
1147:C:/Users/²Ü¼ÒºÀ/.iotlink/sdk/IoT_LINK/iot_link/network/lwm2m/wakaama_lwm2m/wakaama-master/core/er-coap-13\er-coap-13.c ****     coap_packet_t *coap_pkt = (coap_packet_t *) packet;
 3880              		.loc 1 1147 1 is_stmt 0 view .LVU1286
 3881 001a 0027     		movs	r7, #0
 3882              	.LBB104:
1155:C:/Users/²Ü¼ÒºÀ/.iotlink/sdk/IoT_LINK/iot_link/network/lwm2m/wakaama_lwm2m/wakaama-master/core/er-coap-13\er-coap-13.c **** 
1156:C:/Users/²Ü¼ÒºÀ/.iotlink/sdk/IoT_LINK/iot_link/network/lwm2m/wakaama_lwm2m/wakaama-master/core/er-coap-13\er-coap-13.c ****     do
1157:C:/Users/²Ü¼ÒºÀ/.iotlink/sdk/IoT_LINK/iot_link/network/lwm2m/wakaama_lwm2m/wakaama-master/core/er-coap-13\er-coap-13.c ****     {
1158:C:/Users/²Ü¼ÒºÀ/.iotlink/sdk/IoT_LINK/iot_link/network/lwm2m/wakaama_lwm2m/wakaama-master/core/er-coap-13\er-coap-13.c ****         int i = 0;
1159:C:/Users/²Ü¼ÒºÀ/.iotlink/sdk/IoT_LINK/iot_link/network/lwm2m/wakaama_lwm2m/wakaama-master/core/er-coap-13\er-coap-13.c **** 
1160:C:/Users/²Ü¼ÒºÀ/.iotlink/sdk/IoT_LINK/iot_link/network/lwm2m/wakaama_lwm2m/wakaama-master/core/er-coap-13\er-coap-13.c ****         while (path[i] != 0 && path[i] != '/') i++;
1161:C:/Users/²Ü¼ÒºÀ/.iotlink/sdk/IoT_LINK/iot_link/network/lwm2m/wakaama_lwm2m/wakaama-master/core/er-coap-13\er-coap-13.c ****         coap_add_multi_option(&(coap_pkt->uri_path), (uint8_t *)path, i, 0);
 3883              		.loc 1 1161 9 view .LVU1287
 3884 001c 05F14408 		add	r8, r5, #68
 3885              	.LVL388:
 3886              	.L332:
 3887              		.loc 1 1161 9 view .LVU1288
 3888              	.LBE104:
1156:C:/Users/²Ü¼ÒºÀ/.iotlink/sdk/IoT_LINK/iot_link/network/lwm2m/wakaama_lwm2m/wakaama-master/core/er-coap-13\er-coap-13.c ****     {
 3889              		.loc 1 1156 5 is_stmt 1 view .LVU1289
 3890              	.LBB105:
1158:C:/Users/²Ü¼ÒºÀ/.iotlink/sdk/IoT_LINK/iot_link/network/lwm2m/wakaama_lwm2m/wakaama-master/core/er-coap-13\er-coap-13.c **** 
 3891              		.loc 1 1158 9 view .LVU1290
1160:C:/Users/²Ü¼ÒºÀ/.iotlink/sdk/IoT_LINK/iot_link/network/lwm2m/wakaama_lwm2m/wakaama-master/core/er-coap-13\er-coap-13.c ****         coap_add_multi_option(&(coap_pkt->uri_path), (uint8_t *)path, i, 0);
 3892              		.loc 1 1160 9 view .LVU1291
 3893 0020 2346     		mov	r3, r4
1158:C:/Users/²Ü¼ÒºÀ/.iotlink/sdk/IoT_LINK/iot_link/network/lwm2m/wakaama_lwm2m/wakaama-master/core/er-coap-13\er-coap-13.c **** 
 3894              		.loc 1 1158 13 is_stmt 0 view .LVU1292
 3895 0022 0026     		movs	r6, #0
 3896              	.LVL389:
 3897              	.L326:
1160:C:/Users/²Ü¼ÒºÀ/.iotlink/sdk/IoT_LINK/iot_link/network/lwm2m/wakaama_lwm2m/wakaama-master/core/er-coap-13\er-coap-13.c ****         coap_add_multi_option(&(coap_pkt->uri_path), (uint8_t *)path, i, 0);
 3898              		.loc 1 1160 15 is_stmt 1 discriminator 1 view .LVU1293
1160:C:/Users/²Ü¼ÒºÀ/.iotlink/sdk/IoT_LINK/iot_link/network/lwm2m/wakaama_lwm2m/wakaama-master/core/er-coap-13\er-coap-13.c ****         coap_add_multi_option(&(coap_pkt->uri_path), (uint8_t *)path, i, 0);
 3899              		.loc 1 1160 20 is_stmt 0 discriminator 1 view .LVU1294
 3900 0024 9946     		mov	r9, r3
 3901 0026 13F8012B 		ldrb	r2, [r3], #1	@ zero_extendqisi2
1160:C:/Users/²Ü¼ÒºÀ/.iotlink/sdk/IoT_LINK/iot_link/network/lwm2m/wakaama_lwm2m/wakaama-master/core/er-coap-13\er-coap-13.c ****         coap_add_multi_option(&(coap_pkt->uri_path), (uint8_t *)path, i, 0);
 3902              		.loc 1 1160 15 discriminator 1 view .LVU1295
 3903 002a B2B9     		cbnz	r2, .L327
 3904              	.L331:
 3905              		.loc 1 1161 9 is_stmt 1 view .LVU1296
 3906 002c 0023     		movs	r3, #0
 3907 002e 3246     		mov	r2, r6
 3908 0030 2146     		mov	r1, r4
 3909 0032 4046     		mov	r0, r8
 3910 0034 FFF7FEFF 		bl	coap_add_multi_option
 3911              	.LVL390:
1162:C:/Users/²Ü¼ÒºÀ/.iotlink/sdk/IoT_LINK/iot_link/network/lwm2m/wakaama_lwm2m/wakaama-master/core/er-coap-13\er-coap-13.c **** 
1163:C:/Users/²Ü¼ÒºÀ/.iotlink/sdk/IoT_LINK/iot_link/network/lwm2m/wakaama_lwm2m/wakaama-master/core/er-coap-13\er-coap-13.c ****         if (path[i] == '/') i++;
 3912              		.loc 1 1163 9 view .LVU1297
ARM GAS  C:\Users\²Ü¼ÒºÀ\AppData\Local\Temp\cczrlpTg.s 			page 99


 3913              		.loc 1 1163 12 is_stmt 0 view .LVU1298
 3914 0038 99F80030 		ldrb	r3, [r9]	@ zero_extendqisi2
 3915 003c 2F2B     		cmp	r3, #47
 3916 003e 00D1     		bne	.L329
 3917              		.loc 1 1163 29 is_stmt 1 discriminator 1 view .LVU1299
 3918              		.loc 1 1163 30 is_stmt 0 discriminator 1 view .LVU1300
 3919 0040 0136     		adds	r6, r6, #1
 3920              	.LVL391:
 3921              	.L329:
1164:C:/Users/²Ü¼ÒºÀ/.iotlink/sdk/IoT_LINK/iot_link/network/lwm2m/wakaama_lwm2m/wakaama-master/core/er-coap-13\er-coap-13.c ****         path += i;
 3922              		.loc 1 1164 9 is_stmt 1 view .LVU1301
 3923              		.loc 1 1164 14 is_stmt 0 view .LVU1302
 3924 0042 3444     		add	r4, r4, r6
 3925              	.LVL392:
1165:C:/Users/²Ü¼ÒºÀ/.iotlink/sdk/IoT_LINK/iot_link/network/lwm2m/wakaama_lwm2m/wakaama-master/core/er-coap-13\er-coap-13.c ****         length += i;
 3926              		.loc 1 1165 9 is_stmt 1 view .LVU1303
 3927              		.loc 1 1165 16 is_stmt 0 view .LVU1304
 3928 0044 3744     		add	r7, r7, r6
 3929              	.LVL393:
 3930              		.loc 1 1165 16 view .LVU1305
 3931              	.LBE105:
1166:C:/Users/²Ü¼ÒºÀ/.iotlink/sdk/IoT_LINK/iot_link/network/lwm2m/wakaama_lwm2m/wakaama-master/core/er-coap-13\er-coap-13.c ****     }
1167:C:/Users/²Ü¼ÒºÀ/.iotlink/sdk/IoT_LINK/iot_link/network/lwm2m/wakaama_lwm2m/wakaama-master/core/er-coap-13\er-coap-13.c ****     while (path[0] != 0);
 3932              		.loc 1 1167 11 is_stmt 1 view .LVU1306
 3933              		.loc 1 1167 5 is_stmt 0 view .LVU1307
 3934 0046 2378     		ldrb	r3, [r4]	@ zero_extendqisi2
 3935 0048 002B     		cmp	r3, #0
 3936 004a E9D1     		bne	.L332
1168:C:/Users/²Ü¼ÒºÀ/.iotlink/sdk/IoT_LINK/iot_link/network/lwm2m/wakaama_lwm2m/wakaama-master/core/er-coap-13\er-coap-13.c **** 
1169:C:/Users/²Ü¼ÒºÀ/.iotlink/sdk/IoT_LINK/iot_link/network/lwm2m/wakaama_lwm2m/wakaama-master/core/er-coap-13\er-coap-13.c ****     SET_OPTION(coap_pkt, COAP_OPTION_URI_PATH);
 3937              		.loc 1 1169 5 is_stmt 1 discriminator 1 view .LVU1308
 3938              		.loc 1 1169 5 discriminator 1 view .LVU1309
 3939 004c EB7A     		ldrb	r3, [r5, #11]	@ zero_extendqisi2
 3940 004e 43F00803 		orr	r3, r3, #8
 3941 0052 EB72     		strb	r3, [r5, #11]
 3942              		.loc 1 1169 47 discriminator 1 view .LVU1310
1170:C:/Users/²Ü¼ÒºÀ/.iotlink/sdk/IoT_LINK/iot_link/network/lwm2m/wakaama_lwm2m/wakaama-master/core/er-coap-13\er-coap-13.c ****     return length;
 3943              		.loc 1 1170 5 discriminator 1 view .LVU1311
1171:C:/Users/²Ü¼ÒºÀ/.iotlink/sdk/IoT_LINK/iot_link/network/lwm2m/wakaama_lwm2m/wakaama-master/core/er-coap-13\er-coap-13.c **** }
 3944              		.loc 1 1171 1 is_stmt 0 discriminator 1 view .LVU1312
 3945 0054 3846     		mov	r0, r7
 3946 0056 BDE8F883 		pop	{r3, r4, r5, r6, r7, r8, r9, pc}
 3947              	.LVL394:
 3948              	.L327:
 3949              	.LBB106:
1160:C:/Users/²Ü¼ÒºÀ/.iotlink/sdk/IoT_LINK/iot_link/network/lwm2m/wakaama_lwm2m/wakaama-master/core/er-coap-13\er-coap-13.c ****         coap_add_multi_option(&(coap_pkt->uri_path), (uint8_t *)path, i, 0);
 3950              		.loc 1 1160 29 discriminator 2 view .LVU1313
 3951 005a 2F2A     		cmp	r2, #47
 3952 005c E6D0     		beq	.L331
1160:C:/Users/²Ü¼ÒºÀ/.iotlink/sdk/IoT_LINK/iot_link/network/lwm2m/wakaama_lwm2m/wakaama-master/core/er-coap-13\er-coap-13.c ****         coap_add_multi_option(&(coap_pkt->uri_path), (uint8_t *)path, i, 0);
 3953              		.loc 1 1160 48 is_stmt 1 discriminator 3 view .LVU1314
1160:C:/Users/²Ü¼ÒºÀ/.iotlink/sdk/IoT_LINK/iot_link/network/lwm2m/wakaama_lwm2m/wakaama-master/core/er-coap-13\er-coap-13.c ****         coap_add_multi_option(&(coap_pkt->uri_path), (uint8_t *)path, i, 0);
 3954              		.loc 1 1160 49 is_stmt 0 discriminator 3 view .LVU1315
 3955 005e 0136     		adds	r6, r6, #1
 3956              	.LVL395:
1160:C:/Users/²Ü¼ÒºÀ/.iotlink/sdk/IoT_LINK/iot_link/network/lwm2m/wakaama_lwm2m/wakaama-master/core/er-coap-13\er-coap-13.c ****         coap_add_multi_option(&(coap_pkt->uri_path), (uint8_t *)path, i, 0);
 3957              		.loc 1 1160 49 discriminator 3 view .LVU1316
ARM GAS  C:\Users\²Ü¼ÒºÀ\AppData\Local\Temp\cczrlpTg.s 			page 100


 3958 0060 E0E7     		b	.L326
 3959              	.LBE106:
 3960              		.cfi_endproc
 3961              	.LFE44:
 3963              		.section	.text.coap_set_header_uri_path_segment,"ax",%progbits
 3964              		.align	1
 3965              		.global	coap_set_header_uri_path_segment
 3966              		.syntax unified
 3967              		.thumb
 3968              		.thumb_func
 3969              		.fpu fpv4-sp-d16
 3971              	coap_set_header_uri_path_segment:
 3972              	.LVL396:
 3973              	.LFB45:
1172:C:/Users/²Ü¼ÒºÀ/.iotlink/sdk/IoT_LINK/iot_link/network/lwm2m/wakaama_lwm2m/wakaama-master/core/er-coap-13\er-coap-13.c **** 
1173:C:/Users/²Ü¼ÒºÀ/.iotlink/sdk/IoT_LINK/iot_link/network/lwm2m/wakaama_lwm2m/wakaama-master/core/er-coap-13\er-coap-13.c **** int
1174:C:/Users/²Ü¼ÒºÀ/.iotlink/sdk/IoT_LINK/iot_link/network/lwm2m/wakaama_lwm2m/wakaama-master/core/er-coap-13\er-coap-13.c **** coap_set_header_uri_path_segment(void *packet, const char *segment)
1175:C:/Users/²Ü¼ÒºÀ/.iotlink/sdk/IoT_LINK/iot_link/network/lwm2m/wakaama_lwm2m/wakaama-master/core/er-coap-13\er-coap-13.c **** {
 3974              		.loc 1 1175 1 is_stmt 1 view -0
 3975              		.cfi_startproc
 3976              		@ args = 0, pretend = 0, frame = 0
 3977              		@ frame_needed = 0, uses_anonymous_args = 0
1176:C:/Users/²Ü¼ÒºÀ/.iotlink/sdk/IoT_LINK/iot_link/network/lwm2m/wakaama_lwm2m/wakaama-master/core/er-coap-13\er-coap-13.c ****     coap_packet_t *coap_pkt = (coap_packet_t *) packet;
 3978              		.loc 1 1176 5 view .LVU1318
1177:C:/Users/²Ü¼ÒºÀ/.iotlink/sdk/IoT_LINK/iot_link/network/lwm2m/wakaama_lwm2m/wakaama-master/core/er-coap-13\er-coap-13.c ****     int length;
 3979              		.loc 1 1177 5 view .LVU1319
1178:C:/Users/²Ü¼ÒºÀ/.iotlink/sdk/IoT_LINK/iot_link/network/lwm2m/wakaama_lwm2m/wakaama-master/core/er-coap-13\er-coap-13.c **** 
1179:C:/Users/²Ü¼ÒºÀ/.iotlink/sdk/IoT_LINK/iot_link/network/lwm2m/wakaama_lwm2m/wakaama-master/core/er-coap-13\er-coap-13.c ****     if (segment == NULL || segment[0] == 0)
 3980              		.loc 1 1179 5 view .LVU1320
1175:C:/Users/²Ü¼ÒºÀ/.iotlink/sdk/IoT_LINK/iot_link/network/lwm2m/wakaama_lwm2m/wakaama-master/core/er-coap-13\er-coap-13.c ****     coap_packet_t *coap_pkt = (coap_packet_t *) packet;
 3981              		.loc 1 1175 1 is_stmt 0 view .LVU1321
 3982 0000 F8B5     		push	{r3, r4, r5, r6, r7, lr}
 3983              	.LCFI28:
 3984              		.cfi_def_cfa_offset 24
 3985              		.cfi_offset 3, -24
 3986              		.cfi_offset 4, -20
 3987              		.cfi_offset 5, -16
 3988              		.cfi_offset 6, -12
 3989              		.cfi_offset 7, -8
 3990              		.cfi_offset 14, -4
1175:C:/Users/²Ü¼ÒºÀ/.iotlink/sdk/IoT_LINK/iot_link/network/lwm2m/wakaama_lwm2m/wakaama-master/core/er-coap-13\er-coap-13.c ****     coap_packet_t *coap_pkt = (coap_packet_t *) packet;
 3991              		.loc 1 1175 1 view .LVU1322
 3992 0002 0646     		mov	r6, r0
 3993 0004 00F14407 		add	r7, r0, #68
 3994              		.loc 1 1179 8 view .LVU1323
 3995 0008 0C46     		mov	r4, r1
 3996 000a 09B1     		cbz	r1, .L335
 3997              		.loc 1 1179 25 discriminator 1 view .LVU1324
 3998 000c 0B78     		ldrb	r3, [r1]	@ zero_extendqisi2
 3999 000e 63B9     		cbnz	r3, .L336
 4000              	.L335:
1180:C:/Users/²Ü¼ÒºÀ/.iotlink/sdk/IoT_LINK/iot_link/network/lwm2m/wakaama_lwm2m/wakaama-master/core/er-coap-13\er-coap-13.c ****     {
1181:C:/Users/²Ü¼ÒºÀ/.iotlink/sdk/IoT_LINK/iot_link/network/lwm2m/wakaama_lwm2m/wakaama-master/core/er-coap-13\er-coap-13.c ****         coap_add_multi_option(&(coap_pkt->uri_path), NULL, 0, 1);
 4001              		.loc 1 1181 9 is_stmt 1 view .LVU1325
 4002 0010 0022     		movs	r2, #0
 4003 0012 0123     		movs	r3, #1
 4004 0014 1146     		mov	r1, r2
ARM GAS  C:\Users\²Ü¼ÒºÀ\AppData\Local\Temp\cczrlpTg.s 			page 101


 4005              	.LVL397:
 4006              		.loc 1 1181 9 is_stmt 0 view .LVU1326
 4007 0016 3846     		mov	r0, r7
 4008              	.LVL398:
 4009              		.loc 1 1181 9 view .LVU1327
 4010 0018 FFF7FEFF 		bl	coap_add_multi_option
 4011              	.LVL399:
1182:C:/Users/²Ü¼ÒºÀ/.iotlink/sdk/IoT_LINK/iot_link/network/lwm2m/wakaama_lwm2m/wakaama-master/core/er-coap-13\er-coap-13.c ****         length = 0;
 4012              		.loc 1 1182 9 is_stmt 1 view .LVU1328
 4013              		.loc 1 1182 16 is_stmt 0 view .LVU1329
 4014 001c 0025     		movs	r5, #0
 4015              	.LVL400:
 4016              	.L337:
1183:C:/Users/²Ü¼ÒºÀ/.iotlink/sdk/IoT_LINK/iot_link/network/lwm2m/wakaama_lwm2m/wakaama-master/core/er-coap-13\er-coap-13.c ****     }
1184:C:/Users/²Ü¼ÒºÀ/.iotlink/sdk/IoT_LINK/iot_link/network/lwm2m/wakaama_lwm2m/wakaama-master/core/er-coap-13\er-coap-13.c ****     else
1185:C:/Users/²Ü¼ÒºÀ/.iotlink/sdk/IoT_LINK/iot_link/network/lwm2m/wakaama_lwm2m/wakaama-master/core/er-coap-13\er-coap-13.c ****     {
1186:C:/Users/²Ü¼ÒºÀ/.iotlink/sdk/IoT_LINK/iot_link/network/lwm2m/wakaama_lwm2m/wakaama-master/core/er-coap-13\er-coap-13.c ****         length = strlen(segment);
1187:C:/Users/²Ü¼ÒºÀ/.iotlink/sdk/IoT_LINK/iot_link/network/lwm2m/wakaama_lwm2m/wakaama-master/core/er-coap-13\er-coap-13.c ****         coap_add_multi_option(&(coap_pkt->uri_path), (uint8_t *)segment, length, 0);
1188:C:/Users/²Ü¼ÒºÀ/.iotlink/sdk/IoT_LINK/iot_link/network/lwm2m/wakaama_lwm2m/wakaama-master/core/er-coap-13\er-coap-13.c ****     }
1189:C:/Users/²Ü¼ÒºÀ/.iotlink/sdk/IoT_LINK/iot_link/network/lwm2m/wakaama_lwm2m/wakaama-master/core/er-coap-13\er-coap-13.c **** 
1190:C:/Users/²Ü¼ÒºÀ/.iotlink/sdk/IoT_LINK/iot_link/network/lwm2m/wakaama_lwm2m/wakaama-master/core/er-coap-13\er-coap-13.c ****     SET_OPTION(coap_pkt, COAP_OPTION_URI_PATH);
 4017              		.loc 1 1190 5 is_stmt 1 discriminator 1 view .LVU1330
 4018              		.loc 1 1190 5 discriminator 1 view .LVU1331
 4019 001e F37A     		ldrb	r3, [r6, #11]	@ zero_extendqisi2
 4020 0020 43F00803 		orr	r3, r3, #8
 4021 0024 F372     		strb	r3, [r6, #11]
 4022              		.loc 1 1190 47 discriminator 1 view .LVU1332
1191:C:/Users/²Ü¼ÒºÀ/.iotlink/sdk/IoT_LINK/iot_link/network/lwm2m/wakaama_lwm2m/wakaama-master/core/er-coap-13\er-coap-13.c ****     return length;
 4023              		.loc 1 1191 5 discriminator 1 view .LVU1333
1192:C:/Users/²Ü¼ÒºÀ/.iotlink/sdk/IoT_LINK/iot_link/network/lwm2m/wakaama_lwm2m/wakaama-master/core/er-coap-13\er-coap-13.c **** }
 4024              		.loc 1 1192 1 is_stmt 0 discriminator 1 view .LVU1334
 4025 0026 2846     		mov	r0, r5
 4026 0028 F8BD     		pop	{r3, r4, r5, r6, r7, pc}
 4027              	.LVL401:
 4028              	.L336:
1186:C:/Users/²Ü¼ÒºÀ/.iotlink/sdk/IoT_LINK/iot_link/network/lwm2m/wakaama_lwm2m/wakaama-master/core/er-coap-13\er-coap-13.c ****         coap_add_multi_option(&(coap_pkt->uri_path), (uint8_t *)segment, length, 0);
 4029              		.loc 1 1186 9 is_stmt 1 view .LVU1335
1186:C:/Users/²Ü¼ÒºÀ/.iotlink/sdk/IoT_LINK/iot_link/network/lwm2m/wakaama_lwm2m/wakaama-master/core/er-coap-13\er-coap-13.c ****         coap_add_multi_option(&(coap_pkt->uri_path), (uint8_t *)segment, length, 0);
 4030              		.loc 1 1186 18 is_stmt 0 view .LVU1336
 4031 002a 0846     		mov	r0, r1
 4032              	.LVL402:
1186:C:/Users/²Ü¼ÒºÀ/.iotlink/sdk/IoT_LINK/iot_link/network/lwm2m/wakaama_lwm2m/wakaama-master/core/er-coap-13\er-coap-13.c ****         coap_add_multi_option(&(coap_pkt->uri_path), (uint8_t *)segment, length, 0);
 4033              		.loc 1 1186 18 view .LVU1337
 4034 002c FFF7FEFF 		bl	strlen
 4035              	.LVL403:
1187:C:/Users/²Ü¼ÒºÀ/.iotlink/sdk/IoT_LINK/iot_link/network/lwm2m/wakaama_lwm2m/wakaama-master/core/er-coap-13\er-coap-13.c ****     }
 4036              		.loc 1 1187 9 view .LVU1338
 4037 0030 0023     		movs	r3, #0
1186:C:/Users/²Ü¼ÒºÀ/.iotlink/sdk/IoT_LINK/iot_link/network/lwm2m/wakaama_lwm2m/wakaama-master/core/er-coap-13\er-coap-13.c ****         coap_add_multi_option(&(coap_pkt->uri_path), (uint8_t *)segment, length, 0);
 4038              		.loc 1 1186 18 view .LVU1339
 4039 0032 0546     		mov	r5, r0
 4040              	.LVL404:
1187:C:/Users/²Ü¼ÒºÀ/.iotlink/sdk/IoT_LINK/iot_link/network/lwm2m/wakaama_lwm2m/wakaama-master/core/er-coap-13\er-coap-13.c ****     }
 4041              		.loc 1 1187 9 is_stmt 1 view .LVU1340
 4042 0034 0246     		mov	r2, r0
 4043 0036 2146     		mov	r1, r4
 4044 0038 3846     		mov	r0, r7
ARM GAS  C:\Users\²Ü¼ÒºÀ\AppData\Local\Temp\cczrlpTg.s 			page 102


 4045              	.LVL405:
1187:C:/Users/²Ü¼ÒºÀ/.iotlink/sdk/IoT_LINK/iot_link/network/lwm2m/wakaama_lwm2m/wakaama-master/core/er-coap-13\er-coap-13.c ****     }
 4046              		.loc 1 1187 9 is_stmt 0 view .LVU1341
 4047 003a FFF7FEFF 		bl	coap_add_multi_option
 4048              	.LVL406:
1187:C:/Users/²Ü¼ÒºÀ/.iotlink/sdk/IoT_LINK/iot_link/network/lwm2m/wakaama_lwm2m/wakaama-master/core/er-coap-13\er-coap-13.c ****     }
 4049              		.loc 1 1187 9 view .LVU1342
 4050 003e EEE7     		b	.L337
 4051              		.cfi_endproc
 4052              	.LFE45:
 4054              		.section	.text.coap_get_header_uri_query,"ax",%progbits
 4055              		.align	1
 4056              		.global	coap_get_header_uri_query
 4057              		.syntax unified
 4058              		.thumb
 4059              		.thumb_func
 4060              		.fpu fpv4-sp-d16
 4062              	coap_get_header_uri_query:
 4063              	.LVL407:
 4064              	.LFB46:
1193:C:/Users/²Ü¼ÒºÀ/.iotlink/sdk/IoT_LINK/iot_link/network/lwm2m/wakaama_lwm2m/wakaama-master/core/er-coap-13\er-coap-13.c **** /*-----------------------------------------------------------------------------------*/
1194:C:/Users/²Ü¼ÒºÀ/.iotlink/sdk/IoT_LINK/iot_link/network/lwm2m/wakaama_lwm2m/wakaama-master/core/er-coap-13\er-coap-13.c **** int
1195:C:/Users/²Ü¼ÒºÀ/.iotlink/sdk/IoT_LINK/iot_link/network/lwm2m/wakaama_lwm2m/wakaama-master/core/er-coap-13\er-coap-13.c **** coap_get_header_uri_query(void *packet, const char **query)
1196:C:/Users/²Ü¼ÒºÀ/.iotlink/sdk/IoT_LINK/iot_link/network/lwm2m/wakaama_lwm2m/wakaama-master/core/er-coap-13\er-coap-13.c **** {
 4065              		.loc 1 1196 1 is_stmt 1 view -0
 4066              		.cfi_startproc
 4067              		@ args = 0, pretend = 0, frame = 0
 4068              		@ frame_needed = 0, uses_anonymous_args = 0
 4069              		@ link register save eliminated.
1197:C:/Users/²Ü¼ÒºÀ/.iotlink/sdk/IoT_LINK/iot_link/network/lwm2m/wakaama_lwm2m/wakaama-master/core/er-coap-13\er-coap-13.c ****     coap_packet_t *const coap_pkt = (coap_packet_t *) packet;
 4070              		.loc 1 1197 5 view .LVU1344
1198:C:/Users/²Ü¼ÒºÀ/.iotlink/sdk/IoT_LINK/iot_link/network/lwm2m/wakaama_lwm2m/wakaama-master/core/er-coap-13\er-coap-13.c **** 
1199:C:/Users/²Ü¼ÒºÀ/.iotlink/sdk/IoT_LINK/iot_link/network/lwm2m/wakaama_lwm2m/wakaama-master/core/er-coap-13\er-coap-13.c ****     if (!IS_OPTION(coap_pkt, COAP_OPTION_URI_QUERY)) return 0;
 4071              		.loc 1 1199 5 view .LVU1345
 4072              		.loc 1 1199 8 is_stmt 0 view .LVU1346
 4073 0000 90F90B30 		ldrsb	r3, [r0, #11]
 4074 0004 002B     		cmp	r3, #0
1200:C:/Users/²Ü¼ÒºÀ/.iotlink/sdk/IoT_LINK/iot_link/network/lwm2m/wakaama_lwm2m/wakaama-master/core/er-coap-13\er-coap-13.c **** 
1201:C:/Users/²Ü¼ÒºÀ/.iotlink/sdk/IoT_LINK/iot_link/network/lwm2m/wakaama_lwm2m/wakaama-master/core/er-coap-13\er-coap-13.c ****     *query = NULL; //coap_pkt->uri_query;
 4075              		.loc 1 1201 5 is_stmt 1 view .LVU1347
 4076              		.loc 1 1201 12 is_stmt 0 view .LVU1348
 4077 0006 BCBF     		itt	lt
 4078 0008 0023     		movlt	r3, #0
 4079 000a 0B60     		strlt	r3, [r1]
1202:C:/Users/²Ü¼ÒºÀ/.iotlink/sdk/IoT_LINK/iot_link/network/lwm2m/wakaama_lwm2m/wakaama-master/core/er-coap-13\er-coap-13.c ****     return 0; //coap_pkt->uri_query_len;
 4080              		.loc 1 1202 5 is_stmt 1 view .LVU1349
1203:C:/Users/²Ü¼ÒºÀ/.iotlink/sdk/IoT_LINK/iot_link/network/lwm2m/wakaama_lwm2m/wakaama-master/core/er-coap-13\er-coap-13.c **** }
 4081              		.loc 1 1203 1 is_stmt 0 view .LVU1350
 4082 000c 0020     		movs	r0, #0
 4083              	.LVL408:
 4084              		.loc 1 1203 1 view .LVU1351
 4085 000e 7047     		bx	lr
 4086              		.cfi_endproc
 4087              	.LFE46:
 4089              		.section	.text.coap_set_header_uri_query,"ax",%progbits
 4090              		.align	1
 4091              		.global	coap_set_header_uri_query
ARM GAS  C:\Users\²Ü¼ÒºÀ\AppData\Local\Temp\cczrlpTg.s 			page 103


 4092              		.syntax unified
 4093              		.thumb
 4094              		.thumb_func
 4095              		.fpu fpv4-sp-d16
 4097              	coap_set_header_uri_query:
 4098              	.LVL409:
 4099              	.LFB47:
1204:C:/Users/²Ü¼ÒºÀ/.iotlink/sdk/IoT_LINK/iot_link/network/lwm2m/wakaama_lwm2m/wakaama-master/core/er-coap-13\er-coap-13.c **** 
1205:C:/Users/²Ü¼ÒºÀ/.iotlink/sdk/IoT_LINK/iot_link/network/lwm2m/wakaama_lwm2m/wakaama-master/core/er-coap-13\er-coap-13.c **** int
1206:C:/Users/²Ü¼ÒºÀ/.iotlink/sdk/IoT_LINK/iot_link/network/lwm2m/wakaama_lwm2m/wakaama-master/core/er-coap-13\er-coap-13.c **** coap_set_header_uri_query(void *packet, const char *query)
1207:C:/Users/²Ü¼ÒºÀ/.iotlink/sdk/IoT_LINK/iot_link/network/lwm2m/wakaama_lwm2m/wakaama-master/core/er-coap-13\er-coap-13.c **** {
 4100              		.loc 1 1207 1 is_stmt 1 view -0
 4101              		.cfi_startproc
 4102              		@ args = 0, pretend = 0, frame = 0
 4103              		@ frame_needed = 0, uses_anonymous_args = 0
1208:C:/Users/²Ü¼ÒºÀ/.iotlink/sdk/IoT_LINK/iot_link/network/lwm2m/wakaama_lwm2m/wakaama-master/core/er-coap-13\er-coap-13.c ****     int length = 0;
 4104              		.loc 1 1208 5 view .LVU1353
1209:C:/Users/²Ü¼ÒºÀ/.iotlink/sdk/IoT_LINK/iot_link/network/lwm2m/wakaama_lwm2m/wakaama-master/core/er-coap-13\er-coap-13.c ****     coap_packet_t *const coap_pkt = (coap_packet_t *) packet;
 4105              		.loc 1 1209 5 view .LVU1354
1210:C:/Users/²Ü¼ÒºÀ/.iotlink/sdk/IoT_LINK/iot_link/network/lwm2m/wakaama_lwm2m/wakaama-master/core/er-coap-13\er-coap-13.c **** 
1211:C:/Users/²Ü¼ÒºÀ/.iotlink/sdk/IoT_LINK/iot_link/network/lwm2m/wakaama_lwm2m/wakaama-master/core/er-coap-13\er-coap-13.c ****     free_multi_option(coap_pkt->uri_query);
 4106              		.loc 1 1211 5 view .LVU1355
1207:C:/Users/²Ü¼ÒºÀ/.iotlink/sdk/IoT_LINK/iot_link/network/lwm2m/wakaama_lwm2m/wakaama-master/core/er-coap-13\er-coap-13.c ****     int length = 0;
 4107              		.loc 1 1207 1 is_stmt 0 view .LVU1356
 4108 0000 2DE9F843 		push	{r3, r4, r5, r6, r7, r8, r9, lr}
 4109              	.LCFI29:
 4110              		.cfi_def_cfa_offset 32
 4111              		.cfi_offset 3, -32
 4112              		.cfi_offset 4, -28
 4113              		.cfi_offset 5, -24
 4114              		.cfi_offset 6, -20
 4115              		.cfi_offset 7, -16
 4116              		.cfi_offset 8, -12
 4117              		.cfi_offset 9, -8
 4118              		.cfi_offset 14, -4
1207:C:/Users/²Ü¼ÒºÀ/.iotlink/sdk/IoT_LINK/iot_link/network/lwm2m/wakaama_lwm2m/wakaama-master/core/er-coap-13\er-coap-13.c ****     int length = 0;
 4119              		.loc 1 1207 1 view .LVU1357
 4120 0004 0546     		mov	r5, r0
 4121              		.loc 1 1211 5 view .LVU1358
 4122 0006 D0F88000 		ldr	r0, [r0, #128]
 4123              	.LVL410:
1207:C:/Users/²Ü¼ÒºÀ/.iotlink/sdk/IoT_LINK/iot_link/network/lwm2m/wakaama_lwm2m/wakaama-master/core/er-coap-13\er-coap-13.c ****     int length = 0;
 4124              		.loc 1 1207 1 view .LVU1359
 4125 000a 0C46     		mov	r4, r1
 4126              		.loc 1 1211 5 view .LVU1360
 4127 000c FFF7FEFF 		bl	free_multi_option
 4128              	.LVL411:
1212:C:/Users/²Ü¼ÒºÀ/.iotlink/sdk/IoT_LINK/iot_link/network/lwm2m/wakaama_lwm2m/wakaama-master/core/er-coap-13\er-coap-13.c ****     coap_pkt->uri_query = NULL;
 4129              		.loc 1 1212 5 is_stmt 1 view .LVU1361
 4130              		.loc 1 1212 25 is_stmt 0 view .LVU1362
 4131 0010 0023     		movs	r3, #0
 4132 0012 C5F88030 		str	r3, [r5, #128]
1213:C:/Users/²Ü¼ÒºÀ/.iotlink/sdk/IoT_LINK/iot_link/network/lwm2m/wakaama_lwm2m/wakaama-master/core/er-coap-13\er-coap-13.c **** 
1214:C:/Users/²Ü¼ÒºÀ/.iotlink/sdk/IoT_LINK/iot_link/network/lwm2m/wakaama_lwm2m/wakaama-master/core/er-coap-13\er-coap-13.c ****     if (query[0] == '?') ++query;
 4133              		.loc 1 1214 5 is_stmt 1 view .LVU1363
 4134              		.loc 1 1214 8 is_stmt 0 view .LVU1364
 4135 0016 2378     		ldrb	r3, [r4]	@ zero_extendqisi2
ARM GAS  C:\Users\²Ü¼ÒºÀ\AppData\Local\Temp\cczrlpTg.s 			page 104


 4136 0018 3F2B     		cmp	r3, #63
 4137              		.loc 1 1214 26 is_stmt 1 view .LVU1365
 4138 001a 08BF     		it	eq
 4139 001c 0134     		addeq	r4, r4, #1
 4140              	.LVL412:
1207:C:/Users/²Ü¼ÒºÀ/.iotlink/sdk/IoT_LINK/iot_link/network/lwm2m/wakaama_lwm2m/wakaama-master/core/er-coap-13\er-coap-13.c ****     int length = 0;
 4141              		.loc 1 1207 1 is_stmt 0 view .LVU1366
 4142 001e 0027     		movs	r7, #0
 4143              	.LBB107:
1215:C:/Users/²Ü¼ÒºÀ/.iotlink/sdk/IoT_LINK/iot_link/network/lwm2m/wakaama_lwm2m/wakaama-master/core/er-coap-13\er-coap-13.c **** 
1216:C:/Users/²Ü¼ÒºÀ/.iotlink/sdk/IoT_LINK/iot_link/network/lwm2m/wakaama_lwm2m/wakaama-master/core/er-coap-13\er-coap-13.c ****     do
1217:C:/Users/²Ü¼ÒºÀ/.iotlink/sdk/IoT_LINK/iot_link/network/lwm2m/wakaama_lwm2m/wakaama-master/core/er-coap-13\er-coap-13.c ****     {
1218:C:/Users/²Ü¼ÒºÀ/.iotlink/sdk/IoT_LINK/iot_link/network/lwm2m/wakaama_lwm2m/wakaama-master/core/er-coap-13\er-coap-13.c ****         int i = 0;
1219:C:/Users/²Ü¼ÒºÀ/.iotlink/sdk/IoT_LINK/iot_link/network/lwm2m/wakaama_lwm2m/wakaama-master/core/er-coap-13\er-coap-13.c **** 
1220:C:/Users/²Ü¼ÒºÀ/.iotlink/sdk/IoT_LINK/iot_link/network/lwm2m/wakaama_lwm2m/wakaama-master/core/er-coap-13\er-coap-13.c ****         while (query[i] != 0 && query[i] != '&') i++;
1221:C:/Users/²Ü¼ÒºÀ/.iotlink/sdk/IoT_LINK/iot_link/network/lwm2m/wakaama_lwm2m/wakaama-master/core/er-coap-13\er-coap-13.c ****         coap_add_multi_option(&(coap_pkt->uri_query), (uint8_t *)query, i, 0);
 4144              		.loc 1 1221 9 view .LVU1367
 4145 0020 05F18008 		add	r8, r5, #128
 4146              	.LVL413:
 4147              	.L351:
 4148              		.loc 1 1221 9 view .LVU1368
 4149              	.LBE107:
1216:C:/Users/²Ü¼ÒºÀ/.iotlink/sdk/IoT_LINK/iot_link/network/lwm2m/wakaama_lwm2m/wakaama-master/core/er-coap-13\er-coap-13.c ****     {
 4150              		.loc 1 1216 5 is_stmt 1 view .LVU1369
 4151              	.LBB108:
1218:C:/Users/²Ü¼ÒºÀ/.iotlink/sdk/IoT_LINK/iot_link/network/lwm2m/wakaama_lwm2m/wakaama-master/core/er-coap-13\er-coap-13.c **** 
 4152              		.loc 1 1218 9 view .LVU1370
1220:C:/Users/²Ü¼ÒºÀ/.iotlink/sdk/IoT_LINK/iot_link/network/lwm2m/wakaama_lwm2m/wakaama-master/core/er-coap-13\er-coap-13.c ****         coap_add_multi_option(&(coap_pkt->uri_query), (uint8_t *)query, i, 0);
 4153              		.loc 1 1220 9 view .LVU1371
 4154 0024 2346     		mov	r3, r4
1218:C:/Users/²Ü¼ÒºÀ/.iotlink/sdk/IoT_LINK/iot_link/network/lwm2m/wakaama_lwm2m/wakaama-master/core/er-coap-13\er-coap-13.c **** 
 4155              		.loc 1 1218 13 is_stmt 0 view .LVU1372
 4156 0026 0026     		movs	r6, #0
 4157              	.LVL414:
 4158              	.L345:
1220:C:/Users/²Ü¼ÒºÀ/.iotlink/sdk/IoT_LINK/iot_link/network/lwm2m/wakaama_lwm2m/wakaama-master/core/er-coap-13\er-coap-13.c ****         coap_add_multi_option(&(coap_pkt->uri_query), (uint8_t *)query, i, 0);
 4159              		.loc 1 1220 15 is_stmt 1 discriminator 1 view .LVU1373
1220:C:/Users/²Ü¼ÒºÀ/.iotlink/sdk/IoT_LINK/iot_link/network/lwm2m/wakaama_lwm2m/wakaama-master/core/er-coap-13\er-coap-13.c ****         coap_add_multi_option(&(coap_pkt->uri_query), (uint8_t *)query, i, 0);
 4160              		.loc 1 1220 21 is_stmt 0 discriminator 1 view .LVU1374
 4161 0028 9946     		mov	r9, r3
 4162 002a 13F8012B 		ldrb	r2, [r3], #1	@ zero_extendqisi2
1220:C:/Users/²Ü¼ÒºÀ/.iotlink/sdk/IoT_LINK/iot_link/network/lwm2m/wakaama_lwm2m/wakaama-master/core/er-coap-13\er-coap-13.c ****         coap_add_multi_option(&(coap_pkt->uri_query), (uint8_t *)query, i, 0);
 4163              		.loc 1 1220 15 discriminator 1 view .LVU1375
 4164 002e B2B9     		cbnz	r2, .L346
 4165              	.L350:
 4166              		.loc 1 1221 9 is_stmt 1 view .LVU1376
 4167 0030 0023     		movs	r3, #0
 4168 0032 3246     		mov	r2, r6
 4169 0034 2146     		mov	r1, r4
 4170 0036 4046     		mov	r0, r8
 4171 0038 FFF7FEFF 		bl	coap_add_multi_option
 4172              	.LVL415:
1222:C:/Users/²Ü¼ÒºÀ/.iotlink/sdk/IoT_LINK/iot_link/network/lwm2m/wakaama_lwm2m/wakaama-master/core/er-coap-13\er-coap-13.c **** 
1223:C:/Users/²Ü¼ÒºÀ/.iotlink/sdk/IoT_LINK/iot_link/network/lwm2m/wakaama_lwm2m/wakaama-master/core/er-coap-13\er-coap-13.c ****         if (query[i] == '&') i++;
 4173              		.loc 1 1223 9 view .LVU1377
 4174              		.loc 1 1223 12 is_stmt 0 view .LVU1378
 4175 003c 99F80030 		ldrb	r3, [r9]	@ zero_extendqisi2
ARM GAS  C:\Users\²Ü¼ÒºÀ\AppData\Local\Temp\cczrlpTg.s 			page 105


 4176 0040 262B     		cmp	r3, #38
 4177 0042 00D1     		bne	.L348
 4178              		.loc 1 1223 30 is_stmt 1 discriminator 1 view .LVU1379
 4179              		.loc 1 1223 31 is_stmt 0 discriminator 1 view .LVU1380
 4180 0044 0136     		adds	r6, r6, #1
 4181              	.LVL416:
 4182              	.L348:
1224:C:/Users/²Ü¼ÒºÀ/.iotlink/sdk/IoT_LINK/iot_link/network/lwm2m/wakaama_lwm2m/wakaama-master/core/er-coap-13\er-coap-13.c ****         query += i;
 4183              		.loc 1 1224 9 is_stmt 1 view .LVU1381
 4184              		.loc 1 1224 15 is_stmt 0 view .LVU1382
 4185 0046 3444     		add	r4, r4, r6
 4186              	.LVL417:
1225:C:/Users/²Ü¼ÒºÀ/.iotlink/sdk/IoT_LINK/iot_link/network/lwm2m/wakaama_lwm2m/wakaama-master/core/er-coap-13\er-coap-13.c ****         length += i;
 4187              		.loc 1 1225 9 is_stmt 1 view .LVU1383
 4188              		.loc 1 1225 16 is_stmt 0 view .LVU1384
 4189 0048 3744     		add	r7, r7, r6
 4190              	.LVL418:
 4191              		.loc 1 1225 16 view .LVU1385
 4192              	.LBE108:
1226:C:/Users/²Ü¼ÒºÀ/.iotlink/sdk/IoT_LINK/iot_link/network/lwm2m/wakaama_lwm2m/wakaama-master/core/er-coap-13\er-coap-13.c ****     }
1227:C:/Users/²Ü¼ÒºÀ/.iotlink/sdk/IoT_LINK/iot_link/network/lwm2m/wakaama_lwm2m/wakaama-master/core/er-coap-13\er-coap-13.c ****     while (query[0] != 0);
 4193              		.loc 1 1227 11 is_stmt 1 view .LVU1386
 4194              		.loc 1 1227 5 is_stmt 0 view .LVU1387
 4195 004a 2378     		ldrb	r3, [r4]	@ zero_extendqisi2
 4196 004c 002B     		cmp	r3, #0
 4197 004e E9D1     		bne	.L351
1228:C:/Users/²Ü¼ÒºÀ/.iotlink/sdk/IoT_LINK/iot_link/network/lwm2m/wakaama_lwm2m/wakaama-master/core/er-coap-13\er-coap-13.c **** 
1229:C:/Users/²Ü¼ÒºÀ/.iotlink/sdk/IoT_LINK/iot_link/network/lwm2m/wakaama_lwm2m/wakaama-master/core/er-coap-13\er-coap-13.c ****     SET_OPTION(coap_pkt, COAP_OPTION_URI_QUERY);
 4198              		.loc 1 1229 5 is_stmt 1 discriminator 1 view .LVU1388
 4199              		.loc 1 1229 5 discriminator 1 view .LVU1389
 4200 0050 EB7A     		ldrb	r3, [r5, #11]	@ zero_extendqisi2
 4201 0052 63F07F03 		orn	r3, r3, #127
 4202 0056 EB72     		strb	r3, [r5, #11]
 4203              		.loc 1 1229 48 discriminator 1 view .LVU1390
1230:C:/Users/²Ü¼ÒºÀ/.iotlink/sdk/IoT_LINK/iot_link/network/lwm2m/wakaama_lwm2m/wakaama-master/core/er-coap-13\er-coap-13.c ****     return length;
 4204              		.loc 1 1230 5 discriminator 1 view .LVU1391
1231:C:/Users/²Ü¼ÒºÀ/.iotlink/sdk/IoT_LINK/iot_link/network/lwm2m/wakaama_lwm2m/wakaama-master/core/er-coap-13\er-coap-13.c **** }
 4205              		.loc 1 1231 1 is_stmt 0 discriminator 1 view .LVU1392
 4206 0058 3846     		mov	r0, r7
 4207 005a BDE8F883 		pop	{r3, r4, r5, r6, r7, r8, r9, pc}
 4208              	.LVL419:
 4209              	.L346:
 4210              	.LBB109:
1220:C:/Users/²Ü¼ÒºÀ/.iotlink/sdk/IoT_LINK/iot_link/network/lwm2m/wakaama_lwm2m/wakaama-master/core/er-coap-13\er-coap-13.c ****         coap_add_multi_option(&(coap_pkt->uri_query), (uint8_t *)query, i, 0);
 4211              		.loc 1 1220 30 discriminator 2 view .LVU1393
 4212 005e 262A     		cmp	r2, #38
 4213 0060 E6D0     		beq	.L350
1220:C:/Users/²Ü¼ÒºÀ/.iotlink/sdk/IoT_LINK/iot_link/network/lwm2m/wakaama_lwm2m/wakaama-master/core/er-coap-13\er-coap-13.c ****         coap_add_multi_option(&(coap_pkt->uri_query), (uint8_t *)query, i, 0);
 4214              		.loc 1 1220 50 is_stmt 1 discriminator 3 view .LVU1394
1220:C:/Users/²Ü¼ÒºÀ/.iotlink/sdk/IoT_LINK/iot_link/network/lwm2m/wakaama_lwm2m/wakaama-master/core/er-coap-13\er-coap-13.c ****         coap_add_multi_option(&(coap_pkt->uri_query), (uint8_t *)query, i, 0);
 4215              		.loc 1 1220 51 is_stmt 0 discriminator 3 view .LVU1395
 4216 0062 0136     		adds	r6, r6, #1
 4217              	.LVL420:
1220:C:/Users/²Ü¼ÒºÀ/.iotlink/sdk/IoT_LINK/iot_link/network/lwm2m/wakaama_lwm2m/wakaama-master/core/er-coap-13\er-coap-13.c ****         coap_add_multi_option(&(coap_pkt->uri_query), (uint8_t *)query, i, 0);
 4218              		.loc 1 1220 51 discriminator 3 view .LVU1396
 4219 0064 E0E7     		b	.L345
 4220              	.LBE109:
ARM GAS  C:\Users\²Ü¼ÒºÀ\AppData\Local\Temp\cczrlpTg.s 			page 106


 4221              		.cfi_endproc
 4222              	.LFE47:
 4224              		.section	.text.coap_get_header_location_path,"ax",%progbits
 4225              		.align	1
 4226              		.global	coap_get_header_location_path
 4227              		.syntax unified
 4228              		.thumb
 4229              		.thumb_func
 4230              		.fpu fpv4-sp-d16
 4232              	coap_get_header_location_path:
 4233              	.LVL421:
 4234              	.LFB48:
1232:C:/Users/²Ü¼ÒºÀ/.iotlink/sdk/IoT_LINK/iot_link/network/lwm2m/wakaama_lwm2m/wakaama-master/core/er-coap-13\er-coap-13.c **** /*-----------------------------------------------------------------------------------*/
1233:C:/Users/²Ü¼ÒºÀ/.iotlink/sdk/IoT_LINK/iot_link/network/lwm2m/wakaama_lwm2m/wakaama-master/core/er-coap-13\er-coap-13.c **** int
1234:C:/Users/²Ü¼ÒºÀ/.iotlink/sdk/IoT_LINK/iot_link/network/lwm2m/wakaama_lwm2m/wakaama-master/core/er-coap-13\er-coap-13.c **** coap_get_header_location_path(void *packet, const char **path)
1235:C:/Users/²Ü¼ÒºÀ/.iotlink/sdk/IoT_LINK/iot_link/network/lwm2m/wakaama_lwm2m/wakaama-master/core/er-coap-13\er-coap-13.c **** {
 4235              		.loc 1 1235 1 is_stmt 1 view -0
 4236              		.cfi_startproc
 4237              		@ args = 0, pretend = 0, frame = 0
 4238              		@ frame_needed = 0, uses_anonymous_args = 0
 4239              		@ link register save eliminated.
1236:C:/Users/²Ü¼ÒºÀ/.iotlink/sdk/IoT_LINK/iot_link/network/lwm2m/wakaama_lwm2m/wakaama-master/core/er-coap-13\er-coap-13.c ****     coap_packet_t *const coap_pkt = (coap_packet_t *) packet;
 4240              		.loc 1 1236 5 view .LVU1398
1237:C:/Users/²Ü¼ÒºÀ/.iotlink/sdk/IoT_LINK/iot_link/network/lwm2m/wakaama_lwm2m/wakaama-master/core/er-coap-13\er-coap-13.c **** 
1238:C:/Users/²Ü¼ÒºÀ/.iotlink/sdk/IoT_LINK/iot_link/network/lwm2m/wakaama_lwm2m/wakaama-master/core/er-coap-13\er-coap-13.c ****     if (!IS_OPTION(coap_pkt, COAP_OPTION_LOCATION_PATH)) return 0;
 4241              		.loc 1 1238 5 view .LVU1399
 4242              		.loc 1 1238 8 is_stmt 0 view .LVU1400
 4243 0000 C37A     		ldrb	r3, [r0, #11]	@ zero_extendqisi2
 4244 0002 DB07     		lsls	r3, r3, #31
1239:C:/Users/²Ü¼ÒºÀ/.iotlink/sdk/IoT_LINK/iot_link/network/lwm2m/wakaama_lwm2m/wakaama-master/core/er-coap-13\er-coap-13.c **** 
1240:C:/Users/²Ü¼ÒºÀ/.iotlink/sdk/IoT_LINK/iot_link/network/lwm2m/wakaama_lwm2m/wakaama-master/core/er-coap-13\er-coap-13.c ****     *path = NULL; //coap_pkt->location_path;
 4245              		.loc 1 1240 5 is_stmt 1 view .LVU1401
 4246              		.loc 1 1240 11 is_stmt 0 view .LVU1402
 4247 0004 44BF     		itt	mi
 4248 0006 0023     		movmi	r3, #0
 4249 0008 0B60     		strmi	r3, [r1]
1241:C:/Users/²Ü¼ÒºÀ/.iotlink/sdk/IoT_LINK/iot_link/network/lwm2m/wakaama_lwm2m/wakaama-master/core/er-coap-13\er-coap-13.c ****     return 0; //coap_pkt->location_path_len;
 4250              		.loc 1 1241 5 is_stmt 1 view .LVU1403
1242:C:/Users/²Ü¼ÒºÀ/.iotlink/sdk/IoT_LINK/iot_link/network/lwm2m/wakaama_lwm2m/wakaama-master/core/er-coap-13\er-coap-13.c **** }
 4251              		.loc 1 1242 1 is_stmt 0 view .LVU1404
 4252 000a 0020     		movs	r0, #0
 4253              	.LVL422:
 4254              		.loc 1 1242 1 view .LVU1405
 4255 000c 7047     		bx	lr
 4256              		.cfi_endproc
 4257              	.LFE48:
 4259              		.section	.text.coap_set_header_location_path,"ax",%progbits
 4260              		.align	1
 4261              		.global	coap_set_header_location_path
 4262              		.syntax unified
 4263              		.thumb
 4264              		.thumb_func
 4265              		.fpu fpv4-sp-d16
 4267              	coap_set_header_location_path:
 4268              	.LVL423:
 4269              	.LFB49:
1243:C:/Users/²Ü¼ÒºÀ/.iotlink/sdk/IoT_LINK/iot_link/network/lwm2m/wakaama_lwm2m/wakaama-master/core/er-coap-13\er-coap-13.c **** 
ARM GAS  C:\Users\²Ü¼ÒºÀ\AppData\Local\Temp\cczrlpTg.s 			page 107


1244:C:/Users/²Ü¼ÒºÀ/.iotlink/sdk/IoT_LINK/iot_link/network/lwm2m/wakaama_lwm2m/wakaama-master/core/er-coap-13\er-coap-13.c **** int
1245:C:/Users/²Ü¼ÒºÀ/.iotlink/sdk/IoT_LINK/iot_link/network/lwm2m/wakaama_lwm2m/wakaama-master/core/er-coap-13\er-coap-13.c **** coap_set_header_location_path(void *packet, const char *path)
1246:C:/Users/²Ü¼ÒºÀ/.iotlink/sdk/IoT_LINK/iot_link/network/lwm2m/wakaama_lwm2m/wakaama-master/core/er-coap-13\er-coap-13.c **** {
 4270              		.loc 1 1246 1 is_stmt 1 view -0
 4271              		.cfi_startproc
 4272              		@ args = 0, pretend = 0, frame = 0
 4273              		@ frame_needed = 0, uses_anonymous_args = 0
1247:C:/Users/²Ü¼ÒºÀ/.iotlink/sdk/IoT_LINK/iot_link/network/lwm2m/wakaama_lwm2m/wakaama-master/core/er-coap-13\er-coap-13.c ****     coap_packet_t *coap_pkt = (coap_packet_t *) packet;
 4274              		.loc 1 1247 5 view .LVU1407
1248:C:/Users/²Ü¼ÒºÀ/.iotlink/sdk/IoT_LINK/iot_link/network/lwm2m/wakaama_lwm2m/wakaama-master/core/er-coap-13\er-coap-13.c ****     int length = 0;
 4275              		.loc 1 1248 5 view .LVU1408
1249:C:/Users/²Ü¼ÒºÀ/.iotlink/sdk/IoT_LINK/iot_link/network/lwm2m/wakaama_lwm2m/wakaama-master/core/er-coap-13\er-coap-13.c **** 
1250:C:/Users/²Ü¼ÒºÀ/.iotlink/sdk/IoT_LINK/iot_link/network/lwm2m/wakaama_lwm2m/wakaama-master/core/er-coap-13\er-coap-13.c ****     free_multi_option(coap_pkt->location_path);
 4276              		.loc 1 1250 5 view .LVU1409
1246:C:/Users/²Ü¼ÒºÀ/.iotlink/sdk/IoT_LINK/iot_link/network/lwm2m/wakaama_lwm2m/wakaama-master/core/er-coap-13\er-coap-13.c ****     coap_packet_t *coap_pkt = (coap_packet_t *) packet;
 4277              		.loc 1 1246 1 is_stmt 0 view .LVU1410
 4278 0000 2DE9F843 		push	{r3, r4, r5, r6, r7, r8, r9, lr}
 4279              	.LCFI30:
 4280              		.cfi_def_cfa_offset 32
 4281              		.cfi_offset 3, -32
 4282              		.cfi_offset 4, -28
 4283              		.cfi_offset 5, -24
 4284              		.cfi_offset 6, -20
 4285              		.cfi_offset 7, -16
 4286              		.cfi_offset 8, -12
 4287              		.cfi_offset 9, -8
 4288              		.cfi_offset 14, -4
1246:C:/Users/²Ü¼ÒºÀ/.iotlink/sdk/IoT_LINK/iot_link/network/lwm2m/wakaama_lwm2m/wakaama-master/core/er-coap-13\er-coap-13.c ****     coap_packet_t *coap_pkt = (coap_packet_t *) packet;
 4289              		.loc 1 1246 1 view .LVU1411
 4290 0004 0546     		mov	r5, r0
 4291              		.loc 1 1250 5 view .LVU1412
 4292 0006 406B     		ldr	r0, [r0, #52]
 4293              	.LVL424:
1246:C:/Users/²Ü¼ÒºÀ/.iotlink/sdk/IoT_LINK/iot_link/network/lwm2m/wakaama_lwm2m/wakaama-master/core/er-coap-13\er-coap-13.c ****     coap_packet_t *coap_pkt = (coap_packet_t *) packet;
 4294              		.loc 1 1246 1 view .LVU1413
 4295 0008 0C46     		mov	r4, r1
 4296              		.loc 1 1250 5 view .LVU1414
 4297 000a FFF7FEFF 		bl	free_multi_option
 4298              	.LVL425:
1251:C:/Users/²Ü¼ÒºÀ/.iotlink/sdk/IoT_LINK/iot_link/network/lwm2m/wakaama_lwm2m/wakaama-master/core/er-coap-13\er-coap-13.c ****     coap_pkt->location_path = NULL;
 4299              		.loc 1 1251 5 is_stmt 1 view .LVU1415
 4300              		.loc 1 1251 29 is_stmt 0 view .LVU1416
 4301 000e 0023     		movs	r3, #0
 4302 0010 6B63     		str	r3, [r5, #52]
1252:C:/Users/²Ü¼ÒºÀ/.iotlink/sdk/IoT_LINK/iot_link/network/lwm2m/wakaama_lwm2m/wakaama-master/core/er-coap-13\er-coap-13.c **** 
1253:C:/Users/²Ü¼ÒºÀ/.iotlink/sdk/IoT_LINK/iot_link/network/lwm2m/wakaama_lwm2m/wakaama-master/core/er-coap-13\er-coap-13.c ****     if (path[0] == '/') ++path;
 4303              		.loc 1 1253 5 is_stmt 1 view .LVU1417
 4304              		.loc 1 1253 8 is_stmt 0 view .LVU1418
 4305 0012 2378     		ldrb	r3, [r4]	@ zero_extendqisi2
 4306 0014 2F2B     		cmp	r3, #47
 4307              		.loc 1 1253 25 is_stmt 1 view .LVU1419
 4308 0016 08BF     		it	eq
 4309 0018 0134     		addeq	r4, r4, #1
 4310              	.LVL426:
1246:C:/Users/²Ü¼ÒºÀ/.iotlink/sdk/IoT_LINK/iot_link/network/lwm2m/wakaama_lwm2m/wakaama-master/core/er-coap-13\er-coap-13.c ****     coap_packet_t *coap_pkt = (coap_packet_t *) packet;
 4311              		.loc 1 1246 1 is_stmt 0 view .LVU1420
 4312 001a 0027     		movs	r7, #0
ARM GAS  C:\Users\²Ü¼ÒºÀ\AppData\Local\Temp\cczrlpTg.s 			page 108


 4313              	.LBB110:
1254:C:/Users/²Ü¼ÒºÀ/.iotlink/sdk/IoT_LINK/iot_link/network/lwm2m/wakaama_lwm2m/wakaama-master/core/er-coap-13\er-coap-13.c **** 
1255:C:/Users/²Ü¼ÒºÀ/.iotlink/sdk/IoT_LINK/iot_link/network/lwm2m/wakaama_lwm2m/wakaama-master/core/er-coap-13\er-coap-13.c ****     do
1256:C:/Users/²Ü¼ÒºÀ/.iotlink/sdk/IoT_LINK/iot_link/network/lwm2m/wakaama_lwm2m/wakaama-master/core/er-coap-13\er-coap-13.c ****     {
1257:C:/Users/²Ü¼ÒºÀ/.iotlink/sdk/IoT_LINK/iot_link/network/lwm2m/wakaama_lwm2m/wakaama-master/core/er-coap-13\er-coap-13.c ****         int i = 0;
1258:C:/Users/²Ü¼ÒºÀ/.iotlink/sdk/IoT_LINK/iot_link/network/lwm2m/wakaama_lwm2m/wakaama-master/core/er-coap-13\er-coap-13.c **** 
1259:C:/Users/²Ü¼ÒºÀ/.iotlink/sdk/IoT_LINK/iot_link/network/lwm2m/wakaama_lwm2m/wakaama-master/core/er-coap-13\er-coap-13.c ****         while (path[i] != 0 && path[i] != '/') i++;
1260:C:/Users/²Ü¼ÒºÀ/.iotlink/sdk/IoT_LINK/iot_link/network/lwm2m/wakaama_lwm2m/wakaama-master/core/er-coap-13\er-coap-13.c ****         coap_add_multi_option(&(coap_pkt->location_path), (uint8_t *)path, i, 0);
 4314              		.loc 1 1260 9 view .LVU1421
 4315 001c 05F13408 		add	r8, r5, #52
 4316              	.LVL427:
 4317              	.L366:
 4318              		.loc 1 1260 9 view .LVU1422
 4319              	.LBE110:
1255:C:/Users/²Ü¼ÒºÀ/.iotlink/sdk/IoT_LINK/iot_link/network/lwm2m/wakaama_lwm2m/wakaama-master/core/er-coap-13\er-coap-13.c ****     {
 4320              		.loc 1 1255 5 is_stmt 1 view .LVU1423
 4321              	.LBB111:
1257:C:/Users/²Ü¼ÒºÀ/.iotlink/sdk/IoT_LINK/iot_link/network/lwm2m/wakaama_lwm2m/wakaama-master/core/er-coap-13\er-coap-13.c **** 
 4322              		.loc 1 1257 9 view .LVU1424
1259:C:/Users/²Ü¼ÒºÀ/.iotlink/sdk/IoT_LINK/iot_link/network/lwm2m/wakaama_lwm2m/wakaama-master/core/er-coap-13\er-coap-13.c ****         coap_add_multi_option(&(coap_pkt->location_path), (uint8_t *)path, i, 0);
 4323              		.loc 1 1259 9 view .LVU1425
 4324 0020 2346     		mov	r3, r4
1257:C:/Users/²Ü¼ÒºÀ/.iotlink/sdk/IoT_LINK/iot_link/network/lwm2m/wakaama_lwm2m/wakaama-master/core/er-coap-13\er-coap-13.c **** 
 4325              		.loc 1 1257 13 is_stmt 0 view .LVU1426
 4326 0022 0026     		movs	r6, #0
 4327              	.LVL428:
 4328              	.L360:
1259:C:/Users/²Ü¼ÒºÀ/.iotlink/sdk/IoT_LINK/iot_link/network/lwm2m/wakaama_lwm2m/wakaama-master/core/er-coap-13\er-coap-13.c ****         coap_add_multi_option(&(coap_pkt->location_path), (uint8_t *)path, i, 0);
 4329              		.loc 1 1259 15 is_stmt 1 discriminator 1 view .LVU1427
1259:C:/Users/²Ü¼ÒºÀ/.iotlink/sdk/IoT_LINK/iot_link/network/lwm2m/wakaama_lwm2m/wakaama-master/core/er-coap-13\er-coap-13.c ****         coap_add_multi_option(&(coap_pkt->location_path), (uint8_t *)path, i, 0);
 4330              		.loc 1 1259 20 is_stmt 0 discriminator 1 view .LVU1428
 4331 0024 9946     		mov	r9, r3
 4332 0026 13F8012B 		ldrb	r2, [r3], #1	@ zero_extendqisi2
1259:C:/Users/²Ü¼ÒºÀ/.iotlink/sdk/IoT_LINK/iot_link/network/lwm2m/wakaama_lwm2m/wakaama-master/core/er-coap-13\er-coap-13.c ****         coap_add_multi_option(&(coap_pkt->location_path), (uint8_t *)path, i, 0);
 4333              		.loc 1 1259 15 discriminator 1 view .LVU1429
 4334 002a B2B9     		cbnz	r2, .L361
 4335              	.L365:
 4336              		.loc 1 1260 9 is_stmt 1 view .LVU1430
 4337 002c 0023     		movs	r3, #0
 4338 002e 3246     		mov	r2, r6
 4339 0030 2146     		mov	r1, r4
 4340 0032 4046     		mov	r0, r8
 4341 0034 FFF7FEFF 		bl	coap_add_multi_option
 4342              	.LVL429:
1261:C:/Users/²Ü¼ÒºÀ/.iotlink/sdk/IoT_LINK/iot_link/network/lwm2m/wakaama_lwm2m/wakaama-master/core/er-coap-13\er-coap-13.c **** 
1262:C:/Users/²Ü¼ÒºÀ/.iotlink/sdk/IoT_LINK/iot_link/network/lwm2m/wakaama_lwm2m/wakaama-master/core/er-coap-13\er-coap-13.c ****         if (path[i] == '/') i++;
 4343              		.loc 1 1262 9 view .LVU1431
 4344              		.loc 1 1262 12 is_stmt 0 view .LVU1432
 4345 0038 99F80030 		ldrb	r3, [r9]	@ zero_extendqisi2
 4346 003c 2F2B     		cmp	r3, #47
 4347 003e 00D1     		bne	.L363
 4348              		.loc 1 1262 29 is_stmt 1 discriminator 1 view .LVU1433
 4349              		.loc 1 1262 30 is_stmt 0 discriminator 1 view .LVU1434
 4350 0040 0136     		adds	r6, r6, #1
 4351              	.LVL430:
 4352              	.L363:
1263:C:/Users/²Ü¼ÒºÀ/.iotlink/sdk/IoT_LINK/iot_link/network/lwm2m/wakaama_lwm2m/wakaama-master/core/er-coap-13\er-coap-13.c ****         path += i;
ARM GAS  C:\Users\²Ü¼ÒºÀ\AppData\Local\Temp\cczrlpTg.s 			page 109


 4353              		.loc 1 1263 9 is_stmt 1 view .LVU1435
 4354              		.loc 1 1263 14 is_stmt 0 view .LVU1436
 4355 0042 3444     		add	r4, r4, r6
 4356              	.LVL431:
1264:C:/Users/²Ü¼ÒºÀ/.iotlink/sdk/IoT_LINK/iot_link/network/lwm2m/wakaama_lwm2m/wakaama-master/core/er-coap-13\er-coap-13.c ****         length += i;
 4357              		.loc 1 1264 9 is_stmt 1 view .LVU1437
 4358              		.loc 1 1264 16 is_stmt 0 view .LVU1438
 4359 0044 3744     		add	r7, r7, r6
 4360              	.LVL432:
 4361              		.loc 1 1264 16 view .LVU1439
 4362              	.LBE111:
1265:C:/Users/²Ü¼ÒºÀ/.iotlink/sdk/IoT_LINK/iot_link/network/lwm2m/wakaama_lwm2m/wakaama-master/core/er-coap-13\er-coap-13.c ****     }
1266:C:/Users/²Ü¼ÒºÀ/.iotlink/sdk/IoT_LINK/iot_link/network/lwm2m/wakaama_lwm2m/wakaama-master/core/er-coap-13\er-coap-13.c ****     while (path[0] != 0);
 4363              		.loc 1 1266 11 is_stmt 1 view .LVU1440
 4364              		.loc 1 1266 5 is_stmt 0 view .LVU1441
 4365 0046 2378     		ldrb	r3, [r4]	@ zero_extendqisi2
 4366 0048 002B     		cmp	r3, #0
 4367 004a E9D1     		bne	.L366
1267:C:/Users/²Ü¼ÒºÀ/.iotlink/sdk/IoT_LINK/iot_link/network/lwm2m/wakaama_lwm2m/wakaama-master/core/er-coap-13\er-coap-13.c **** 
1268:C:/Users/²Ü¼ÒºÀ/.iotlink/sdk/IoT_LINK/iot_link/network/lwm2m/wakaama_lwm2m/wakaama-master/core/er-coap-13\er-coap-13.c ****     SET_OPTION(coap_pkt, COAP_OPTION_LOCATION_PATH);
 4368              		.loc 1 1268 5 is_stmt 1 discriminator 1 view .LVU1442
 4369              		.loc 1 1268 5 discriminator 1 view .LVU1443
 4370 004c EB7A     		ldrb	r3, [r5, #11]	@ zero_extendqisi2
 4371 004e 43F00103 		orr	r3, r3, #1
 4372 0052 EB72     		strb	r3, [r5, #11]
 4373              		.loc 1 1268 52 discriminator 1 view .LVU1444
1269:C:/Users/²Ü¼ÒºÀ/.iotlink/sdk/IoT_LINK/iot_link/network/lwm2m/wakaama_lwm2m/wakaama-master/core/er-coap-13\er-coap-13.c ****     return length;
 4374              		.loc 1 1269 5 discriminator 1 view .LVU1445
1270:C:/Users/²Ü¼ÒºÀ/.iotlink/sdk/IoT_LINK/iot_link/network/lwm2m/wakaama_lwm2m/wakaama-master/core/er-coap-13\er-coap-13.c **** }
 4375              		.loc 1 1270 1 is_stmt 0 discriminator 1 view .LVU1446
 4376 0054 3846     		mov	r0, r7
 4377 0056 BDE8F883 		pop	{r3, r4, r5, r6, r7, r8, r9, pc}
 4378              	.LVL433:
 4379              	.L361:
 4380              	.LBB112:
1259:C:/Users/²Ü¼ÒºÀ/.iotlink/sdk/IoT_LINK/iot_link/network/lwm2m/wakaama_lwm2m/wakaama-master/core/er-coap-13\er-coap-13.c ****         coap_add_multi_option(&(coap_pkt->location_path), (uint8_t *)path, i, 0);
 4381              		.loc 1 1259 29 discriminator 2 view .LVU1447
 4382 005a 2F2A     		cmp	r2, #47
 4383 005c E6D0     		beq	.L365
1259:C:/Users/²Ü¼ÒºÀ/.iotlink/sdk/IoT_LINK/iot_link/network/lwm2m/wakaama_lwm2m/wakaama-master/core/er-coap-13\er-coap-13.c ****         coap_add_multi_option(&(coap_pkt->location_path), (uint8_t *)path, i, 0);
 4384              		.loc 1 1259 48 is_stmt 1 discriminator 3 view .LVU1448
1259:C:/Users/²Ü¼ÒºÀ/.iotlink/sdk/IoT_LINK/iot_link/network/lwm2m/wakaama_lwm2m/wakaama-master/core/er-coap-13\er-coap-13.c ****         coap_add_multi_option(&(coap_pkt->location_path), (uint8_t *)path, i, 0);
 4385              		.loc 1 1259 49 is_stmt 0 discriminator 3 view .LVU1449
 4386 005e 0136     		adds	r6, r6, #1
 4387              	.LVL434:
1259:C:/Users/²Ü¼ÒºÀ/.iotlink/sdk/IoT_LINK/iot_link/network/lwm2m/wakaama_lwm2m/wakaama-master/core/er-coap-13\er-coap-13.c ****         coap_add_multi_option(&(coap_pkt->location_path), (uint8_t *)path, i, 0);
 4388              		.loc 1 1259 49 discriminator 3 view .LVU1450
 4389 0060 E0E7     		b	.L360
 4390              	.LBE112:
 4391              		.cfi_endproc
 4392              	.LFE49:
 4394              		.section	.text.coap_get_header_location_query,"ax",%progbits
 4395              		.align	1
 4396              		.global	coap_get_header_location_query
 4397              		.syntax unified
 4398              		.thumb
 4399              		.thumb_func
ARM GAS  C:\Users\²Ü¼ÒºÀ\AppData\Local\Temp\cczrlpTg.s 			page 110


 4400              		.fpu fpv4-sp-d16
 4402              	coap_get_header_location_query:
 4403              	.LVL435:
 4404              	.LFB50:
1271:C:/Users/²Ü¼ÒºÀ/.iotlink/sdk/IoT_LINK/iot_link/network/lwm2m/wakaama_lwm2m/wakaama-master/core/er-coap-13\er-coap-13.c **** /*-----------------------------------------------------------------------------------*/
1272:C:/Users/²Ü¼ÒºÀ/.iotlink/sdk/IoT_LINK/iot_link/network/lwm2m/wakaama_lwm2m/wakaama-master/core/er-coap-13\er-coap-13.c **** int
1273:C:/Users/²Ü¼ÒºÀ/.iotlink/sdk/IoT_LINK/iot_link/network/lwm2m/wakaama_lwm2m/wakaama-master/core/er-coap-13\er-coap-13.c **** coap_get_header_location_query(void *packet, const char **query)
1274:C:/Users/²Ü¼ÒºÀ/.iotlink/sdk/IoT_LINK/iot_link/network/lwm2m/wakaama_lwm2m/wakaama-master/core/er-coap-13\er-coap-13.c **** {
 4405              		.loc 1 1274 1 is_stmt 1 view -0
 4406              		.cfi_startproc
 4407              		@ args = 0, pretend = 0, frame = 0
 4408              		@ frame_needed = 0, uses_anonymous_args = 0
 4409              		@ link register save eliminated.
1275:C:/Users/²Ü¼ÒºÀ/.iotlink/sdk/IoT_LINK/iot_link/network/lwm2m/wakaama_lwm2m/wakaama-master/core/er-coap-13\er-coap-13.c ****     coap_packet_t *const coap_pkt = (coap_packet_t *) packet;
 4410              		.loc 1 1275 5 view .LVU1452
1276:C:/Users/²Ü¼ÒºÀ/.iotlink/sdk/IoT_LINK/iot_link/network/lwm2m/wakaama_lwm2m/wakaama-master/core/er-coap-13\er-coap-13.c **** 
1277:C:/Users/²Ü¼ÒºÀ/.iotlink/sdk/IoT_LINK/iot_link/network/lwm2m/wakaama_lwm2m/wakaama-master/core/er-coap-13\er-coap-13.c ****     if (!IS_OPTION(coap_pkt, COAP_OPTION_LOCATION_QUERY)) return 0;
 4411              		.loc 1 1277 5 view .LVU1453
 4412              		.loc 1 1277 8 is_stmt 0 view .LVU1454
 4413 0000 037B     		ldrb	r3, [r0, #12]	@ zero_extendqisi2
 4414 0002 13F01003 		ands	r3, r3, #16
1278:C:/Users/²Ü¼ÒºÀ/.iotlink/sdk/IoT_LINK/iot_link/network/lwm2m/wakaama_lwm2m/wakaama-master/core/er-coap-13\er-coap-13.c **** 
1279:C:/Users/²Ü¼ÒºÀ/.iotlink/sdk/IoT_LINK/iot_link/network/lwm2m/wakaama_lwm2m/wakaama-master/core/er-coap-13\er-coap-13.c ****     *query = (const char *)coap_pkt->location_query;
 4415              		.loc 1 1279 5 is_stmt 1 view .LVU1455
 4416              		.loc 1 1279 12 is_stmt 0 view .LVU1456
 4417 0006 1DBF     		ittte	ne
 4418 0008 036C     		ldrne	r3, [r0, #64]
 4419 000a 0B60     		strne	r3, [r1]
1280:C:/Users/²Ü¼ÒºÀ/.iotlink/sdk/IoT_LINK/iot_link/network/lwm2m/wakaama_lwm2m/wakaama-master/core/er-coap-13\er-coap-13.c ****     return coap_pkt->location_query_len;
 4420              		.loc 1 1280 5 is_stmt 1 view .LVU1457
 4421              		.loc 1 1280 20 is_stmt 0 view .LVU1458
 4422 000c C06B     		ldrne	r0, [r0, #60]
 4423              	.LVL436:
1277:C:/Users/²Ü¼ÒºÀ/.iotlink/sdk/IoT_LINK/iot_link/network/lwm2m/wakaama_lwm2m/wakaama-master/core/er-coap-13\er-coap-13.c **** 
 4424              		.loc 1 1277 66 view .LVU1459
 4425 000e 1846     		moveq	r0, r3
1281:C:/Users/²Ü¼ÒºÀ/.iotlink/sdk/IoT_LINK/iot_link/network/lwm2m/wakaama_lwm2m/wakaama-master/core/er-coap-13\er-coap-13.c **** }
 4426              		.loc 1 1281 1 view .LVU1460
 4427 0010 7047     		bx	lr
 4428              		.cfi_endproc
 4429              	.LFE50:
 4431              		.section	.text.coap_set_header_location_query,"ax",%progbits
 4432              		.align	1
 4433              		.global	coap_set_header_location_query
 4434              		.syntax unified
 4435              		.thumb
 4436              		.thumb_func
 4437              		.fpu fpv4-sp-d16
 4439              	coap_set_header_location_query:
 4440              	.LVL437:
 4441              	.LFB51:
1282:C:/Users/²Ü¼ÒºÀ/.iotlink/sdk/IoT_LINK/iot_link/network/lwm2m/wakaama_lwm2m/wakaama-master/core/er-coap-13\er-coap-13.c **** 
1283:C:/Users/²Ü¼ÒºÀ/.iotlink/sdk/IoT_LINK/iot_link/network/lwm2m/wakaama_lwm2m/wakaama-master/core/er-coap-13\er-coap-13.c **** int
1284:C:/Users/²Ü¼ÒºÀ/.iotlink/sdk/IoT_LINK/iot_link/network/lwm2m/wakaama_lwm2m/wakaama-master/core/er-coap-13\er-coap-13.c **** coap_set_header_location_query(void *packet, char *query)
1285:C:/Users/²Ü¼ÒºÀ/.iotlink/sdk/IoT_LINK/iot_link/network/lwm2m/wakaama_lwm2m/wakaama-master/core/er-coap-13\er-coap-13.c **** {
 4442              		.loc 1 1285 1 is_stmt 1 view -0
 4443              		.cfi_startproc
ARM GAS  C:\Users\²Ü¼ÒºÀ\AppData\Local\Temp\cczrlpTg.s 			page 111


 4444              		@ args = 0, pretend = 0, frame = 0
 4445              		@ frame_needed = 0, uses_anonymous_args = 0
 4446              		.loc 1 1285 1 is_stmt 0 view .LVU1462
 4447 0000 10B5     		push	{r4, lr}
 4448              	.LCFI31:
 4449              		.cfi_def_cfa_offset 8
 4450              		.cfi_offset 4, -8
 4451              		.cfi_offset 14, -4
 4452 0002 0446     		mov	r4, r0
1286:C:/Users/²Ü¼ÒºÀ/.iotlink/sdk/IoT_LINK/iot_link/network/lwm2m/wakaama_lwm2m/wakaama-master/core/er-coap-13\er-coap-13.c ****     coap_packet_t *const coap_pkt = (coap_packet_t *) packet;
 4453              		.loc 1 1286 5 is_stmt 1 view .LVU1463
 4454              	.LVL438:
1287:C:/Users/²Ü¼ÒºÀ/.iotlink/sdk/IoT_LINK/iot_link/network/lwm2m/wakaama_lwm2m/wakaama-master/core/er-coap-13\er-coap-13.c **** 
1288:C:/Users/²Ü¼ÒºÀ/.iotlink/sdk/IoT_LINK/iot_link/network/lwm2m/wakaama_lwm2m/wakaama-master/core/er-coap-13\er-coap-13.c ****     while (query[0] == '?') ++query;
 4455              		.loc 1 1288 5 view .LVU1464
 4456              	.L372:
 4457              		.loc 1 1288 5 is_stmt 0 view .LVU1465
 4458 0004 0846     		mov	r0, r1
 4459              	.LVL439:
 4460              		.loc 1 1288 11 is_stmt 1 discriminator 1 view .LVU1466
 4461 0006 0131     		adds	r1, r1, #1
 4462 0008 0378     		ldrb	r3, [r0]	@ zero_extendqisi2
 4463 000a 3F2B     		cmp	r3, #63
 4464 000c FAD0     		beq	.L372
1289:C:/Users/²Ü¼ÒºÀ/.iotlink/sdk/IoT_LINK/iot_link/network/lwm2m/wakaama_lwm2m/wakaama-master/core/er-coap-13\er-coap-13.c **** 
1290:C:/Users/²Ü¼ÒºÀ/.iotlink/sdk/IoT_LINK/iot_link/network/lwm2m/wakaama_lwm2m/wakaama-master/core/er-coap-13\er-coap-13.c ****     coap_pkt->location_query = (uint8_t *)query;
 4465              		.loc 1 1290 5 view .LVU1467
 4466              		.loc 1 1290 30 is_stmt 0 view .LVU1468
 4467 000e 2064     		str	r0, [r4, #64]
1291:C:/Users/²Ü¼ÒºÀ/.iotlink/sdk/IoT_LINK/iot_link/network/lwm2m/wakaama_lwm2m/wakaama-master/core/er-coap-13\er-coap-13.c ****     coap_pkt->location_query_len = strlen(query);
 4468              		.loc 1 1291 5 is_stmt 1 view .LVU1469
 4469              		.loc 1 1291 36 is_stmt 0 view .LVU1470
 4470 0010 FFF7FEFF 		bl	strlen
 4471              	.LVL440:
1292:C:/Users/²Ü¼ÒºÀ/.iotlink/sdk/IoT_LINK/iot_link/network/lwm2m/wakaama_lwm2m/wakaama-master/core/er-coap-13\er-coap-13.c **** 
1293:C:/Users/²Ü¼ÒºÀ/.iotlink/sdk/IoT_LINK/iot_link/network/lwm2m/wakaama_lwm2m/wakaama-master/core/er-coap-13\er-coap-13.c ****     SET_OPTION(coap_pkt, COAP_OPTION_LOCATION_QUERY);
 4472              		.loc 1 1293 5 view .LVU1471
 4473 0014 237B     		ldrb	r3, [r4, #12]	@ zero_extendqisi2
1291:C:/Users/²Ü¼ÒºÀ/.iotlink/sdk/IoT_LINK/iot_link/network/lwm2m/wakaama_lwm2m/wakaama-master/core/er-coap-13\er-coap-13.c ****     coap_pkt->location_query_len = strlen(query);
 4474              		.loc 1 1291 34 view .LVU1472
 4475 0016 E063     		str	r0, [r4, #60]
 4476              		.loc 1 1293 5 is_stmt 1 view .LVU1473
 4477              		.loc 1 1293 5 view .LVU1474
 4478 0018 43F01003 		orr	r3, r3, #16
 4479 001c 2373     		strb	r3, [r4, #12]
 4480              		.loc 1 1293 53 view .LVU1475
1294:C:/Users/²Ü¼ÒºÀ/.iotlink/sdk/IoT_LINK/iot_link/network/lwm2m/wakaama_lwm2m/wakaama-master/core/er-coap-13\er-coap-13.c ****     return coap_pkt->location_query_len;
 4481              		.loc 1 1294 5 view .LVU1476
1295:C:/Users/²Ü¼ÒºÀ/.iotlink/sdk/IoT_LINK/iot_link/network/lwm2m/wakaama_lwm2m/wakaama-master/core/er-coap-13\er-coap-13.c **** }
 4482              		.loc 1 1295 1 is_stmt 0 view .LVU1477
 4483 001e 10BD     		pop	{r4, pc}
 4484              		.loc 1 1295 1 view .LVU1478
 4485              		.cfi_endproc
 4486              	.LFE51:
 4488              		.section	.text.coap_get_header_observe,"ax",%progbits
 4489              		.align	1
 4490              		.global	coap_get_header_observe
ARM GAS  C:\Users\²Ü¼ÒºÀ\AppData\Local\Temp\cczrlpTg.s 			page 112


 4491              		.syntax unified
 4492              		.thumb
 4493              		.thumb_func
 4494              		.fpu fpv4-sp-d16
 4496              	coap_get_header_observe:
 4497              	.LVL441:
 4498              	.LFB52:
1296:C:/Users/²Ü¼ÒºÀ/.iotlink/sdk/IoT_LINK/iot_link/network/lwm2m/wakaama_lwm2m/wakaama-master/core/er-coap-13\er-coap-13.c **** /*-----------------------------------------------------------------------------------*/
1297:C:/Users/²Ü¼ÒºÀ/.iotlink/sdk/IoT_LINK/iot_link/network/lwm2m/wakaama_lwm2m/wakaama-master/core/er-coap-13\er-coap-13.c **** int
1298:C:/Users/²Ü¼ÒºÀ/.iotlink/sdk/IoT_LINK/iot_link/network/lwm2m/wakaama_lwm2m/wakaama-master/core/er-coap-13\er-coap-13.c **** coap_get_header_observe(void *packet, uint32_t *observe)
1299:C:/Users/²Ü¼ÒºÀ/.iotlink/sdk/IoT_LINK/iot_link/network/lwm2m/wakaama_lwm2m/wakaama-master/core/er-coap-13\er-coap-13.c **** {
 4499              		.loc 1 1299 1 is_stmt 1 view -0
 4500              		.cfi_startproc
 4501              		@ args = 0, pretend = 0, frame = 0
 4502              		@ frame_needed = 0, uses_anonymous_args = 0
 4503              		@ link register save eliminated.
1300:C:/Users/²Ü¼ÒºÀ/.iotlink/sdk/IoT_LINK/iot_link/network/lwm2m/wakaama_lwm2m/wakaama-master/core/er-coap-13\er-coap-13.c ****     coap_packet_t *const coap_pkt = (coap_packet_t *) packet;
 4504              		.loc 1 1300 5 view .LVU1480
1301:C:/Users/²Ü¼ÒºÀ/.iotlink/sdk/IoT_LINK/iot_link/network/lwm2m/wakaama_lwm2m/wakaama-master/core/er-coap-13\er-coap-13.c **** 
1302:C:/Users/²Ü¼ÒºÀ/.iotlink/sdk/IoT_LINK/iot_link/network/lwm2m/wakaama_lwm2m/wakaama-master/core/er-coap-13\er-coap-13.c ****     if (!IS_OPTION(coap_pkt, COAP_OPTION_OBSERVE)) return 0;
 4505              		.loc 1 1302 5 view .LVU1481
 4506              		.loc 1 1302 8 is_stmt 0 view .LVU1482
 4507 0000 837A     		ldrb	r3, [r0, #10]	@ zero_extendqisi2
 4508 0002 13F04003 		ands	r3, r3, #64
1303:C:/Users/²Ü¼ÒºÀ/.iotlink/sdk/IoT_LINK/iot_link/network/lwm2m/wakaama_lwm2m/wakaama-master/core/er-coap-13\er-coap-13.c **** 
1304:C:/Users/²Ü¼ÒºÀ/.iotlink/sdk/IoT_LINK/iot_link/network/lwm2m/wakaama_lwm2m/wakaama-master/core/er-coap-13\er-coap-13.c ****     *observe = coap_pkt->observe;
 4509              		.loc 1 1304 5 is_stmt 1 view .LVU1483
 4510              		.loc 1 1304 24 is_stmt 0 view .LVU1484
 4511 0006 1DBF     		ittte	ne
 4512 0008 836C     		ldrne	r3, [r0, #72]
 4513              		.loc 1 1304 14 view .LVU1485
 4514 000a 0B60     		strne	r3, [r1]
1305:C:/Users/²Ü¼ÒºÀ/.iotlink/sdk/IoT_LINK/iot_link/network/lwm2m/wakaama_lwm2m/wakaama-master/core/er-coap-13\er-coap-13.c ****     return 1;
 4515              		.loc 1 1305 5 is_stmt 1 view .LVU1486
 4516              		.loc 1 1305 12 is_stmt 0 view .LVU1487
 4517 000c 0120     		movne	r0, #1
 4518              	.LVL442:
1302:C:/Users/²Ü¼ÒºÀ/.iotlink/sdk/IoT_LINK/iot_link/network/lwm2m/wakaama_lwm2m/wakaama-master/core/er-coap-13\er-coap-13.c **** 
 4519              		.loc 1 1302 59 view .LVU1488
 4520 000e 1846     		moveq	r0, r3
1306:C:/Users/²Ü¼ÒºÀ/.iotlink/sdk/IoT_LINK/iot_link/network/lwm2m/wakaama_lwm2m/wakaama-master/core/er-coap-13\er-coap-13.c **** }
 4521              		.loc 1 1306 1 view .LVU1489
 4522 0010 7047     		bx	lr
 4523              		.cfi_endproc
 4524              	.LFE52:
 4526              		.section	.text.coap_set_header_observe,"ax",%progbits
 4527              		.align	1
 4528              		.global	coap_set_header_observe
 4529              		.syntax unified
 4530              		.thumb
 4531              		.thumb_func
 4532              		.fpu fpv4-sp-d16
 4534              	coap_set_header_observe:
 4535              	.LVL443:
 4536              	.LFB53:
1307:C:/Users/²Ü¼ÒºÀ/.iotlink/sdk/IoT_LINK/iot_link/network/lwm2m/wakaama_lwm2m/wakaama-master/core/er-coap-13\er-coap-13.c **** 
1308:C:/Users/²Ü¼ÒºÀ/.iotlink/sdk/IoT_LINK/iot_link/network/lwm2m/wakaama_lwm2m/wakaama-master/core/er-coap-13\er-coap-13.c **** int
ARM GAS  C:\Users\²Ü¼ÒºÀ\AppData\Local\Temp\cczrlpTg.s 			page 113


1309:C:/Users/²Ü¼ÒºÀ/.iotlink/sdk/IoT_LINK/iot_link/network/lwm2m/wakaama_lwm2m/wakaama-master/core/er-coap-13\er-coap-13.c **** coap_set_header_observe(void *packet, uint32_t observe)
1310:C:/Users/²Ü¼ÒºÀ/.iotlink/sdk/IoT_LINK/iot_link/network/lwm2m/wakaama_lwm2m/wakaama-master/core/er-coap-13\er-coap-13.c **** {
 4537              		.loc 1 1310 1 is_stmt 1 view -0
 4538              		.cfi_startproc
 4539              		@ args = 0, pretend = 0, frame = 0
 4540              		@ frame_needed = 0, uses_anonymous_args = 0
 4541              		@ link register save eliminated.
1311:C:/Users/²Ü¼ÒºÀ/.iotlink/sdk/IoT_LINK/iot_link/network/lwm2m/wakaama_lwm2m/wakaama-master/core/er-coap-13\er-coap-13.c ****     coap_packet_t *const coap_pkt = (coap_packet_t *) packet;
 4542              		.loc 1 1311 5 view .LVU1491
1312:C:/Users/²Ü¼ÒºÀ/.iotlink/sdk/IoT_LINK/iot_link/network/lwm2m/wakaama_lwm2m/wakaama-master/core/er-coap-13\er-coap-13.c **** 
1313:C:/Users/²Ü¼ÒºÀ/.iotlink/sdk/IoT_LINK/iot_link/network/lwm2m/wakaama_lwm2m/wakaama-master/core/er-coap-13\er-coap-13.c ****     coap_pkt->observe = 0x00FFFFFF & observe;
 4543              		.loc 1 1313 5 view .LVU1492
1314:C:/Users/²Ü¼ÒºÀ/.iotlink/sdk/IoT_LINK/iot_link/network/lwm2m/wakaama_lwm2m/wakaama-master/core/er-coap-13\er-coap-13.c ****     SET_OPTION(coap_pkt, COAP_OPTION_OBSERVE);
 4544              		.loc 1 1314 5 is_stmt 0 view .LVU1493
 4545 0000 837A     		ldrb	r3, [r0, #10]	@ zero_extendqisi2
1313:C:/Users/²Ü¼ÒºÀ/.iotlink/sdk/IoT_LINK/iot_link/network/lwm2m/wakaama_lwm2m/wakaama-master/core/er-coap-13\er-coap-13.c ****     SET_OPTION(coap_pkt, COAP_OPTION_OBSERVE);
 4546              		.loc 1 1313 36 view .LVU1494
 4547 0002 21F07F41 		bic	r1, r1, #-16777216
 4548              	.LVL444:
 4549              		.loc 1 1314 5 view .LVU1495
 4550 0006 43F04003 		orr	r3, r3, #64
1313:C:/Users/²Ü¼ÒºÀ/.iotlink/sdk/IoT_LINK/iot_link/network/lwm2m/wakaama_lwm2m/wakaama-master/core/er-coap-13\er-coap-13.c ****     SET_OPTION(coap_pkt, COAP_OPTION_OBSERVE);
 4551              		.loc 1 1313 23 view .LVU1496
 4552 000a 8164     		str	r1, [r0, #72]
 4553              		.loc 1 1314 5 is_stmt 1 view .LVU1497
 4554              		.loc 1 1314 5 view .LVU1498
 4555 000c 8372     		strb	r3, [r0, #10]
 4556              		.loc 1 1314 46 view .LVU1499
1315:C:/Users/²Ü¼ÒºÀ/.iotlink/sdk/IoT_LINK/iot_link/network/lwm2m/wakaama_lwm2m/wakaama-master/core/er-coap-13\er-coap-13.c ****     return 1;
 4557              		.loc 1 1315 5 view .LVU1500
1316:C:/Users/²Ü¼ÒºÀ/.iotlink/sdk/IoT_LINK/iot_link/network/lwm2m/wakaama_lwm2m/wakaama-master/core/er-coap-13\er-coap-13.c **** }
 4558              		.loc 1 1316 1 is_stmt 0 view .LVU1501
 4559 000e 0120     		movs	r0, #1
 4560              	.LVL445:
 4561              		.loc 1 1316 1 view .LVU1502
 4562 0010 7047     		bx	lr
 4563              		.cfi_endproc
 4564              	.LFE53:
 4566              		.section	.text.coap_get_header_block2,"ax",%progbits
 4567              		.align	1
 4568              		.global	coap_get_header_block2
 4569              		.syntax unified
 4570              		.thumb
 4571              		.thumb_func
 4572              		.fpu fpv4-sp-d16
 4574              	coap_get_header_block2:
 4575              	.LVL446:
 4576              	.LFB54:
1317:C:/Users/²Ü¼ÒºÀ/.iotlink/sdk/IoT_LINK/iot_link/network/lwm2m/wakaama_lwm2m/wakaama-master/core/er-coap-13\er-coap-13.c **** /*-----------------------------------------------------------------------------------*/
1318:C:/Users/²Ü¼ÒºÀ/.iotlink/sdk/IoT_LINK/iot_link/network/lwm2m/wakaama_lwm2m/wakaama-master/core/er-coap-13\er-coap-13.c **** int
1319:C:/Users/²Ü¼ÒºÀ/.iotlink/sdk/IoT_LINK/iot_link/network/lwm2m/wakaama_lwm2m/wakaama-master/core/er-coap-13\er-coap-13.c **** coap_get_header_block2(void *packet, uint32_t *num, uint8_t *more, uint16_t *size, uint32_t *offset
1320:C:/Users/²Ü¼ÒºÀ/.iotlink/sdk/IoT_LINK/iot_link/network/lwm2m/wakaama_lwm2m/wakaama-master/core/er-coap-13\er-coap-13.c **** {
 4577              		.loc 1 1320 1 is_stmt 1 view -0
 4578              		.cfi_startproc
 4579              		@ args = 4, pretend = 0, frame = 0
 4580              		@ frame_needed = 0, uses_anonymous_args = 0
1321:C:/Users/²Ü¼ÒºÀ/.iotlink/sdk/IoT_LINK/iot_link/network/lwm2m/wakaama_lwm2m/wakaama-master/core/er-coap-13\er-coap-13.c ****     coap_packet_t *const coap_pkt = (coap_packet_t *) packet;
ARM GAS  C:\Users\²Ü¼ÒºÀ\AppData\Local\Temp\cczrlpTg.s 			page 114


 4581              		.loc 1 1321 5 view .LVU1504
1322:C:/Users/²Ü¼ÒºÀ/.iotlink/sdk/IoT_LINK/iot_link/network/lwm2m/wakaama_lwm2m/wakaama-master/core/er-coap-13\er-coap-13.c **** 
1323:C:/Users/²Ü¼ÒºÀ/.iotlink/sdk/IoT_LINK/iot_link/network/lwm2m/wakaama_lwm2m/wakaama-master/core/er-coap-13\er-coap-13.c ****     if (!IS_OPTION(coap_pkt, COAP_OPTION_BLOCK2)) return 0;
 4582              		.loc 1 1323 5 view .LVU1505
1320:C:/Users/²Ü¼ÒºÀ/.iotlink/sdk/IoT_LINK/iot_link/network/lwm2m/wakaama_lwm2m/wakaama-master/core/er-coap-13\er-coap-13.c ****     coap_packet_t *const coap_pkt = (coap_packet_t *) packet;
 4583              		.loc 1 1320 1 is_stmt 0 view .LVU1506
 4584 0000 30B5     		push	{r4, r5, lr}
 4585              	.LCFI32:
 4586              		.cfi_def_cfa_offset 12
 4587              		.cfi_offset 4, -12
 4588              		.cfi_offset 5, -8
 4589              		.cfi_offset 14, -4
 4590              		.loc 1 1323 8 view .LVU1507
 4591 0002 90F90C50 		ldrsb	r5, [r0, #12]
1320:C:/Users/²Ü¼ÒºÀ/.iotlink/sdk/IoT_LINK/iot_link/network/lwm2m/wakaama_lwm2m/wakaama-master/core/er-coap-13\er-coap-13.c ****     coap_packet_t *const coap_pkt = (coap_packet_t *) packet;
 4592              		.loc 1 1320 1 view .LVU1508
 4593 0006 039C     		ldr	r4, [sp, #12]
 4594              		.loc 1 1323 8 view .LVU1509
 4595 0008 002D     		cmp	r5, #0
 4596 000a 0FDA     		bge	.L384
1324:C:/Users/²Ü¼ÒºÀ/.iotlink/sdk/IoT_LINK/iot_link/network/lwm2m/wakaama_lwm2m/wakaama-master/core/er-coap-13\er-coap-13.c **** 
1325:C:/Users/²Ü¼ÒºÀ/.iotlink/sdk/IoT_LINK/iot_link/network/lwm2m/wakaama_lwm2m/wakaama-master/core/er-coap-13\er-coap-13.c ****     /* pointers may be NULL to get only specific block parameters */
1326:C:/Users/²Ü¼ÒºÀ/.iotlink/sdk/IoT_LINK/iot_link/network/lwm2m/wakaama_lwm2m/wakaama-master/core/er-coap-13\er-coap-13.c ****     if (num != NULL) *num = coap_pkt->block2_num;
 4597              		.loc 1 1326 5 is_stmt 1 view .LVU1510
 4598              		.loc 1 1326 8 is_stmt 0 view .LVU1511
 4599 000c 09B1     		cbz	r1, .L381
 4600              		.loc 1 1326 22 is_stmt 1 discriminator 1 view .LVU1512
 4601              		.loc 1 1326 37 is_stmt 0 discriminator 1 view .LVU1513
 4602 000e 456E     		ldr	r5, [r0, #100]
 4603              		.loc 1 1326 27 discriminator 1 view .LVU1514
 4604 0010 0D60     		str	r5, [r1]
 4605              	.L381:
1327:C:/Users/²Ü¼ÒºÀ/.iotlink/sdk/IoT_LINK/iot_link/network/lwm2m/wakaama_lwm2m/wakaama-master/core/er-coap-13\er-coap-13.c ****     if (more != NULL) *more = coap_pkt->block2_more;
 4606              		.loc 1 1327 5 is_stmt 1 view .LVU1515
 4607              		.loc 1 1327 8 is_stmt 0 view .LVU1516
 4608 0012 12B1     		cbz	r2, .L382
 4609              		.loc 1 1327 23 is_stmt 1 discriminator 1 view .LVU1517
 4610              		.loc 1 1327 39 is_stmt 0 discriminator 1 view .LVU1518
 4611 0014 90F86810 		ldrb	r1, [r0, #104]	@ zero_extendqisi2
 4612              	.LVL447:
 4613              		.loc 1 1327 29 discriminator 1 view .LVU1519
 4614 0018 1170     		strb	r1, [r2]
 4615              	.L382:
1328:C:/Users/²Ü¼ÒºÀ/.iotlink/sdk/IoT_LINK/iot_link/network/lwm2m/wakaama_lwm2m/wakaama-master/core/er-coap-13\er-coap-13.c ****     if (size != NULL) *size = coap_pkt->block2_size;
 4616              		.loc 1 1328 5 is_stmt 1 view .LVU1520
 4617              		.loc 1 1328 8 is_stmt 0 view .LVU1521
 4618 001a 13B1     		cbz	r3, .L383
 4619              		.loc 1 1328 23 is_stmt 1 discriminator 1 view .LVU1522
 4620              		.loc 1 1328 39 is_stmt 0 discriminator 1 view .LVU1523
 4621 001c B0F86A20 		ldrh	r2, [r0, #106]
 4622              	.LVL448:
 4623              		.loc 1 1328 29 discriminator 1 view .LVU1524
 4624 0020 1A80     		strh	r2, [r3]	@ movhi
 4625              	.L383:
1329:C:/Users/²Ü¼ÒºÀ/.iotlink/sdk/IoT_LINK/iot_link/network/lwm2m/wakaama_lwm2m/wakaama-master/core/er-coap-13\er-coap-13.c ****     if (offset != NULL) *offset = coap_pkt->block2_offset;
 4626              		.loc 1 1329 5 is_stmt 1 view .LVU1525
 4627              		.loc 1 1329 8 is_stmt 0 view .LVU1526
ARM GAS  C:\Users\²Ü¼ÒºÀ\AppData\Local\Temp\cczrlpTg.s 			page 115


 4628 0022 0CB1     		cbz	r4, .L385
 4629              		.loc 1 1329 25 is_stmt 1 discriminator 1 view .LVU1527
 4630              		.loc 1 1329 43 is_stmt 0 discriminator 1 view .LVU1528
 4631 0024 C36E     		ldr	r3, [r0, #108]
 4632              	.LVL449:
 4633              		.loc 1 1329 33 discriminator 1 view .LVU1529
 4634 0026 2360     		str	r3, [r4]
 4635              	.L385:
1330:C:/Users/²Ü¼ÒºÀ/.iotlink/sdk/IoT_LINK/iot_link/network/lwm2m/wakaama_lwm2m/wakaama-master/core/er-coap-13\er-coap-13.c **** 
1331:C:/Users/²Ü¼ÒºÀ/.iotlink/sdk/IoT_LINK/iot_link/network/lwm2m/wakaama_lwm2m/wakaama-master/core/er-coap-13\er-coap-13.c ****     return 1;
 4636              		.loc 1 1331 12 view .LVU1530
 4637 0028 0120     		movs	r0, #1
 4638              	.LVL450:
 4639              		.loc 1 1331 12 view .LVU1531
 4640 002a 00E0     		b	.L379
 4641              	.LVL451:
 4642              	.L384:
1323:C:/Users/²Ü¼ÒºÀ/.iotlink/sdk/IoT_LINK/iot_link/network/lwm2m/wakaama_lwm2m/wakaama-master/core/er-coap-13\er-coap-13.c **** 
 4643              		.loc 1 1323 58 view .LVU1532
 4644 002c 0020     		movs	r0, #0
 4645              	.LVL452:
 4646              	.L379:
1332:C:/Users/²Ü¼ÒºÀ/.iotlink/sdk/IoT_LINK/iot_link/network/lwm2m/wakaama_lwm2m/wakaama-master/core/er-coap-13\er-coap-13.c **** }
 4647              		.loc 1 1332 1 view .LVU1533
 4648 002e 30BD     		pop	{r4, r5, pc}
 4649              		.loc 1 1332 1 view .LVU1534
 4650              		.cfi_endproc
 4651              	.LFE54:
 4653              		.section	.text.coap_set_header_block2,"ax",%progbits
 4654              		.align	1
 4655              		.global	coap_set_header_block2
 4656              		.syntax unified
 4657              		.thumb
 4658              		.thumb_func
 4659              		.fpu fpv4-sp-d16
 4661              	coap_set_header_block2:
 4662              	.LVL453:
 4663              	.LFB55:
1333:C:/Users/²Ü¼ÒºÀ/.iotlink/sdk/IoT_LINK/iot_link/network/lwm2m/wakaama_lwm2m/wakaama-master/core/er-coap-13\er-coap-13.c **** 
1334:C:/Users/²Ü¼ÒºÀ/.iotlink/sdk/IoT_LINK/iot_link/network/lwm2m/wakaama_lwm2m/wakaama-master/core/er-coap-13\er-coap-13.c **** int
1335:C:/Users/²Ü¼ÒºÀ/.iotlink/sdk/IoT_LINK/iot_link/network/lwm2m/wakaama_lwm2m/wakaama-master/core/er-coap-13\er-coap-13.c **** coap_set_header_block2(void *packet, uint32_t num, uint8_t more, uint16_t size)
1336:C:/Users/²Ü¼ÒºÀ/.iotlink/sdk/IoT_LINK/iot_link/network/lwm2m/wakaama_lwm2m/wakaama-master/core/er-coap-13\er-coap-13.c **** {
 4664              		.loc 1 1336 1 is_stmt 1 view -0
 4665              		.cfi_startproc
 4666              		@ args = 0, pretend = 0, frame = 0
 4667              		@ frame_needed = 0, uses_anonymous_args = 0
1337:C:/Users/²Ü¼ÒºÀ/.iotlink/sdk/IoT_LINK/iot_link/network/lwm2m/wakaama_lwm2m/wakaama-master/core/er-coap-13\er-coap-13.c ****     coap_packet_t *const coap_pkt = (coap_packet_t *) packet;
 4668              		.loc 1 1337 5 view .LVU1536
1338:C:/Users/²Ü¼ÒºÀ/.iotlink/sdk/IoT_LINK/iot_link/network/lwm2m/wakaama_lwm2m/wakaama-master/core/er-coap-13\er-coap-13.c **** 
1339:C:/Users/²Ü¼ÒºÀ/.iotlink/sdk/IoT_LINK/iot_link/network/lwm2m/wakaama_lwm2m/wakaama-master/core/er-coap-13\er-coap-13.c ****     if (size < 16) return 0;
 4669              		.loc 1 1339 5 view .LVU1537
1336:C:/Users/²Ü¼ÒºÀ/.iotlink/sdk/IoT_LINK/iot_link/network/lwm2m/wakaama_lwm2m/wakaama-master/core/er-coap-13\er-coap-13.c ****     coap_packet_t *const coap_pkt = (coap_packet_t *) packet;
 4670              		.loc 1 1336 1 is_stmt 0 view .LVU1538
 4671 0000 10B5     		push	{r4, lr}
 4672              	.LCFI33:
 4673              		.cfi_def_cfa_offset 8
 4674              		.cfi_offset 4, -8
ARM GAS  C:\Users\²Ü¼ÒºÀ\AppData\Local\Temp\cczrlpTg.s 			page 116


 4675              		.cfi_offset 14, -4
 4676              		.loc 1 1339 8 view .LVU1539
 4677 0002 A3F11004 		sub	r4, r3, #16
 4678 0006 B4F5FE6F 		cmp	r4, #2032
 4679 000a 10D8     		bhi	.L398
1340:C:/Users/²Ü¼ÒºÀ/.iotlink/sdk/IoT_LINK/iot_link/network/lwm2m/wakaama_lwm2m/wakaama-master/core/er-coap-13\er-coap-13.c ****     if (size > 2048) return 0;
 4680              		.loc 1 1340 5 is_stmt 1 view .LVU1540
1341:C:/Users/²Ü¼ÒºÀ/.iotlink/sdk/IoT_LINK/iot_link/network/lwm2m/wakaama_lwm2m/wakaama-master/core/er-coap-13\er-coap-13.c ****     if (num > 0x0FFFFF) return 0;
 4681              		.loc 1 1341 5 view .LVU1541
 4682              		.loc 1 1341 8 is_stmt 0 view .LVU1542
 4683 000c B1F5801F 		cmp	r1, #1048576
 4684 0010 0DD2     		bcs	.L398
1342:C:/Users/²Ü¼ÒºÀ/.iotlink/sdk/IoT_LINK/iot_link/network/lwm2m/wakaama_lwm2m/wakaama-master/core/er-coap-13\er-coap-13.c **** 
1343:C:/Users/²Ü¼ÒºÀ/.iotlink/sdk/IoT_LINK/iot_link/network/lwm2m/wakaama_lwm2m/wakaama-master/core/er-coap-13\er-coap-13.c ****     coap_pkt->block2_num = num;
 4685              		.loc 1 1343 5 is_stmt 1 view .LVU1543
1344:C:/Users/²Ü¼ÒºÀ/.iotlink/sdk/IoT_LINK/iot_link/network/lwm2m/wakaama_lwm2m/wakaama-master/core/er-coap-13\er-coap-13.c ****     coap_pkt->block2_more = more ? 1 : 0;
1345:C:/Users/²Ü¼ÒºÀ/.iotlink/sdk/IoT_LINK/iot_link/network/lwm2m/wakaama_lwm2m/wakaama-master/core/er-coap-13\er-coap-13.c ****     coap_pkt->block2_size = size;
 4686              		.loc 1 1345 27 is_stmt 0 view .LVU1544
 4687 0012 A0F86A30 		strh	r3, [r0, #106]	@ movhi
1346:C:/Users/²Ü¼ÒºÀ/.iotlink/sdk/IoT_LINK/iot_link/network/lwm2m/wakaama_lwm2m/wakaama-master/core/er-coap-13\er-coap-13.c **** 
1347:C:/Users/²Ü¼ÒºÀ/.iotlink/sdk/IoT_LINK/iot_link/network/lwm2m/wakaama_lwm2m/wakaama-master/core/er-coap-13\er-coap-13.c ****     SET_OPTION(coap_pkt, COAP_OPTION_BLOCK2);
 4688              		.loc 1 1347 5 view .LVU1545
 4689 0016 037B     		ldrb	r3, [r0, #12]	@ zero_extendqisi2
 4690              	.LVL454:
1343:C:/Users/²Ü¼ÒºÀ/.iotlink/sdk/IoT_LINK/iot_link/network/lwm2m/wakaama_lwm2m/wakaama-master/core/er-coap-13\er-coap-13.c ****     coap_pkt->block2_more = more ? 1 : 0;
 4691              		.loc 1 1343 26 view .LVU1546
 4692 0018 4166     		str	r1, [r0, #100]
1344:C:/Users/²Ü¼ÒºÀ/.iotlink/sdk/IoT_LINK/iot_link/network/lwm2m/wakaama_lwm2m/wakaama-master/core/er-coap-13\er-coap-13.c ****     coap_pkt->block2_more = more ? 1 : 0;
 4693              		.loc 1 1344 5 is_stmt 1 view .LVU1547
1344:C:/Users/²Ü¼ÒºÀ/.iotlink/sdk/IoT_LINK/iot_link/network/lwm2m/wakaama_lwm2m/wakaama-master/core/er-coap-13\er-coap-13.c ****     coap_pkt->block2_more = more ? 1 : 0;
 4694              		.loc 1 1344 38 is_stmt 0 view .LVU1548
 4695 001a 003A     		subs	r2, r2, #0
 4696              	.LVL455:
1344:C:/Users/²Ü¼ÒºÀ/.iotlink/sdk/IoT_LINK/iot_link/network/lwm2m/wakaama_lwm2m/wakaama-master/core/er-coap-13\er-coap-13.c ****     coap_pkt->block2_more = more ? 1 : 0;
 4697              		.loc 1 1344 38 view .LVU1549
 4698 001c 18BF     		it	ne
 4699 001e 0122     		movne	r2, #1
 4700              		.loc 1 1347 5 view .LVU1550
 4701 0020 63F07F03 		orn	r3, r3, #127
1344:C:/Users/²Ü¼ÒºÀ/.iotlink/sdk/IoT_LINK/iot_link/network/lwm2m/wakaama_lwm2m/wakaama-master/core/er-coap-13\er-coap-13.c ****     coap_pkt->block2_more = more ? 1 : 0;
 4702              		.loc 1 1344 38 view .LVU1551
 4703 0024 80F86820 		strb	r2, [r0, #104]
1345:C:/Users/²Ü¼ÒºÀ/.iotlink/sdk/IoT_LINK/iot_link/network/lwm2m/wakaama_lwm2m/wakaama-master/core/er-coap-13\er-coap-13.c **** 
 4704              		.loc 1 1345 5 is_stmt 1 view .LVU1552
 4705              		.loc 1 1347 5 view .LVU1553
 4706              		.loc 1 1347 5 view .LVU1554
 4707 0028 0373     		strb	r3, [r0, #12]
 4708              		.loc 1 1347 45 view .LVU1555
1348:C:/Users/²Ü¼ÒºÀ/.iotlink/sdk/IoT_LINK/iot_link/network/lwm2m/wakaama_lwm2m/wakaama-master/core/er-coap-13\er-coap-13.c ****     return 1;
 4709              		.loc 1 1348 5 view .LVU1556
 4710              		.loc 1 1348 12 is_stmt 0 view .LVU1557
 4711 002a 0120     		movs	r0, #1
 4712              	.LVL456:
 4713              	.L395:
1349:C:/Users/²Ü¼ÒºÀ/.iotlink/sdk/IoT_LINK/iot_link/network/lwm2m/wakaama_lwm2m/wakaama-master/core/er-coap-13\er-coap-13.c **** }
 4714              		.loc 1 1349 1 view .LVU1558
 4715 002c 10BD     		pop	{r4, pc}
ARM GAS  C:\Users\²Ü¼ÒºÀ\AppData\Local\Temp\cczrlpTg.s 			page 117


 4716              	.LVL457:
 4717              	.L398:
1339:C:/Users/²Ü¼ÒºÀ/.iotlink/sdk/IoT_LINK/iot_link/network/lwm2m/wakaama_lwm2m/wakaama-master/core/er-coap-13\er-coap-13.c ****     if (size > 2048) return 0;
 4718              		.loc 1 1339 27 view .LVU1559
 4719 002e 0020     		movs	r0, #0
 4720              	.LVL458:
1339:C:/Users/²Ü¼ÒºÀ/.iotlink/sdk/IoT_LINK/iot_link/network/lwm2m/wakaama_lwm2m/wakaama-master/core/er-coap-13\er-coap-13.c ****     if (size > 2048) return 0;
 4721              		.loc 1 1339 27 view .LVU1560
 4722 0030 FCE7     		b	.L395
 4723              		.cfi_endproc
 4724              	.LFE55:
 4726              		.section	.text.coap_get_header_block1,"ax",%progbits
 4727              		.align	1
 4728              		.global	coap_get_header_block1
 4729              		.syntax unified
 4730              		.thumb
 4731              		.thumb_func
 4732              		.fpu fpv4-sp-d16
 4734              	coap_get_header_block1:
 4735              	.LVL459:
 4736              	.LFB56:
1350:C:/Users/²Ü¼ÒºÀ/.iotlink/sdk/IoT_LINK/iot_link/network/lwm2m/wakaama_lwm2m/wakaama-master/core/er-coap-13\er-coap-13.c **** /*-----------------------------------------------------------------------------------*/
1351:C:/Users/²Ü¼ÒºÀ/.iotlink/sdk/IoT_LINK/iot_link/network/lwm2m/wakaama_lwm2m/wakaama-master/core/er-coap-13\er-coap-13.c **** int
1352:C:/Users/²Ü¼ÒºÀ/.iotlink/sdk/IoT_LINK/iot_link/network/lwm2m/wakaama_lwm2m/wakaama-master/core/er-coap-13\er-coap-13.c **** coap_get_header_block1(void *packet, uint32_t *num, uint8_t *more, uint16_t *size, uint32_t *offset
1353:C:/Users/²Ü¼ÒºÀ/.iotlink/sdk/IoT_LINK/iot_link/network/lwm2m/wakaama_lwm2m/wakaama-master/core/er-coap-13\er-coap-13.c **** {
 4737              		.loc 1 1353 1 is_stmt 1 view -0
 4738              		.cfi_startproc
 4739              		@ args = 4, pretend = 0, frame = 0
 4740              		@ frame_needed = 0, uses_anonymous_args = 0
1354:C:/Users/²Ü¼ÒºÀ/.iotlink/sdk/IoT_LINK/iot_link/network/lwm2m/wakaama_lwm2m/wakaama-master/core/er-coap-13\er-coap-13.c ****     coap_packet_t *const coap_pkt = (coap_packet_t *) packet;
 4741              		.loc 1 1354 5 view .LVU1562
1355:C:/Users/²Ü¼ÒºÀ/.iotlink/sdk/IoT_LINK/iot_link/network/lwm2m/wakaama_lwm2m/wakaama-master/core/er-coap-13\er-coap-13.c **** 
1356:C:/Users/²Ü¼ÒºÀ/.iotlink/sdk/IoT_LINK/iot_link/network/lwm2m/wakaama_lwm2m/wakaama-master/core/er-coap-13\er-coap-13.c ****     if (!IS_OPTION(coap_pkt, COAP_OPTION_BLOCK1)) return 0;
 4742              		.loc 1 1356 5 view .LVU1563
1353:C:/Users/²Ü¼ÒºÀ/.iotlink/sdk/IoT_LINK/iot_link/network/lwm2m/wakaama_lwm2m/wakaama-master/core/er-coap-13\er-coap-13.c ****     coap_packet_t *const coap_pkt = (coap_packet_t *) packet;
 4743              		.loc 1 1353 1 is_stmt 0 view .LVU1564
 4744 0000 30B5     		push	{r4, r5, lr}
 4745              	.LCFI34:
 4746              		.cfi_def_cfa_offset 12
 4747              		.cfi_offset 4, -12
 4748              		.cfi_offset 5, -8
 4749              		.cfi_offset 14, -4
 4750              		.loc 1 1356 8 view .LVU1565
 4751 0002 447B     		ldrb	r4, [r0, #13]	@ zero_extendqisi2
1353:C:/Users/²Ü¼ÒºÀ/.iotlink/sdk/IoT_LINK/iot_link/network/lwm2m/wakaama_lwm2m/wakaama-master/core/er-coap-13\er-coap-13.c ****     coap_packet_t *const coap_pkt = (coap_packet_t *) packet;
 4752              		.loc 1 1353 1 view .LVU1566
 4753 0004 039D     		ldr	r5, [sp, #12]
 4754              		.loc 1 1356 8 view .LVU1567
 4755 0006 14F00804 		ands	r4, r4, #8
 4756 000a 0FD0     		beq	.L404
1357:C:/Users/²Ü¼ÒºÀ/.iotlink/sdk/IoT_LINK/iot_link/network/lwm2m/wakaama_lwm2m/wakaama-master/core/er-coap-13\er-coap-13.c **** 
1358:C:/Users/²Ü¼ÒºÀ/.iotlink/sdk/IoT_LINK/iot_link/network/lwm2m/wakaama_lwm2m/wakaama-master/core/er-coap-13\er-coap-13.c ****     /* pointers may be NULL to get only specific block parameters */
1359:C:/Users/²Ü¼ÒºÀ/.iotlink/sdk/IoT_LINK/iot_link/network/lwm2m/wakaama_lwm2m/wakaama-master/core/er-coap-13\er-coap-13.c ****     if (num != NULL) *num = coap_pkt->block1_num;
 4757              		.loc 1 1359 5 is_stmt 1 view .LVU1568
 4758              		.loc 1 1359 8 is_stmt 0 view .LVU1569
 4759 000c 09B1     		cbz	r1, .L401
 4760              		.loc 1 1359 22 is_stmt 1 discriminator 1 view .LVU1570
ARM GAS  C:\Users\²Ü¼ÒºÀ\AppData\Local\Temp\cczrlpTg.s 			page 118


 4761              		.loc 1 1359 37 is_stmt 0 discriminator 1 view .LVU1571
 4762 000e 046F     		ldr	r4, [r0, #112]
 4763              		.loc 1 1359 27 discriminator 1 view .LVU1572
 4764 0010 0C60     		str	r4, [r1]
 4765              	.L401:
1360:C:/Users/²Ü¼ÒºÀ/.iotlink/sdk/IoT_LINK/iot_link/network/lwm2m/wakaama_lwm2m/wakaama-master/core/er-coap-13\er-coap-13.c ****     if (more != NULL) *more = coap_pkt->block1_more;
 4766              		.loc 1 1360 5 is_stmt 1 view .LVU1573
 4767              		.loc 1 1360 8 is_stmt 0 view .LVU1574
 4768 0012 12B1     		cbz	r2, .L402
 4769              		.loc 1 1360 23 is_stmt 1 discriminator 1 view .LVU1575
 4770              		.loc 1 1360 39 is_stmt 0 discriminator 1 view .LVU1576
 4771 0014 90F87410 		ldrb	r1, [r0, #116]	@ zero_extendqisi2
 4772              	.LVL460:
 4773              		.loc 1 1360 29 discriminator 1 view .LVU1577
 4774 0018 1170     		strb	r1, [r2]
 4775              	.L402:
1361:C:/Users/²Ü¼ÒºÀ/.iotlink/sdk/IoT_LINK/iot_link/network/lwm2m/wakaama_lwm2m/wakaama-master/core/er-coap-13\er-coap-13.c ****     if (size != NULL) *size = coap_pkt->block1_size;
 4776              		.loc 1 1361 5 is_stmt 1 view .LVU1578
 4777              		.loc 1 1361 8 is_stmt 0 view .LVU1579
 4778 001a 13B1     		cbz	r3, .L403
 4779              		.loc 1 1361 23 is_stmt 1 discriminator 1 view .LVU1580
 4780              		.loc 1 1361 39 is_stmt 0 discriminator 1 view .LVU1581
 4781 001c B0F87620 		ldrh	r2, [r0, #118]
 4782              	.LVL461:
 4783              		.loc 1 1361 29 discriminator 1 view .LVU1582
 4784 0020 1A80     		strh	r2, [r3]	@ movhi
 4785              	.L403:
1362:C:/Users/²Ü¼ÒºÀ/.iotlink/sdk/IoT_LINK/iot_link/network/lwm2m/wakaama_lwm2m/wakaama-master/core/er-coap-13\er-coap-13.c ****     if (offset != NULL) *offset = coap_pkt->block1_offset;
 4786              		.loc 1 1362 5 is_stmt 1 view .LVU1583
 4787              		.loc 1 1362 8 is_stmt 0 view .LVU1584
 4788 0022 0DB1     		cbz	r5, .L405
 4789              		.loc 1 1362 25 is_stmt 1 discriminator 1 view .LVU1585
 4790              		.loc 1 1362 43 is_stmt 0 discriminator 1 view .LVU1586
 4791 0024 836F     		ldr	r3, [r0, #120]
 4792              	.LVL462:
 4793              		.loc 1 1362 33 discriminator 1 view .LVU1587
 4794 0026 2B60     		str	r3, [r5]
 4795              	.L405:
1363:C:/Users/²Ü¼ÒºÀ/.iotlink/sdk/IoT_LINK/iot_link/network/lwm2m/wakaama_lwm2m/wakaama-master/core/er-coap-13\er-coap-13.c **** 
1364:C:/Users/²Ü¼ÒºÀ/.iotlink/sdk/IoT_LINK/iot_link/network/lwm2m/wakaama_lwm2m/wakaama-master/core/er-coap-13\er-coap-13.c ****     return 1;
 4796              		.loc 1 1364 12 view .LVU1588
 4797 0028 0120     		movs	r0, #1
 4798              	.LVL463:
 4799              		.loc 1 1364 12 view .LVU1589
 4800 002a 00E0     		b	.L399
 4801              	.LVL464:
 4802              	.L404:
1356:C:/Users/²Ü¼ÒºÀ/.iotlink/sdk/IoT_LINK/iot_link/network/lwm2m/wakaama_lwm2m/wakaama-master/core/er-coap-13\er-coap-13.c **** 
 4803              		.loc 1 1356 58 view .LVU1590
 4804 002c 2046     		mov	r0, r4
 4805              	.LVL465:
 4806              	.L399:
1365:C:/Users/²Ü¼ÒºÀ/.iotlink/sdk/IoT_LINK/iot_link/network/lwm2m/wakaama_lwm2m/wakaama-master/core/er-coap-13\er-coap-13.c **** }
 4807              		.loc 1 1365 1 view .LVU1591
 4808 002e 30BD     		pop	{r4, r5, pc}
 4809              		.loc 1 1365 1 view .LVU1592
 4810              		.cfi_endproc
ARM GAS  C:\Users\²Ü¼ÒºÀ\AppData\Local\Temp\cczrlpTg.s 			page 119


 4811              	.LFE56:
 4813              		.section	.text.coap_set_header_block1,"ax",%progbits
 4814              		.align	1
 4815              		.global	coap_set_header_block1
 4816              		.syntax unified
 4817              		.thumb
 4818              		.thumb_func
 4819              		.fpu fpv4-sp-d16
 4821              	coap_set_header_block1:
 4822              	.LVL466:
 4823              	.LFB57:
1366:C:/Users/²Ü¼ÒºÀ/.iotlink/sdk/IoT_LINK/iot_link/network/lwm2m/wakaama_lwm2m/wakaama-master/core/er-coap-13\er-coap-13.c **** 
1367:C:/Users/²Ü¼ÒºÀ/.iotlink/sdk/IoT_LINK/iot_link/network/lwm2m/wakaama_lwm2m/wakaama-master/core/er-coap-13\er-coap-13.c **** int
1368:C:/Users/²Ü¼ÒºÀ/.iotlink/sdk/IoT_LINK/iot_link/network/lwm2m/wakaama_lwm2m/wakaama-master/core/er-coap-13\er-coap-13.c **** coap_set_header_block1(void *packet, uint32_t num, uint8_t more, uint16_t size)
1369:C:/Users/²Ü¼ÒºÀ/.iotlink/sdk/IoT_LINK/iot_link/network/lwm2m/wakaama_lwm2m/wakaama-master/core/er-coap-13\er-coap-13.c **** {
 4824              		.loc 1 1369 1 is_stmt 1 view -0
 4825              		.cfi_startproc
 4826              		@ args = 0, pretend = 0, frame = 0
 4827              		@ frame_needed = 0, uses_anonymous_args = 0
1370:C:/Users/²Ü¼ÒºÀ/.iotlink/sdk/IoT_LINK/iot_link/network/lwm2m/wakaama_lwm2m/wakaama-master/core/er-coap-13\er-coap-13.c ****     coap_packet_t *const coap_pkt = (coap_packet_t *) packet;
 4828              		.loc 1 1370 5 view .LVU1594
1371:C:/Users/²Ü¼ÒºÀ/.iotlink/sdk/IoT_LINK/iot_link/network/lwm2m/wakaama_lwm2m/wakaama-master/core/er-coap-13\er-coap-13.c **** 
1372:C:/Users/²Ü¼ÒºÀ/.iotlink/sdk/IoT_LINK/iot_link/network/lwm2m/wakaama_lwm2m/wakaama-master/core/er-coap-13\er-coap-13.c ****     if (size < 16) return 0;
 4829              		.loc 1 1372 5 view .LVU1595
1369:C:/Users/²Ü¼ÒºÀ/.iotlink/sdk/IoT_LINK/iot_link/network/lwm2m/wakaama_lwm2m/wakaama-master/core/er-coap-13\er-coap-13.c ****     coap_packet_t *const coap_pkt = (coap_packet_t *) packet;
 4830              		.loc 1 1369 1 is_stmt 0 view .LVU1596
 4831 0000 10B5     		push	{r4, lr}
 4832              	.LCFI35:
 4833              		.cfi_def_cfa_offset 8
 4834              		.cfi_offset 4, -8
 4835              		.cfi_offset 14, -4
 4836              		.loc 1 1372 8 view .LVU1597
 4837 0002 A3F11004 		sub	r4, r3, #16
 4838 0006 B4F5FE6F 		cmp	r4, #2032
 4839 000a 0DD8     		bhi	.L418
1373:C:/Users/²Ü¼ÒºÀ/.iotlink/sdk/IoT_LINK/iot_link/network/lwm2m/wakaama_lwm2m/wakaama-master/core/er-coap-13\er-coap-13.c ****     if (size > 2048) return 0;
 4840              		.loc 1 1373 5 is_stmt 1 view .LVU1598
1374:C:/Users/²Ü¼ÒºÀ/.iotlink/sdk/IoT_LINK/iot_link/network/lwm2m/wakaama_lwm2m/wakaama-master/core/er-coap-13\er-coap-13.c ****     if (num > 0x0FFFFF) return 0;
 4841              		.loc 1 1374 5 view .LVU1599
 4842              		.loc 1 1374 8 is_stmt 0 view .LVU1600
 4843 000c B1F5801F 		cmp	r1, #1048576
 4844 0010 0AD2     		bcs	.L418
1375:C:/Users/²Ü¼ÒºÀ/.iotlink/sdk/IoT_LINK/iot_link/network/lwm2m/wakaama_lwm2m/wakaama-master/core/er-coap-13\er-coap-13.c **** 
1376:C:/Users/²Ü¼ÒºÀ/.iotlink/sdk/IoT_LINK/iot_link/network/lwm2m/wakaama_lwm2m/wakaama-master/core/er-coap-13\er-coap-13.c ****     coap_pkt->block1_num = num;
 4845              		.loc 1 1376 5 is_stmt 1 view .LVU1601
1377:C:/Users/²Ü¼ÒºÀ/.iotlink/sdk/IoT_LINK/iot_link/network/lwm2m/wakaama_lwm2m/wakaama-master/core/er-coap-13\er-coap-13.c ****     coap_pkt->block1_more = more;
1378:C:/Users/²Ü¼ÒºÀ/.iotlink/sdk/IoT_LINK/iot_link/network/lwm2m/wakaama_lwm2m/wakaama-master/core/er-coap-13\er-coap-13.c ****     coap_pkt->block1_size = size;
 4846              		.loc 1 1378 27 is_stmt 0 view .LVU1602
 4847 0012 A0F87630 		strh	r3, [r0, #118]	@ movhi
1379:C:/Users/²Ü¼ÒºÀ/.iotlink/sdk/IoT_LINK/iot_link/network/lwm2m/wakaama_lwm2m/wakaama-master/core/er-coap-13\er-coap-13.c **** 
1380:C:/Users/²Ü¼ÒºÀ/.iotlink/sdk/IoT_LINK/iot_link/network/lwm2m/wakaama_lwm2m/wakaama-master/core/er-coap-13\er-coap-13.c ****     SET_OPTION(coap_pkt, COAP_OPTION_BLOCK1);
 4848              		.loc 1 1380 5 view .LVU1603
 4849 0016 437B     		ldrb	r3, [r0, #13]	@ zero_extendqisi2
 4850              	.LVL467:
1376:C:/Users/²Ü¼ÒºÀ/.iotlink/sdk/IoT_LINK/iot_link/network/lwm2m/wakaama_lwm2m/wakaama-master/core/er-coap-13\er-coap-13.c ****     coap_pkt->block1_more = more;
 4851              		.loc 1 1376 26 view .LVU1604
 4852 0018 0167     		str	r1, [r0, #112]
ARM GAS  C:\Users\²Ü¼ÒºÀ\AppData\Local\Temp\cczrlpTg.s 			page 120


1377:C:/Users/²Ü¼ÒºÀ/.iotlink/sdk/IoT_LINK/iot_link/network/lwm2m/wakaama_lwm2m/wakaama-master/core/er-coap-13\er-coap-13.c ****     coap_pkt->block1_more = more;
 4853              		.loc 1 1377 5 is_stmt 1 view .LVU1605
 4854              		.loc 1 1380 5 is_stmt 0 view .LVU1606
 4855 001a 43F00803 		orr	r3, r3, #8
1377:C:/Users/²Ü¼ÒºÀ/.iotlink/sdk/IoT_LINK/iot_link/network/lwm2m/wakaama_lwm2m/wakaama-master/core/er-coap-13\er-coap-13.c ****     coap_pkt->block1_more = more;
 4856              		.loc 1 1377 27 view .LVU1607
 4857 001e 80F87420 		strb	r2, [r0, #116]
1378:C:/Users/²Ü¼ÒºÀ/.iotlink/sdk/IoT_LINK/iot_link/network/lwm2m/wakaama_lwm2m/wakaama-master/core/er-coap-13\er-coap-13.c **** 
 4858              		.loc 1 1378 5 is_stmt 1 view .LVU1608
 4859              		.loc 1 1380 5 view .LVU1609
 4860              		.loc 1 1380 5 view .LVU1610
 4861 0022 4373     		strb	r3, [r0, #13]
 4862              		.loc 1 1380 45 view .LVU1611
1381:C:/Users/²Ü¼ÒºÀ/.iotlink/sdk/IoT_LINK/iot_link/network/lwm2m/wakaama_lwm2m/wakaama-master/core/er-coap-13\er-coap-13.c ****     return 1;
 4863              		.loc 1 1381 5 view .LVU1612
 4864              		.loc 1 1381 12 is_stmt 0 view .LVU1613
 4865 0024 0120     		movs	r0, #1
 4866              	.LVL468:
 4867              	.L415:
1382:C:/Users/²Ü¼ÒºÀ/.iotlink/sdk/IoT_LINK/iot_link/network/lwm2m/wakaama_lwm2m/wakaama-master/core/er-coap-13\er-coap-13.c **** }
 4868              		.loc 1 1382 1 view .LVU1614
 4869 0026 10BD     		pop	{r4, pc}
 4870              	.LVL469:
 4871              	.L418:
1372:C:/Users/²Ü¼ÒºÀ/.iotlink/sdk/IoT_LINK/iot_link/network/lwm2m/wakaama_lwm2m/wakaama-master/core/er-coap-13\er-coap-13.c ****     if (size > 2048) return 0;
 4872              		.loc 1 1372 27 view .LVU1615
 4873 0028 0020     		movs	r0, #0
 4874              	.LVL470:
1372:C:/Users/²Ü¼ÒºÀ/.iotlink/sdk/IoT_LINK/iot_link/network/lwm2m/wakaama_lwm2m/wakaama-master/core/er-coap-13\er-coap-13.c ****     if (size > 2048) return 0;
 4875              		.loc 1 1372 27 view .LVU1616
 4876 002a FCE7     		b	.L415
 4877              		.cfi_endproc
 4878              	.LFE57:
 4880              		.section	.text.coap_get_header_size,"ax",%progbits
 4881              		.align	1
 4882              		.global	coap_get_header_size
 4883              		.syntax unified
 4884              		.thumb
 4885              		.thumb_func
 4886              		.fpu fpv4-sp-d16
 4888              	coap_get_header_size:
 4889              	.LVL471:
 4890              	.LFB58:
1383:C:/Users/²Ü¼ÒºÀ/.iotlink/sdk/IoT_LINK/iot_link/network/lwm2m/wakaama_lwm2m/wakaama-master/core/er-coap-13\er-coap-13.c **** /*-----------------------------------------------------------------------------------*/
1384:C:/Users/²Ü¼ÒºÀ/.iotlink/sdk/IoT_LINK/iot_link/network/lwm2m/wakaama_lwm2m/wakaama-master/core/er-coap-13\er-coap-13.c **** int
1385:C:/Users/²Ü¼ÒºÀ/.iotlink/sdk/IoT_LINK/iot_link/network/lwm2m/wakaama_lwm2m/wakaama-master/core/er-coap-13\er-coap-13.c **** coap_get_header_size(void *packet, uint32_t *size)
1386:C:/Users/²Ü¼ÒºÀ/.iotlink/sdk/IoT_LINK/iot_link/network/lwm2m/wakaama_lwm2m/wakaama-master/core/er-coap-13\er-coap-13.c **** {
 4891              		.loc 1 1386 1 is_stmt 1 view -0
 4892              		.cfi_startproc
 4893              		@ args = 0, pretend = 0, frame = 0
 4894              		@ frame_needed = 0, uses_anonymous_args = 0
 4895              		@ link register save eliminated.
1387:C:/Users/²Ü¼ÒºÀ/.iotlink/sdk/IoT_LINK/iot_link/network/lwm2m/wakaama_lwm2m/wakaama-master/core/er-coap-13\er-coap-13.c ****     coap_packet_t *const coap_pkt = (coap_packet_t *) packet;
 4896              		.loc 1 1387 5 view .LVU1618
1388:C:/Users/²Ü¼ÒºÀ/.iotlink/sdk/IoT_LINK/iot_link/network/lwm2m/wakaama_lwm2m/wakaama-master/core/er-coap-13\er-coap-13.c **** 
1389:C:/Users/²Ü¼ÒºÀ/.iotlink/sdk/IoT_LINK/iot_link/network/lwm2m/wakaama_lwm2m/wakaama-master/core/er-coap-13\er-coap-13.c ****     if (!IS_OPTION(coap_pkt, COAP_OPTION_SIZE)) return 0;
 4897              		.loc 1 1389 5 view .LVU1619
ARM GAS  C:\Users\²Ü¼ÒºÀ\AppData\Local\Temp\cczrlpTg.s 			page 121


 4898              		.loc 1 1389 8 is_stmt 0 view .LVU1620
 4899 0000 437B     		ldrb	r3, [r0, #13]	@ zero_extendqisi2
 4900 0002 13F01003 		ands	r3, r3, #16
1390:C:/Users/²Ü¼ÒºÀ/.iotlink/sdk/IoT_LINK/iot_link/network/lwm2m/wakaama_lwm2m/wakaama-master/core/er-coap-13\er-coap-13.c **** 
1391:C:/Users/²Ü¼ÒºÀ/.iotlink/sdk/IoT_LINK/iot_link/network/lwm2m/wakaama_lwm2m/wakaama-master/core/er-coap-13\er-coap-13.c ****     *size = coap_pkt->size;
 4901              		.loc 1 1391 5 is_stmt 1 view .LVU1621
 4902              		.loc 1 1391 21 is_stmt 0 view .LVU1622
 4903 0006 1DBF     		ittte	ne
 4904 0008 C36F     		ldrne	r3, [r0, #124]
 4905              		.loc 1 1391 11 view .LVU1623
 4906 000a 0B60     		strne	r3, [r1]
1392:C:/Users/²Ü¼ÒºÀ/.iotlink/sdk/IoT_LINK/iot_link/network/lwm2m/wakaama_lwm2m/wakaama-master/core/er-coap-13\er-coap-13.c ****     return 1;
 4907              		.loc 1 1392 5 is_stmt 1 view .LVU1624
 4908              		.loc 1 1392 12 is_stmt 0 view .LVU1625
 4909 000c 0120     		movne	r0, #1
 4910              	.LVL472:
1389:C:/Users/²Ü¼ÒºÀ/.iotlink/sdk/IoT_LINK/iot_link/network/lwm2m/wakaama_lwm2m/wakaama-master/core/er-coap-13\er-coap-13.c **** 
 4911              		.loc 1 1389 56 view .LVU1626
 4912 000e 1846     		moveq	r0, r3
1393:C:/Users/²Ü¼ÒºÀ/.iotlink/sdk/IoT_LINK/iot_link/network/lwm2m/wakaama_lwm2m/wakaama-master/core/er-coap-13\er-coap-13.c **** }
 4913              		.loc 1 1393 1 view .LVU1627
 4914 0010 7047     		bx	lr
 4915              		.cfi_endproc
 4916              	.LFE58:
 4918              		.section	.text.coap_set_header_size,"ax",%progbits
 4919              		.align	1
 4920              		.global	coap_set_header_size
 4921              		.syntax unified
 4922              		.thumb
 4923              		.thumb_func
 4924              		.fpu fpv4-sp-d16
 4926              	coap_set_header_size:
 4927              	.LVL473:
 4928              	.LFB59:
1394:C:/Users/²Ü¼ÒºÀ/.iotlink/sdk/IoT_LINK/iot_link/network/lwm2m/wakaama_lwm2m/wakaama-master/core/er-coap-13\er-coap-13.c **** 
1395:C:/Users/²Ü¼ÒºÀ/.iotlink/sdk/IoT_LINK/iot_link/network/lwm2m/wakaama_lwm2m/wakaama-master/core/er-coap-13\er-coap-13.c **** int
1396:C:/Users/²Ü¼ÒºÀ/.iotlink/sdk/IoT_LINK/iot_link/network/lwm2m/wakaama_lwm2m/wakaama-master/core/er-coap-13\er-coap-13.c **** coap_set_header_size(void *packet, uint32_t size)
1397:C:/Users/²Ü¼ÒºÀ/.iotlink/sdk/IoT_LINK/iot_link/network/lwm2m/wakaama_lwm2m/wakaama-master/core/er-coap-13\er-coap-13.c **** {
 4929              		.loc 1 1397 1 is_stmt 1 view -0
 4930              		.cfi_startproc
 4931              		@ args = 0, pretend = 0, frame = 0
 4932              		@ frame_needed = 0, uses_anonymous_args = 0
 4933              		@ link register save eliminated.
1398:C:/Users/²Ü¼ÒºÀ/.iotlink/sdk/IoT_LINK/iot_link/network/lwm2m/wakaama_lwm2m/wakaama-master/core/er-coap-13\er-coap-13.c ****     coap_packet_t *const coap_pkt = (coap_packet_t *) packet;
 4934              		.loc 1 1398 5 view .LVU1629
1399:C:/Users/²Ü¼ÒºÀ/.iotlink/sdk/IoT_LINK/iot_link/network/lwm2m/wakaama_lwm2m/wakaama-master/core/er-coap-13\er-coap-13.c **** 
1400:C:/Users/²Ü¼ÒºÀ/.iotlink/sdk/IoT_LINK/iot_link/network/lwm2m/wakaama_lwm2m/wakaama-master/core/er-coap-13\er-coap-13.c ****     coap_pkt->size = size;
 4935              		.loc 1 1400 5 view .LVU1630
1401:C:/Users/²Ü¼ÒºÀ/.iotlink/sdk/IoT_LINK/iot_link/network/lwm2m/wakaama_lwm2m/wakaama-master/core/er-coap-13\er-coap-13.c ****     SET_OPTION(coap_pkt, COAP_OPTION_SIZE);
 4936              		.loc 1 1401 5 is_stmt 0 view .LVU1631
 4937 0000 437B     		ldrb	r3, [r0, #13]	@ zero_extendqisi2
1400:C:/Users/²Ü¼ÒºÀ/.iotlink/sdk/IoT_LINK/iot_link/network/lwm2m/wakaama_lwm2m/wakaama-master/core/er-coap-13\er-coap-13.c ****     SET_OPTION(coap_pkt, COAP_OPTION_SIZE);
 4938              		.loc 1 1400 20 view .LVU1632
 4939 0002 C167     		str	r1, [r0, #124]
 4940              		.loc 1 1401 5 is_stmt 1 view .LVU1633
 4941              		.loc 1 1401 5 view .LVU1634
 4942 0004 43F01003 		orr	r3, r3, #16
ARM GAS  C:\Users\²Ü¼ÒºÀ\AppData\Local\Temp\cczrlpTg.s 			page 122


 4943 0008 4373     		strb	r3, [r0, #13]
 4944              		.loc 1 1401 43 view .LVU1635
1402:C:/Users/²Ü¼ÒºÀ/.iotlink/sdk/IoT_LINK/iot_link/network/lwm2m/wakaama_lwm2m/wakaama-master/core/er-coap-13\er-coap-13.c ****     return 1;
 4945              		.loc 1 1402 5 view .LVU1636
1403:C:/Users/²Ü¼ÒºÀ/.iotlink/sdk/IoT_LINK/iot_link/network/lwm2m/wakaama_lwm2m/wakaama-master/core/er-coap-13\er-coap-13.c **** }
 4946              		.loc 1 1403 1 is_stmt 0 view .LVU1637
 4947 000a 0120     		movs	r0, #1
 4948              	.LVL474:
 4949              		.loc 1 1403 1 view .LVU1638
 4950 000c 7047     		bx	lr
 4951              		.cfi_endproc
 4952              	.LFE59:
 4954              		.section	.text.coap_get_payload,"ax",%progbits
 4955              		.align	1
 4956              		.global	coap_get_payload
 4957              		.syntax unified
 4958              		.thumb
 4959              		.thumb_func
 4960              		.fpu fpv4-sp-d16
 4962              	coap_get_payload:
 4963              	.LVL475:
 4964              	.LFB60:
1404:C:/Users/²Ü¼ÒºÀ/.iotlink/sdk/IoT_LINK/iot_link/network/lwm2m/wakaama_lwm2m/wakaama-master/core/er-coap-13\er-coap-13.c **** /*-----------------------------------------------------------------------------------*/
1405:C:/Users/²Ü¼ÒºÀ/.iotlink/sdk/IoT_LINK/iot_link/network/lwm2m/wakaama_lwm2m/wakaama-master/core/er-coap-13\er-coap-13.c **** /*- PAYLOAD -------------------------------------------------------------------------*/
1406:C:/Users/²Ü¼ÒºÀ/.iotlink/sdk/IoT_LINK/iot_link/network/lwm2m/wakaama_lwm2m/wakaama-master/core/er-coap-13\er-coap-13.c **** /*-----------------------------------------------------------------------------------*/
1407:C:/Users/²Ü¼ÒºÀ/.iotlink/sdk/IoT_LINK/iot_link/network/lwm2m/wakaama_lwm2m/wakaama-master/core/er-coap-13\er-coap-13.c **** int
1408:C:/Users/²Ü¼ÒºÀ/.iotlink/sdk/IoT_LINK/iot_link/network/lwm2m/wakaama_lwm2m/wakaama-master/core/er-coap-13\er-coap-13.c **** coap_get_payload(void *packet, const uint8_t **payload)
1409:C:/Users/²Ü¼ÒºÀ/.iotlink/sdk/IoT_LINK/iot_link/network/lwm2m/wakaama_lwm2m/wakaama-master/core/er-coap-13\er-coap-13.c **** {
 4965              		.loc 1 1409 1 is_stmt 1 view -0
 4966              		.cfi_startproc
 4967              		@ args = 0, pretend = 0, frame = 0
 4968              		@ frame_needed = 0, uses_anonymous_args = 0
 4969              		@ link register save eliminated.
1410:C:/Users/²Ü¼ÒºÀ/.iotlink/sdk/IoT_LINK/iot_link/network/lwm2m/wakaama_lwm2m/wakaama-master/core/er-coap-13\er-coap-13.c ****     coap_packet_t *const coap_pkt = (coap_packet_t *) packet;
 4970              		.loc 1 1410 5 view .LVU1640
1411:C:/Users/²Ü¼ÒºÀ/.iotlink/sdk/IoT_LINK/iot_link/network/lwm2m/wakaama_lwm2m/wakaama-master/core/er-coap-13\er-coap-13.c **** 
1412:C:/Users/²Ü¼ÒºÀ/.iotlink/sdk/IoT_LINK/iot_link/network/lwm2m/wakaama_lwm2m/wakaama-master/core/er-coap-13\er-coap-13.c ****     if (coap_pkt->payload)
 4971              		.loc 1 1412 5 view .LVU1641
 4972              		.loc 1 1412 17 is_stmt 0 view .LVU1642
 4973 0000 D0F88830 		ldr	r3, [r0, #136]
1413:C:/Users/²Ü¼ÒºÀ/.iotlink/sdk/IoT_LINK/iot_link/network/lwm2m/wakaama_lwm2m/wakaama-master/core/er-coap-13\er-coap-13.c ****     {
1414:C:/Users/²Ü¼ÒºÀ/.iotlink/sdk/IoT_LINK/iot_link/network/lwm2m/wakaama_lwm2m/wakaama-master/core/er-coap-13\er-coap-13.c ****         *payload = coap_pkt->payload;
 4974              		.loc 1 1414 18 view .LVU1643
 4975 0004 0B60     		str	r3, [r1]
1412:C:/Users/²Ü¼ÒºÀ/.iotlink/sdk/IoT_LINK/iot_link/network/lwm2m/wakaama_lwm2m/wakaama-master/core/er-coap-13\er-coap-13.c ****     {
 4976              		.loc 1 1412 8 view .LVU1644
 4977 0006 13B1     		cbz	r3, .L424
 4978              		.loc 1 1414 9 is_stmt 1 view .LVU1645
1415:C:/Users/²Ü¼ÒºÀ/.iotlink/sdk/IoT_LINK/iot_link/network/lwm2m/wakaama_lwm2m/wakaama-master/core/er-coap-13\er-coap-13.c ****         return coap_pkt->payload_len;
 4979              		.loc 1 1415 9 view .LVU1646
 4980              		.loc 1 1415 24 is_stmt 0 view .LVU1647
 4981 0008 B0F88600 		ldrh	r0, [r0, #134]
 4982              	.LVL476:
 4983              		.loc 1 1415 24 view .LVU1648
 4984 000c 7047     		bx	lr
 4985              	.LVL477:
 4986              	.L424:
ARM GAS  C:\Users\²Ü¼ÒºÀ\AppData\Local\Temp\cczrlpTg.s 			page 123


1416:C:/Users/²Ü¼ÒºÀ/.iotlink/sdk/IoT_LINK/iot_link/network/lwm2m/wakaama_lwm2m/wakaama-master/core/er-coap-13\er-coap-13.c ****     }
1417:C:/Users/²Ü¼ÒºÀ/.iotlink/sdk/IoT_LINK/iot_link/network/lwm2m/wakaama_lwm2m/wakaama-master/core/er-coap-13\er-coap-13.c ****     else
1418:C:/Users/²Ü¼ÒºÀ/.iotlink/sdk/IoT_LINK/iot_link/network/lwm2m/wakaama_lwm2m/wakaama-master/core/er-coap-13\er-coap-13.c ****     {
1419:C:/Users/²Ü¼ÒºÀ/.iotlink/sdk/IoT_LINK/iot_link/network/lwm2m/wakaama_lwm2m/wakaama-master/core/er-coap-13\er-coap-13.c ****         *payload = NULL;
 4987              		.loc 1 1419 9 is_stmt 1 view .LVU1649
1420:C:/Users/²Ü¼ÒºÀ/.iotlink/sdk/IoT_LINK/iot_link/network/lwm2m/wakaama_lwm2m/wakaama-master/core/er-coap-13\er-coap-13.c ****         return 0;
 4988              		.loc 1 1420 9 view .LVU1650
 4989              		.loc 1 1420 16 is_stmt 0 view .LVU1651
 4990 000e 1846     		mov	r0, r3
 4991              	.LVL478:
1421:C:/Users/²Ü¼ÒºÀ/.iotlink/sdk/IoT_LINK/iot_link/network/lwm2m/wakaama_lwm2m/wakaama-master/core/er-coap-13\er-coap-13.c ****     }
1422:C:/Users/²Ü¼ÒºÀ/.iotlink/sdk/IoT_LINK/iot_link/network/lwm2m/wakaama_lwm2m/wakaama-master/core/er-coap-13\er-coap-13.c **** }
 4992              		.loc 1 1422 1 view .LVU1652
 4993 0010 7047     		bx	lr
 4994              		.cfi_endproc
 4995              	.LFE60:
 4997              		.section	.text.coap_set_payload,"ax",%progbits
 4998              		.align	1
 4999              		.global	coap_set_payload
 5000              		.syntax unified
 5001              		.thumb
 5002              		.thumb_func
 5003              		.fpu fpv4-sp-d16
 5005              	coap_set_payload:
 5006              	.LVL479:
 5007              	.LFB61:
1423:C:/Users/²Ü¼ÒºÀ/.iotlink/sdk/IoT_LINK/iot_link/network/lwm2m/wakaama_lwm2m/wakaama-master/core/er-coap-13\er-coap-13.c **** 
1424:C:/Users/²Ü¼ÒºÀ/.iotlink/sdk/IoT_LINK/iot_link/network/lwm2m/wakaama_lwm2m/wakaama-master/core/er-coap-13\er-coap-13.c **** int
1425:C:/Users/²Ü¼ÒºÀ/.iotlink/sdk/IoT_LINK/iot_link/network/lwm2m/wakaama_lwm2m/wakaama-master/core/er-coap-13\er-coap-13.c **** coap_set_payload(void *packet, const void *payload, size_t length)
1426:C:/Users/²Ü¼ÒºÀ/.iotlink/sdk/IoT_LINK/iot_link/network/lwm2m/wakaama_lwm2m/wakaama-master/core/er-coap-13\er-coap-13.c **** {
 5008              		.loc 1 1426 1 is_stmt 1 view -0
 5009              		.cfi_startproc
 5010              		@ args = 0, pretend = 0, frame = 0
 5011              		@ frame_needed = 0, uses_anonymous_args = 0
 5012              		@ link register save eliminated.
1427:C:/Users/²Ü¼ÒºÀ/.iotlink/sdk/IoT_LINK/iot_link/network/lwm2m/wakaama_lwm2m/wakaama-master/core/er-coap-13\er-coap-13.c ****     coap_packet_t *const coap_pkt = (coap_packet_t *) packet;
 5013              		.loc 1 1427 5 view .LVU1654
1428:C:/Users/²Ü¼ÒºÀ/.iotlink/sdk/IoT_LINK/iot_link/network/lwm2m/wakaama_lwm2m/wakaama-master/core/er-coap-13\er-coap-13.c **** 
1429:C:/Users/²Ü¼ÒºÀ/.iotlink/sdk/IoT_LINK/iot_link/network/lwm2m/wakaama_lwm2m/wakaama-master/core/er-coap-13\er-coap-13.c ****     coap_pkt->payload = (uint8_t *) payload;
 5014              		.loc 1 1429 5 view .LVU1655
 5015              		.loc 1 1429 23 is_stmt 0 view .LVU1656
 5016 0000 C0F88810 		str	r1, [r0, #136]
1430:C:/Users/²Ü¼ÒºÀ/.iotlink/sdk/IoT_LINK/iot_link/network/lwm2m/wakaama_lwm2m/wakaama-master/core/er-coap-13\er-coap-13.c ****     coap_pkt->payload_len = (uint16_t)(length);
 5017              		.loc 1 1430 5 is_stmt 1 view .LVU1657
 5018              		.loc 1 1430 29 is_stmt 0 view .LVU1658
 5019 0004 A0F88620 		strh	r2, [r0, #134]	@ movhi
1431:C:/Users/²Ü¼ÒºÀ/.iotlink/sdk/IoT_LINK/iot_link/network/lwm2m/wakaama_lwm2m/wakaama-master/core/er-coap-13\er-coap-13.c **** 
1432:C:/Users/²Ü¼ÒºÀ/.iotlink/sdk/IoT_LINK/iot_link/network/lwm2m/wakaama_lwm2m/wakaama-master/core/er-coap-13\er-coap-13.c ****     return coap_pkt->payload_len;
 5020              		.loc 1 1432 5 is_stmt 1 view .LVU1659
1433:C:/Users/²Ü¼ÒºÀ/.iotlink/sdk/IoT_LINK/iot_link/network/lwm2m/wakaama_lwm2m/wakaama-master/core/er-coap-13\er-coap-13.c **** }
 5021              		.loc 1 1433 1 is_stmt 0 view .LVU1660
 5022 0008 90B2     		uxth	r0, r2
 5023              	.LVL480:
 5024              		.loc 1 1433 1 view .LVU1661
 5025 000a 7047     		bx	lr
 5026              		.cfi_endproc
 5027              	.LFE61:
ARM GAS  C:\Users\²Ü¼ÒºÀ\AppData\Local\Temp\cczrlpTg.s 			page 124


 5029              		.global	coap_error_message
 5030              		.section	.rodata.str1.1,"aMS",%progbits,1
 5031              	.LC3:
 5032 0000 00       		.ascii	"\000"
 5033              		.global	coap_error_code
 5034              		.section	.bss.coap_error_code,"aw",%nobits
 5037              	coap_error_code:
 5038 0000 00       		.space	1
 5039              		.section	.bss.current_mid,"aw",%nobits
 5040              		.align	1
 5041              		.set	.LANCHOR0,. + 0
 5044              	current_mid:
 5045 0000 0000     		.space	2
 5046              		.section	.data.coap_error_message,"aw"
 5047              		.align	2
 5048              		.set	.LANCHOR1,. + 0
 5051              	coap_error_message:
 5052 0000 00000000 		.word	.LC3
 5053              		.text
 5054              	.Letext0:
 5055              		.file 2 "c:\\users\\\262\334\274\322\272\300\\.iotlink\\tools\\gcc-arm-none-eabi\\lib\\gcc\\arm-no
 5056              		.file 3 "c:\\users\\\262\334\274\322\272\300\\.iotlink\\tools\\gcc-arm-none-eabi\\arm-none-eabi\\i
 5057              		.file 4 "c:\\users\\\262\334\274\322\272\300\\.iotlink\\tools\\gcc-arm-none-eabi\\arm-none-eabi\\i
 5058              		.file 5 "c:\\users\\\262\334\274\322\272\300\\.iotlink\\tools\\gcc-arm-none-eabi\\arm-none-eabi\\i
 5059              		.file 6 "c:\\users\\\262\334\274\322\272\300\\.iotlink\\tools\\gcc-arm-none-eabi\\arm-none-eabi\\i
 5060              		.file 7 "c:\\users\\\262\334\274\322\272\300\\.iotlink\\tools\\gcc-arm-none-eabi\\arm-none-eabi\\i
 5061              		.file 8 "c:\\users\\\262\334\274\322\272\300\\.iotlink\\tools\\gcc-arm-none-eabi\\arm-none-eabi\\i
 5062              		.file 9 "C:/Users/\262\334\274\322\272\300/.iotlink/sdk/IoT_LINK/iot_link/network/lwm2m/wakaama_lw
 5063              		.file 10 "c:\\users\\\262\334\274\322\272\300\\.iotlink\\tools\\gcc-arm-none-eabi\\arm-none-eabi\\
 5064              		.file 11 "c:\\users\\\262\334\274\322\272\300\\.iotlink\\tools\\gcc-arm-none-eabi\\arm-none-eabi\\
 5065              		.file 12 "C:/Users/\262\334\274\322\272\300/.iotlink/sdk/IoT_LINK/iot_link/network/lwm2m/wakaama_l
 5066              		.file 13 "c:\\users\\\262\334\274\322\272\300\\.iotlink\\tools\\gcc-arm-none-eabi\\arm-none-eabi\\
 5067              		.file 14 "<built-in>"
 5068              		.file 15 "C:/Users/\262\334\274\322\272\300/.iotlink/sdk/IoT_LINK/iot_link/network/lwm2m/wakaama_l
ARM GAS  C:\Users\²Ü¼ÒºÀ\AppData\Local\Temp\cczrlpTg.s 			page 125


DEFINED SYMBOLS
                            *ABS*:00000000 er-coap-13.c
C:\Users\²Ü¼ÒºÀ\AppData\Local\Temp\cczrlpTg.s:18     .text.coap_parse_int_option:00000000 $t
C:\Users\²Ü¼ÒºÀ\AppData\Local\Temp\cczrlpTg.s:25     .text.coap_parse_int_option:00000000 coap_parse_int_option
C:\Users\²Ü¼ÒºÀ\AppData\Local\Temp\cczrlpTg.s:68     .text.coap_set_option_header:00000000 $t
C:\Users\²Ü¼ÒºÀ\AppData\Local\Temp\cczrlpTg.s:74     .text.coap_set_option_header:00000000 coap_set_option_header
C:\Users\²Ü¼ÒºÀ\AppData\Local\Temp\cczrlpTg.s:260    .text.coap_serialize_int_option:00000000 $t
C:\Users\²Ü¼ÒºÀ\AppData\Local\Temp\cczrlpTg.s:266    .text.coap_serialize_int_option:00000000 coap_serialize_int_option
C:\Users\²Ü¼ÒºÀ\AppData\Local\Temp\cczrlpTg.s:406    .text.coap_serialize_multi_option:00000000 $t
C:\Users\²Ü¼ÒºÀ\AppData\Local\Temp\cczrlpTg.s:412    .text.coap_serialize_multi_option:00000000 coap_serialize_multi_option
C:\Users\²Ü¼ÒºÀ\AppData\Local\Temp\cczrlpTg.s:491    .text.coap_serialize_array_option.part.0:00000000 $t
C:\Users\²Ü¼ÒºÀ\AppData\Local\Temp\cczrlpTg.s:497    .text.coap_serialize_array_option.part.0:00000000 coap_serialize_array_option.part.0
C:\Users\²Ü¼ÒºÀ\AppData\Local\Temp\cczrlpTg.s:556    .text.coap_add_multi_option:00000000 $t
C:\Users\²Ü¼ÒºÀ\AppData\Local\Temp\cczrlpTg.s:563    .text.coap_add_multi_option:00000000 coap_add_multi_option
C:\Users\²Ü¼ÒºÀ\AppData\Local\Temp\cczrlpTg.s:695    .text.free_multi_option:00000000 $t
C:\Users\²Ü¼ÒºÀ\AppData\Local\Temp\cczrlpTg.s:702    .text.free_multi_option:00000000 free_multi_option
C:\Users\²Ü¼ÒºÀ\AppData\Local\Temp\cczrlpTg.s:764    .text.coap_get_multi_option_as_string:00000000 $t
C:\Users\²Ü¼ÒºÀ\AppData\Local\Temp\cczrlpTg.s:771    .text.coap_get_multi_option_as_string:00000000 coap_get_multi_option_as_string
C:\Users\²Ü¼ÒºÀ\AppData\Local\Temp\cczrlpTg.s:884    .text.coap_get_mid:00000000 $t
C:\Users\²Ü¼ÒºÀ\AppData\Local\Temp\cczrlpTg.s:891    .text.coap_get_mid:00000000 coap_get_mid
C:\Users\²Ü¼ÒºÀ\AppData\Local\Temp\cczrlpTg.s:910    .text.coap_get_mid:0000000c $d
C:\Users\²Ü¼ÒºÀ\AppData\Local\Temp\cczrlpTg.s:915    .text.coap_init_message:00000000 $t
C:\Users\²Ü¼ÒºÀ\AppData\Local\Temp\cczrlpTg.s:922    .text.coap_init_message:00000000 coap_init_message
C:\Users\²Ü¼ÒºÀ\AppData\Local\Temp\cczrlpTg.s:973    .text.coap_free_header:00000000 $t
C:\Users\²Ü¼ÒºÀ\AppData\Local\Temp\cczrlpTg.s:980    .text.coap_free_header:00000000 coap_free_header
C:\Users\²Ü¼ÒºÀ\AppData\Local\Temp\cczrlpTg.s:1028   .text.coap_serialize_get_size:00000000 $t
C:\Users\²Ü¼ÒºÀ\AppData\Local\Temp\cczrlpTg.s:1035   .text.coap_serialize_get_size:00000000 coap_serialize_get_size
C:\Users\²Ü¼ÒºÀ\AppData\Local\Temp\cczrlpTg.s:1325   .text.coap_serialize_message:00000000 $t
C:\Users\²Ü¼ÒºÀ\AppData\Local\Temp\cczrlpTg.s:1332   .text.coap_serialize_message:00000000 coap_serialize_message
C:\Users\²Ü¼ÒºÀ\AppData\Local\Temp\cczrlpTg.s:2199   .text.coap_parse_message:00000000 $t
C:\Users\²Ü¼ÒºÀ\AppData\Local\Temp\cczrlpTg.s:2206   .text.coap_parse_message:00000000 coap_parse_message
C:\Users\²Ü¼ÒºÀ\AppData\Local\Temp\cczrlpTg.s:2437   .text.coap_parse_message:000000ec $d
C:\Users\²Ü¼ÒºÀ\AppData\Local\Temp\cczrlpTg.s:2839   .text.coap_parse_message:00000278 $d
C:\Users\²Ü¼ÒºÀ\AppData\Local\Temp\cczrlpTg.s:2847   .text.coap_get_query_variable:00000000 $t
C:\Users\²Ü¼ÒºÀ\AppData\Local\Temp\cczrlpTg.s:2854   .text.coap_get_query_variable:00000000 coap_get_query_variable
C:\Users\²Ü¼ÒºÀ\AppData\Local\Temp\cczrlpTg.s:2872   .text.coap_get_post_variable:00000000 $t
C:\Users\²Ü¼ÒºÀ\AppData\Local\Temp\cczrlpTg.s:2879   .text.coap_get_post_variable:00000000 coap_get_post_variable
C:\Users\²Ü¼ÒºÀ\AppData\Local\Temp\cczrlpTg.s:3022   .text.coap_set_status_code:00000000 $t
C:\Users\²Ü¼ÒºÀ\AppData\Local\Temp\cczrlpTg.s:3029   .text.coap_set_status_code:00000000 coap_set_status_code
C:\Users\²Ü¼ÒºÀ\AppData\Local\Temp\cczrlpTg.s:3056   .text.coap_get_header_content_type:00000000 $t
C:\Users\²Ü¼ÒºÀ\AppData\Local\Temp\cczrlpTg.s:3063   .text.coap_get_header_content_type:00000000 coap_get_header_content_type
C:\Users\²Ü¼ÒºÀ\AppData\Local\Temp\cczrlpTg.s:3089   .text.coap_set_header_content_type:00000000 $t
C:\Users\²Ü¼ÒºÀ\AppData\Local\Temp\cczrlpTg.s:3096   .text.coap_set_header_content_type:00000000 coap_set_header_content_type
C:\Users\²Ü¼ÒºÀ\AppData\Local\Temp\cczrlpTg.s:3125   .text.coap_get_header_accept:00000000 $t
C:\Users\²Ü¼ÒºÀ\AppData\Local\Temp\cczrlpTg.s:3132   .text.coap_get_header_accept:00000000 coap_get_header_accept
C:\Users\²Ü¼ÒºÀ\AppData\Local\Temp\cczrlpTg.s:3163   .text.coap_set_header_accept:00000000 $t
C:\Users\²Ü¼ÒºÀ\AppData\Local\Temp\cczrlpTg.s:3170   .text.coap_set_header_accept:00000000 coap_set_header_accept
C:\Users\²Ü¼ÒºÀ\AppData\Local\Temp\cczrlpTg.s:3212   .text.coap_get_header_max_age:00000000 $t
C:\Users\²Ü¼ÒºÀ\AppData\Local\Temp\cczrlpTg.s:3219   .text.coap_get_header_max_age:00000000 coap_get_header_max_age
C:\Users\²Ü¼ÒºÀ\AppData\Local\Temp\cczrlpTg.s:3249   .text.coap_set_header_max_age:00000000 $t
C:\Users\²Ü¼ÒºÀ\AppData\Local\Temp\cczrlpTg.s:3256   .text.coap_set_header_max_age:00000000 coap_set_header_max_age
C:\Users\²Ü¼ÒºÀ\AppData\Local\Temp\cczrlpTg.s:3285   .text.coap_get_header_etag:00000000 $t
C:\Users\²Ü¼ÒºÀ\AppData\Local\Temp\cczrlpTg.s:3292   .text.coap_get_header_etag:00000000 coap_get_header_etag
C:\Users\²Ü¼ÒºÀ\AppData\Local\Temp\cczrlpTg.s:3323   .text.coap_set_header_etag:00000000 $t
C:\Users\²Ü¼ÒºÀ\AppData\Local\Temp\cczrlpTg.s:3330   .text.coap_set_header_etag:00000000 coap_set_header_etag
C:\Users\²Ü¼ÒºÀ\AppData\Local\Temp\cczrlpTg.s:3377   .text.coap_get_header_if_match:00000000 $t
C:\Users\²Ü¼ÒºÀ\AppData\Local\Temp\cczrlpTg.s:3384   .text.coap_get_header_if_match:00000000 coap_get_header_if_match
ARM GAS  C:\Users\²Ü¼ÒºÀ\AppData\Local\Temp\cczrlpTg.s 			page 126


C:\Users\²Ü¼ÒºÀ\AppData\Local\Temp\cczrlpTg.s:3415   .text.coap_set_header_if_match:00000000 $t
C:\Users\²Ü¼ÒºÀ\AppData\Local\Temp\cczrlpTg.s:3422   .text.coap_set_header_if_match:00000000 coap_set_header_if_match
C:\Users\²Ü¼ÒºÀ\AppData\Local\Temp\cczrlpTg.s:3469   .text.coap_get_header_if_none_match:00000000 $t
C:\Users\²Ü¼ÒºÀ\AppData\Local\Temp\cczrlpTg.s:3476   .text.coap_get_header_if_none_match:00000000 coap_get_header_if_none_match
C:\Users\²Ü¼ÒºÀ\AppData\Local\Temp\cczrlpTg.s:3495   .text.coap_set_header_if_none_match:00000000 $t
C:\Users\²Ü¼ÒºÀ\AppData\Local\Temp\cczrlpTg.s:3502   .text.coap_set_header_if_none_match:00000000 coap_set_header_if_none_match
C:\Users\²Ü¼ÒºÀ\AppData\Local\Temp\cczrlpTg.s:3526   .text.coap_get_header_token:00000000 $t
C:\Users\²Ü¼ÒºÀ\AppData\Local\Temp\cczrlpTg.s:3533   .text.coap_get_header_token:00000000 coap_get_header_token
C:\Users\²Ü¼ÒºÀ\AppData\Local\Temp\cczrlpTg.s:3564   .text.coap_set_header_token:00000000 $t
C:\Users\²Ü¼ÒºÀ\AppData\Local\Temp\cczrlpTg.s:3571   .text.coap_set_header_token:00000000 coap_set_header_token
C:\Users\²Ü¼ÒºÀ\AppData\Local\Temp\cczrlpTg.s:3618   .text.coap_get_header_proxy_uri:00000000 $t
C:\Users\²Ü¼ÒºÀ\AppData\Local\Temp\cczrlpTg.s:3625   .text.coap_get_header_proxy_uri:00000000 coap_get_header_proxy_uri
C:\Users\²Ü¼ÒºÀ\AppData\Local\Temp\cczrlpTg.s:3655   .text.coap_set_header_proxy_uri:00000000 $t
C:\Users\²Ü¼ÒºÀ\AppData\Local\Temp\cczrlpTg.s:3662   .text.coap_set_header_proxy_uri:00000000 coap_set_header_proxy_uri
C:\Users\²Ü¼ÒºÀ\AppData\Local\Temp\cczrlpTg.s:3706   .text.coap_get_header_uri_host:00000000 $t
C:\Users\²Ü¼ÒºÀ\AppData\Local\Temp\cczrlpTg.s:3713   .text.coap_get_header_uri_host:00000000 coap_get_header_uri_host
C:\Users\²Ü¼ÒºÀ\AppData\Local\Temp\cczrlpTg.s:3743   .text.coap_set_header_uri_host:00000000 $t
C:\Users\²Ü¼ÒºÀ\AppData\Local\Temp\cczrlpTg.s:3750   .text.coap_set_header_uri_host:00000000 coap_set_header_uri_host
C:\Users\²Ü¼ÒºÀ\AppData\Local\Temp\cczrlpTg.s:3794   .text.coap_get_header_uri_path:00000000 $t
C:\Users\²Ü¼ÒºÀ\AppData\Local\Temp\cczrlpTg.s:3801   .text.coap_get_header_uri_path:00000000 coap_get_header_uri_path
C:\Users\²Ü¼ÒºÀ\AppData\Local\Temp\cczrlpTg.s:3829   .text.coap_set_header_uri_path:00000000 $t
C:\Users\²Ü¼ÒºÀ\AppData\Local\Temp\cczrlpTg.s:3836   .text.coap_set_header_uri_path:00000000 coap_set_header_uri_path
C:\Users\²Ü¼ÒºÀ\AppData\Local\Temp\cczrlpTg.s:3964   .text.coap_set_header_uri_path_segment:00000000 $t
C:\Users\²Ü¼ÒºÀ\AppData\Local\Temp\cczrlpTg.s:3971   .text.coap_set_header_uri_path_segment:00000000 coap_set_header_uri_path_segment
C:\Users\²Ü¼ÒºÀ\AppData\Local\Temp\cczrlpTg.s:4055   .text.coap_get_header_uri_query:00000000 $t
C:\Users\²Ü¼ÒºÀ\AppData\Local\Temp\cczrlpTg.s:4062   .text.coap_get_header_uri_query:00000000 coap_get_header_uri_query
C:\Users\²Ü¼ÒºÀ\AppData\Local\Temp\cczrlpTg.s:4090   .text.coap_set_header_uri_query:00000000 $t
C:\Users\²Ü¼ÒºÀ\AppData\Local\Temp\cczrlpTg.s:4097   .text.coap_set_header_uri_query:00000000 coap_set_header_uri_query
C:\Users\²Ü¼ÒºÀ\AppData\Local\Temp\cczrlpTg.s:4225   .text.coap_get_header_location_path:00000000 $t
C:\Users\²Ü¼ÒºÀ\AppData\Local\Temp\cczrlpTg.s:4232   .text.coap_get_header_location_path:00000000 coap_get_header_location_path
C:\Users\²Ü¼ÒºÀ\AppData\Local\Temp\cczrlpTg.s:4260   .text.coap_set_header_location_path:00000000 $t
C:\Users\²Ü¼ÒºÀ\AppData\Local\Temp\cczrlpTg.s:4267   .text.coap_set_header_location_path:00000000 coap_set_header_location_path
C:\Users\²Ü¼ÒºÀ\AppData\Local\Temp\cczrlpTg.s:4395   .text.coap_get_header_location_query:00000000 $t
C:\Users\²Ü¼ÒºÀ\AppData\Local\Temp\cczrlpTg.s:4402   .text.coap_get_header_location_query:00000000 coap_get_header_location_query
C:\Users\²Ü¼ÒºÀ\AppData\Local\Temp\cczrlpTg.s:4432   .text.coap_set_header_location_query:00000000 $t
C:\Users\²Ü¼ÒºÀ\AppData\Local\Temp\cczrlpTg.s:4439   .text.coap_set_header_location_query:00000000 coap_set_header_location_query
C:\Users\²Ü¼ÒºÀ\AppData\Local\Temp\cczrlpTg.s:4489   .text.coap_get_header_observe:00000000 $t
C:\Users\²Ü¼ÒºÀ\AppData\Local\Temp\cczrlpTg.s:4496   .text.coap_get_header_observe:00000000 coap_get_header_observe
C:\Users\²Ü¼ÒºÀ\AppData\Local\Temp\cczrlpTg.s:4527   .text.coap_set_header_observe:00000000 $t
C:\Users\²Ü¼ÒºÀ\AppData\Local\Temp\cczrlpTg.s:4534   .text.coap_set_header_observe:00000000 coap_set_header_observe
C:\Users\²Ü¼ÒºÀ\AppData\Local\Temp\cczrlpTg.s:4567   .text.coap_get_header_block2:00000000 $t
C:\Users\²Ü¼ÒºÀ\AppData\Local\Temp\cczrlpTg.s:4574   .text.coap_get_header_block2:00000000 coap_get_header_block2
C:\Users\²Ü¼ÒºÀ\AppData\Local\Temp\cczrlpTg.s:4654   .text.coap_set_header_block2:00000000 $t
C:\Users\²Ü¼ÒºÀ\AppData\Local\Temp\cczrlpTg.s:4661   .text.coap_set_header_block2:00000000 coap_set_header_block2
C:\Users\²Ü¼ÒºÀ\AppData\Local\Temp\cczrlpTg.s:4727   .text.coap_get_header_block1:00000000 $t
C:\Users\²Ü¼ÒºÀ\AppData\Local\Temp\cczrlpTg.s:4734   .text.coap_get_header_block1:00000000 coap_get_header_block1
C:\Users\²Ü¼ÒºÀ\AppData\Local\Temp\cczrlpTg.s:4814   .text.coap_set_header_block1:00000000 $t
C:\Users\²Ü¼ÒºÀ\AppData\Local\Temp\cczrlpTg.s:4821   .text.coap_set_header_block1:00000000 coap_set_header_block1
C:\Users\²Ü¼ÒºÀ\AppData\Local\Temp\cczrlpTg.s:4881   .text.coap_get_header_size:00000000 $t
C:\Users\²Ü¼ÒºÀ\AppData\Local\Temp\cczrlpTg.s:4888   .text.coap_get_header_size:00000000 coap_get_header_size
C:\Users\²Ü¼ÒºÀ\AppData\Local\Temp\cczrlpTg.s:4919   .text.coap_set_header_size:00000000 $t
C:\Users\²Ü¼ÒºÀ\AppData\Local\Temp\cczrlpTg.s:4926   .text.coap_set_header_size:00000000 coap_set_header_size
C:\Users\²Ü¼ÒºÀ\AppData\Local\Temp\cczrlpTg.s:4955   .text.coap_get_payload:00000000 $t
C:\Users\²Ü¼ÒºÀ\AppData\Local\Temp\cczrlpTg.s:4962   .text.coap_get_payload:00000000 coap_get_payload
C:\Users\²Ü¼ÒºÀ\AppData\Local\Temp\cczrlpTg.s:4998   .text.coap_set_payload:00000000 $t
C:\Users\²Ü¼ÒºÀ\AppData\Local\Temp\cczrlpTg.s:5005   .text.coap_set_payload:00000000 coap_set_payload
C:\Users\²Ü¼ÒºÀ\AppData\Local\Temp\cczrlpTg.s:5051   .data.coap_error_message:00000000 coap_error_message
ARM GAS  C:\Users\²Ü¼ÒºÀ\AppData\Local\Temp\cczrlpTg.s 			page 127


C:\Users\²Ü¼ÒºÀ\AppData\Local\Temp\cczrlpTg.s:5037   .bss.coap_error_code:00000000 coap_error_code
C:\Users\²Ü¼ÒºÀ\AppData\Local\Temp\cczrlpTg.s:5038   .bss.coap_error_code:00000000 $d
C:\Users\²Ü¼ÒºÀ\AppData\Local\Temp\cczrlpTg.s:5040   .bss.current_mid:00000000 $d
C:\Users\²Ü¼ÒºÀ\AppData\Local\Temp\cczrlpTg.s:5044   .bss.current_mid:00000000 current_mid
C:\Users\²Ü¼ÒºÀ\AppData\Local\Temp\cczrlpTg.s:5047   .data.coap_error_message:00000000 $d
C:\Users\²Ü¼ÒºÀ\AppData\Local\Temp\cczrlpTg.s:2472   .text.coap_parse_message:0000010f $d
C:\Users\²Ü¼ÒºÀ\AppData\Local\Temp\cczrlpTg.s:2472   .text.coap_parse_message:00000110 $t

UNDEFINED SYMBOLS
memcpy
lwm2m_malloc
lwm2m_free
memmove
memset
strlen
strncmp
memchr
