ARM GAS  C:\Users\²Ü¼ÒºÀ\AppData\Local\Temp\ccwaEIDi.s 			page 1


   1              		.cpu cortex-m4
   2              		.eabi_attribute 27, 1
   3              		.eabi_attribute 28, 1
   4              		.eabi_attribute 20, 1
   5              		.eabi_attribute 21, 1
   6              		.eabi_attribute 23, 3
   7              		.eabi_attribute 24, 1
   8              		.eabi_attribute 25, 1
   9              		.eabi_attribute 26, 1
  10              		.eabi_attribute 30, 4
  11              		.eabi_attribute 34, 1
  12              		.eabi_attribute 18, 4
  13              		.file	"rbtree.c"
  14              		.text
  15              	.Ltext0:
  16              		.cfi_sections	.debug_frame
  17              		.section	.text.__bit_successor,"ax",%progbits
  18              		.align	1
  19              		.arch armv7e-m
  20              		.syntax unified
  21              		.thumb
  22              		.thumb_func
  23              		.fpu fpv4-sp-d16
  25              	__bit_successor:
  26              	.LVL0:
  27              	.LFB6:
  28              		.file 1 "C:/Users/\262\334\274\322\272\300/.iotlink/sdk/IoT_LINK/iot_link/os/liteos/base/include/_
   1:C:/Users/²Ü¼ÒºÀ/.iotlink/sdk/IoT_LINK/iot_link/os/liteos/base/include\__binary_tree.h **** /*----------------------------------------------------------------------------
   2:C:/Users/²Ü¼ÒºÀ/.iotlink/sdk/IoT_LINK/iot_link/os/liteos/base/include\__binary_tree.h ****  * Copyright (c) <2018>, <Huawei Technologies Co., Ltd>
   3:C:/Users/²Ü¼ÒºÀ/.iotlink/sdk/IoT_LINK/iot_link/os/liteos/base/include\__binary_tree.h ****  * All rights reserved.
   4:C:/Users/²Ü¼ÒºÀ/.iotlink/sdk/IoT_LINK/iot_link/os/liteos/base/include\__binary_tree.h ****  * Redistribution and use in source and binary forms, with or without modification,
   5:C:/Users/²Ü¼ÒºÀ/.iotlink/sdk/IoT_LINK/iot_link/os/liteos/base/include\__binary_tree.h ****  * are permitted provided that the following conditions are met:
   6:C:/Users/²Ü¼ÒºÀ/.iotlink/sdk/IoT_LINK/iot_link/os/liteos/base/include\__binary_tree.h ****  * 1. Redistributions of source code must retain the above copyright notice, this list of
   7:C:/Users/²Ü¼ÒºÀ/.iotlink/sdk/IoT_LINK/iot_link/os/liteos/base/include\__binary_tree.h ****  * conditions and the following disclaimer.
   8:C:/Users/²Ü¼ÒºÀ/.iotlink/sdk/IoT_LINK/iot_link/os/liteos/base/include\__binary_tree.h ****  * 2. Redistributions in binary form must reproduce the above copyright notice, this list
   9:C:/Users/²Ü¼ÒºÀ/.iotlink/sdk/IoT_LINK/iot_link/os/liteos/base/include\__binary_tree.h ****  * of conditions and the following disclaimer in the documentation and/or other materials
  10:C:/Users/²Ü¼ÒºÀ/.iotlink/sdk/IoT_LINK/iot_link/os/liteos/base/include\__binary_tree.h ****  * provided with the distribution.
  11:C:/Users/²Ü¼ÒºÀ/.iotlink/sdk/IoT_LINK/iot_link/os/liteos/base/include\__binary_tree.h ****  * 3. Neither the name of the copyright holder nor the names of its contributors may be used
  12:C:/Users/²Ü¼ÒºÀ/.iotlink/sdk/IoT_LINK/iot_link/os/liteos/base/include\__binary_tree.h ****  * to endorse or promote products derived from this software without specific prior written
  13:C:/Users/²Ü¼ÒºÀ/.iotlink/sdk/IoT_LINK/iot_link/os/liteos/base/include\__binary_tree.h ****  * permission.
  14:C:/Users/²Ü¼ÒºÀ/.iotlink/sdk/IoT_LINK/iot_link/os/liteos/base/include\__binary_tree.h ****  * THIS SOFTWARE IS PROVIDED BY THE COPYRIGHT HOLDERS AND CONTRIBUTORS
  15:C:/Users/²Ü¼ÒºÀ/.iotlink/sdk/IoT_LINK/iot_link/os/liteos/base/include\__binary_tree.h ****  * "AS IS" AND ANY EXPRESS OR IMPLIED WARRANTIES, INCLUDING, BUT NOT LIMITED TO,
  16:C:/Users/²Ü¼ÒºÀ/.iotlink/sdk/IoT_LINK/iot_link/os/liteos/base/include\__binary_tree.h ****  * THE IMPLIED WARRANTIES OF MERCHANTABILITY AND FITNESS FOR A PARTICULAR
  17:C:/Users/²Ü¼ÒºÀ/.iotlink/sdk/IoT_LINK/iot_link/os/liteos/base/include\__binary_tree.h ****  * PURPOSE ARE DISCLAIMED. IN NO EVENT SHALL THE COPYRIGHT HOLDER OR
  18:C:/Users/²Ü¼ÒºÀ/.iotlink/sdk/IoT_LINK/iot_link/os/liteos/base/include\__binary_tree.h ****  * CONTRIBUTORS BE LIABLE FOR ANY DIRECT, INDIRECT, INCIDENTAL, SPECIAL,
  19:C:/Users/²Ü¼ÒºÀ/.iotlink/sdk/IoT_LINK/iot_link/os/liteos/base/include\__binary_tree.h ****  * EXEMPLARY, OR CONSEQUENTIAL DAMAGES (INCLUDING, BUT NOT LIMITED TO,
  20:C:/Users/²Ü¼ÒºÀ/.iotlink/sdk/IoT_LINK/iot_link/os/liteos/base/include\__binary_tree.h ****  * PROCUREMENT OF SUBSTITUTE GOODS OR SERVICES; LOSS OF USE, DATA, OR PROFITS;
  21:C:/Users/²Ü¼ÒºÀ/.iotlink/sdk/IoT_LINK/iot_link/os/liteos/base/include\__binary_tree.h ****  * OR BUSINESS INTERRUPTION) HOWEVER CAUSED AND ON ANY THEORY OF LIABILITY,
  22:C:/Users/²Ü¼ÒºÀ/.iotlink/sdk/IoT_LINK/iot_link/os/liteos/base/include\__binary_tree.h ****  * WHETHER IN CONTRACT, STRICT LIABILITY, OR TORT (INCLUDING NEGLIGENCE OR
  23:C:/Users/²Ü¼ÒºÀ/.iotlink/sdk/IoT_LINK/iot_link/os/liteos/base/include\__binary_tree.h ****  * OTHERWISE) ARISING IN ANY WAY OUT OF THE USE OF THIS SOFTWARE, EVEN IF
  24:C:/Users/²Ü¼ÒºÀ/.iotlink/sdk/IoT_LINK/iot_link/os/liteos/base/include\__binary_tree.h ****  * ADVISED OF THE POSSIBILITY OF SUCH DAMAGE.
  25:C:/Users/²Ü¼ÒºÀ/.iotlink/sdk/IoT_LINK/iot_link/os/liteos/base/include\__binary_tree.h ****  *---------------------------------------------------------------------------*/
  26:C:/Users/²Ü¼ÒºÀ/.iotlink/sdk/IoT_LINK/iot_link/os/liteos/base/include\__binary_tree.h **** /*----------------------------------------------------------------------------
  27:C:/Users/²Ü¼ÒºÀ/.iotlink/sdk/IoT_LINK/iot_link/os/liteos/base/include\__binary_tree.h ****  * Notice of Export Control Law
  28:C:/Users/²Ü¼ÒºÀ/.iotlink/sdk/IoT_LINK/iot_link/os/liteos/base/include\__binary_tree.h ****  * ===============================================
  29:C:/Users/²Ü¼ÒºÀ/.iotlink/sdk/IoT_LINK/iot_link/os/liteos/base/include\__binary_tree.h ****  * Huawei LiteOS may be subject to applicable export control laws and regulations, which might
  30:C:/Users/²Ü¼ÒºÀ/.iotlink/sdk/IoT_LINK/iot_link/os/liteos/base/include\__binary_tree.h ****  * include those applicable to Huawei LiteOS of U.S. and the country in which you are located.
ARM GAS  C:\Users\²Ü¼ÒºÀ\AppData\Local\Temp\ccwaEIDi.s 			page 2


  31:C:/Users/²Ü¼ÒºÀ/.iotlink/sdk/IoT_LINK/iot_link/os/liteos/base/include\__binary_tree.h ****  * Import, export and usage of Huawei LiteOS in any manner by you shall be in compliance with such
  32:C:/Users/²Ü¼ÒºÀ/.iotlink/sdk/IoT_LINK/iot_link/os/liteos/base/include\__binary_tree.h ****  * applicable export control laws and regulations.
  33:C:/Users/²Ü¼ÒºÀ/.iotlink/sdk/IoT_LINK/iot_link/os/liteos/base/include\__binary_tree.h ****  *---------------------------------------------------------------------------*/
  34:C:/Users/²Ü¼ÒºÀ/.iotlink/sdk/IoT_LINK/iot_link/os/liteos/base/include\__binary_tree.h **** 
  35:C:/Users/²Ü¼ÒºÀ/.iotlink/sdk/IoT_LINK/iot_link/os/liteos/base/include\__binary_tree.h **** #ifndef __BINARY_TREE_H__
  36:C:/Users/²Ü¼ÒºÀ/.iotlink/sdk/IoT_LINK/iot_link/os/liteos/base/include\__binary_tree.h **** #define __BINARY_TREE_H__
  37:C:/Users/²Ü¼ÒºÀ/.iotlink/sdk/IoT_LINK/iot_link/os/liteos/base/include\__binary_tree.h **** 
  38:C:/Users/²Ü¼ÒºÀ/.iotlink/sdk/IoT_LINK/iot_link/os/liteos/base/include\__binary_tree.h **** #include <stddef.h>
  39:C:/Users/²Ü¼ÒºÀ/.iotlink/sdk/IoT_LINK/iot_link/os/liteos/base/include\__binary_tree.h **** #include <stdint.h>
  40:C:/Users/²Ü¼ÒºÀ/.iotlink/sdk/IoT_LINK/iot_link/os/liteos/base/include\__binary_tree.h **** #include <stdbool.h>
  41:C:/Users/²Ü¼ÒºÀ/.iotlink/sdk/IoT_LINK/iot_link/os/liteos/base/include\__binary_tree.h **** 
  42:C:/Users/²Ü¼ÒºÀ/.iotlink/sdk/IoT_LINK/iot_link/os/liteos/base/include\__binary_tree.h **** #include "los_common.h"
  43:C:/Users/²Ü¼ÒºÀ/.iotlink/sdk/IoT_LINK/iot_link/os/liteos/base/include\__binary_tree.h **** 
  44:C:/Users/²Ü¼ÒºÀ/.iotlink/sdk/IoT_LINK/iot_link/os/liteos/base/include\__binary_tree.h **** typedef struct bi_node
  45:C:/Users/²Ü¼ÒºÀ/.iotlink/sdk/IoT_LINK/iot_link/os/liteos/base/include\__binary_tree.h **** {
  46:C:/Users/²Ü¼ÒºÀ/.iotlink/sdk/IoT_LINK/iot_link/os/liteos/base/include\__binary_tree.h ****     struct bi_node     * p;     /* parent       */
  47:C:/Users/²Ü¼ÒºÀ/.iotlink/sdk/IoT_LINK/iot_link/os/liteos/base/include\__binary_tree.h ****     struct bi_node     * l;     /* left         */
  48:C:/Users/²Ü¼ÒºÀ/.iotlink/sdk/IoT_LINK/iot_link/os/liteos/base/include\__binary_tree.h ****     struct bi_node     * r;     /* right        */
  49:C:/Users/²Ü¼ÒºÀ/.iotlink/sdk/IoT_LINK/iot_link/os/liteos/base/include\__binary_tree.h **** } bi_node_t;
  50:C:/Users/²Ü¼ÒºÀ/.iotlink/sdk/IoT_LINK/iot_link/os/liteos/base/include\__binary_tree.h **** 
  51:C:/Users/²Ü¼ÒºÀ/.iotlink/sdk/IoT_LINK/iot_link/os/liteos/base/include\__binary_tree.h **** typedef struct bi_tree
  52:C:/Users/²Ü¼ÒºÀ/.iotlink/sdk/IoT_LINK/iot_link/os/liteos/base/include\__binary_tree.h **** {
  53:C:/Users/²Ü¼ÒºÀ/.iotlink/sdk/IoT_LINK/iot_link/os/liteos/base/include\__binary_tree.h ****     bi_node_t          * r;     /* root         */
  54:C:/Users/²Ü¼ÒºÀ/.iotlink/sdk/IoT_LINK/iot_link/os/liteos/base/include\__binary_tree.h **** 
  55:C:/Users/²Ü¼ÒºÀ/.iotlink/sdk/IoT_LINK/iot_link/os/liteos/base/include\__binary_tree.h ****     /*
  56:C:/Users/²Ü¼ÒºÀ/.iotlink/sdk/IoT_LINK/iot_link/os/liteos/base/include\__binary_tree.h ****      * compare two nodes or a node with a key to determine which is bigger,
  57:C:/Users/²Ü¼ÒºÀ/.iotlink/sdk/IoT_LINK/iot_link/os/liteos/base/include\__binary_tree.h ****      *
  58:C:/Users/²Ü¼ÒºÀ/.iotlink/sdk/IoT_LINK/iot_link/os/liteos/base/include\__binary_tree.h ****      * returning negative values means 'a < b' or 'n->k < k'
  59:C:/Users/²Ü¼ÒºÀ/.iotlink/sdk/IoT_LINK/iot_link/os/liteos/base/include\__binary_tree.h ****      * returning positive values means 'a > b' or 'n->k > k'
  60:C:/Users/²Ü¼ÒºÀ/.iotlink/sdk/IoT_LINK/iot_link/os/liteos/base/include\__binary_tree.h ****      * returning zero means 'a == b' or 'n->k == k'
  61:C:/Users/²Ü¼ÒºÀ/.iotlink/sdk/IoT_LINK/iot_link/os/liteos/base/include\__binary_tree.h ****      */
  62:C:/Users/²Ü¼ÒºÀ/.iotlink/sdk/IoT_LINK/iot_link/os/liteos/base/include\__binary_tree.h **** 
  63:C:/Users/²Ü¼ÒºÀ/.iotlink/sdk/IoT_LINK/iot_link/os/liteos/base/include\__binary_tree.h ****     int               (* compare_nn) (bi_node_t * a, bi_node_t * b);
  64:C:/Users/²Ü¼ÒºÀ/.iotlink/sdk/IoT_LINK/iot_link/os/liteos/base/include\__binary_tree.h ****     int               (* compare_nk) (bi_node_t * n, uintptr_t k);
  65:C:/Users/²Ü¼ÒºÀ/.iotlink/sdk/IoT_LINK/iot_link/os/liteos/base/include\__binary_tree.h **** } bi_tree_t;
  66:C:/Users/²Ü¼ÒºÀ/.iotlink/sdk/IoT_LINK/iot_link/os/liteos/base/include\__binary_tree.h **** 
  67:C:/Users/²Ü¼ÒºÀ/.iotlink/sdk/IoT_LINK/iot_link/os/liteos/base/include\__binary_tree.h **** /* defines */
  68:C:/Users/²Ü¼ÒºÀ/.iotlink/sdk/IoT_LINK/iot_link/os/liteos/base/include\__binary_tree.h **** 
  69:C:/Users/²Ü¼ÒºÀ/.iotlink/sdk/IoT_LINK/iot_link/os/liteos/base/include\__binary_tree.h **** /**
  70:C:/Users/²Ü¼ÒºÀ/.iotlink/sdk/IoT_LINK/iot_link/os/liteos/base/include\__binary_tree.h ****  * __bit_parent - get the parent for a node, assume n is not NULL
  71:C:/Users/²Ü¼ÒºÀ/.iotlink/sdk/IoT_LINK/iot_link/os/liteos/base/include\__binary_tree.h ****  * @n: the given node
  72:C:/Users/²Ü¼ÒºÀ/.iotlink/sdk/IoT_LINK/iot_link/os/liteos/base/include\__binary_tree.h ****  *
  73:C:/Users/²Ü¼ÒºÀ/.iotlink/sdk/IoT_LINK/iot_link/os/liteos/base/include\__binary_tree.h ****  * return: the parent of the node <n>
  74:C:/Users/²Ü¼ÒºÀ/.iotlink/sdk/IoT_LINK/iot_link/os/liteos/base/include\__binary_tree.h ****  */
  75:C:/Users/²Ü¼ÒºÀ/.iotlink/sdk/IoT_LINK/iot_link/os/liteos/base/include\__binary_tree.h **** 
  76:C:/Users/²Ü¼ÒºÀ/.iotlink/sdk/IoT_LINK/iot_link/os/liteos/base/include\__binary_tree.h **** static inline bi_node_t * __bit_parent (bi_node_t * n)
  77:C:/Users/²Ü¼ÒºÀ/.iotlink/sdk/IoT_LINK/iot_link/os/liteos/base/include\__binary_tree.h **** {
  78:C:/Users/²Ü¼ÒºÀ/.iotlink/sdk/IoT_LINK/iot_link/os/liteos/base/include\__binary_tree.h ****     return n->p;
  79:C:/Users/²Ü¼ÒºÀ/.iotlink/sdk/IoT_LINK/iot_link/os/liteos/base/include\__binary_tree.h **** }
  80:C:/Users/²Ü¼ÒºÀ/.iotlink/sdk/IoT_LINK/iot_link/os/liteos/base/include\__binary_tree.h **** 
  81:C:/Users/²Ü¼ÒºÀ/.iotlink/sdk/IoT_LINK/iot_link/os/liteos/base/include\__binary_tree.h **** /**
  82:C:/Users/²Ü¼ÒºÀ/.iotlink/sdk/IoT_LINK/iot_link/os/liteos/base/include\__binary_tree.h ****  * __bit_set_parent - set the parent for a node, assume n is not NULL
  83:C:/Users/²Ü¼ÒºÀ/.iotlink/sdk/IoT_LINK/iot_link/os/liteos/base/include\__binary_tree.h ****  * @n: the given node
  84:C:/Users/²Ü¼ÒºÀ/.iotlink/sdk/IoT_LINK/iot_link/os/liteos/base/include\__binary_tree.h ****  *
  85:C:/Users/²Ü¼ÒºÀ/.iotlink/sdk/IoT_LINK/iot_link/os/liteos/base/include\__binary_tree.h ****  * return: NA
  86:C:/Users/²Ü¼ÒºÀ/.iotlink/sdk/IoT_LINK/iot_link/os/liteos/base/include\__binary_tree.h ****  */
  87:C:/Users/²Ü¼ÒºÀ/.iotlink/sdk/IoT_LINK/iot_link/os/liteos/base/include\__binary_tree.h **** 
ARM GAS  C:\Users\²Ü¼ÒºÀ\AppData\Local\Temp\ccwaEIDi.s 			page 3


  88:C:/Users/²Ü¼ÒºÀ/.iotlink/sdk/IoT_LINK/iot_link/os/liteos/base/include\__binary_tree.h **** static inline void __bit_set_parent (bi_node_t * n, bi_node_t * p)
  89:C:/Users/²Ü¼ÒºÀ/.iotlink/sdk/IoT_LINK/iot_link/os/liteos/base/include\__binary_tree.h **** {
  90:C:/Users/²Ü¼ÒºÀ/.iotlink/sdk/IoT_LINK/iot_link/os/liteos/base/include\__binary_tree.h ****     n->p = p;
  91:C:/Users/²Ü¼ÒºÀ/.iotlink/sdk/IoT_LINK/iot_link/os/liteos/base/include\__binary_tree.h **** }
  92:C:/Users/²Ü¼ÒºÀ/.iotlink/sdk/IoT_LINK/iot_link/os/liteos/base/include\__binary_tree.h **** 
  93:C:/Users/²Ü¼ÒºÀ/.iotlink/sdk/IoT_LINK/iot_link/os/liteos/base/include\__binary_tree.h **** /**
  94:C:/Users/²Ü¼ÒºÀ/.iotlink/sdk/IoT_LINK/iot_link/os/liteos/base/include\__binary_tree.h ****  * __bit_raw_grand - get the grand parent for a node, assume n and p(n) are not NULL
  95:C:/Users/²Ü¼ÒºÀ/.iotlink/sdk/IoT_LINK/iot_link/os/liteos/base/include\__binary_tree.h ****  * @n: the given node
  96:C:/Users/²Ü¼ÒºÀ/.iotlink/sdk/IoT_LINK/iot_link/os/liteos/base/include\__binary_tree.h ****  *
  97:C:/Users/²Ü¼ÒºÀ/.iotlink/sdk/IoT_LINK/iot_link/os/liteos/base/include\__binary_tree.h ****  * return: the grand parent of the node <n>
  98:C:/Users/²Ü¼ÒºÀ/.iotlink/sdk/IoT_LINK/iot_link/os/liteos/base/include\__binary_tree.h ****  */
  99:C:/Users/²Ü¼ÒºÀ/.iotlink/sdk/IoT_LINK/iot_link/os/liteos/base/include\__binary_tree.h **** 
 100:C:/Users/²Ü¼ÒºÀ/.iotlink/sdk/IoT_LINK/iot_link/os/liteos/base/include\__binary_tree.h **** static inline bi_node_t * __bit_raw_grand (bi_node_t * n)
 101:C:/Users/²Ü¼ÒºÀ/.iotlink/sdk/IoT_LINK/iot_link/os/liteos/base/include\__binary_tree.h **** {
 102:C:/Users/²Ü¼ÒºÀ/.iotlink/sdk/IoT_LINK/iot_link/os/liteos/base/include\__binary_tree.h ****     return __bit_parent (__bit_parent (n));
 103:C:/Users/²Ü¼ÒºÀ/.iotlink/sdk/IoT_LINK/iot_link/os/liteos/base/include\__binary_tree.h **** }
 104:C:/Users/²Ü¼ÒºÀ/.iotlink/sdk/IoT_LINK/iot_link/os/liteos/base/include\__binary_tree.h **** 
 105:C:/Users/²Ü¼ÒºÀ/.iotlink/sdk/IoT_LINK/iot_link/os/liteos/base/include\__binary_tree.h **** /**
 106:C:/Users/²Ü¼ÒºÀ/.iotlink/sdk/IoT_LINK/iot_link/os/liteos/base/include\__binary_tree.h ****  * __bit_grand - get the grand parent for a node
 107:C:/Users/²Ü¼ÒºÀ/.iotlink/sdk/IoT_LINK/iot_link/os/liteos/base/include\__binary_tree.h ****  * @n: the given node
 108:C:/Users/²Ü¼ÒºÀ/.iotlink/sdk/IoT_LINK/iot_link/os/liteos/base/include\__binary_tree.h ****  *
 109:C:/Users/²Ü¼ÒºÀ/.iotlink/sdk/IoT_LINK/iot_link/os/liteos/base/include\__binary_tree.h ****  * return: the grand parent of the node <n>, NULL if n or p(n) is NULL
 110:C:/Users/²Ü¼ÒºÀ/.iotlink/sdk/IoT_LINK/iot_link/os/liteos/base/include\__binary_tree.h ****  */
 111:C:/Users/²Ü¼ÒºÀ/.iotlink/sdk/IoT_LINK/iot_link/os/liteos/base/include\__binary_tree.h **** 
 112:C:/Users/²Ü¼ÒºÀ/.iotlink/sdk/IoT_LINK/iot_link/os/liteos/base/include\__binary_tree.h **** static inline bi_node_t * __bit_grand (bi_node_t * n)
 113:C:/Users/²Ü¼ÒºÀ/.iotlink/sdk/IoT_LINK/iot_link/os/liteos/base/include\__binary_tree.h **** {
 114:C:/Users/²Ü¼ÒºÀ/.iotlink/sdk/IoT_LINK/iot_link/os/liteos/base/include\__binary_tree.h ****     bi_node_t * p;
 115:C:/Users/²Ü¼ÒºÀ/.iotlink/sdk/IoT_LINK/iot_link/os/liteos/base/include\__binary_tree.h **** 
 116:C:/Users/²Ü¼ÒºÀ/.iotlink/sdk/IoT_LINK/iot_link/os/liteos/base/include\__binary_tree.h ****     if ((n == NULL) || ((p = __bit_parent (n)) == NULL))
 117:C:/Users/²Ü¼ÒºÀ/.iotlink/sdk/IoT_LINK/iot_link/os/liteos/base/include\__binary_tree.h ****     {
 118:C:/Users/²Ü¼ÒºÀ/.iotlink/sdk/IoT_LINK/iot_link/os/liteos/base/include\__binary_tree.h ****         return NULL;
 119:C:/Users/²Ü¼ÒºÀ/.iotlink/sdk/IoT_LINK/iot_link/os/liteos/base/include\__binary_tree.h ****     }
 120:C:/Users/²Ü¼ÒºÀ/.iotlink/sdk/IoT_LINK/iot_link/os/liteos/base/include\__binary_tree.h **** 
 121:C:/Users/²Ü¼ÒºÀ/.iotlink/sdk/IoT_LINK/iot_link/os/liteos/base/include\__binary_tree.h ****     return __bit_parent (p);
 122:C:/Users/²Ü¼ÒºÀ/.iotlink/sdk/IoT_LINK/iot_link/os/liteos/base/include\__binary_tree.h **** }
 123:C:/Users/²Ü¼ÒºÀ/.iotlink/sdk/IoT_LINK/iot_link/os/liteos/base/include\__binary_tree.h **** 
 124:C:/Users/²Ü¼ÒºÀ/.iotlink/sdk/IoT_LINK/iot_link/os/liteos/base/include\__binary_tree.h **** /**
 125:C:/Users/²Ü¼ÒºÀ/.iotlink/sdk/IoT_LINK/iot_link/os/liteos/base/include\__binary_tree.h ****  * __bit_raw_uncle - get the uncle for a node, assume n, p(n) and g(n) are not NULL
 126:C:/Users/²Ü¼ÒºÀ/.iotlink/sdk/IoT_LINK/iot_link/os/liteos/base/include\__binary_tree.h ****  * @n: the given node
 127:C:/Users/²Ü¼ÒºÀ/.iotlink/sdk/IoT_LINK/iot_link/os/liteos/base/include\__binary_tree.h ****  *
 128:C:/Users/²Ü¼ÒºÀ/.iotlink/sdk/IoT_LINK/iot_link/os/liteos/base/include\__binary_tree.h ****  * return: the uncle of the node <n>
 129:C:/Users/²Ü¼ÒºÀ/.iotlink/sdk/IoT_LINK/iot_link/os/liteos/base/include\__binary_tree.h ****  */
 130:C:/Users/²Ü¼ÒºÀ/.iotlink/sdk/IoT_LINK/iot_link/os/liteos/base/include\__binary_tree.h **** 
 131:C:/Users/²Ü¼ÒºÀ/.iotlink/sdk/IoT_LINK/iot_link/os/liteos/base/include\__binary_tree.h **** static inline bi_node_t * __bit_raw_uncle (bi_node_t * n)
 132:C:/Users/²Ü¼ÒºÀ/.iotlink/sdk/IoT_LINK/iot_link/os/liteos/base/include\__binary_tree.h **** {
 133:C:/Users/²Ü¼ÒºÀ/.iotlink/sdk/IoT_LINK/iot_link/os/liteos/base/include\__binary_tree.h ****     bi_node_t * p = __bit_parent (n);
 134:C:/Users/²Ü¼ÒºÀ/.iotlink/sdk/IoT_LINK/iot_link/os/liteos/base/include\__binary_tree.h ****     bi_node_t * g = __bit_raw_grand (n);
 135:C:/Users/²Ü¼ÒºÀ/.iotlink/sdk/IoT_LINK/iot_link/os/liteos/base/include\__binary_tree.h **** 
 136:C:/Users/²Ü¼ÒºÀ/.iotlink/sdk/IoT_LINK/iot_link/os/liteos/base/include\__binary_tree.h ****     return p == g->l ? g->r : g->l;
 137:C:/Users/²Ü¼ÒºÀ/.iotlink/sdk/IoT_LINK/iot_link/os/liteos/base/include\__binary_tree.h **** }
 138:C:/Users/²Ü¼ÒºÀ/.iotlink/sdk/IoT_LINK/iot_link/os/liteos/base/include\__binary_tree.h **** 
 139:C:/Users/²Ü¼ÒºÀ/.iotlink/sdk/IoT_LINK/iot_link/os/liteos/base/include\__binary_tree.h **** /**
 140:C:/Users/²Ü¼ÒºÀ/.iotlink/sdk/IoT_LINK/iot_link/os/liteos/base/include\__binary_tree.h ****  * __bit_uncle - get the uncle for a node
 141:C:/Users/²Ü¼ÒºÀ/.iotlink/sdk/IoT_LINK/iot_link/os/liteos/base/include\__binary_tree.h ****  * @n: the given node
 142:C:/Users/²Ü¼ÒºÀ/.iotlink/sdk/IoT_LINK/iot_link/os/liteos/base/include\__binary_tree.h ****  *
 143:C:/Users/²Ü¼ÒºÀ/.iotlink/sdk/IoT_LINK/iot_link/os/liteos/base/include\__binary_tree.h ****  * return: the uncle of the node <n>, NULL if n, p(n) or g(n) is NULL
 144:C:/Users/²Ü¼ÒºÀ/.iotlink/sdk/IoT_LINK/iot_link/os/liteos/base/include\__binary_tree.h ****  */
ARM GAS  C:\Users\²Ü¼ÒºÀ\AppData\Local\Temp\ccwaEIDi.s 			page 4


 145:C:/Users/²Ü¼ÒºÀ/.iotlink/sdk/IoT_LINK/iot_link/os/liteos/base/include\__binary_tree.h **** 
 146:C:/Users/²Ü¼ÒºÀ/.iotlink/sdk/IoT_LINK/iot_link/os/liteos/base/include\__binary_tree.h **** static inline bi_node_t * __bit_uncle (bi_node_t * n)
 147:C:/Users/²Ü¼ÒºÀ/.iotlink/sdk/IoT_LINK/iot_link/os/liteos/base/include\__binary_tree.h **** {
 148:C:/Users/²Ü¼ÒºÀ/.iotlink/sdk/IoT_LINK/iot_link/os/liteos/base/include\__binary_tree.h ****     bi_node_t * p;
 149:C:/Users/²Ü¼ÒºÀ/.iotlink/sdk/IoT_LINK/iot_link/os/liteos/base/include\__binary_tree.h ****     bi_node_t * g;
 150:C:/Users/²Ü¼ÒºÀ/.iotlink/sdk/IoT_LINK/iot_link/os/liteos/base/include\__binary_tree.h **** 
 151:C:/Users/²Ü¼ÒºÀ/.iotlink/sdk/IoT_LINK/iot_link/os/liteos/base/include\__binary_tree.h ****     if (n == NULL)
 152:C:/Users/²Ü¼ÒºÀ/.iotlink/sdk/IoT_LINK/iot_link/os/liteos/base/include\__binary_tree.h ****     {
 153:C:/Users/²Ü¼ÒºÀ/.iotlink/sdk/IoT_LINK/iot_link/os/liteos/base/include\__binary_tree.h ****         return NULL;
 154:C:/Users/²Ü¼ÒºÀ/.iotlink/sdk/IoT_LINK/iot_link/os/liteos/base/include\__binary_tree.h ****     }
 155:C:/Users/²Ü¼ÒºÀ/.iotlink/sdk/IoT_LINK/iot_link/os/liteos/base/include\__binary_tree.h **** 
 156:C:/Users/²Ü¼ÒºÀ/.iotlink/sdk/IoT_LINK/iot_link/os/liteos/base/include\__binary_tree.h ****     if ((p = __bit_parent (n)) == NULL)
 157:C:/Users/²Ü¼ÒºÀ/.iotlink/sdk/IoT_LINK/iot_link/os/liteos/base/include\__binary_tree.h ****     {
 158:C:/Users/²Ü¼ÒºÀ/.iotlink/sdk/IoT_LINK/iot_link/os/liteos/base/include\__binary_tree.h ****         return NULL;
 159:C:/Users/²Ü¼ÒºÀ/.iotlink/sdk/IoT_LINK/iot_link/os/liteos/base/include\__binary_tree.h ****     }
 160:C:/Users/²Ü¼ÒºÀ/.iotlink/sdk/IoT_LINK/iot_link/os/liteos/base/include\__binary_tree.h **** 
 161:C:/Users/²Ü¼ÒºÀ/.iotlink/sdk/IoT_LINK/iot_link/os/liteos/base/include\__binary_tree.h ****     if ((g = __bit_parent (p)) == NULL)
 162:C:/Users/²Ü¼ÒºÀ/.iotlink/sdk/IoT_LINK/iot_link/os/liteos/base/include\__binary_tree.h ****     {
 163:C:/Users/²Ü¼ÒºÀ/.iotlink/sdk/IoT_LINK/iot_link/os/liteos/base/include\__binary_tree.h ****         return NULL;
 164:C:/Users/²Ü¼ÒºÀ/.iotlink/sdk/IoT_LINK/iot_link/os/liteos/base/include\__binary_tree.h ****     }
 165:C:/Users/²Ü¼ÒºÀ/.iotlink/sdk/IoT_LINK/iot_link/os/liteos/base/include\__binary_tree.h **** 
 166:C:/Users/²Ü¼ÒºÀ/.iotlink/sdk/IoT_LINK/iot_link/os/liteos/base/include\__binary_tree.h ****     return p == g->l ? g->r : g->l;
 167:C:/Users/²Ü¼ÒºÀ/.iotlink/sdk/IoT_LINK/iot_link/os/liteos/base/include\__binary_tree.h **** }
 168:C:/Users/²Ü¼ÒºÀ/.iotlink/sdk/IoT_LINK/iot_link/os/liteos/base/include\__binary_tree.h **** 
 169:C:/Users/²Ü¼ÒºÀ/.iotlink/sdk/IoT_LINK/iot_link/os/liteos/base/include\__binary_tree.h **** /**
 170:C:/Users/²Ü¼ÒºÀ/.iotlink/sdk/IoT_LINK/iot_link/os/liteos/base/include\__binary_tree.h ****  * __bit_successor - the successor node of a node
 171:C:/Users/²Ü¼ÒºÀ/.iotlink/sdk/IoT_LINK/iot_link/os/liteos/base/include\__binary_tree.h ****  * @n: the given node
 172:C:/Users/²Ü¼ÒºÀ/.iotlink/sdk/IoT_LINK/iot_link/os/liteos/base/include\__binary_tree.h ****  *
 173:C:/Users/²Ü¼ÒºÀ/.iotlink/sdk/IoT_LINK/iot_link/os/liteos/base/include\__binary_tree.h ****  * return: the successor of <n>
 174:C:/Users/²Ü¼ÒºÀ/.iotlink/sdk/IoT_LINK/iot_link/os/liteos/base/include\__binary_tree.h ****  */
 175:C:/Users/²Ü¼ÒºÀ/.iotlink/sdk/IoT_LINK/iot_link/os/liteos/base/include\__binary_tree.h **** 
 176:C:/Users/²Ü¼ÒºÀ/.iotlink/sdk/IoT_LINK/iot_link/os/liteos/base/include\__binary_tree.h **** static inline bi_node_t * __bit_successor (bi_node_t * n)
 177:C:/Users/²Ü¼ÒºÀ/.iotlink/sdk/IoT_LINK/iot_link/os/liteos/base/include\__binary_tree.h **** {
  29              		.loc 1 177 1 view -0
  30              		.cfi_startproc
  31              		@ args = 0, pretend = 0, frame = 0
  32              		@ frame_needed = 0, uses_anonymous_args = 0
  33              		@ link register save eliminated.
 178:C:/Users/²Ü¼ÒºÀ/.iotlink/sdk/IoT_LINK/iot_link/os/liteos/base/include\__binary_tree.h ****     bi_node_t * s = n->r;
  34              		.loc 1 178 5 view .LVU1
  35              		.loc 1 178 17 is_stmt 0 view .LVU2
  36 0000 8368     		ldr	r3, [r0, #8]
  37              	.LVL1:
 179:C:/Users/²Ü¼ÒºÀ/.iotlink/sdk/IoT_LINK/iot_link/os/liteos/base/include\__binary_tree.h **** 
 180:C:/Users/²Ü¼ÒºÀ/.iotlink/sdk/IoT_LINK/iot_link/os/liteos/base/include\__binary_tree.h ****     if (s != NULL)
  38              		.loc 1 180 5 is_stmt 1 view .LVU3
  39              		.loc 1 180 8 is_stmt 0 view .LVU4
  40 0002 23B1     		cbz	r3, .L2
  41              	.LVL2:
  42              	.L3:
 181:C:/Users/²Ü¼ÒºÀ/.iotlink/sdk/IoT_LINK/iot_link/os/liteos/base/include\__binary_tree.h ****     {
 182:C:/Users/²Ü¼ÒºÀ/.iotlink/sdk/IoT_LINK/iot_link/os/liteos/base/include\__binary_tree.h ****         while (s->l)
  43              		.loc 1 182 15 is_stmt 1 view .LVU5
  44 0004 1846     		mov	r0, r3
  45              		.loc 1 182 17 is_stmt 0 view .LVU6
  46 0006 5B68     		ldr	r3, [r3, #4]
  47              	.LVL3:
ARM GAS  C:\Users\²Ü¼ÒºÀ\AppData\Local\Temp\ccwaEIDi.s 			page 5


  48              		.loc 1 182 15 view .LVU7
  49 0008 002B     		cmp	r3, #0
  50 000a FBD1     		bne	.L3
  51 000c 7047     		bx	lr
  52              	.LVL4:
  53              	.L2:
 183:C:/Users/²Ü¼ÒºÀ/.iotlink/sdk/IoT_LINK/iot_link/os/liteos/base/include\__binary_tree.h ****         {
 184:C:/Users/²Ü¼ÒºÀ/.iotlink/sdk/IoT_LINK/iot_link/os/liteos/base/include\__binary_tree.h ****             s = s->l;
 185:C:/Users/²Ü¼ÒºÀ/.iotlink/sdk/IoT_LINK/iot_link/os/liteos/base/include\__binary_tree.h ****         }
 186:C:/Users/²Ü¼ÒºÀ/.iotlink/sdk/IoT_LINK/iot_link/os/liteos/base/include\__binary_tree.h **** 
 187:C:/Users/²Ü¼ÒºÀ/.iotlink/sdk/IoT_LINK/iot_link/os/liteos/base/include\__binary_tree.h ****         return s;
 188:C:/Users/²Ü¼ÒºÀ/.iotlink/sdk/IoT_LINK/iot_link/os/liteos/base/include\__binary_tree.h ****     }
 189:C:/Users/²Ü¼ÒºÀ/.iotlink/sdk/IoT_LINK/iot_link/os/liteos/base/include\__binary_tree.h **** 
 190:C:/Users/²Ü¼ÒºÀ/.iotlink/sdk/IoT_LINK/iot_link/os/liteos/base/include\__binary_tree.h ****     while (n->p && (n == n->p->r))
  54              		.loc 1 190 11 is_stmt 1 view .LVU8
  55 000e 0346     		mov	r3, r0
  56              		.loc 1 190 13 is_stmt 0 view .LVU9
  57 0010 0068     		ldr	r0, [r0]
  58              	.LVL5:
  59              		.loc 1 190 11 view .LVU10
  60 0012 10B1     		cbz	r0, .L4
  61              		.loc 1 190 17 discriminator 1 view .LVU11
  62 0014 8268     		ldr	r2, [r0, #8]
  63 0016 9A42     		cmp	r2, r3
  64 0018 F9D0     		beq	.L2
  65              	.L4:
 191:C:/Users/²Ü¼ÒºÀ/.iotlink/sdk/IoT_LINK/iot_link/os/liteos/base/include\__binary_tree.h ****     {
 192:C:/Users/²Ü¼ÒºÀ/.iotlink/sdk/IoT_LINK/iot_link/os/liteos/base/include\__binary_tree.h ****         n = n->p;
 193:C:/Users/²Ü¼ÒºÀ/.iotlink/sdk/IoT_LINK/iot_link/os/liteos/base/include\__binary_tree.h ****     }
 194:C:/Users/²Ü¼ÒºÀ/.iotlink/sdk/IoT_LINK/iot_link/os/liteos/base/include\__binary_tree.h **** 
 195:C:/Users/²Ü¼ÒºÀ/.iotlink/sdk/IoT_LINK/iot_link/os/liteos/base/include\__binary_tree.h ****     return n->p;
 196:C:/Users/²Ü¼ÒºÀ/.iotlink/sdk/IoT_LINK/iot_link/os/liteos/base/include\__binary_tree.h **** }
  66              		.loc 1 196 1 view .LVU12
  67 001a 7047     		bx	lr
  68              		.cfi_endproc
  69              	.LFE6:
  71              		.section	.text.__is_black,"ax",%progbits
  72              		.align	1
  73              		.syntax unified
  74              		.thumb
  75              		.thumb_func
  76              		.fpu fpv4-sp-d16
  78              	__is_black:
  79              	.LVL6:
  80              	.LFB25:
  81              		.file 2 "C:/Users/\262\334\274\322\272\300/.iotlink/sdk/IoT_LINK/iot_link/os/liteos/utils/rbtree.c
   1:C:/Users/²Ü¼ÒºÀ/.iotlink/sdk/IoT_LINK/iot_link/os/liteos/utils\rbtree.c **** /*----------------------------------------------------------------------------
   2:C:/Users/²Ü¼ÒºÀ/.iotlink/sdk/IoT_LINK/iot_link/os/liteos/utils\rbtree.c ****  * Copyright (c) <2018>, <Huawei Technologies Co., Ltd>
   3:C:/Users/²Ü¼ÒºÀ/.iotlink/sdk/IoT_LINK/iot_link/os/liteos/utils\rbtree.c ****  * All rights reserved.
   4:C:/Users/²Ü¼ÒºÀ/.iotlink/sdk/IoT_LINK/iot_link/os/liteos/utils\rbtree.c ****  * Redistribution and use in source and binary forms, with or without modification,
   5:C:/Users/²Ü¼ÒºÀ/.iotlink/sdk/IoT_LINK/iot_link/os/liteos/utils\rbtree.c ****  * are permitted provided that the following conditions are met:
   6:C:/Users/²Ü¼ÒºÀ/.iotlink/sdk/IoT_LINK/iot_link/os/liteos/utils\rbtree.c ****  * 1. Redistributions of source code must retain the above copyright notice, this list of
   7:C:/Users/²Ü¼ÒºÀ/.iotlink/sdk/IoT_LINK/iot_link/os/liteos/utils\rbtree.c ****  * conditions and the following disclaimer.
   8:C:/Users/²Ü¼ÒºÀ/.iotlink/sdk/IoT_LINK/iot_link/os/liteos/utils\rbtree.c ****  * 2. Redistributions in binary form must reproduce the above copyright notice, this list
   9:C:/Users/²Ü¼ÒºÀ/.iotlink/sdk/IoT_LINK/iot_link/os/liteos/utils\rbtree.c ****  * of conditions and the following disclaimer in the documentation and/or other materials
  10:C:/Users/²Ü¼ÒºÀ/.iotlink/sdk/IoT_LINK/iot_link/os/liteos/utils\rbtree.c ****  * provided with the distribution.
  11:C:/Users/²Ü¼ÒºÀ/.iotlink/sdk/IoT_LINK/iot_link/os/liteos/utils\rbtree.c ****  * 3. Neither the name of the copyright holder nor the names of its contributors may be used
ARM GAS  C:\Users\²Ü¼ÒºÀ\AppData\Local\Temp\ccwaEIDi.s 			page 6


  12:C:/Users/²Ü¼ÒºÀ/.iotlink/sdk/IoT_LINK/iot_link/os/liteos/utils\rbtree.c ****  * to endorse or promote products derived from this software without specific prior written
  13:C:/Users/²Ü¼ÒºÀ/.iotlink/sdk/IoT_LINK/iot_link/os/liteos/utils\rbtree.c ****  * permission.
  14:C:/Users/²Ü¼ÒºÀ/.iotlink/sdk/IoT_LINK/iot_link/os/liteos/utils\rbtree.c ****  * THIS SOFTWARE IS PROVIDED BY THE COPYRIGHT HOLDERS AND CONTRIBUTORS
  15:C:/Users/²Ü¼ÒºÀ/.iotlink/sdk/IoT_LINK/iot_link/os/liteos/utils\rbtree.c ****  * "AS IS" AND ANY EXPRESS OR IMPLIED WARRANTIES, INCLUDING, BUT NOT LIMITED TO,
  16:C:/Users/²Ü¼ÒºÀ/.iotlink/sdk/IoT_LINK/iot_link/os/liteos/utils\rbtree.c ****  * THE IMPLIED WARRANTIES OF MERCHANTABILITY AND FITNESS FOR A PARTICULAR
  17:C:/Users/²Ü¼ÒºÀ/.iotlink/sdk/IoT_LINK/iot_link/os/liteos/utils\rbtree.c ****  * PURPOSE ARE DISCLAIMED. IN NO EVENT SHALL THE COPYRIGHT HOLDER OR
  18:C:/Users/²Ü¼ÒºÀ/.iotlink/sdk/IoT_LINK/iot_link/os/liteos/utils\rbtree.c ****  * CONTRIBUTORS BE LIABLE FOR ANY DIRECT, INDIRECT, INCIDENTAL, SPECIAL,
  19:C:/Users/²Ü¼ÒºÀ/.iotlink/sdk/IoT_LINK/iot_link/os/liteos/utils\rbtree.c ****  * EXEMPLARY, OR CONSEQUENTIAL DAMAGES (INCLUDING, BUT NOT LIMITED TO,
  20:C:/Users/²Ü¼ÒºÀ/.iotlink/sdk/IoT_LINK/iot_link/os/liteos/utils\rbtree.c ****  * PROCUREMENT OF SUBSTITUTE GOODS OR SERVICES; LOSS OF USE, DATA, OR PROFITS;
  21:C:/Users/²Ü¼ÒºÀ/.iotlink/sdk/IoT_LINK/iot_link/os/liteos/utils\rbtree.c ****  * OR BUSINESS INTERRUPTION) HOWEVER CAUSED AND ON ANY THEORY OF LIABILITY,
  22:C:/Users/²Ü¼ÒºÀ/.iotlink/sdk/IoT_LINK/iot_link/os/liteos/utils\rbtree.c ****  * WHETHER IN CONTRACT, STRICT LIABILITY, OR TORT (INCLUDING NEGLIGENCE OR
  23:C:/Users/²Ü¼ÒºÀ/.iotlink/sdk/IoT_LINK/iot_link/os/liteos/utils\rbtree.c ****  * OTHERWISE) ARISING IN ANY WAY OUT OF THE USE OF THIS SOFTWARE, EVEN IF
  24:C:/Users/²Ü¼ÒºÀ/.iotlink/sdk/IoT_LINK/iot_link/os/liteos/utils\rbtree.c ****  * ADVISED OF THE POSSIBILITY OF SUCH DAMAGE.
  25:C:/Users/²Ü¼ÒºÀ/.iotlink/sdk/IoT_LINK/iot_link/os/liteos/utils\rbtree.c ****  *---------------------------------------------------------------------------*/
  26:C:/Users/²Ü¼ÒºÀ/.iotlink/sdk/IoT_LINK/iot_link/os/liteos/utils\rbtree.c **** /*----------------------------------------------------------------------------
  27:C:/Users/²Ü¼ÒºÀ/.iotlink/sdk/IoT_LINK/iot_link/os/liteos/utils\rbtree.c ****  * Notice of Export Control Law
  28:C:/Users/²Ü¼ÒºÀ/.iotlink/sdk/IoT_LINK/iot_link/os/liteos/utils\rbtree.c ****  * ===============================================
  29:C:/Users/²Ü¼ÒºÀ/.iotlink/sdk/IoT_LINK/iot_link/os/liteos/utils\rbtree.c ****  * Huawei LiteOS may be subject to applicable export control laws and regulations, which might
  30:C:/Users/²Ü¼ÒºÀ/.iotlink/sdk/IoT_LINK/iot_link/os/liteos/utils\rbtree.c ****  * include those applicable to Huawei LiteOS of U.S. and the country in which you are located.
  31:C:/Users/²Ü¼ÒºÀ/.iotlink/sdk/IoT_LINK/iot_link/os/liteos/utils\rbtree.c ****  * Import, export and usage of Huawei LiteOS in any manner by you shall be in compliance with such
  32:C:/Users/²Ü¼ÒºÀ/.iotlink/sdk/IoT_LINK/iot_link/os/liteos/utils\rbtree.c ****  * applicable export control laws and regulations.
  33:C:/Users/²Ü¼ÒºÀ/.iotlink/sdk/IoT_LINK/iot_link/os/liteos/utils\rbtree.c ****  *---------------------------------------------------------------------------*/
  34:C:/Users/²Ü¼ÒºÀ/.iotlink/sdk/IoT_LINK/iot_link/os/liteos/utils\rbtree.c **** 
  35:C:/Users/²Ü¼ÒºÀ/.iotlink/sdk/IoT_LINK/iot_link/os/liteos/utils\rbtree.c **** #include <stdbool.h>
  36:C:/Users/²Ü¼ÒºÀ/.iotlink/sdk/IoT_LINK/iot_link/os/liteos/utils\rbtree.c **** 
  37:C:/Users/²Ü¼ÒºÀ/.iotlink/sdk/IoT_LINK/iot_link/os/liteos/utils\rbtree.c **** #include <rbtree.h>
  38:C:/Users/²Ü¼ÒºÀ/.iotlink/sdk/IoT_LINK/iot_link/os/liteos/utils\rbtree.c **** 
  39:C:/Users/²Ü¼ÒºÀ/.iotlink/sdk/IoT_LINK/iot_link/os/liteos/utils\rbtree.c **** /* defines */
  40:C:/Users/²Ü¼ÒºÀ/.iotlink/sdk/IoT_LINK/iot_link/os/liteos/utils\rbtree.c **** 
  41:C:/Users/²Ü¼ÒºÀ/.iotlink/sdk/IoT_LINK/iot_link/os/liteos/utils\rbtree.c **** /* inlines */
  42:C:/Users/²Ü¼ÒºÀ/.iotlink/sdk/IoT_LINK/iot_link/os/liteos/utils\rbtree.c **** 
  43:C:/Users/²Ü¼ÒºÀ/.iotlink/sdk/IoT_LINK/iot_link/os/liteos/utils\rbtree.c **** /**
  44:C:/Users/²Ü¼ÒºÀ/.iotlink/sdk/IoT_LINK/iot_link/os/liteos/utils\rbtree.c ****  * __color - get the color of a given node
  45:C:/Users/²Ü¼ÒºÀ/.iotlink/sdk/IoT_LINK/iot_link/os/liteos/utils\rbtree.c ****  * @n: the given node
  46:C:/Users/²Ü¼ÒºÀ/.iotlink/sdk/IoT_LINK/iot_link/os/liteos/utils\rbtree.c ****  *
  47:C:/Users/²Ü¼ÒºÀ/.iotlink/sdk/IoT_LINK/iot_link/os/liteos/utils\rbtree.c ****  * return: the color of <n>
  48:C:/Users/²Ü¼ÒºÀ/.iotlink/sdk/IoT_LINK/iot_link/os/liteos/utils\rbtree.c ****  */
  49:C:/Users/²Ü¼ÒºÀ/.iotlink/sdk/IoT_LINK/iot_link/os/liteos/utils\rbtree.c **** 
  50:C:/Users/²Ü¼ÒºÀ/.iotlink/sdk/IoT_LINK/iot_link/os/liteos/utils\rbtree.c **** static inline int __color (rb_node_t * n)
  51:C:/Users/²Ü¼ÒºÀ/.iotlink/sdk/IoT_LINK/iot_link/os/liteos/utils\rbtree.c **** {
  52:C:/Users/²Ü¼ÒºÀ/.iotlink/sdk/IoT_LINK/iot_link/os/liteos/utils\rbtree.c ****     return n->c;
  53:C:/Users/²Ü¼ÒºÀ/.iotlink/sdk/IoT_LINK/iot_link/os/liteos/utils\rbtree.c **** }
  54:C:/Users/²Ü¼ÒºÀ/.iotlink/sdk/IoT_LINK/iot_link/os/liteos/utils\rbtree.c **** 
  55:C:/Users/²Ü¼ÒºÀ/.iotlink/sdk/IoT_LINK/iot_link/os/liteos/utils\rbtree.c **** /**
  56:C:/Users/²Ü¼ÒºÀ/.iotlink/sdk/IoT_LINK/iot_link/os/liteos/utils\rbtree.c ****  * __raw_is_red - check if a node is red, assume <n> is not NULL
  57:C:/Users/²Ü¼ÒºÀ/.iotlink/sdk/IoT_LINK/iot_link/os/liteos/utils\rbtree.c ****  * @n: the given node
  58:C:/Users/²Ü¼ÒºÀ/.iotlink/sdk/IoT_LINK/iot_link/os/liteos/utils\rbtree.c ****  *
  59:C:/Users/²Ü¼ÒºÀ/.iotlink/sdk/IoT_LINK/iot_link/os/liteos/utils\rbtree.c ****  * return: true if <n> is red, false if not.
  60:C:/Users/²Ü¼ÒºÀ/.iotlink/sdk/IoT_LINK/iot_link/os/liteos/utils\rbtree.c ****  */
  61:C:/Users/²Ü¼ÒºÀ/.iotlink/sdk/IoT_LINK/iot_link/os/liteos/utils\rbtree.c **** 
  62:C:/Users/²Ü¼ÒºÀ/.iotlink/sdk/IoT_LINK/iot_link/os/liteos/utils\rbtree.c **** static inline int __raw_is_red (rb_node_t * n)
  63:C:/Users/²Ü¼ÒºÀ/.iotlink/sdk/IoT_LINK/iot_link/os/liteos/utils\rbtree.c **** {
  64:C:/Users/²Ü¼ÒºÀ/.iotlink/sdk/IoT_LINK/iot_link/os/liteos/utils\rbtree.c ****     return __color (n) == RBTREE_RED;
  65:C:/Users/²Ü¼ÒºÀ/.iotlink/sdk/IoT_LINK/iot_link/os/liteos/utils\rbtree.c **** }
  66:C:/Users/²Ü¼ÒºÀ/.iotlink/sdk/IoT_LINK/iot_link/os/liteos/utils\rbtree.c **** 
  67:C:/Users/²Ü¼ÒºÀ/.iotlink/sdk/IoT_LINK/iot_link/os/liteos/utils\rbtree.c **** /**
  68:C:/Users/²Ü¼ÒºÀ/.iotlink/sdk/IoT_LINK/iot_link/os/liteos/utils\rbtree.c ****  * __is_red - check if a node is red
ARM GAS  C:\Users\²Ü¼ÒºÀ\AppData\Local\Temp\ccwaEIDi.s 			page 7


  69:C:/Users/²Ü¼ÒºÀ/.iotlink/sdk/IoT_LINK/iot_link/os/liteos/utils\rbtree.c ****  * @n: the given node
  70:C:/Users/²Ü¼ÒºÀ/.iotlink/sdk/IoT_LINK/iot_link/os/liteos/utils\rbtree.c ****  *
  71:C:/Users/²Ü¼ÒºÀ/.iotlink/sdk/IoT_LINK/iot_link/os/liteos/utils\rbtree.c ****  * return: true if <n> is red, false if not, or <n> is NULL.
  72:C:/Users/²Ü¼ÒºÀ/.iotlink/sdk/IoT_LINK/iot_link/os/liteos/utils\rbtree.c ****  */
  73:C:/Users/²Ü¼ÒºÀ/.iotlink/sdk/IoT_LINK/iot_link/os/liteos/utils\rbtree.c **** 
  74:C:/Users/²Ü¼ÒºÀ/.iotlink/sdk/IoT_LINK/iot_link/os/liteos/utils\rbtree.c **** static inline int __is_red (rb_node_t * n)
  75:C:/Users/²Ü¼ÒºÀ/.iotlink/sdk/IoT_LINK/iot_link/os/liteos/utils\rbtree.c **** {
  76:C:/Users/²Ü¼ÒºÀ/.iotlink/sdk/IoT_LINK/iot_link/os/liteos/utils\rbtree.c ****     return (n != NULL) && __raw_is_red (n);
  77:C:/Users/²Ü¼ÒºÀ/.iotlink/sdk/IoT_LINK/iot_link/os/liteos/utils\rbtree.c **** }
  78:C:/Users/²Ü¼ÒºÀ/.iotlink/sdk/IoT_LINK/iot_link/os/liteos/utils\rbtree.c **** 
  79:C:/Users/²Ü¼ÒºÀ/.iotlink/sdk/IoT_LINK/iot_link/os/liteos/utils\rbtree.c **** /**
  80:C:/Users/²Ü¼ÒºÀ/.iotlink/sdk/IoT_LINK/iot_link/os/liteos/utils\rbtree.c ****  * __raw_is_black - check if a node is black, assume <n> is not NULL
  81:C:/Users/²Ü¼ÒºÀ/.iotlink/sdk/IoT_LINK/iot_link/os/liteos/utils\rbtree.c ****  * @n: the given node
  82:C:/Users/²Ü¼ÒºÀ/.iotlink/sdk/IoT_LINK/iot_link/os/liteos/utils\rbtree.c ****  *
  83:C:/Users/²Ü¼ÒºÀ/.iotlink/sdk/IoT_LINK/iot_link/os/liteos/utils\rbtree.c ****  * return: true if <n> is red, false if not.
  84:C:/Users/²Ü¼ÒºÀ/.iotlink/sdk/IoT_LINK/iot_link/os/liteos/utils\rbtree.c ****  */
  85:C:/Users/²Ü¼ÒºÀ/.iotlink/sdk/IoT_LINK/iot_link/os/liteos/utils\rbtree.c **** 
  86:C:/Users/²Ü¼ÒºÀ/.iotlink/sdk/IoT_LINK/iot_link/os/liteos/utils\rbtree.c **** static inline int __raw_is_black (rb_node_t * n)
  87:C:/Users/²Ü¼ÒºÀ/.iotlink/sdk/IoT_LINK/iot_link/os/liteos/utils\rbtree.c **** {
  88:C:/Users/²Ü¼ÒºÀ/.iotlink/sdk/IoT_LINK/iot_link/os/liteos/utils\rbtree.c ****     return __color (n) == RBTREE_BLACK;
  89:C:/Users/²Ü¼ÒºÀ/.iotlink/sdk/IoT_LINK/iot_link/os/liteos/utils\rbtree.c **** }
  90:C:/Users/²Ü¼ÒºÀ/.iotlink/sdk/IoT_LINK/iot_link/os/liteos/utils\rbtree.c **** 
  91:C:/Users/²Ü¼ÒºÀ/.iotlink/sdk/IoT_LINK/iot_link/os/liteos/utils\rbtree.c **** /**
  92:C:/Users/²Ü¼ÒºÀ/.iotlink/sdk/IoT_LINK/iot_link/os/liteos/utils\rbtree.c ****  * __is_black - check if a node is black
  93:C:/Users/²Ü¼ÒºÀ/.iotlink/sdk/IoT_LINK/iot_link/os/liteos/utils\rbtree.c ****  * @n: the given node
  94:C:/Users/²Ü¼ÒºÀ/.iotlink/sdk/IoT_LINK/iot_link/os/liteos/utils\rbtree.c ****  *
  95:C:/Users/²Ü¼ÒºÀ/.iotlink/sdk/IoT_LINK/iot_link/os/liteos/utils\rbtree.c ****  * return: true if <n> is black or NULL, false otherwise.
  96:C:/Users/²Ü¼ÒºÀ/.iotlink/sdk/IoT_LINK/iot_link/os/liteos/utils\rbtree.c ****  */
  97:C:/Users/²Ü¼ÒºÀ/.iotlink/sdk/IoT_LINK/iot_link/os/liteos/utils\rbtree.c **** 
  98:C:/Users/²Ü¼ÒºÀ/.iotlink/sdk/IoT_LINK/iot_link/os/liteos/utils\rbtree.c **** static inline int __is_black (rb_node_t * n)
  99:C:/Users/²Ü¼ÒºÀ/.iotlink/sdk/IoT_LINK/iot_link/os/liteos/utils\rbtree.c **** {
  82              		.loc 2 99 1 is_stmt 1 view -0
  83              		.cfi_startproc
  84              		@ args = 0, pretend = 0, frame = 0
  85              		@ frame_needed = 0, uses_anonymous_args = 0
  86              		@ link register save eliminated.
 100:C:/Users/²Ü¼ÒºÀ/.iotlink/sdk/IoT_LINK/iot_link/os/liteos/utils\rbtree.c ****     return (n == NULL) || __raw_is_black (n);
  87              		.loc 2 100 5 view .LVU14
  88              		.loc 2 100 24 is_stmt 0 view .LVU15
  89 0000 20B1     		cbz	r0, .L14
  90              	.LVL7:
  91              	.LBB280:
  92              	.LBI280:
  86:C:/Users/²Ü¼ÒºÀ/.iotlink/sdk/IoT_LINK/iot_link/os/liteos/utils\rbtree.c **** {
  93              		.loc 2 86 19 is_stmt 1 view .LVU16
  94              	.LBB281:
  88:C:/Users/²Ü¼ÒºÀ/.iotlink/sdk/IoT_LINK/iot_link/os/liteos/utils\rbtree.c **** }
  95              		.loc 2 88 5 view .LVU17
  88:C:/Users/²Ü¼ÒºÀ/.iotlink/sdk/IoT_LINK/iot_link/os/liteos/utils\rbtree.c **** }
  96              		.loc 2 88 5 is_stmt 0 view .LVU18
  97              	.LBE281:
  98              	.LBE280:
  52:C:/Users/²Ü¼ÒºÀ/.iotlink/sdk/IoT_LINK/iot_link/os/liteos/utils\rbtree.c **** }
  99              		.loc 2 52 5 is_stmt 1 view .LVU19
 100              		.loc 2 100 24 is_stmt 0 view .LVU20
 101 0002 C068     		ldr	r0, [r0, #12]
 102              	.LVL8:
ARM GAS  C:\Users\²Ü¼ÒºÀ\AppData\Local\Temp\ccwaEIDi.s 			page 8


 103              		.loc 2 100 24 view .LVU21
 104 0004 431E     		subs	r3, r0, #1
 105 0006 5842     		rsbs	r0, r3, #0
 106 0008 5841     		adcs	r0, r0, r3
 107 000a 7047     		bx	lr
 108              	.LVL9:
 109              	.L14:
 110              		.loc 2 100 24 view .LVU22
 111 000c 0120     		movs	r0, #1
 112              	.LVL10:
 101:C:/Users/²Ü¼ÒºÀ/.iotlink/sdk/IoT_LINK/iot_link/os/liteos/utils\rbtree.c **** }
 113              		.loc 2 101 1 view .LVU23
 114 000e 7047     		bx	lr
 115              		.cfi_endproc
 116              	.LFE25:
 118              		.section	.text.__bit_rotate_right.isra.0,"ax",%progbits
 119              		.align	1
 120              		.syntax unified
 121              		.thumb
 122              		.thumb_func
 123              		.fpu fpv4-sp-d16
 125              	__bit_rotate_right.isra.0:
 126              	.LVL11:
 127              	.LFB63:
 197:C:/Users/²Ü¼ÒºÀ/.iotlink/sdk/IoT_LINK/iot_link/os/liteos/base/include\__binary_tree.h **** 
 198:C:/Users/²Ü¼ÒºÀ/.iotlink/sdk/IoT_LINK/iot_link/os/liteos/base/include\__binary_tree.h **** /**
 199:C:/Users/²Ü¼ÒºÀ/.iotlink/sdk/IoT_LINK/iot_link/os/liteos/base/include\__binary_tree.h ****  * __bit_predecessor - the predecessor node of a node
 200:C:/Users/²Ü¼ÒºÀ/.iotlink/sdk/IoT_LINK/iot_link/os/liteos/base/include\__binary_tree.h ****  * @n: the given node
 201:C:/Users/²Ü¼ÒºÀ/.iotlink/sdk/IoT_LINK/iot_link/os/liteos/base/include\__binary_tree.h ****  *
 202:C:/Users/²Ü¼ÒºÀ/.iotlink/sdk/IoT_LINK/iot_link/os/liteos/base/include\__binary_tree.h ****  * return: the predecessor of <n>
 203:C:/Users/²Ü¼ÒºÀ/.iotlink/sdk/IoT_LINK/iot_link/os/liteos/base/include\__binary_tree.h ****  */
 204:C:/Users/²Ü¼ÒºÀ/.iotlink/sdk/IoT_LINK/iot_link/os/liteos/base/include\__binary_tree.h **** 
 205:C:/Users/²Ü¼ÒºÀ/.iotlink/sdk/IoT_LINK/iot_link/os/liteos/base/include\__binary_tree.h **** static inline bi_node_t * __bit_predecessor (bi_node_t * n)
 206:C:/Users/²Ü¼ÒºÀ/.iotlink/sdk/IoT_LINK/iot_link/os/liteos/base/include\__binary_tree.h **** {
 207:C:/Users/²Ü¼ÒºÀ/.iotlink/sdk/IoT_LINK/iot_link/os/liteos/base/include\__binary_tree.h ****     bi_node_t * p = n->l;
 208:C:/Users/²Ü¼ÒºÀ/.iotlink/sdk/IoT_LINK/iot_link/os/liteos/base/include\__binary_tree.h **** 
 209:C:/Users/²Ü¼ÒºÀ/.iotlink/sdk/IoT_LINK/iot_link/os/liteos/base/include\__binary_tree.h ****     if (p != NULL)
 210:C:/Users/²Ü¼ÒºÀ/.iotlink/sdk/IoT_LINK/iot_link/os/liteos/base/include\__binary_tree.h ****     {
 211:C:/Users/²Ü¼ÒºÀ/.iotlink/sdk/IoT_LINK/iot_link/os/liteos/base/include\__binary_tree.h ****         while (p->r)
 212:C:/Users/²Ü¼ÒºÀ/.iotlink/sdk/IoT_LINK/iot_link/os/liteos/base/include\__binary_tree.h ****         {
 213:C:/Users/²Ü¼ÒºÀ/.iotlink/sdk/IoT_LINK/iot_link/os/liteos/base/include\__binary_tree.h ****             p = p->r;
 214:C:/Users/²Ü¼ÒºÀ/.iotlink/sdk/IoT_LINK/iot_link/os/liteos/base/include\__binary_tree.h ****         }
 215:C:/Users/²Ü¼ÒºÀ/.iotlink/sdk/IoT_LINK/iot_link/os/liteos/base/include\__binary_tree.h **** 
 216:C:/Users/²Ü¼ÒºÀ/.iotlink/sdk/IoT_LINK/iot_link/os/liteos/base/include\__binary_tree.h ****         return p;
 217:C:/Users/²Ü¼ÒºÀ/.iotlink/sdk/IoT_LINK/iot_link/os/liteos/base/include\__binary_tree.h ****     }
 218:C:/Users/²Ü¼ÒºÀ/.iotlink/sdk/IoT_LINK/iot_link/os/liteos/base/include\__binary_tree.h **** 
 219:C:/Users/²Ü¼ÒºÀ/.iotlink/sdk/IoT_LINK/iot_link/os/liteos/base/include\__binary_tree.h ****     while (n->p && (n == n->p->l))
 220:C:/Users/²Ü¼ÒºÀ/.iotlink/sdk/IoT_LINK/iot_link/os/liteos/base/include\__binary_tree.h ****     {
 221:C:/Users/²Ü¼ÒºÀ/.iotlink/sdk/IoT_LINK/iot_link/os/liteos/base/include\__binary_tree.h ****         n = n->p;
 222:C:/Users/²Ü¼ÒºÀ/.iotlink/sdk/IoT_LINK/iot_link/os/liteos/base/include\__binary_tree.h ****     }
 223:C:/Users/²Ü¼ÒºÀ/.iotlink/sdk/IoT_LINK/iot_link/os/liteos/base/include\__binary_tree.h **** 
 224:C:/Users/²Ü¼ÒºÀ/.iotlink/sdk/IoT_LINK/iot_link/os/liteos/base/include\__binary_tree.h ****     return n->p;
 225:C:/Users/²Ü¼ÒºÀ/.iotlink/sdk/IoT_LINK/iot_link/os/liteos/base/include\__binary_tree.h **** }
 226:C:/Users/²Ü¼ÒºÀ/.iotlink/sdk/IoT_LINK/iot_link/os/liteos/base/include\__binary_tree.h **** 
 227:C:/Users/²Ü¼ÒºÀ/.iotlink/sdk/IoT_LINK/iot_link/os/liteos/base/include\__binary_tree.h **** /**
 228:C:/Users/²Ü¼ÒºÀ/.iotlink/sdk/IoT_LINK/iot_link/os/liteos/base/include\__binary_tree.h ****  * __bit_find_eq - find a given key in a tree
 229:C:/Users/²Ü¼ÒºÀ/.iotlink/sdk/IoT_LINK/iot_link/os/liteos/base/include\__binary_tree.h ****  * @r: the given tree root
ARM GAS  C:\Users\²Ü¼ÒºÀ\AppData\Local\Temp\ccwaEIDi.s 			page 9


 230:C:/Users/²Ü¼ÒºÀ/.iotlink/sdk/IoT_LINK/iot_link/os/liteos/base/include\__binary_tree.h ****  * @k: the key value
 231:C:/Users/²Ü¼ÒºÀ/.iotlink/sdk/IoT_LINK/iot_link/os/liteos/base/include\__binary_tree.h ****  *
 232:C:/Users/²Ü¼ÒºÀ/.iotlink/sdk/IoT_LINK/iot_link/os/liteos/base/include\__binary_tree.h ****  * return: the node with key = <k>, or NULL if key not found.
 233:C:/Users/²Ü¼ÒºÀ/.iotlink/sdk/IoT_LINK/iot_link/os/liteos/base/include\__binary_tree.h ****  */
 234:C:/Users/²Ü¼ÒºÀ/.iotlink/sdk/IoT_LINK/iot_link/os/liteos/base/include\__binary_tree.h **** 
 235:C:/Users/²Ü¼ÒºÀ/.iotlink/sdk/IoT_LINK/iot_link/os/liteos/base/include\__binary_tree.h **** static inline bi_node_t * __bit_find_eq (bi_tree_t * t, uintptr_t k)
 236:C:/Users/²Ü¼ÒºÀ/.iotlink/sdk/IoT_LINK/iot_link/os/liteos/base/include\__binary_tree.h **** {
 237:C:/Users/²Ü¼ÒºÀ/.iotlink/sdk/IoT_LINK/iot_link/os/liteos/base/include\__binary_tree.h ****     bi_node_t * w = t->r;
 238:C:/Users/²Ü¼ÒºÀ/.iotlink/sdk/IoT_LINK/iot_link/os/liteos/base/include\__binary_tree.h **** 
 239:C:/Users/²Ü¼ÒºÀ/.iotlink/sdk/IoT_LINK/iot_link/os/liteos/base/include\__binary_tree.h ****     while (w != NULL)
 240:C:/Users/²Ü¼ÒºÀ/.iotlink/sdk/IoT_LINK/iot_link/os/liteos/base/include\__binary_tree.h ****     {
 241:C:/Users/²Ü¼ÒºÀ/.iotlink/sdk/IoT_LINK/iot_link/os/liteos/base/include\__binary_tree.h ****         int          c = t->compare_nk (w, k);
 242:C:/Users/²Ü¼ÒºÀ/.iotlink/sdk/IoT_LINK/iot_link/os/liteos/base/include\__binary_tree.h **** 
 243:C:/Users/²Ü¼ÒºÀ/.iotlink/sdk/IoT_LINK/iot_link/os/liteos/base/include\__binary_tree.h ****         if (c == 0)
 244:C:/Users/²Ü¼ÒºÀ/.iotlink/sdk/IoT_LINK/iot_link/os/liteos/base/include\__binary_tree.h ****         {
 245:C:/Users/²Ü¼ÒºÀ/.iotlink/sdk/IoT_LINK/iot_link/os/liteos/base/include\__binary_tree.h ****             break;
 246:C:/Users/²Ü¼ÒºÀ/.iotlink/sdk/IoT_LINK/iot_link/os/liteos/base/include\__binary_tree.h ****         }
 247:C:/Users/²Ü¼ÒºÀ/.iotlink/sdk/IoT_LINK/iot_link/os/liteos/base/include\__binary_tree.h **** 
 248:C:/Users/²Ü¼ÒºÀ/.iotlink/sdk/IoT_LINK/iot_link/os/liteos/base/include\__binary_tree.h ****         w = c < 0 ? w->r : w->l;
 249:C:/Users/²Ü¼ÒºÀ/.iotlink/sdk/IoT_LINK/iot_link/os/liteos/base/include\__binary_tree.h ****     }
 250:C:/Users/²Ü¼ÒºÀ/.iotlink/sdk/IoT_LINK/iot_link/os/liteos/base/include\__binary_tree.h **** 
 251:C:/Users/²Ü¼ÒºÀ/.iotlink/sdk/IoT_LINK/iot_link/os/liteos/base/include\__binary_tree.h ****     return w;
 252:C:/Users/²Ü¼ÒºÀ/.iotlink/sdk/IoT_LINK/iot_link/os/liteos/base/include\__binary_tree.h **** }
 253:C:/Users/²Ü¼ÒºÀ/.iotlink/sdk/IoT_LINK/iot_link/os/liteos/base/include\__binary_tree.h **** 
 254:C:/Users/²Ü¼ÒºÀ/.iotlink/sdk/IoT_LINK/iot_link/os/liteos/base/include\__binary_tree.h **** /**
 255:C:/Users/²Ü¼ÒºÀ/.iotlink/sdk/IoT_LINK/iot_link/os/liteos/base/include\__binary_tree.h ****  * __bit_find_cond_xt - find a node that is just greater or less than the given value
 256:C:/Users/²Ü¼ÒºÀ/.iotlink/sdk/IoT_LINK/iot_link/os/liteos/base/include\__binary_tree.h ****  * @t:    the given tree
 257:C:/Users/²Ü¼ÒºÀ/.iotlink/sdk/IoT_LINK/iot_link/os/liteos/base/include\__binary_tree.h ****  * @k:    the key value
 258:C:/Users/²Ü¼ÒºÀ/.iotlink/sdk/IoT_LINK/iot_link/os/liteos/base/include\__binary_tree.h ****  * @cond: the condition, '>' or '<'
 259:C:/Users/²Ü¼ÒºÀ/.iotlink/sdk/IoT_LINK/iot_link/os/liteos/base/include\__binary_tree.h ****  *
 260:C:/Users/²Ü¼ÒºÀ/.iotlink/sdk/IoT_LINK/iot_link/os/liteos/base/include\__binary_tree.h ****  * return: the nearest node with key greater or less than <k>, or NULL if key not found.
 261:C:/Users/²Ü¼ÒºÀ/.iotlink/sdk/IoT_LINK/iot_link/os/liteos/base/include\__binary_tree.h ****  */
 262:C:/Users/²Ü¼ÒºÀ/.iotlink/sdk/IoT_LINK/iot_link/os/liteos/base/include\__binary_tree.h **** 
 263:C:/Users/²Ü¼ÒºÀ/.iotlink/sdk/IoT_LINK/iot_link/os/liteos/base/include\__binary_tree.h **** #define __bit_find_cond_xt(t, k, cond)                  \
 264:C:/Users/²Ü¼ÒºÀ/.iotlink/sdk/IoT_LINK/iot_link/os/liteos/base/include\__binary_tree.h **** do {                                                    \
 265:C:/Users/²Ü¼ÒºÀ/.iotlink/sdk/IoT_LINK/iot_link/os/liteos/base/include\__binary_tree.h ****     bi_node_t * l = NULL; /* last one */                \
 266:C:/Users/²Ü¼ÒºÀ/.iotlink/sdk/IoT_LINK/iot_link/os/liteos/base/include\__binary_tree.h ****     bi_node_t * w = t->r;                               \
 267:C:/Users/²Ü¼ÒºÀ/.iotlink/sdk/IoT_LINK/iot_link/os/liteos/base/include\__binary_tree.h ****                                                         \
 268:C:/Users/²Ü¼ÒºÀ/.iotlink/sdk/IoT_LINK/iot_link/os/liteos/base/include\__binary_tree.h ****     while (w != NULL)                                   \
 269:C:/Users/²Ü¼ÒºÀ/.iotlink/sdk/IoT_LINK/iot_link/os/liteos/base/include\__binary_tree.h ****     {                                               \
 270:C:/Users/²Ü¼ÒºÀ/.iotlink/sdk/IoT_LINK/iot_link/os/liteos/base/include\__binary_tree.h ****         int     c = t->compare_nk (w, k);               \
 271:C:/Users/²Ü¼ÒºÀ/.iotlink/sdk/IoT_LINK/iot_link/os/liteos/base/include\__binary_tree.h ****                                                         \
 272:C:/Users/²Ü¼ÒºÀ/.iotlink/sdk/IoT_LINK/iot_link/os/liteos/base/include\__binary_tree.h ****         if (c cond 0)                                   \
 273:C:/Users/²Ü¼ÒºÀ/.iotlink/sdk/IoT_LINK/iot_link/os/liteos/base/include\__binary_tree.h ****         {                                           \
 274:C:/Users/²Ü¼ÒºÀ/.iotlink/sdk/IoT_LINK/iot_link/os/liteos/base/include\__binary_tree.h ****             l = w;                                      \
 275:C:/Users/²Ü¼ÒºÀ/.iotlink/sdk/IoT_LINK/iot_link/os/liteos/base/include\__binary_tree.h ****         }                                           \
 276:C:/Users/²Ü¼ÒºÀ/.iotlink/sdk/IoT_LINK/iot_link/os/liteos/base/include\__binary_tree.h ****                                                         \
 277:C:/Users/²Ü¼ÒºÀ/.iotlink/sdk/IoT_LINK/iot_link/os/liteos/base/include\__binary_tree.h ****         w = c < 0 ? w->r : w->l;                        \
 278:C:/Users/²Ü¼ÒºÀ/.iotlink/sdk/IoT_LINK/iot_link/os/liteos/base/include\__binary_tree.h ****     }                                               \
 279:C:/Users/²Ü¼ÒºÀ/.iotlink/sdk/IoT_LINK/iot_link/os/liteos/base/include\__binary_tree.h ****                                                         \
 280:C:/Users/²Ü¼ÒºÀ/.iotlink/sdk/IoT_LINK/iot_link/os/liteos/base/include\__binary_tree.h ****     return l;                                           \
 281:C:/Users/²Ü¼ÒºÀ/.iotlink/sdk/IoT_LINK/iot_link/os/liteos/base/include\__binary_tree.h **** } while (0)
 282:C:/Users/²Ü¼ÒºÀ/.iotlink/sdk/IoT_LINK/iot_link/os/liteos/base/include\__binary_tree.h **** 
 283:C:/Users/²Ü¼ÒºÀ/.iotlink/sdk/IoT_LINK/iot_link/os/liteos/base/include\__binary_tree.h **** /**
 284:C:/Users/²Ü¼ÒºÀ/.iotlink/sdk/IoT_LINK/iot_link/os/liteos/base/include\__binary_tree.h ****  * __bit_find_gt - find a node that is just greater to the given value
 285:C:/Users/²Ü¼ÒºÀ/.iotlink/sdk/IoT_LINK/iot_link/os/liteos/base/include\__binary_tree.h ****  * @t: the given tree
 286:C:/Users/²Ü¼ÒºÀ/.iotlink/sdk/IoT_LINK/iot_link/os/liteos/base/include\__binary_tree.h ****  * @k: the key value
ARM GAS  C:\Users\²Ü¼ÒºÀ\AppData\Local\Temp\ccwaEIDi.s 			page 10


 287:C:/Users/²Ü¼ÒºÀ/.iotlink/sdk/IoT_LINK/iot_link/os/liteos/base/include\__binary_tree.h ****  *
 288:C:/Users/²Ü¼ÒºÀ/.iotlink/sdk/IoT_LINK/iot_link/os/liteos/base/include\__binary_tree.h ****  * return: the nearest node with key > <k>, NULL or if key not found.
 289:C:/Users/²Ü¼ÒºÀ/.iotlink/sdk/IoT_LINK/iot_link/os/liteos/base/include\__binary_tree.h ****  */
 290:C:/Users/²Ü¼ÒºÀ/.iotlink/sdk/IoT_LINK/iot_link/os/liteos/base/include\__binary_tree.h **** 
 291:C:/Users/²Ü¼ÒºÀ/.iotlink/sdk/IoT_LINK/iot_link/os/liteos/base/include\__binary_tree.h **** static inline bi_node_t * __bit_find_gt (bi_tree_t * t, uintptr_t k)
 292:C:/Users/²Ü¼ÒºÀ/.iotlink/sdk/IoT_LINK/iot_link/os/liteos/base/include\__binary_tree.h **** {
 293:C:/Users/²Ü¼ÒºÀ/.iotlink/sdk/IoT_LINK/iot_link/os/liteos/base/include\__binary_tree.h ****     __bit_find_cond_xt (t, k, >);
 294:C:/Users/²Ü¼ÒºÀ/.iotlink/sdk/IoT_LINK/iot_link/os/liteos/base/include\__binary_tree.h **** }
 295:C:/Users/²Ü¼ÒºÀ/.iotlink/sdk/IoT_LINK/iot_link/os/liteos/base/include\__binary_tree.h **** 
 296:C:/Users/²Ü¼ÒºÀ/.iotlink/sdk/IoT_LINK/iot_link/os/liteos/base/include\__binary_tree.h **** /**
 297:C:/Users/²Ü¼ÒºÀ/.iotlink/sdk/IoT_LINK/iot_link/os/liteos/base/include\__binary_tree.h ****  * __bit_find_lt - find a node that is just less to the given value
 298:C:/Users/²Ü¼ÒºÀ/.iotlink/sdk/IoT_LINK/iot_link/os/liteos/base/include\__binary_tree.h ****  * @t: the given tree
 299:C:/Users/²Ü¼ÒºÀ/.iotlink/sdk/IoT_LINK/iot_link/os/liteos/base/include\__binary_tree.h ****  * @k: the key value
 300:C:/Users/²Ü¼ÒºÀ/.iotlink/sdk/IoT_LINK/iot_link/os/liteos/base/include\__binary_tree.h ****  *
 301:C:/Users/²Ü¼ÒºÀ/.iotlink/sdk/IoT_LINK/iot_link/os/liteos/base/include\__binary_tree.h ****  * return: the nearest node with key < <k>, NULL or if key not found.
 302:C:/Users/²Ü¼ÒºÀ/.iotlink/sdk/IoT_LINK/iot_link/os/liteos/base/include\__binary_tree.h ****  */
 303:C:/Users/²Ü¼ÒºÀ/.iotlink/sdk/IoT_LINK/iot_link/os/liteos/base/include\__binary_tree.h **** 
 304:C:/Users/²Ü¼ÒºÀ/.iotlink/sdk/IoT_LINK/iot_link/os/liteos/base/include\__binary_tree.h **** static inline bi_node_t * __bit_find_lt (bi_tree_t * t, uintptr_t k)
 305:C:/Users/²Ü¼ÒºÀ/.iotlink/sdk/IoT_LINK/iot_link/os/liteos/base/include\__binary_tree.h **** {
 306:C:/Users/²Ü¼ÒºÀ/.iotlink/sdk/IoT_LINK/iot_link/os/liteos/base/include\__binary_tree.h ****     __bit_find_cond_xt (t, k, <);
 307:C:/Users/²Ü¼ÒºÀ/.iotlink/sdk/IoT_LINK/iot_link/os/liteos/base/include\__binary_tree.h **** }
 308:C:/Users/²Ü¼ÒºÀ/.iotlink/sdk/IoT_LINK/iot_link/os/liteos/base/include\__binary_tree.h **** 
 309:C:/Users/²Ü¼ÒºÀ/.iotlink/sdk/IoT_LINK/iot_link/os/liteos/base/include\__binary_tree.h **** /**
 310:C:/Users/²Ü¼ÒºÀ/.iotlink/sdk/IoT_LINK/iot_link/os/liteos/base/include\__binary_tree.h ****  * __bit_first - find the first node of the tree
 311:C:/Users/²Ü¼ÒºÀ/.iotlink/sdk/IoT_LINK/iot_link/os/liteos/base/include\__binary_tree.h ****  * @t: the given tree
 312:C:/Users/²Ü¼ÒºÀ/.iotlink/sdk/IoT_LINK/iot_link/os/liteos/base/include\__binary_tree.h ****  *
 313:C:/Users/²Ü¼ÒºÀ/.iotlink/sdk/IoT_LINK/iot_link/os/liteos/base/include\__binary_tree.h ****  * return: the first node, or NULL if the tree is empty
 314:C:/Users/²Ü¼ÒºÀ/.iotlink/sdk/IoT_LINK/iot_link/os/liteos/base/include\__binary_tree.h ****  */
 315:C:/Users/²Ü¼ÒºÀ/.iotlink/sdk/IoT_LINK/iot_link/os/liteos/base/include\__binary_tree.h **** 
 316:C:/Users/²Ü¼ÒºÀ/.iotlink/sdk/IoT_LINK/iot_link/os/liteos/base/include\__binary_tree.h **** static inline bi_node_t * __bit_first (bi_tree_t * t)
 317:C:/Users/²Ü¼ÒºÀ/.iotlink/sdk/IoT_LINK/iot_link/os/liteos/base/include\__binary_tree.h **** {
 318:C:/Users/²Ü¼ÒºÀ/.iotlink/sdk/IoT_LINK/iot_link/os/liteos/base/include\__binary_tree.h ****     bi_node_t * n = t->r;
 319:C:/Users/²Ü¼ÒºÀ/.iotlink/sdk/IoT_LINK/iot_link/os/liteos/base/include\__binary_tree.h **** 
 320:C:/Users/²Ü¼ÒºÀ/.iotlink/sdk/IoT_LINK/iot_link/os/liteos/base/include\__binary_tree.h ****     if (n != NULL)
 321:C:/Users/²Ü¼ÒºÀ/.iotlink/sdk/IoT_LINK/iot_link/os/liteos/base/include\__binary_tree.h ****     {
 322:C:/Users/²Ü¼ÒºÀ/.iotlink/sdk/IoT_LINK/iot_link/os/liteos/base/include\__binary_tree.h ****         while (n->l != NULL)
 323:C:/Users/²Ü¼ÒºÀ/.iotlink/sdk/IoT_LINK/iot_link/os/liteos/base/include\__binary_tree.h ****         {
 324:C:/Users/²Ü¼ÒºÀ/.iotlink/sdk/IoT_LINK/iot_link/os/liteos/base/include\__binary_tree.h ****             n = n->l;
 325:C:/Users/²Ü¼ÒºÀ/.iotlink/sdk/IoT_LINK/iot_link/os/liteos/base/include\__binary_tree.h ****         }
 326:C:/Users/²Ü¼ÒºÀ/.iotlink/sdk/IoT_LINK/iot_link/os/liteos/base/include\__binary_tree.h ****     }
 327:C:/Users/²Ü¼ÒºÀ/.iotlink/sdk/IoT_LINK/iot_link/os/liteos/base/include\__binary_tree.h **** 
 328:C:/Users/²Ü¼ÒºÀ/.iotlink/sdk/IoT_LINK/iot_link/os/liteos/base/include\__binary_tree.h ****     return n;
 329:C:/Users/²Ü¼ÒºÀ/.iotlink/sdk/IoT_LINK/iot_link/os/liteos/base/include\__binary_tree.h **** }
 330:C:/Users/²Ü¼ÒºÀ/.iotlink/sdk/IoT_LINK/iot_link/os/liteos/base/include\__binary_tree.h **** 
 331:C:/Users/²Ü¼ÒºÀ/.iotlink/sdk/IoT_LINK/iot_link/os/liteos/base/include\__binary_tree.h **** /**
 332:C:/Users/²Ü¼ÒºÀ/.iotlink/sdk/IoT_LINK/iot_link/os/liteos/base/include\__binary_tree.h ****  * __bit_last - find the last node of the tree
 333:C:/Users/²Ü¼ÒºÀ/.iotlink/sdk/IoT_LINK/iot_link/os/liteos/base/include\__binary_tree.h ****  * @t: the given tree
 334:C:/Users/²Ü¼ÒºÀ/.iotlink/sdk/IoT_LINK/iot_link/os/liteos/base/include\__binary_tree.h ****  *
 335:C:/Users/²Ü¼ÒºÀ/.iotlink/sdk/IoT_LINK/iot_link/os/liteos/base/include\__binary_tree.h ****  * return: the last node, or NULL if the tree is empty
 336:C:/Users/²Ü¼ÒºÀ/.iotlink/sdk/IoT_LINK/iot_link/os/liteos/base/include\__binary_tree.h ****  */
 337:C:/Users/²Ü¼ÒºÀ/.iotlink/sdk/IoT_LINK/iot_link/os/liteos/base/include\__binary_tree.h **** 
 338:C:/Users/²Ü¼ÒºÀ/.iotlink/sdk/IoT_LINK/iot_link/os/liteos/base/include\__binary_tree.h **** static inline bi_node_t * __bit_last (bi_tree_t * t)
 339:C:/Users/²Ü¼ÒºÀ/.iotlink/sdk/IoT_LINK/iot_link/os/liteos/base/include\__binary_tree.h **** {
 340:C:/Users/²Ü¼ÒºÀ/.iotlink/sdk/IoT_LINK/iot_link/os/liteos/base/include\__binary_tree.h ****     bi_node_t * n = t->r;
 341:C:/Users/²Ü¼ÒºÀ/.iotlink/sdk/IoT_LINK/iot_link/os/liteos/base/include\__binary_tree.h **** 
 342:C:/Users/²Ü¼ÒºÀ/.iotlink/sdk/IoT_LINK/iot_link/os/liteos/base/include\__binary_tree.h ****     if (n != NULL)
 343:C:/Users/²Ü¼ÒºÀ/.iotlink/sdk/IoT_LINK/iot_link/os/liteos/base/include\__binary_tree.h ****     {
ARM GAS  C:\Users\²Ü¼ÒºÀ\AppData\Local\Temp\ccwaEIDi.s 			page 11


 344:C:/Users/²Ü¼ÒºÀ/.iotlink/sdk/IoT_LINK/iot_link/os/liteos/base/include\__binary_tree.h ****         while (n->r != NULL)
 345:C:/Users/²Ü¼ÒºÀ/.iotlink/sdk/IoT_LINK/iot_link/os/liteos/base/include\__binary_tree.h ****         {
 346:C:/Users/²Ü¼ÒºÀ/.iotlink/sdk/IoT_LINK/iot_link/os/liteos/base/include\__binary_tree.h ****             n = n->r;
 347:C:/Users/²Ü¼ÒºÀ/.iotlink/sdk/IoT_LINK/iot_link/os/liteos/base/include\__binary_tree.h ****         }
 348:C:/Users/²Ü¼ÒºÀ/.iotlink/sdk/IoT_LINK/iot_link/os/liteos/base/include\__binary_tree.h ****     }
 349:C:/Users/²Ü¼ÒºÀ/.iotlink/sdk/IoT_LINK/iot_link/os/liteos/base/include\__binary_tree.h **** 
 350:C:/Users/²Ü¼ÒºÀ/.iotlink/sdk/IoT_LINK/iot_link/os/liteos/base/include\__binary_tree.h ****     return n;
 351:C:/Users/²Ü¼ÒºÀ/.iotlink/sdk/IoT_LINK/iot_link/os/liteos/base/include\__binary_tree.h **** }
 352:C:/Users/²Ü¼ÒºÀ/.iotlink/sdk/IoT_LINK/iot_link/os/liteos/base/include\__binary_tree.h **** 
 353:C:/Users/²Ü¼ÒºÀ/.iotlink/sdk/IoT_LINK/iot_link/os/liteos/base/include\__binary_tree.h **** /**
 354:C:/Users/²Ü¼ÒºÀ/.iotlink/sdk/IoT_LINK/iot_link/os/liteos/base/include\__binary_tree.h ****  * __bit_find_cond_xe - find a node that is just greater equal or less equal than
 355:C:/Users/²Ü¼ÒºÀ/.iotlink/sdk/IoT_LINK/iot_link/os/liteos/base/include\__binary_tree.h ****  *                      the given value
 356:C:/Users/²Ü¼ÒºÀ/.iotlink/sdk/IoT_LINK/iot_link/os/liteos/base/include\__binary_tree.h ****  * @t:    the given tree
 357:C:/Users/²Ü¼ÒºÀ/.iotlink/sdk/IoT_LINK/iot_link/os/liteos/base/include\__binary_tree.h ****  * @k:    the key value
 358:C:/Users/²Ü¼ÒºÀ/.iotlink/sdk/IoT_LINK/iot_link/os/liteos/base/include\__binary_tree.h ****  * @cond: the condition, '<=' or '>='
 359:C:/Users/²Ü¼ÒºÀ/.iotlink/sdk/IoT_LINK/iot_link/os/liteos/base/include\__binary_tree.h ****  *
 360:C:/Users/²Ü¼ÒºÀ/.iotlink/sdk/IoT_LINK/iot_link/os/liteos/base/include\__binary_tree.h ****  * return: the nearest node with key greater equal or less equal than <k>, or NULL
 361:C:/Users/²Ü¼ÒºÀ/.iotlink/sdk/IoT_LINK/iot_link/os/liteos/base/include\__binary_tree.h ****  *         if key not found.
 362:C:/Users/²Ü¼ÒºÀ/.iotlink/sdk/IoT_LINK/iot_link/os/liteos/base/include\__binary_tree.h ****  */
 363:C:/Users/²Ü¼ÒºÀ/.iotlink/sdk/IoT_LINK/iot_link/os/liteos/base/include\__binary_tree.h **** 
 364:C:/Users/²Ü¼ÒºÀ/.iotlink/sdk/IoT_LINK/iot_link/os/liteos/base/include\__binary_tree.h **** #define __bit_find_cond_xe(t, k, cond)                  \
 365:C:/Users/²Ü¼ÒºÀ/.iotlink/sdk/IoT_LINK/iot_link/os/liteos/base/include\__binary_tree.h **** do {                                                    \
 366:C:/Users/²Ü¼ÒºÀ/.iotlink/sdk/IoT_LINK/iot_link/os/liteos/base/include\__binary_tree.h ****     bi_node_t * l = NULL; /* last one */                \
 367:C:/Users/²Ü¼ÒºÀ/.iotlink/sdk/IoT_LINK/iot_link/os/liteos/base/include\__binary_tree.h ****     bi_node_t * w = t->r;                               \
 368:C:/Users/²Ü¼ÒºÀ/.iotlink/sdk/IoT_LINK/iot_link/os/liteos/base/include\__binary_tree.h ****                                                         \
 369:C:/Users/²Ü¼ÒºÀ/.iotlink/sdk/IoT_LINK/iot_link/os/liteos/base/include\__binary_tree.h ****     while (w != NULL)                                   \
 370:C:/Users/²Ü¼ÒºÀ/.iotlink/sdk/IoT_LINK/iot_link/os/liteos/base/include\__binary_tree.h ****     {                                               \
 371:C:/Users/²Ü¼ÒºÀ/.iotlink/sdk/IoT_LINK/iot_link/os/liteos/base/include\__binary_tree.h ****         int     c = t->compare_nk (w, k);               \
 372:C:/Users/²Ü¼ÒºÀ/.iotlink/sdk/IoT_LINK/iot_link/os/liteos/base/include\__binary_tree.h ****                                                         \
 373:C:/Users/²Ü¼ÒºÀ/.iotlink/sdk/IoT_LINK/iot_link/os/liteos/base/include\__binary_tree.h ****         if (c == 0)                                     \
 374:C:/Users/²Ü¼ÒºÀ/.iotlink/sdk/IoT_LINK/iot_link/os/liteos/base/include\__binary_tree.h ****         {                                           \
 375:C:/Users/²Ü¼ÒºÀ/.iotlink/sdk/IoT_LINK/iot_link/os/liteos/base/include\__binary_tree.h ****             return w;                                   \
 376:C:/Users/²Ü¼ÒºÀ/.iotlink/sdk/IoT_LINK/iot_link/os/liteos/base/include\__binary_tree.h ****         }                                           \
 377:C:/Users/²Ü¼ÒºÀ/.iotlink/sdk/IoT_LINK/iot_link/os/liteos/base/include\__binary_tree.h ****                                                         \
 378:C:/Users/²Ü¼ÒºÀ/.iotlink/sdk/IoT_LINK/iot_link/os/liteos/base/include\__binary_tree.h ****         if (c cond 0)                                   \
 379:C:/Users/²Ü¼ÒºÀ/.iotlink/sdk/IoT_LINK/iot_link/os/liteos/base/include\__binary_tree.h ****         {                                           \
 380:C:/Users/²Ü¼ÒºÀ/.iotlink/sdk/IoT_LINK/iot_link/os/liteos/base/include\__binary_tree.h ****             l = w;                                      \
 381:C:/Users/²Ü¼ÒºÀ/.iotlink/sdk/IoT_LINK/iot_link/os/liteos/base/include\__binary_tree.h ****         }                                           \
 382:C:/Users/²Ü¼ÒºÀ/.iotlink/sdk/IoT_LINK/iot_link/os/liteos/base/include\__binary_tree.h ****                                                         \
 383:C:/Users/²Ü¼ÒºÀ/.iotlink/sdk/IoT_LINK/iot_link/os/liteos/base/include\__binary_tree.h ****         w = c < 0 ? w->r : w->l;                        \
 384:C:/Users/²Ü¼ÒºÀ/.iotlink/sdk/IoT_LINK/iot_link/os/liteos/base/include\__binary_tree.h ****     }                                               \
 385:C:/Users/²Ü¼ÒºÀ/.iotlink/sdk/IoT_LINK/iot_link/os/liteos/base/include\__binary_tree.h ****                                                         \
 386:C:/Users/²Ü¼ÒºÀ/.iotlink/sdk/IoT_LINK/iot_link/os/liteos/base/include\__binary_tree.h ****     return l;                                           \
 387:C:/Users/²Ü¼ÒºÀ/.iotlink/sdk/IoT_LINK/iot_link/os/liteos/base/include\__binary_tree.h **** } while (0)
 388:C:/Users/²Ü¼ÒºÀ/.iotlink/sdk/IoT_LINK/iot_link/os/liteos/base/include\__binary_tree.h **** 
 389:C:/Users/²Ü¼ÒºÀ/.iotlink/sdk/IoT_LINK/iot_link/os/liteos/base/include\__binary_tree.h **** /**
 390:C:/Users/²Ü¼ÒºÀ/.iotlink/sdk/IoT_LINK/iot_link/os/liteos/base/include\__binary_tree.h ****  * __bit_find_ge - find a node that is just greater or equal to the given value
 391:C:/Users/²Ü¼ÒºÀ/.iotlink/sdk/IoT_LINK/iot_link/os/liteos/base/include\__binary_tree.h ****  * @t: the given tree
 392:C:/Users/²Ü¼ÒºÀ/.iotlink/sdk/IoT_LINK/iot_link/os/liteos/base/include\__binary_tree.h ****  * @k: the key value
 393:C:/Users/²Ü¼ÒºÀ/.iotlink/sdk/IoT_LINK/iot_link/os/liteos/base/include\__binary_tree.h ****  *
 394:C:/Users/²Ü¼ÒºÀ/.iotlink/sdk/IoT_LINK/iot_link/os/liteos/base/include\__binary_tree.h ****  * return: the nearest node with key >= <k>, or NULL if key not found.
 395:C:/Users/²Ü¼ÒºÀ/.iotlink/sdk/IoT_LINK/iot_link/os/liteos/base/include\__binary_tree.h ****  */
 396:C:/Users/²Ü¼ÒºÀ/.iotlink/sdk/IoT_LINK/iot_link/os/liteos/base/include\__binary_tree.h **** 
 397:C:/Users/²Ü¼ÒºÀ/.iotlink/sdk/IoT_LINK/iot_link/os/liteos/base/include\__binary_tree.h **** static inline bi_node_t * __bit_find_ge (bi_tree_t * t, uintptr_t k)
 398:C:/Users/²Ü¼ÒºÀ/.iotlink/sdk/IoT_LINK/iot_link/os/liteos/base/include\__binary_tree.h **** {
 399:C:/Users/²Ü¼ÒºÀ/.iotlink/sdk/IoT_LINK/iot_link/os/liteos/base/include\__binary_tree.h ****     __bit_find_cond_xe (t, k, >=);
 400:C:/Users/²Ü¼ÒºÀ/.iotlink/sdk/IoT_LINK/iot_link/os/liteos/base/include\__binary_tree.h **** }
ARM GAS  C:\Users\²Ü¼ÒºÀ\AppData\Local\Temp\ccwaEIDi.s 			page 12


 401:C:/Users/²Ü¼ÒºÀ/.iotlink/sdk/IoT_LINK/iot_link/os/liteos/base/include\__binary_tree.h **** 
 402:C:/Users/²Ü¼ÒºÀ/.iotlink/sdk/IoT_LINK/iot_link/os/liteos/base/include\__binary_tree.h **** /**
 403:C:/Users/²Ü¼ÒºÀ/.iotlink/sdk/IoT_LINK/iot_link/os/liteos/base/include\__binary_tree.h ****  * __bit_find_le - find a node that is just less or equal to the given value
 404:C:/Users/²Ü¼ÒºÀ/.iotlink/sdk/IoT_LINK/iot_link/os/liteos/base/include\__binary_tree.h ****  * @t: the given tree
 405:C:/Users/²Ü¼ÒºÀ/.iotlink/sdk/IoT_LINK/iot_link/os/liteos/base/include\__binary_tree.h ****  * @k: the key value
 406:C:/Users/²Ü¼ÒºÀ/.iotlink/sdk/IoT_LINK/iot_link/os/liteos/base/include\__binary_tree.h ****  *
 407:C:/Users/²Ü¼ÒºÀ/.iotlink/sdk/IoT_LINK/iot_link/os/liteos/base/include\__binary_tree.h ****  * return: the nearest node with key <= <k>, of NULL if key not found.
 408:C:/Users/²Ü¼ÒºÀ/.iotlink/sdk/IoT_LINK/iot_link/os/liteos/base/include\__binary_tree.h ****  */
 409:C:/Users/²Ü¼ÒºÀ/.iotlink/sdk/IoT_LINK/iot_link/os/liteos/base/include\__binary_tree.h **** 
 410:C:/Users/²Ü¼ÒºÀ/.iotlink/sdk/IoT_LINK/iot_link/os/liteos/base/include\__binary_tree.h **** static inline bi_node_t * __bit_find_le (bi_tree_t * t, uintptr_t k)
 411:C:/Users/²Ü¼ÒºÀ/.iotlink/sdk/IoT_LINK/iot_link/os/liteos/base/include\__binary_tree.h **** {
 412:C:/Users/²Ü¼ÒºÀ/.iotlink/sdk/IoT_LINK/iot_link/os/liteos/base/include\__binary_tree.h ****     __bit_find_cond_xe (t, k, <=);
 413:C:/Users/²Ü¼ÒºÀ/.iotlink/sdk/IoT_LINK/iot_link/os/liteos/base/include\__binary_tree.h **** }
 414:C:/Users/²Ü¼ÒºÀ/.iotlink/sdk/IoT_LINK/iot_link/os/liteos/base/include\__binary_tree.h **** 
 415:C:/Users/²Ü¼ÒºÀ/.iotlink/sdk/IoT_LINK/iot_link/os/liteos/base/include\__binary_tree.h **** /**
 416:C:/Users/²Ü¼ÒºÀ/.iotlink/sdk/IoT_LINK/iot_link/os/liteos/base/include\__binary_tree.h ****  * __bit_node_get - find a existing node or create a new one for it
 417:C:/Users/²Ü¼ÒºÀ/.iotlink/sdk/IoT_LINK/iot_link/os/liteos/base/include\__binary_tree.h ****  * @r:      the given tree root
 418:C:/Users/²Ü¼ÒºÀ/.iotlink/sdk/IoT_LINK/iot_link/os/liteos/base/include\__binary_tree.h ****  * @k:      the key value
 419:C:/Users/²Ü¼ÒºÀ/.iotlink/sdk/IoT_LINK/iot_link/os/liteos/base/include\__binary_tree.h ****  * @new:    pointer to a bool value, set to true if node not found and created a
 420:C:/Users/²Ü¼ÒºÀ/.iotlink/sdk/IoT_LINK/iot_link/os/liteos/base/include\__binary_tree.h ****  *          new one
 421:C:/Users/²Ü¼ÒºÀ/.iotlink/sdk/IoT_LINK/iot_link/os/liteos/base/include\__binary_tree.h ****  * @create: the node creating routine, <k> is the seconde argument
 422:C:/Users/²Ü¼ÒºÀ/.iotlink/sdk/IoT_LINK/iot_link/os/liteos/base/include\__binary_tree.h ****  * @arg:    the first argument of the <create> routine
 423:C:/Users/²Ü¼ÒºÀ/.iotlink/sdk/IoT_LINK/iot_link/os/liteos/base/include\__binary_tree.h ****  *
 424:C:/Users/²Ü¼ÒºÀ/.iotlink/sdk/IoT_LINK/iot_link/os/liteos/base/include\__binary_tree.h ****  * return: the node with key = <k>, or NULL if node not found and allocate fail.
 425:C:/Users/²Ü¼ÒºÀ/.iotlink/sdk/IoT_LINK/iot_link/os/liteos/base/include\__binary_tree.h ****  */
 426:C:/Users/²Ü¼ÒºÀ/.iotlink/sdk/IoT_LINK/iot_link/os/liteos/base/include\__binary_tree.h **** 
 427:C:/Users/²Ü¼ÒºÀ/.iotlink/sdk/IoT_LINK/iot_link/os/liteos/base/include\__binary_tree.h **** static inline bi_node_t * __bit_node_get (bi_tree_t * t, uintptr_t k, bool * new,
 428:C:/Users/²Ü¼ÒºÀ/.iotlink/sdk/IoT_LINK/iot_link/os/liteos/base/include\__binary_tree.h ****                                           bi_node_t * (* create) (uintptr_t, uintptr_t),
 429:C:/Users/²Ü¼ÒºÀ/.iotlink/sdk/IoT_LINK/iot_link/os/liteos/base/include\__binary_tree.h ****                                           uintptr_t arg)
 430:C:/Users/²Ü¼ÒºÀ/.iotlink/sdk/IoT_LINK/iot_link/os/liteos/base/include\__binary_tree.h **** {
 431:C:/Users/²Ü¼ÒºÀ/.iotlink/sdk/IoT_LINK/iot_link/os/liteos/base/include\__binary_tree.h ****     bi_node_t *  w = t->r;      /* walker, iterator */
 432:C:/Users/²Ü¼ÒºÀ/.iotlink/sdk/IoT_LINK/iot_link/os/liteos/base/include\__binary_tree.h ****     bi_node_t *  l;             /* last one */
 433:C:/Users/²Ü¼ÒºÀ/.iotlink/sdk/IoT_LINK/iot_link/os/liteos/base/include\__binary_tree.h ****     bi_node_t ** p;
 434:C:/Users/²Ü¼ÒºÀ/.iotlink/sdk/IoT_LINK/iot_link/os/liteos/base/include\__binary_tree.h ****     int          c;
 435:C:/Users/²Ü¼ÒºÀ/.iotlink/sdk/IoT_LINK/iot_link/os/liteos/base/include\__binary_tree.h **** 
 436:C:/Users/²Ü¼ÒºÀ/.iotlink/sdk/IoT_LINK/iot_link/os/liteos/base/include\__binary_tree.h ****     if (w == NULL)
 437:C:/Users/²Ü¼ÒºÀ/.iotlink/sdk/IoT_LINK/iot_link/os/liteos/base/include\__binary_tree.h ****     {
 438:C:/Users/²Ü¼ÒºÀ/.iotlink/sdk/IoT_LINK/iot_link/os/liteos/base/include\__binary_tree.h ****         w = create (k, arg);
 439:C:/Users/²Ü¼ÒºÀ/.iotlink/sdk/IoT_LINK/iot_link/os/liteos/base/include\__binary_tree.h **** 
 440:C:/Users/²Ü¼ÒºÀ/.iotlink/sdk/IoT_LINK/iot_link/os/liteos/base/include\__binary_tree.h ****         w->p = w->l = w->r = NULL;
 441:C:/Users/²Ü¼ÒºÀ/.iotlink/sdk/IoT_LINK/iot_link/os/liteos/base/include\__binary_tree.h ****         t->r = w;
 442:C:/Users/²Ü¼ÒºÀ/.iotlink/sdk/IoT_LINK/iot_link/os/liteos/base/include\__binary_tree.h **** 
 443:C:/Users/²Ü¼ÒºÀ/.iotlink/sdk/IoT_LINK/iot_link/os/liteos/base/include\__binary_tree.h ****         *new = true;
 444:C:/Users/²Ü¼ÒºÀ/.iotlink/sdk/IoT_LINK/iot_link/os/liteos/base/include\__binary_tree.h **** 
 445:C:/Users/²Ü¼ÒºÀ/.iotlink/sdk/IoT_LINK/iot_link/os/liteos/base/include\__binary_tree.h ****         return w;
 446:C:/Users/²Ü¼ÒºÀ/.iotlink/sdk/IoT_LINK/iot_link/os/liteos/base/include\__binary_tree.h ****     }
 447:C:/Users/²Ü¼ÒºÀ/.iotlink/sdk/IoT_LINK/iot_link/os/liteos/base/include\__binary_tree.h **** 
 448:C:/Users/²Ü¼ÒºÀ/.iotlink/sdk/IoT_LINK/iot_link/os/liteos/base/include\__binary_tree.h ****     while (1)
 449:C:/Users/²Ü¼ÒºÀ/.iotlink/sdk/IoT_LINK/iot_link/os/liteos/base/include\__binary_tree.h ****     {
 450:C:/Users/²Ü¼ÒºÀ/.iotlink/sdk/IoT_LINK/iot_link/os/liteos/base/include\__binary_tree.h ****         c = t->compare_nk (w, k);
 451:C:/Users/²Ü¼ÒºÀ/.iotlink/sdk/IoT_LINK/iot_link/os/liteos/base/include\__binary_tree.h **** 
 452:C:/Users/²Ü¼ÒºÀ/.iotlink/sdk/IoT_LINK/iot_link/os/liteos/base/include\__binary_tree.h ****         if (c == 0)
 453:C:/Users/²Ü¼ÒºÀ/.iotlink/sdk/IoT_LINK/iot_link/os/liteos/base/include\__binary_tree.h ****         {
 454:C:/Users/²Ü¼ÒºÀ/.iotlink/sdk/IoT_LINK/iot_link/os/liteos/base/include\__binary_tree.h ****             break;
 455:C:/Users/²Ü¼ÒºÀ/.iotlink/sdk/IoT_LINK/iot_link/os/liteos/base/include\__binary_tree.h ****         }
 456:C:/Users/²Ü¼ÒºÀ/.iotlink/sdk/IoT_LINK/iot_link/os/liteos/base/include\__binary_tree.h **** 
 457:C:/Users/²Ü¼ÒºÀ/.iotlink/sdk/IoT_LINK/iot_link/os/liteos/base/include\__binary_tree.h ****         l = w;
ARM GAS  C:\Users\²Ü¼ÒºÀ\AppData\Local\Temp\ccwaEIDi.s 			page 13


 458:C:/Users/²Ü¼ÒºÀ/.iotlink/sdk/IoT_LINK/iot_link/os/liteos/base/include\__binary_tree.h **** 
 459:C:/Users/²Ü¼ÒºÀ/.iotlink/sdk/IoT_LINK/iot_link/os/liteos/base/include\__binary_tree.h ****         p = c < 0 ? &l->r : &l->l;
 460:C:/Users/²Ü¼ÒºÀ/.iotlink/sdk/IoT_LINK/iot_link/os/liteos/base/include\__binary_tree.h ****         w = *p;
 461:C:/Users/²Ü¼ÒºÀ/.iotlink/sdk/IoT_LINK/iot_link/os/liteos/base/include\__binary_tree.h **** 
 462:C:/Users/²Ü¼ÒºÀ/.iotlink/sdk/IoT_LINK/iot_link/os/liteos/base/include\__binary_tree.h ****         if (w == NULL)
 463:C:/Users/²Ü¼ÒºÀ/.iotlink/sdk/IoT_LINK/iot_link/os/liteos/base/include\__binary_tree.h ****         {
 464:C:/Users/²Ü¼ÒºÀ/.iotlink/sdk/IoT_LINK/iot_link/os/liteos/base/include\__binary_tree.h ****             w = create (k, arg);
 465:C:/Users/²Ü¼ÒºÀ/.iotlink/sdk/IoT_LINK/iot_link/os/liteos/base/include\__binary_tree.h **** 
 466:C:/Users/²Ü¼ÒºÀ/.iotlink/sdk/IoT_LINK/iot_link/os/liteos/base/include\__binary_tree.h ****             if (w != NULL)
 467:C:/Users/²Ü¼ÒºÀ/.iotlink/sdk/IoT_LINK/iot_link/os/liteos/base/include\__binary_tree.h ****             {
 468:C:/Users/²Ü¼ÒºÀ/.iotlink/sdk/IoT_LINK/iot_link/os/liteos/base/include\__binary_tree.h ****                 w->p = l;
 469:C:/Users/²Ü¼ÒºÀ/.iotlink/sdk/IoT_LINK/iot_link/os/liteos/base/include\__binary_tree.h ****                 w->l = w->r = NULL;
 470:C:/Users/²Ü¼ÒºÀ/.iotlink/sdk/IoT_LINK/iot_link/os/liteos/base/include\__binary_tree.h **** 
 471:C:/Users/²Ü¼ÒºÀ/.iotlink/sdk/IoT_LINK/iot_link/os/liteos/base/include\__binary_tree.h ****                 *p   = w;
 472:C:/Users/²Ü¼ÒºÀ/.iotlink/sdk/IoT_LINK/iot_link/os/liteos/base/include\__binary_tree.h **** 
 473:C:/Users/²Ü¼ÒºÀ/.iotlink/sdk/IoT_LINK/iot_link/os/liteos/base/include\__binary_tree.h ****                 *new = true;
 474:C:/Users/²Ü¼ÒºÀ/.iotlink/sdk/IoT_LINK/iot_link/os/liteos/base/include\__binary_tree.h ****             }
 475:C:/Users/²Ü¼ÒºÀ/.iotlink/sdk/IoT_LINK/iot_link/os/liteos/base/include\__binary_tree.h **** 
 476:C:/Users/²Ü¼ÒºÀ/.iotlink/sdk/IoT_LINK/iot_link/os/liteos/base/include\__binary_tree.h ****             break;
 477:C:/Users/²Ü¼ÒºÀ/.iotlink/sdk/IoT_LINK/iot_link/os/liteos/base/include\__binary_tree.h ****         }
 478:C:/Users/²Ü¼ÒºÀ/.iotlink/sdk/IoT_LINK/iot_link/os/liteos/base/include\__binary_tree.h ****     }
 479:C:/Users/²Ü¼ÒºÀ/.iotlink/sdk/IoT_LINK/iot_link/os/liteos/base/include\__binary_tree.h **** 
 480:C:/Users/²Ü¼ÒºÀ/.iotlink/sdk/IoT_LINK/iot_link/os/liteos/base/include\__binary_tree.h ****     return w;
 481:C:/Users/²Ü¼ÒºÀ/.iotlink/sdk/IoT_LINK/iot_link/os/liteos/base/include\__binary_tree.h **** }
 482:C:/Users/²Ü¼ÒºÀ/.iotlink/sdk/IoT_LINK/iot_link/os/liteos/base/include\__binary_tree.h **** 
 483:C:/Users/²Ü¼ÒºÀ/.iotlink/sdk/IoT_LINK/iot_link/os/liteos/base/include\__binary_tree.h **** /**
 484:C:/Users/²Ü¼ÒºÀ/.iotlink/sdk/IoT_LINK/iot_link/os/liteos/base/include\__binary_tree.h ****  * __bit_rotate - rotate a sub-tree from <f> to <t>
 485:C:/Users/²Ü¼ÒºÀ/.iotlink/sdk/IoT_LINK/iot_link/os/liteos/base/include\__binary_tree.h ****  * @T: the given tree
 486:C:/Users/²Ü¼ÒºÀ/.iotlink/sdk/IoT_LINK/iot_link/os/liteos/base/include\__binary_tree.h ****  * @n: the sub-tree
 487:C:/Users/²Ü¼ÒºÀ/.iotlink/sdk/IoT_LINK/iot_link/os/liteos/base/include\__binary_tree.h ****  * @f: the form-side
 488:C:/Users/²Ü¼ÒºÀ/.iotlink/sdk/IoT_LINK/iot_link/os/liteos/base/include\__binary_tree.h ****  * @t: the to-side
 489:C:/Users/²Ü¼ÒºÀ/.iotlink/sdk/IoT_LINK/iot_link/os/liteos/base/include\__binary_tree.h ****  *
 490:C:/Users/²Ü¼ÒºÀ/.iotlink/sdk/IoT_LINK/iot_link/os/liteos/base/include\__binary_tree.h ****  * return: NA
 491:C:/Users/²Ü¼ÒºÀ/.iotlink/sdk/IoT_LINK/iot_link/os/liteos/base/include\__binary_tree.h ****  *
 492:C:/Users/²Ü¼ÒºÀ/.iotlink/sdk/IoT_LINK/iot_link/os/liteos/base/include\__binary_tree.h ****  * see also: __bit_rotate_right, __bit_rotate_left
 493:C:/Users/²Ü¼ÒºÀ/.iotlink/sdk/IoT_LINK/iot_link/os/liteos/base/include\__binary_tree.h ****  */
 494:C:/Users/²Ü¼ÒºÀ/.iotlink/sdk/IoT_LINK/iot_link/os/liteos/base/include\__binary_tree.h **** 
 495:C:/Users/²Ü¼ÒºÀ/.iotlink/sdk/IoT_LINK/iot_link/os/liteos/base/include\__binary_tree.h **** #define __bit_rotate(T, n, f, t)                                        \
 496:C:/Users/²Ü¼ÒºÀ/.iotlink/sdk/IoT_LINK/iot_link/os/liteos/base/include\__binary_tree.h ****     do                                                                  \
 497:C:/Users/²Ü¼ÒºÀ/.iotlink/sdk/IoT_LINK/iot_link/os/liteos/base/include\__binary_tree.h ****     {                                                               \
 498:C:/Users/²Ü¼ÒºÀ/.iotlink/sdk/IoT_LINK/iot_link/os/liteos/base/include\__binary_tree.h ****         bi_node_t * a = n->f;                                           \
 499:C:/Users/²Ü¼ÒºÀ/.iotlink/sdk/IoT_LINK/iot_link/os/liteos/base/include\__binary_tree.h ****         bi_node_t * p = __bit_parent (n);                               \
 500:C:/Users/²Ü¼ÒºÀ/.iotlink/sdk/IoT_LINK/iot_link/os/liteos/base/include\__binary_tree.h ****                                                                         \
 501:C:/Users/²Ü¼ÒºÀ/.iotlink/sdk/IoT_LINK/iot_link/os/liteos/base/include\__binary_tree.h ****         if (a->t)   /* a->t is the 'z' in the comments of */            \
 502:C:/Users/²Ü¼ÒºÀ/.iotlink/sdk/IoT_LINK/iot_link/os/liteos/base/include\__binary_tree.h ****         {       /* __bit_rotate_right and __bit_rotate_left */      \
 503:C:/Users/²Ü¼ÒºÀ/.iotlink/sdk/IoT_LINK/iot_link/os/liteos/base/include\__binary_tree.h ****             __bit_set_parent (a->t, n);                                 \
 504:C:/Users/²Ü¼ÒºÀ/.iotlink/sdk/IoT_LINK/iot_link/os/liteos/base/include\__binary_tree.h ****         }                                                           \
 505:C:/Users/²Ü¼ÒºÀ/.iotlink/sdk/IoT_LINK/iot_link/os/liteos/base/include\__binary_tree.h ****                                                                         \
 506:C:/Users/²Ü¼ÒºÀ/.iotlink/sdk/IoT_LINK/iot_link/os/liteos/base/include\__binary_tree.h ****         __bit_set_parent (n, a);                                        \
 507:C:/Users/²Ü¼ÒºÀ/.iotlink/sdk/IoT_LINK/iot_link/os/liteos/base/include\__binary_tree.h ****         n->f = a->t;                                                    \
 508:C:/Users/²Ü¼ÒºÀ/.iotlink/sdk/IoT_LINK/iot_link/os/liteos/base/include\__binary_tree.h ****         a->t = n;                                                       \
 509:C:/Users/²Ü¼ÒºÀ/.iotlink/sdk/IoT_LINK/iot_link/os/liteos/base/include\__binary_tree.h ****                                                                         \
 510:C:/Users/²Ü¼ÒºÀ/.iotlink/sdk/IoT_LINK/iot_link/os/liteos/base/include\__binary_tree.h ****         __bit_set_parent (a, p);                                        \
 511:C:/Users/²Ü¼ÒºÀ/.iotlink/sdk/IoT_LINK/iot_link/os/liteos/base/include\__binary_tree.h ****                                                                         \
 512:C:/Users/²Ü¼ÒºÀ/.iotlink/sdk/IoT_LINK/iot_link/os/liteos/base/include\__binary_tree.h ****         if (p == NULL)                                                  \
 513:C:/Users/²Ü¼ÒºÀ/.iotlink/sdk/IoT_LINK/iot_link/os/liteos/base/include\__binary_tree.h ****         {                                                           \
 514:C:/Users/²Ü¼ÒºÀ/.iotlink/sdk/IoT_LINK/iot_link/os/liteos/base/include\__binary_tree.h ****             T->r = a;                                                   \
ARM GAS  C:\Users\²Ü¼ÒºÀ\AppData\Local\Temp\ccwaEIDi.s 			page 14


 515:C:/Users/²Ü¼ÒºÀ/.iotlink/sdk/IoT_LINK/iot_link/os/liteos/base/include\__binary_tree.h ****         }                                                           \
 516:C:/Users/²Ü¼ÒºÀ/.iotlink/sdk/IoT_LINK/iot_link/os/liteos/base/include\__binary_tree.h ****         else                                                            \
 517:C:/Users/²Ü¼ÒºÀ/.iotlink/sdk/IoT_LINK/iot_link/os/liteos/base/include\__binary_tree.h ****         {                                                           \
 518:C:/Users/²Ü¼ÒºÀ/.iotlink/sdk/IoT_LINK/iot_link/os/liteos/base/include\__binary_tree.h ****             if (n == p->l)                                              \
 519:C:/Users/²Ü¼ÒºÀ/.iotlink/sdk/IoT_LINK/iot_link/os/liteos/base/include\__binary_tree.h ****             {                                                       \
 520:C:/Users/²Ü¼ÒºÀ/.iotlink/sdk/IoT_LINK/iot_link/os/liteos/base/include\__binary_tree.h ****                 p->l = a;                                               \
 521:C:/Users/²Ü¼ÒºÀ/.iotlink/sdk/IoT_LINK/iot_link/os/liteos/base/include\__binary_tree.h ****             }                                                       \
 522:C:/Users/²Ü¼ÒºÀ/.iotlink/sdk/IoT_LINK/iot_link/os/liteos/base/include\__binary_tree.h ****             else                                                        \
 523:C:/Users/²Ü¼ÒºÀ/.iotlink/sdk/IoT_LINK/iot_link/os/liteos/base/include\__binary_tree.h ****             {                                                       \
 524:C:/Users/²Ü¼ÒºÀ/.iotlink/sdk/IoT_LINK/iot_link/os/liteos/base/include\__binary_tree.h ****                 p->r = a;                                               \
 525:C:/Users/²Ü¼ÒºÀ/.iotlink/sdk/IoT_LINK/iot_link/os/liteos/base/include\__binary_tree.h ****             }                                                       \
 526:C:/Users/²Ü¼ÒºÀ/.iotlink/sdk/IoT_LINK/iot_link/os/liteos/base/include\__binary_tree.h ****         }                                                           \
 527:C:/Users/²Ü¼ÒºÀ/.iotlink/sdk/IoT_LINK/iot_link/os/liteos/base/include\__binary_tree.h ****     } while (0)
 528:C:/Users/²Ü¼ÒºÀ/.iotlink/sdk/IoT_LINK/iot_link/os/liteos/base/include\__binary_tree.h **** 
 529:C:/Users/²Ü¼ÒºÀ/.iotlink/sdk/IoT_LINK/iot_link/os/liteos/base/include\__binary_tree.h **** /**
 530:C:/Users/²Ü¼ÒºÀ/.iotlink/sdk/IoT_LINK/iot_link/os/liteos/base/include\__binary_tree.h ****  * __bit_rotate_right - rotate a sub-tree right
 531:C:/Users/²Ü¼ÒºÀ/.iotlink/sdk/IoT_LINK/iot_link/os/liteos/base/include\__binary_tree.h ****  * @T: the given tree
 532:C:/Users/²Ü¼ÒºÀ/.iotlink/sdk/IoT_LINK/iot_link/os/liteos/base/include\__binary_tree.h ****  * @n: the sub-tree
 533:C:/Users/²Ü¼ÒºÀ/.iotlink/sdk/IoT_LINK/iot_link/os/liteos/base/include\__binary_tree.h ****  *
 534:C:/Users/²Ü¼ÒºÀ/.iotlink/sdk/IoT_LINK/iot_link/os/liteos/base/include\__binary_tree.h ****  *      n              a
 535:C:/Users/²Ü¼ÒºÀ/.iotlink/sdk/IoT_LINK/iot_link/os/liteos/base/include\__binary_tree.h ****  *     / \            / \
 536:C:/Users/²Ü¼ÒºÀ/.iotlink/sdk/IoT_LINK/iot_link/os/liteos/base/include\__binary_tree.h ****  *    a   x    ->    y   n
 537:C:/Users/²Ü¼ÒºÀ/.iotlink/sdk/IoT_LINK/iot_link/os/liteos/base/include\__binary_tree.h ****  *   / \                / \
 538:C:/Users/²Ü¼ÒºÀ/.iotlink/sdk/IoT_LINK/iot_link/os/liteos/base/include\__binary_tree.h ****  *  y   z              z   x
 539:C:/Users/²Ü¼ÒºÀ/.iotlink/sdk/IoT_LINK/iot_link/os/liteos/base/include\__binary_tree.h ****  *
 540:C:/Users/²Ü¼ÒºÀ/.iotlink/sdk/IoT_LINK/iot_link/os/liteos/base/include\__binary_tree.h ****  * return: NA
 541:C:/Users/²Ü¼ÒºÀ/.iotlink/sdk/IoT_LINK/iot_link/os/liteos/base/include\__binary_tree.h ****  */
 542:C:/Users/²Ü¼ÒºÀ/.iotlink/sdk/IoT_LINK/iot_link/os/liteos/base/include\__binary_tree.h **** 
 543:C:/Users/²Ü¼ÒºÀ/.iotlink/sdk/IoT_LINK/iot_link/os/liteos/base/include\__binary_tree.h **** static inline void __bit_rotate_right (bi_tree_t * t, bi_node_t * n)
 128              		.loc 1 543 20 is_stmt 1 view -0
 129              		.cfi_startproc
 130              		@ args = 0, pretend = 0, frame = 0
 131              		@ frame_needed = 0, uses_anonymous_args = 0
 544:C:/Users/²Ü¼ÒºÀ/.iotlink/sdk/IoT_LINK/iot_link/os/liteos/base/include\__binary_tree.h **** {
 545:C:/Users/²Ü¼ÒºÀ/.iotlink/sdk/IoT_LINK/iot_link/os/liteos/base/include\__binary_tree.h ****     __bit_rotate (t, n, l, r);
 132              		.loc 1 545 5 view .LVU25
 133              	.LBB282:
 134              		.loc 1 545 5 view .LVU26
 135 0000 D1E90023 		ldrd	r2, r3, [r1]
 136              	.LVL12:
 137              		.loc 1 545 5 is_stmt 0 view .LVU27
 138              	.LBE282:
  78:C:/Users/²Ü¼ÒºÀ/.iotlink/sdk/IoT_LINK/iot_link/os/liteos/base/include\__binary_tree.h **** }
 139              		.loc 1 78 5 is_stmt 1 view .LVU28
 140              	.LBB289:
 141              		.loc 1 545 5 view .LVU29
 142              	.LBE289:
 543:C:/Users/²Ü¼ÒºÀ/.iotlink/sdk/IoT_LINK/iot_link/os/liteos/base/include\__binary_tree.h **** {
 143              		.loc 1 543 20 is_stmt 0 view .LVU30
 144 0004 10B5     		push	{r4, lr}
 145              	.LCFI0:
 146              		.cfi_def_cfa_offset 8
 147              		.cfi_offset 4, -8
 148              		.cfi_offset 14, -4
 149              	.LBB290:
 150              		.loc 1 545 5 view .LVU31
 151 0006 9C68     		ldr	r4, [r3, #8]
ARM GAS  C:\Users\²Ü¼ÒºÀ\AppData\Local\Temp\ccwaEIDi.s 			page 15


 152 0008 04B1     		cbz	r4, .L16
 153              		.loc 1 545 5 is_stmt 1 view .LVU32
 154              	.LVL13:
 155              	.LBB283:
 156              	.LBI283:
  88:C:/Users/²Ü¼ÒºÀ/.iotlink/sdk/IoT_LINK/iot_link/os/liteos/base/include\__binary_tree.h **** {
 157              		.loc 1 88 20 view .LVU33
 158              	.LBB284:
  90:C:/Users/²Ü¼ÒºÀ/.iotlink/sdk/IoT_LINK/iot_link/os/liteos/base/include\__binary_tree.h **** }
 159              		.loc 1 90 5 view .LVU34
  90:C:/Users/²Ü¼ÒºÀ/.iotlink/sdk/IoT_LINK/iot_link/os/liteos/base/include\__binary_tree.h **** }
 160              		.loc 1 90 10 is_stmt 0 view .LVU35
 161 000a 2160     		str	r1, [r4]
 162              	.LVL14:
 163              	.L16:
  90:C:/Users/²Ü¼ÒºÀ/.iotlink/sdk/IoT_LINK/iot_link/os/liteos/base/include\__binary_tree.h **** }
 164              		.loc 1 90 10 view .LVU36
 165              	.LBE284:
 166              	.LBE283:
 167              		.loc 1 545 5 is_stmt 1 view .LVU37
 168              	.LBB285:
 169              	.LBI285:
  88:C:/Users/²Ü¼ÒºÀ/.iotlink/sdk/IoT_LINK/iot_link/os/liteos/base/include\__binary_tree.h **** {
 170              		.loc 1 88 20 view .LVU38
 171              	.LBB286:
  90:C:/Users/²Ü¼ÒºÀ/.iotlink/sdk/IoT_LINK/iot_link/os/liteos/base/include\__binary_tree.h **** }
 172              		.loc 1 90 5 view .LVU39
  90:C:/Users/²Ü¼ÒºÀ/.iotlink/sdk/IoT_LINK/iot_link/os/liteos/base/include\__binary_tree.h **** }
 173              		.loc 1 90 10 is_stmt 0 view .LVU40
 174 000c 0B60     		str	r3, [r1]
 175              	.LVL15:
  90:C:/Users/²Ü¼ÒºÀ/.iotlink/sdk/IoT_LINK/iot_link/os/liteos/base/include\__binary_tree.h **** }
 176              		.loc 1 90 10 view .LVU41
 177              	.LBE286:
 178              	.LBE285:
 179              		.loc 1 545 5 is_stmt 1 view .LVU42
 180 000e 9C68     		ldr	r4, [r3, #8]
 181 0010 4C60     		str	r4, [r1, #4]
 182              		.loc 1 545 5 view .LVU43
 183 0012 9960     		str	r1, [r3, #8]
 184              		.loc 1 545 5 view .LVU44
 185              	.LVL16:
 186              	.LBB287:
 187              	.LBI287:
  88:C:/Users/²Ü¼ÒºÀ/.iotlink/sdk/IoT_LINK/iot_link/os/liteos/base/include\__binary_tree.h **** {
 188              		.loc 1 88 20 view .LVU45
 189              	.LBB288:
  90:C:/Users/²Ü¼ÒºÀ/.iotlink/sdk/IoT_LINK/iot_link/os/liteos/base/include\__binary_tree.h **** }
 190              		.loc 1 90 5 view .LVU46
  90:C:/Users/²Ü¼ÒºÀ/.iotlink/sdk/IoT_LINK/iot_link/os/liteos/base/include\__binary_tree.h **** }
 191              		.loc 1 90 10 is_stmt 0 view .LVU47
 192 0014 1A60     		str	r2, [r3]
 193              	.LVL17:
  90:C:/Users/²Ü¼ÒºÀ/.iotlink/sdk/IoT_LINK/iot_link/os/liteos/base/include\__binary_tree.h **** }
 194              		.loc 1 90 10 view .LVU48
 195              	.LBE288:
 196              	.LBE287:
ARM GAS  C:\Users\²Ü¼ÒºÀ\AppData\Local\Temp\ccwaEIDi.s 			page 16


 197              		.loc 1 545 5 is_stmt 1 view .LVU49
 198 0016 0AB9     		cbnz	r2, .L17
 199              		.loc 1 545 5 view .LVU50
 200 0018 0360     		str	r3, [r0]
 201              	.L15:
 202              		.loc 1 545 5 is_stmt 0 view .LVU51
 203              	.LBE290:
 546:C:/Users/²Ü¼ÒºÀ/.iotlink/sdk/IoT_LINK/iot_link/os/liteos/base/include\__binary_tree.h **** }
 204              		.loc 1 546 1 view .LVU52
 205 001a 10BD     		pop	{r4, pc}
 206              	.L17:
 207              	.LBB291:
 545:C:/Users/²Ü¼ÒºÀ/.iotlink/sdk/IoT_LINK/iot_link/os/liteos/base/include\__binary_tree.h **** }
 208              		.loc 1 545 5 is_stmt 1 view .LVU53
 209 001c 5068     		ldr	r0, [r2, #4]
 210 001e 8142     		cmp	r1, r0
 545:C:/Users/²Ü¼ÒºÀ/.iotlink/sdk/IoT_LINK/iot_link/os/liteos/base/include\__binary_tree.h **** }
 211              		.loc 1 545 5 view .LVU54
 212 0020 0CBF     		ite	eq
 213 0022 5360     		streq	r3, [r2, #4]
 545:C:/Users/²Ü¼ÒºÀ/.iotlink/sdk/IoT_LINK/iot_link/os/liteos/base/include\__binary_tree.h **** }
 214              		.loc 1 545 5 view .LVU55
 215 0024 9360     		strne	r3, [r2, #8]
 216              	.LBE291:
 545:C:/Users/²Ü¼ÒºÀ/.iotlink/sdk/IoT_LINK/iot_link/os/liteos/base/include\__binary_tree.h **** }
 217              		.loc 1 545 5 view .LVU56
 218              		.loc 1 546 1 is_stmt 0 view .LVU57
 219 0026 F8E7     		b	.L15
 220              		.cfi_endproc
 221              	.LFE63:
 223              		.section	.text.__bit_rotate_left.isra.0,"ax",%progbits
 224              		.align	1
 225              		.syntax unified
 226              		.thumb
 227              		.thumb_func
 228              		.fpu fpv4-sp-d16
 230              	__bit_rotate_left.isra.0:
 231              	.LVL18:
 232              	.LFB64:
 547:C:/Users/²Ü¼ÒºÀ/.iotlink/sdk/IoT_LINK/iot_link/os/liteos/base/include\__binary_tree.h **** 
 548:C:/Users/²Ü¼ÒºÀ/.iotlink/sdk/IoT_LINK/iot_link/os/liteos/base/include\__binary_tree.h **** /**
 549:C:/Users/²Ü¼ÒºÀ/.iotlink/sdk/IoT_LINK/iot_link/os/liteos/base/include\__binary_tree.h ****  * __bit_rotate_left - rotate a sub-tree left
 550:C:/Users/²Ü¼ÒºÀ/.iotlink/sdk/IoT_LINK/iot_link/os/liteos/base/include\__binary_tree.h ****  * @T: the given tree
 551:C:/Users/²Ü¼ÒºÀ/.iotlink/sdk/IoT_LINK/iot_link/os/liteos/base/include\__binary_tree.h ****  * @n: the sub-tree
 552:C:/Users/²Ü¼ÒºÀ/.iotlink/sdk/IoT_LINK/iot_link/os/liteos/base/include\__binary_tree.h ****  *
 553:C:/Users/²Ü¼ÒºÀ/.iotlink/sdk/IoT_LINK/iot_link/os/liteos/base/include\__binary_tree.h ****  *    n                  a
 554:C:/Users/²Ü¼ÒºÀ/.iotlink/sdk/IoT_LINK/iot_link/os/liteos/base/include\__binary_tree.h ****  *   / \                / \
 555:C:/Users/²Ü¼ÒºÀ/.iotlink/sdk/IoT_LINK/iot_link/os/liteos/base/include\__binary_tree.h ****  *  x   a      ->      n   y
 556:C:/Users/²Ü¼ÒºÀ/.iotlink/sdk/IoT_LINK/iot_link/os/liteos/base/include\__binary_tree.h ****  *     / \            / \
 557:C:/Users/²Ü¼ÒºÀ/.iotlink/sdk/IoT_LINK/iot_link/os/liteos/base/include\__binary_tree.h ****  *    z   y          x   z
 558:C:/Users/²Ü¼ÒºÀ/.iotlink/sdk/IoT_LINK/iot_link/os/liteos/base/include\__binary_tree.h ****  */
 559:C:/Users/²Ü¼ÒºÀ/.iotlink/sdk/IoT_LINK/iot_link/os/liteos/base/include\__binary_tree.h **** 
 560:C:/Users/²Ü¼ÒºÀ/.iotlink/sdk/IoT_LINK/iot_link/os/liteos/base/include\__binary_tree.h **** static inline void __bit_rotate_left (bi_tree_t * t, bi_node_t * n)
 233              		.loc 1 560 20 is_stmt 1 view -0
 234              		.cfi_startproc
 235              		@ args = 0, pretend = 0, frame = 0
 236              		@ frame_needed = 0, uses_anonymous_args = 0
ARM GAS  C:\Users\²Ü¼ÒºÀ\AppData\Local\Temp\ccwaEIDi.s 			page 17


 561:C:/Users/²Ü¼ÒºÀ/.iotlink/sdk/IoT_LINK/iot_link/os/liteos/base/include\__binary_tree.h **** {
 562:C:/Users/²Ü¼ÒºÀ/.iotlink/sdk/IoT_LINK/iot_link/os/liteos/base/include\__binary_tree.h ****     __bit_rotate (t, n, r, l);
 237              		.loc 1 562 5 view .LVU59
 238              	.LBB292:
 239              		.loc 1 562 5 view .LVU60
 240 0000 8B68     		ldr	r3, [r1, #8]
 241              	.LVL19:
 242              		.loc 1 562 5 view .LVU61
 243 0002 0A68     		ldr	r2, [r1]
 244              	.LVL20:
 245              		.loc 1 562 5 is_stmt 0 view .LVU62
 246              	.LBE292:
  78:C:/Users/²Ü¼ÒºÀ/.iotlink/sdk/IoT_LINK/iot_link/os/liteos/base/include\__binary_tree.h **** }
 247              		.loc 1 78 5 is_stmt 1 view .LVU63
 248              	.LBB299:
 249              		.loc 1 562 5 view .LVU64
 250              	.LBE299:
 560:C:/Users/²Ü¼ÒºÀ/.iotlink/sdk/IoT_LINK/iot_link/os/liteos/base/include\__binary_tree.h **** {
 251              		.loc 1 560 20 is_stmt 0 view .LVU65
 252 0004 10B5     		push	{r4, lr}
 253              	.LCFI1:
 254              		.cfi_def_cfa_offset 8
 255              		.cfi_offset 4, -8
 256              		.cfi_offset 14, -4
 257              	.LBB300:
 258              		.loc 1 562 5 view .LVU66
 259 0006 5C68     		ldr	r4, [r3, #4]
 260 0008 04B1     		cbz	r4, .L24
 261              		.loc 1 562 5 is_stmt 1 view .LVU67
 262              	.LVL21:
 263              	.LBB293:
 264              	.LBI293:
  88:C:/Users/²Ü¼ÒºÀ/.iotlink/sdk/IoT_LINK/iot_link/os/liteos/base/include\__binary_tree.h **** {
 265              		.loc 1 88 20 view .LVU68
 266              	.LBB294:
  90:C:/Users/²Ü¼ÒºÀ/.iotlink/sdk/IoT_LINK/iot_link/os/liteos/base/include\__binary_tree.h **** }
 267              		.loc 1 90 5 view .LVU69
  90:C:/Users/²Ü¼ÒºÀ/.iotlink/sdk/IoT_LINK/iot_link/os/liteos/base/include\__binary_tree.h **** }
 268              		.loc 1 90 10 is_stmt 0 view .LVU70
 269 000a 2160     		str	r1, [r4]
 270              	.LVL22:
 271              	.L24:
  90:C:/Users/²Ü¼ÒºÀ/.iotlink/sdk/IoT_LINK/iot_link/os/liteos/base/include\__binary_tree.h **** }
 272              		.loc 1 90 10 view .LVU71
 273              	.LBE294:
 274              	.LBE293:
 275              		.loc 1 562 5 is_stmt 1 view .LVU72
 276              	.LBB295:
 277              	.LBI295:
  88:C:/Users/²Ü¼ÒºÀ/.iotlink/sdk/IoT_LINK/iot_link/os/liteos/base/include\__binary_tree.h **** {
 278              		.loc 1 88 20 view .LVU73
 279              	.LBB296:
  90:C:/Users/²Ü¼ÒºÀ/.iotlink/sdk/IoT_LINK/iot_link/os/liteos/base/include\__binary_tree.h **** }
 280              		.loc 1 90 5 view .LVU74
  90:C:/Users/²Ü¼ÒºÀ/.iotlink/sdk/IoT_LINK/iot_link/os/liteos/base/include\__binary_tree.h **** }
 281              		.loc 1 90 10 is_stmt 0 view .LVU75
 282 000c 0B60     		str	r3, [r1]
ARM GAS  C:\Users\²Ü¼ÒºÀ\AppData\Local\Temp\ccwaEIDi.s 			page 18


 283              	.LVL23:
  90:C:/Users/²Ü¼ÒºÀ/.iotlink/sdk/IoT_LINK/iot_link/os/liteos/base/include\__binary_tree.h **** }
 284              		.loc 1 90 10 view .LVU76
 285              	.LBE296:
 286              	.LBE295:
 287              		.loc 1 562 5 is_stmt 1 view .LVU77
 288 000e 5C68     		ldr	r4, [r3, #4]
 289 0010 8C60     		str	r4, [r1, #8]
 290              		.loc 1 562 5 view .LVU78
 291              	.LBB297:
 292              	.LBB298:
  90:C:/Users/²Ü¼ÒºÀ/.iotlink/sdk/IoT_LINK/iot_link/os/liteos/base/include\__binary_tree.h **** }
 293              		.loc 1 90 10 is_stmt 0 view .LVU79
 294 0012 C3E90021 		strd	r2, r1, [r3]
 295              	.LBE298:
 296              	.LBE297:
 297              		.loc 1 562 5 is_stmt 1 view .LVU80
 298 0016 0AB9     		cbnz	r2, .L25
 299              		.loc 1 562 5 view .LVU81
 300 0018 0360     		str	r3, [r0]
 301              	.L23:
 302              		.loc 1 562 5 is_stmt 0 view .LVU82
 303              	.LBE300:
 563:C:/Users/²Ü¼ÒºÀ/.iotlink/sdk/IoT_LINK/iot_link/os/liteos/base/include\__binary_tree.h **** }
 304              		.loc 1 563 1 view .LVU83
 305 001a 10BD     		pop	{r4, pc}
 306              	.L25:
 307              	.LBB301:
 562:C:/Users/²Ü¼ÒºÀ/.iotlink/sdk/IoT_LINK/iot_link/os/liteos/base/include\__binary_tree.h **** }
 308              		.loc 1 562 5 is_stmt 1 view .LVU84
 309 001c 5068     		ldr	r0, [r2, #4]
 310 001e 8142     		cmp	r1, r0
 562:C:/Users/²Ü¼ÒºÀ/.iotlink/sdk/IoT_LINK/iot_link/os/liteos/base/include\__binary_tree.h **** }
 311              		.loc 1 562 5 view .LVU85
 312 0020 0CBF     		ite	eq
 313 0022 5360     		streq	r3, [r2, #4]
 562:C:/Users/²Ü¼ÒºÀ/.iotlink/sdk/IoT_LINK/iot_link/os/liteos/base/include\__binary_tree.h **** }
 314              		.loc 1 562 5 view .LVU86
 315 0024 9360     		strne	r3, [r2, #8]
 316              	.LBE301:
 562:C:/Users/²Ü¼ÒºÀ/.iotlink/sdk/IoT_LINK/iot_link/os/liteos/base/include\__binary_tree.h **** }
 317              		.loc 1 562 5 view .LVU87
 318              		.loc 1 563 1 is_stmt 0 view .LVU88
 319 0026 F8E7     		b	.L23
 320              		.cfi_endproc
 321              	.LFE64:
 323              		.section	.text.__rb_insadj,"ax",%progbits
 324              		.align	1
 325              		.syntax unified
 326              		.thumb
 327              		.thumb_func
 328              		.fpu fpv4-sp-d16
 330              	__rb_insadj:
 331              	.LVL24:
 332              	.LFB53:
 102:C:/Users/²Ü¼ÒºÀ/.iotlink/sdk/IoT_LINK/iot_link/os/liteos/utils\rbtree.c **** 
 103:C:/Users/²Ü¼ÒºÀ/.iotlink/sdk/IoT_LINK/iot_link/os/liteos/utils\rbtree.c **** /**
ARM GAS  C:\Users\²Ü¼ÒºÀ\AppData\Local\Temp\ccwaEIDi.s 			page 19


 104:C:/Users/²Ü¼ÒºÀ/.iotlink/sdk/IoT_LINK/iot_link/os/liteos/utils\rbtree.c ****  * __set_color - set a node's color
 105:C:/Users/²Ü¼ÒºÀ/.iotlink/sdk/IoT_LINK/iot_link/os/liteos/utils\rbtree.c ****  * @n: the given node
 106:C:/Users/²Ü¼ÒºÀ/.iotlink/sdk/IoT_LINK/iot_link/os/liteos/utils\rbtree.c ****  * @c: the new color
 107:C:/Users/²Ü¼ÒºÀ/.iotlink/sdk/IoT_LINK/iot_link/os/liteos/utils\rbtree.c ****  *
 108:C:/Users/²Ü¼ÒºÀ/.iotlink/sdk/IoT_LINK/iot_link/os/liteos/utils\rbtree.c ****  * return: NA
 109:C:/Users/²Ü¼ÒºÀ/.iotlink/sdk/IoT_LINK/iot_link/os/liteos/utils\rbtree.c ****  */
 110:C:/Users/²Ü¼ÒºÀ/.iotlink/sdk/IoT_LINK/iot_link/os/liteos/utils\rbtree.c **** 
 111:C:/Users/²Ü¼ÒºÀ/.iotlink/sdk/IoT_LINK/iot_link/os/liteos/utils\rbtree.c **** static inline void __set_color (rb_node_t * n, int c)
 112:C:/Users/²Ü¼ÒºÀ/.iotlink/sdk/IoT_LINK/iot_link/os/liteos/utils\rbtree.c **** {
 113:C:/Users/²Ü¼ÒºÀ/.iotlink/sdk/IoT_LINK/iot_link/os/liteos/utils\rbtree.c ****     n->c = c;
 114:C:/Users/²Ü¼ÒºÀ/.iotlink/sdk/IoT_LINK/iot_link/os/liteos/utils\rbtree.c **** }
 115:C:/Users/²Ü¼ÒºÀ/.iotlink/sdk/IoT_LINK/iot_link/os/liteos/utils\rbtree.c **** 
 116:C:/Users/²Ü¼ÒºÀ/.iotlink/sdk/IoT_LINK/iot_link/os/liteos/utils\rbtree.c **** /**
 117:C:/Users/²Ü¼ÒºÀ/.iotlink/sdk/IoT_LINK/iot_link/os/liteos/utils\rbtree.c ****  * __set_red - set a node to red
 118:C:/Users/²Ü¼ÒºÀ/.iotlink/sdk/IoT_LINK/iot_link/os/liteos/utils\rbtree.c ****  * @n: the given node
 119:C:/Users/²Ü¼ÒºÀ/.iotlink/sdk/IoT_LINK/iot_link/os/liteos/utils\rbtree.c ****  *
 120:C:/Users/²Ü¼ÒºÀ/.iotlink/sdk/IoT_LINK/iot_link/os/liteos/utils\rbtree.c ****  * return: NA
 121:C:/Users/²Ü¼ÒºÀ/.iotlink/sdk/IoT_LINK/iot_link/os/liteos/utils\rbtree.c ****  */
 122:C:/Users/²Ü¼ÒºÀ/.iotlink/sdk/IoT_LINK/iot_link/os/liteos/utils\rbtree.c **** 
 123:C:/Users/²Ü¼ÒºÀ/.iotlink/sdk/IoT_LINK/iot_link/os/liteos/utils\rbtree.c **** static inline void __set_red (rb_node_t * n)
 124:C:/Users/²Ü¼ÒºÀ/.iotlink/sdk/IoT_LINK/iot_link/os/liteos/utils\rbtree.c **** {
 125:C:/Users/²Ü¼ÒºÀ/.iotlink/sdk/IoT_LINK/iot_link/os/liteos/utils\rbtree.c ****     __set_color (n, RBTREE_RED);
 126:C:/Users/²Ü¼ÒºÀ/.iotlink/sdk/IoT_LINK/iot_link/os/liteos/utils\rbtree.c **** }
 127:C:/Users/²Ü¼ÒºÀ/.iotlink/sdk/IoT_LINK/iot_link/os/liteos/utils\rbtree.c **** 
 128:C:/Users/²Ü¼ÒºÀ/.iotlink/sdk/IoT_LINK/iot_link/os/liteos/utils\rbtree.c **** /**
 129:C:/Users/²Ü¼ÒºÀ/.iotlink/sdk/IoT_LINK/iot_link/os/liteos/utils\rbtree.c ****  * __set_black - set a node to black
 130:C:/Users/²Ü¼ÒºÀ/.iotlink/sdk/IoT_LINK/iot_link/os/liteos/utils\rbtree.c ****  * @n: the given node
 131:C:/Users/²Ü¼ÒºÀ/.iotlink/sdk/IoT_LINK/iot_link/os/liteos/utils\rbtree.c ****  *
 132:C:/Users/²Ü¼ÒºÀ/.iotlink/sdk/IoT_LINK/iot_link/os/liteos/utils\rbtree.c ****  * return: NA
 133:C:/Users/²Ü¼ÒºÀ/.iotlink/sdk/IoT_LINK/iot_link/os/liteos/utils\rbtree.c ****  */
 134:C:/Users/²Ü¼ÒºÀ/.iotlink/sdk/IoT_LINK/iot_link/os/liteos/utils\rbtree.c **** 
 135:C:/Users/²Ü¼ÒºÀ/.iotlink/sdk/IoT_LINK/iot_link/os/liteos/utils\rbtree.c **** static inline void __set_black (rb_node_t * n)
 136:C:/Users/²Ü¼ÒºÀ/.iotlink/sdk/IoT_LINK/iot_link/os/liteos/utils\rbtree.c **** {
 137:C:/Users/²Ü¼ÒºÀ/.iotlink/sdk/IoT_LINK/iot_link/os/liteos/utils\rbtree.c ****     __set_color (n, RBTREE_BLACK);
 138:C:/Users/²Ü¼ÒºÀ/.iotlink/sdk/IoT_LINK/iot_link/os/liteos/utils\rbtree.c **** }
 139:C:/Users/²Ü¼ÒºÀ/.iotlink/sdk/IoT_LINK/iot_link/os/liteos/utils\rbtree.c **** 
 140:C:/Users/²Ü¼ÒºÀ/.iotlink/sdk/IoT_LINK/iot_link/os/liteos/utils\rbtree.c **** /**
 141:C:/Users/²Ü¼ÒºÀ/.iotlink/sdk/IoT_LINK/iot_link/os/liteos/utils\rbtree.c ****  * __parent - get the parent of a node
 142:C:/Users/²Ü¼ÒºÀ/.iotlink/sdk/IoT_LINK/iot_link/os/liteos/utils\rbtree.c ****  * @n: the given node
 143:C:/Users/²Ü¼ÒºÀ/.iotlink/sdk/IoT_LINK/iot_link/os/liteos/utils\rbtree.c ****  *
 144:C:/Users/²Ü¼ÒºÀ/.iotlink/sdk/IoT_LINK/iot_link/os/liteos/utils\rbtree.c ****  * return: NA
 145:C:/Users/²Ü¼ÒºÀ/.iotlink/sdk/IoT_LINK/iot_link/os/liteos/utils\rbtree.c ****  */
 146:C:/Users/²Ü¼ÒºÀ/.iotlink/sdk/IoT_LINK/iot_link/os/liteos/utils\rbtree.c **** 
 147:C:/Users/²Ü¼ÒºÀ/.iotlink/sdk/IoT_LINK/iot_link/os/liteos/utils\rbtree.c **** static inline rb_node_t * __parent (rb_node_t * n)
 148:C:/Users/²Ü¼ÒºÀ/.iotlink/sdk/IoT_LINK/iot_link/os/liteos/utils\rbtree.c **** {
 149:C:/Users/²Ü¼ÒºÀ/.iotlink/sdk/IoT_LINK/iot_link/os/liteos/utils\rbtree.c ****     return container_of (n->bin.p, rb_node_t, bin);
 150:C:/Users/²Ü¼ÒºÀ/.iotlink/sdk/IoT_LINK/iot_link/os/liteos/utils\rbtree.c **** }
 151:C:/Users/²Ü¼ÒºÀ/.iotlink/sdk/IoT_LINK/iot_link/os/liteos/utils\rbtree.c **** 
 152:C:/Users/²Ü¼ÒºÀ/.iotlink/sdk/IoT_LINK/iot_link/os/liteos/utils\rbtree.c **** /**
 153:C:/Users/²Ü¼ÒºÀ/.iotlink/sdk/IoT_LINK/iot_link/os/liteos/utils\rbtree.c ****  * __left - get the left child of a node
 154:C:/Users/²Ü¼ÒºÀ/.iotlink/sdk/IoT_LINK/iot_link/os/liteos/utils\rbtree.c ****  * @n: the given node
 155:C:/Users/²Ü¼ÒºÀ/.iotlink/sdk/IoT_LINK/iot_link/os/liteos/utils\rbtree.c ****  *
 156:C:/Users/²Ü¼ÒºÀ/.iotlink/sdk/IoT_LINK/iot_link/os/liteos/utils\rbtree.c ****  * return: NA
 157:C:/Users/²Ü¼ÒºÀ/.iotlink/sdk/IoT_LINK/iot_link/os/liteos/utils\rbtree.c ****  */
 158:C:/Users/²Ü¼ÒºÀ/.iotlink/sdk/IoT_LINK/iot_link/os/liteos/utils\rbtree.c **** 
 159:C:/Users/²Ü¼ÒºÀ/.iotlink/sdk/IoT_LINK/iot_link/os/liteos/utils\rbtree.c **** static inline rb_node_t * __left (rb_node_t * n)
 160:C:/Users/²Ü¼ÒºÀ/.iotlink/sdk/IoT_LINK/iot_link/os/liteos/utils\rbtree.c **** {
ARM GAS  C:\Users\²Ü¼ÒºÀ\AppData\Local\Temp\ccwaEIDi.s 			page 20


 161:C:/Users/²Ü¼ÒºÀ/.iotlink/sdk/IoT_LINK/iot_link/os/liteos/utils\rbtree.c ****     return container_of (n->bin.l, rb_node_t, bin);
 162:C:/Users/²Ü¼ÒºÀ/.iotlink/sdk/IoT_LINK/iot_link/os/liteos/utils\rbtree.c **** }
 163:C:/Users/²Ü¼ÒºÀ/.iotlink/sdk/IoT_LINK/iot_link/os/liteos/utils\rbtree.c **** /**
 164:C:/Users/²Ü¼ÒºÀ/.iotlink/sdk/IoT_LINK/iot_link/os/liteos/utils\rbtree.c ****  * __right - get the right child of a node
 165:C:/Users/²Ü¼ÒºÀ/.iotlink/sdk/IoT_LINK/iot_link/os/liteos/utils\rbtree.c ****  * @n: the given node
 166:C:/Users/²Ü¼ÒºÀ/.iotlink/sdk/IoT_LINK/iot_link/os/liteos/utils\rbtree.c ****  *
 167:C:/Users/²Ü¼ÒºÀ/.iotlink/sdk/IoT_LINK/iot_link/os/liteos/utils\rbtree.c ****  * return: NA
 168:C:/Users/²Ü¼ÒºÀ/.iotlink/sdk/IoT_LINK/iot_link/os/liteos/utils\rbtree.c ****  */
 169:C:/Users/²Ü¼ÒºÀ/.iotlink/sdk/IoT_LINK/iot_link/os/liteos/utils\rbtree.c **** 
 170:C:/Users/²Ü¼ÒºÀ/.iotlink/sdk/IoT_LINK/iot_link/os/liteos/utils\rbtree.c **** static inline rb_node_t * __right (rb_node_t * n)
 171:C:/Users/²Ü¼ÒºÀ/.iotlink/sdk/IoT_LINK/iot_link/os/liteos/utils\rbtree.c **** {
 172:C:/Users/²Ü¼ÒºÀ/.iotlink/sdk/IoT_LINK/iot_link/os/liteos/utils\rbtree.c ****     return container_of (n->bin.r, rb_node_t, bin);
 173:C:/Users/²Ü¼ÒºÀ/.iotlink/sdk/IoT_LINK/iot_link/os/liteos/utils\rbtree.c **** }
 174:C:/Users/²Ü¼ÒºÀ/.iotlink/sdk/IoT_LINK/iot_link/os/liteos/utils\rbtree.c **** 
 175:C:/Users/²Ü¼ÒºÀ/.iotlink/sdk/IoT_LINK/iot_link/os/liteos/utils\rbtree.c **** /**
 176:C:/Users/²Ü¼ÒºÀ/.iotlink/sdk/IoT_LINK/iot_link/os/liteos/utils\rbtree.c ****  * __root - get the root of a tree
 177:C:/Users/²Ü¼ÒºÀ/.iotlink/sdk/IoT_LINK/iot_link/os/liteos/utils\rbtree.c ****  * @n: the given tree
 178:C:/Users/²Ü¼ÒºÀ/.iotlink/sdk/IoT_LINK/iot_link/os/liteos/utils\rbtree.c ****  *
 179:C:/Users/²Ü¼ÒºÀ/.iotlink/sdk/IoT_LINK/iot_link/os/liteos/utils\rbtree.c ****  * return: NA
 180:C:/Users/²Ü¼ÒºÀ/.iotlink/sdk/IoT_LINK/iot_link/os/liteos/utils\rbtree.c ****  */
 181:C:/Users/²Ü¼ÒºÀ/.iotlink/sdk/IoT_LINK/iot_link/os/liteos/utils\rbtree.c **** 
 182:C:/Users/²Ü¼ÒºÀ/.iotlink/sdk/IoT_LINK/iot_link/os/liteos/utils\rbtree.c **** static inline rb_node_t * __root (rb_tree_t * t)
 183:C:/Users/²Ü¼ÒºÀ/.iotlink/sdk/IoT_LINK/iot_link/os/liteos/utils\rbtree.c **** {
 184:C:/Users/²Ü¼ÒºÀ/.iotlink/sdk/IoT_LINK/iot_link/os/liteos/utils\rbtree.c ****     return container_of (t->bit.r, rb_node_t, bin);
 185:C:/Users/²Ü¼ÒºÀ/.iotlink/sdk/IoT_LINK/iot_link/os/liteos/utils\rbtree.c **** }
 186:C:/Users/²Ü¼ÒºÀ/.iotlink/sdk/IoT_LINK/iot_link/os/liteos/utils\rbtree.c **** 
 187:C:/Users/²Ü¼ÒºÀ/.iotlink/sdk/IoT_LINK/iot_link/os/liteos/utils\rbtree.c **** /**
 188:C:/Users/²Ü¼ÒºÀ/.iotlink/sdk/IoT_LINK/iot_link/os/liteos/utils\rbtree.c ****  * __set_parent - set the parent of a node
 189:C:/Users/²Ü¼ÒºÀ/.iotlink/sdk/IoT_LINK/iot_link/os/liteos/utils\rbtree.c ****  * @n: the given node
 190:C:/Users/²Ü¼ÒºÀ/.iotlink/sdk/IoT_LINK/iot_link/os/liteos/utils\rbtree.c ****  * @p: the new parent
 191:C:/Users/²Ü¼ÒºÀ/.iotlink/sdk/IoT_LINK/iot_link/os/liteos/utils\rbtree.c ****  *
 192:C:/Users/²Ü¼ÒºÀ/.iotlink/sdk/IoT_LINK/iot_link/os/liteos/utils\rbtree.c ****  * return: NA
 193:C:/Users/²Ü¼ÒºÀ/.iotlink/sdk/IoT_LINK/iot_link/os/liteos/utils\rbtree.c ****  */
 194:C:/Users/²Ü¼ÒºÀ/.iotlink/sdk/IoT_LINK/iot_link/os/liteos/utils\rbtree.c **** 
 195:C:/Users/²Ü¼ÒºÀ/.iotlink/sdk/IoT_LINK/iot_link/os/liteos/utils\rbtree.c **** static inline void __set_parent (rb_node_t * n, rb_node_t * p)
 196:C:/Users/²Ü¼ÒºÀ/.iotlink/sdk/IoT_LINK/iot_link/os/liteos/utils\rbtree.c **** {
 197:C:/Users/²Ü¼ÒºÀ/.iotlink/sdk/IoT_LINK/iot_link/os/liteos/utils\rbtree.c ****     n->bin.p = &p->bin;
 198:C:/Users/²Ü¼ÒºÀ/.iotlink/sdk/IoT_LINK/iot_link/os/liteos/utils\rbtree.c **** }
 199:C:/Users/²Ü¼ÒºÀ/.iotlink/sdk/IoT_LINK/iot_link/os/liteos/utils\rbtree.c **** 
 200:C:/Users/²Ü¼ÒºÀ/.iotlink/sdk/IoT_LINK/iot_link/os/liteos/utils\rbtree.c **** /**
 201:C:/Users/²Ü¼ÒºÀ/.iotlink/sdk/IoT_LINK/iot_link/os/liteos/utils\rbtree.c ****  * __set_left - set the left child of a node
 202:C:/Users/²Ü¼ÒºÀ/.iotlink/sdk/IoT_LINK/iot_link/os/liteos/utils\rbtree.c ****  * @n: the given node
 203:C:/Users/²Ü¼ÒºÀ/.iotlink/sdk/IoT_LINK/iot_link/os/liteos/utils\rbtree.c ****  * @l: the new left child
 204:C:/Users/²Ü¼ÒºÀ/.iotlink/sdk/IoT_LINK/iot_link/os/liteos/utils\rbtree.c ****  *
 205:C:/Users/²Ü¼ÒºÀ/.iotlink/sdk/IoT_LINK/iot_link/os/liteos/utils\rbtree.c ****  * return: NA
 206:C:/Users/²Ü¼ÒºÀ/.iotlink/sdk/IoT_LINK/iot_link/os/liteos/utils\rbtree.c ****  */
 207:C:/Users/²Ü¼ÒºÀ/.iotlink/sdk/IoT_LINK/iot_link/os/liteos/utils\rbtree.c **** 
 208:C:/Users/²Ü¼ÒºÀ/.iotlink/sdk/IoT_LINK/iot_link/os/liteos/utils\rbtree.c **** static inline void __set_left (rb_node_t * n, rb_node_t * l)
 209:C:/Users/²Ü¼ÒºÀ/.iotlink/sdk/IoT_LINK/iot_link/os/liteos/utils\rbtree.c **** {
 210:C:/Users/²Ü¼ÒºÀ/.iotlink/sdk/IoT_LINK/iot_link/os/liteos/utils\rbtree.c ****     n->bin.l = &l->bin;
 211:C:/Users/²Ü¼ÒºÀ/.iotlink/sdk/IoT_LINK/iot_link/os/liteos/utils\rbtree.c **** }
 212:C:/Users/²Ü¼ÒºÀ/.iotlink/sdk/IoT_LINK/iot_link/os/liteos/utils\rbtree.c **** 
 213:C:/Users/²Ü¼ÒºÀ/.iotlink/sdk/IoT_LINK/iot_link/os/liteos/utils\rbtree.c **** /**
 214:C:/Users/²Ü¼ÒºÀ/.iotlink/sdk/IoT_LINK/iot_link/os/liteos/utils\rbtree.c ****  * __set_right - set the right child of a node
 215:C:/Users/²Ü¼ÒºÀ/.iotlink/sdk/IoT_LINK/iot_link/os/liteos/utils\rbtree.c ****  * @n: the given node
 216:C:/Users/²Ü¼ÒºÀ/.iotlink/sdk/IoT_LINK/iot_link/os/liteos/utils\rbtree.c ****  * @r: the new right child
 217:C:/Users/²Ü¼ÒºÀ/.iotlink/sdk/IoT_LINK/iot_link/os/liteos/utils\rbtree.c ****  *
ARM GAS  C:\Users\²Ü¼ÒºÀ\AppData\Local\Temp\ccwaEIDi.s 			page 21


 218:C:/Users/²Ü¼ÒºÀ/.iotlink/sdk/IoT_LINK/iot_link/os/liteos/utils\rbtree.c ****  * return: NA
 219:C:/Users/²Ü¼ÒºÀ/.iotlink/sdk/IoT_LINK/iot_link/os/liteos/utils\rbtree.c ****  */
 220:C:/Users/²Ü¼ÒºÀ/.iotlink/sdk/IoT_LINK/iot_link/os/liteos/utils\rbtree.c **** 
 221:C:/Users/²Ü¼ÒºÀ/.iotlink/sdk/IoT_LINK/iot_link/os/liteos/utils\rbtree.c **** static inline void __set_right (rb_node_t * n, rb_node_t * r)
 222:C:/Users/²Ü¼ÒºÀ/.iotlink/sdk/IoT_LINK/iot_link/os/liteos/utils\rbtree.c **** {
 223:C:/Users/²Ü¼ÒºÀ/.iotlink/sdk/IoT_LINK/iot_link/os/liteos/utils\rbtree.c ****     n->bin.r = &r->bin;
 224:C:/Users/²Ü¼ÒºÀ/.iotlink/sdk/IoT_LINK/iot_link/os/liteos/utils\rbtree.c **** }
 225:C:/Users/²Ü¼ÒºÀ/.iotlink/sdk/IoT_LINK/iot_link/os/liteos/utils\rbtree.c **** 
 226:C:/Users/²Ü¼ÒºÀ/.iotlink/sdk/IoT_LINK/iot_link/os/liteos/utils\rbtree.c **** /**
 227:C:/Users/²Ü¼ÒºÀ/.iotlink/sdk/IoT_LINK/iot_link/os/liteos/utils\rbtree.c ****  * __set_root - set the root of a tree
 228:C:/Users/²Ü¼ÒºÀ/.iotlink/sdk/IoT_LINK/iot_link/os/liteos/utils\rbtree.c ****  * @n: the given tree
 229:C:/Users/²Ü¼ÒºÀ/.iotlink/sdk/IoT_LINK/iot_link/os/liteos/utils\rbtree.c ****  * @r: the new root
 230:C:/Users/²Ü¼ÒºÀ/.iotlink/sdk/IoT_LINK/iot_link/os/liteos/utils\rbtree.c ****  *
 231:C:/Users/²Ü¼ÒºÀ/.iotlink/sdk/IoT_LINK/iot_link/os/liteos/utils\rbtree.c ****  * return: NA
 232:C:/Users/²Ü¼ÒºÀ/.iotlink/sdk/IoT_LINK/iot_link/os/liteos/utils\rbtree.c ****  */
 233:C:/Users/²Ü¼ÒºÀ/.iotlink/sdk/IoT_LINK/iot_link/os/liteos/utils\rbtree.c **** 
 234:C:/Users/²Ü¼ÒºÀ/.iotlink/sdk/IoT_LINK/iot_link/os/liteos/utils\rbtree.c **** static inline void __set_root (rb_tree_t * t, rb_node_t * r)
 235:C:/Users/²Ü¼ÒºÀ/.iotlink/sdk/IoT_LINK/iot_link/os/liteos/utils\rbtree.c **** {
 236:C:/Users/²Ü¼ÒºÀ/.iotlink/sdk/IoT_LINK/iot_link/os/liteos/utils\rbtree.c ****     t->bit.r = &r->bin;
 237:C:/Users/²Ü¼ÒºÀ/.iotlink/sdk/IoT_LINK/iot_link/os/liteos/utils\rbtree.c **** }
 238:C:/Users/²Ü¼ÒºÀ/.iotlink/sdk/IoT_LINK/iot_link/os/liteos/utils\rbtree.c **** 
 239:C:/Users/²Ü¼ÒºÀ/.iotlink/sdk/IoT_LINK/iot_link/os/liteos/utils\rbtree.c **** /**
 240:C:/Users/²Ü¼ÒºÀ/.iotlink/sdk/IoT_LINK/iot_link/os/liteos/utils\rbtree.c ****  * __raw_grand - get the grand parent for a node, assume n and p(n) are not NULL
 241:C:/Users/²Ü¼ÒºÀ/.iotlink/sdk/IoT_LINK/iot_link/os/liteos/utils\rbtree.c ****  * @n: the given node
 242:C:/Users/²Ü¼ÒºÀ/.iotlink/sdk/IoT_LINK/iot_link/os/liteos/utils\rbtree.c ****  *
 243:C:/Users/²Ü¼ÒºÀ/.iotlink/sdk/IoT_LINK/iot_link/os/liteos/utils\rbtree.c ****  * return: grand parent of the node <n>
 244:C:/Users/²Ü¼ÒºÀ/.iotlink/sdk/IoT_LINK/iot_link/os/liteos/utils\rbtree.c ****  */
 245:C:/Users/²Ü¼ÒºÀ/.iotlink/sdk/IoT_LINK/iot_link/os/liteos/utils\rbtree.c **** 
 246:C:/Users/²Ü¼ÒºÀ/.iotlink/sdk/IoT_LINK/iot_link/os/liteos/utils\rbtree.c **** static inline rb_node_t * __raw_grand (rb_node_t * n)
 247:C:/Users/²Ü¼ÒºÀ/.iotlink/sdk/IoT_LINK/iot_link/os/liteos/utils\rbtree.c **** {
 248:C:/Users/²Ü¼ÒºÀ/.iotlink/sdk/IoT_LINK/iot_link/os/liteos/utils\rbtree.c ****     return container_of (__bit_raw_grand (&n->bin), rb_node_t, bin);
 249:C:/Users/²Ü¼ÒºÀ/.iotlink/sdk/IoT_LINK/iot_link/os/liteos/utils\rbtree.c **** }
 250:C:/Users/²Ü¼ÒºÀ/.iotlink/sdk/IoT_LINK/iot_link/os/liteos/utils\rbtree.c **** 
 251:C:/Users/²Ü¼ÒºÀ/.iotlink/sdk/IoT_LINK/iot_link/os/liteos/utils\rbtree.c **** /**
 252:C:/Users/²Ü¼ÒºÀ/.iotlink/sdk/IoT_LINK/iot_link/os/liteos/utils\rbtree.c ****  * __raw_uncle - get the uncle for a node, assume n, p(n) and g(n) are not NULL
 253:C:/Users/²Ü¼ÒºÀ/.iotlink/sdk/IoT_LINK/iot_link/os/liteos/utils\rbtree.c ****  * @n: the given node
 254:C:/Users/²Ü¼ÒºÀ/.iotlink/sdk/IoT_LINK/iot_link/os/liteos/utils\rbtree.c ****  *
 255:C:/Users/²Ü¼ÒºÀ/.iotlink/sdk/IoT_LINK/iot_link/os/liteos/utils\rbtree.c ****  * return: uncle of the node <n>
 256:C:/Users/²Ü¼ÒºÀ/.iotlink/sdk/IoT_LINK/iot_link/os/liteos/utils\rbtree.c ****  */
 257:C:/Users/²Ü¼ÒºÀ/.iotlink/sdk/IoT_LINK/iot_link/os/liteos/utils\rbtree.c **** 
 258:C:/Users/²Ü¼ÒºÀ/.iotlink/sdk/IoT_LINK/iot_link/os/liteos/utils\rbtree.c **** static inline rb_node_t * __raw_uncle (rb_node_t * n)
 259:C:/Users/²Ü¼ÒºÀ/.iotlink/sdk/IoT_LINK/iot_link/os/liteos/utils\rbtree.c **** {
 260:C:/Users/²Ü¼ÒºÀ/.iotlink/sdk/IoT_LINK/iot_link/os/liteos/utils\rbtree.c ****     return container_of (__bit_raw_uncle (&n->bin), rb_node_t, bin);
 261:C:/Users/²Ü¼ÒºÀ/.iotlink/sdk/IoT_LINK/iot_link/os/liteos/utils\rbtree.c **** }
 262:C:/Users/²Ü¼ÒºÀ/.iotlink/sdk/IoT_LINK/iot_link/os/liteos/utils\rbtree.c **** 
 263:C:/Users/²Ü¼ÒºÀ/.iotlink/sdk/IoT_LINK/iot_link/os/liteos/utils\rbtree.c **** /**
 264:C:/Users/²Ü¼ÒºÀ/.iotlink/sdk/IoT_LINK/iot_link/os/liteos/utils\rbtree.c ****  * __rotate_right - rotate the sub-tree right
 265:C:/Users/²Ü¼ÒºÀ/.iotlink/sdk/IoT_LINK/iot_link/os/liteos/utils\rbtree.c ****  * @t: the given tree
 266:C:/Users/²Ü¼ÒºÀ/.iotlink/sdk/IoT_LINK/iot_link/os/liteos/utils\rbtree.c ****  * @n: the given node (indcated the sub-tree)
 267:C:/Users/²Ü¼ÒºÀ/.iotlink/sdk/IoT_LINK/iot_link/os/liteos/utils\rbtree.c ****  *
 268:C:/Users/²Ü¼ÒºÀ/.iotlink/sdk/IoT_LINK/iot_link/os/liteos/utils\rbtree.c ****  * return: NA
 269:C:/Users/²Ü¼ÒºÀ/.iotlink/sdk/IoT_LINK/iot_link/os/liteos/utils\rbtree.c ****  */
 270:C:/Users/²Ü¼ÒºÀ/.iotlink/sdk/IoT_LINK/iot_link/os/liteos/utils\rbtree.c **** 
 271:C:/Users/²Ü¼ÒºÀ/.iotlink/sdk/IoT_LINK/iot_link/os/liteos/utils\rbtree.c **** static inline void __rotate_right (rb_tree_t * t, rb_node_t * n)
 272:C:/Users/²Ü¼ÒºÀ/.iotlink/sdk/IoT_LINK/iot_link/os/liteos/utils\rbtree.c **** {
 273:C:/Users/²Ü¼ÒºÀ/.iotlink/sdk/IoT_LINK/iot_link/os/liteos/utils\rbtree.c ****     __bit_rotate_right (&t->bit, &n->bin);
 274:C:/Users/²Ü¼ÒºÀ/.iotlink/sdk/IoT_LINK/iot_link/os/liteos/utils\rbtree.c **** }
ARM GAS  C:\Users\²Ü¼ÒºÀ\AppData\Local\Temp\ccwaEIDi.s 			page 22


 275:C:/Users/²Ü¼ÒºÀ/.iotlink/sdk/IoT_LINK/iot_link/os/liteos/utils\rbtree.c **** 
 276:C:/Users/²Ü¼ÒºÀ/.iotlink/sdk/IoT_LINK/iot_link/os/liteos/utils\rbtree.c **** /**
 277:C:/Users/²Ü¼ÒºÀ/.iotlink/sdk/IoT_LINK/iot_link/os/liteos/utils\rbtree.c ****  * __rotate_left - rotate the sub-tree left
 278:C:/Users/²Ü¼ÒºÀ/.iotlink/sdk/IoT_LINK/iot_link/os/liteos/utils\rbtree.c ****  * @t: the given tree
 279:C:/Users/²Ü¼ÒºÀ/.iotlink/sdk/IoT_LINK/iot_link/os/liteos/utils\rbtree.c ****  * @n: the given node (indcated the sub-tree)
 280:C:/Users/²Ü¼ÒºÀ/.iotlink/sdk/IoT_LINK/iot_link/os/liteos/utils\rbtree.c ****  *
 281:C:/Users/²Ü¼ÒºÀ/.iotlink/sdk/IoT_LINK/iot_link/os/liteos/utils\rbtree.c ****  * return: NA
 282:C:/Users/²Ü¼ÒºÀ/.iotlink/sdk/IoT_LINK/iot_link/os/liteos/utils\rbtree.c ****  */
 283:C:/Users/²Ü¼ÒºÀ/.iotlink/sdk/IoT_LINK/iot_link/os/liteos/utils\rbtree.c **** 
 284:C:/Users/²Ü¼ÒºÀ/.iotlink/sdk/IoT_LINK/iot_link/os/liteos/utils\rbtree.c **** static inline void __rotate_left (rb_tree_t * t, rb_node_t * n)
 285:C:/Users/²Ü¼ÒºÀ/.iotlink/sdk/IoT_LINK/iot_link/os/liteos/utils\rbtree.c **** {
 286:C:/Users/²Ü¼ÒºÀ/.iotlink/sdk/IoT_LINK/iot_link/os/liteos/utils\rbtree.c ****     __bit_rotate_left (&t->bit, &n->bin);
 287:C:/Users/²Ü¼ÒºÀ/.iotlink/sdk/IoT_LINK/iot_link/os/liteos/utils\rbtree.c **** }
 288:C:/Users/²Ü¼ÒºÀ/.iotlink/sdk/IoT_LINK/iot_link/os/liteos/utils\rbtree.c **** 
 289:C:/Users/²Ü¼ÒºÀ/.iotlink/sdk/IoT_LINK/iot_link/os/liteos/utils\rbtree.c **** /**
 290:C:/Users/²Ü¼ÒºÀ/.iotlink/sdk/IoT_LINK/iot_link/os/liteos/utils\rbtree.c ****  * __successor - the successor node of a node
 291:C:/Users/²Ü¼ÒºÀ/.iotlink/sdk/IoT_LINK/iot_link/os/liteos/utils\rbtree.c ****  * @n: the given node
 292:C:/Users/²Ü¼ÒºÀ/.iotlink/sdk/IoT_LINK/iot_link/os/liteos/utils\rbtree.c ****  *
 293:C:/Users/²Ü¼ÒºÀ/.iotlink/sdk/IoT_LINK/iot_link/os/liteos/utils\rbtree.c ****  * return: the successor of <n>
 294:C:/Users/²Ü¼ÒºÀ/.iotlink/sdk/IoT_LINK/iot_link/os/liteos/utils\rbtree.c ****  */
 295:C:/Users/²Ü¼ÒºÀ/.iotlink/sdk/IoT_LINK/iot_link/os/liteos/utils\rbtree.c **** 
 296:C:/Users/²Ü¼ÒºÀ/.iotlink/sdk/IoT_LINK/iot_link/os/liteos/utils\rbtree.c **** static inline rb_node_t * __successor (rb_node_t * n)
 297:C:/Users/²Ü¼ÒºÀ/.iotlink/sdk/IoT_LINK/iot_link/os/liteos/utils\rbtree.c **** {
 298:C:/Users/²Ü¼ÒºÀ/.iotlink/sdk/IoT_LINK/iot_link/os/liteos/utils\rbtree.c ****     return container_of (__bit_successor (&n->bin), rb_node_t, bin);
 299:C:/Users/²Ü¼ÒºÀ/.iotlink/sdk/IoT_LINK/iot_link/os/liteos/utils\rbtree.c **** }
 300:C:/Users/²Ü¼ÒºÀ/.iotlink/sdk/IoT_LINK/iot_link/os/liteos/utils\rbtree.c **** 
 301:C:/Users/²Ü¼ÒºÀ/.iotlink/sdk/IoT_LINK/iot_link/os/liteos/utils\rbtree.c **** /**
 302:C:/Users/²Ü¼ÒºÀ/.iotlink/sdk/IoT_LINK/iot_link/os/liteos/utils\rbtree.c ****  * __predecessor - the predecessor node of a node
 303:C:/Users/²Ü¼ÒºÀ/.iotlink/sdk/IoT_LINK/iot_link/os/liteos/utils\rbtree.c ****  * @n: the given node
 304:C:/Users/²Ü¼ÒºÀ/.iotlink/sdk/IoT_LINK/iot_link/os/liteos/utils\rbtree.c ****  *
 305:C:/Users/²Ü¼ÒºÀ/.iotlink/sdk/IoT_LINK/iot_link/os/liteos/utils\rbtree.c ****  * return: the predecessor of <n>
 306:C:/Users/²Ü¼ÒºÀ/.iotlink/sdk/IoT_LINK/iot_link/os/liteos/utils\rbtree.c ****  */
 307:C:/Users/²Ü¼ÒºÀ/.iotlink/sdk/IoT_LINK/iot_link/os/liteos/utils\rbtree.c **** 
 308:C:/Users/²Ü¼ÒºÀ/.iotlink/sdk/IoT_LINK/iot_link/os/liteos/utils\rbtree.c **** static inline rb_node_t * __predecessor (rb_node_t * n)
 309:C:/Users/²Ü¼ÒºÀ/.iotlink/sdk/IoT_LINK/iot_link/os/liteos/utils\rbtree.c **** {
 310:C:/Users/²Ü¼ÒºÀ/.iotlink/sdk/IoT_LINK/iot_link/os/liteos/utils\rbtree.c ****     return container_of (__bit_predecessor (&n->bin), rb_node_t, bin);
 311:C:/Users/²Ü¼ÒºÀ/.iotlink/sdk/IoT_LINK/iot_link/os/liteos/utils\rbtree.c **** }
 312:C:/Users/²Ü¼ÒºÀ/.iotlink/sdk/IoT_LINK/iot_link/os/liteos/utils\rbtree.c **** 
 313:C:/Users/²Ü¼ÒºÀ/.iotlink/sdk/IoT_LINK/iot_link/os/liteos/utils\rbtree.c **** /**
 314:C:/Users/²Ü¼ÒºÀ/.iotlink/sdk/IoT_LINK/iot_link/os/liteos/utils\rbtree.c ****  * rb_find_eq - find a given key in a rb-tree
 315:C:/Users/²Ü¼ÒºÀ/.iotlink/sdk/IoT_LINK/iot_link/os/liteos/utils\rbtree.c ****  * @t: the given tree
 316:C:/Users/²Ü¼ÒºÀ/.iotlink/sdk/IoT_LINK/iot_link/os/liteos/utils\rbtree.c ****  * @k: the key value
 317:C:/Users/²Ü¼ÒºÀ/.iotlink/sdk/IoT_LINK/iot_link/os/liteos/utils\rbtree.c ****  *
 318:C:/Users/²Ü¼ÒºÀ/.iotlink/sdk/IoT_LINK/iot_link/os/liteos/utils\rbtree.c ****  * return: the node with key = <k>, NULL or key not found.
 319:C:/Users/²Ü¼ÒºÀ/.iotlink/sdk/IoT_LINK/iot_link/os/liteos/utils\rbtree.c ****  */
 320:C:/Users/²Ü¼ÒºÀ/.iotlink/sdk/IoT_LINK/iot_link/os/liteos/utils\rbtree.c **** 
 321:C:/Users/²Ü¼ÒºÀ/.iotlink/sdk/IoT_LINK/iot_link/os/liteos/utils\rbtree.c **** rb_node_t * rb_find_eq (rb_tree_t * t, uintptr_t k)
 322:C:/Users/²Ü¼ÒºÀ/.iotlink/sdk/IoT_LINK/iot_link/os/liteos/utils\rbtree.c **** {
 323:C:/Users/²Ü¼ÒºÀ/.iotlink/sdk/IoT_LINK/iot_link/os/liteos/utils\rbtree.c ****     return container_of (__bit_find_eq (&t->bit, k), rb_node_t, bin);
 324:C:/Users/²Ü¼ÒºÀ/.iotlink/sdk/IoT_LINK/iot_link/os/liteos/utils\rbtree.c **** }
 325:C:/Users/²Ü¼ÒºÀ/.iotlink/sdk/IoT_LINK/iot_link/os/liteos/utils\rbtree.c **** 
 326:C:/Users/²Ü¼ÒºÀ/.iotlink/sdk/IoT_LINK/iot_link/os/liteos/utils\rbtree.c **** /**
 327:C:/Users/²Ü¼ÒºÀ/.iotlink/sdk/IoT_LINK/iot_link/os/liteos/utils\rbtree.c ****  * rb_find_ge - find a node that is just greater or equal to the given value
 328:C:/Users/²Ü¼ÒºÀ/.iotlink/sdk/IoT_LINK/iot_link/os/liteos/utils\rbtree.c ****  * @t: the given tree
 329:C:/Users/²Ü¼ÒºÀ/.iotlink/sdk/IoT_LINK/iot_link/os/liteos/utils\rbtree.c ****  * @k: the key value
 330:C:/Users/²Ü¼ÒºÀ/.iotlink/sdk/IoT_LINK/iot_link/os/liteos/utils\rbtree.c ****  *
 331:C:/Users/²Ü¼ÒºÀ/.iotlink/sdk/IoT_LINK/iot_link/os/liteos/utils\rbtree.c ****  * return: the nearest node with key >= <k>, NULL or key not found.
ARM GAS  C:\Users\²Ü¼ÒºÀ\AppData\Local\Temp\ccwaEIDi.s 			page 23


 332:C:/Users/²Ü¼ÒºÀ/.iotlink/sdk/IoT_LINK/iot_link/os/liteos/utils\rbtree.c ****  */
 333:C:/Users/²Ü¼ÒºÀ/.iotlink/sdk/IoT_LINK/iot_link/os/liteos/utils\rbtree.c **** 
 334:C:/Users/²Ü¼ÒºÀ/.iotlink/sdk/IoT_LINK/iot_link/os/liteos/utils\rbtree.c **** rb_node_t * rb_find_ge (rb_tree_t * t, uintptr_t k)
 335:C:/Users/²Ü¼ÒºÀ/.iotlink/sdk/IoT_LINK/iot_link/os/liteos/utils\rbtree.c **** {
 336:C:/Users/²Ü¼ÒºÀ/.iotlink/sdk/IoT_LINK/iot_link/os/liteos/utils\rbtree.c ****     return container_of (__bit_find_ge (&t->bit, k), rb_node_t, bin);
 337:C:/Users/²Ü¼ÒºÀ/.iotlink/sdk/IoT_LINK/iot_link/os/liteos/utils\rbtree.c **** }
 338:C:/Users/²Ü¼ÒºÀ/.iotlink/sdk/IoT_LINK/iot_link/os/liteos/utils\rbtree.c **** 
 339:C:/Users/²Ü¼ÒºÀ/.iotlink/sdk/IoT_LINK/iot_link/os/liteos/utils\rbtree.c **** /**
 340:C:/Users/²Ü¼ÒºÀ/.iotlink/sdk/IoT_LINK/iot_link/os/liteos/utils\rbtree.c ****  * rb_find_gt - find a node that is just greater to the given value
 341:C:/Users/²Ü¼ÒºÀ/.iotlink/sdk/IoT_LINK/iot_link/os/liteos/utils\rbtree.c ****  * @t: the given tree
 342:C:/Users/²Ü¼ÒºÀ/.iotlink/sdk/IoT_LINK/iot_link/os/liteos/utils\rbtree.c ****  * @k: the key value
 343:C:/Users/²Ü¼ÒºÀ/.iotlink/sdk/IoT_LINK/iot_link/os/liteos/utils\rbtree.c ****  *
 344:C:/Users/²Ü¼ÒºÀ/.iotlink/sdk/IoT_LINK/iot_link/os/liteos/utils\rbtree.c ****  * return: the nearest node with key > <k>, NULL or key not found.
 345:C:/Users/²Ü¼ÒºÀ/.iotlink/sdk/IoT_LINK/iot_link/os/liteos/utils\rbtree.c ****  */
 346:C:/Users/²Ü¼ÒºÀ/.iotlink/sdk/IoT_LINK/iot_link/os/liteos/utils\rbtree.c **** 
 347:C:/Users/²Ü¼ÒºÀ/.iotlink/sdk/IoT_LINK/iot_link/os/liteos/utils\rbtree.c **** rb_node_t * rb_find_gt (rb_tree_t * t, uintptr_t k)
 348:C:/Users/²Ü¼ÒºÀ/.iotlink/sdk/IoT_LINK/iot_link/os/liteos/utils\rbtree.c **** {
 349:C:/Users/²Ü¼ÒºÀ/.iotlink/sdk/IoT_LINK/iot_link/os/liteos/utils\rbtree.c ****     return container_of (__bit_find_gt (&t->bit, k), rb_node_t, bin);
 350:C:/Users/²Ü¼ÒºÀ/.iotlink/sdk/IoT_LINK/iot_link/os/liteos/utils\rbtree.c **** }
 351:C:/Users/²Ü¼ÒºÀ/.iotlink/sdk/IoT_LINK/iot_link/os/liteos/utils\rbtree.c **** 
 352:C:/Users/²Ü¼ÒºÀ/.iotlink/sdk/IoT_LINK/iot_link/os/liteos/utils\rbtree.c **** /**
 353:C:/Users/²Ü¼ÒºÀ/.iotlink/sdk/IoT_LINK/iot_link/os/liteos/utils\rbtree.c ****  * rb_find_le - find a node that is just less or equal to the given value
 354:C:/Users/²Ü¼ÒºÀ/.iotlink/sdk/IoT_LINK/iot_link/os/liteos/utils\rbtree.c ****  * @t: the given tree
 355:C:/Users/²Ü¼ÒºÀ/.iotlink/sdk/IoT_LINK/iot_link/os/liteos/utils\rbtree.c ****  * @k: the key value
 356:C:/Users/²Ü¼ÒºÀ/.iotlink/sdk/IoT_LINK/iot_link/os/liteos/utils\rbtree.c ****  *
 357:C:/Users/²Ü¼ÒºÀ/.iotlink/sdk/IoT_LINK/iot_link/os/liteos/utils\rbtree.c ****  * return: the nearest node with key <= <k>, NULL or key not found.
 358:C:/Users/²Ü¼ÒºÀ/.iotlink/sdk/IoT_LINK/iot_link/os/liteos/utils\rbtree.c ****  */
 359:C:/Users/²Ü¼ÒºÀ/.iotlink/sdk/IoT_LINK/iot_link/os/liteos/utils\rbtree.c **** 
 360:C:/Users/²Ü¼ÒºÀ/.iotlink/sdk/IoT_LINK/iot_link/os/liteos/utils\rbtree.c **** rb_node_t * rb_find_le (rb_tree_t * t, uintptr_t k)
 361:C:/Users/²Ü¼ÒºÀ/.iotlink/sdk/IoT_LINK/iot_link/os/liteos/utils\rbtree.c **** {
 362:C:/Users/²Ü¼ÒºÀ/.iotlink/sdk/IoT_LINK/iot_link/os/liteos/utils\rbtree.c ****     return container_of (__bit_find_le (&t->bit, k), rb_node_t, bin);
 363:C:/Users/²Ü¼ÒºÀ/.iotlink/sdk/IoT_LINK/iot_link/os/liteos/utils\rbtree.c **** }
 364:C:/Users/²Ü¼ÒºÀ/.iotlink/sdk/IoT_LINK/iot_link/os/liteos/utils\rbtree.c **** 
 365:C:/Users/²Ü¼ÒºÀ/.iotlink/sdk/IoT_LINK/iot_link/os/liteos/utils\rbtree.c **** /**
 366:C:/Users/²Ü¼ÒºÀ/.iotlink/sdk/IoT_LINK/iot_link/os/liteos/utils\rbtree.c ****  * rb_find_lt - find a node that is just less to the given value
 367:C:/Users/²Ü¼ÒºÀ/.iotlink/sdk/IoT_LINK/iot_link/os/liteos/utils\rbtree.c ****  * @t: the given tree
 368:C:/Users/²Ü¼ÒºÀ/.iotlink/sdk/IoT_LINK/iot_link/os/liteos/utils\rbtree.c ****  * @k: the key value
 369:C:/Users/²Ü¼ÒºÀ/.iotlink/sdk/IoT_LINK/iot_link/os/liteos/utils\rbtree.c ****  *
 370:C:/Users/²Ü¼ÒºÀ/.iotlink/sdk/IoT_LINK/iot_link/os/liteos/utils\rbtree.c ****  * return: the nearest node with key < <k>, NULL or key not found.
 371:C:/Users/²Ü¼ÒºÀ/.iotlink/sdk/IoT_LINK/iot_link/os/liteos/utils\rbtree.c ****  */
 372:C:/Users/²Ü¼ÒºÀ/.iotlink/sdk/IoT_LINK/iot_link/os/liteos/utils\rbtree.c **** 
 373:C:/Users/²Ü¼ÒºÀ/.iotlink/sdk/IoT_LINK/iot_link/os/liteos/utils\rbtree.c **** rb_node_t * rb_find_lt (rb_tree_t * t, uintptr_t k)
 374:C:/Users/²Ü¼ÒºÀ/.iotlink/sdk/IoT_LINK/iot_link/os/liteos/utils\rbtree.c **** {
 375:C:/Users/²Ü¼ÒºÀ/.iotlink/sdk/IoT_LINK/iot_link/os/liteos/utils\rbtree.c ****     return container_of (__bit_find_lt (&t->bit, k), rb_node_t, bin);
 376:C:/Users/²Ü¼ÒºÀ/.iotlink/sdk/IoT_LINK/iot_link/os/liteos/utils\rbtree.c **** }
 377:C:/Users/²Ü¼ÒºÀ/.iotlink/sdk/IoT_LINK/iot_link/os/liteos/utils\rbtree.c **** 
 378:C:/Users/²Ü¼ÒºÀ/.iotlink/sdk/IoT_LINK/iot_link/os/liteos/utils\rbtree.c **** /**
 379:C:/Users/²Ü¼ÒºÀ/.iotlink/sdk/IoT_LINK/iot_link/os/liteos/utils\rbtree.c ****  * rb_first - find the first node of the tree
 380:C:/Users/²Ü¼ÒºÀ/.iotlink/sdk/IoT_LINK/iot_link/os/liteos/utils\rbtree.c ****  * @t: the given tree
 381:C:/Users/²Ü¼ÒºÀ/.iotlink/sdk/IoT_LINK/iot_link/os/liteos/utils\rbtree.c ****  *
 382:C:/Users/²Ü¼ÒºÀ/.iotlink/sdk/IoT_LINK/iot_link/os/liteos/utils\rbtree.c ****  * return: the first node, or NULL if the tree is empty
 383:C:/Users/²Ü¼ÒºÀ/.iotlink/sdk/IoT_LINK/iot_link/os/liteos/utils\rbtree.c ****  */
 384:C:/Users/²Ü¼ÒºÀ/.iotlink/sdk/IoT_LINK/iot_link/os/liteos/utils\rbtree.c **** 
 385:C:/Users/²Ü¼ÒºÀ/.iotlink/sdk/IoT_LINK/iot_link/os/liteos/utils\rbtree.c **** rb_node_t * rb_first (rb_tree_t * t)
 386:C:/Users/²Ü¼ÒºÀ/.iotlink/sdk/IoT_LINK/iot_link/os/liteos/utils\rbtree.c **** {
 387:C:/Users/²Ü¼ÒºÀ/.iotlink/sdk/IoT_LINK/iot_link/os/liteos/utils\rbtree.c ****     return container_of (__bit_first (&t->bit), rb_node_t, bin);
 388:C:/Users/²Ü¼ÒºÀ/.iotlink/sdk/IoT_LINK/iot_link/os/liteos/utils\rbtree.c **** }
ARM GAS  C:\Users\²Ü¼ÒºÀ\AppData\Local\Temp\ccwaEIDi.s 			page 24


 389:C:/Users/²Ü¼ÒºÀ/.iotlink/sdk/IoT_LINK/iot_link/os/liteos/utils\rbtree.c **** 
 390:C:/Users/²Ü¼ÒºÀ/.iotlink/sdk/IoT_LINK/iot_link/os/liteos/utils\rbtree.c **** /**
 391:C:/Users/²Ü¼ÒºÀ/.iotlink/sdk/IoT_LINK/iot_link/os/liteos/utils\rbtree.c ****  * rb_last - find the last node of the tree
 392:C:/Users/²Ü¼ÒºÀ/.iotlink/sdk/IoT_LINK/iot_link/os/liteos/utils\rbtree.c ****  * @t: the given tree
 393:C:/Users/²Ü¼ÒºÀ/.iotlink/sdk/IoT_LINK/iot_link/os/liteos/utils\rbtree.c ****  *
 394:C:/Users/²Ü¼ÒºÀ/.iotlink/sdk/IoT_LINK/iot_link/os/liteos/utils\rbtree.c ****  * return: the last node, or NULL if the tree is empty
 395:C:/Users/²Ü¼ÒºÀ/.iotlink/sdk/IoT_LINK/iot_link/os/liteos/utils\rbtree.c ****  */
 396:C:/Users/²Ü¼ÒºÀ/.iotlink/sdk/IoT_LINK/iot_link/os/liteos/utils\rbtree.c **** 
 397:C:/Users/²Ü¼ÒºÀ/.iotlink/sdk/IoT_LINK/iot_link/os/liteos/utils\rbtree.c **** rb_node_t * rb_last (rb_tree_t * t)
 398:C:/Users/²Ü¼ÒºÀ/.iotlink/sdk/IoT_LINK/iot_link/os/liteos/utils\rbtree.c **** {
 399:C:/Users/²Ü¼ÒºÀ/.iotlink/sdk/IoT_LINK/iot_link/os/liteos/utils\rbtree.c ****     return container_of (__bit_last (&t->bit), rb_node_t, bin);
 400:C:/Users/²Ü¼ÒºÀ/.iotlink/sdk/IoT_LINK/iot_link/os/liteos/utils\rbtree.c **** }
 401:C:/Users/²Ü¼ÒºÀ/.iotlink/sdk/IoT_LINK/iot_link/os/liteos/utils\rbtree.c **** 
 402:C:/Users/²Ü¼ÒºÀ/.iotlink/sdk/IoT_LINK/iot_link/os/liteos/utils\rbtree.c **** /**
 403:C:/Users/²Ü¼ÒºÀ/.iotlink/sdk/IoT_LINK/iot_link/os/liteos/utils\rbtree.c ****  * rb_next - find the next node
 404:C:/Users/²Ü¼ÒºÀ/.iotlink/sdk/IoT_LINK/iot_link/os/liteos/utils\rbtree.c ****  * @t: the given node
 405:C:/Users/²Ü¼ÒºÀ/.iotlink/sdk/IoT_LINK/iot_link/os/liteos/utils\rbtree.c ****  *
 406:C:/Users/²Ü¼ÒºÀ/.iotlink/sdk/IoT_LINK/iot_link/os/liteos/utils\rbtree.c ****  * return: the next node, or NULL if the node is already last
 407:C:/Users/²Ü¼ÒºÀ/.iotlink/sdk/IoT_LINK/iot_link/os/liteos/utils\rbtree.c ****  */
 408:C:/Users/²Ü¼ÒºÀ/.iotlink/sdk/IoT_LINK/iot_link/os/liteos/utils\rbtree.c **** 
 409:C:/Users/²Ü¼ÒºÀ/.iotlink/sdk/IoT_LINK/iot_link/os/liteos/utils\rbtree.c **** rb_node_t * rb_next (rb_node_t * n)
 410:C:/Users/²Ü¼ÒºÀ/.iotlink/sdk/IoT_LINK/iot_link/os/liteos/utils\rbtree.c **** {
 411:C:/Users/²Ü¼ÒºÀ/.iotlink/sdk/IoT_LINK/iot_link/os/liteos/utils\rbtree.c ****     return __successor (n);
 412:C:/Users/²Ü¼ÒºÀ/.iotlink/sdk/IoT_LINK/iot_link/os/liteos/utils\rbtree.c **** }
 413:C:/Users/²Ü¼ÒºÀ/.iotlink/sdk/IoT_LINK/iot_link/os/liteos/utils\rbtree.c **** 
 414:C:/Users/²Ü¼ÒºÀ/.iotlink/sdk/IoT_LINK/iot_link/os/liteos/utils\rbtree.c **** /**
 415:C:/Users/²Ü¼ÒºÀ/.iotlink/sdk/IoT_LINK/iot_link/os/liteos/utils\rbtree.c ****  * rb_prev - find the prevous node
 416:C:/Users/²Ü¼ÒºÀ/.iotlink/sdk/IoT_LINK/iot_link/os/liteos/utils\rbtree.c ****  * @t: the given node
 417:C:/Users/²Ü¼ÒºÀ/.iotlink/sdk/IoT_LINK/iot_link/os/liteos/utils\rbtree.c ****  *
 418:C:/Users/²Ü¼ÒºÀ/.iotlink/sdk/IoT_LINK/iot_link/os/liteos/utils\rbtree.c ****  * return: the prevous node, or NULL if the node is already first
 419:C:/Users/²Ü¼ÒºÀ/.iotlink/sdk/IoT_LINK/iot_link/os/liteos/utils\rbtree.c ****  */
 420:C:/Users/²Ü¼ÒºÀ/.iotlink/sdk/IoT_LINK/iot_link/os/liteos/utils\rbtree.c **** 
 421:C:/Users/²Ü¼ÒºÀ/.iotlink/sdk/IoT_LINK/iot_link/os/liteos/utils\rbtree.c **** rb_node_t * rb_prev (rb_node_t * n)
 422:C:/Users/²Ü¼ÒºÀ/.iotlink/sdk/IoT_LINK/iot_link/os/liteos/utils\rbtree.c **** {
 423:C:/Users/²Ü¼ÒºÀ/.iotlink/sdk/IoT_LINK/iot_link/os/liteos/utils\rbtree.c ****     return __predecessor (n);
 424:C:/Users/²Ü¼ÒºÀ/.iotlink/sdk/IoT_LINK/iot_link/os/liteos/utils\rbtree.c **** }
 425:C:/Users/²Ü¼ÒºÀ/.iotlink/sdk/IoT_LINK/iot_link/os/liteos/utils\rbtree.c **** 
 426:C:/Users/²Ü¼ÒºÀ/.iotlink/sdk/IoT_LINK/iot_link/os/liteos/utils\rbtree.c **** /**
 427:C:/Users/²Ü¼ÒºÀ/.iotlink/sdk/IoT_LINK/iot_link/os/liteos/utils\rbtree.c ****  * rb_replace - replace a new node in the same place
 428:C:/Users/²Ü¼ÒºÀ/.iotlink/sdk/IoT_LINK/iot_link/os/liteos/utils\rbtree.c ****  * @t: the given tree
 429:C:/Users/²Ü¼ÒºÀ/.iotlink/sdk/IoT_LINK/iot_link/os/liteos/utils\rbtree.c ****  * @o: the old node to be replaced
 430:C:/Users/²Ü¼ÒºÀ/.iotlink/sdk/IoT_LINK/iot_link/os/liteos/utils\rbtree.c ****  * @n: the new node
 431:C:/Users/²Ü¼ÒºÀ/.iotlink/sdk/IoT_LINK/iot_link/os/liteos/utils\rbtree.c ****  *
 432:C:/Users/²Ü¼ÒºÀ/.iotlink/sdk/IoT_LINK/iot_link/os/liteos/utils\rbtree.c ****  * return: the nearest node with key < <k>, NULL or key not found.
 433:C:/Users/²Ü¼ÒºÀ/.iotlink/sdk/IoT_LINK/iot_link/os/liteos/utils\rbtree.c ****  */
 434:C:/Users/²Ü¼ÒºÀ/.iotlink/sdk/IoT_LINK/iot_link/os/liteos/utils\rbtree.c **** 
 435:C:/Users/²Ü¼ÒºÀ/.iotlink/sdk/IoT_LINK/iot_link/os/liteos/utils\rbtree.c **** void rb_replace (rb_tree_t * t, rb_node_t * o, rb_node_t * n)
 436:C:/Users/²Ü¼ÒºÀ/.iotlink/sdk/IoT_LINK/iot_link/os/liteos/utils\rbtree.c **** {
 437:C:/Users/²Ü¼ÒºÀ/.iotlink/sdk/IoT_LINK/iot_link/os/liteos/utils\rbtree.c ****     rb_node_t * p, * l, * r;
 438:C:/Users/²Ü¼ÒºÀ/.iotlink/sdk/IoT_LINK/iot_link/os/liteos/utils\rbtree.c **** 
 439:C:/Users/²Ü¼ÒºÀ/.iotlink/sdk/IoT_LINK/iot_link/os/liteos/utils\rbtree.c ****     *n = *o;
 440:C:/Users/²Ü¼ÒºÀ/.iotlink/sdk/IoT_LINK/iot_link/os/liteos/utils\rbtree.c **** 
 441:C:/Users/²Ü¼ÒºÀ/.iotlink/sdk/IoT_LINK/iot_link/os/liteos/utils\rbtree.c ****     p = __parent (n);
 442:C:/Users/²Ü¼ÒºÀ/.iotlink/sdk/IoT_LINK/iot_link/os/liteos/utils\rbtree.c ****     l = __left (n);
 443:C:/Users/²Ü¼ÒºÀ/.iotlink/sdk/IoT_LINK/iot_link/os/liteos/utils\rbtree.c ****     r = __right (n);
 444:C:/Users/²Ü¼ÒºÀ/.iotlink/sdk/IoT_LINK/iot_link/os/liteos/utils\rbtree.c **** 
 445:C:/Users/²Ü¼ÒºÀ/.iotlink/sdk/IoT_LINK/iot_link/os/liteos/utils\rbtree.c ****     if (l)
ARM GAS  C:\Users\²Ü¼ÒºÀ\AppData\Local\Temp\ccwaEIDi.s 			page 25


 446:C:/Users/²Ü¼ÒºÀ/.iotlink/sdk/IoT_LINK/iot_link/os/liteos/utils\rbtree.c ****     {
 447:C:/Users/²Ü¼ÒºÀ/.iotlink/sdk/IoT_LINK/iot_link/os/liteos/utils\rbtree.c ****         __set_parent (l, n);
 448:C:/Users/²Ü¼ÒºÀ/.iotlink/sdk/IoT_LINK/iot_link/os/liteos/utils\rbtree.c ****     }
 449:C:/Users/²Ü¼ÒºÀ/.iotlink/sdk/IoT_LINK/iot_link/os/liteos/utils\rbtree.c **** 
 450:C:/Users/²Ü¼ÒºÀ/.iotlink/sdk/IoT_LINK/iot_link/os/liteos/utils\rbtree.c ****     if (r)
 451:C:/Users/²Ü¼ÒºÀ/.iotlink/sdk/IoT_LINK/iot_link/os/liteos/utils\rbtree.c ****     {
 452:C:/Users/²Ü¼ÒºÀ/.iotlink/sdk/IoT_LINK/iot_link/os/liteos/utils\rbtree.c ****         __set_parent (r, n);
 453:C:/Users/²Ü¼ÒºÀ/.iotlink/sdk/IoT_LINK/iot_link/os/liteos/utils\rbtree.c ****     }
 454:C:/Users/²Ü¼ÒºÀ/.iotlink/sdk/IoT_LINK/iot_link/os/liteos/utils\rbtree.c **** 
 455:C:/Users/²Ü¼ÒºÀ/.iotlink/sdk/IoT_LINK/iot_link/os/liteos/utils\rbtree.c ****     if (!p)
 456:C:/Users/²Ü¼ÒºÀ/.iotlink/sdk/IoT_LINK/iot_link/os/liteos/utils\rbtree.c ****     {
 457:C:/Users/²Ü¼ÒºÀ/.iotlink/sdk/IoT_LINK/iot_link/os/liteos/utils\rbtree.c ****         t->bit.r = &n->bin;
 458:C:/Users/²Ü¼ÒºÀ/.iotlink/sdk/IoT_LINK/iot_link/os/liteos/utils\rbtree.c ****         return;
 459:C:/Users/²Ü¼ÒºÀ/.iotlink/sdk/IoT_LINK/iot_link/os/liteos/utils\rbtree.c ****     }
 460:C:/Users/²Ü¼ÒºÀ/.iotlink/sdk/IoT_LINK/iot_link/os/liteos/utils\rbtree.c **** 
 461:C:/Users/²Ü¼ÒºÀ/.iotlink/sdk/IoT_LINK/iot_link/os/liteos/utils\rbtree.c ****     if (__left (p) == o)
 462:C:/Users/²Ü¼ÒºÀ/.iotlink/sdk/IoT_LINK/iot_link/os/liteos/utils\rbtree.c ****     {
 463:C:/Users/²Ü¼ÒºÀ/.iotlink/sdk/IoT_LINK/iot_link/os/liteos/utils\rbtree.c ****         __set_left (p, n);
 464:C:/Users/²Ü¼ÒºÀ/.iotlink/sdk/IoT_LINK/iot_link/os/liteos/utils\rbtree.c ****     }
 465:C:/Users/²Ü¼ÒºÀ/.iotlink/sdk/IoT_LINK/iot_link/os/liteos/utils\rbtree.c ****     else
 466:C:/Users/²Ü¼ÒºÀ/.iotlink/sdk/IoT_LINK/iot_link/os/liteos/utils\rbtree.c ****     {
 467:C:/Users/²Ü¼ÒºÀ/.iotlink/sdk/IoT_LINK/iot_link/os/liteos/utils\rbtree.c ****         __set_right (p, n);
 468:C:/Users/²Ü¼ÒºÀ/.iotlink/sdk/IoT_LINK/iot_link/os/liteos/utils\rbtree.c ****     }
 469:C:/Users/²Ü¼ÒºÀ/.iotlink/sdk/IoT_LINK/iot_link/os/liteos/utils\rbtree.c **** }
 470:C:/Users/²Ü¼ÒºÀ/.iotlink/sdk/IoT_LINK/iot_link/os/liteos/utils\rbtree.c **** 
 471:C:/Users/²Ü¼ÒºÀ/.iotlink/sdk/IoT_LINK/iot_link/os/liteos/utils\rbtree.c **** /**
 472:C:/Users/²Ü¼ÒºÀ/.iotlink/sdk/IoT_LINK/iot_link/os/liteos/utils\rbtree.c ****  * __rb_insadj - re-balance the tree after insertion
 473:C:/Users/²Ü¼ÒºÀ/.iotlink/sdk/IoT_LINK/iot_link/os/liteos/utils\rbtree.c ****  * @t: the given tree
 474:C:/Users/²Ü¼ÒºÀ/.iotlink/sdk/IoT_LINK/iot_link/os/liteos/utils\rbtree.c ****  * @n: the new inserted node
 475:C:/Users/²Ü¼ÒºÀ/.iotlink/sdk/IoT_LINK/iot_link/os/liteos/utils\rbtree.c ****  *
 476:C:/Users/²Ü¼ÒºÀ/.iotlink/sdk/IoT_LINK/iot_link/os/liteos/utils\rbtree.c ****  * return: NA
 477:C:/Users/²Ü¼ÒºÀ/.iotlink/sdk/IoT_LINK/iot_link/os/liteos/utils\rbtree.c ****  */
 478:C:/Users/²Ü¼ÒºÀ/.iotlink/sdk/IoT_LINK/iot_link/os/liteos/utils\rbtree.c **** 
 479:C:/Users/²Ü¼ÒºÀ/.iotlink/sdk/IoT_LINK/iot_link/os/liteos/utils\rbtree.c **** static void __rb_insadj (rb_tree_t * t, rb_node_t * n)
 480:C:/Users/²Ü¼ÒºÀ/.iotlink/sdk/IoT_LINK/iot_link/os/liteos/utils\rbtree.c **** {
 333              		.loc 2 480 1 is_stmt 1 view -0
 334              		.cfi_startproc
 335              		@ args = 0, pretend = 0, frame = 8
 336              		@ frame_needed = 0, uses_anonymous_args = 0
 337              		.loc 2 480 1 is_stmt 0 view .LVU90
 338 0000 F7B5     		push	{r0, r1, r2, r4, r5, r6, r7, lr}
 339              	.LCFI2:
 340              		.cfi_def_cfa_offset 32
 341              		.cfi_offset 4, -20
 342              		.cfi_offset 5, -16
 343              		.cfi_offset 6, -12
 344              		.cfi_offset 7, -8
 345              		.cfi_offset 14, -4
 346              	.LBB341:
 347              	.LBB342:
 348              	.LBB343:
 113:C:/Users/²Ü¼ÒºÀ/.iotlink/sdk/IoT_LINK/iot_link/os/liteos/utils\rbtree.c **** }
 349              		.loc 2 113 10 view .LVU91
 350 0002 4FF0000C 		mov	ip, #0
 351              	.LBE343:
 352              	.LBE342:
 353              	.LBE341:
ARM GAS  C:\Users\²Ü¼ÒºÀ\AppData\Local\Temp\ccwaEIDi.s 			page 26


 354              		.loc 2 480 1 view .LVU92
 355 0006 0D46     		mov	r5, r1
 356              	.LBB348:
 357              	.LBB349:
 358              	.LBB350:
 113:C:/Users/²Ü¼ÒºÀ/.iotlink/sdk/IoT_LINK/iot_link/os/liteos/utils\rbtree.c **** }
 359              		.loc 2 113 10 view .LVU93
 360 0008 0121     		movs	r1, #1
 361              	.LVL25:
 362              	.L36:
 113:C:/Users/²Ü¼ÒºÀ/.iotlink/sdk/IoT_LINK/iot_link/os/liteos/utils\rbtree.c **** }
 363              		.loc 2 113 10 view .LVU94
 364              	.LBE350:
 365              	.LBE349:
 366              	.LBE348:
 481:C:/Users/²Ü¼ÒºÀ/.iotlink/sdk/IoT_LINK/iot_link/os/liteos/utils\rbtree.c ****     rb_node_t * p, * g, * u;
 367              		.loc 2 481 5 is_stmt 1 view .LVU95
 482:C:/Users/²Ü¼ÒºÀ/.iotlink/sdk/IoT_LINK/iot_link/os/liteos/utils\rbtree.c **** 
 483:C:/Users/²Ü¼ÒºÀ/.iotlink/sdk/IoT_LINK/iot_link/os/liteos/utils\rbtree.c ****     while (1)
 368              		.loc 2 483 5 view .LVU96
 484:C:/Users/²Ü¼ÒºÀ/.iotlink/sdk/IoT_LINK/iot_link/os/liteos/utils\rbtree.c ****     {
 485:C:/Users/²Ü¼ÒºÀ/.iotlink/sdk/IoT_LINK/iot_link/os/liteos/utils\rbtree.c ****         p = __parent (n);
 369              		.loc 2 485 9 view .LVU97
 370              		.loc 2 485 13 is_stmt 0 view .LVU98
 371 000a 2C68     		ldr	r4, [r5]
 372              	.LVL26:
 149:C:/Users/²Ü¼ÒºÀ/.iotlink/sdk/IoT_LINK/iot_link/os/liteos/utils\rbtree.c **** }
 373              		.loc 2 149 5 is_stmt 1 view .LVU99
 486:C:/Users/²Ü¼ÒºÀ/.iotlink/sdk/IoT_LINK/iot_link/os/liteos/utils\rbtree.c **** 
 487:C:/Users/²Ü¼ÒºÀ/.iotlink/sdk/IoT_LINK/iot_link/os/liteos/utils\rbtree.c ****         if (p == NULL)
 374              		.loc 2 487 9 view .LVU100
 375              		.loc 2 487 12 is_stmt 0 view .LVU101
 376 000c 1CB9     		cbnz	r4, .L32
 488:C:/Users/²Ü¼ÒºÀ/.iotlink/sdk/IoT_LINK/iot_link/os/liteos/utils\rbtree.c ****         {
 489:C:/Users/²Ü¼ÒºÀ/.iotlink/sdk/IoT_LINK/iot_link/os/liteos/utils\rbtree.c ****             __set_black (n);
 377              		.loc 2 489 13 is_stmt 1 view .LVU102
 378              	.LVL27:
 379              	.LBB353:
 380              	.LBI353:
 135:C:/Users/²Ü¼ÒºÀ/.iotlink/sdk/IoT_LINK/iot_link/os/liteos/utils\rbtree.c **** {
 381              		.loc 2 135 20 view .LVU103
 382              	.LBE353:
 137:C:/Users/²Ü¼ÒºÀ/.iotlink/sdk/IoT_LINK/iot_link/os/liteos/utils\rbtree.c **** }
 383              		.loc 2 137 5 view .LVU104
 384              	.LBB356:
 385              	.LBB354:
 386              	.LBI354:
 111:C:/Users/²Ü¼ÒºÀ/.iotlink/sdk/IoT_LINK/iot_link/os/liteos/utils\rbtree.c **** {
 387              		.loc 2 111 20 view .LVU105
 388              	.LBB355:
 113:C:/Users/²Ü¼ÒºÀ/.iotlink/sdk/IoT_LINK/iot_link/os/liteos/utils\rbtree.c **** }
 389              		.loc 2 113 5 view .LVU106
 113:C:/Users/²Ü¼ÒºÀ/.iotlink/sdk/IoT_LINK/iot_link/os/liteos/utils\rbtree.c **** }
 390              		.loc 2 113 10 is_stmt 0 view .LVU107
 391 000e 0123     		movs	r3, #1
 392 0010 EB60     		str	r3, [r5, #12]
 393              	.LVL28:
ARM GAS  C:\Users\²Ü¼ÒºÀ\AppData\Local\Temp\ccwaEIDi.s 			page 27


 113:C:/Users/²Ü¼ÒºÀ/.iotlink/sdk/IoT_LINK/iot_link/os/liteos/utils\rbtree.c **** }
 394              		.loc 2 113 10 view .LVU108
 395              	.LBE355:
 396              	.LBE354:
 397              	.LBE356:
 490:C:/Users/²Ü¼ÒºÀ/.iotlink/sdk/IoT_LINK/iot_link/os/liteos/utils\rbtree.c ****             return;
 398              		.loc 2 490 13 is_stmt 1 view .LVU109
 399              	.L31:
 491:C:/Users/²Ü¼ÒºÀ/.iotlink/sdk/IoT_LINK/iot_link/os/liteos/utils\rbtree.c ****         }
 492:C:/Users/²Ü¼ÒºÀ/.iotlink/sdk/IoT_LINK/iot_link/os/liteos/utils\rbtree.c **** 
 493:C:/Users/²Ü¼ÒºÀ/.iotlink/sdk/IoT_LINK/iot_link/os/liteos/utils\rbtree.c ****         if (__raw_is_black (p))
 494:C:/Users/²Ü¼ÒºÀ/.iotlink/sdk/IoT_LINK/iot_link/os/liteos/utils\rbtree.c ****         {
 495:C:/Users/²Ü¼ÒºÀ/.iotlink/sdk/IoT_LINK/iot_link/os/liteos/utils\rbtree.c ****             return;
 496:C:/Users/²Ü¼ÒºÀ/.iotlink/sdk/IoT_LINK/iot_link/os/liteos/utils\rbtree.c ****         }
 497:C:/Users/²Ü¼ÒºÀ/.iotlink/sdk/IoT_LINK/iot_link/os/liteos/utils\rbtree.c **** 
 498:C:/Users/²Ü¼ÒºÀ/.iotlink/sdk/IoT_LINK/iot_link/os/liteos/utils\rbtree.c ****         /*
 499:C:/Users/²Ü¼ÒºÀ/.iotlink/sdk/IoT_LINK/iot_link/os/liteos/utils\rbtree.c ****          * when we reach here, the parent is red, so:
 500:C:/Users/²Ü¼ÒºÀ/.iotlink/sdk/IoT_LINK/iot_link/os/liteos/utils\rbtree.c ****          * 1) the parent must not be root
 501:C:/Users/²Ü¼ÒºÀ/.iotlink/sdk/IoT_LINK/iot_link/os/liteos/utils\rbtree.c ****          * 2) the grand father mast not be NULL
 502:C:/Users/²Ü¼ÒºÀ/.iotlink/sdk/IoT_LINK/iot_link/os/liteos/utils\rbtree.c ****          * 3) the grand father must be black
 503:C:/Users/²Ü¼ÒºÀ/.iotlink/sdk/IoT_LINK/iot_link/os/liteos/utils\rbtree.c ****          */
 504:C:/Users/²Ü¼ÒºÀ/.iotlink/sdk/IoT_LINK/iot_link/os/liteos/utils\rbtree.c **** 
 505:C:/Users/²Ü¼ÒºÀ/.iotlink/sdk/IoT_LINK/iot_link/os/liteos/utils\rbtree.c ****         g = __raw_grand (n);
 506:C:/Users/²Ü¼ÒºÀ/.iotlink/sdk/IoT_LINK/iot_link/os/liteos/utils\rbtree.c ****         u = __raw_uncle (n);
 507:C:/Users/²Ü¼ÒºÀ/.iotlink/sdk/IoT_LINK/iot_link/os/liteos/utils\rbtree.c **** 
 508:C:/Users/²Ü¼ÒºÀ/.iotlink/sdk/IoT_LINK/iot_link/os/liteos/utils\rbtree.c ****         /* case 1, 2 and 3 should set grand parent as RED */
 509:C:/Users/²Ü¼ÒºÀ/.iotlink/sdk/IoT_LINK/iot_link/os/liteos/utils\rbtree.c **** 
 510:C:/Users/²Ü¼ÒºÀ/.iotlink/sdk/IoT_LINK/iot_link/os/liteos/utils\rbtree.c ****         __set_red (g);
 511:C:/Users/²Ü¼ÒºÀ/.iotlink/sdk/IoT_LINK/iot_link/os/liteos/utils\rbtree.c **** 
 512:C:/Users/²Ü¼ÒºÀ/.iotlink/sdk/IoT_LINK/iot_link/os/liteos/utils\rbtree.c ****         if (!__is_red (u))
 513:C:/Users/²Ü¼ÒºÀ/.iotlink/sdk/IoT_LINK/iot_link/os/liteos/utils\rbtree.c ****         {
 514:C:/Users/²Ü¼ÒºÀ/.iotlink/sdk/IoT_LINK/iot_link/os/liteos/utils\rbtree.c ****             break;
 515:C:/Users/²Ü¼ÒºÀ/.iotlink/sdk/IoT_LINK/iot_link/os/liteos/utils\rbtree.c ****         }
 516:C:/Users/²Ü¼ÒºÀ/.iotlink/sdk/IoT_LINK/iot_link/os/liteos/utils\rbtree.c **** 
 517:C:/Users/²Ü¼ÒºÀ/.iotlink/sdk/IoT_LINK/iot_link/os/liteos/utils\rbtree.c ****         /* case 1: z's uncle y is red */
 518:C:/Users/²Ü¼ÒºÀ/.iotlink/sdk/IoT_LINK/iot_link/os/liteos/utils\rbtree.c **** 
 519:C:/Users/²Ü¼ÒºÀ/.iotlink/sdk/IoT_LINK/iot_link/os/liteos/utils\rbtree.c ****         __set_black (p);
 520:C:/Users/²Ü¼ÒºÀ/.iotlink/sdk/IoT_LINK/iot_link/os/liteos/utils\rbtree.c ****         __set_black (u);
 521:C:/Users/²Ü¼ÒºÀ/.iotlink/sdk/IoT_LINK/iot_link/os/liteos/utils\rbtree.c **** 
 522:C:/Users/²Ü¼ÒºÀ/.iotlink/sdk/IoT_LINK/iot_link/os/liteos/utils\rbtree.c ****         n = g;
 523:C:/Users/²Ü¼ÒºÀ/.iotlink/sdk/IoT_LINK/iot_link/os/liteos/utils\rbtree.c ****     }
 524:C:/Users/²Ü¼ÒºÀ/.iotlink/sdk/IoT_LINK/iot_link/os/liteos/utils\rbtree.c **** 
 525:C:/Users/²Ü¼ÒºÀ/.iotlink/sdk/IoT_LINK/iot_link/os/liteos/utils\rbtree.c ****     /* case 2 and case 3 */
 526:C:/Users/²Ü¼ÒºÀ/.iotlink/sdk/IoT_LINK/iot_link/os/liteos/utils\rbtree.c **** 
 527:C:/Users/²Ü¼ÒºÀ/.iotlink/sdk/IoT_LINK/iot_link/os/liteos/utils\rbtree.c ****     if (p == __left (g))
 528:C:/Users/²Ü¼ÒºÀ/.iotlink/sdk/IoT_LINK/iot_link/os/liteos/utils\rbtree.c ****     {
 529:C:/Users/²Ü¼ÒºÀ/.iotlink/sdk/IoT_LINK/iot_link/os/liteos/utils\rbtree.c ****         if (n == __right (p))
 530:C:/Users/²Ü¼ÒºÀ/.iotlink/sdk/IoT_LINK/iot_link/os/liteos/utils\rbtree.c ****         {
 531:C:/Users/²Ü¼ÒºÀ/.iotlink/sdk/IoT_LINK/iot_link/os/liteos/utils\rbtree.c ****             __rotate_left (t, p);
 532:C:/Users/²Ü¼ÒºÀ/.iotlink/sdk/IoT_LINK/iot_link/os/liteos/utils\rbtree.c ****         }
 533:C:/Users/²Ü¼ÒºÀ/.iotlink/sdk/IoT_LINK/iot_link/os/liteos/utils\rbtree.c ****         else
 534:C:/Users/²Ü¼ÒºÀ/.iotlink/sdk/IoT_LINK/iot_link/os/liteos/utils\rbtree.c ****         {
 535:C:/Users/²Ü¼ÒºÀ/.iotlink/sdk/IoT_LINK/iot_link/os/liteos/utils\rbtree.c ****             n = p;
 536:C:/Users/²Ü¼ÒºÀ/.iotlink/sdk/IoT_LINK/iot_link/os/liteos/utils\rbtree.c ****         }
 537:C:/Users/²Ü¼ÒºÀ/.iotlink/sdk/IoT_LINK/iot_link/os/liteos/utils\rbtree.c **** 
 538:C:/Users/²Ü¼ÒºÀ/.iotlink/sdk/IoT_LINK/iot_link/os/liteos/utils\rbtree.c ****         __rotate_right (t, g);
 539:C:/Users/²Ü¼ÒºÀ/.iotlink/sdk/IoT_LINK/iot_link/os/liteos/utils\rbtree.c ****     }
ARM GAS  C:\Users\²Ü¼ÒºÀ\AppData\Local\Temp\ccwaEIDi.s 			page 28


 540:C:/Users/²Ü¼ÒºÀ/.iotlink/sdk/IoT_LINK/iot_link/os/liteos/utils\rbtree.c ****     else
 541:C:/Users/²Ü¼ÒºÀ/.iotlink/sdk/IoT_LINK/iot_link/os/liteos/utils\rbtree.c ****     {
 542:C:/Users/²Ü¼ÒºÀ/.iotlink/sdk/IoT_LINK/iot_link/os/liteos/utils\rbtree.c ****         if (n == __left (p))
 543:C:/Users/²Ü¼ÒºÀ/.iotlink/sdk/IoT_LINK/iot_link/os/liteos/utils\rbtree.c ****         {
 544:C:/Users/²Ü¼ÒºÀ/.iotlink/sdk/IoT_LINK/iot_link/os/liteos/utils\rbtree.c ****             __rotate_right (t, p);
 545:C:/Users/²Ü¼ÒºÀ/.iotlink/sdk/IoT_LINK/iot_link/os/liteos/utils\rbtree.c ****         }
 546:C:/Users/²Ü¼ÒºÀ/.iotlink/sdk/IoT_LINK/iot_link/os/liteos/utils\rbtree.c ****         else
 547:C:/Users/²Ü¼ÒºÀ/.iotlink/sdk/IoT_LINK/iot_link/os/liteos/utils\rbtree.c ****         {
 548:C:/Users/²Ü¼ÒºÀ/.iotlink/sdk/IoT_LINK/iot_link/os/liteos/utils\rbtree.c ****             n = p;
 549:C:/Users/²Ü¼ÒºÀ/.iotlink/sdk/IoT_LINK/iot_link/os/liteos/utils\rbtree.c ****         }
 550:C:/Users/²Ü¼ÒºÀ/.iotlink/sdk/IoT_LINK/iot_link/os/liteos/utils\rbtree.c **** 
 551:C:/Users/²Ü¼ÒºÀ/.iotlink/sdk/IoT_LINK/iot_link/os/liteos/utils\rbtree.c ****         __rotate_left (t, g);
 552:C:/Users/²Ü¼ÒºÀ/.iotlink/sdk/IoT_LINK/iot_link/os/liteos/utils\rbtree.c ****     }
 553:C:/Users/²Ü¼ÒºÀ/.iotlink/sdk/IoT_LINK/iot_link/os/liteos/utils\rbtree.c **** 
 554:C:/Users/²Ü¼ÒºÀ/.iotlink/sdk/IoT_LINK/iot_link/os/liteos/utils\rbtree.c ****     __set_black (n);
 555:C:/Users/²Ü¼ÒºÀ/.iotlink/sdk/IoT_LINK/iot_link/os/liteos/utils\rbtree.c **** }
 400              		.loc 2 555 1 is_stmt 0 view .LVU110
 401 0012 03B0     		add	sp, sp, #12
 402              	.LCFI3:
 403              		.cfi_remember_state
 404              		.cfi_def_cfa_offset 20
 405              		@ sp needed
 406 0014 F0BD     		pop	{r4, r5, r6, r7, pc}
 407              	.LVL29:
 408              	.L32:
 409              	.LCFI4:
 410              		.cfi_restore_state
 493:C:/Users/²Ü¼ÒºÀ/.iotlink/sdk/IoT_LINK/iot_link/os/liteos/utils\rbtree.c ****         {
 411              		.loc 2 493 9 is_stmt 1 view .LVU111
 412              	.LBB357:
 413              	.LBI357:
  86:C:/Users/²Ü¼ÒºÀ/.iotlink/sdk/IoT_LINK/iot_link/os/liteos/utils\rbtree.c **** {
 414              		.loc 2 86 19 view .LVU112
 415              	.LBB358:
  88:C:/Users/²Ü¼ÒºÀ/.iotlink/sdk/IoT_LINK/iot_link/os/liteos/utils\rbtree.c **** }
 416              		.loc 2 88 5 view .LVU113
  88:C:/Users/²Ü¼ÒºÀ/.iotlink/sdk/IoT_LINK/iot_link/os/liteos/utils\rbtree.c **** }
 417              		.loc 2 88 5 is_stmt 0 view .LVU114
 418              	.LBE358:
 419              	.LBE357:
  52:C:/Users/²Ü¼ÒºÀ/.iotlink/sdk/IoT_LINK/iot_link/os/liteos/utils\rbtree.c **** }
 420              		.loc 2 52 5 is_stmt 1 view .LVU115
 493:C:/Users/²Ü¼ÒºÀ/.iotlink/sdk/IoT_LINK/iot_link/os/liteos/utils\rbtree.c ****         {
 421              		.loc 2 493 12 is_stmt 0 view .LVU116
 422 0016 E368     		ldr	r3, [r4, #12]
 423 0018 012B     		cmp	r3, #1
 424 001a FAD0     		beq	.L31
 505:C:/Users/²Ü¼ÒºÀ/.iotlink/sdk/IoT_LINK/iot_link/os/liteos/utils\rbtree.c ****         u = __raw_uncle (n);
 425              		.loc 2 505 9 is_stmt 1 view .LVU117
 426              	.LBB359:
 427              	.LBI359:
 246:C:/Users/²Ü¼ÒºÀ/.iotlink/sdk/IoT_LINK/iot_link/os/liteos/utils\rbtree.c **** {
 428              		.loc 2 246 27 view .LVU118
 429              	.LBE359:
 248:C:/Users/²Ü¼ÒºÀ/.iotlink/sdk/IoT_LINK/iot_link/os/liteos/utils\rbtree.c **** }
 430              		.loc 2 248 5 view .LVU119
 431              	.LVL30:
ARM GAS  C:\Users\²Ü¼ÒºÀ\AppData\Local\Temp\ccwaEIDi.s 			page 29


 432              	.LBB364:
 433              	.LBB360:
 434              	.LBI360:
 100:C:/Users/²Ü¼ÒºÀ/.iotlink/sdk/IoT_LINK/iot_link/os/liteos/base/include\__binary_tree.h **** {
 435              		.loc 1 100 27 view .LVU120
 436              	.LBB361:
 102:C:/Users/²Ü¼ÒºÀ/.iotlink/sdk/IoT_LINK/iot_link/os/liteos/base/include\__binary_tree.h **** }
 437              		.loc 1 102 5 view .LVU121
 102:C:/Users/²Ü¼ÒºÀ/.iotlink/sdk/IoT_LINK/iot_link/os/liteos/base/include\__binary_tree.h **** }
 438              		.loc 1 102 5 is_stmt 0 view .LVU122
 439              	.LBE361:
 440              	.LBE360:
 441              	.LBE364:
  78:C:/Users/²Ü¼ÒºÀ/.iotlink/sdk/IoT_LINK/iot_link/os/liteos/base/include\__binary_tree.h **** }
 442              		.loc 1 78 5 is_stmt 1 view .LVU123
 443              	.LBB365:
 444              	.LBB363:
 445              	.LBB362:
 102:C:/Users/²Ü¼ÒºÀ/.iotlink/sdk/IoT_LINK/iot_link/os/liteos/base/include\__binary_tree.h **** }
 446              		.loc 1 102 12 is_stmt 0 view .LVU124
 447 001c 2668     		ldr	r6, [r4]
 448              	.LVL31:
 102:C:/Users/²Ü¼ÒºÀ/.iotlink/sdk/IoT_LINK/iot_link/os/liteos/base/include\__binary_tree.h **** }
 449              		.loc 1 102 12 view .LVU125
 450              	.LBE362:
 451              	.LBE363:
 452              	.LBE365:
  78:C:/Users/²Ü¼ÒºÀ/.iotlink/sdk/IoT_LINK/iot_link/os/liteos/base/include\__binary_tree.h **** }
 453              		.loc 1 78 5 is_stmt 1 view .LVU126
 506:C:/Users/²Ü¼ÒºÀ/.iotlink/sdk/IoT_LINK/iot_link/os/liteos/utils\rbtree.c **** 
 454              		.loc 2 506 9 view .LVU127
 455              	.LBB366:
 456              	.LBI366:
 258:C:/Users/²Ü¼ÒºÀ/.iotlink/sdk/IoT_LINK/iot_link/os/liteos/utils\rbtree.c **** {
 457              		.loc 2 258 27 view .LVU128
 458              	.LBE366:
 260:C:/Users/²Ü¼ÒºÀ/.iotlink/sdk/IoT_LINK/iot_link/os/liteos/utils\rbtree.c **** }
 459              		.loc 2 260 5 view .LVU129
 460              	.LBB375:
 461              	.LBB367:
 462              	.LBI367:
 131:C:/Users/²Ü¼ÒºÀ/.iotlink/sdk/IoT_LINK/iot_link/os/liteos/base/include\__binary_tree.h **** {
 463              		.loc 1 131 27 view .LVU130
 464              	.LBB368:
 133:C:/Users/²Ü¼ÒºÀ/.iotlink/sdk/IoT_LINK/iot_link/os/liteos/base/include\__binary_tree.h ****     bi_node_t * g = __bit_raw_grand (n);
 465              		.loc 1 133 5 view .LVU131
 133:C:/Users/²Ü¼ÒºÀ/.iotlink/sdk/IoT_LINK/iot_link/os/liteos/base/include\__binary_tree.h ****     bi_node_t * g = __bit_raw_grand (n);
 466              		.loc 1 133 5 is_stmt 0 view .LVU132
 467              	.LBE368:
 468              	.LBE367:
 469              	.LBE375:
  78:C:/Users/²Ü¼ÒºÀ/.iotlink/sdk/IoT_LINK/iot_link/os/liteos/base/include\__binary_tree.h **** }
 470              		.loc 1 78 5 is_stmt 1 view .LVU133
 471              	.LBB376:
 472              	.LBB372:
 473              	.LBB369:
 134:C:/Users/²Ü¼ÒºÀ/.iotlink/sdk/IoT_LINK/iot_link/os/liteos/base/include\__binary_tree.h **** 
ARM GAS  C:\Users\²Ü¼ÒºÀ\AppData\Local\Temp\ccwaEIDi.s 			page 30


 474              		.loc 1 134 5 view .LVU134
 134:C:/Users/²Ü¼ÒºÀ/.iotlink/sdk/IoT_LINK/iot_link/os/liteos/base/include\__binary_tree.h **** 
 475              		.loc 1 134 5 is_stmt 0 view .LVU135
 476              	.LBE369:
 477              	.LBE372:
 478              	.LBE376:
 102:C:/Users/²Ü¼ÒºÀ/.iotlink/sdk/IoT_LINK/iot_link/os/liteos/base/include\__binary_tree.h **** }
 479              		.loc 1 102 5 is_stmt 1 view .LVU136
  78:C:/Users/²Ü¼ÒºÀ/.iotlink/sdk/IoT_LINK/iot_link/os/liteos/base/include\__binary_tree.h **** }
 480              		.loc 1 78 5 view .LVU137
  78:C:/Users/²Ü¼ÒºÀ/.iotlink/sdk/IoT_LINK/iot_link/os/liteos/base/include\__binary_tree.h **** }
 481              		.loc 1 78 5 view .LVU138
 482              	.LBB377:
 483              	.LBB373:
 484              	.LBB370:
 136:C:/Users/²Ü¼ÒºÀ/.iotlink/sdk/IoT_LINK/iot_link/os/liteos/base/include\__binary_tree.h **** }
 485              		.loc 1 136 5 view .LVU139
 136:C:/Users/²Ü¼ÒºÀ/.iotlink/sdk/IoT_LINK/iot_link/os/liteos/base/include\__binary_tree.h **** }
 486              		.loc 1 136 18 is_stmt 0 view .LVU140
 487 001e 7268     		ldr	r2, [r6, #4]
 488              	.LBE370:
 489              	.LBE373:
 490              	.LBE377:
 491              	.LBB378:
 492              	.LBB346:
 493              	.LBB344:
 113:C:/Users/²Ü¼ÒºÀ/.iotlink/sdk/IoT_LINK/iot_link/os/liteos/utils\rbtree.c **** }
 494              		.loc 2 113 10 view .LVU141
 495 0020 C6F80CC0 		str	ip, [r6, #12]
 496              	.LBE344:
 497              	.LBE346:
 498              	.LBE378:
 499              	.LBB379:
 500              	.LBB374:
 501              	.LBB371:
 136:C:/Users/²Ü¼ÒºÀ/.iotlink/sdk/IoT_LINK/iot_link/os/liteos/base/include\__binary_tree.h **** }
 502              		.loc 1 136 29 view .LVU142
 503 0024 9442     		cmp	r4, r2
 504 0026 0CBF     		ite	eq
 505 0028 B368     		ldreq	r3, [r6, #8]
 506 002a 1346     		movne	r3, r2
 507              	.LVL32:
 136:C:/Users/²Ü¼ÒºÀ/.iotlink/sdk/IoT_LINK/iot_link/os/liteos/base/include\__binary_tree.h **** }
 508              		.loc 1 136 29 view .LVU143
 509              	.LBE371:
 510              	.LBE374:
 511              	.LBE379:
 510:C:/Users/²Ü¼ÒºÀ/.iotlink/sdk/IoT_LINK/iot_link/os/liteos/utils\rbtree.c **** 
 512              		.loc 2 510 9 is_stmt 1 view .LVU144
 513              	.LBB380:
 514              	.LBI341:
 123:C:/Users/²Ü¼ÒºÀ/.iotlink/sdk/IoT_LINK/iot_link/os/liteos/utils\rbtree.c **** {
 515              		.loc 2 123 20 view .LVU145
 516              	.LBE380:
 125:C:/Users/²Ü¼ÒºÀ/.iotlink/sdk/IoT_LINK/iot_link/os/liteos/utils\rbtree.c **** }
 517              		.loc 2 125 5 view .LVU146
 518              	.LBB381:
ARM GAS  C:\Users\²Ü¼ÒºÀ\AppData\Local\Temp\ccwaEIDi.s 			page 31


 519              	.LBB347:
 520              	.LBI342:
 111:C:/Users/²Ü¼ÒºÀ/.iotlink/sdk/IoT_LINK/iot_link/os/liteos/utils\rbtree.c **** {
 521              		.loc 2 111 20 view .LVU147
 522              	.LBB345:
 113:C:/Users/²Ü¼ÒºÀ/.iotlink/sdk/IoT_LINK/iot_link/os/liteos/utils\rbtree.c **** }
 523              		.loc 2 113 5 view .LVU148
 113:C:/Users/²Ü¼ÒºÀ/.iotlink/sdk/IoT_LINK/iot_link/os/liteos/utils\rbtree.c **** }
 524              		.loc 2 113 5 is_stmt 0 view .LVU149
 525              	.LBE345:
 526              	.LBE347:
 527              	.LBE381:
 512:C:/Users/²Ü¼ÒºÀ/.iotlink/sdk/IoT_LINK/iot_link/os/liteos/utils\rbtree.c ****         {
 528              		.loc 2 512 9 is_stmt 1 view .LVU150
 529              	.LBB382:
 530              	.LBI382:
  74:C:/Users/²Ü¼ÒºÀ/.iotlink/sdk/IoT_LINK/iot_link/os/liteos/utils\rbtree.c **** {
 531              		.loc 2 74 19 view .LVU151
 532              	.LBB383:
  76:C:/Users/²Ü¼ÒºÀ/.iotlink/sdk/IoT_LINK/iot_link/os/liteos/utils\rbtree.c **** }
 533              		.loc 2 76 5 view .LVU152
  76:C:/Users/²Ü¼ÒºÀ/.iotlink/sdk/IoT_LINK/iot_link/os/liteos/utils\rbtree.c **** }
 534              		.loc 2 76 24 is_stmt 0 view .LVU153
 535 002c 2BB1     		cbz	r3, .L35
 536              	.LVL33:
 537              	.LBB384:
 538              	.LBI384:
  62:C:/Users/²Ü¼ÒºÀ/.iotlink/sdk/IoT_LINK/iot_link/os/liteos/utils\rbtree.c **** {
 539              		.loc 2 62 19 is_stmt 1 view .LVU154
 540              	.LBB385:
  64:C:/Users/²Ü¼ÒºÀ/.iotlink/sdk/IoT_LINK/iot_link/os/liteos/utils\rbtree.c **** }
 541              		.loc 2 64 5 view .LVU155
  64:C:/Users/²Ü¼ÒºÀ/.iotlink/sdk/IoT_LINK/iot_link/os/liteos/utils\rbtree.c **** }
 542              		.loc 2 64 5 is_stmt 0 view .LVU156
 543              	.LBE385:
 544              	.LBE384:
 545              	.LBE383:
 546              	.LBE382:
  52:C:/Users/²Ü¼ÒºÀ/.iotlink/sdk/IoT_LINK/iot_link/os/liteos/utils\rbtree.c **** }
 547              		.loc 2 52 5 is_stmt 1 view .LVU157
 548              	.LBB387:
 549              	.LBB386:
  76:C:/Users/²Ü¼ÒºÀ/.iotlink/sdk/IoT_LINK/iot_link/os/liteos/utils\rbtree.c **** }
 550              		.loc 2 76 24 is_stmt 0 view .LVU158
 551 002e DF68     		ldr	r7, [r3, #12]
 552 0030 1FB9     		cbnz	r7, .L35
 553              	.LVL34:
  76:C:/Users/²Ü¼ÒºÀ/.iotlink/sdk/IoT_LINK/iot_link/os/liteos/utils\rbtree.c **** }
 554              		.loc 2 76 24 view .LVU159
 555              	.LBE386:
 556              	.LBE387:
 519:C:/Users/²Ü¼ÒºÀ/.iotlink/sdk/IoT_LINK/iot_link/os/liteos/utils\rbtree.c ****         __set_black (u);
 557              		.loc 2 519 9 is_stmt 1 view .LVU160
 558              	.LBB388:
 559              	.LBI348:
 135:C:/Users/²Ü¼ÒºÀ/.iotlink/sdk/IoT_LINK/iot_link/os/liteos/utils\rbtree.c **** {
 560              		.loc 2 135 20 view .LVU161
ARM GAS  C:\Users\²Ü¼ÒºÀ\AppData\Local\Temp\ccwaEIDi.s 			page 32


 561              	.LBE388:
 137:C:/Users/²Ü¼ÒºÀ/.iotlink/sdk/IoT_LINK/iot_link/os/liteos/utils\rbtree.c **** }
 562              		.loc 2 137 5 view .LVU162
 563              	.LBB389:
 564              	.LBB352:
 565              	.LBI349:
 111:C:/Users/²Ü¼ÒºÀ/.iotlink/sdk/IoT_LINK/iot_link/os/liteos/utils\rbtree.c **** {
 566              		.loc 2 111 20 view .LVU163
 567              	.LBB351:
 113:C:/Users/²Ü¼ÒºÀ/.iotlink/sdk/IoT_LINK/iot_link/os/liteos/utils\rbtree.c **** }
 568              		.loc 2 113 5 view .LVU164
 113:C:/Users/²Ü¼ÒºÀ/.iotlink/sdk/IoT_LINK/iot_link/os/liteos/utils\rbtree.c **** }
 569              		.loc 2 113 10 is_stmt 0 view .LVU165
 570 0032 E160     		str	r1, [r4, #12]
 571              	.LVL35:
 113:C:/Users/²Ü¼ÒºÀ/.iotlink/sdk/IoT_LINK/iot_link/os/liteos/utils\rbtree.c **** }
 572              		.loc 2 113 10 view .LVU166
 573              	.LBE351:
 574              	.LBE352:
 575              	.LBE389:
 520:C:/Users/²Ü¼ÒºÀ/.iotlink/sdk/IoT_LINK/iot_link/os/liteos/utils\rbtree.c **** 
 576              		.loc 2 520 9 is_stmt 1 view .LVU167
 577              	.LBB390:
 578              	.LBI390:
 135:C:/Users/²Ü¼ÒºÀ/.iotlink/sdk/IoT_LINK/iot_link/os/liteos/utils\rbtree.c **** {
 579              		.loc 2 135 20 view .LVU168
 580              	.LBE390:
 137:C:/Users/²Ü¼ÒºÀ/.iotlink/sdk/IoT_LINK/iot_link/os/liteos/utils\rbtree.c **** }
 581              		.loc 2 137 5 view .LVU169
 582              	.LBB395:
 583              	.LBB391:
 584              	.LBI391:
 111:C:/Users/²Ü¼ÒºÀ/.iotlink/sdk/IoT_LINK/iot_link/os/liteos/utils\rbtree.c **** {
 585              		.loc 2 111 20 view .LVU170
 586              	.LBB392:
 113:C:/Users/²Ü¼ÒºÀ/.iotlink/sdk/IoT_LINK/iot_link/os/liteos/utils\rbtree.c **** }
 587              		.loc 2 113 5 view .LVU171
 588              	.LBE392:
 589              	.LBE391:
 590              	.LBE395:
 485:C:/Users/²Ü¼ÒºÀ/.iotlink/sdk/IoT_LINK/iot_link/os/liteos/utils\rbtree.c **** 
 591              		.loc 2 485 11 is_stmt 0 view .LVU172
 592 0034 3546     		mov	r5, r6
 593              	.LVL36:
 594              	.LBB396:
 595              	.LBB394:
 596              	.LBB393:
 113:C:/Users/²Ü¼ÒºÀ/.iotlink/sdk/IoT_LINK/iot_link/os/liteos/utils\rbtree.c **** }
 597              		.loc 2 113 10 view .LVU173
 598 0036 D960     		str	r1, [r3, #12]
 599              	.LVL37:
 113:C:/Users/²Ü¼ÒºÀ/.iotlink/sdk/IoT_LINK/iot_link/os/liteos/utils\rbtree.c **** }
 600              		.loc 2 113 10 view .LVU174
 601              	.LBE393:
 602              	.LBE394:
 603              	.LBE396:
 522:C:/Users/²Ü¼ÒºÀ/.iotlink/sdk/IoT_LINK/iot_link/os/liteos/utils\rbtree.c ****     }
ARM GAS  C:\Users\²Ü¼ÒºÀ\AppData\Local\Temp\ccwaEIDi.s 			page 33


 604              		.loc 2 522 9 is_stmt 1 view .LVU175
 483:C:/Users/²Ü¼ÒºÀ/.iotlink/sdk/IoT_LINK/iot_link/os/liteos/utils\rbtree.c ****     {
 605              		.loc 2 483 11 view .LVU176
 485:C:/Users/²Ü¼ÒºÀ/.iotlink/sdk/IoT_LINK/iot_link/os/liteos/utils\rbtree.c **** 
 606              		.loc 2 485 11 is_stmt 0 view .LVU177
 607 0038 E7E7     		b	.L36
 608              	.LVL38:
 609              	.L35:
 527:C:/Users/²Ü¼ÒºÀ/.iotlink/sdk/IoT_LINK/iot_link/os/liteos/utils\rbtree.c ****     {
 610              		.loc 2 527 5 is_stmt 1 view .LVU178
 161:C:/Users/²Ü¼ÒºÀ/.iotlink/sdk/IoT_LINK/iot_link/os/liteos/utils\rbtree.c **** }
 611              		.loc 2 161 5 view .LVU179
 527:C:/Users/²Ü¼ÒºÀ/.iotlink/sdk/IoT_LINK/iot_link/os/liteos/utils\rbtree.c ****     {
 612              		.loc 2 527 8 is_stmt 0 view .LVU180
 613 003a 9442     		cmp	r4, r2
 614 003c 0ED1     		bne	.L37
 529:C:/Users/²Ü¼ÒºÀ/.iotlink/sdk/IoT_LINK/iot_link/os/liteos/utils\rbtree.c ****         {
 615              		.loc 2 529 9 is_stmt 1 view .LVU181
 616              	.LVL39:
 172:C:/Users/²Ü¼ÒºÀ/.iotlink/sdk/IoT_LINK/iot_link/os/liteos/utils\rbtree.c **** }
 617              		.loc 2 172 5 view .LVU182
 529:C:/Users/²Ü¼ÒºÀ/.iotlink/sdk/IoT_LINK/iot_link/os/liteos/utils\rbtree.c ****         {
 618              		.loc 2 529 12 is_stmt 0 view .LVU183
 619 003e A368     		ldr	r3, [r4, #8]
 620              	.LVL40:
 529:C:/Users/²Ü¼ÒºÀ/.iotlink/sdk/IoT_LINK/iot_link/os/liteos/utils\rbtree.c ****         {
 621              		.loc 2 529 12 view .LVU184
 622 0040 9D42     		cmp	r5, r3
 623 0042 05D1     		bne	.L38
 531:C:/Users/²Ü¼ÒºÀ/.iotlink/sdk/IoT_LINK/iot_link/os/liteos/utils\rbtree.c ****         }
 624              		.loc 2 531 13 is_stmt 1 view .LVU185
 625              	.LVL41:
 626              	.LBB397:
 627              	.LBI397:
 284:C:/Users/²Ü¼ÒºÀ/.iotlink/sdk/IoT_LINK/iot_link/os/liteos/utils\rbtree.c **** {
 628              		.loc 2 284 20 view .LVU186
 629              	.LBB398:
 286:C:/Users/²Ü¼ÒºÀ/.iotlink/sdk/IoT_LINK/iot_link/os/liteos/utils\rbtree.c **** }
 630              		.loc 2 286 5 view .LVU187
 631 0044 2146     		mov	r1, r4
 632 0046 0190     		str	r0, [sp, #4]
 633 0048 FFF7FEFF 		bl	__bit_rotate_left.isra.0
 634              	.LVL42:
 287:C:/Users/²Ü¼ÒºÀ/.iotlink/sdk/IoT_LINK/iot_link/os/liteos/utils\rbtree.c **** 
 635              		.loc 2 287 1 is_stmt 0 view .LVU188
 636 004c 0198     		ldr	r0, [sp, #4]
 637 004e 2C46     		mov	r4, r5
 638              	.LVL43:
 639              	.L38:
 287:C:/Users/²Ü¼ÒºÀ/.iotlink/sdk/IoT_LINK/iot_link/os/liteos/utils\rbtree.c **** 
 640              		.loc 2 287 1 view .LVU189
 641              	.LBE398:
 642              	.LBE397:
 538:C:/Users/²Ü¼ÒºÀ/.iotlink/sdk/IoT_LINK/iot_link/os/liteos/utils\rbtree.c ****     }
 643              		.loc 2 538 9 is_stmt 1 view .LVU190
 644              	.LBB399:
 645              	.LBI399:
ARM GAS  C:\Users\²Ü¼ÒºÀ\AppData\Local\Temp\ccwaEIDi.s 			page 34


 271:C:/Users/²Ü¼ÒºÀ/.iotlink/sdk/IoT_LINK/iot_link/os/liteos/utils\rbtree.c **** {
 646              		.loc 2 271 20 view .LVU191
 647              	.LBB400:
 273:C:/Users/²Ü¼ÒºÀ/.iotlink/sdk/IoT_LINK/iot_link/os/liteos/utils\rbtree.c **** }
 648              		.loc 2 273 5 view .LVU192
 649 0050 3146     		mov	r1, r6
 650 0052 FFF7FEFF 		bl	__bit_rotate_right.isra.0
 651              	.LVL44:
 652              	.L39:
 273:C:/Users/²Ü¼ÒºÀ/.iotlink/sdk/IoT_LINK/iot_link/os/liteos/utils\rbtree.c **** }
 653              		.loc 2 273 5 is_stmt 0 view .LVU193
 654              	.LBE400:
 655              	.LBE399:
 554:C:/Users/²Ü¼ÒºÀ/.iotlink/sdk/IoT_LINK/iot_link/os/liteos/utils\rbtree.c **** }
 656              		.loc 2 554 5 is_stmt 1 view .LVU194
 657              	.LBB401:
 658              	.LBI401:
 135:C:/Users/²Ü¼ÒºÀ/.iotlink/sdk/IoT_LINK/iot_link/os/liteos/utils\rbtree.c **** {
 659              		.loc 2 135 20 view .LVU195
 660              	.LBB402:
 137:C:/Users/²Ü¼ÒºÀ/.iotlink/sdk/IoT_LINK/iot_link/os/liteos/utils\rbtree.c **** }
 661              		.loc 2 137 5 view .LVU196
 662              	.LBB403:
 663              	.LBI403:
 111:C:/Users/²Ü¼ÒºÀ/.iotlink/sdk/IoT_LINK/iot_link/os/liteos/utils\rbtree.c **** {
 664              		.loc 2 111 20 view .LVU197
 665              	.LBB404:
 113:C:/Users/²Ü¼ÒºÀ/.iotlink/sdk/IoT_LINK/iot_link/os/liteos/utils\rbtree.c **** }
 666              		.loc 2 113 5 view .LVU198
 113:C:/Users/²Ü¼ÒºÀ/.iotlink/sdk/IoT_LINK/iot_link/os/liteos/utils\rbtree.c **** }
 667              		.loc 2 113 10 is_stmt 0 view .LVU199
 668 0056 0123     		movs	r3, #1
 669 0058 E360     		str	r3, [r4, #12]
 670              	.LVL45:
 113:C:/Users/²Ü¼ÒºÀ/.iotlink/sdk/IoT_LINK/iot_link/os/liteos/utils\rbtree.c **** }
 671              		.loc 2 113 10 view .LVU200
 672              	.LBE404:
 673              	.LBE403:
 138:C:/Users/²Ü¼ÒºÀ/.iotlink/sdk/IoT_LINK/iot_link/os/liteos/utils\rbtree.c **** 
 674              		.loc 2 138 1 view .LVU201
 675 005a DAE7     		b	.L31
 676              	.LVL46:
 677              	.L37:
 138:C:/Users/²Ü¼ÒºÀ/.iotlink/sdk/IoT_LINK/iot_link/os/liteos/utils\rbtree.c **** 
 678              		.loc 2 138 1 view .LVU202
 679              	.LBE402:
 680              	.LBE401:
 542:C:/Users/²Ü¼ÒºÀ/.iotlink/sdk/IoT_LINK/iot_link/os/liteos/utils\rbtree.c ****         {
 681              		.loc 2 542 9 is_stmt 1 view .LVU203
 161:C:/Users/²Ü¼ÒºÀ/.iotlink/sdk/IoT_LINK/iot_link/os/liteos/utils\rbtree.c **** }
 682              		.loc 2 161 5 view .LVU204
 542:C:/Users/²Ü¼ÒºÀ/.iotlink/sdk/IoT_LINK/iot_link/os/liteos/utils\rbtree.c ****         {
 683              		.loc 2 542 12 is_stmt 0 view .LVU205
 684 005c 6368     		ldr	r3, [r4, #4]
 685              	.LVL47:
 542:C:/Users/²Ü¼ÒºÀ/.iotlink/sdk/IoT_LINK/iot_link/os/liteos/utils\rbtree.c ****         {
 686              		.loc 2 542 12 view .LVU206
ARM GAS  C:\Users\²Ü¼ÒºÀ\AppData\Local\Temp\ccwaEIDi.s 			page 35


 687 005e 9D42     		cmp	r5, r3
 688 0060 05D1     		bne	.L40
 544:C:/Users/²Ü¼ÒºÀ/.iotlink/sdk/IoT_LINK/iot_link/os/liteos/utils\rbtree.c ****         }
 689              		.loc 2 544 13 is_stmt 1 view .LVU207
 690              	.LVL48:
 691              	.LBB405:
 692              	.LBI405:
 271:C:/Users/²Ü¼ÒºÀ/.iotlink/sdk/IoT_LINK/iot_link/os/liteos/utils\rbtree.c **** {
 693              		.loc 2 271 20 view .LVU208
 694              	.LBB406:
 273:C:/Users/²Ü¼ÒºÀ/.iotlink/sdk/IoT_LINK/iot_link/os/liteos/utils\rbtree.c **** }
 695              		.loc 2 273 5 view .LVU209
 696 0062 2146     		mov	r1, r4
 697 0064 0190     		str	r0, [sp, #4]
 698 0066 FFF7FEFF 		bl	__bit_rotate_right.isra.0
 699              	.LVL49:
 274:C:/Users/²Ü¼ÒºÀ/.iotlink/sdk/IoT_LINK/iot_link/os/liteos/utils\rbtree.c **** 
 700              		.loc 2 274 1 is_stmt 0 view .LVU210
 701 006a 0198     		ldr	r0, [sp, #4]
 702 006c 2C46     		mov	r4, r5
 703              	.LVL50:
 704              	.L40:
 274:C:/Users/²Ü¼ÒºÀ/.iotlink/sdk/IoT_LINK/iot_link/os/liteos/utils\rbtree.c **** 
 705              		.loc 2 274 1 view .LVU211
 706              	.LBE406:
 707              	.LBE405:
 551:C:/Users/²Ü¼ÒºÀ/.iotlink/sdk/IoT_LINK/iot_link/os/liteos/utils\rbtree.c ****     }
 708              		.loc 2 551 9 is_stmt 1 view .LVU212
 709              	.LBB407:
 710              	.LBI407:
 284:C:/Users/²Ü¼ÒºÀ/.iotlink/sdk/IoT_LINK/iot_link/os/liteos/utils\rbtree.c **** {
 711              		.loc 2 284 20 view .LVU213
 712              	.LBB408:
 286:C:/Users/²Ü¼ÒºÀ/.iotlink/sdk/IoT_LINK/iot_link/os/liteos/utils\rbtree.c **** }
 713              		.loc 2 286 5 view .LVU214
 714 006e 3146     		mov	r1, r6
 715 0070 FFF7FEFF 		bl	__bit_rotate_left.isra.0
 716              	.LVL51:
 287:C:/Users/²Ü¼ÒºÀ/.iotlink/sdk/IoT_LINK/iot_link/os/liteos/utils\rbtree.c **** 
 717              		.loc 2 287 1 is_stmt 0 view .LVU215
 718 0074 EFE7     		b	.L39
 719              	.LBE408:
 720              	.LBE407:
 721              		.cfi_endproc
 722              	.LFE53:
 724              		.section	.text.rb_find_eq,"ax",%progbits
 725              		.align	1
 726              		.global	rb_find_eq
 727              		.syntax unified
 728              		.thumb
 729              		.thumb_func
 730              		.fpu fpv4-sp-d16
 732              	rb_find_eq:
 733              	.LVL52:
 734              	.LFB43:
 322:C:/Users/²Ü¼ÒºÀ/.iotlink/sdk/IoT_LINK/iot_link/os/liteos/utils\rbtree.c ****     return container_of (__bit_find_eq (&t->bit, k), rb_node_t, bin);
 735              		.loc 2 322 1 is_stmt 1 view -0
ARM GAS  C:\Users\²Ü¼ÒºÀ\AppData\Local\Temp\ccwaEIDi.s 			page 36


 736              		.cfi_startproc
 737              		@ args = 0, pretend = 0, frame = 0
 738              		@ frame_needed = 0, uses_anonymous_args = 0
 323:C:/Users/²Ü¼ÒºÀ/.iotlink/sdk/IoT_LINK/iot_link/os/liteos/utils\rbtree.c **** }
 739              		.loc 2 323 5 view .LVU217
 322:C:/Users/²Ü¼ÒºÀ/.iotlink/sdk/IoT_LINK/iot_link/os/liteos/utils\rbtree.c ****     return container_of (__bit_find_eq (&t->bit, k), rb_node_t, bin);
 740              		.loc 2 322 1 is_stmt 0 view .LVU218
 741 0000 70B5     		push	{r4, r5, r6, lr}
 742              	.LCFI5:
 743              		.cfi_def_cfa_offset 16
 744              		.cfi_offset 4, -16
 745              		.cfi_offset 5, -12
 746              		.cfi_offset 6, -8
 747              		.cfi_offset 14, -4
 748              	.LBB412:
 749              	.LBB413:
 237:C:/Users/²Ü¼ÒºÀ/.iotlink/sdk/IoT_LINK/iot_link/os/liteos/base/include\__binary_tree.h **** 
 750              		.loc 1 237 17 view .LVU219
 751 0002 0468     		ldr	r4, [r0]
 752              	.LBE413:
 753              	.LBE412:
 322:C:/Users/²Ü¼ÒºÀ/.iotlink/sdk/IoT_LINK/iot_link/os/liteos/utils\rbtree.c ****     return container_of (__bit_find_eq (&t->bit, k), rb_node_t, bin);
 754              		.loc 2 322 1 view .LVU220
 755 0004 0546     		mov	r5, r0
 756 0006 0E46     		mov	r6, r1
 757              	.LVL53:
 758              	.LBB417:
 759              	.LBI412:
 235:C:/Users/²Ü¼ÒºÀ/.iotlink/sdk/IoT_LINK/iot_link/os/liteos/base/include\__binary_tree.h **** {
 760              		.loc 1 235 27 is_stmt 1 view .LVU221
 761              	.LBB415:
 237:C:/Users/²Ü¼ÒºÀ/.iotlink/sdk/IoT_LINK/iot_link/os/liteos/base/include\__binary_tree.h **** 
 762              		.loc 1 237 5 view .LVU222
 239:C:/Users/²Ü¼ÒºÀ/.iotlink/sdk/IoT_LINK/iot_link/os/liteos/base/include\__binary_tree.h ****     {
 763              		.loc 1 239 5 view .LVU223
 764              	.L49:
 239:C:/Users/²Ü¼ÒºÀ/.iotlink/sdk/IoT_LINK/iot_link/os/liteos/base/include\__binary_tree.h ****     {
 765              		.loc 1 239 11 view .LVU224
 766 0008 0CB9     		cbnz	r4, .L52
 767              	.L48:
 768              	.LBE415:
 769              	.LBE417:
 324:C:/Users/²Ü¼ÒºÀ/.iotlink/sdk/IoT_LINK/iot_link/os/liteos/utils\rbtree.c **** 
 770              		.loc 2 324 1 is_stmt 0 view .LVU225
 771 000a 2046     		mov	r0, r4
 772 000c 70BD     		pop	{r4, r5, r6, pc}
 773              	.LVL54:
 774              	.L52:
 775              	.LBB418:
 776              	.LBB416:
 777              	.LBB414:
 241:C:/Users/²Ü¼ÒºÀ/.iotlink/sdk/IoT_LINK/iot_link/os/liteos/base/include\__binary_tree.h **** 
 778              		.loc 1 241 9 is_stmt 1 view .LVU226
 241:C:/Users/²Ü¼ÒºÀ/.iotlink/sdk/IoT_LINK/iot_link/os/liteos/base/include\__binary_tree.h **** 
 779              		.loc 1 241 26 is_stmt 0 view .LVU227
 780 000e AB68     		ldr	r3, [r5, #8]
 781 0010 3146     		mov	r1, r6
ARM GAS  C:\Users\²Ü¼ÒºÀ\AppData\Local\Temp\ccwaEIDi.s 			page 37


 782 0012 2046     		mov	r0, r4
 783 0014 9847     		blx	r3
 784              	.LVL55:
 243:C:/Users/²Ü¼ÒºÀ/.iotlink/sdk/IoT_LINK/iot_link/os/liteos/base/include\__binary_tree.h ****         {
 785              		.loc 1 243 9 is_stmt 1 view .LVU228
 243:C:/Users/²Ü¼ÒºÀ/.iotlink/sdk/IoT_LINK/iot_link/os/liteos/base/include\__binary_tree.h ****         {
 786              		.loc 1 243 12 is_stmt 0 view .LVU229
 787 0016 0028     		cmp	r0, #0
 788 0018 F7D0     		beq	.L48
 248:C:/Users/²Ü¼ÒºÀ/.iotlink/sdk/IoT_LINK/iot_link/os/liteos/base/include\__binary_tree.h ****     }
 789              		.loc 1 248 9 is_stmt 1 view .LVU230
 248:C:/Users/²Ü¼ÒºÀ/.iotlink/sdk/IoT_LINK/iot_link/os/liteos/base/include\__binary_tree.h ****     }
 790              		.loc 1 248 11 is_stmt 0 view .LVU231
 791 001a D4E90132 		ldrd	r3, r2, [r4, #4]
 792 001e B8BF     		it	lt
 793 0020 1346     		movlt	r3, r2
 794 0022 1C46     		mov	r4, r3
 795              	.LVL56:
 248:C:/Users/²Ü¼ÒºÀ/.iotlink/sdk/IoT_LINK/iot_link/os/liteos/base/include\__binary_tree.h ****     }
 796              		.loc 1 248 11 view .LVU232
 797 0024 F0E7     		b	.L49
 798              	.LBE414:
 799              	.LBE416:
 800              	.LBE418:
 801              		.cfi_endproc
 802              	.LFE43:
 804              		.section	.text.rb_find_ge,"ax",%progbits
 805              		.align	1
 806              		.global	rb_find_ge
 807              		.syntax unified
 808              		.thumb
 809              		.thumb_func
 810              		.fpu fpv4-sp-d16
 812              	rb_find_ge:
 813              	.LVL57:
 814              	.LFB44:
 335:C:/Users/²Ü¼ÒºÀ/.iotlink/sdk/IoT_LINK/iot_link/os/liteos/utils\rbtree.c ****     return container_of (__bit_find_ge (&t->bit, k), rb_node_t, bin);
 815              		.loc 2 335 1 is_stmt 1 view -0
 816              		.cfi_startproc
 817              		@ args = 0, pretend = 0, frame = 0
 818              		@ frame_needed = 0, uses_anonymous_args = 0
 336:C:/Users/²Ü¼ÒºÀ/.iotlink/sdk/IoT_LINK/iot_link/os/liteos/utils\rbtree.c **** }
 819              		.loc 2 336 5 view .LVU234
 335:C:/Users/²Ü¼ÒºÀ/.iotlink/sdk/IoT_LINK/iot_link/os/liteos/utils\rbtree.c ****     return container_of (__bit_find_ge (&t->bit, k), rb_node_t, bin);
 820              		.loc 2 335 1 is_stmt 0 view .LVU235
 821 0000 F8B5     		push	{r3, r4, r5, r6, r7, lr}
 822              	.LCFI6:
 823              		.cfi_def_cfa_offset 24
 824              		.cfi_offset 3, -24
 825              		.cfi_offset 4, -20
 826              		.cfi_offset 5, -16
 827              		.cfi_offset 6, -12
 828              		.cfi_offset 7, -8
 829              		.cfi_offset 14, -4
 830              	.LBB423:
 831              	.LBB424:
 399:C:/Users/²Ü¼ÒºÀ/.iotlink/sdk/IoT_LINK/iot_link/os/liteos/base/include\__binary_tree.h **** }
ARM GAS  C:\Users\²Ü¼ÒºÀ\AppData\Local\Temp\ccwaEIDi.s 			page 38


 832              		.loc 1 399 5 view .LVU236
 833 0002 0468     		ldr	r4, [r0]
 834              	.LBE424:
 835              	.LBE423:
 335:C:/Users/²Ü¼ÒºÀ/.iotlink/sdk/IoT_LINK/iot_link/os/liteos/utils\rbtree.c ****     return container_of (__bit_find_ge (&t->bit, k), rb_node_t, bin);
 836              		.loc 2 335 1 view .LVU237
 837 0004 0546     		mov	r5, r0
 838 0006 0F46     		mov	r7, r1
 839              	.LVL58:
 840              	.LBB428:
 841              	.LBI423:
 397:C:/Users/²Ü¼ÒºÀ/.iotlink/sdk/IoT_LINK/iot_link/os/liteos/base/include\__binary_tree.h **** {
 842              		.loc 1 397 27 is_stmt 1 view .LVU238
 843              	.LBE428:
 399:C:/Users/²Ü¼ÒºÀ/.iotlink/sdk/IoT_LINK/iot_link/os/liteos/base/include\__binary_tree.h **** }
 844              		.loc 1 399 5 view .LVU239
 845              	.LBB429:
 846              	.LBB426:
 399:C:/Users/²Ü¼ÒºÀ/.iotlink/sdk/IoT_LINK/iot_link/os/liteos/base/include\__binary_tree.h **** }
 847              		.loc 1 399 5 view .LVU240
 399:C:/Users/²Ü¼ÒºÀ/.iotlink/sdk/IoT_LINK/iot_link/os/liteos/base/include\__binary_tree.h **** }
 848              		.loc 1 399 5 view .LVU241
 399:C:/Users/²Ü¼ÒºÀ/.iotlink/sdk/IoT_LINK/iot_link/os/liteos/base/include\__binary_tree.h **** }
 849              		.loc 1 399 5 view .LVU242
 850 0008 0026     		movs	r6, #0
 851              	.LVL59:
 852              	.L57:
 399:C:/Users/²Ü¼ÒºÀ/.iotlink/sdk/IoT_LINK/iot_link/os/liteos/base/include\__binary_tree.h **** }
 853              		.loc 1 399 5 view .LVU243
 854 000a 14B9     		cbnz	r4, .L60
 855 000c 3446     		mov	r4, r6
 856              	.LVL60:
 399:C:/Users/²Ü¼ÒºÀ/.iotlink/sdk/IoT_LINK/iot_link/os/liteos/base/include\__binary_tree.h **** }
 857              		.loc 1 399 5 is_stmt 0 view .LVU244
 858              	.LBE426:
 859              	.LBE429:
 399:C:/Users/²Ü¼ÒºÀ/.iotlink/sdk/IoT_LINK/iot_link/os/liteos/base/include\__binary_tree.h **** }
 860              		.loc 1 399 5 is_stmt 1 view .LVU245
 861              	.L56:
 337:C:/Users/²Ü¼ÒºÀ/.iotlink/sdk/IoT_LINK/iot_link/os/liteos/utils\rbtree.c **** 
 862              		.loc 2 337 1 is_stmt 0 view .LVU246
 863 000e 2046     		mov	r0, r4
 864 0010 F8BD     		pop	{r3, r4, r5, r6, r7, pc}
 865              	.LVL61:
 866              	.L60:
 867              	.LBB430:
 868              	.LBB427:
 869              	.LBB425:
 399:C:/Users/²Ü¼ÒºÀ/.iotlink/sdk/IoT_LINK/iot_link/os/liteos/base/include\__binary_tree.h **** }
 870              		.loc 1 399 5 is_stmt 1 view .LVU247
 871 0012 AB68     		ldr	r3, [r5, #8]
 872 0014 3946     		mov	r1, r7
 873 0016 2046     		mov	r0, r4
 874 0018 9847     		blx	r3
 875              	.LVL62:
 399:C:/Users/²Ü¼ÒºÀ/.iotlink/sdk/IoT_LINK/iot_link/os/liteos/base/include\__binary_tree.h **** }
 876              		.loc 1 399 5 view .LVU248
ARM GAS  C:\Users\²Ü¼ÒºÀ\AppData\Local\Temp\ccwaEIDi.s 			page 39


 877 001a 0028     		cmp	r0, #0
 878 001c F7D0     		beq	.L56
 399:C:/Users/²Ü¼ÒºÀ/.iotlink/sdk/IoT_LINK/iot_link/os/liteos/base/include\__binary_tree.h **** }
 879              		.loc 1 399 5 view .LVU249
 880 001e D4E90132 		ldrd	r3, r2, [r4, #4]
 881 0022 BCBF     		itt	lt
 882 0024 3446     		movlt	r4, r6
 883              	.LVL63:
 399:C:/Users/²Ü¼ÒºÀ/.iotlink/sdk/IoT_LINK/iot_link/os/liteos/base/include\__binary_tree.h **** }
 884              		.loc 1 399 5 is_stmt 0 view .LVU250
 885 0026 1346     		movlt	r3, r2
 886              	.LVL64:
 399:C:/Users/²Ü¼ÒºÀ/.iotlink/sdk/IoT_LINK/iot_link/os/liteos/base/include\__binary_tree.h **** }
 887              		.loc 1 399 5 view .LVU251
 888 0028 2646     		mov	r6, r4
 889 002a 1C46     		mov	r4, r3
 890 002c EDE7     		b	.L57
 891              	.LBE425:
 892              	.LBE427:
 893              	.LBE430:
 894              		.cfi_endproc
 895              	.LFE44:
 897              		.section	.text.rb_find_gt,"ax",%progbits
 898              		.align	1
 899              		.global	rb_find_gt
 900              		.syntax unified
 901              		.thumb
 902              		.thumb_func
 903              		.fpu fpv4-sp-d16
 905              	rb_find_gt:
 906              	.LVL65:
 907              	.LFB45:
 348:C:/Users/²Ü¼ÒºÀ/.iotlink/sdk/IoT_LINK/iot_link/os/liteos/utils\rbtree.c ****     return container_of (__bit_find_gt (&t->bit, k), rb_node_t, bin);
 908              		.loc 2 348 1 is_stmt 1 view -0
 909              		.cfi_startproc
 910              		@ args = 0, pretend = 0, frame = 0
 911              		@ frame_needed = 0, uses_anonymous_args = 0
 349:C:/Users/²Ü¼ÒºÀ/.iotlink/sdk/IoT_LINK/iot_link/os/liteos/utils\rbtree.c **** }
 912              		.loc 2 349 5 view .LVU253
 348:C:/Users/²Ü¼ÒºÀ/.iotlink/sdk/IoT_LINK/iot_link/os/liteos/utils\rbtree.c ****     return container_of (__bit_find_gt (&t->bit, k), rb_node_t, bin);
 913              		.loc 2 348 1 is_stmt 0 view .LVU254
 914 0000 F8B5     		push	{r3, r4, r5, r6, r7, lr}
 915              	.LCFI7:
 916              		.cfi_def_cfa_offset 24
 917              		.cfi_offset 3, -24
 918              		.cfi_offset 4, -20
 919              		.cfi_offset 5, -16
 920              		.cfi_offset 6, -12
 921              		.cfi_offset 7, -8
 922              		.cfi_offset 14, -4
 923              	.LBB435:
 924              	.LBB436:
 293:C:/Users/²Ü¼ÒºÀ/.iotlink/sdk/IoT_LINK/iot_link/os/liteos/base/include\__binary_tree.h **** }
 925              		.loc 1 293 5 view .LVU255
 926 0002 0468     		ldr	r4, [r0]
 927              	.LBE436:
 928              	.LBE435:
ARM GAS  C:\Users\²Ü¼ÒºÀ\AppData\Local\Temp\ccwaEIDi.s 			page 40


 348:C:/Users/²Ü¼ÒºÀ/.iotlink/sdk/IoT_LINK/iot_link/os/liteos/utils\rbtree.c ****     return container_of (__bit_find_gt (&t->bit, k), rb_node_t, bin);
 929              		.loc 2 348 1 view .LVU256
 930 0004 0546     		mov	r5, r0
 931 0006 0F46     		mov	r7, r1
 932              	.LVL66:
 933              	.LBB440:
 934              	.LBI435:
 291:C:/Users/²Ü¼ÒºÀ/.iotlink/sdk/IoT_LINK/iot_link/os/liteos/base/include\__binary_tree.h **** {
 935              		.loc 1 291 27 is_stmt 1 view .LVU257
 936              	.LBE440:
 293:C:/Users/²Ü¼ÒºÀ/.iotlink/sdk/IoT_LINK/iot_link/os/liteos/base/include\__binary_tree.h **** }
 937              		.loc 1 293 5 view .LVU258
 938              	.LBB441:
 939              	.LBB438:
 293:C:/Users/²Ü¼ÒºÀ/.iotlink/sdk/IoT_LINK/iot_link/os/liteos/base/include\__binary_tree.h **** }
 940              		.loc 1 293 5 view .LVU259
 293:C:/Users/²Ü¼ÒºÀ/.iotlink/sdk/IoT_LINK/iot_link/os/liteos/base/include\__binary_tree.h **** }
 941              		.loc 1 293 5 view .LVU260
 293:C:/Users/²Ü¼ÒºÀ/.iotlink/sdk/IoT_LINK/iot_link/os/liteos/base/include\__binary_tree.h **** }
 942              		.loc 1 293 5 view .LVU261
 943 0008 0026     		movs	r6, #0
 944              	.LVL67:
 945              	.L65:
 293:C:/Users/²Ü¼ÒºÀ/.iotlink/sdk/IoT_LINK/iot_link/os/liteos/base/include\__binary_tree.h **** }
 946              		.loc 1 293 5 view .LVU262
 947 000a 0CB9     		cbnz	r4, .L68
 293:C:/Users/²Ü¼ÒºÀ/.iotlink/sdk/IoT_LINK/iot_link/os/liteos/base/include\__binary_tree.h **** }
 948              		.loc 1 293 5 view .LVU263
 949              	.LBE438:
 950              	.LBE441:
 293:C:/Users/²Ü¼ÒºÀ/.iotlink/sdk/IoT_LINK/iot_link/os/liteos/base/include\__binary_tree.h **** }
 951              		.loc 1 293 5 view .LVU264
 952              	.LVL68:
 350:C:/Users/²Ü¼ÒºÀ/.iotlink/sdk/IoT_LINK/iot_link/os/liteos/utils\rbtree.c **** 
 953              		.loc 2 350 1 is_stmt 0 view .LVU265
 954 000c 3046     		mov	r0, r6
 955 000e F8BD     		pop	{r3, r4, r5, r6, r7, pc}
 956              	.LVL69:
 957              	.L68:
 958              	.LBB442:
 959              	.LBB439:
 960              	.LBB437:
 293:C:/Users/²Ü¼ÒºÀ/.iotlink/sdk/IoT_LINK/iot_link/os/liteos/base/include\__binary_tree.h **** }
 961              		.loc 1 293 5 is_stmt 1 view .LVU266
 962 0010 AB68     		ldr	r3, [r5, #8]
 963 0012 3946     		mov	r1, r7
 964 0014 2046     		mov	r0, r4
 965 0016 9847     		blx	r3
 966              	.LVL70:
 293:C:/Users/²Ü¼ÒºÀ/.iotlink/sdk/IoT_LINK/iot_link/os/liteos/base/include\__binary_tree.h **** }
 967              		.loc 1 293 5 view .LVU267
 968 0018 0028     		cmp	r0, #0
 969 001a 02DC     		bgt	.L69
 293:C:/Users/²Ü¼ÒºÀ/.iotlink/sdk/IoT_LINK/iot_link/os/liteos/base/include\__binary_tree.h **** }
 970              		.loc 1 293 5 view .LVU268
 971 001c 02D0     		beq	.L66
 972 001e A468     		ldr	r4, [r4, #8]
ARM GAS  C:\Users\²Ü¼ÒºÀ\AppData\Local\Temp\ccwaEIDi.s 			page 41


 973              	.LVL71:
 293:C:/Users/²Ü¼ÒºÀ/.iotlink/sdk/IoT_LINK/iot_link/os/liteos/base/include\__binary_tree.h **** }
 974              		.loc 1 293 5 is_stmt 0 view .LVU269
 975 0020 F3E7     		b	.L65
 976              	.LVL72:
 977              	.L69:
 293:C:/Users/²Ü¼ÒºÀ/.iotlink/sdk/IoT_LINK/iot_link/os/liteos/base/include\__binary_tree.h **** }
 978              		.loc 1 293 5 view .LVU270
 979 0022 2646     		mov	r6, r4
 980              	.L66:
 293:C:/Users/²Ü¼ÒºÀ/.iotlink/sdk/IoT_LINK/iot_link/os/liteos/base/include\__binary_tree.h **** }
 981              		.loc 1 293 5 view .LVU271
 982 0024 6468     		ldr	r4, [r4, #4]
 983              	.LVL73:
 293:C:/Users/²Ü¼ÒºÀ/.iotlink/sdk/IoT_LINK/iot_link/os/liteos/base/include\__binary_tree.h **** }
 984              		.loc 1 293 5 view .LVU272
 985 0026 F0E7     		b	.L65
 986              	.LBE437:
 987              	.LBE439:
 988              	.LBE442:
 989              		.cfi_endproc
 990              	.LFE45:
 992              		.section	.text.rb_find_le,"ax",%progbits
 993              		.align	1
 994              		.global	rb_find_le
 995              		.syntax unified
 996              		.thumb
 997              		.thumb_func
 998              		.fpu fpv4-sp-d16
 1000              	rb_find_le:
 1001              	.LVL74:
 1002              	.LFB46:
 361:C:/Users/²Ü¼ÒºÀ/.iotlink/sdk/IoT_LINK/iot_link/os/liteos/utils\rbtree.c ****     return container_of (__bit_find_le (&t->bit, k), rb_node_t, bin);
 1003              		.loc 2 361 1 is_stmt 1 view -0
 1004              		.cfi_startproc
 1005              		@ args = 0, pretend = 0, frame = 0
 1006              		@ frame_needed = 0, uses_anonymous_args = 0
 362:C:/Users/²Ü¼ÒºÀ/.iotlink/sdk/IoT_LINK/iot_link/os/liteos/utils\rbtree.c **** }
 1007              		.loc 2 362 5 view .LVU274
 361:C:/Users/²Ü¼ÒºÀ/.iotlink/sdk/IoT_LINK/iot_link/os/liteos/utils\rbtree.c ****     return container_of (__bit_find_le (&t->bit, k), rb_node_t, bin);
 1008              		.loc 2 361 1 is_stmt 0 view .LVU275
 1009 0000 F8B5     		push	{r3, r4, r5, r6, r7, lr}
 1010              	.LCFI8:
 1011              		.cfi_def_cfa_offset 24
 1012              		.cfi_offset 3, -24
 1013              		.cfi_offset 4, -20
 1014              		.cfi_offset 5, -16
 1015              		.cfi_offset 6, -12
 1016              		.cfi_offset 7, -8
 1017              		.cfi_offset 14, -4
 1018              	.LBB447:
 1019              	.LBB448:
 412:C:/Users/²Ü¼ÒºÀ/.iotlink/sdk/IoT_LINK/iot_link/os/liteos/base/include\__binary_tree.h **** }
 1020              		.loc 1 412 5 view .LVU276
 1021 0002 0468     		ldr	r4, [r0]
 1022              	.LBE448:
 1023              	.LBE447:
ARM GAS  C:\Users\²Ü¼ÒºÀ\AppData\Local\Temp\ccwaEIDi.s 			page 42


 361:C:/Users/²Ü¼ÒºÀ/.iotlink/sdk/IoT_LINK/iot_link/os/liteos/utils\rbtree.c ****     return container_of (__bit_find_le (&t->bit, k), rb_node_t, bin);
 1024              		.loc 2 361 1 view .LVU277
 1025 0004 0546     		mov	r5, r0
 1026 0006 0F46     		mov	r7, r1
 1027              	.LVL75:
 1028              	.LBB452:
 1029              	.LBI447:
 410:C:/Users/²Ü¼ÒºÀ/.iotlink/sdk/IoT_LINK/iot_link/os/liteos/base/include\__binary_tree.h **** {
 1030              		.loc 1 410 27 is_stmt 1 view .LVU278
 1031              	.LBE452:
 412:C:/Users/²Ü¼ÒºÀ/.iotlink/sdk/IoT_LINK/iot_link/os/liteos/base/include\__binary_tree.h **** }
 1032              		.loc 1 412 5 view .LVU279
 1033              	.LBB453:
 1034              	.LBB450:
 412:C:/Users/²Ü¼ÒºÀ/.iotlink/sdk/IoT_LINK/iot_link/os/liteos/base/include\__binary_tree.h **** }
 1035              		.loc 1 412 5 view .LVU280
 412:C:/Users/²Ü¼ÒºÀ/.iotlink/sdk/IoT_LINK/iot_link/os/liteos/base/include\__binary_tree.h **** }
 1036              		.loc 1 412 5 view .LVU281
 412:C:/Users/²Ü¼ÒºÀ/.iotlink/sdk/IoT_LINK/iot_link/os/liteos/base/include\__binary_tree.h **** }
 1037              		.loc 1 412 5 view .LVU282
 1038 0008 0026     		movs	r6, #0
 1039              	.LVL76:
 1040              	.L71:
 412:C:/Users/²Ü¼ÒºÀ/.iotlink/sdk/IoT_LINK/iot_link/os/liteos/base/include\__binary_tree.h **** }
 1041              		.loc 1 412 5 view .LVU283
 1042 000a 14B9     		cbnz	r4, .L74
 1043 000c 3446     		mov	r4, r6
 1044              	.LVL77:
 412:C:/Users/²Ü¼ÒºÀ/.iotlink/sdk/IoT_LINK/iot_link/os/liteos/base/include\__binary_tree.h **** }
 1045              		.loc 1 412 5 is_stmt 0 view .LVU284
 1046              	.LBE450:
 1047              	.LBE453:
 412:C:/Users/²Ü¼ÒºÀ/.iotlink/sdk/IoT_LINK/iot_link/os/liteos/base/include\__binary_tree.h **** }
 1048              		.loc 1 412 5 is_stmt 1 view .LVU285
 1049              	.L70:
 363:C:/Users/²Ü¼ÒºÀ/.iotlink/sdk/IoT_LINK/iot_link/os/liteos/utils\rbtree.c **** 
 1050              		.loc 2 363 1 is_stmt 0 view .LVU286
 1051 000e 2046     		mov	r0, r4
 1052 0010 F8BD     		pop	{r3, r4, r5, r6, r7, pc}
 1053              	.LVL78:
 1054              	.L74:
 1055              	.LBB454:
 1056              	.LBB451:
 1057              	.LBB449:
 412:C:/Users/²Ü¼ÒºÀ/.iotlink/sdk/IoT_LINK/iot_link/os/liteos/base/include\__binary_tree.h **** }
 1058              		.loc 1 412 5 is_stmt 1 view .LVU287
 1059 0012 AB68     		ldr	r3, [r5, #8]
 1060 0014 3946     		mov	r1, r7
 1061 0016 2046     		mov	r0, r4
 1062 0018 9847     		blx	r3
 1063              	.LVL79:
 412:C:/Users/²Ü¼ÒºÀ/.iotlink/sdk/IoT_LINK/iot_link/os/liteos/base/include\__binary_tree.h **** }
 1064              		.loc 1 412 5 view .LVU288
 1065 001a 0028     		cmp	r0, #0
 1066 001c F7D0     		beq	.L70
 412:C:/Users/²Ü¼ÒºÀ/.iotlink/sdk/IoT_LINK/iot_link/os/liteos/base/include\__binary_tree.h **** }
 1067              		.loc 1 412 5 view .LVU289
ARM GAS  C:\Users\²Ü¼ÒºÀ\AppData\Local\Temp\ccwaEIDi.s 			page 43


 1068 001e D4E90123 		ldrd	r2, r3, [r4, #4]
 412:C:/Users/²Ü¼ÒºÀ/.iotlink/sdk/IoT_LINK/iot_link/os/liteos/base/include\__binary_tree.h **** }
 1069              		.loc 1 412 5 is_stmt 0 view .LVU290
 1070 0022 C4BF     		itt	gt
 1071 0024 3446     		movgt	r4, r6
 1072              	.LVL80:
 412:C:/Users/²Ü¼ÒºÀ/.iotlink/sdk/IoT_LINK/iot_link/os/liteos/base/include\__binary_tree.h **** }
 1073              		.loc 1 412 5 view .LVU291
 1074 0026 1346     		movgt	r3, r2
 1075              	.LVL81:
 412:C:/Users/²Ü¼ÒºÀ/.iotlink/sdk/IoT_LINK/iot_link/os/liteos/base/include\__binary_tree.h **** }
 1076              		.loc 1 412 5 view .LVU292
 1077 0028 2646     		mov	r6, r4
 1078 002a 1C46     		mov	r4, r3
 1079 002c EDE7     		b	.L71
 1080              	.LBE449:
 1081              	.LBE451:
 1082              	.LBE454:
 1083              		.cfi_endproc
 1084              	.LFE46:
 1086              		.section	.text.rb_find_lt,"ax",%progbits
 1087              		.align	1
 1088              		.global	rb_find_lt
 1089              		.syntax unified
 1090              		.thumb
 1091              		.thumb_func
 1092              		.fpu fpv4-sp-d16
 1094              	rb_find_lt:
 1095              	.LVL82:
 1096              	.LFB47:
 374:C:/Users/²Ü¼ÒºÀ/.iotlink/sdk/IoT_LINK/iot_link/os/liteos/utils\rbtree.c ****     return container_of (__bit_find_lt (&t->bit, k), rb_node_t, bin);
 1097              		.loc 2 374 1 is_stmt 1 view -0
 1098              		.cfi_startproc
 1099              		@ args = 0, pretend = 0, frame = 0
 1100              		@ frame_needed = 0, uses_anonymous_args = 0
 375:C:/Users/²Ü¼ÒºÀ/.iotlink/sdk/IoT_LINK/iot_link/os/liteos/utils\rbtree.c **** }
 1101              		.loc 2 375 5 view .LVU294
 374:C:/Users/²Ü¼ÒºÀ/.iotlink/sdk/IoT_LINK/iot_link/os/liteos/utils\rbtree.c ****     return container_of (__bit_find_lt (&t->bit, k), rb_node_t, bin);
 1102              		.loc 2 374 1 is_stmt 0 view .LVU295
 1103 0000 F8B5     		push	{r3, r4, r5, r6, r7, lr}
 1104              	.LCFI9:
 1105              		.cfi_def_cfa_offset 24
 1106              		.cfi_offset 3, -24
 1107              		.cfi_offset 4, -20
 1108              		.cfi_offset 5, -16
 1109              		.cfi_offset 6, -12
 1110              		.cfi_offset 7, -8
 1111              		.cfi_offset 14, -4
 1112              	.LBB459:
 1113              	.LBB460:
 306:C:/Users/²Ü¼ÒºÀ/.iotlink/sdk/IoT_LINK/iot_link/os/liteos/base/include\__binary_tree.h **** }
 1114              		.loc 1 306 5 view .LVU296
 1115 0002 0468     		ldr	r4, [r0]
 1116              	.LBE460:
 1117              	.LBE459:
 374:C:/Users/²Ü¼ÒºÀ/.iotlink/sdk/IoT_LINK/iot_link/os/liteos/utils\rbtree.c ****     return container_of (__bit_find_lt (&t->bit, k), rb_node_t, bin);
 1118              		.loc 2 374 1 view .LVU297
ARM GAS  C:\Users\²Ü¼ÒºÀ\AppData\Local\Temp\ccwaEIDi.s 			page 44


 1119 0004 0546     		mov	r5, r0
 1120 0006 0F46     		mov	r7, r1
 1121              	.LVL83:
 1122              	.LBB464:
 1123              	.LBI459:
 304:C:/Users/²Ü¼ÒºÀ/.iotlink/sdk/IoT_LINK/iot_link/os/liteos/base/include\__binary_tree.h **** {
 1124              		.loc 1 304 27 is_stmt 1 view .LVU298
 1125              	.LBE464:
 306:C:/Users/²Ü¼ÒºÀ/.iotlink/sdk/IoT_LINK/iot_link/os/liteos/base/include\__binary_tree.h **** }
 1126              		.loc 1 306 5 view .LVU299
 1127              	.LBB465:
 1128              	.LBB462:
 306:C:/Users/²Ü¼ÒºÀ/.iotlink/sdk/IoT_LINK/iot_link/os/liteos/base/include\__binary_tree.h **** }
 1129              		.loc 1 306 5 view .LVU300
 306:C:/Users/²Ü¼ÒºÀ/.iotlink/sdk/IoT_LINK/iot_link/os/liteos/base/include\__binary_tree.h **** }
 1130              		.loc 1 306 5 view .LVU301
 306:C:/Users/²Ü¼ÒºÀ/.iotlink/sdk/IoT_LINK/iot_link/os/liteos/base/include\__binary_tree.h **** }
 1131              		.loc 1 306 5 view .LVU302
 1132 0008 0026     		movs	r6, #0
 1133              	.LVL84:
 1134              	.L79:
 306:C:/Users/²Ü¼ÒºÀ/.iotlink/sdk/IoT_LINK/iot_link/os/liteos/base/include\__binary_tree.h **** }
 1135              		.loc 1 306 5 view .LVU303
 1136 000a 0CB9     		cbnz	r4, .L81
 306:C:/Users/²Ü¼ÒºÀ/.iotlink/sdk/IoT_LINK/iot_link/os/liteos/base/include\__binary_tree.h **** }
 1137              		.loc 1 306 5 view .LVU304
 1138              	.LBE462:
 1139              	.LBE465:
 306:C:/Users/²Ü¼ÒºÀ/.iotlink/sdk/IoT_LINK/iot_link/os/liteos/base/include\__binary_tree.h **** }
 1140              		.loc 1 306 5 view .LVU305
 1141              	.LVL85:
 376:C:/Users/²Ü¼ÒºÀ/.iotlink/sdk/IoT_LINK/iot_link/os/liteos/utils\rbtree.c **** 
 1142              		.loc 2 376 1 is_stmt 0 view .LVU306
 1143 000c 3046     		mov	r0, r6
 1144 000e F8BD     		pop	{r3, r4, r5, r6, r7, pc}
 1145              	.LVL86:
 1146              	.L81:
 1147              	.LBB466:
 1148              	.LBB463:
 1149              	.LBB461:
 306:C:/Users/²Ü¼ÒºÀ/.iotlink/sdk/IoT_LINK/iot_link/os/liteos/base/include\__binary_tree.h **** }
 1150              		.loc 1 306 5 is_stmt 1 view .LVU307
 1151 0010 2046     		mov	r0, r4
 1152 0012 AB68     		ldr	r3, [r5, #8]
 1153 0014 3946     		mov	r1, r7
 1154 0016 9847     		blx	r3
 1155              	.LVL87:
 306:C:/Users/²Ü¼ÒºÀ/.iotlink/sdk/IoT_LINK/iot_link/os/liteos/base/include\__binary_tree.h **** }
 1156              		.loc 1 306 5 view .LVU308
 306:C:/Users/²Ü¼ÒºÀ/.iotlink/sdk/IoT_LINK/iot_link/os/liteos/base/include\__binary_tree.h **** }
 1157              		.loc 1 306 5 is_stmt 0 view .LVU309
 1158 0018 D4E90132 		ldrd	r3, r2, [r4, #4]
 1159 001c 0028     		cmp	r0, #0
 1160 001e B6BF     		itet	lt
 1161 0020 2646     		movlt	r6, r4
 1162 0022 1C46     		movge	r4, r3
 1163              	.LVL88:
ARM GAS  C:\Users\²Ü¼ÒºÀ\AppData\Local\Temp\ccwaEIDi.s 			page 45


 306:C:/Users/²Ü¼ÒºÀ/.iotlink/sdk/IoT_LINK/iot_link/os/liteos/base/include\__binary_tree.h **** }
 1164              		.loc 1 306 5 view .LVU310
 1165 0024 1446     		movlt	r4, r2
 1166 0026 F0E7     		b	.L79
 1167              	.LBE461:
 1168              	.LBE463:
 1169              	.LBE466:
 1170              		.cfi_endproc
 1171              	.LFE47:
 1173              		.section	.text.rb_first,"ax",%progbits
 1174              		.align	1
 1175              		.global	rb_first
 1176              		.syntax unified
 1177              		.thumb
 1178              		.thumb_func
 1179              		.fpu fpv4-sp-d16
 1181              	rb_first:
 1182              	.LVL89:
 1183              	.LFB48:
 386:C:/Users/²Ü¼ÒºÀ/.iotlink/sdk/IoT_LINK/iot_link/os/liteos/utils\rbtree.c ****     return container_of (__bit_first (&t->bit), rb_node_t, bin);
 1184              		.loc 2 386 1 is_stmt 1 view -0
 1185              		.cfi_startproc
 1186              		@ args = 0, pretend = 0, frame = 0
 1187              		@ frame_needed = 0, uses_anonymous_args = 0
 1188              		@ link register save eliminated.
 387:C:/Users/²Ü¼ÒºÀ/.iotlink/sdk/IoT_LINK/iot_link/os/liteos/utils\rbtree.c **** }
 1189              		.loc 2 387 5 view .LVU312
 387:C:/Users/²Ü¼ÒºÀ/.iotlink/sdk/IoT_LINK/iot_link/os/liteos/utils\rbtree.c **** }
 1190              		.loc 2 387 12 is_stmt 0 view .LVU313
 1191 0000 0068     		ldr	r0, [r0]
 1192              	.LVL90:
 1193              	.LBB469:
 1194              	.LBI469:
 316:C:/Users/²Ü¼ÒºÀ/.iotlink/sdk/IoT_LINK/iot_link/os/liteos/base/include\__binary_tree.h **** {
 1195              		.loc 1 316 27 is_stmt 1 view .LVU314
 1196              	.LBB470:
 318:C:/Users/²Ü¼ÒºÀ/.iotlink/sdk/IoT_LINK/iot_link/os/liteos/base/include\__binary_tree.h **** 
 1197              		.loc 1 318 5 view .LVU315
 320:C:/Users/²Ü¼ÒºÀ/.iotlink/sdk/IoT_LINK/iot_link/os/liteos/base/include\__binary_tree.h ****     {
 1198              		.loc 1 320 5 view .LVU316
 320:C:/Users/²Ü¼ÒºÀ/.iotlink/sdk/IoT_LINK/iot_link/os/liteos/base/include\__binary_tree.h ****     {
 1199              		.loc 1 320 8 is_stmt 0 view .LVU317
 1200 0002 20B1     		cbz	r0, .L82
 1201              	.LVL91:
 1202              	.L84:
 322:C:/Users/²Ü¼ÒºÀ/.iotlink/sdk/IoT_LINK/iot_link/os/liteos/base/include\__binary_tree.h ****         {
 1203              		.loc 1 322 15 is_stmt 1 view .LVU318
 1204 0004 0346     		mov	r3, r0
 322:C:/Users/²Ü¼ÒºÀ/.iotlink/sdk/IoT_LINK/iot_link/os/liteos/base/include\__binary_tree.h ****         {
 1205              		.loc 1 322 17 is_stmt 0 view .LVU319
 1206 0006 4068     		ldr	r0, [r0, #4]
 1207              	.LVL92:
 322:C:/Users/²Ü¼ÒºÀ/.iotlink/sdk/IoT_LINK/iot_link/os/liteos/base/include\__binary_tree.h ****         {
 1208              		.loc 1 322 15 view .LVU320
 1209 0008 0028     		cmp	r0, #0
 1210 000a FBD1     		bne	.L84
 1211 000c 1846     		mov	r0, r3
ARM GAS  C:\Users\²Ü¼ÒºÀ\AppData\Local\Temp\ccwaEIDi.s 			page 46


 328:C:/Users/²Ü¼ÒºÀ/.iotlink/sdk/IoT_LINK/iot_link/os/liteos/base/include\__binary_tree.h **** }
 1212              		.loc 1 328 5 is_stmt 1 view .LVU321
 1213              	.LVL93:
 1214              	.L82:
 328:C:/Users/²Ü¼ÒºÀ/.iotlink/sdk/IoT_LINK/iot_link/os/liteos/base/include\__binary_tree.h **** }
 1215              		.loc 1 328 5 is_stmt 0 view .LVU322
 1216              	.LBE470:
 1217              	.LBE469:
 388:C:/Users/²Ü¼ÒºÀ/.iotlink/sdk/IoT_LINK/iot_link/os/liteos/utils\rbtree.c **** 
 1218              		.loc 2 388 1 view .LVU323
 1219 000e 7047     		bx	lr
 1220              		.cfi_endproc
 1221              	.LFE48:
 1223              		.section	.text.rb_last,"ax",%progbits
 1224              		.align	1
 1225              		.global	rb_last
 1226              		.syntax unified
 1227              		.thumb
 1228              		.thumb_func
 1229              		.fpu fpv4-sp-d16
 1231              	rb_last:
 1232              	.LVL94:
 1233              	.LFB49:
 398:C:/Users/²Ü¼ÒºÀ/.iotlink/sdk/IoT_LINK/iot_link/os/liteos/utils\rbtree.c ****     return container_of (__bit_last (&t->bit), rb_node_t, bin);
 1234              		.loc 2 398 1 is_stmt 1 view -0
 1235              		.cfi_startproc
 1236              		@ args = 0, pretend = 0, frame = 0
 1237              		@ frame_needed = 0, uses_anonymous_args = 0
 1238              		@ link register save eliminated.
 399:C:/Users/²Ü¼ÒºÀ/.iotlink/sdk/IoT_LINK/iot_link/os/liteos/utils\rbtree.c **** }
 1239              		.loc 2 399 5 view .LVU325
 399:C:/Users/²Ü¼ÒºÀ/.iotlink/sdk/IoT_LINK/iot_link/os/liteos/utils\rbtree.c **** }
 1240              		.loc 2 399 12 is_stmt 0 view .LVU326
 1241 0000 0068     		ldr	r0, [r0]
 1242              	.LVL95:
 1243              	.LBB473:
 1244              	.LBI473:
 338:C:/Users/²Ü¼ÒºÀ/.iotlink/sdk/IoT_LINK/iot_link/os/liteos/base/include\__binary_tree.h **** {
 1245              		.loc 1 338 27 is_stmt 1 view .LVU327
 1246              	.LBB474:
 340:C:/Users/²Ü¼ÒºÀ/.iotlink/sdk/IoT_LINK/iot_link/os/liteos/base/include\__binary_tree.h **** 
 1247              		.loc 1 340 5 view .LVU328
 342:C:/Users/²Ü¼ÒºÀ/.iotlink/sdk/IoT_LINK/iot_link/os/liteos/base/include\__binary_tree.h ****     {
 1248              		.loc 1 342 5 view .LVU329
 342:C:/Users/²Ü¼ÒºÀ/.iotlink/sdk/IoT_LINK/iot_link/os/liteos/base/include\__binary_tree.h ****     {
 1249              		.loc 1 342 8 is_stmt 0 view .LVU330
 1250 0002 20B1     		cbz	r0, .L89
 1251              	.LVL96:
 1252              	.L91:
 344:C:/Users/²Ü¼ÒºÀ/.iotlink/sdk/IoT_LINK/iot_link/os/liteos/base/include\__binary_tree.h ****         {
 1253              		.loc 1 344 15 is_stmt 1 view .LVU331
 1254 0004 0346     		mov	r3, r0
 344:C:/Users/²Ü¼ÒºÀ/.iotlink/sdk/IoT_LINK/iot_link/os/liteos/base/include\__binary_tree.h ****         {
 1255              		.loc 1 344 17 is_stmt 0 view .LVU332
 1256 0006 8068     		ldr	r0, [r0, #8]
 1257              	.LVL97:
 344:C:/Users/²Ü¼ÒºÀ/.iotlink/sdk/IoT_LINK/iot_link/os/liteos/base/include\__binary_tree.h ****         {
ARM GAS  C:\Users\²Ü¼ÒºÀ\AppData\Local\Temp\ccwaEIDi.s 			page 47


 1258              		.loc 1 344 15 view .LVU333
 1259 0008 0028     		cmp	r0, #0
 1260 000a FBD1     		bne	.L91
 1261 000c 1846     		mov	r0, r3
 350:C:/Users/²Ü¼ÒºÀ/.iotlink/sdk/IoT_LINK/iot_link/os/liteos/base/include\__binary_tree.h **** }
 1262              		.loc 1 350 5 is_stmt 1 view .LVU334
 1263              	.LVL98:
 1264              	.L89:
 350:C:/Users/²Ü¼ÒºÀ/.iotlink/sdk/IoT_LINK/iot_link/os/liteos/base/include\__binary_tree.h **** }
 1265              		.loc 1 350 5 is_stmt 0 view .LVU335
 1266              	.LBE474:
 1267              	.LBE473:
 400:C:/Users/²Ü¼ÒºÀ/.iotlink/sdk/IoT_LINK/iot_link/os/liteos/utils\rbtree.c **** 
 1268              		.loc 2 400 1 view .LVU336
 1269 000e 7047     		bx	lr
 1270              		.cfi_endproc
 1271              	.LFE49:
 1273              		.section	.text.rb_next,"ax",%progbits
 1274              		.align	1
 1275              		.global	rb_next
 1276              		.syntax unified
 1277              		.thumb
 1278              		.thumb_func
 1279              		.fpu fpv4-sp-d16
 1281              	rb_next:
 1282              	.LVL99:
 1283              	.LFB50:
 410:C:/Users/²Ü¼ÒºÀ/.iotlink/sdk/IoT_LINK/iot_link/os/liteos/utils\rbtree.c ****     return __successor (n);
 1284              		.loc 2 410 1 is_stmt 1 view -0
 1285              		.cfi_startproc
 1286              		@ args = 0, pretend = 0, frame = 0
 1287              		@ frame_needed = 0, uses_anonymous_args = 0
 1288              		@ link register save eliminated.
 411:C:/Users/²Ü¼ÒºÀ/.iotlink/sdk/IoT_LINK/iot_link/os/liteos/utils\rbtree.c **** }
 1289              		.loc 2 411 5 view .LVU338
 1290              	.LBB475:
 1291              	.LBI475:
 296:C:/Users/²Ü¼ÒºÀ/.iotlink/sdk/IoT_LINK/iot_link/os/liteos/utils\rbtree.c **** {
 1292              		.loc 2 296 27 view .LVU339
 1293              	.LBB476:
 298:C:/Users/²Ü¼ÒºÀ/.iotlink/sdk/IoT_LINK/iot_link/os/liteos/utils\rbtree.c **** }
 1294              		.loc 2 298 5 view .LVU340
 298:C:/Users/²Ü¼ÒºÀ/.iotlink/sdk/IoT_LINK/iot_link/os/liteos/utils\rbtree.c **** }
 1295              		.loc 2 298 12 is_stmt 0 view .LVU341
 1296 0000 FFF7FEBF 		b	__bit_successor
 1297              	.LVL100:
 298:C:/Users/²Ü¼ÒºÀ/.iotlink/sdk/IoT_LINK/iot_link/os/liteos/utils\rbtree.c **** }
 1298              		.loc 2 298 12 view .LVU342
 1299              	.LBE476:
 1300              	.LBE475:
 1301              		.cfi_endproc
 1302              	.LFE50:
 1304              		.section	.text.rb_prev,"ax",%progbits
 1305              		.align	1
 1306              		.global	rb_prev
 1307              		.syntax unified
 1308              		.thumb
ARM GAS  C:\Users\²Ü¼ÒºÀ\AppData\Local\Temp\ccwaEIDi.s 			page 48


 1309              		.thumb_func
 1310              		.fpu fpv4-sp-d16
 1312              	rb_prev:
 1313              	.LVL101:
 1314              	.LFB51:
 422:C:/Users/²Ü¼ÒºÀ/.iotlink/sdk/IoT_LINK/iot_link/os/liteos/utils\rbtree.c ****     return __predecessor (n);
 1315              		.loc 2 422 1 is_stmt 1 view -0
 1316              		.cfi_startproc
 1317              		@ args = 0, pretend = 0, frame = 0
 1318              		@ frame_needed = 0, uses_anonymous_args = 0
 1319              		@ link register save eliminated.
 423:C:/Users/²Ü¼ÒºÀ/.iotlink/sdk/IoT_LINK/iot_link/os/liteos/utils\rbtree.c **** }
 1320              		.loc 2 423 5 view .LVU344
 1321              	.LBB481:
 1322              	.LBI481:
 308:C:/Users/²Ü¼ÒºÀ/.iotlink/sdk/IoT_LINK/iot_link/os/liteos/utils\rbtree.c **** {
 1323              		.loc 2 308 27 view .LVU345
 1324              	.LBB482:
 310:C:/Users/²Ü¼ÒºÀ/.iotlink/sdk/IoT_LINK/iot_link/os/liteos/utils\rbtree.c **** }
 1325              		.loc 2 310 5 view .LVU346
 1326              	.LBB483:
 1327              	.LBI483:
 205:C:/Users/²Ü¼ÒºÀ/.iotlink/sdk/IoT_LINK/iot_link/os/liteos/base/include\__binary_tree.h **** {
 1328              		.loc 1 205 27 view .LVU347
 1329              	.LBB484:
 207:C:/Users/²Ü¼ÒºÀ/.iotlink/sdk/IoT_LINK/iot_link/os/liteos/base/include\__binary_tree.h **** 
 1330              		.loc 1 207 5 view .LVU348
 207:C:/Users/²Ü¼ÒºÀ/.iotlink/sdk/IoT_LINK/iot_link/os/liteos/base/include\__binary_tree.h **** 
 1331              		.loc 1 207 17 is_stmt 0 view .LVU349
 1332 0000 4368     		ldr	r3, [r0, #4]
 1333              	.LVL102:
 209:C:/Users/²Ü¼ÒºÀ/.iotlink/sdk/IoT_LINK/iot_link/os/liteos/base/include\__binary_tree.h ****     {
 1334              		.loc 1 209 5 is_stmt 1 view .LVU350
 209:C:/Users/²Ü¼ÒºÀ/.iotlink/sdk/IoT_LINK/iot_link/os/liteos/base/include\__binary_tree.h ****     {
 1335              		.loc 1 209 8 is_stmt 0 view .LVU351
 1336 0002 23B1     		cbz	r3, .L101
 1337              	.LVL103:
 1338              	.L99:
 211:C:/Users/²Ü¼ÒºÀ/.iotlink/sdk/IoT_LINK/iot_link/os/liteos/base/include\__binary_tree.h ****         {
 1339              		.loc 1 211 15 is_stmt 1 view .LVU352
 1340 0004 1846     		mov	r0, r3
 211:C:/Users/²Ü¼ÒºÀ/.iotlink/sdk/IoT_LINK/iot_link/os/liteos/base/include\__binary_tree.h ****         {
 1341              		.loc 1 211 17 is_stmt 0 view .LVU353
 1342 0006 9B68     		ldr	r3, [r3, #8]
 1343              	.LVL104:
 211:C:/Users/²Ü¼ÒºÀ/.iotlink/sdk/IoT_LINK/iot_link/os/liteos/base/include\__binary_tree.h ****         {
 1344              		.loc 1 211 15 view .LVU354
 1345 0008 002B     		cmp	r3, #0
 1346 000a FBD1     		bne	.L99
 1347 000c 7047     		bx	lr
 1348              	.LVL105:
 1349              	.L101:
 219:C:/Users/²Ü¼ÒºÀ/.iotlink/sdk/IoT_LINK/iot_link/os/liteos/base/include\__binary_tree.h ****     {
 1350              		.loc 1 219 11 is_stmt 1 view .LVU355
 1351 000e 0246     		mov	r2, r0
 219:C:/Users/²Ü¼ÒºÀ/.iotlink/sdk/IoT_LINK/iot_link/os/liteos/base/include\__binary_tree.h ****     {
 1352              		.loc 1 219 13 is_stmt 0 view .LVU356
ARM GAS  C:\Users\²Ü¼ÒºÀ\AppData\Local\Temp\ccwaEIDi.s 			page 49


 1353 0010 0068     		ldr	r0, [r0]
 1354              	.LVL106:
 219:C:/Users/²Ü¼ÒºÀ/.iotlink/sdk/IoT_LINK/iot_link/os/liteos/base/include\__binary_tree.h ****     {
 1355              		.loc 1 219 11 view .LVU357
 1356 0012 10B1     		cbz	r0, .L97
 219:C:/Users/²Ü¼ÒºÀ/.iotlink/sdk/IoT_LINK/iot_link/os/liteos/base/include\__binary_tree.h ****     {
 1357              		.loc 1 219 17 view .LVU358
 1358 0014 4368     		ldr	r3, [r0, #4]
 1359 0016 9A42     		cmp	r2, r3
 1360 0018 F9D0     		beq	.L101
 1361              	.L97:
 1362              	.LBE484:
 1363              	.LBE483:
 1364              	.LBE482:
 1365              	.LBE481:
 424:C:/Users/²Ü¼ÒºÀ/.iotlink/sdk/IoT_LINK/iot_link/os/liteos/utils\rbtree.c **** 
 1366              		.loc 2 424 1 view .LVU359
 1367 001a 7047     		bx	lr
 1368              		.cfi_endproc
 1369              	.LFE51:
 1371              		.section	.text.rb_replace,"ax",%progbits
 1372              		.align	1
 1373              		.global	rb_replace
 1374              		.syntax unified
 1375              		.thumb
 1376              		.thumb_func
 1377              		.fpu fpv4-sp-d16
 1379              	rb_replace:
 1380              	.LVL107:
 1381              	.LFB52:
 436:C:/Users/²Ü¼ÒºÀ/.iotlink/sdk/IoT_LINK/iot_link/os/liteos/utils\rbtree.c ****     rb_node_t * p, * l, * r;
 1382              		.loc 2 436 1 is_stmt 1 view -0
 1383              		.cfi_startproc
 1384              		@ args = 0, pretend = 0, frame = 0
 1385              		@ frame_needed = 0, uses_anonymous_args = 0
 436:C:/Users/²Ü¼ÒºÀ/.iotlink/sdk/IoT_LINK/iot_link/os/liteos/utils\rbtree.c ****     rb_node_t * p, * l, * r;
 1386              		.loc 2 436 1 is_stmt 0 view .LVU361
 1387 0000 70B5     		push	{r4, r5, r6, lr}
 1388              	.LCFI10:
 1389              		.cfi_def_cfa_offset 16
 1390              		.cfi_offset 4, -16
 1391              		.cfi_offset 5, -12
 1392              		.cfi_offset 6, -8
 1393              		.cfi_offset 14, -4
 436:C:/Users/²Ü¼ÒºÀ/.iotlink/sdk/IoT_LINK/iot_link/os/liteos/utils\rbtree.c ****     rb_node_t * p, * l, * r;
 1394              		.loc 2 436 1 view .LVU362
 1395 0002 1446     		mov	r4, r2
 1396 0004 0646     		mov	r6, r0
 1397 0006 0D46     		mov	r5, r1
 437:C:/Users/²Ü¼ÒºÀ/.iotlink/sdk/IoT_LINK/iot_link/os/liteos/utils\rbtree.c **** 
 1398              		.loc 2 437 5 is_stmt 1 view .LVU363
 439:C:/Users/²Ü¼ÒºÀ/.iotlink/sdk/IoT_LINK/iot_link/os/liteos/utils\rbtree.c **** 
 1399              		.loc 2 439 5 view .LVU364
 439:C:/Users/²Ü¼ÒºÀ/.iotlink/sdk/IoT_LINK/iot_link/os/liteos/utils\rbtree.c **** 
 1400              		.loc 2 439 8 is_stmt 0 view .LVU365
 1401 0008 0FC9     		ldm	r1, {r0, r1, r2, r3}
 1402              	.LVL108:
ARM GAS  C:\Users\²Ü¼ÒºÀ\AppData\Local\Temp\ccwaEIDi.s 			page 50


 439:C:/Users/²Ü¼ÒºÀ/.iotlink/sdk/IoT_LINK/iot_link/os/liteos/utils\rbtree.c **** 
 1403              		.loc 2 439 8 view .LVU366
 1404 000a 84E80F00 		stm	r4, {r0, r1, r2, r3}
 441:C:/Users/²Ü¼ÒºÀ/.iotlink/sdk/IoT_LINK/iot_link/os/liteos/utils\rbtree.c ****     l = __left (n);
 1405              		.loc 2 441 5 is_stmt 1 view .LVU367
 1406              	.LVL109:
 149:C:/Users/²Ü¼ÒºÀ/.iotlink/sdk/IoT_LINK/iot_link/os/liteos/utils\rbtree.c **** }
 1407              		.loc 2 149 5 view .LVU368
 442:C:/Users/²Ü¼ÒºÀ/.iotlink/sdk/IoT_LINK/iot_link/os/liteos/utils\rbtree.c ****     r = __right (n);
 1408              		.loc 2 442 5 view .LVU369
 161:C:/Users/²Ü¼ÒºÀ/.iotlink/sdk/IoT_LINK/iot_link/os/liteos/utils\rbtree.c **** }
 1409              		.loc 2 161 5 view .LVU370
 443:C:/Users/²Ü¼ÒºÀ/.iotlink/sdk/IoT_LINK/iot_link/os/liteos/utils\rbtree.c **** 
 1410              		.loc 2 443 5 view .LVU371
 172:C:/Users/²Ü¼ÒºÀ/.iotlink/sdk/IoT_LINK/iot_link/os/liteos/utils\rbtree.c **** }
 1411              		.loc 2 172 5 view .LVU372
 445:C:/Users/²Ü¼ÒºÀ/.iotlink/sdk/IoT_LINK/iot_link/os/liteos/utils\rbtree.c ****     {
 1412              		.loc 2 445 5 view .LVU373
 445:C:/Users/²Ü¼ÒºÀ/.iotlink/sdk/IoT_LINK/iot_link/os/liteos/utils\rbtree.c ****     {
 1413              		.loc 2 445 8 is_stmt 0 view .LVU374
 1414 000e 01B1     		cbz	r1, .L108
 447:C:/Users/²Ü¼ÒºÀ/.iotlink/sdk/IoT_LINK/iot_link/os/liteos/utils\rbtree.c ****     }
 1415              		.loc 2 447 9 is_stmt 1 view .LVU375
 1416              	.LVL110:
 1417              	.LBB485:
 1418              	.LBI485:
 195:C:/Users/²Ü¼ÒºÀ/.iotlink/sdk/IoT_LINK/iot_link/os/liteos/utils\rbtree.c **** {
 1419              		.loc 2 195 20 view .LVU376
 1420              	.LBB486:
 197:C:/Users/²Ü¼ÒºÀ/.iotlink/sdk/IoT_LINK/iot_link/os/liteos/utils\rbtree.c **** }
 1421              		.loc 2 197 5 view .LVU377
 197:C:/Users/²Ü¼ÒºÀ/.iotlink/sdk/IoT_LINK/iot_link/os/liteos/utils\rbtree.c **** }
 1422              		.loc 2 197 14 is_stmt 0 view .LVU378
 1423 0010 0C60     		str	r4, [r1]
 1424              	.LVL111:
 1425              	.L108:
 197:C:/Users/²Ü¼ÒºÀ/.iotlink/sdk/IoT_LINK/iot_link/os/liteos/utils\rbtree.c **** }
 1426              		.loc 2 197 14 view .LVU379
 1427              	.LBE486:
 1428              	.LBE485:
 450:C:/Users/²Ü¼ÒºÀ/.iotlink/sdk/IoT_LINK/iot_link/os/liteos/utils\rbtree.c ****     {
 1429              		.loc 2 450 5 is_stmt 1 view .LVU380
 450:C:/Users/²Ü¼ÒºÀ/.iotlink/sdk/IoT_LINK/iot_link/os/liteos/utils\rbtree.c ****     {
 1430              		.loc 2 450 8 is_stmt 0 view .LVU381
 1431 0012 02B1     		cbz	r2, .L109
 452:C:/Users/²Ü¼ÒºÀ/.iotlink/sdk/IoT_LINK/iot_link/os/liteos/utils\rbtree.c ****     }
 1432              		.loc 2 452 9 is_stmt 1 view .LVU382
 1433              	.LVL112:
 1434              	.LBB487:
 1435              	.LBI487:
 195:C:/Users/²Ü¼ÒºÀ/.iotlink/sdk/IoT_LINK/iot_link/os/liteos/utils\rbtree.c **** {
 1436              		.loc 2 195 20 view .LVU383
 1437              	.LBB488:
 197:C:/Users/²Ü¼ÒºÀ/.iotlink/sdk/IoT_LINK/iot_link/os/liteos/utils\rbtree.c **** }
 1438              		.loc 2 197 5 view .LVU384
 197:C:/Users/²Ü¼ÒºÀ/.iotlink/sdk/IoT_LINK/iot_link/os/liteos/utils\rbtree.c **** }
 1439              		.loc 2 197 14 is_stmt 0 view .LVU385
ARM GAS  C:\Users\²Ü¼ÒºÀ\AppData\Local\Temp\ccwaEIDi.s 			page 51


 1440 0014 1460     		str	r4, [r2]
 1441              	.LVL113:
 1442              	.L109:
 197:C:/Users/²Ü¼ÒºÀ/.iotlink/sdk/IoT_LINK/iot_link/os/liteos/utils\rbtree.c **** }
 1443              		.loc 2 197 14 view .LVU386
 1444              	.LBE488:
 1445              	.LBE487:
 455:C:/Users/²Ü¼ÒºÀ/.iotlink/sdk/IoT_LINK/iot_link/os/liteos/utils\rbtree.c ****     {
 1446              		.loc 2 455 5 is_stmt 1 view .LVU387
 455:C:/Users/²Ü¼ÒºÀ/.iotlink/sdk/IoT_LINK/iot_link/os/liteos/utils\rbtree.c ****     {
 1447              		.loc 2 455 8 is_stmt 0 view .LVU388
 1448 0016 08B9     		cbnz	r0, .L110
 457:C:/Users/²Ü¼ÒºÀ/.iotlink/sdk/IoT_LINK/iot_link/os/liteos/utils\rbtree.c ****         return;
 1449              		.loc 2 457 9 is_stmt 1 view .LVU389
 457:C:/Users/²Ü¼ÒºÀ/.iotlink/sdk/IoT_LINK/iot_link/os/liteos/utils\rbtree.c ****         return;
 1450              		.loc 2 457 18 is_stmt 0 view .LVU390
 1451 0018 3460     		str	r4, [r6]
 458:C:/Users/²Ü¼ÒºÀ/.iotlink/sdk/IoT_LINK/iot_link/os/liteos/utils\rbtree.c ****     }
 1452              		.loc 2 458 9 is_stmt 1 view .LVU391
 1453              	.LVL114:
 1454              	.L107:
 469:C:/Users/²Ü¼ÒºÀ/.iotlink/sdk/IoT_LINK/iot_link/os/liteos/utils\rbtree.c **** 
 1455              		.loc 2 469 1 is_stmt 0 view .LVU392
 1456 001a 70BD     		pop	{r4, r5, r6, pc}
 1457              	.LVL115:
 1458              	.L110:
 461:C:/Users/²Ü¼ÒºÀ/.iotlink/sdk/IoT_LINK/iot_link/os/liteos/utils\rbtree.c ****     {
 1459              		.loc 2 461 5 is_stmt 1 view .LVU393
 161:C:/Users/²Ü¼ÒºÀ/.iotlink/sdk/IoT_LINK/iot_link/os/liteos/utils\rbtree.c **** }
 1460              		.loc 2 161 5 view .LVU394
 461:C:/Users/²Ü¼ÒºÀ/.iotlink/sdk/IoT_LINK/iot_link/os/liteos/utils\rbtree.c ****     {
 1461              		.loc 2 461 8 is_stmt 0 view .LVU395
 1462 001c 4368     		ldr	r3, [r0, #4]
 1463 001e 9D42     		cmp	r5, r3
 463:C:/Users/²Ü¼ÒºÀ/.iotlink/sdk/IoT_LINK/iot_link/os/liteos/utils\rbtree.c ****     }
 1464              		.loc 2 463 9 is_stmt 1 view .LVU396
 1465              	.LVL116:
 1466              	.LBB489:
 1467              	.LBI489:
 208:C:/Users/²Ü¼ÒºÀ/.iotlink/sdk/IoT_LINK/iot_link/os/liteos/utils\rbtree.c **** {
 1468              		.loc 2 208 20 view .LVU397
 1469              	.LBB490:
 210:C:/Users/²Ü¼ÒºÀ/.iotlink/sdk/IoT_LINK/iot_link/os/liteos/utils\rbtree.c **** }
 1470              		.loc 2 210 5 view .LVU398
 210:C:/Users/²Ü¼ÒºÀ/.iotlink/sdk/IoT_LINK/iot_link/os/liteos/utils\rbtree.c **** }
 1471              		.loc 2 210 14 is_stmt 0 view .LVU399
 1472 0020 0CBF     		ite	eq
 1473 0022 4460     		streq	r4, [r0, #4]
 1474              	.LBE490:
 1475              	.LBE489:
 467:C:/Users/²Ü¼ÒºÀ/.iotlink/sdk/IoT_LINK/iot_link/os/liteos/utils\rbtree.c ****     }
 1476              		.loc 2 467 9 is_stmt 1 view .LVU400
 1477              	.LVL117:
 1478              	.LBB491:
 1479              	.LBI491:
 221:C:/Users/²Ü¼ÒºÀ/.iotlink/sdk/IoT_LINK/iot_link/os/liteos/utils\rbtree.c **** {
 1480              		.loc 2 221 20 view .LVU401
ARM GAS  C:\Users\²Ü¼ÒºÀ\AppData\Local\Temp\ccwaEIDi.s 			page 52


 1481              	.LBB492:
 223:C:/Users/²Ü¼ÒºÀ/.iotlink/sdk/IoT_LINK/iot_link/os/liteos/utils\rbtree.c **** }
 1482              		.loc 2 223 5 view .LVU402
 223:C:/Users/²Ü¼ÒºÀ/.iotlink/sdk/IoT_LINK/iot_link/os/liteos/utils\rbtree.c **** }
 1483              		.loc 2 223 14 is_stmt 0 view .LVU403
 1484 0024 8460     		strne	r4, [r0, #8]
 1485              	.LVL118:
 224:C:/Users/²Ü¼ÒºÀ/.iotlink/sdk/IoT_LINK/iot_link/os/liteos/utils\rbtree.c **** 
 1486              		.loc 2 224 1 view .LVU404
 1487 0026 F8E7     		b	.L107
 1488              	.LBE492:
 1489              	.LBE491:
 1490              		.cfi_endproc
 1491              	.LFE52:
 1493              		.section	.text.rb_insert,"ax",%progbits
 1494              		.align	1
 1495              		.global	rb_insert
 1496              		.syntax unified
 1497              		.thumb
 1498              		.thumb_func
 1499              		.fpu fpv4-sp-d16
 1501              	rb_insert:
 1502              	.LVL119:
 1503              	.LFB54:
 556:C:/Users/²Ü¼ÒºÀ/.iotlink/sdk/IoT_LINK/iot_link/os/liteos/utils\rbtree.c **** 
 557:C:/Users/²Ü¼ÒºÀ/.iotlink/sdk/IoT_LINK/iot_link/os/liteos/utils\rbtree.c **** /**
 558:C:/Users/²Ü¼ÒºÀ/.iotlink/sdk/IoT_LINK/iot_link/os/liteos/utils\rbtree.c ****  * rb_insert - insert a new node into a tree
 559:C:/Users/²Ü¼ÒºÀ/.iotlink/sdk/IoT_LINK/iot_link/os/liteos/utils\rbtree.c ****  * @t: the given tree
 560:C:/Users/²Ü¼ÒºÀ/.iotlink/sdk/IoT_LINK/iot_link/os/liteos/utils\rbtree.c ****  * @n: the new inserted node
 561:C:/Users/²Ü¼ÒºÀ/.iotlink/sdk/IoT_LINK/iot_link/os/liteos/utils\rbtree.c ****  *
 562:C:/Users/²Ü¼ÒºÀ/.iotlink/sdk/IoT_LINK/iot_link/os/liteos/utils\rbtree.c ****  * return: 0 insert done, -1 insert fail (for double insertion)
 563:C:/Users/²Ü¼ÒºÀ/.iotlink/sdk/IoT_LINK/iot_link/os/liteos/utils\rbtree.c ****  */
 564:C:/Users/²Ü¼ÒºÀ/.iotlink/sdk/IoT_LINK/iot_link/os/liteos/utils\rbtree.c **** 
 565:C:/Users/²Ü¼ÒºÀ/.iotlink/sdk/IoT_LINK/iot_link/os/liteos/utils\rbtree.c **** int rb_insert (rb_tree_t * t, rb_node_t * n)
 566:C:/Users/²Ü¼ÒºÀ/.iotlink/sdk/IoT_LINK/iot_link/os/liteos/utils\rbtree.c **** {
 1504              		.loc 2 566 1 is_stmt 1 view -0
 1505              		.cfi_startproc
 1506              		@ args = 0, pretend = 0, frame = 0
 1507              		@ frame_needed = 0, uses_anonymous_args = 0
 567:C:/Users/²Ü¼ÒºÀ/.iotlink/sdk/IoT_LINK/iot_link/os/liteos/utils\rbtree.c ****     __set_red (n);
 1508              		.loc 2 567 5 view .LVU406
 1509              	.LBB499:
 1510              	.LBI499:
 123:C:/Users/²Ü¼ÒºÀ/.iotlink/sdk/IoT_LINK/iot_link/os/liteos/utils\rbtree.c **** {
 1511              		.loc 2 123 20 view .LVU407
 1512              	.LBE499:
 125:C:/Users/²Ü¼ÒºÀ/.iotlink/sdk/IoT_LINK/iot_link/os/liteos/utils\rbtree.c **** }
 1513              		.loc 2 125 5 view .LVU408
 1514              	.LBB506:
 1515              	.LBB500:
 1516              	.LBI500:
 111:C:/Users/²Ü¼ÒºÀ/.iotlink/sdk/IoT_LINK/iot_link/os/liteos/utils\rbtree.c **** {
 1517              		.loc 2 111 20 view .LVU409
 1518              	.LBB501:
 113:C:/Users/²Ü¼ÒºÀ/.iotlink/sdk/IoT_LINK/iot_link/os/liteos/utils\rbtree.c **** }
 1519              		.loc 2 113 5 view .LVU410
 1520              	.LBE501:
ARM GAS  C:\Users\²Ü¼ÒºÀ\AppData\Local\Temp\ccwaEIDi.s 			page 53


 1521              	.LBE500:
 1522              	.LBE506:
 566:C:/Users/²Ü¼ÒºÀ/.iotlink/sdk/IoT_LINK/iot_link/os/liteos/utils\rbtree.c ****     __set_red (n);
 1523              		.loc 2 566 1 is_stmt 0 view .LVU411
 1524 0000 70B5     		push	{r4, r5, r6, lr}
 1525              	.LCFI11:
 1526              		.cfi_def_cfa_offset 16
 1527              		.cfi_offset 4, -16
 1528              		.cfi_offset 5, -12
 1529              		.cfi_offset 6, -8
 1530              		.cfi_offset 14, -4
 1531              	.LBB507:
 1532              	.LBB508:
 564:C:/Users/²Ü¼ÒºÀ/.iotlink/sdk/IoT_LINK/iot_link/os/liteos/base/include\__binary_tree.h **** 
 565:C:/Users/²Ü¼ÒºÀ/.iotlink/sdk/IoT_LINK/iot_link/os/liteos/base/include\__binary_tree.h **** /**
 566:C:/Users/²Ü¼ÒºÀ/.iotlink/sdk/IoT_LINK/iot_link/os/liteos/base/include\__binary_tree.h ****  * __bit_insert - insert a new node into a tree
 567:C:/Users/²Ü¼ÒºÀ/.iotlink/sdk/IoT_LINK/iot_link/os/liteos/base/include\__binary_tree.h ****  * @t: the given tree
 568:C:/Users/²Ü¼ÒºÀ/.iotlink/sdk/IoT_LINK/iot_link/os/liteos/base/include\__binary_tree.h ****  * @n: the new inserted node
 569:C:/Users/²Ü¼ÒºÀ/.iotlink/sdk/IoT_LINK/iot_link/os/liteos/base/include\__binary_tree.h ****  *
 570:C:/Users/²Ü¼ÒºÀ/.iotlink/sdk/IoT_LINK/iot_link/os/liteos/base/include\__binary_tree.h ****  * return: 0 insert done, -1 insert fail
 571:C:/Users/²Ü¼ÒºÀ/.iotlink/sdk/IoT_LINK/iot_link/os/liteos/base/include\__binary_tree.h ****  */
 572:C:/Users/²Ü¼ÒºÀ/.iotlink/sdk/IoT_LINK/iot_link/os/liteos/base/include\__binary_tree.h **** 
 573:C:/Users/²Ü¼ÒºÀ/.iotlink/sdk/IoT_LINK/iot_link/os/liteos/base/include\__binary_tree.h **** static inline int __bit_insert (bi_tree_t * t, bi_node_t * n)
 574:C:/Users/²Ü¼ÒºÀ/.iotlink/sdk/IoT_LINK/iot_link/os/liteos/base/include\__binary_tree.h **** {
 575:C:/Users/²Ü¼ÒºÀ/.iotlink/sdk/IoT_LINK/iot_link/os/liteos/base/include\__binary_tree.h ****     bi_node_t * p = t->r;
 1533              		.loc 1 575 17 view .LVU412
 1534 0002 0568     		ldr	r5, [r0]
 1535              	.LBE508:
 1536              	.LBE507:
 1537              	.LBB514:
 1538              	.LBB504:
 1539              	.LBB502:
 113:C:/Users/²Ü¼ÒºÀ/.iotlink/sdk/IoT_LINK/iot_link/os/liteos/utils\rbtree.c **** }
 1540              		.loc 2 113 10 view .LVU413
 1541 0004 0023     		movs	r3, #0
 1542              	.LBE502:
 1543              	.LBE504:
 1544              	.LBE514:
 1545              	.LBB515:
 1546              	.LBB511:
 576:C:/Users/²Ü¼ÒºÀ/.iotlink/sdk/IoT_LINK/iot_link/os/liteos/base/include\__binary_tree.h **** 
 577:C:/Users/²Ü¼ÒºÀ/.iotlink/sdk/IoT_LINK/iot_link/os/liteos/base/include\__binary_tree.h ****     n->r = n->l = NULL;
 1547              		.loc 1 577 10 view .LVU414
 1548 0006 C1E90133 		strd	r3, r3, [r1, #4]
 1549              	.LBE511:
 1550              	.LBE515:
 566:C:/Users/²Ü¼ÒºÀ/.iotlink/sdk/IoT_LINK/iot_link/os/liteos/utils\rbtree.c ****     __set_red (n);
 1551              		.loc 2 566 1 view .LVU415
 1552 000a 0646     		mov	r6, r0
 1553 000c 0C46     		mov	r4, r1
 1554              	.LBB516:
 1555              	.LBB505:
 1556              	.LBB503:
 113:C:/Users/²Ü¼ÒºÀ/.iotlink/sdk/IoT_LINK/iot_link/os/liteos/utils\rbtree.c **** }
 1557              		.loc 2 113 10 view .LVU416
 1558 000e CB60     		str	r3, [r1, #12]
 1559              	.LVL120:
ARM GAS  C:\Users\²Ü¼ÒºÀ\AppData\Local\Temp\ccwaEIDi.s 			page 54


 113:C:/Users/²Ü¼ÒºÀ/.iotlink/sdk/IoT_LINK/iot_link/os/liteos/utils\rbtree.c **** }
 1560              		.loc 2 113 10 view .LVU417
 1561              	.LBE503:
 1562              	.LBE505:
 1563              	.LBE516:
 568:C:/Users/²Ü¼ÒºÀ/.iotlink/sdk/IoT_LINK/iot_link/os/liteos/utils\rbtree.c **** 
 569:C:/Users/²Ü¼ÒºÀ/.iotlink/sdk/IoT_LINK/iot_link/os/liteos/utils\rbtree.c ****     if (__bit_insert (&t->bit, &n->bin) < 0)
 1564              		.loc 2 569 5 is_stmt 1 view .LVU418
 1565              	.LBB517:
 1566              	.LBI507:
 573:C:/Users/²Ü¼ÒºÀ/.iotlink/sdk/IoT_LINK/iot_link/os/liteos/base/include\__binary_tree.h **** {
 1567              		.loc 1 573 19 view .LVU419
 1568              	.LBB512:
 575:C:/Users/²Ü¼ÒºÀ/.iotlink/sdk/IoT_LINK/iot_link/os/liteos/base/include\__binary_tree.h **** 
 1569              		.loc 1 575 5 view .LVU420
 1570              		.loc 1 577 5 view .LVU421
 578:C:/Users/²Ü¼ÒºÀ/.iotlink/sdk/IoT_LINK/iot_link/os/liteos/base/include\__binary_tree.h **** 
 579:C:/Users/²Ü¼ÒºÀ/.iotlink/sdk/IoT_LINK/iot_link/os/liteos/base/include\__binary_tree.h ****     if (p == NULL)
 1571              		.loc 1 579 5 view .LVU422
 1572              		.loc 1 579 8 is_stmt 0 view .LVU423
 1573 0010 5DB9     		cbnz	r5, .L120
 580:C:/Users/²Ü¼ÒºÀ/.iotlink/sdk/IoT_LINK/iot_link/os/liteos/base/include\__binary_tree.h ****     {
 581:C:/Users/²Ü¼ÒºÀ/.iotlink/sdk/IoT_LINK/iot_link/os/liteos/base/include\__binary_tree.h ****         n->p = (bi_node_t *) NULL;
 1574              		.loc 1 581 9 is_stmt 1 view .LVU424
 1575              		.loc 1 581 14 is_stmt 0 view .LVU425
 1576 0012 0D60     		str	r5, [r1]
 582:C:/Users/²Ü¼ÒºÀ/.iotlink/sdk/IoT_LINK/iot_link/os/liteos/base/include\__binary_tree.h ****         t->r = n;
 1577              		.loc 1 582 9 is_stmt 1 view .LVU426
 1578              		.loc 1 582 14 is_stmt 0 view .LVU427
 1579 0014 0160     		str	r1, [r0]
 583:C:/Users/²Ü¼ÒºÀ/.iotlink/sdk/IoT_LINK/iot_link/os/liteos/base/include\__binary_tree.h **** 
 584:C:/Users/²Ü¼ÒºÀ/.iotlink/sdk/IoT_LINK/iot_link/os/liteos/base/include\__binary_tree.h ****         return 0;
 1580              		.loc 1 584 9 is_stmt 1 view .LVU428
 1581              	.LVL121:
 1582              	.L121:
 1583              		.loc 1 584 9 is_stmt 0 view .LVU429
 1584              	.LBE512:
 1585              	.LBE517:
 570:C:/Users/²Ü¼ÒºÀ/.iotlink/sdk/IoT_LINK/iot_link/os/liteos/utils\rbtree.c ****     {
 571:C:/Users/²Ü¼ÒºÀ/.iotlink/sdk/IoT_LINK/iot_link/os/liteos/utils\rbtree.c ****         return -1;
 572:C:/Users/²Ü¼ÒºÀ/.iotlink/sdk/IoT_LINK/iot_link/os/liteos/utils\rbtree.c ****     }
 573:C:/Users/²Ü¼ÒºÀ/.iotlink/sdk/IoT_LINK/iot_link/os/liteos/utils\rbtree.c **** 
 574:C:/Users/²Ü¼ÒºÀ/.iotlink/sdk/IoT_LINK/iot_link/os/liteos/utils\rbtree.c **** #ifdef RBTREE_DEBUG
 575:C:/Users/²Ü¼ÒºÀ/.iotlink/sdk/IoT_LINK/iot_link/os/liteos/utils\rbtree.c ****     t->nodes++;
 1586              		.loc 2 575 5 is_stmt 1 view .LVU430
 1587              		.loc 2 575 13 is_stmt 0 view .LVU431
 1588 0016 F368     		ldr	r3, [r6, #12]
 1589 0018 0133     		adds	r3, r3, #1
 576:C:/Users/²Ü¼ÒºÀ/.iotlink/sdk/IoT_LINK/iot_link/os/liteos/utils\rbtree.c **** #endif
 577:C:/Users/²Ü¼ÒºÀ/.iotlink/sdk/IoT_LINK/iot_link/os/liteos/utils\rbtree.c **** 
 578:C:/Users/²Ü¼ÒºÀ/.iotlink/sdk/IoT_LINK/iot_link/os/liteos/utils\rbtree.c ****     __rb_insadj (t, n);
 1590              		.loc 2 578 5 view .LVU432
 1591 001a 3046     		mov	r0, r6
 575:C:/Users/²Ü¼ÒºÀ/.iotlink/sdk/IoT_LINK/iot_link/os/liteos/utils\rbtree.c **** #endif
 1592              		.loc 2 575 13 view .LVU433
 1593 001c F360     		str	r3, [r6, #12]
 1594              		.loc 2 578 5 is_stmt 1 view .LVU434
ARM GAS  C:\Users\²Ü¼ÒºÀ\AppData\Local\Temp\ccwaEIDi.s 			page 55


 1595 001e 2146     		mov	r1, r4
 1596 0020 FFF7FEFF 		bl	__rb_insadj
 1597              	.LVL122:
 579:C:/Users/²Ü¼ÒºÀ/.iotlink/sdk/IoT_LINK/iot_link/os/liteos/utils\rbtree.c **** 
 580:C:/Users/²Ü¼ÒºÀ/.iotlink/sdk/IoT_LINK/iot_link/os/liteos/utils\rbtree.c ****     return 0;
 1598              		.loc 2 580 5 view .LVU435
 1599              		.loc 2 580 12 is_stmt 0 view .LVU436
 1600 0024 0020     		movs	r0, #0
 1601              	.L119:
 581:C:/Users/²Ü¼ÒºÀ/.iotlink/sdk/IoT_LINK/iot_link/os/liteos/utils\rbtree.c **** }
 1602              		.loc 2 581 1 view .LVU437
 1603 0026 70BD     		pop	{r4, r5, r6, pc}
 1604              	.LVL123:
 1605              	.L124:
 566:C:/Users/²Ü¼ÒºÀ/.iotlink/sdk/IoT_LINK/iot_link/os/liteos/utils\rbtree.c ****     __set_red (n);
 1606              		.loc 2 566 1 view .LVU438
 1607 0028 1D46     		mov	r5, r3
 1608              	.LVL124:
 1609              	.L120:
 1610              	.LBB518:
 1611              	.LBB513:
 585:C:/Users/²Ü¼ÒºÀ/.iotlink/sdk/IoT_LINK/iot_link/os/liteos/base/include\__binary_tree.h ****     }
 586:C:/Users/²Ü¼ÒºÀ/.iotlink/sdk/IoT_LINK/iot_link/os/liteos/base/include\__binary_tree.h **** 
 587:C:/Users/²Ü¼ÒºÀ/.iotlink/sdk/IoT_LINK/iot_link/os/liteos/base/include\__binary_tree.h ****     while (1)
 1612              		.loc 1 587 5 is_stmt 1 view .LVU439
 1613              	.LBB509:
 588:C:/Users/²Ü¼ÒºÀ/.iotlink/sdk/IoT_LINK/iot_link/os/liteos/base/include\__binary_tree.h ****     {
 589:C:/Users/²Ü¼ÒºÀ/.iotlink/sdk/IoT_LINK/iot_link/os/liteos/base/include\__binary_tree.h ****         int c = t->compare_nn (n, p);
 1614              		.loc 1 589 9 view .LVU440
 1615              		.loc 1 589 17 is_stmt 0 view .LVU441
 1616 002a 7368     		ldr	r3, [r6, #4]
 1617 002c 2946     		mov	r1, r5
 1618 002e 2046     		mov	r0, r4
 1619 0030 9847     		blx	r3
 1620              	.LVL125:
 590:C:/Users/²Ü¼ÒºÀ/.iotlink/sdk/IoT_LINK/iot_link/os/liteos/base/include\__binary_tree.h **** 
 591:C:/Users/²Ü¼ÒºÀ/.iotlink/sdk/IoT_LINK/iot_link/os/liteos/base/include\__binary_tree.h ****         if (c == 0)
 1621              		.loc 1 591 9 is_stmt 1 view .LVU442
 1622              		.loc 1 591 12 is_stmt 0 view .LVU443
 1623 0032 0028     		cmp	r0, #0
 1624 0034 0BD0     		beq	.L126
 592:C:/Users/²Ü¼ÒºÀ/.iotlink/sdk/IoT_LINK/iot_link/os/liteos/base/include\__binary_tree.h ****         {
 593:C:/Users/²Ü¼ÒºÀ/.iotlink/sdk/IoT_LINK/iot_link/os/liteos/base/include\__binary_tree.h ****             return -1;
 594:C:/Users/²Ü¼ÒºÀ/.iotlink/sdk/IoT_LINK/iot_link/os/liteos/base/include\__binary_tree.h ****         }
 595:C:/Users/²Ü¼ÒºÀ/.iotlink/sdk/IoT_LINK/iot_link/os/liteos/base/include\__binary_tree.h **** 
 596:C:/Users/²Ü¼ÒºÀ/.iotlink/sdk/IoT_LINK/iot_link/os/liteos/base/include\__binary_tree.h ****         if (c > 0)
 1625              		.loc 1 596 9 is_stmt 1 view .LVU444
 1626              		.loc 1 596 12 is_stmt 0 view .LVU445
 1627 0036 05DD     		ble	.L123
 597:C:/Users/²Ü¼ÒºÀ/.iotlink/sdk/IoT_LINK/iot_link/os/liteos/base/include\__binary_tree.h ****         {
 598:C:/Users/²Ü¼ÒºÀ/.iotlink/sdk/IoT_LINK/iot_link/os/liteos/base/include\__binary_tree.h ****             if (p->r == NULL)
 1628              		.loc 1 598 13 is_stmt 1 view .LVU446
 1629              		.loc 1 598 18 is_stmt 0 view .LVU447
 1630 0038 AB68     		ldr	r3, [r5, #8]
 1631              		.loc 1 598 16 view .LVU448
 1632 003a 002B     		cmp	r3, #0
 1633 003c F4D1     		bne	.L124
ARM GAS  C:\Users\²Ü¼ÒºÀ\AppData\Local\Temp\ccwaEIDi.s 			page 56


 599:C:/Users/²Ü¼ÒºÀ/.iotlink/sdk/IoT_LINK/iot_link/os/liteos/base/include\__binary_tree.h ****             {
 600:C:/Users/²Ü¼ÒºÀ/.iotlink/sdk/IoT_LINK/iot_link/os/liteos/base/include\__binary_tree.h ****                 p->r = n;
 1634              		.loc 1 600 17 is_stmt 1 view .LVU449
 1635              		.loc 1 600 22 is_stmt 0 view .LVU450
 1636 003e AC60     		str	r4, [r5, #8]
 601:C:/Users/²Ü¼ÒºÀ/.iotlink/sdk/IoT_LINK/iot_link/os/liteos/base/include\__binary_tree.h ****                 break;
 1637              		.loc 1 601 17 is_stmt 1 view .LVU451
 1638              	.L125:
 1639              	.LBE509:
 602:C:/Users/²Ü¼ÒºÀ/.iotlink/sdk/IoT_LINK/iot_link/os/liteos/base/include\__binary_tree.h ****             }
 603:C:/Users/²Ü¼ÒºÀ/.iotlink/sdk/IoT_LINK/iot_link/os/liteos/base/include\__binary_tree.h **** 
 604:C:/Users/²Ü¼ÒºÀ/.iotlink/sdk/IoT_LINK/iot_link/os/liteos/base/include\__binary_tree.h ****             p = p->r;
 605:C:/Users/²Ü¼ÒºÀ/.iotlink/sdk/IoT_LINK/iot_link/os/liteos/base/include\__binary_tree.h ****         }
 606:C:/Users/²Ü¼ÒºÀ/.iotlink/sdk/IoT_LINK/iot_link/os/liteos/base/include\__binary_tree.h ****         else
 607:C:/Users/²Ü¼ÒºÀ/.iotlink/sdk/IoT_LINK/iot_link/os/liteos/base/include\__binary_tree.h ****         {
 608:C:/Users/²Ü¼ÒºÀ/.iotlink/sdk/IoT_LINK/iot_link/os/liteos/base/include\__binary_tree.h ****             if (p->l == NULL)
 609:C:/Users/²Ü¼ÒºÀ/.iotlink/sdk/IoT_LINK/iot_link/os/liteos/base/include\__binary_tree.h ****             {
 610:C:/Users/²Ü¼ÒºÀ/.iotlink/sdk/IoT_LINK/iot_link/os/liteos/base/include\__binary_tree.h ****                 p->l = n;
 611:C:/Users/²Ü¼ÒºÀ/.iotlink/sdk/IoT_LINK/iot_link/os/liteos/base/include\__binary_tree.h ****                 break;
 612:C:/Users/²Ü¼ÒºÀ/.iotlink/sdk/IoT_LINK/iot_link/os/liteos/base/include\__binary_tree.h ****             }
 613:C:/Users/²Ü¼ÒºÀ/.iotlink/sdk/IoT_LINK/iot_link/os/liteos/base/include\__binary_tree.h **** 
 614:C:/Users/²Ü¼ÒºÀ/.iotlink/sdk/IoT_LINK/iot_link/os/liteos/base/include\__binary_tree.h ****             p = p->l;
 615:C:/Users/²Ü¼ÒºÀ/.iotlink/sdk/IoT_LINK/iot_link/os/liteos/base/include\__binary_tree.h ****         }
 616:C:/Users/²Ü¼ÒºÀ/.iotlink/sdk/IoT_LINK/iot_link/os/liteos/base/include\__binary_tree.h ****     }
 617:C:/Users/²Ü¼ÒºÀ/.iotlink/sdk/IoT_LINK/iot_link/os/liteos/base/include\__binary_tree.h **** 
 618:C:/Users/²Ü¼ÒºÀ/.iotlink/sdk/IoT_LINK/iot_link/os/liteos/base/include\__binary_tree.h ****     n->p = p;
 1640              		.loc 1 618 5 view .LVU452
 1641              		.loc 1 618 10 is_stmt 0 view .LVU453
 1642 0040 2560     		str	r5, [r4]
 619:C:/Users/²Ü¼ÒºÀ/.iotlink/sdk/IoT_LINK/iot_link/os/liteos/base/include\__binary_tree.h **** 
 620:C:/Users/²Ü¼ÒºÀ/.iotlink/sdk/IoT_LINK/iot_link/os/liteos/base/include\__binary_tree.h ****     return 0;
 1643              		.loc 1 620 5 is_stmt 1 view .LVU454
 1644              	.LVL126:
 1645              		.loc 1 620 5 is_stmt 0 view .LVU455
 1646 0042 E8E7     		b	.L121
 1647              	.LVL127:
 1648              	.L123:
 1649              	.LBB510:
 608:C:/Users/²Ü¼ÒºÀ/.iotlink/sdk/IoT_LINK/iot_link/os/liteos/base/include\__binary_tree.h ****             {
 1650              		.loc 1 608 13 is_stmt 1 view .LVU456
 608:C:/Users/²Ü¼ÒºÀ/.iotlink/sdk/IoT_LINK/iot_link/os/liteos/base/include\__binary_tree.h ****             {
 1651              		.loc 1 608 18 is_stmt 0 view .LVU457
 1652 0044 6B68     		ldr	r3, [r5, #4]
 608:C:/Users/²Ü¼ÒºÀ/.iotlink/sdk/IoT_LINK/iot_link/os/liteos/base/include\__binary_tree.h ****             {
 1653              		.loc 1 608 16 view .LVU458
 1654 0046 002B     		cmp	r3, #0
 1655 0048 EED1     		bne	.L124
 610:C:/Users/²Ü¼ÒºÀ/.iotlink/sdk/IoT_LINK/iot_link/os/liteos/base/include\__binary_tree.h ****                 break;
 1656              		.loc 1 610 17 is_stmt 1 view .LVU459
 610:C:/Users/²Ü¼ÒºÀ/.iotlink/sdk/IoT_LINK/iot_link/os/liteos/base/include\__binary_tree.h ****                 break;
 1657              		.loc 1 610 22 is_stmt 0 view .LVU460
 1658 004a 6C60     		str	r4, [r5, #4]
 611:C:/Users/²Ü¼ÒºÀ/.iotlink/sdk/IoT_LINK/iot_link/os/liteos/base/include\__binary_tree.h ****             }
 1659              		.loc 1 611 17 is_stmt 1 view .LVU461
 1660 004c F8E7     		b	.L125
 1661              	.L126:
 611:C:/Users/²Ü¼ÒºÀ/.iotlink/sdk/IoT_LINK/iot_link/os/liteos/base/include\__binary_tree.h ****             }
ARM GAS  C:\Users\²Ü¼ÒºÀ\AppData\Local\Temp\ccwaEIDi.s 			page 57


 1662              		.loc 1 611 17 is_stmt 0 view .LVU462
 1663              	.LBE510:
 1664              	.LBE513:
 1665              	.LBE518:
 571:C:/Users/²Ü¼ÒºÀ/.iotlink/sdk/IoT_LINK/iot_link/os/liteos/utils\rbtree.c ****     }
 1666              		.loc 2 571 16 view .LVU463
 1667 004e 4FF0FF30 		mov	r0, #-1
 1668              	.LVL128:
 571:C:/Users/²Ü¼ÒºÀ/.iotlink/sdk/IoT_LINK/iot_link/os/liteos/utils\rbtree.c ****     }
 1669              		.loc 2 571 16 view .LVU464
 1670 0052 E8E7     		b	.L119
 1671              		.cfi_endproc
 1672              	.LFE54:
 1674              		.section	.text.rb_node_get,"ax",%progbits
 1675              		.align	1
 1676              		.global	rb_node_get
 1677              		.syntax unified
 1678              		.thumb
 1679              		.thumb_func
 1680              		.fpu fpv4-sp-d16
 1682              	rb_node_get:
 1683              	.LVL129:
 1684              	.LFB55:
 582:C:/Users/²Ü¼ÒºÀ/.iotlink/sdk/IoT_LINK/iot_link/os/liteos/utils\rbtree.c **** 
 583:C:/Users/²Ü¼ÒºÀ/.iotlink/sdk/IoT_LINK/iot_link/os/liteos/utils\rbtree.c **** /**
 584:C:/Users/²Ü¼ÒºÀ/.iotlink/sdk/IoT_LINK/iot_link/os/liteos/utils\rbtree.c ****  * rb_node_get - find a existing node or create a new one for it
 585:C:/Users/²Ü¼ÒºÀ/.iotlink/sdk/IoT_LINK/iot_link/os/liteos/utils\rbtree.c ****  * @r:      the given tree root
 586:C:/Users/²Ü¼ÒºÀ/.iotlink/sdk/IoT_LINK/iot_link/os/liteos/utils\rbtree.c ****  * @k:      the key value
 587:C:/Users/²Ü¼ÒºÀ/.iotlink/sdk/IoT_LINK/iot_link/os/liteos/utils\rbtree.c ****  * @new:    pointer to a bool value, set to true if node not found and created a
 588:C:/Users/²Ü¼ÒºÀ/.iotlink/sdk/IoT_LINK/iot_link/os/liteos/utils\rbtree.c ****  *          new one
 589:C:/Users/²Ü¼ÒºÀ/.iotlink/sdk/IoT_LINK/iot_link/os/liteos/utils\rbtree.c ****  * @create: the node creating routine, <k> is the seconde argument
 590:C:/Users/²Ü¼ÒºÀ/.iotlink/sdk/IoT_LINK/iot_link/os/liteos/utils\rbtree.c ****  * @arg:    the first argument of the <create> routine
 591:C:/Users/²Ü¼ÒºÀ/.iotlink/sdk/IoT_LINK/iot_link/os/liteos/utils\rbtree.c ****  *
 592:C:/Users/²Ü¼ÒºÀ/.iotlink/sdk/IoT_LINK/iot_link/os/liteos/utils\rbtree.c ****  * return: the node with key = <k>, or NULL if node not found and allocate fail.
 593:C:/Users/²Ü¼ÒºÀ/.iotlink/sdk/IoT_LINK/iot_link/os/liteos/utils\rbtree.c ****  */
 594:C:/Users/²Ü¼ÒºÀ/.iotlink/sdk/IoT_LINK/iot_link/os/liteos/utils\rbtree.c **** 
 595:C:/Users/²Ü¼ÒºÀ/.iotlink/sdk/IoT_LINK/iot_link/os/liteos/utils\rbtree.c **** rb_node_t * rb_node_get (rb_tree_t * t, uintptr_t k,
 596:C:/Users/²Ü¼ÒºÀ/.iotlink/sdk/IoT_LINK/iot_link/os/liteos/utils\rbtree.c ****                          bi_node_t * (* create) (uintptr_t, uintptr_t),
 597:C:/Users/²Ü¼ÒºÀ/.iotlink/sdk/IoT_LINK/iot_link/os/liteos/utils\rbtree.c ****                          uintptr_t arg)
 598:C:/Users/²Ü¼ÒºÀ/.iotlink/sdk/IoT_LINK/iot_link/os/liteos/utils\rbtree.c **** {
 1685              		.loc 2 598 1 is_stmt 1 view -0
 1686              		.cfi_startproc
 1687              		@ args = 0, pretend = 0, frame = 0
 1688              		@ frame_needed = 0, uses_anonymous_args = 0
 599:C:/Users/²Ü¼ÒºÀ/.iotlink/sdk/IoT_LINK/iot_link/os/liteos/utils\rbtree.c ****     rb_node_t * n;
 1689              		.loc 2 599 5 view .LVU466
 600:C:/Users/²Ü¼ÒºÀ/.iotlink/sdk/IoT_LINK/iot_link/os/liteos/utils\rbtree.c ****     bool        new = false;
 1690              		.loc 2 600 5 view .LVU467
 601:C:/Users/²Ü¼ÒºÀ/.iotlink/sdk/IoT_LINK/iot_link/os/liteos/utils\rbtree.c **** 
 602:C:/Users/²Ü¼ÒºÀ/.iotlink/sdk/IoT_LINK/iot_link/os/liteos/utils\rbtree.c ****     n = container_of (__bit_node_get (&t->bit, k, &new, create, arg),
 1691              		.loc 2 602 5 view .LVU468
 598:C:/Users/²Ü¼ÒºÀ/.iotlink/sdk/IoT_LINK/iot_link/os/liteos/utils\rbtree.c ****     rb_node_t * n;
 1692              		.loc 2 598 1 is_stmt 0 view .LVU469
 1693 0000 2DE9F047 		push	{r4, r5, r6, r7, r8, r9, r10, lr}
 1694              	.LCFI12:
 1695              		.cfi_def_cfa_offset 32
 1696              		.cfi_offset 4, -32
ARM GAS  C:\Users\²Ü¼ÒºÀ\AppData\Local\Temp\ccwaEIDi.s 			page 58


 1697              		.cfi_offset 5, -28
 1698              		.cfi_offset 6, -24
 1699              		.cfi_offset 7, -20
 1700              		.cfi_offset 8, -16
 1701              		.cfi_offset 9, -12
 1702              		.cfi_offset 10, -8
 1703              		.cfi_offset 14, -4
 1704              	.LBB524:
 1705              	.LBB525:
 431:C:/Users/²Ü¼ÒºÀ/.iotlink/sdk/IoT_LINK/iot_link/os/liteos/base/include\__binary_tree.h ****     bi_node_t *  l;             /* last one */
 1706              		.loc 1 431 18 view .LVU470
 1707 0004 0568     		ldr	r5, [r0]
 1708              	.LBE525:
 1709              	.LBE524:
 598:C:/Users/²Ü¼ÒºÀ/.iotlink/sdk/IoT_LINK/iot_link/os/liteos/utils\rbtree.c ****     rb_node_t * n;
 1710              		.loc 2 598 1 view .LVU471
 1711 0006 0646     		mov	r6, r0
 1712 0008 0C46     		mov	r4, r1
 1713              	.LVL130:
 1714              	.LBB530:
 1715              	.LBI524:
 427:C:/Users/²Ü¼ÒºÀ/.iotlink/sdk/IoT_LINK/iot_link/os/liteos/base/include\__binary_tree.h ****                                           bi_node_t * (* create) (uintptr_t, uintptr_t),
 1716              		.loc 1 427 27 is_stmt 1 view .LVU472
 1717              	.LBB526:
 431:C:/Users/²Ü¼ÒºÀ/.iotlink/sdk/IoT_LINK/iot_link/os/liteos/base/include\__binary_tree.h ****     bi_node_t *  l;             /* last one */
 1718              		.loc 1 431 5 view .LVU473
 432:C:/Users/²Ü¼ÒºÀ/.iotlink/sdk/IoT_LINK/iot_link/os/liteos/base/include\__binary_tree.h ****     bi_node_t ** p;
 1719              		.loc 1 432 5 view .LVU474
 433:C:/Users/²Ü¼ÒºÀ/.iotlink/sdk/IoT_LINK/iot_link/os/liteos/base/include\__binary_tree.h ****     int          c;
 1720              		.loc 1 433 5 view .LVU475
 434:C:/Users/²Ü¼ÒºÀ/.iotlink/sdk/IoT_LINK/iot_link/os/liteos/base/include\__binary_tree.h **** 
 1721              		.loc 1 434 5 view .LVU476
 436:C:/Users/²Ü¼ÒºÀ/.iotlink/sdk/IoT_LINK/iot_link/os/liteos/base/include\__binary_tree.h ****     {
 1722              		.loc 1 436 5 view .LVU477
 1723              	.LBE526:
 1724              	.LBE530:
 598:C:/Users/²Ü¼ÒºÀ/.iotlink/sdk/IoT_LINK/iot_link/os/liteos/utils\rbtree.c ****     rb_node_t * n;
 1725              		.loc 2 598 1 is_stmt 0 view .LVU478
 1726 000a 9046     		mov	r8, r2
 1727 000c 9946     		mov	r9, r3
 1728              	.LBB531:
 1729              	.LBB527:
 436:C:/Users/²Ü¼ÒºÀ/.iotlink/sdk/IoT_LINK/iot_link/os/liteos/base/include\__binary_tree.h ****     {
 1730              		.loc 1 436 8 view .LVU479
 1731 000e A5B9     		cbnz	r5, .L129
 438:C:/Users/²Ü¼ÒºÀ/.iotlink/sdk/IoT_LINK/iot_link/os/liteos/base/include\__binary_tree.h **** 
 1732              		.loc 1 438 9 is_stmt 1 view .LVU480
 438:C:/Users/²Ü¼ÒºÀ/.iotlink/sdk/IoT_LINK/iot_link/os/liteos/base/include\__binary_tree.h **** 
 1733              		.loc 1 438 13 is_stmt 0 view .LVU481
 1734 0010 2046     		mov	r0, r4
 1735              	.LVL131:
 438:C:/Users/²Ü¼ÒºÀ/.iotlink/sdk/IoT_LINK/iot_link/os/liteos/base/include\__binary_tree.h **** 
 1736              		.loc 1 438 13 view .LVU482
 1737 0012 1946     		mov	r1, r3
 1738              	.LVL132:
 438:C:/Users/²Ü¼ÒºÀ/.iotlink/sdk/IoT_LINK/iot_link/os/liteos/base/include\__binary_tree.h **** 
 1739              		.loc 1 438 13 view .LVU483
ARM GAS  C:\Users\²Ü¼ÒºÀ\AppData\Local\Temp\ccwaEIDi.s 			page 59


 1740 0014 9047     		blx	r2
 1741              	.LVL133:
 440:C:/Users/²Ü¼ÒºÀ/.iotlink/sdk/IoT_LINK/iot_link/os/liteos/base/include\__binary_tree.h ****         t->r = w;
 1742              		.loc 1 440 21 view .LVU484
 1743 0016 C0E90155 		strd	r5, r5, [r0, #4]
 440:C:/Users/²Ü¼ÒºÀ/.iotlink/sdk/IoT_LINK/iot_link/os/liteos/base/include\__binary_tree.h ****         t->r = w;
 1744              		.loc 1 440 14 view .LVU485
 1745 001a 0560     		str	r5, [r0]
 438:C:/Users/²Ü¼ÒºÀ/.iotlink/sdk/IoT_LINK/iot_link/os/liteos/base/include\__binary_tree.h **** 
 1746              		.loc 1 438 13 view .LVU486
 1747 001c 0446     		mov	r4, r0
 1748              	.LVL134:
 440:C:/Users/²Ü¼ÒºÀ/.iotlink/sdk/IoT_LINK/iot_link/os/liteos/base/include\__binary_tree.h ****         t->r = w;
 1749              		.loc 1 440 9 is_stmt 1 view .LVU487
 441:C:/Users/²Ü¼ÒºÀ/.iotlink/sdk/IoT_LINK/iot_link/os/liteos/base/include\__binary_tree.h **** 
 1750              		.loc 1 441 9 view .LVU488
 441:C:/Users/²Ü¼ÒºÀ/.iotlink/sdk/IoT_LINK/iot_link/os/liteos/base/include\__binary_tree.h **** 
 1751              		.loc 1 441 14 is_stmt 0 view .LVU489
 1752 001e 3060     		str	r0, [r6]
 443:C:/Users/²Ü¼ÒºÀ/.iotlink/sdk/IoT_LINK/iot_link/os/liteos/base/include\__binary_tree.h **** 
 1753              		.loc 1 443 9 is_stmt 1 view .LVU490
 1754              	.LVL135:
 445:C:/Users/²Ü¼ÒºÀ/.iotlink/sdk/IoT_LINK/iot_link/os/liteos/base/include\__binary_tree.h ****     }
 1755              		.loc 1 445 9 view .LVU491
 445:C:/Users/²Ü¼ÒºÀ/.iotlink/sdk/IoT_LINK/iot_link/os/liteos/base/include\__binary_tree.h ****     }
 1756              		.loc 1 445 9 is_stmt 0 view .LVU492
 1757              	.LBE527:
 1758              	.LBE531:
 603:C:/Users/²Ü¼ÒºÀ/.iotlink/sdk/IoT_LINK/iot_link/os/liteos/utils\rbtree.c ****                       rb_node_t, bin);
 604:C:/Users/²Ü¼ÒºÀ/.iotlink/sdk/IoT_LINK/iot_link/os/liteos/utils\rbtree.c **** 
 605:C:/Users/²Ü¼ÒºÀ/.iotlink/sdk/IoT_LINK/iot_link/os/liteos/utils\rbtree.c ****     if (new)
 1759              		.loc 2 605 5 is_stmt 1 view .LVU493
 1760              	.L130:
 606:C:/Users/²Ü¼ÒºÀ/.iotlink/sdk/IoT_LINK/iot_link/os/liteos/utils\rbtree.c ****     {
 607:C:/Users/²Ü¼ÒºÀ/.iotlink/sdk/IoT_LINK/iot_link/os/liteos/utils\rbtree.c ****         __set_red (n);
 1761              		.loc 2 607 9 view .LVU494
 1762              	.LBB532:
 1763              	.LBI532:
 123:C:/Users/²Ü¼ÒºÀ/.iotlink/sdk/IoT_LINK/iot_link/os/liteos/utils\rbtree.c **** {
 1764              		.loc 2 123 20 view .LVU495
 1765              	.LBE532:
 125:C:/Users/²Ü¼ÒºÀ/.iotlink/sdk/IoT_LINK/iot_link/os/liteos/utils\rbtree.c **** }
 1766              		.loc 2 125 5 view .LVU496
 1767              	.LBB535:
 1768              	.LBB533:
 1769              	.LBI533:
 111:C:/Users/²Ü¼ÒºÀ/.iotlink/sdk/IoT_LINK/iot_link/os/liteos/utils\rbtree.c **** {
 1770              		.loc 2 111 20 view .LVU497
 1771              	.LBB534:
 113:C:/Users/²Ü¼ÒºÀ/.iotlink/sdk/IoT_LINK/iot_link/os/liteos/utils\rbtree.c **** }
 1772              		.loc 2 113 5 view .LVU498
 113:C:/Users/²Ü¼ÒºÀ/.iotlink/sdk/IoT_LINK/iot_link/os/liteos/utils\rbtree.c **** }
 1773              		.loc 2 113 10 is_stmt 0 view .LVU499
 1774 0020 0023     		movs	r3, #0
 1775 0022 E360     		str	r3, [r4, #12]
 1776              	.LVL136:
 113:C:/Users/²Ü¼ÒºÀ/.iotlink/sdk/IoT_LINK/iot_link/os/liteos/utils\rbtree.c **** }
ARM GAS  C:\Users\²Ü¼ÒºÀ\AppData\Local\Temp\ccwaEIDi.s 			page 60


 1777              		.loc 2 113 10 view .LVU500
 1778              	.LBE534:
 1779              	.LBE533:
 1780              	.LBE535:
 608:C:/Users/²Ü¼ÒºÀ/.iotlink/sdk/IoT_LINK/iot_link/os/liteos/utils\rbtree.c ****         __rb_insadj (t, n);
 1781              		.loc 2 608 9 is_stmt 1 view .LVU501
 1782 0024 2146     		mov	r1, r4
 1783 0026 3046     		mov	r0, r6
 1784              	.LVL137:
 1785              		.loc 2 608 9 is_stmt 0 view .LVU502
 1786 0028 FFF7FEFF 		bl	__rb_insadj
 1787              	.LVL138:
 609:C:/Users/²Ü¼ÒºÀ/.iotlink/sdk/IoT_LINK/iot_link/os/liteos/utils\rbtree.c **** 
 610:C:/Users/²Ü¼ÒºÀ/.iotlink/sdk/IoT_LINK/iot_link/os/liteos/utils\rbtree.c **** #ifdef RBTREE_DEBUG
 611:C:/Users/²Ü¼ÒºÀ/.iotlink/sdk/IoT_LINK/iot_link/os/liteos/utils\rbtree.c ****         t->nodes++;
 1788              		.loc 2 611 9 is_stmt 1 view .LVU503
 1789              		.loc 2 611 17 is_stmt 0 view .LVU504
 1790 002c F368     		ldr	r3, [r6, #12]
 1791 002e 0133     		adds	r3, r3, #1
 1792 0030 F360     		str	r3, [r6, #12]
 1793              	.LVL139:
 1794              	.L128:
 612:C:/Users/²Ü¼ÒºÀ/.iotlink/sdk/IoT_LINK/iot_link/os/liteos/utils\rbtree.c **** #endif
 613:C:/Users/²Ü¼ÒºÀ/.iotlink/sdk/IoT_LINK/iot_link/os/liteos/utils\rbtree.c ****     }
 614:C:/Users/²Ü¼ÒºÀ/.iotlink/sdk/IoT_LINK/iot_link/os/liteos/utils\rbtree.c **** 
 615:C:/Users/²Ü¼ÒºÀ/.iotlink/sdk/IoT_LINK/iot_link/os/liteos/utils\rbtree.c ****     return n;
 616:C:/Users/²Ü¼ÒºÀ/.iotlink/sdk/IoT_LINK/iot_link/os/liteos/utils\rbtree.c **** }
 1795              		.loc 2 616 1 view .LVU505
 1796 0032 2046     		mov	r0, r4
 1797 0034 BDE8F087 		pop	{r4, r5, r6, r7, r8, r9, r10, pc}
 1798              	.LVL140:
 1799              	.L135:
 1800              	.LBB536:
 1801              	.LBB528:
 1802              		.loc 2 616 1 view .LVU506
 1803 0038 3D46     		mov	r5, r7
 1804              	.LVL141:
 1805              	.L129:
 448:C:/Users/²Ü¼ÒºÀ/.iotlink/sdk/IoT_LINK/iot_link/os/liteos/base/include\__binary_tree.h ****     {
 1806              		.loc 1 448 5 is_stmt 1 view .LVU507
 450:C:/Users/²Ü¼ÒºÀ/.iotlink/sdk/IoT_LINK/iot_link/os/liteos/base/include\__binary_tree.h **** 
 1807              		.loc 1 450 9 view .LVU508
 450:C:/Users/²Ü¼ÒºÀ/.iotlink/sdk/IoT_LINK/iot_link/os/liteos/base/include\__binary_tree.h **** 
 1808              		.loc 1 450 13 is_stmt 0 view .LVU509
 1809 003a B368     		ldr	r3, [r6, #8]
 1810 003c 2146     		mov	r1, r4
 1811 003e 2846     		mov	r0, r5
 1812 0040 9847     		blx	r3
 1813              	.LVL142:
 452:C:/Users/²Ü¼ÒºÀ/.iotlink/sdk/IoT_LINK/iot_link/os/liteos/base/include\__binary_tree.h ****         {
 1814              		.loc 1 452 9 is_stmt 1 view .LVU510
