ARM GAS  C:\Users\²Ü¼ÒºÀ\AppData\Local\Temp\ccZGQjTi.s 			page 1


   1              		.cpu cortex-m4
   2              		.eabi_attribute 27, 1
   3              		.eabi_attribute 28, 1
   4              		.eabi_attribute 20, 1
   5              		.eabi_attribute 21, 1
   6              		.eabi_attribute 23, 3
   7              		.eabi_attribute 24, 1
   8              		.eabi_attribute 25, 1
   9              		.eabi_attribute 26, 1
  10              		.eabi_attribute 30, 4
  11              		.eabi_attribute 34, 1
  12              		.eabi_attribute 18, 4
  13              		.file	"los_memory.c"
  14              		.text
  15              	.Ltext0:
  16              		.cfi_sections	.debug_frame
  17              		.section	.text.LOS_MemInit,"ax",%progbits
  18              		.align	1
  19              		.global	LOS_MemInit
  20              		.arch armv7e-m
  21              		.syntax unified
  22              		.thumb
  23              		.thumb_func
  24              		.fpu fpv4-sp-d16
  26              	LOS_MemInit:
  27              	.LVL0:
  28              	.LFB314:
  29              		.file 1 "C:/Users/\262\334\274\322\272\300/.iotlink/sdk/IoT_LINK/iot_link/os/liteos/base/mem/heap/
   1:C:/Users/²Ü¼ÒºÀ/.iotlink/sdk/IoT_LINK/iot_link/os/liteos/base/mem/heap\los_memory.c **** /*----------------------------------------------------------------------------
   2:C:/Users/²Ü¼ÒºÀ/.iotlink/sdk/IoT_LINK/iot_link/os/liteos/base/mem/heap\los_memory.c ****  * Copyright (c) <2018>, <Huawei Technologies Co., Ltd>
   3:C:/Users/²Ü¼ÒºÀ/.iotlink/sdk/IoT_LINK/iot_link/os/liteos/base/mem/heap\los_memory.c ****  * All rights reserved.
   4:C:/Users/²Ü¼ÒºÀ/.iotlink/sdk/IoT_LINK/iot_link/os/liteos/base/mem/heap\los_memory.c ****  * Redistribution and use in source and binary forms, with or without modification,
   5:C:/Users/²Ü¼ÒºÀ/.iotlink/sdk/IoT_LINK/iot_link/os/liteos/base/mem/heap\los_memory.c ****  * are permitted provided that the following conditions are met:
   6:C:/Users/²Ü¼ÒºÀ/.iotlink/sdk/IoT_LINK/iot_link/os/liteos/base/mem/heap\los_memory.c ****  * 1. Redistributions of source code must retain the above copyright notice, this list of
   7:C:/Users/²Ü¼ÒºÀ/.iotlink/sdk/IoT_LINK/iot_link/os/liteos/base/mem/heap\los_memory.c ****  * conditions and the following disclaimer.
   8:C:/Users/²Ü¼ÒºÀ/.iotlink/sdk/IoT_LINK/iot_link/os/liteos/base/mem/heap\los_memory.c ****  * 2. Redistributions in binary form must reproduce the above copyright notice, this list
   9:C:/Users/²Ü¼ÒºÀ/.iotlink/sdk/IoT_LINK/iot_link/os/liteos/base/mem/heap\los_memory.c ****  * of conditions and the following disclaimer in the documentation and/or other materials
  10:C:/Users/²Ü¼ÒºÀ/.iotlink/sdk/IoT_LINK/iot_link/os/liteos/base/mem/heap\los_memory.c ****  * provided with the distribution.
  11:C:/Users/²Ü¼ÒºÀ/.iotlink/sdk/IoT_LINK/iot_link/os/liteos/base/mem/heap\los_memory.c ****  * 3. Neither the name of the copyright holder nor the names of its contributors may be used
  12:C:/Users/²Ü¼ÒºÀ/.iotlink/sdk/IoT_LINK/iot_link/os/liteos/base/mem/heap\los_memory.c ****  * to endorse or promote products derived from this software without specific prior written
  13:C:/Users/²Ü¼ÒºÀ/.iotlink/sdk/IoT_LINK/iot_link/os/liteos/base/mem/heap\los_memory.c ****  * permission.
  14:C:/Users/²Ü¼ÒºÀ/.iotlink/sdk/IoT_LINK/iot_link/os/liteos/base/mem/heap\los_memory.c ****  * THIS SOFTWARE IS PROVIDED BY THE COPYRIGHT HOLDERS AND CONTRIBUTORS
  15:C:/Users/²Ü¼ÒºÀ/.iotlink/sdk/IoT_LINK/iot_link/os/liteos/base/mem/heap\los_memory.c ****  * "AS IS" AND ANY EXPRESS OR IMPLIED WARRANTIES, INCLUDING, BUT NOT LIMITED TO,
  16:C:/Users/²Ü¼ÒºÀ/.iotlink/sdk/IoT_LINK/iot_link/os/liteos/base/mem/heap\los_memory.c ****  * THE IMPLIED WARRANTIES OF MERCHANTABILITY AND FITNESS FOR A PARTICULAR
  17:C:/Users/²Ü¼ÒºÀ/.iotlink/sdk/IoT_LINK/iot_link/os/liteos/base/mem/heap\los_memory.c ****  * PURPOSE ARE DISCLAIMED. IN NO EVENT SHALL THE COPYRIGHT HOLDER OR
  18:C:/Users/²Ü¼ÒºÀ/.iotlink/sdk/IoT_LINK/iot_link/os/liteos/base/mem/heap\los_memory.c ****  * CONTRIBUTORS BE LIABLE FOR ANY DIRECT, INDIRECT, INCIDENTAL, SPECIAL,
  19:C:/Users/²Ü¼ÒºÀ/.iotlink/sdk/IoT_LINK/iot_link/os/liteos/base/mem/heap\los_memory.c ****  * EXEMPLARY, OR CONSEQUENTIAL DAMAGES (INCLUDING, BUT NOT LIMITED TO,
  20:C:/Users/²Ü¼ÒºÀ/.iotlink/sdk/IoT_LINK/iot_link/os/liteos/base/mem/heap\los_memory.c ****  * PROCUREMENT OF SUBSTITUTE GOODS OR SERVICES; LOSS OF USE, DATA, OR PROFITS;
  21:C:/Users/²Ü¼ÒºÀ/.iotlink/sdk/IoT_LINK/iot_link/os/liteos/base/mem/heap\los_memory.c ****  * OR BUSINESS INTERRUPTION) HOWEVER CAUSED AND ON ANY THEORY OF LIABILITY,
  22:C:/Users/²Ü¼ÒºÀ/.iotlink/sdk/IoT_LINK/iot_link/os/liteos/base/mem/heap\los_memory.c ****  * WHETHER IN CONTRACT, STRICT LIABILITY, OR TORT (INCLUDING NEGLIGENCE OR
  23:C:/Users/²Ü¼ÒºÀ/.iotlink/sdk/IoT_LINK/iot_link/os/liteos/base/mem/heap\los_memory.c ****  * OTHERWISE) ARISING IN ANY WAY OUT OF THE USE OF THIS SOFTWARE, EVEN IF
  24:C:/Users/²Ü¼ÒºÀ/.iotlink/sdk/IoT_LINK/iot_link/os/liteos/base/mem/heap\los_memory.c ****  * ADVISED OF THE POSSIBILITY OF SUCH DAMAGE.
  25:C:/Users/²Ü¼ÒºÀ/.iotlink/sdk/IoT_LINK/iot_link/os/liteos/base/mem/heap\los_memory.c ****  *---------------------------------------------------------------------------*/
  26:C:/Users/²Ü¼ÒºÀ/.iotlink/sdk/IoT_LINK/iot_link/os/liteos/base/mem/heap\los_memory.c **** /*----------------------------------------------------------------------------
  27:C:/Users/²Ü¼ÒºÀ/.iotlink/sdk/IoT_LINK/iot_link/os/liteos/base/mem/heap\los_memory.c ****  * Notice of Export Control Law
  28:C:/Users/²Ü¼ÒºÀ/.iotlink/sdk/IoT_LINK/iot_link/os/liteos/base/mem/heap\los_memory.c ****  * ===============================================
  29:C:/Users/²Ü¼ÒºÀ/.iotlink/sdk/IoT_LINK/iot_link/os/liteos/base/mem/heap\los_memory.c ****  * Huawei LiteOS may be subject to applicable export control laws and regulations, which might
ARM GAS  C:\Users\²Ü¼ÒºÀ\AppData\Local\Temp\ccZGQjTi.s 			page 2


  30:C:/Users/²Ü¼ÒºÀ/.iotlink/sdk/IoT_LINK/iot_link/os/liteos/base/mem/heap\los_memory.c ****  * include those applicable to Huawei LiteOS of U.S. and the country in which you are located.
  31:C:/Users/²Ü¼ÒºÀ/.iotlink/sdk/IoT_LINK/iot_link/os/liteos/base/mem/heap\los_memory.c ****  * Import, export and usage of Huawei LiteOS in any manner by you shall be in compliance with such
  32:C:/Users/²Ü¼ÒºÀ/.iotlink/sdk/IoT_LINK/iot_link/os/liteos/base/mem/heap\los_memory.c ****  * applicable export control laws and regulations.
  33:C:/Users/²Ü¼ÒºÀ/.iotlink/sdk/IoT_LINK/iot_link/os/liteos/base/mem/heap\los_memory.c ****  *---------------------------------------------------------------------------*/
  34:C:/Users/²Ü¼ÒºÀ/.iotlink/sdk/IoT_LINK/iot_link/os/liteos/base/mem/heap\los_memory.c **** 
  35:C:/Users/²Ü¼ÒºÀ/.iotlink/sdk/IoT_LINK/iot_link/os/liteos/base/mem/heap\los_memory.c **** #include <los_config.h>
  36:C:/Users/²Ü¼ÒºÀ/.iotlink/sdk/IoT_LINK/iot_link/os/liteos/base/mem/heap\los_memory.c **** 
  37:C:/Users/²Ü¼ÒºÀ/.iotlink/sdk/IoT_LINK/iot_link/os/liteos/base/mem/heap\los_memory.c **** #if (LOSCFG_HEAP_IMPROVED == YES)
  38:C:/Users/²Ü¼ÒºÀ/.iotlink/sdk/IoT_LINK/iot_link/os/liteos/base/mem/heap\los_memory.c **** 
  39:C:/Users/²Ü¼ÒºÀ/.iotlink/sdk/IoT_LINK/iot_link/os/liteos/base/mem/heap\los_memory.c **** #include <string.h>
  40:C:/Users/²Ü¼ÒºÀ/.iotlink/sdk/IoT_LINK/iot_link/os/liteos/base/mem/heap\los_memory.c **** 
  41:C:/Users/²Ü¼ÒºÀ/.iotlink/sdk/IoT_LINK/iot_link/os/liteos/base/mem/heap\los_memory.c **** #include <mem.h>
  42:C:/Users/²Ü¼ÒºÀ/.iotlink/sdk/IoT_LINK/iot_link/os/liteos/base/mem/heap\los_memory.c **** #include <heap.h>
  43:C:/Users/²Ü¼ÒºÀ/.iotlink/sdk/IoT_LINK/iot_link/os/liteos/base/mem/heap\los_memory.c **** 
  44:C:/Users/²Ü¼ÒºÀ/.iotlink/sdk/IoT_LINK/iot_link/os/liteos/base/mem/heap\los_memory.c **** #ifdef LOSCFG_ENABLE_MPU
  45:C:/Users/²Ü¼ÒºÀ/.iotlink/sdk/IoT_LINK/iot_link/os/liteos/base/mem/heap\los_memory.c **** #include <los_task.ph>
  46:C:/Users/²Ü¼ÒºÀ/.iotlink/sdk/IoT_LINK/iot_link/os/liteos/base/mem/heap\los_memory.c **** #endif
  47:C:/Users/²Ü¼ÒºÀ/.iotlink/sdk/IoT_LINK/iot_link/os/liteos/base/mem/heap\los_memory.c **** 
  48:C:/Users/²Ü¼ÒºÀ/.iotlink/sdk/IoT_LINK/iot_link/os/liteos/base/mem/heap\los_memory.c **** #include <stdbool.h>
  49:C:/Users/²Ü¼ÒºÀ/.iotlink/sdk/IoT_LINK/iot_link/os/liteos/base/mem/heap\los_memory.c **** 
  50:C:/Users/²Ü¼ÒºÀ/.iotlink/sdk/IoT_LINK/iot_link/os/liteos/base/mem/heap\los_memory.c **** /*****************************************************************************
  51:C:/Users/²Ü¼ÒºÀ/.iotlink/sdk/IoT_LINK/iot_link/os/liteos/base/mem/heap\los_memory.c ****  Function : LOS_MemInit
  52:C:/Users/²Ü¼ÒºÀ/.iotlink/sdk/IoT_LINK/iot_link/os/liteos/base/mem/heap\los_memory.c ****  Description : Initialize Dynamic Memory pool
  53:C:/Users/²Ü¼ÒºÀ/.iotlink/sdk/IoT_LINK/iot_link/os/liteos/base/mem/heap\los_memory.c ****  Input       : pPool  --- Pointer to memory pool
  54:C:/Users/²Ü¼ÒºÀ/.iotlink/sdk/IoT_LINK/iot_link/os/liteos/base/mem/heap\los_memory.c ****                uwSize --- Size of memory in bytes to allocate
  55:C:/Users/²Ü¼ÒºÀ/.iotlink/sdk/IoT_LINK/iot_link/os/liteos/base/mem/heap\los_memory.c ****  Output      : None
  56:C:/Users/²Ü¼ÒºÀ/.iotlink/sdk/IoT_LINK/iot_link/os/liteos/base/mem/heap\los_memory.c ****  Return      : LOS_OK - Ok, LOS_NOK - Error
  57:C:/Users/²Ü¼ÒºÀ/.iotlink/sdk/IoT_LINK/iot_link/os/liteos/base/mem/heap\los_memory.c **** *****************************************************************************/
  58:C:/Users/²Ü¼ÒºÀ/.iotlink/sdk/IoT_LINK/iot_link/os/liteos/base/mem/heap\los_memory.c **** UINT32 LOS_MemInit (VOID *pPool, UINT32 uwSize)
  59:C:/Users/²Ü¼ÒºÀ/.iotlink/sdk/IoT_LINK/iot_link/os/liteos/base/mem/heap\los_memory.c **** {
  30              		.loc 1 59 1 view -0
  31              		.cfi_startproc
  32              		@ args = 0, pretend = 0, frame = 0
  33              		@ frame_needed = 0, uses_anonymous_args = 0
  60:C:/Users/²Ü¼ÒºÀ/.iotlink/sdk/IoT_LINK/iot_link/os/liteos/base/mem/heap\los_memory.c ****     heap_t *                heap;
  34              		.loc 1 60 5 view .LVU1
  61:C:/Users/²Ü¼ÒºÀ/.iotlink/sdk/IoT_LINK/iot_link/os/liteos/base/mem/heap\los_memory.c **** 
  62:C:/Users/²Ü¼ÒºÀ/.iotlink/sdk/IoT_LINK/iot_link/os/liteos/base/mem/heap\los_memory.c ****     uwSize -= (UINT32) pPool & ALLOC_ALIGN_MASK;
  35              		.loc 1 62 5 view .LVU2
  63:C:/Users/²Ü¼ÒºÀ/.iotlink/sdk/IoT_LINK/iot_link/os/liteos/base/mem/heap\los_memory.c ****     uwSize &= ~ALLOC_ALIGN_MASK;
  36              		.loc 1 63 5 view .LVU3
  64:C:/Users/²Ü¼ÒºÀ/.iotlink/sdk/IoT_LINK/iot_link/os/liteos/base/mem/heap\los_memory.c ****     pPool  = (char *) ((UINT32) pPool & ~ALLOC_ALIGN_MASK);
  37              		.loc 1 64 5 view .LVU4
  65:C:/Users/²Ü¼ÒºÀ/.iotlink/sdk/IoT_LINK/iot_link/os/liteos/base/mem/heap\los_memory.c **** 
  66:C:/Users/²Ü¼ÒºÀ/.iotlink/sdk/IoT_LINK/iot_link/os/liteos/base/mem/heap\los_memory.c ****     if (pPool == NULL || uwSize <= sizeof(heap_t))
  38              		.loc 1 66 5 view .LVU5
  59:C:/Users/²Ü¼ÒºÀ/.iotlink/sdk/IoT_LINK/iot_link/os/liteos/base/mem/heap\los_memory.c ****     heap_t *                heap;
  39              		.loc 1 59 1 is_stmt 0 view .LVU6
  40 0000 38B5     		push	{r3, r4, r5, lr}
  41              	.LCFI0:
  42              		.cfi_def_cfa_offset 16
  43              		.cfi_offset 3, -16
  44              		.cfi_offset 4, -12
  45              		.cfi_offset 5, -8
  46              		.cfi_offset 14, -4
  47              		.loc 1 66 8 view .LVU7
  48 0002 30F00305 		bics	r5, r0, #3
ARM GAS  C:\Users\²Ü¼ÒºÀ\AppData\Local\Temp\ccZGQjTi.s 			page 3


  49              	.LVL1:
  50              		.loc 1 66 8 view .LVU8
  51 0006 15D0     		beq	.L4
  62:C:/Users/²Ü¼ÒºÀ/.iotlink/sdk/IoT_LINK/iot_link/os/liteos/base/mem/heap\los_memory.c ****     uwSize &= ~ALLOC_ALIGN_MASK;
  52              		.loc 1 62 30 discriminator 1 view .LVU9
  53 0008 00F00300 		and	r0, r0, #3
  54              	.LVL2:
  62:C:/Users/²Ü¼ÒºÀ/.iotlink/sdk/IoT_LINK/iot_link/os/liteos/base/mem/heap\los_memory.c ****     uwSize &= ~ALLOC_ALIGN_MASK;
  55              		.loc 1 62 12 discriminator 1 view .LVU10
  56 000c 091A     		subs	r1, r1, r0
  57              	.LVL3:
  63:C:/Users/²Ü¼ÒºÀ/.iotlink/sdk/IoT_LINK/iot_link/os/liteos/base/mem/heap\los_memory.c ****     pPool  = (char *) ((UINT32) pPool & ~ALLOC_ALIGN_MASK);
  58              		.loc 1 63 12 discriminator 1 view .LVU11
  59 000e 21F00304 		bic	r4, r1, #3
  60              		.loc 1 66 23 discriminator 1 view .LVU12
  61 0012 B4F50C7F 		cmp	r4, #560
  62 0016 0DD9     		bls	.L4
  67:C:/Users/²Ü¼ÒºÀ/.iotlink/sdk/IoT_LINK/iot_link/os/liteos/base/mem/heap\los_memory.c ****     {
  68:C:/Users/²Ü¼ÒºÀ/.iotlink/sdk/IoT_LINK/iot_link/os/liteos/base/mem/heap\los_memory.c ****         return LOS_NOK;
  69:C:/Users/²Ü¼ÒºÀ/.iotlink/sdk/IoT_LINK/iot_link/os/liteos/base/mem/heap\los_memory.c ****     }
  70:C:/Users/²Ü¼ÒºÀ/.iotlink/sdk/IoT_LINK/iot_link/os/liteos/base/mem/heap\los_memory.c **** 
  71:C:/Users/²Ü¼ÒºÀ/.iotlink/sdk/IoT_LINK/iot_link/os/liteos/base/mem/heap\los_memory.c ****     heap = (heap_t *) pPool;
  63              		.loc 1 71 5 is_stmt 1 view .LVU13
  64              	.LVL4:
  72:C:/Users/²Ü¼ÒºÀ/.iotlink/sdk/IoT_LINK/iot_link/os/liteos/base/mem/heap\los_memory.c **** 
  73:C:/Users/²Ü¼ÒºÀ/.iotlink/sdk/IoT_LINK/iot_link/os/liteos/base/mem/heap\los_memory.c ****     heap_init (heap);
  65              		.loc 1 73 5 view .LVU14
  66 0018 2846     		mov	r0, r5
  67              	.LVL5:
  68              		.loc 1 73 5 is_stmt 0 view .LVU15
  69 001a FFF7FEFF 		bl	heap_init
  70              	.LVL6:
  74:C:/Users/²Ü¼ÒºÀ/.iotlink/sdk/IoT_LINK/iot_link/os/liteos/base/mem/heap\los_memory.c **** 
  75:C:/Users/²Ü¼ÒºÀ/.iotlink/sdk/IoT_LINK/iot_link/os/liteos/base/mem/heap\los_memory.c ****     if (heap_add (heap, (char *) (heap + 1), uwSize - sizeof (heap_t)) != 0)
  71              		.loc 1 75 5 is_stmt 1 view .LVU16
  72              		.loc 1 75 9 is_stmt 0 view .LVU17
  73 001e A4F50C72 		sub	r2, r4, #560
  74 0022 05F50C71 		add	r1, r5, #560
  75 0026 2846     		mov	r0, r5
  76 0028 FFF7FEFF 		bl	heap_add
  77              	.LVL7:
  78              		.loc 1 75 8 view .LVU18
  79 002c 0038     		subs	r0, r0, #0
  80 002e 18BF     		it	ne
  81 0030 0120     		movne	r0, #1
  82              	.LVL8:
  83              	.L1:
  76:C:/Users/²Ü¼ÒºÀ/.iotlink/sdk/IoT_LINK/iot_link/os/liteos/base/mem/heap\los_memory.c ****     {
  77:C:/Users/²Ü¼ÒºÀ/.iotlink/sdk/IoT_LINK/iot_link/os/liteos/base/mem/heap\los_memory.c ****         return LOS_NOK;
  78:C:/Users/²Ü¼ÒºÀ/.iotlink/sdk/IoT_LINK/iot_link/os/liteos/base/mem/heap\los_memory.c ****     }
  79:C:/Users/²Ü¼ÒºÀ/.iotlink/sdk/IoT_LINK/iot_link/os/liteos/base/mem/heap\los_memory.c **** 
  80:C:/Users/²Ü¼ÒºÀ/.iotlink/sdk/IoT_LINK/iot_link/os/liteos/base/mem/heap\los_memory.c ****     return LOS_OK;
  81:C:/Users/²Ü¼ÒºÀ/.iotlink/sdk/IoT_LINK/iot_link/os/liteos/base/mem/heap\los_memory.c **** }
  84              		.loc 1 81 1 view .LVU19
  85 0032 38BD     		pop	{r3, r4, r5, pc}
  86              	.LVL9:
  87              	.L4:
ARM GAS  C:\Users\²Ü¼ÒºÀ\AppData\Local\Temp\ccZGQjTi.s 			page 4


  68:C:/Users/²Ü¼ÒºÀ/.iotlink/sdk/IoT_LINK/iot_link/os/liteos/base/mem/heap\los_memory.c ****     }
  88              		.loc 1 68 16 view .LVU20
  89 0034 0120     		movs	r0, #1
  90 0036 FCE7     		b	.L1
  91              		.cfi_endproc
  92              	.LFE314:
  94              		.section	.text.osMemSystemInit,"ax",%progbits
  95              		.align	1
  96              		.global	osMemSystemInit
  97              		.syntax unified
  98              		.thumb
  99              		.thumb_func
 100              		.fpu fpv4-sp-d16
 102              	osMemSystemInit:
 103              	.LFB315:
  82:C:/Users/²Ü¼ÒºÀ/.iotlink/sdk/IoT_LINK/iot_link/os/liteos/base/mem/heap\los_memory.c **** 
  83:C:/Users/²Ü¼ÒºÀ/.iotlink/sdk/IoT_LINK/iot_link/os/liteos/base/mem/heap\los_memory.c **** UINT32 osMemSystemInit(VOID)
  84:C:/Users/²Ü¼ÒºÀ/.iotlink/sdk/IoT_LINK/iot_link/os/liteos/base/mem/heap\los_memory.c **** {
 104              		.loc 1 84 1 is_stmt 1 view -0
 105              		.cfi_startproc
 106              		@ args = 0, pretend = 0, frame = 0
 107              		@ frame_needed = 0, uses_anonymous_args = 0
  85:C:/Users/²Ü¼ÒºÀ/.iotlink/sdk/IoT_LINK/iot_link/os/liteos/base/mem/heap\los_memory.c ****     UINT32                  uwRet;
 108              		.loc 1 85 5 view .LVU22
  86:C:/Users/²Ü¼ÒºÀ/.iotlink/sdk/IoT_LINK/iot_link/os/liteos/base/mem/heap\los_memory.c ****     const struct phys_mem * spm = system_phys_mem;
 109              		.loc 1 86 5 view .LVU23
 110              	.LVL10:
  87:C:/Users/²Ü¼ÒºÀ/.iotlink/sdk/IoT_LINK/iot_link/os/liteos/base/mem/heap\los_memory.c **** 
  88:C:/Users/²Ü¼ÒºÀ/.iotlink/sdk/IoT_LINK/iot_link/os/liteos/base/mem/heap\los_memory.c ****     uwRet = LOS_MemInit((VOID *)spm->start, (UINT32)(spm->end - spm->start));
 111              		.loc 1 88 5 view .LVU24
  84:C:/Users/²Ü¼ÒºÀ/.iotlink/sdk/IoT_LINK/iot_link/os/liteos/base/mem/heap\los_memory.c ****     UINT32                  uwRet;
 112              		.loc 1 84 1 is_stmt 0 view .LVU25
 113 0000 38B5     		push	{r3, r4, r5, lr}
 114              	.LCFI1:
 115              		.cfi_def_cfa_offset 16
 116              		.cfi_offset 3, -16
 117              		.cfi_offset 4, -12
 118              		.cfi_offset 5, -8
 119              		.cfi_offset 14, -4
 120              		.loc 1 88 36 view .LVU26
 121 0002 0A4C     		ldr	r4, .L9
 122              		.loc 1 88 63 view .LVU27
 123 0004 D4E90051 		ldrd	r5, r1, [r4]
 124              		.loc 1 88 13 view .LVU28
 125 0008 491B     		subs	r1, r1, r5
 126 000a 2846     		mov	r0, r5
 127 000c FFF7FEFF 		bl	LOS_MemInit
 128              	.LVL11:
  89:C:/Users/²Ü¼ÒºÀ/.iotlink/sdk/IoT_LINK/iot_link/os/liteos/base/mem/heap\los_memory.c **** 
  90:C:/Users/²Ü¼ÒºÀ/.iotlink/sdk/IoT_LINK/iot_link/os/liteos/base/mem/heap\los_memory.c ****     if (uwRet != LOS_OK)
 129              		.loc 1 90 5 is_stmt 1 view .LVU29
 130              		.loc 1 90 8 is_stmt 0 view .LVU30
 131 0010 20B9     		cbnz	r0, .L5
  91:C:/Users/²Ü¼ÒºÀ/.iotlink/sdk/IoT_LINK/iot_link/os/liteos/base/mem/heap\los_memory.c ****     {
  92:C:/Users/²Ü¼ÒºÀ/.iotlink/sdk/IoT_LINK/iot_link/os/liteos/base/mem/heap\los_memory.c ****         return uwRet;
  93:C:/Users/²Ü¼ÒºÀ/.iotlink/sdk/IoT_LINK/iot_link/os/liteos/base/mem/heap\los_memory.c ****     }
  94:C:/Users/²Ü¼ÒºÀ/.iotlink/sdk/IoT_LINK/iot_link/os/liteos/base/mem/heap\los_memory.c **** 
ARM GAS  C:\Users\²Ü¼ÒºÀ\AppData\Local\Temp\ccZGQjTi.s 			page 5


  95:C:/Users/²Ü¼ÒºÀ/.iotlink/sdk/IoT_LINK/iot_link/os/liteos/base/mem/heap\los_memory.c ****     m_aucSysMem0 = (UINT8*) spm->start;
 132              		.loc 1 95 5 is_stmt 1 view .LVU31
 133              		.loc 1 95 18 is_stmt 0 view .LVU32
 134 0012 074B     		ldr	r3, .L9+4
 135 0014 1D60     		str	r5, [r3]
  96:C:/Users/²Ü¼ÒºÀ/.iotlink/sdk/IoT_LINK/iot_link/os/liteos/base/mem/heap\los_memory.c **** 
  97:C:/Users/²Ü¼ÒºÀ/.iotlink/sdk/IoT_LINK/iot_link/os/liteos/base/mem/heap\los_memory.c ****     spm++;
 136              		.loc 1 97 5 is_stmt 1 view .LVU33
 137              	.LVL12:
  98:C:/Users/²Ü¼ÒºÀ/.iotlink/sdk/IoT_LINK/iot_link/os/liteos/base/mem/heap\los_memory.c **** 
  99:C:/Users/²Ü¼ÒºÀ/.iotlink/sdk/IoT_LINK/iot_link/os/liteos/base/mem/heap\los_memory.c ****     while (spm->end)
 138              		.loc 1 99 5 view .LVU34
 139 0016 1D46     		mov	r5, r3
 140              	.LVL13:
 141              	.L7:
 142              		.loc 1 99 11 view .LVU35
 143              		.loc 1 99 15 is_stmt 0 view .LVU36
 144 0018 E068     		ldr	r0, [r4, #12]
 145              		.loc 1 99 11 view .LVU37
 146 001a 00B9     		cbnz	r0, .L8
 147              	.LVL14:
 148              	.L5:
 100:C:/Users/²Ü¼ÒºÀ/.iotlink/sdk/IoT_LINK/iot_link/os/liteos/base/mem/heap\los_memory.c ****     {
 101:C:/Users/²Ü¼ÒºÀ/.iotlink/sdk/IoT_LINK/iot_link/os/liteos/base/mem/heap\los_memory.c ****         heap_add ((heap_t *) m_aucSysMem0, (char *) spm->start,
 102:C:/Users/²Ü¼ÒºÀ/.iotlink/sdk/IoT_LINK/iot_link/os/liteos/base/mem/heap\los_memory.c ****                   (size_t) spm->end - spm->start);
 103:C:/Users/²Ü¼ÒºÀ/.iotlink/sdk/IoT_LINK/iot_link/os/liteos/base/mem/heap\los_memory.c **** 
 104:C:/Users/²Ü¼ÒºÀ/.iotlink/sdk/IoT_LINK/iot_link/os/liteos/base/mem/heap\los_memory.c ****         spm++;
 105:C:/Users/²Ü¼ÒºÀ/.iotlink/sdk/IoT_LINK/iot_link/os/liteos/base/mem/heap\los_memory.c ****     }
 106:C:/Users/²Ü¼ÒºÀ/.iotlink/sdk/IoT_LINK/iot_link/os/liteos/base/mem/heap\los_memory.c **** 
 107:C:/Users/²Ü¼ÒºÀ/.iotlink/sdk/IoT_LINK/iot_link/os/liteos/base/mem/heap\los_memory.c ****     return LOS_OK;
 108:C:/Users/²Ü¼ÒºÀ/.iotlink/sdk/IoT_LINK/iot_link/os/liteos/base/mem/heap\los_memory.c **** }
 149              		.loc 1 108 1 view .LVU38
 150 001c 38BD     		pop	{r3, r4, r5, pc}
 151              	.LVL15:
 152              	.L8:
 101:C:/Users/²Ü¼ÒºÀ/.iotlink/sdk/IoT_LINK/iot_link/os/liteos/base/mem/heap\los_memory.c ****                   (size_t) spm->end - spm->start);
 153              		.loc 1 101 9 is_stmt 1 view .LVU39
 101:C:/Users/²Ü¼ÒºÀ/.iotlink/sdk/IoT_LINK/iot_link/os/liteos/base/mem/heap\los_memory.c ****                   (size_t) spm->end - spm->start);
 154              		.loc 1 101 56 is_stmt 0 view .LVU40
 155 001e 54F8081F 		ldr	r1, [r4, #8]!
 156              	.LVL16:
 101:C:/Users/²Ü¼ÒºÀ/.iotlink/sdk/IoT_LINK/iot_link/os/liteos/base/mem/heap\los_memory.c ****                   (size_t) spm->end - spm->start);
 157              		.loc 1 101 9 view .LVU41
 158 0022 421A     		subs	r2, r0, r1
 159 0024 2868     		ldr	r0, [r5]
 160 0026 FFF7FEFF 		bl	heap_add
 161              	.LVL17:
 104:C:/Users/²Ü¼ÒºÀ/.iotlink/sdk/IoT_LINK/iot_link/os/liteos/base/mem/heap\los_memory.c ****     }
 162              		.loc 1 104 9 is_stmt 1 view .LVU42
 104:C:/Users/²Ü¼ÒºÀ/.iotlink/sdk/IoT_LINK/iot_link/os/liteos/base/mem/heap\los_memory.c ****     }
 163              		.loc 1 104 9 is_stmt 0 view .LVU43
 164 002a F5E7     		b	.L7
 165              	.L10:
 166              		.align	2
 167              	.L9:
 168 002c 00000000 		.word	system_phys_mem
 169 0030 00000000 		.word	m_aucSysMem0
ARM GAS  C:\Users\²Ü¼ÒºÀ\AppData\Local\Temp\ccZGQjTi.s 			page 6


 170              		.cfi_endproc
 171              	.LFE315:
 173              		.section	.text.osHeapAllocAlign,"ax",%progbits
 174              		.align	1
 175              		.global	osHeapAllocAlign
 176              		.syntax unified
 177              		.thumb
 178              		.thumb_func
 179              		.fpu fpv4-sp-d16
 181              	osHeapAllocAlign:
 182              	.LVL18:
 183              	.LFB316:
 109:C:/Users/²Ü¼ÒºÀ/.iotlink/sdk/IoT_LINK/iot_link/os/liteos/base/mem/heap\los_memory.c **** 
 110:C:/Users/²Ü¼ÒºÀ/.iotlink/sdk/IoT_LINK/iot_link/os/liteos/base/mem/heap\los_memory.c **** /*****************************************************************************
 111:C:/Users/²Ü¼ÒºÀ/.iotlink/sdk/IoT_LINK/iot_link/os/liteos/base/mem/heap\los_memory.c ****  Function : osHeapAllocAlign
 112:C:/Users/²Ü¼ÒºÀ/.iotlink/sdk/IoT_LINK/iot_link/os/liteos/base/mem/heap\los_memory.c ****  Description : To alloc memory block from the heap memory poll with
 113:C:/Users/²Ü¼ÒºÀ/.iotlink/sdk/IoT_LINK/iot_link/os/liteos/base/mem/heap\los_memory.c ****  Input       : VOID *pPool       --- Pointer to the manager,to distinguish heap
 114:C:/Users/²Ü¼ÒºÀ/.iotlink/sdk/IoT_LINK/iot_link/os/liteos/base/mem/heap\los_memory.c ****                UINT32 uwSize     --- size of the heap memory pool
 115:C:/Users/²Ü¼ÒºÀ/.iotlink/sdk/IoT_LINK/iot_link/os/liteos/base/mem/heap\los_memory.c ****                UINT32 uwBoundary --- boundary the heap needs align
 116:C:/Users/²Ü¼ÒºÀ/.iotlink/sdk/IoT_LINK/iot_link/os/liteos/base/mem/heap\los_memory.c ****  Output      : None
 117:C:/Users/²Ü¼ÒºÀ/.iotlink/sdk/IoT_LINK/iot_link/os/liteos/base/mem/heap\los_memory.c ****  Return      : NULL:error    other value:the address of the memory we alloced
 118:C:/Users/²Ü¼ÒºÀ/.iotlink/sdk/IoT_LINK/iot_link/os/liteos/base/mem/heap\los_memory.c **** *****************************************************************************/
 119:C:/Users/²Ü¼ÒºÀ/.iotlink/sdk/IoT_LINK/iot_link/os/liteos/base/mem/heap\los_memory.c **** LITE_OS_SEC_TEXT VOID* osHeapAllocAlign(VOID *pPool, UINT32 uwSize, UINT32 uwBoundary)
 120:C:/Users/²Ü¼ÒºÀ/.iotlink/sdk/IoT_LINK/iot_link/os/liteos/base/mem/heap\los_memory.c **** {
 184              		.loc 1 120 1 is_stmt 1 view -0
 185              		.cfi_startproc
 186              		@ args = 0, pretend = 0, frame = 0
 187              		@ frame_needed = 0, uses_anonymous_args = 0
 188              		@ link register save eliminated.
 121:C:/Users/²Ü¼ÒºÀ/.iotlink/sdk/IoT_LINK/iot_link/os/liteos/base/mem/heap\los_memory.c ****     return heap_alloc_align ((heap_t *) pPool, uwBoundary, uwSize);
 189              		.loc 1 121 5 view .LVU45
 120:C:/Users/²Ü¼ÒºÀ/.iotlink/sdk/IoT_LINK/iot_link/os/liteos/base/mem/heap\los_memory.c ****     return heap_alloc_align ((heap_t *) pPool, uwBoundary, uwSize);
 190              		.loc 1 120 1 is_stmt 0 view .LVU46
 191 0000 1346     		mov	r3, r2
 192              		.loc 1 121 12 view .LVU47
 193 0002 0A46     		mov	r2, r1
 194              	.LVL19:
 195              		.loc 1 121 12 view .LVU48
 196 0004 1946     		mov	r1, r3
 197              	.LVL20:
 198              		.loc 1 121 12 view .LVU49
 199 0006 FFF7FEBF 		b	heap_alloc_align
 200              	.LVL21:
 201              		.loc 1 121 12 view .LVU50
 202              		.cfi_endproc
 203              	.LFE316:
 205              		.section	.text.osHeapAlloc,"ax",%progbits
 206              		.align	1
 207              		.global	osHeapAlloc
 208              		.syntax unified
 209              		.thumb
 210              		.thumb_func
 211              		.fpu fpv4-sp-d16
 213              	osHeapAlloc:
 214              	.LVL22:
 215              	.LFB317:
 122:C:/Users/²Ü¼ÒºÀ/.iotlink/sdk/IoT_LINK/iot_link/os/liteos/base/mem/heap\los_memory.c **** }
ARM GAS  C:\Users\²Ü¼ÒºÀ\AppData\Local\Temp\ccZGQjTi.s 			page 7


 123:C:/Users/²Ü¼ÒºÀ/.iotlink/sdk/IoT_LINK/iot_link/os/liteos/base/mem/heap\los_memory.c **** 
 124:C:/Users/²Ü¼ÒºÀ/.iotlink/sdk/IoT_LINK/iot_link/os/liteos/base/mem/heap\los_memory.c **** /*****************************************************************************
 125:C:/Users/²Ü¼ÒºÀ/.iotlink/sdk/IoT_LINK/iot_link/os/liteos/base/mem/heap\los_memory.c ****  Function : osHeapAlloc
 126:C:/Users/²Ü¼ÒºÀ/.iotlink/sdk/IoT_LINK/iot_link/os/liteos/base/mem/heap\los_memory.c ****  Description : To alloc memory block from the heap memory poll
 127:C:/Users/²Ü¼ÒºÀ/.iotlink/sdk/IoT_LINK/iot_link/os/liteos/base/mem/heap\los_memory.c ****  Input       : VOID *pPool   --- Pointer to the manager,to distinguish heap
 128:C:/Users/²Ü¼ÒºÀ/.iotlink/sdk/IoT_LINK/iot_link/os/liteos/base/mem/heap\los_memory.c ****                UINT32 uwSize --- size of the heap memory pool
 129:C:/Users/²Ü¼ÒºÀ/.iotlink/sdk/IoT_LINK/iot_link/os/liteos/base/mem/heap\los_memory.c ****  Output      : None
 130:C:/Users/²Ü¼ÒºÀ/.iotlink/sdk/IoT_LINK/iot_link/os/liteos/base/mem/heap\los_memory.c ****  Return      : NULL:error    other value:the address of the memory we alloced
 131:C:/Users/²Ü¼ÒºÀ/.iotlink/sdk/IoT_LINK/iot_link/os/liteos/base/mem/heap\los_memory.c **** *****************************************************************************/
 132:C:/Users/²Ü¼ÒºÀ/.iotlink/sdk/IoT_LINK/iot_link/os/liteos/base/mem/heap\los_memory.c **** VOID * osHeapAlloc (VOID * pPool, UINT32 uwSize)
 133:C:/Users/²Ü¼ÒºÀ/.iotlink/sdk/IoT_LINK/iot_link/os/liteos/base/mem/heap\los_memory.c **** {
 216              		.loc 1 133 1 is_stmt 1 view -0
 217              		.cfi_startproc
 218              		@ args = 0, pretend = 0, frame = 0
 219              		@ frame_needed = 0, uses_anonymous_args = 0
 220              		@ link register save eliminated.
 134:C:/Users/²Ü¼ÒºÀ/.iotlink/sdk/IoT_LINK/iot_link/os/liteos/base/mem/heap\los_memory.c ****     return heap_alloc ((heap_t *) pPool, uwSize);
 221              		.loc 1 134 5 view .LVU52
 222              		.loc 1 134 12 is_stmt 0 view .LVU53
 223 0000 FFF7FEBF 		b	heap_alloc
 224              	.LVL23:
 225              		.loc 1 134 12 view .LVU54
 226              		.cfi_endproc
 227              	.LFE317:
 229              		.section	.text.osHeapFree,"ax",%progbits
 230              		.align	1
 231              		.global	osHeapFree
 232              		.syntax unified
 233              		.thumb
 234              		.thumb_func
 235              		.fpu fpv4-sp-d16
 237              	osHeapFree:
 238              	.LVL24:
 239              	.LFB318:
 135:C:/Users/²Ü¼ÒºÀ/.iotlink/sdk/IoT_LINK/iot_link/os/liteos/base/mem/heap\los_memory.c **** }
 136:C:/Users/²Ü¼ÒºÀ/.iotlink/sdk/IoT_LINK/iot_link/os/liteos/base/mem/heap\los_memory.c **** 
 137:C:/Users/²Ü¼ÒºÀ/.iotlink/sdk/IoT_LINK/iot_link/os/liteos/base/mem/heap\los_memory.c **** /*****************************************************************************
 138:C:/Users/²Ü¼ÒºÀ/.iotlink/sdk/IoT_LINK/iot_link/os/liteos/base/mem/heap\los_memory.c ****  Function : osHeapFree
 139:C:/Users/²Ü¼ÒºÀ/.iotlink/sdk/IoT_LINK/iot_link/os/liteos/base/mem/heap\los_memory.c ****  Description : To free the  memory block from  heap memory poll
 140:C:/Users/²Ü¼ÒºÀ/.iotlink/sdk/IoT_LINK/iot_link/os/liteos/base/mem/heap\los_memory.c ****  Input       : VOID* pPool --- Pointer to the manager,to distinguish heap
 141:C:/Users/²Ü¼ÒºÀ/.iotlink/sdk/IoT_LINK/iot_link/os/liteos/base/mem/heap\los_memory.c ****                VOID* pPtr: --- the pointer of heap memory we want to free
 142:C:/Users/²Ü¼ÒºÀ/.iotlink/sdk/IoT_LINK/iot_link/os/liteos/base/mem/heap\los_memory.c ****  Output      : None
 143:C:/Users/²Ü¼ÒºÀ/.iotlink/sdk/IoT_LINK/iot_link/os/liteos/base/mem/heap\los_memory.c ****  Return      : 1:success 0:error
 144:C:/Users/²Ü¼ÒºÀ/.iotlink/sdk/IoT_LINK/iot_link/os/liteos/base/mem/heap\los_memory.c **** *****************************************************************************/
 145:C:/Users/²Ü¼ÒºÀ/.iotlink/sdk/IoT_LINK/iot_link/os/liteos/base/mem/heap\los_memory.c **** BOOL osHeapFree (VOID * pPool, VOID * pMem)
 146:C:/Users/²Ü¼ÒºÀ/.iotlink/sdk/IoT_LINK/iot_link/os/liteos/base/mem/heap\los_memory.c **** {
 240              		.loc 1 146 1 is_stmt 1 view -0
 241              		.cfi_startproc
 242              		@ args = 0, pretend = 0, frame = 0
 243              		@ frame_needed = 0, uses_anonymous_args = 0
 147:C:/Users/²Ü¼ÒºÀ/.iotlink/sdk/IoT_LINK/iot_link/os/liteos/base/mem/heap\los_memory.c ****     if (heap_free ((heap_t *) pPool, pMem) != 0)
 244              		.loc 1 147 5 view .LVU56
 146:C:/Users/²Ü¼ÒºÀ/.iotlink/sdk/IoT_LINK/iot_link/os/liteos/base/mem/heap\los_memory.c ****     if (heap_free ((heap_t *) pPool, pMem) != 0)
 245              		.loc 1 146 1 is_stmt 0 view .LVU57
 246 0000 08B5     		push	{r3, lr}
 247              	.LCFI2:
 248              		.cfi_def_cfa_offset 8
ARM GAS  C:\Users\²Ü¼ÒºÀ\AppData\Local\Temp\ccZGQjTi.s 			page 8


 249              		.cfi_offset 3, -8
 250              		.cfi_offset 14, -4
 251              		.loc 1 147 9 view .LVU58
 252 0002 FFF7FEFF 		bl	heap_free
 253              	.LVL25:
 148:C:/Users/²Ü¼ÒºÀ/.iotlink/sdk/IoT_LINK/iot_link/os/liteos/base/mem/heap\los_memory.c ****     {
 149:C:/Users/²Ü¼ÒºÀ/.iotlink/sdk/IoT_LINK/iot_link/os/liteos/base/mem/heap\los_memory.c ****         return FALSE;
 150:C:/Users/²Ü¼ÒºÀ/.iotlink/sdk/IoT_LINK/iot_link/os/liteos/base/mem/heap\los_memory.c ****     }
 151:C:/Users/²Ü¼ÒºÀ/.iotlink/sdk/IoT_LINK/iot_link/os/liteos/base/mem/heap\los_memory.c **** 
 152:C:/Users/²Ü¼ÒºÀ/.iotlink/sdk/IoT_LINK/iot_link/os/liteos/base/mem/heap\los_memory.c ****     return TRUE;
 153:C:/Users/²Ü¼ÒºÀ/.iotlink/sdk/IoT_LINK/iot_link/os/liteos/base/mem/heap\los_memory.c **** }
 254              		.loc 1 153 1 view .LVU59
 255 0006 B0FA80F0 		clz	r0, r0
 256 000a 4009     		lsrs	r0, r0, #5
 257 000c 08BD     		pop	{r3, pc}
 258              		.cfi_endproc
 259              	.LFE318:
 261              		.section	.text.osHeapRealloc,"ax",%progbits
 262              		.align	1
 263              		.global	osHeapRealloc
 264              		.syntax unified
 265              		.thumb
 266              		.thumb_func
 267              		.fpu fpv4-sp-d16
 269              	osHeapRealloc:
 270              	.LVL26:
 271              	.LFB319:
 154:C:/Users/²Ü¼ÒºÀ/.iotlink/sdk/IoT_LINK/iot_link/os/liteos/base/mem/heap\los_memory.c **** 
 155:C:/Users/²Ü¼ÒºÀ/.iotlink/sdk/IoT_LINK/iot_link/os/liteos/base/mem/heap\los_memory.c **** /*****************************************************************************
 156:C:/Users/²Ü¼ÒºÀ/.iotlink/sdk/IoT_LINK/iot_link/os/liteos/base/mem/heap\los_memory.c ****  Function : osHeapRealloc
 157:C:/Users/²Ü¼ÒºÀ/.iotlink/sdk/IoT_LINK/iot_link/os/liteos/base/mem/heap\los_memory.c ****  Description : realloc memory from heap memory pool
 158:C:/Users/²Ü¼ÒºÀ/.iotlink/sdk/IoT_LINK/iot_link/os/liteos/base/mem/heap\los_memory.c ****  Input       : VOID* pPool --- Pointer to the manager,to distinguish heap
 159:C:/Users/²Ü¼ÒºÀ/.iotlink/sdk/IoT_LINK/iot_link/os/liteos/base/mem/heap\los_memory.c ****                VOID* pPtr: --- the pointer of heap memory we want to free
 160:C:/Users/²Ü¼ÒºÀ/.iotlink/sdk/IoT_LINK/iot_link/os/liteos/base/mem/heap\los_memory.c ****  Output      : None
 161:C:/Users/²Ü¼ÒºÀ/.iotlink/sdk/IoT_LINK/iot_link/os/liteos/base/mem/heap\los_memory.c ****  Return      : Pointer to allocated memory node
 162:C:/Users/²Ü¼ÒºÀ/.iotlink/sdk/IoT_LINK/iot_link/os/liteos/base/mem/heap\los_memory.c **** *****************************************************************************/
 163:C:/Users/²Ü¼ÒºÀ/.iotlink/sdk/IoT_LINK/iot_link/os/liteos/base/mem/heap\los_memory.c **** VOID *osHeapRealloc(VOID * pPool, VOID *pPtr, UINT32 uwSize)
 164:C:/Users/²Ü¼ÒºÀ/.iotlink/sdk/IoT_LINK/iot_link/os/liteos/base/mem/heap\los_memory.c **** {
 272              		.loc 1 164 1 is_stmt 1 view -0
 273              		.cfi_startproc
 274              		@ args = 0, pretend = 0, frame = 0
 275              		@ frame_needed = 0, uses_anonymous_args = 0
 276              		@ link register save eliminated.
 165:C:/Users/²Ü¼ÒºÀ/.iotlink/sdk/IoT_LINK/iot_link/os/liteos/base/mem/heap\los_memory.c ****     return heap_realloc ((heap_t *) pPool, pPtr, uwSize);
 277              		.loc 1 165 5 view .LVU61
 278              		.loc 1 165 12 is_stmt 0 view .LVU62
 279 0000 FFF7FEBF 		b	heap_realloc
 280              	.LVL27:
 281              		.loc 1 165 12 view .LVU63
 282              		.cfi_endproc
 283              	.LFE319:
 285              		.section	.text.LOS_MemAlloc,"ax",%progbits
 286              		.align	1
 287              		.global	LOS_MemAlloc
 288              		.syntax unified
 289              		.thumb
 290              		.thumb_func
ARM GAS  C:\Users\²Ü¼ÒºÀ\AppData\Local\Temp\ccZGQjTi.s 			page 9


 291              		.fpu fpv4-sp-d16
 293              	LOS_MemAlloc:
 294              	.LVL28:
 295              	.LFB320:
 166:C:/Users/²Ü¼ÒºÀ/.iotlink/sdk/IoT_LINK/iot_link/os/liteos/base/mem/heap\los_memory.c **** }
 167:C:/Users/²Ü¼ÒºÀ/.iotlink/sdk/IoT_LINK/iot_link/os/liteos/base/mem/heap\los_memory.c **** 
 168:C:/Users/²Ü¼ÒºÀ/.iotlink/sdk/IoT_LINK/iot_link/os/liteos/base/mem/heap\los_memory.c **** /*****************************************************************************
 169:C:/Users/²Ü¼ÒºÀ/.iotlink/sdk/IoT_LINK/iot_link/os/liteos/base/mem/heap\los_memory.c ****  Function : LOS_MemAlloc
 170:C:/Users/²Ü¼ÒºÀ/.iotlink/sdk/IoT_LINK/iot_link/os/liteos/base/mem/heap\los_memory.c ****  Description : Allocate Memory from Memory pool
 171:C:/Users/²Ü¼ÒºÀ/.iotlink/sdk/IoT_LINK/iot_link/os/liteos/base/mem/heap\los_memory.c ****  Input       : pPool  --- Pointer to memory pool
 172:C:/Users/²Ü¼ÒºÀ/.iotlink/sdk/IoT_LINK/iot_link/os/liteos/base/mem/heap\los_memory.c ****                uwSize --- Size of memory in bytes to allocate
 173:C:/Users/²Ü¼ÒºÀ/.iotlink/sdk/IoT_LINK/iot_link/os/liteos/base/mem/heap\los_memory.c ****  Output      : None
 174:C:/Users/²Ü¼ÒºÀ/.iotlink/sdk/IoT_LINK/iot_link/os/liteos/base/mem/heap\los_memory.c ****  Return      : Pointer to allocated memory
 175:C:/Users/²Ü¼ÒºÀ/.iotlink/sdk/IoT_LINK/iot_link/os/liteos/base/mem/heap\los_memory.c **** *****************************************************************************/
 176:C:/Users/²Ü¼ÒºÀ/.iotlink/sdk/IoT_LINK/iot_link/os/liteos/base/mem/heap\los_memory.c **** LITE_OS_SEC_TEXT VOID *LOS_MemAlloc (VOID *pPool, UINT32 uwSize)
 177:C:/Users/²Ü¼ÒºÀ/.iotlink/sdk/IoT_LINK/iot_link/os/liteos/base/mem/heap\los_memory.c **** {
 296              		.loc 1 177 1 is_stmt 1 view -0
 297              		.cfi_startproc
 298              		@ args = 0, pretend = 0, frame = 0
 299              		@ frame_needed = 0, uses_anonymous_args = 0
 178:C:/Users/²Ü¼ÒºÀ/.iotlink/sdk/IoT_LINK/iot_link/os/liteos/base/mem/heap\los_memory.c ****     VOID *pRet = NULL;
 300              		.loc 1 178 5 view .LVU65
 179:C:/Users/²Ü¼ÒºÀ/.iotlink/sdk/IoT_LINK/iot_link/os/liteos/base/mem/heap\los_memory.c **** 
 180:C:/Users/²Ü¼ÒºÀ/.iotlink/sdk/IoT_LINK/iot_link/os/liteos/base/mem/heap\los_memory.c ****     if (0 == uwSize)
 301              		.loc 1 180 5 view .LVU66
 177:C:/Users/²Ü¼ÒºÀ/.iotlink/sdk/IoT_LINK/iot_link/os/liteos/base/mem/heap\los_memory.c ****     VOID *pRet = NULL;
 302              		.loc 1 177 1 is_stmt 0 view .LVU67
 303 0000 38B5     		push	{r3, r4, r5, lr}
 304              	.LCFI3:
 305              		.cfi_def_cfa_offset 16
 306              		.cfi_offset 3, -16
 307              		.cfi_offset 4, -12
 308              		.cfi_offset 5, -8
 309              		.cfi_offset 14, -4
 177:C:/Users/²Ü¼ÒºÀ/.iotlink/sdk/IoT_LINK/iot_link/os/liteos/base/mem/heap\los_memory.c ****     VOID *pRet = NULL;
 310              		.loc 1 177 1 view .LVU68
 311 0002 0446     		mov	r4, r0
 312              		.loc 1 180 8 view .LVU69
 313 0004 0D46     		mov	r5, r1
 314 0006 49B1     		cbz	r1, .L17
 181:C:/Users/²Ü¼ÒºÀ/.iotlink/sdk/IoT_LINK/iot_link/os/liteos/base/mem/heap\los_memory.c ****     {
 182:C:/Users/²Ü¼ÒºÀ/.iotlink/sdk/IoT_LINK/iot_link/os/liteos/base/mem/heap\los_memory.c ****         return pRet;
 183:C:/Users/²Ü¼ÒºÀ/.iotlink/sdk/IoT_LINK/iot_link/os/liteos/base/mem/heap\los_memory.c ****     }
 184:C:/Users/²Ü¼ÒºÀ/.iotlink/sdk/IoT_LINK/iot_link/os/liteos/base/mem/heap\los_memory.c **** 
 185:C:/Users/²Ü¼ÒºÀ/.iotlink/sdk/IoT_LINK/iot_link/os/liteos/base/mem/heap\los_memory.c ****     if (NULL == pPool)
 315              		.loc 1 185 5 is_stmt 1 view .LVU70
 316              		.loc 1 185 8 is_stmt 0 view .LVU71
 317 0008 48B1     		cbz	r0, .L15
 186:C:/Users/²Ü¼ÒºÀ/.iotlink/sdk/IoT_LINK/iot_link/os/liteos/base/mem/heap\los_memory.c ****     {
 187:C:/Users/²Ü¼ÒºÀ/.iotlink/sdk/IoT_LINK/iot_link/os/liteos/base/mem/heap\los_memory.c **** #if (LOSCFG_ENABLE_MPU == YES)
 188:C:/Users/²Ü¼ÒºÀ/.iotlink/sdk/IoT_LINK/iot_link/os/liteos/base/mem/heap\los_memory.c ****         pPool = g_stLosTask.pstRunTask->pPool;
 189:C:/Users/²Ü¼ÒºÀ/.iotlink/sdk/IoT_LINK/iot_link/os/liteos/base/mem/heap\los_memory.c **** #else
 190:C:/Users/²Ü¼ÒºÀ/.iotlink/sdk/IoT_LINK/iot_link/os/liteos/base/mem/heap\los_memory.c ****         return pRet;
 191:C:/Users/²Ü¼ÒºÀ/.iotlink/sdk/IoT_LINK/iot_link/os/liteos/base/mem/heap\los_memory.c **** #endif
 192:C:/Users/²Ü¼ÒºÀ/.iotlink/sdk/IoT_LINK/iot_link/os/liteos/base/mem/heap\los_memory.c ****     }
 193:C:/Users/²Ü¼ÒºÀ/.iotlink/sdk/IoT_LINK/iot_link/os/liteos/base/mem/heap\los_memory.c **** 
 194:C:/Users/²Ü¼ÒºÀ/.iotlink/sdk/IoT_LINK/iot_link/os/liteos/base/mem/heap\los_memory.c **** #if (LOSCFG_KERNEL_MEM_SLAB == YES)
ARM GAS  C:\Users\²Ü¼ÒºÀ\AppData\Local\Temp\ccZGQjTi.s 			page 10


 195:C:/Users/²Ü¼ÒºÀ/.iotlink/sdk/IoT_LINK/iot_link/os/liteos/base/mem/heap\los_memory.c ****     pRet = osSlabMemAlloc(pPool, uwSize);
 318              		.loc 1 195 5 is_stmt 1 view .LVU72
 319              		.loc 1 195 12 is_stmt 0 view .LVU73
 320 000a FFF7FEFF 		bl	osSlabMemAlloc
 321              	.LVL29:
 196:C:/Users/²Ü¼ÒºÀ/.iotlink/sdk/IoT_LINK/iot_link/os/liteos/base/mem/heap\los_memory.c ****     if(pRet == NULL)
 322              		.loc 1 196 5 is_stmt 1 view .LVU74
 323              		.loc 1 196 7 is_stmt 0 view .LVU75
 324 000e 30B9     		cbnz	r0, .L15
 197:C:/Users/²Ü¼ÒºÀ/.iotlink/sdk/IoT_LINK/iot_link/os/liteos/base/mem/heap\los_memory.c **** #endif
 198:C:/Users/²Ü¼ÒºÀ/.iotlink/sdk/IoT_LINK/iot_link/os/liteos/base/mem/heap\los_memory.c ****         pRet = osHeapAlloc((heap_t *) pPool, uwSize);
 325              		.loc 1 198 9 is_stmt 1 view .LVU76
 326              	.LVL30:
 327              	.LBB8:
 328              	.LBI8:
 132:C:/Users/²Ü¼ÒºÀ/.iotlink/sdk/IoT_LINK/iot_link/os/liteos/base/mem/heap\los_memory.c **** {
 329              		.loc 1 132 8 view .LVU77
 330              	.LBB9:
 134:C:/Users/²Ü¼ÒºÀ/.iotlink/sdk/IoT_LINK/iot_link/os/liteos/base/mem/heap\los_memory.c **** }
 331              		.loc 1 134 5 view .LVU78
 134:C:/Users/²Ü¼ÒºÀ/.iotlink/sdk/IoT_LINK/iot_link/os/liteos/base/mem/heap\los_memory.c **** }
 332              		.loc 1 134 12 is_stmt 0 view .LVU79
 333 0010 2946     		mov	r1, r5
 334 0012 2046     		mov	r0, r4
 335              	.LVL31:
 134:C:/Users/²Ü¼ÒºÀ/.iotlink/sdk/IoT_LINK/iot_link/os/liteos/base/mem/heap\los_memory.c **** }
 336              		.loc 1 134 12 view .LVU80
 337              	.LBE9:
 338              	.LBE8:
 199:C:/Users/²Ü¼ÒºÀ/.iotlink/sdk/IoT_LINK/iot_link/os/liteos/base/mem/heap\los_memory.c **** 
 200:C:/Users/²Ü¼ÒºÀ/.iotlink/sdk/IoT_LINK/iot_link/os/liteos/base/mem/heap\los_memory.c ****     return pRet;
 201:C:/Users/²Ü¼ÒºÀ/.iotlink/sdk/IoT_LINK/iot_link/os/liteos/base/mem/heap\los_memory.c **** }
 339              		.loc 1 201 1 view .LVU81
 340 0014 BDE83840 		pop	{r3, r4, r5, lr}
 341              	.LCFI4:
 342              		.cfi_remember_state
 343              		.cfi_restore 14
 344              		.cfi_restore 5
 345              		.cfi_restore 4
 346              		.cfi_restore 3
 347              		.cfi_def_cfa_offset 0
 348              	.LVL32:
 349              	.LBB11:
 350              	.LBB10:
 134:C:/Users/²Ü¼ÒºÀ/.iotlink/sdk/IoT_LINK/iot_link/os/liteos/base/mem/heap\los_memory.c **** }
 351              		.loc 1 134 12 view .LVU82
 352 0018 FFF7FEBF 		b	heap_alloc
 353              	.LVL33:
 354              	.L17:
 355              	.LCFI5:
 356              		.cfi_restore_state
 134:C:/Users/²Ü¼ÒºÀ/.iotlink/sdk/IoT_LINK/iot_link/os/liteos/base/mem/heap\los_memory.c **** }
 357              		.loc 1 134 12 view .LVU83
 358              	.LBE10:
 359              	.LBE11:
 182:C:/Users/²Ü¼ÒºÀ/.iotlink/sdk/IoT_LINK/iot_link/os/liteos/base/mem/heap\los_memory.c ****     }
 360              		.loc 1 182 16 view .LVU84
ARM GAS  C:\Users\²Ü¼ÒºÀ\AppData\Local\Temp\ccZGQjTi.s 			page 11


 361 001c 0846     		mov	r0, r1
 362              	.LVL34:
 363              	.L15:
 364              		.loc 1 201 1 view .LVU85
 365 001e 38BD     		pop	{r3, r4, r5, pc}
 366              		.loc 1 201 1 view .LVU86
 367              		.cfi_endproc
 368              	.LFE320:
 370              		.section	.text.LOS_MemAllocAlign,"ax",%progbits
 371              		.align	1
 372              		.global	LOS_MemAllocAlign
 373              		.syntax unified
 374              		.thumb
 375              		.thumb_func
 376              		.fpu fpv4-sp-d16
 378              	LOS_MemAllocAlign:
 379              	.LFB327:
 380              		.cfi_startproc
 381              		@ args = 0, pretend = 0, frame = 0
 382              		@ frame_needed = 0, uses_anonymous_args = 0
 383              		@ link register save eliminated.
 384 0000 1346     		mov	r3, r2
 385 0002 0A46     		mov	r2, r1
 386 0004 1946     		mov	r1, r3
 387 0006 FFF7FEBF 		b	heap_alloc_align
 388              		.cfi_endproc
 389              	.LFE327:
 391              		.section	.text.LOS_MemRealloc,"ax",%progbits
 392              		.align	1
 393              		.global	LOS_MemRealloc
 394              		.syntax unified
 395              		.thumb
 396              		.thumb_func
 397              		.fpu fpv4-sp-d16
 399              	LOS_MemRealloc:
 400              	.LFB329:
 401              		.cfi_startproc
 402              		@ args = 0, pretend = 0, frame = 0
 403              		@ frame_needed = 0, uses_anonymous_args = 0
 404              		@ link register save eliminated.
 405 0000 FFF7FEBF 		b	heap_realloc
 406              		.cfi_endproc
 407              	.LFE329:
 409              		.section	.text.LOS_MemFree,"ax",%progbits
 410              		.align	1
 411              		.global	LOS_MemFree
 412              		.syntax unified
 413              		.thumb
 414              		.thumb_func
 415              		.fpu fpv4-sp-d16
 417              	LOS_MemFree:
 418              	.LVL35:
 419              	.LFB323:
 202:C:/Users/²Ü¼ÒºÀ/.iotlink/sdk/IoT_LINK/iot_link/os/liteos/base/mem/heap\los_memory.c **** 
 203:C:/Users/²Ü¼ÒºÀ/.iotlink/sdk/IoT_LINK/iot_link/os/liteos/base/mem/heap\los_memory.c **** /*****************************************************************************
 204:C:/Users/²Ü¼ÒºÀ/.iotlink/sdk/IoT_LINK/iot_link/os/liteos/base/mem/heap\los_memory.c ****  Function : LOS_MemAllocAlign
 205:C:/Users/²Ü¼ÒºÀ/.iotlink/sdk/IoT_LINK/iot_link/os/liteos/base/mem/heap\los_memory.c ****  Description : align size then allocate node from Memory pool
ARM GAS  C:\Users\²Ü¼ÒºÀ\AppData\Local\Temp\ccZGQjTi.s 			page 12


 206:C:/Users/²Ü¼ÒºÀ/.iotlink/sdk/IoT_LINK/iot_link/os/liteos/base/mem/heap\los_memory.c ****  Input       : pPool      --- Pointer to memory pool
 207:C:/Users/²Ü¼ÒºÀ/.iotlink/sdk/IoT_LINK/iot_link/os/liteos/base/mem/heap\los_memory.c ****                uwSize     --- Size of memory in bytes to allocate
 208:C:/Users/²Ü¼ÒºÀ/.iotlink/sdk/IoT_LINK/iot_link/os/liteos/base/mem/heap\los_memory.c ****                uwBoundary --- align form
 209:C:/Users/²Ü¼ÒºÀ/.iotlink/sdk/IoT_LINK/iot_link/os/liteos/base/mem/heap\los_memory.c ****  Output      : None
 210:C:/Users/²Ü¼ÒºÀ/.iotlink/sdk/IoT_LINK/iot_link/os/liteos/base/mem/heap\los_memory.c ****  Return      : Pointer to allocated memory node
 211:C:/Users/²Ü¼ÒºÀ/.iotlink/sdk/IoT_LINK/iot_link/os/liteos/base/mem/heap\los_memory.c **** *****************************************************************************/
 212:C:/Users/²Ü¼ÒºÀ/.iotlink/sdk/IoT_LINK/iot_link/os/liteos/base/mem/heap\los_memory.c **** LITE_OS_SEC_TEXT VOID *LOS_MemAllocAlign(VOID *pPool, UINT32 uwSize, UINT32 uwBoundary)
 213:C:/Users/²Ü¼ÒºÀ/.iotlink/sdk/IoT_LINK/iot_link/os/liteos/base/mem/heap\los_memory.c **** {
 214:C:/Users/²Ü¼ÒºÀ/.iotlink/sdk/IoT_LINK/iot_link/os/liteos/base/mem/heap\los_memory.c ****     return osHeapAllocAlign((heap_t *) pPool, uwSize, uwBoundary);
 215:C:/Users/²Ü¼ÒºÀ/.iotlink/sdk/IoT_LINK/iot_link/os/liteos/base/mem/heap\los_memory.c **** }
 216:C:/Users/²Ü¼ÒºÀ/.iotlink/sdk/IoT_LINK/iot_link/os/liteos/base/mem/heap\los_memory.c **** 
 217:C:/Users/²Ü¼ÒºÀ/.iotlink/sdk/IoT_LINK/iot_link/os/liteos/base/mem/heap\los_memory.c **** /*****************************************************************************
 218:C:/Users/²Ü¼ÒºÀ/.iotlink/sdk/IoT_LINK/iot_link/os/liteos/base/mem/heap\los_memory.c ****  Function : LOS_MemRealloc
 219:C:/Users/²Ü¼ÒºÀ/.iotlink/sdk/IoT_LINK/iot_link/os/liteos/base/mem/heap\los_memory.c ****  Description : realloc memory from Memory pool
 220:C:/Users/²Ü¼ÒºÀ/.iotlink/sdk/IoT_LINK/iot_link/os/liteos/base/mem/heap\los_memory.c ****  Input       : pPool  --- Pointer to memory pool
 221:C:/Users/²Ü¼ÒºÀ/.iotlink/sdk/IoT_LINK/iot_link/os/liteos/base/mem/heap\los_memory.c ****                pPtr   --- Pointer to memory
 222:C:/Users/²Ü¼ÒºÀ/.iotlink/sdk/IoT_LINK/iot_link/os/liteos/base/mem/heap\los_memory.c ****                uwSize --- new size
 223:C:/Users/²Ü¼ÒºÀ/.iotlink/sdk/IoT_LINK/iot_link/os/liteos/base/mem/heap\los_memory.c ****  Output      : None
 224:C:/Users/²Ü¼ÒºÀ/.iotlink/sdk/IoT_LINK/iot_link/os/liteos/base/mem/heap\los_memory.c ****  Return      : Pointer to allocated memory node
 225:C:/Users/²Ü¼ÒºÀ/.iotlink/sdk/IoT_LINK/iot_link/os/liteos/base/mem/heap\los_memory.c **** *****************************************************************************/
 226:C:/Users/²Ü¼ÒºÀ/.iotlink/sdk/IoT_LINK/iot_link/os/liteos/base/mem/heap\los_memory.c **** LITE_OS_SEC_TEXT_MINOR VOID *LOS_MemRealloc(VOID *pPool, VOID *pPtr, UINT32 uwSize)
 227:C:/Users/²Ü¼ÒºÀ/.iotlink/sdk/IoT_LINK/iot_link/os/liteos/base/mem/heap\los_memory.c **** {
 228:C:/Users/²Ü¼ÒºÀ/.iotlink/sdk/IoT_LINK/iot_link/os/liteos/base/mem/heap\los_memory.c ****     return osHeapRealloc((heap_t *) pPool, pPtr, uwSize);
 229:C:/Users/²Ü¼ÒºÀ/.iotlink/sdk/IoT_LINK/iot_link/os/liteos/base/mem/heap\los_memory.c **** }
 230:C:/Users/²Ü¼ÒºÀ/.iotlink/sdk/IoT_LINK/iot_link/os/liteos/base/mem/heap\los_memory.c **** 
 231:C:/Users/²Ü¼ÒºÀ/.iotlink/sdk/IoT_LINK/iot_link/os/liteos/base/mem/heap\los_memory.c **** /*****************************************************************************
 232:C:/Users/²Ü¼ÒºÀ/.iotlink/sdk/IoT_LINK/iot_link/os/liteos/base/mem/heap\los_memory.c ****  Function : LOS_MemFree
 233:C:/Users/²Ü¼ÒºÀ/.iotlink/sdk/IoT_LINK/iot_link/os/liteos/base/mem/heap\los_memory.c ****  Description : Free Memory and return it to Memory pool
 234:C:/Users/²Ü¼ÒºÀ/.iotlink/sdk/IoT_LINK/iot_link/os/liteos/base/mem/heap\los_memory.c ****  Input       : pPool --- Pointer to memory pool
 235:C:/Users/²Ü¼ÒºÀ/.iotlink/sdk/IoT_LINK/iot_link/os/liteos/base/mem/heap\los_memory.c ****                pMem  --- Pointer to memory to free
 236:C:/Users/²Ü¼ÒºÀ/.iotlink/sdk/IoT_LINK/iot_link/os/liteos/base/mem/heap\los_memory.c ****  Output      : None
 237:C:/Users/²Ü¼ÒºÀ/.iotlink/sdk/IoT_LINK/iot_link/os/liteos/base/mem/heap\los_memory.c ****  Return      : LOS_OK - OK, LOS_NOK - Error
 238:C:/Users/²Ü¼ÒºÀ/.iotlink/sdk/IoT_LINK/iot_link/os/liteos/base/mem/heap\los_memory.c **** *****************************************************************************/
 239:C:/Users/²Ü¼ÒºÀ/.iotlink/sdk/IoT_LINK/iot_link/os/liteos/base/mem/heap\los_memory.c **** LITE_OS_SEC_TEXT UINT32 LOS_MemFree (VOID *pPool, VOID *pMem)
 240:C:/Users/²Ü¼ÒºÀ/.iotlink/sdk/IoT_LINK/iot_link/os/liteos/base/mem/heap\los_memory.c **** {
 420              		.loc 1 240 1 is_stmt 1 view -0
 421              		.cfi_startproc
 422              		@ args = 0, pretend = 0, frame = 0
 423              		@ frame_needed = 0, uses_anonymous_args = 0
 241:C:/Users/²Ü¼ÒºÀ/.iotlink/sdk/IoT_LINK/iot_link/os/liteos/base/mem/heap\los_memory.c ****     BOOL bRet = FALSE;
 424              		.loc 1 241 5 view .LVU88
 242:C:/Users/²Ü¼ÒºÀ/.iotlink/sdk/IoT_LINK/iot_link/os/liteos/base/mem/heap\los_memory.c **** 
 243:C:/Users/²Ü¼ÒºÀ/.iotlink/sdk/IoT_LINK/iot_link/os/liteos/base/mem/heap\los_memory.c ****     if ((NULL == pPool) || (NULL == pMem))
 425              		.loc 1 243 5 view .LVU89
 240:C:/Users/²Ü¼ÒºÀ/.iotlink/sdk/IoT_LINK/iot_link/os/liteos/base/mem/heap\los_memory.c ****     BOOL bRet = FALSE;
 426              		.loc 1 240 1 is_stmt 0 view .LVU90
 427 0000 38B5     		push	{r3, r4, r5, lr}
 428              	.LCFI6:
 429              		.cfi_def_cfa_offset 16
 430              		.cfi_offset 3, -16
 431              		.cfi_offset 4, -12
 432              		.cfi_offset 5, -8
 433              		.cfi_offset 14, -4
 240:C:/Users/²Ü¼ÒºÀ/.iotlink/sdk/IoT_LINK/iot_link/os/liteos/base/mem/heap\los_memory.c ****     BOOL bRet = FALSE;
 434              		.loc 1 240 1 view .LVU91
 435 0002 0D46     		mov	r5, r1
 436              		.loc 1 243 8 view .LVU92
ARM GAS  C:\Users\²Ü¼ÒºÀ\AppData\Local\Temp\ccZGQjTi.s 			page 13


 437 0004 0446     		mov	r4, r0
 438 0006 60B1     		cbz	r0, .L25
 439              		.loc 1 243 25 discriminator 1 view .LVU93
 440 0008 59B1     		cbz	r1, .L25
 244:C:/Users/²Ü¼ÒºÀ/.iotlink/sdk/IoT_LINK/iot_link/os/liteos/base/mem/heap\los_memory.c ****     {
 245:C:/Users/²Ü¼ÒºÀ/.iotlink/sdk/IoT_LINK/iot_link/os/liteos/base/mem/heap\los_memory.c ****         return LOS_NOK;
 246:C:/Users/²Ü¼ÒºÀ/.iotlink/sdk/IoT_LINK/iot_link/os/liteos/base/mem/heap\los_memory.c ****     }
 247:C:/Users/²Ü¼ÒºÀ/.iotlink/sdk/IoT_LINK/iot_link/os/liteos/base/mem/heap\los_memory.c **** 
 248:C:/Users/²Ü¼ÒºÀ/.iotlink/sdk/IoT_LINK/iot_link/os/liteos/base/mem/heap\los_memory.c **** #if (LOSCFG_KERNEL_MEM_SLAB == YES)
 249:C:/Users/²Ü¼ÒºÀ/.iotlink/sdk/IoT_LINK/iot_link/os/liteos/base/mem/heap\los_memory.c ****     bRet = osSlabMemFree(pPool, pMem);
 441              		.loc 1 249 5 is_stmt 1 view .LVU94
 442              		.loc 1 249 12 is_stmt 0 view .LVU95
 443 000a FFF7FEFF 		bl	osSlabMemFree
 444              	.LVL36:
 250:C:/Users/²Ü¼ÒºÀ/.iotlink/sdk/IoT_LINK/iot_link/os/liteos/base/mem/heap\los_memory.c ****     if(bRet != TRUE)
 445              		.loc 1 250 5 is_stmt 1 view .LVU96
 446              		.loc 1 250 7 is_stmt 0 view .LVU97
 447 000e 0128     		cmp	r0, #1
 448 0010 03D0     		beq	.L23
 251:C:/Users/²Ü¼ÒºÀ/.iotlink/sdk/IoT_LINK/iot_link/os/liteos/base/mem/heap\los_memory.c **** #endif
 252:C:/Users/²Ü¼ÒºÀ/.iotlink/sdk/IoT_LINK/iot_link/os/liteos/base/mem/heap\los_memory.c ****         bRet = osHeapFree((heap_t *) pPool, pMem);
 449              		.loc 1 252 9 is_stmt 1 view .LVU98
 450              		.loc 1 252 16 is_stmt 0 view .LVU99
 451 0012 2946     		mov	r1, r5
 452 0014 2046     		mov	r0, r4
 453              	.LVL37:
 454              		.loc 1 252 16 view .LVU100
 455 0016 FFF7FEFF 		bl	osHeapFree
 456              	.LVL38:
 457              	.L23:
 253:C:/Users/²Ü¼ÒºÀ/.iotlink/sdk/IoT_LINK/iot_link/os/liteos/base/mem/heap\los_memory.c **** 
 254:C:/Users/²Ü¼ÒºÀ/.iotlink/sdk/IoT_LINK/iot_link/os/liteos/base/mem/heap\los_memory.c ****     return (bRet == TRUE ? LOS_OK : LOS_NOK);
 458              		.loc 1 254 5 is_stmt 1 view .LVU101
 459              		.loc 1 254 35 is_stmt 0 view .LVU102
 460 001a 0138     		subs	r0, r0, #1
 461              	.LVL39:
 462              		.loc 1 254 35 view .LVU103
 463 001c 18BF     		it	ne
 464 001e 0120     		movne	r0, #1
 465              	.LVL40:
 466              	.L21:
 255:C:/Users/²Ü¼ÒºÀ/.iotlink/sdk/IoT_LINK/iot_link/os/liteos/base/mem/heap\los_memory.c **** }
 467              		.loc 1 255 1 view .LVU104
 468 0020 38BD     		pop	{r3, r4, r5, pc}
 469              	.LVL41:
 470              	.L25:
 245:C:/Users/²Ü¼ÒºÀ/.iotlink/sdk/IoT_LINK/iot_link/os/liteos/base/mem/heap\los_memory.c ****     }
 471              		.loc 1 245 16 view .LVU105
 472 0022 0120     		movs	r0, #1
 473              	.LVL42:
 245:C:/Users/²Ü¼ÒºÀ/.iotlink/sdk/IoT_LINK/iot_link/os/liteos/base/mem/heap\los_memory.c ****     }
 474              		.loc 1 245 16 view .LVU106
 475 0024 FCE7     		b	.L21
 476              		.cfi_endproc
 477              	.LFE323:
 479              		.section	.text.osSlabCtrlHdrGet,"ax",%progbits
 480              		.align	1
ARM GAS  C:\Users\²Ü¼ÒºÀ\AppData\Local\Temp\ccZGQjTi.s 			page 14


 481              		.global	osSlabCtrlHdrGet
 482              		.syntax unified
 483              		.thumb
 484              		.thumb_func
 485              		.fpu fpv4-sp-d16
 487              	osSlabCtrlHdrGet:
 488              	.LVL43:
 489              	.LFB324:
 256:C:/Users/²Ü¼ÒºÀ/.iotlink/sdk/IoT_LINK/iot_link/os/liteos/base/mem/heap\los_memory.c **** 
 257:C:/Users/²Ü¼ÒºÀ/.iotlink/sdk/IoT_LINK/iot_link/os/liteos/base/mem/heap\los_memory.c **** VOID * osSlabCtrlHdrGet (VOID * pPool)
 258:C:/Users/²Ü¼ÒºÀ/.iotlink/sdk/IoT_LINK/iot_link/os/liteos/base/mem/heap\los_memory.c **** {
 490              		.loc 1 258 1 is_stmt 1 view -0
 491              		.cfi_startproc
 492              		@ args = 0, pretend = 0, frame = 0
 493              		@ frame_needed = 0, uses_anonymous_args = 0
 494              		@ link register save eliminated.
 259:C:/Users/²Ü¼ÒºÀ/.iotlink/sdk/IoT_LINK/iot_link/os/liteos/base/mem/heap\los_memory.c **** #if (LOSCFG_KERNEL_MEM_SLAB == YES)
 260:C:/Users/²Ü¼ÒºÀ/.iotlink/sdk/IoT_LINK/iot_link/os/liteos/base/mem/heap\los_memory.c ****     return &((heap_t *)pPool)->stSlabCtrlHdr;
 495              		.loc 1 260 5 view .LVU108
 261:C:/Users/²Ü¼ÒºÀ/.iotlink/sdk/IoT_LINK/iot_link/os/liteos/base/mem/heap\los_memory.c **** #else
 262:C:/Users/²Ü¼ÒºÀ/.iotlink/sdk/IoT_LINK/iot_link/os/liteos/base/mem/heap\los_memory.c ****     return NULL;
 263:C:/Users/²Ü¼ÒºÀ/.iotlink/sdk/IoT_LINK/iot_link/os/liteos/base/mem/heap\los_memory.c **** #endif
 264:C:/Users/²Ü¼ÒºÀ/.iotlink/sdk/IoT_LINK/iot_link/os/liteos/base/mem/heap\los_memory.c **** }
 496              		.loc 1 264 1 is_stmt 0 view .LVU109
 497 0000 00F5F870 		add	r0, r0, #496
 498              	.LVL44:
 499              		.loc 1 264 1 view .LVU110
 500 0004 7047     		bx	lr
 501              		.cfi_endproc
 502              	.LFE324:
 504              		.section	.text.LOS_MemInfo,"ax",%progbits
 505              		.align	1
 506              		.global	LOS_MemInfo
 507              		.syntax unified
 508              		.thumb
 509              		.thumb_func
 510              		.fpu fpv4-sp-d16
 512              	LOS_MemInfo:
 513              	.LVL45:
 514              	.LFB325:
 265:C:/Users/²Ü¼ÒºÀ/.iotlink/sdk/IoT_LINK/iot_link/os/liteos/base/mem/heap\los_memory.c **** 
 266:C:/Users/²Ü¼ÒºÀ/.iotlink/sdk/IoT_LINK/iot_link/os/liteos/base/mem/heap\los_memory.c **** VOID LOS_MemInfo (VOID * pPool, BOOL bShowDetail)
 267:C:/Users/²Ü¼ÒºÀ/.iotlink/sdk/IoT_LINK/iot_link/os/liteos/base/mem/heap\los_memory.c ****     {
 515              		.loc 1 267 5 is_stmt 1 view -0
 516              		.cfi_startproc
 517              		@ args = 0, pretend = 0, frame = 0
 518              		@ frame_needed = 0, uses_anonymous_args = 0
 519              		@ link register save eliminated.
 268:C:/Users/²Ü¼ÒºÀ/.iotlink/sdk/IoT_LINK/iot_link/os/liteos/base/mem/heap\los_memory.c ****     heap_t * pHeap = pPool == NULL ? (heap_t *) m_aucSysMem0 : (heap_t *) pPool;
 520              		.loc 1 268 5 view .LVU112
 521              		.loc 1 268 62 is_stmt 0 view .LVU113
 522 0000 08B9     		cbnz	r0, .L31
 523              		.loc 1 268 62 discriminator 1 view .LVU114
 524 0002 034B     		ldr	r3, .L32
 525 0004 1868     		ldr	r0, [r3]
 526              	.LVL46:
 527              	.L31:
ARM GAS  C:\Users\²Ü¼ÒºÀ\AppData\Local\Temp\ccZGQjTi.s 			page 15


 269:C:/Users/²Ü¼ÒºÀ/.iotlink/sdk/IoT_LINK/iot_link/os/liteos/base/mem/heap\los_memory.c **** 
 270:C:/Users/²Ü¼ÒºÀ/.iotlink/sdk/IoT_LINK/iot_link/os/liteos/base/mem/heap\los_memory.c ****     __dump_heap (pHeap, (bool)bShowDetail);
 528              		.loc 1 270 5 is_stmt 1 discriminator 4 view .LVU115
 529 0006 0039     		subs	r1, r1, #0
 530              		.loc 1 270 5 is_stmt 0 discriminator 4 view .LVU116
 531 0008 18BF     		it	ne
 532 000a 0121     		movne	r1, #1
 533              	.LVL47:
 534              		.loc 1 270 5 discriminator 4 view .LVU117
 535 000c FFF7FEBF 		b	__dump_heap
 536              	.LVL48:
 537              	.L33:
 538              		.loc 1 270 5 discriminator 4 view .LVU118
 539              		.align	2
 540              	.L32:
 541 0010 00000000 		.word	m_aucSysMem0
 542              		.cfi_endproc
 543              	.LFE325:
 545              		.text
 546              	.Letext0:
 547              		.file 2 "c:\\users\\\262\334\274\322\272\300\\.iotlink\\tools\\gcc-arm-none-eabi\\lib\\gcc\\arm-no
 548              		.file 3 "c:\\users\\\262\334\274\322\272\300\\.iotlink\\tools\\gcc-arm-none-eabi\\arm-none-eabi\\i
 549              		.file 4 "c:\\users\\\262\334\274\322\272\300\\.iotlink\\tools\\gcc-arm-none-eabi\\arm-none-eabi\\i
 550              		.file 5 "c:\\users\\\262\334\274\322\272\300\\.iotlink\\tools\\gcc-arm-none-eabi\\arm-none-eabi\\i
 551              		.file 6 "c:\\users\\\262\334\274\322\272\300\\.iotlink\\tools\\gcc-arm-none-eabi\\arm-none-eabi\\i
 552              		.file 7 "C:/Users/\262\334\274\322\272\300/.iotlink/sdk/IoT_LINK/iot_link/os/liteos/include/los_ty
 553              		.file 8 "c:\\users\\\262\334\274\322\272\300\\.iotlink\\tools\\gcc-arm-none-eabi\\arm-none-eabi\\i
 554              		.file 9 "C:/Users/\262\334\274\322\272\300/.iotlink/sdk/IoT_LINK/iot_link/os/liteos/arch/arm/commo
 555              		.file 10 "d:/liteos/code/WIFI2/Inc/system_stm32l4xx.h"
 556              		.file 11 "C:/Users/\262\334\274\322\272\300/.iotlink/sdk/IoT_LINK/iot_link/os/liteos/include/los_l
 557              		.file 12 "C:/Users/\262\334\274\322\272\300/.iotlink/sdk/IoT_LINK/iot_link/os/liteos/include/los_e
 558              		.file 13 "C:/Users/\262\334\274\322\272\300/.iotlink/sdk/IoT_LINK/iot_link/os/liteos/arch/arm/arm-
 559              		.file 14 "C:/Users/\262\334\274\322\272\300/.iotlink/sdk/IoT_LINK/iot_link/os/liteos/include/los_e
 560              		.file 15 "C:/Users/\262\334\274\322\272\300/.iotlink/sdk/IoT_LINK/iot_link/os/liteos/include/los_c
 561              		.file 16 "C:/Users/\262\334\274\322\272\300/.iotlink/sdk/IoT_LINK/iot_link/os/liteos/include/los_t
 562              		.file 17 "C:/Users/\262\334\274\322\272\300/.iotlink/sdk/IoT_LINK/iot_link/os/liteos/include/los_t
 563              		.file 18 "C:/Users/\262\334\274\322\272\300/.iotlink/sdk/IoT_LINK/iot_link/os/liteos/base/include/
 564              		.file 19 "C:/Users/\262\334\274\322\272\300/.iotlink/sdk/IoT_LINK/iot_link/os/liteos/include/list.
 565              		.file 20 "C:/Users/\262\334\274\322\272\300/.iotlink/sdk/IoT_LINK/iot_link/os/liteos/base/include/
 566              		.file 21 "C:/Users/\262\334\274\322\272\300/.iotlink/sdk/IoT_LINK/iot_link/os/liteos/base/include/
 567              		.file 22 "C:/Users/\262\334\274\322\272\300/.iotlink/sdk/IoT_LINK/iot_link/os/liteos/base/include/
 568              		.file 23 "C:/Users/\262\334\274\322\272\300/.iotlink/sdk/IoT_LINK/iot_link/os/liteos/base/include/
 569              		.file 24 "C:/Users/\262\334\274\322\272\300/.iotlink/sdk/IoT_LINK/iot_link/os/liteos/base/include/
ARM GAS  C:\Users\²Ü¼ÒºÀ\AppData\Local\Temp\ccZGQjTi.s 			page 16

