ARM GAS  C:\Users\²Ü¼ÒºÀ\AppData\Local\Temp\ccKhPaIi.s 			page 1


   1              		.cpu cortex-m4
   2              		.eabi_attribute 27, 1
   3              		.eabi_attribute 28, 1
   4              		.eabi_attribute 20, 1
   5              		.eabi_attribute 21, 1
   6              		.eabi_attribute 23, 3
   7              		.eabi_attribute 24, 1
   8              		.eabi_attribute 25, 1
   9              		.eabi_attribute 26, 1
  10              		.eabi_attribute 30, 4
  11              		.eabi_attribute 34, 1
  12              		.eabi_attribute 18, 4
  13              		.file	"los_svc.c"
  14              		.text
  15              	.Ltext0:
  16              		.cfi_sections	.debug_frame
  17              		.section	.text.LOS_QueueCreateSvc,"ax",%progbits
  18              		.align	1
  19              		.arch armv7e-m
  20              		.syntax unified
  21              		.thumb
  22              		.thumb_func
  23              		.fpu fpv4-sp-d16
  25              	LOS_QueueCreateSvc:
  26              	.LVL0:
  27              	.LFB348:
  28              		.file 1 "C:/Users/\262\334\274\322\272\300/.iotlink/sdk/IoT_LINK/iot_link/os/liteos/arch/arm/arm-m
   1:C:/Users/²Ü¼ÒºÀ/.iotlink/sdk/IoT_LINK/iot_link/os/liteos/arch/arm/arm-m/src\los_svc.c **** /*----------------------------------------------------------------------------
   2:C:/Users/²Ü¼ÒºÀ/.iotlink/sdk/IoT_LINK/iot_link/os/liteos/arch/arm/arm-m/src\los_svc.c ****  * Copyright (c) <2019>, <Huawei Technologies Co., Ltd>
   3:C:/Users/²Ü¼ÒºÀ/.iotlink/sdk/IoT_LINK/iot_link/os/liteos/arch/arm/arm-m/src\los_svc.c ****  * All rights reserved.
   4:C:/Users/²Ü¼ÒºÀ/.iotlink/sdk/IoT_LINK/iot_link/os/liteos/arch/arm/arm-m/src\los_svc.c ****  * Redistribution and use in source and binary forms, with or without modification,
   5:C:/Users/²Ü¼ÒºÀ/.iotlink/sdk/IoT_LINK/iot_link/os/liteos/arch/arm/arm-m/src\los_svc.c ****  * are permitted provided that the following conditions are met:
   6:C:/Users/²Ü¼ÒºÀ/.iotlink/sdk/IoT_LINK/iot_link/os/liteos/arch/arm/arm-m/src\los_svc.c ****  * 1. Redistributions of source code must retain the above copyright notice, this list of
   7:C:/Users/²Ü¼ÒºÀ/.iotlink/sdk/IoT_LINK/iot_link/os/liteos/arch/arm/arm-m/src\los_svc.c ****  * conditions and the following disclaimer.
   8:C:/Users/²Ü¼ÒºÀ/.iotlink/sdk/IoT_LINK/iot_link/os/liteos/arch/arm/arm-m/src\los_svc.c ****  * 2. Redistributions in binary form must reproduce the above copyright notice, this list
   9:C:/Users/²Ü¼ÒºÀ/.iotlink/sdk/IoT_LINK/iot_link/os/liteos/arch/arm/arm-m/src\los_svc.c ****  * of conditions and the following disclaimer in the documentation and/or other materials
  10:C:/Users/²Ü¼ÒºÀ/.iotlink/sdk/IoT_LINK/iot_link/os/liteos/arch/arm/arm-m/src\los_svc.c ****  * provided with the distribution.
  11:C:/Users/²Ü¼ÒºÀ/.iotlink/sdk/IoT_LINK/iot_link/os/liteos/arch/arm/arm-m/src\los_svc.c ****  * 3. Neither the name of the copyright holder nor the names of its contributors may be used
  12:C:/Users/²Ü¼ÒºÀ/.iotlink/sdk/IoT_LINK/iot_link/os/liteos/arch/arm/arm-m/src\los_svc.c ****  * to endorse or promote products derived from this software without specific prior written
  13:C:/Users/²Ü¼ÒºÀ/.iotlink/sdk/IoT_LINK/iot_link/os/liteos/arch/arm/arm-m/src\los_svc.c ****  * permission.
  14:C:/Users/²Ü¼ÒºÀ/.iotlink/sdk/IoT_LINK/iot_link/os/liteos/arch/arm/arm-m/src\los_svc.c ****  * THIS SOFTWARE IS PROVIDED BY THE COPYRIGHT HOLDERS AND CONTRIBUTORS
  15:C:/Users/²Ü¼ÒºÀ/.iotlink/sdk/IoT_LINK/iot_link/os/liteos/arch/arm/arm-m/src\los_svc.c ****  * "AS IS" AND ANY EXPRESS OR IMPLIED WARRANTIES, INCLUDING, BUT NOT LIMITED TO,
  16:C:/Users/²Ü¼ÒºÀ/.iotlink/sdk/IoT_LINK/iot_link/os/liteos/arch/arm/arm-m/src\los_svc.c ****  * THE IMPLIED WARRANTIES OF MERCHANTABILITY AND FITNESS FOR A PARTICULAR
  17:C:/Users/²Ü¼ÒºÀ/.iotlink/sdk/IoT_LINK/iot_link/os/liteos/arch/arm/arm-m/src\los_svc.c ****  * PURPOSE ARE DISCLAIMED. IN NO EVENT SHALL THE COPYRIGHT HOLDER OR
  18:C:/Users/²Ü¼ÒºÀ/.iotlink/sdk/IoT_LINK/iot_link/os/liteos/arch/arm/arm-m/src\los_svc.c ****  * CONTRIBUTORS BE LIABLE FOR ANY DIRECT, INDIRECT, INCIDENTAL, SPECIAL,
  19:C:/Users/²Ü¼ÒºÀ/.iotlink/sdk/IoT_LINK/iot_link/os/liteos/arch/arm/arm-m/src\los_svc.c ****  * EXEMPLARY, OR CONSEQUENTIAL DAMAGES (INCLUDING, BUT NOT LIMITED TO,
  20:C:/Users/²Ü¼ÒºÀ/.iotlink/sdk/IoT_LINK/iot_link/os/liteos/arch/arm/arm-m/src\los_svc.c ****  * PROCUREMENT OF SUBSTITUTE GOODS OR SERVICES; LOSS OF USE, DATA, OR PROFITS;
  21:C:/Users/²Ü¼ÒºÀ/.iotlink/sdk/IoT_LINK/iot_link/os/liteos/arch/arm/arm-m/src\los_svc.c ****  * OR BUSINESS INTERRUPTION) HOWEVER CAUSED AND ON ANY THEORY OF LIABILITY,
  22:C:/Users/²Ü¼ÒºÀ/.iotlink/sdk/IoT_LINK/iot_link/os/liteos/arch/arm/arm-m/src\los_svc.c ****  * WHETHER IN CONTRACT, STRICT LIABILITY, OR TORT (INCLUDING NEGLIGENCE OR
  23:C:/Users/²Ü¼ÒºÀ/.iotlink/sdk/IoT_LINK/iot_link/os/liteos/arch/arm/arm-m/src\los_svc.c ****  * OTHERWISE) ARISING IN ANY WAY OUT OF THE USE OF THIS SOFTWARE, EVEN IF
  24:C:/Users/²Ü¼ÒºÀ/.iotlink/sdk/IoT_LINK/iot_link/os/liteos/arch/arm/arm-m/src\los_svc.c ****  * ADVISED OF THE POSSIBILITY OF SUCH DAMAGE.
  25:C:/Users/²Ü¼ÒºÀ/.iotlink/sdk/IoT_LINK/iot_link/os/liteos/arch/arm/arm-m/src\los_svc.c ****  *---------------------------------------------------------------------------*/
  26:C:/Users/²Ü¼ÒºÀ/.iotlink/sdk/IoT_LINK/iot_link/os/liteos/arch/arm/arm-m/src\los_svc.c **** /*----------------------------------------------------------------------------
  27:C:/Users/²Ü¼ÒºÀ/.iotlink/sdk/IoT_LINK/iot_link/os/liteos/arch/arm/arm-m/src\los_svc.c ****  * Notice of Export Control Law
  28:C:/Users/²Ü¼ÒºÀ/.iotlink/sdk/IoT_LINK/iot_link/os/liteos/arch/arm/arm-m/src\los_svc.c ****  * ===============================================
  29:C:/Users/²Ü¼ÒºÀ/.iotlink/sdk/IoT_LINK/iot_link/os/liteos/arch/arm/arm-m/src\los_svc.c ****  * Huawei LiteOS may be subject to applicable export control laws and regulations, which might
  30:C:/Users/²Ü¼ÒºÀ/.iotlink/sdk/IoT_LINK/iot_link/os/liteos/arch/arm/arm-m/src\los_svc.c ****  * include those applicable to Huawei LiteOS of U.S. and the country in which you are located.
ARM GAS  C:\Users\²Ü¼ÒºÀ\AppData\Local\Temp\ccKhPaIi.s 			page 2


  31:C:/Users/²Ü¼ÒºÀ/.iotlink/sdk/IoT_LINK/iot_link/os/liteos/arch/arm/arm-m/src\los_svc.c ****  * Import, export and usage of Huawei LiteOS in any manner by you shall be in compliance with such
  32:C:/Users/²Ü¼ÒºÀ/.iotlink/sdk/IoT_LINK/iot_link/os/liteos/arch/arm/arm-m/src\los_svc.c ****  * applicable export control laws and regulations.
  33:C:/Users/²Ü¼ÒºÀ/.iotlink/sdk/IoT_LINK/iot_link/os/liteos/arch/arm/arm-m/src\los_svc.c ****  *---------------------------------------------------------------------------*/
  34:C:/Users/²Ü¼ÒºÀ/.iotlink/sdk/IoT_LINK/iot_link/os/liteos/arch/arm/arm-m/src\los_svc.c **** 
  35:C:/Users/²Ü¼ÒºÀ/.iotlink/sdk/IoT_LINK/iot_link/os/liteos/arch/arm/arm-m/src\los_svc.c **** #include <stdio.h>
  36:C:/Users/²Ü¼ÒºÀ/.iotlink/sdk/IoT_LINK/iot_link/os/liteos/arch/arm/arm-m/src\los_svc.c **** 
  37:C:/Users/²Ü¼ÒºÀ/.iotlink/sdk/IoT_LINK/iot_link/os/liteos/arch/arm/arm-m/src\los_svc.c **** #include <los_config.h>
  38:C:/Users/²Ü¼ÒºÀ/.iotlink/sdk/IoT_LINK/iot_link/os/liteos/arch/arm/arm-m/src\los_svc.c **** 
  39:C:/Users/²Ü¼ÒºÀ/.iotlink/sdk/IoT_LINK/iot_link/os/liteos/arch/arm/arm-m/src\los_svc.c **** #include <los_task.h>
  40:C:/Users/²Ü¼ÒºÀ/.iotlink/sdk/IoT_LINK/iot_link/os/liteos/arch/arm/arm-m/src\los_svc.c **** #include <los_membox.h>
  41:C:/Users/²Ü¼ÒºÀ/.iotlink/sdk/IoT_LINK/iot_link/os/liteos/arch/arm/arm-m/src\los_svc.c **** #include <los_memory.h>
  42:C:/Users/²Ü¼ÒºÀ/.iotlink/sdk/IoT_LINK/iot_link/os/liteos/arch/arm/arm-m/src\los_svc.c **** #include <los_queue.h>
  43:C:/Users/²Ü¼ÒºÀ/.iotlink/sdk/IoT_LINK/iot_link/os/liteos/arch/arm/arm-m/src\los_svc.c **** #include <los_event.h>
  44:C:/Users/²Ü¼ÒºÀ/.iotlink/sdk/IoT_LINK/iot_link/os/liteos/arch/arm/arm-m/src\los_svc.c **** #include <los_mux.h>
  45:C:/Users/²Ü¼ÒºÀ/.iotlink/sdk/IoT_LINK/iot_link/os/liteos/arch/arm/arm-m/src\los_svc.c **** #include <los_sem.h>
  46:C:/Users/²Ü¼ÒºÀ/.iotlink/sdk/IoT_LINK/iot_link/os/liteos/arch/arm/arm-m/src\los_svc.c **** #include <los_swtmr.h>
  47:C:/Users/²Ü¼ÒºÀ/.iotlink/sdk/IoT_LINK/iot_link/os/liteos/arch/arm/arm-m/src\los_svc.c **** #include <los_sys.h>
  48:C:/Users/²Ü¼ÒºÀ/.iotlink/sdk/IoT_LINK/iot_link/os/liteos/arch/arm/arm-m/src\los_svc.c **** 
  49:C:/Users/²Ü¼ÒºÀ/.iotlink/sdk/IoT_LINK/iot_link/os/liteos/arch/arm/arm-m/src\los_svc.c **** #include "los_svc.h"
  50:C:/Users/²Ü¼ÒºÀ/.iotlink/sdk/IoT_LINK/iot_link/os/liteos/arch/arm/arm-m/src\los_svc.c **** 
  51:C:/Users/²Ü¼ÒºÀ/.iotlink/sdk/IoT_LINK/iot_link/os/liteos/arch/arm/arm-m/src\los_svc.c **** typedef uint32_t (* syscall_rtn_t) (uint32_t);
  52:C:/Users/²Ü¼ÒºÀ/.iotlink/sdk/IoT_LINK/iot_link/os/liteos/arch/arm/arm-m/src\los_svc.c **** 
  53:C:/Users/²Ü¼ÒºÀ/.iotlink/sdk/IoT_LINK/iot_link/os/liteos/arch/arm/arm-m/src\los_svc.c **** const syscall_rtn_t svc_tbl_task [] =
  54:C:/Users/²Ü¼ÒºÀ/.iotlink/sdk/IoT_LINK/iot_link/os/liteos/arch/arm/arm-m/src\los_svc.c **** {
  55:C:/Users/²Ü¼ÒºÀ/.iotlink/sdk/IoT_LINK/iot_link/os/liteos/arch/arm/arm-m/src\los_svc.c **** #if (LOSCFG_STATIC_TASK == NO)
  56:C:/Users/²Ü¼ÒºÀ/.iotlink/sdk/IoT_LINK/iot_link/os/liteos/arch/arm/arm-m/src\los_svc.c ****     (syscall_rtn_t) LOS_TaskCreateOnly,
  57:C:/Users/²Ü¼ÒºÀ/.iotlink/sdk/IoT_LINK/iot_link/os/liteos/arch/arm/arm-m/src\los_svc.c ****     (syscall_rtn_t) LOS_TaskCreate,
  58:C:/Users/²Ü¼ÒºÀ/.iotlink/sdk/IoT_LINK/iot_link/os/liteos/arch/arm/arm-m/src\los_svc.c **** #else
  59:C:/Users/²Ü¼ÒºÀ/.iotlink/sdk/IoT_LINK/iot_link/os/liteos/arch/arm/arm-m/src\los_svc.c ****     (syscall_rtn_t) NULL,
  60:C:/Users/²Ü¼ÒºÀ/.iotlink/sdk/IoT_LINK/iot_link/os/liteos/arch/arm/arm-m/src\los_svc.c ****     (syscall_rtn_t) NULL,
  61:C:/Users/²Ü¼ÒºÀ/.iotlink/sdk/IoT_LINK/iot_link/os/liteos/arch/arm/arm-m/src\los_svc.c **** #endif
  62:C:/Users/²Ü¼ÒºÀ/.iotlink/sdk/IoT_LINK/iot_link/os/liteos/arch/arm/arm-m/src\los_svc.c ****     (syscall_rtn_t) LOS_TaskDelete,
  63:C:/Users/²Ü¼ÒºÀ/.iotlink/sdk/IoT_LINK/iot_link/os/liteos/arch/arm/arm-m/src\los_svc.c ****     (syscall_rtn_t) LOS_TaskResume,
  64:C:/Users/²Ü¼ÒºÀ/.iotlink/sdk/IoT_LINK/iot_link/os/liteos/arch/arm/arm-m/src\los_svc.c ****     (syscall_rtn_t) LOS_TaskSuspend,
  65:C:/Users/²Ü¼ÒºÀ/.iotlink/sdk/IoT_LINK/iot_link/os/liteos/arch/arm/arm-m/src\los_svc.c ****     (syscall_rtn_t) LOS_TaskDelay,
  66:C:/Users/²Ü¼ÒºÀ/.iotlink/sdk/IoT_LINK/iot_link/os/liteos/arch/arm/arm-m/src\los_svc.c ****     (syscall_rtn_t) LOS_TaskYield,
  67:C:/Users/²Ü¼ÒºÀ/.iotlink/sdk/IoT_LINK/iot_link/os/liteos/arch/arm/arm-m/src\los_svc.c ****     (syscall_rtn_t) LOS_TaskLock,
  68:C:/Users/²Ü¼ÒºÀ/.iotlink/sdk/IoT_LINK/iot_link/os/liteos/arch/arm/arm-m/src\los_svc.c ****     (syscall_rtn_t) LOS_TaskUnlock,
  69:C:/Users/²Ü¼ÒºÀ/.iotlink/sdk/IoT_LINK/iot_link/os/liteos/arch/arm/arm-m/src\los_svc.c ****     (syscall_rtn_t) LOS_CurTaskPriSet,
  70:C:/Users/²Ü¼ÒºÀ/.iotlink/sdk/IoT_LINK/iot_link/os/liteos/arch/arm/arm-m/src\los_svc.c ****     (syscall_rtn_t) LOS_TaskPriSet,
  71:C:/Users/²Ü¼ÒºÀ/.iotlink/sdk/IoT_LINK/iot_link/os/liteos/arch/arm/arm-m/src\los_svc.c ****     (syscall_rtn_t) LOS_TaskPriGet,
  72:C:/Users/²Ü¼ÒºÀ/.iotlink/sdk/IoT_LINK/iot_link/os/liteos/arch/arm/arm-m/src\los_svc.c ****     (syscall_rtn_t) LOS_CurTaskIDGet,
  73:C:/Users/²Ü¼ÒºÀ/.iotlink/sdk/IoT_LINK/iot_link/os/liteos/arch/arm/arm-m/src\los_svc.c ****     (syscall_rtn_t) LOS_TaskInfoGet,
  74:C:/Users/²Ü¼ÒºÀ/.iotlink/sdk/IoT_LINK/iot_link/os/liteos/arch/arm/arm-m/src\los_svc.c ****     (syscall_rtn_t) LOS_TaskStatusGet,
  75:C:/Users/²Ü¼ÒºÀ/.iotlink/sdk/IoT_LINK/iot_link/os/liteos/arch/arm/arm-m/src\los_svc.c ****     (syscall_rtn_t) LOS_TaskNameGet,
  76:C:/Users/²Ü¼ÒºÀ/.iotlink/sdk/IoT_LINK/iot_link/os/liteos/arch/arm/arm-m/src\los_svc.c ****     (syscall_rtn_t) LOS_TaskInfoMonitor,
  77:C:/Users/²Ü¼ÒºÀ/.iotlink/sdk/IoT_LINK/iot_link/os/liteos/arch/arm/arm-m/src\los_svc.c ****     (syscall_rtn_t) LOS_NextTaskIDGet,
  78:C:/Users/²Ü¼ÒºÀ/.iotlink/sdk/IoT_LINK/iot_link/os/liteos/arch/arm/arm-m/src\los_svc.c **** };
  79:C:/Users/²Ü¼ÒºÀ/.iotlink/sdk/IoT_LINK/iot_link/os/liteos/arch/arm/arm-m/src\los_svc.c **** 
  80:C:/Users/²Ü¼ÒºÀ/.iotlink/sdk/IoT_LINK/iot_link/os/liteos/arch/arm/arm-m/src\los_svc.c **** const syscall_rtn_t svc_tbl_mem [] =
  81:C:/Users/²Ü¼ÒºÀ/.iotlink/sdk/IoT_LINK/iot_link/os/liteos/arch/arm/arm-m/src\los_svc.c **** {
  82:C:/Users/²Ü¼ÒºÀ/.iotlink/sdk/IoT_LINK/iot_link/os/liteos/arch/arm/arm-m/src\los_svc.c ****     (syscall_rtn_t) LOS_MemboxInit,
  83:C:/Users/²Ü¼ÒºÀ/.iotlink/sdk/IoT_LINK/iot_link/os/liteos/arch/arm/arm-m/src\los_svc.c ****     (syscall_rtn_t) LOS_MemboxClr,
  84:C:/Users/²Ü¼ÒºÀ/.iotlink/sdk/IoT_LINK/iot_link/os/liteos/arch/arm/arm-m/src\los_svc.c ****     (syscall_rtn_t) LOS_MemboxAlloc,
  85:C:/Users/²Ü¼ÒºÀ/.iotlink/sdk/IoT_LINK/iot_link/os/liteos/arch/arm/arm-m/src\los_svc.c ****     (syscall_rtn_t) LOS_MemboxFree,
  86:C:/Users/²Ü¼ÒºÀ/.iotlink/sdk/IoT_LINK/iot_link/os/liteos/arch/arm/arm-m/src\los_svc.c ****     (syscall_rtn_t) LOS_MemboxStatisticsGet,
  87:C:/Users/²Ü¼ÒºÀ/.iotlink/sdk/IoT_LINK/iot_link/os/liteos/arch/arm/arm-m/src\los_svc.c ****     (syscall_rtn_t) LOS_MemInit,
ARM GAS  C:\Users\²Ü¼ÒºÀ\AppData\Local\Temp\ccKhPaIi.s 			page 3


  88:C:/Users/²Ü¼ÒºÀ/.iotlink/sdk/IoT_LINK/iot_link/os/liteos/arch/arm/arm-m/src\los_svc.c ****     (syscall_rtn_t) LOS_MemAlloc,
  89:C:/Users/²Ü¼ÒºÀ/.iotlink/sdk/IoT_LINK/iot_link/os/liteos/arch/arm/arm-m/src\los_svc.c ****     (syscall_rtn_t) LOS_MemFree,
  90:C:/Users/²Ü¼ÒºÀ/.iotlink/sdk/IoT_LINK/iot_link/os/liteos/arch/arm/arm-m/src\los_svc.c ****     (syscall_rtn_t) LOS_MemRealloc,
  91:C:/Users/²Ü¼ÒºÀ/.iotlink/sdk/IoT_LINK/iot_link/os/liteos/arch/arm/arm-m/src\los_svc.c ****     (syscall_rtn_t) LOS_MemAllocAlign,
  92:C:/Users/²Ü¼ÒºÀ/.iotlink/sdk/IoT_LINK/iot_link/os/liteos/arch/arm/arm-m/src\los_svc.c **** };
  93:C:/Users/²Ü¼ÒºÀ/.iotlink/sdk/IoT_LINK/iot_link/os/liteos/arch/arm/arm-m/src\los_svc.c **** 
  94:C:/Users/²Ü¼ÒºÀ/.iotlink/sdk/IoT_LINK/iot_link/os/liteos/arch/arm/arm-m/src\los_svc.c **** #if (LOSCFG_BASE_IPC_QUEUE == YES)
  95:C:/Users/²Ü¼ÒºÀ/.iotlink/sdk/IoT_LINK/iot_link/os/liteos/arch/arm/arm-m/src\los_svc.c ****     
  96:C:/Users/²Ü¼ÒºÀ/.iotlink/sdk/IoT_LINK/iot_link/os/liteos/arch/arm/arm-m/src\los_svc.c **** static UINT32 LOS_QueueCreateSvc (QUEUE_INIT_PARAM_S *pstInitParam)
  97:C:/Users/²Ü¼ÒºÀ/.iotlink/sdk/IoT_LINK/iot_link/os/liteos/arch/arm/arm-m/src\los_svc.c **** {
  29              		.loc 1 97 1 view -0
  30              		.cfi_startproc
  31              		@ args = 0, pretend = 0, frame = 0
  32              		@ frame_needed = 0, uses_anonymous_args = 0
  98:C:/Users/²Ü¼ÒºÀ/.iotlink/sdk/IoT_LINK/iot_link/os/liteos/arch/arm/arm-m/src\los_svc.c ****     return LOS_QueueCreate(pstInitParam->pcQueueName, pstInitParam->usLen, 
  33              		.loc 1 98 5 view .LVU1
  97:C:/Users/²Ü¼ÒºÀ/.iotlink/sdk/IoT_LINK/iot_link/os/liteos/arch/arm/arm-m/src\los_svc.c ****     return LOS_QueueCreate(pstInitParam->pcQueueName, pstInitParam->usLen, 
  34              		.loc 1 97 1 is_stmt 0 view .LVU2
  35 0000 07B5     		push	{r0, r1, r2, lr}
  36              	.LCFI0:
  37              		.cfi_def_cfa_offset 16
  38              		.cfi_offset 14, -4
  39              		.loc 1 98 12 view .LVU3
  40 0002 038A     		ldrh	r3, [r0, #16]
  41 0004 0093     		str	r3, [sp]
  42 0006 D0E90223 		ldrd	r2, r3, [r0, #8]
  43 000a 8188     		ldrh	r1, [r0, #4]
  44 000c 0068     		ldr	r0, [r0]
  45              	.LVL1:
  46              		.loc 1 98 12 view .LVU4
  47 000e FFF7FEFF 		bl	LOS_QueueCreate
  48              	.LVL2:
  99:C:/Users/²Ü¼ÒºÀ/.iotlink/sdk/IoT_LINK/iot_link/os/liteos/arch/arm/arm-m/src\los_svc.c ****                            pstInitParam->puwQueueID, pstInitParam->uwFlags,
 100:C:/Users/²Ü¼ÒºÀ/.iotlink/sdk/IoT_LINK/iot_link/os/liteos/arch/arm/arm-m/src\los_svc.c ****                            pstInitParam->usMaxMsgSize);
 101:C:/Users/²Ü¼ÒºÀ/.iotlink/sdk/IoT_LINK/iot_link/os/liteos/arch/arm/arm-m/src\los_svc.c **** }
  49              		.loc 1 101 1 view .LVU5
  50 0012 03B0     		add	sp, sp, #12
  51              	.LCFI1:
  52              		.cfi_def_cfa_offset 4
  53              		@ sp needed
  54 0014 5DF804FB 		ldr	pc, [sp], #4
  55              		.cfi_endproc
  56              	.LFE348:
  58              		.section	.text.LOS_UsrTaskCreateOnly,"ax",%progbits
  59              		.align	1
  60              		.weak	LOS_UsrTaskCreateOnly
  61              		.syntax unified
  62              		.thumb
  63              		.thumb_func
  64              		.fpu fpv4-sp-d16
  66              	LOS_UsrTaskCreateOnly:
  67              	.LVL3:
  68              	.LFB287:
  69              		.file 2 "C:/Users/\262\334\274\322\272\300/.iotlink/sdk/IoT_LINK/iot_link/os/liteos/arch/arm/arm-m
   1:C:/Users/²Ü¼ÒºÀ/.iotlink/sdk/IoT_LINK/iot_link/os/liteos/arch/arm/arm-m/include\los_svc.h **** /*----------------------------------------------------------------------------
   2:C:/Users/²Ü¼ÒºÀ/.iotlink/sdk/IoT_LINK/iot_link/os/liteos/arch/arm/arm-m/include\los_svc.h ****  * Copyright (c) <2019>, <Huawei Technologies Co., Ltd>
   3:C:/Users/²Ü¼ÒºÀ/.iotlink/sdk/IoT_LINK/iot_link/os/liteos/arch/arm/arm-m/include\los_svc.h ****  * All rights reserved.
ARM GAS  C:\Users\²Ü¼ÒºÀ\AppData\Local\Temp\ccKhPaIi.s 			page 4


   4:C:/Users/²Ü¼ÒºÀ/.iotlink/sdk/IoT_LINK/iot_link/os/liteos/arch/arm/arm-m/include\los_svc.h ****  * Redistribution and use in source and binary forms, with or without modification,
   5:C:/Users/²Ü¼ÒºÀ/.iotlink/sdk/IoT_LINK/iot_link/os/liteos/arch/arm/arm-m/include\los_svc.h ****  * are permitted provided that the following conditions are met:
   6:C:/Users/²Ü¼ÒºÀ/.iotlink/sdk/IoT_LINK/iot_link/os/liteos/arch/arm/arm-m/include\los_svc.h ****  * 1. Redistributions of source code must retain the above copyright notice, this list of
   7:C:/Users/²Ü¼ÒºÀ/.iotlink/sdk/IoT_LINK/iot_link/os/liteos/arch/arm/arm-m/include\los_svc.h ****  * conditions and the following disclaimer.
   8:C:/Users/²Ü¼ÒºÀ/.iotlink/sdk/IoT_LINK/iot_link/os/liteos/arch/arm/arm-m/include\los_svc.h ****  * 2. Redistributions in binary form must reproduce the above copyright notice, this list
   9:C:/Users/²Ü¼ÒºÀ/.iotlink/sdk/IoT_LINK/iot_link/os/liteos/arch/arm/arm-m/include\los_svc.h ****  * of conditions and the following disclaimer in the documentation and/or other materials
  10:C:/Users/²Ü¼ÒºÀ/.iotlink/sdk/IoT_LINK/iot_link/os/liteos/arch/arm/arm-m/include\los_svc.h ****  * provided with the distribution.
  11:C:/Users/²Ü¼ÒºÀ/.iotlink/sdk/IoT_LINK/iot_link/os/liteos/arch/arm/arm-m/include\los_svc.h ****  * 3. Neither the name of the copyright holder nor the names of its contributors may be used
  12:C:/Users/²Ü¼ÒºÀ/.iotlink/sdk/IoT_LINK/iot_link/os/liteos/arch/arm/arm-m/include\los_svc.h ****  * to endorse or promote products derived from this software without specific prior written
  13:C:/Users/²Ü¼ÒºÀ/.iotlink/sdk/IoT_LINK/iot_link/os/liteos/arch/arm/arm-m/include\los_svc.h ****  * permission.
  14:C:/Users/²Ü¼ÒºÀ/.iotlink/sdk/IoT_LINK/iot_link/os/liteos/arch/arm/arm-m/include\los_svc.h ****  * THIS SOFTWARE IS PROVIDED BY THE COPYRIGHT HOLDERS AND CONTRIBUTORS
  15:C:/Users/²Ü¼ÒºÀ/.iotlink/sdk/IoT_LINK/iot_link/os/liteos/arch/arm/arm-m/include\los_svc.h ****  * "AS IS" AND ANY EXPRESS OR IMPLIED WARRANTIES, INCLUDING, BUT NOT LIMITED TO,
  16:C:/Users/²Ü¼ÒºÀ/.iotlink/sdk/IoT_LINK/iot_link/os/liteos/arch/arm/arm-m/include\los_svc.h ****  * THE IMPLIED WARRANTIES OF MERCHANTABILITY AND FITNESS FOR A PARTICULAR
  17:C:/Users/²Ü¼ÒºÀ/.iotlink/sdk/IoT_LINK/iot_link/os/liteos/arch/arm/arm-m/include\los_svc.h ****  * PURPOSE ARE DISCLAIMED. IN NO EVENT SHALL THE COPYRIGHT HOLDER OR
  18:C:/Users/²Ü¼ÒºÀ/.iotlink/sdk/IoT_LINK/iot_link/os/liteos/arch/arm/arm-m/include\los_svc.h ****  * CONTRIBUTORS BE LIABLE FOR ANY DIRECT, INDIRECT, INCIDENTAL, SPECIAL,
  19:C:/Users/²Ü¼ÒºÀ/.iotlink/sdk/IoT_LINK/iot_link/os/liteos/arch/arm/arm-m/include\los_svc.h ****  * EXEMPLARY, OR CONSEQUENTIAL DAMAGES (INCLUDING, BUT NOT LIMITED TO,
  20:C:/Users/²Ü¼ÒºÀ/.iotlink/sdk/IoT_LINK/iot_link/os/liteos/arch/arm/arm-m/include\los_svc.h ****  * PROCUREMENT OF SUBSTITUTE GOODS OR SERVICES; LOSS OF USE, DATA, OR PROFITS;
  21:C:/Users/²Ü¼ÒºÀ/.iotlink/sdk/IoT_LINK/iot_link/os/liteos/arch/arm/arm-m/include\los_svc.h ****  * OR BUSINESS INTERRUPTION) HOWEVER CAUSED AND ON ANY THEORY OF LIABILITY,
  22:C:/Users/²Ü¼ÒºÀ/.iotlink/sdk/IoT_LINK/iot_link/os/liteos/arch/arm/arm-m/include\los_svc.h ****  * WHETHER IN CONTRACT, STRICT LIABILITY, OR TORT (INCLUDING NEGLIGENCE OR
  23:C:/Users/²Ü¼ÒºÀ/.iotlink/sdk/IoT_LINK/iot_link/os/liteos/arch/arm/arm-m/include\los_svc.h ****  * OTHERWISE) ARISING IN ANY WAY OUT OF THE USE OF THIS SOFTWARE, EVEN IF
  24:C:/Users/²Ü¼ÒºÀ/.iotlink/sdk/IoT_LINK/iot_link/os/liteos/arch/arm/arm-m/include\los_svc.h ****  * ADVISED OF THE POSSIBILITY OF SUCH DAMAGE.
  25:C:/Users/²Ü¼ÒºÀ/.iotlink/sdk/IoT_LINK/iot_link/os/liteos/arch/arm/arm-m/include\los_svc.h ****  *---------------------------------------------------------------------------*/
  26:C:/Users/²Ü¼ÒºÀ/.iotlink/sdk/IoT_LINK/iot_link/os/liteos/arch/arm/arm-m/include\los_svc.h **** /*----------------------------------------------------------------------------
  27:C:/Users/²Ü¼ÒºÀ/.iotlink/sdk/IoT_LINK/iot_link/os/liteos/arch/arm/arm-m/include\los_svc.h ****  * Notice of Export Control Law
  28:C:/Users/²Ü¼ÒºÀ/.iotlink/sdk/IoT_LINK/iot_link/os/liteos/arch/arm/arm-m/include\los_svc.h ****  * ===============================================
  29:C:/Users/²Ü¼ÒºÀ/.iotlink/sdk/IoT_LINK/iot_link/os/liteos/arch/arm/arm-m/include\los_svc.h ****  * Huawei LiteOS may be subject to applicable export control laws and regulations, which might
  30:C:/Users/²Ü¼ÒºÀ/.iotlink/sdk/IoT_LINK/iot_link/os/liteos/arch/arm/arm-m/include\los_svc.h ****  * include those applicable to Huawei LiteOS of U.S. and the country in which you are located.
  31:C:/Users/²Ü¼ÒºÀ/.iotlink/sdk/IoT_LINK/iot_link/os/liteos/arch/arm/arm-m/include\los_svc.h ****  * Import, export and usage of Huawei LiteOS in any manner by you shall be in compliance with such
  32:C:/Users/²Ü¼ÒºÀ/.iotlink/sdk/IoT_LINK/iot_link/os/liteos/arch/arm/arm-m/include\los_svc.h ****  * applicable export control laws and regulations.
  33:C:/Users/²Ü¼ÒºÀ/.iotlink/sdk/IoT_LINK/iot_link/os/liteos/arch/arm/arm-m/include\los_svc.h ****  *---------------------------------------------------------------------------*/
  34:C:/Users/²Ü¼ÒºÀ/.iotlink/sdk/IoT_LINK/iot_link/os/liteos/arch/arm/arm-m/include\los_svc.h **** 
  35:C:/Users/²Ü¼ÒºÀ/.iotlink/sdk/IoT_LINK/iot_link/os/liteos/arch/arm/arm-m/include\los_svc.h **** #ifndef _LOS_SVC_H
  36:C:/Users/²Ü¼ÒºÀ/.iotlink/sdk/IoT_LINK/iot_link/os/liteos/arch/arm/arm-m/include\los_svc.h **** #define _LOS_SVC_H
  37:C:/Users/²Ü¼ÒºÀ/.iotlink/sdk/IoT_LINK/iot_link/os/liteos/arch/arm/arm-m/include\los_svc.h **** 
  38:C:/Users/²Ü¼ÒºÀ/.iotlink/sdk/IoT_LINK/iot_link/os/liteos/arch/arm/arm-m/include\los_svc.h **** #include <los_config.h>
  39:C:/Users/²Ü¼ÒºÀ/.iotlink/sdk/IoT_LINK/iot_link/os/liteos/arch/arm/arm-m/include\los_svc.h **** #include <los_typedef.h>
  40:C:/Users/²Ü¼ÒºÀ/.iotlink/sdk/IoT_LINK/iot_link/os/liteos/arch/arm/arm-m/include\los_svc.h **** 
  41:C:/Users/²Ü¼ÒºÀ/.iotlink/sdk/IoT_LINK/iot_link/os/liteos/arch/arm/arm-m/include\los_svc.h **** #include <los_task.h>
  42:C:/Users/²Ü¼ÒºÀ/.iotlink/sdk/IoT_LINK/iot_link/os/liteos/arch/arm/arm-m/include\los_svc.h **** #include <los_membox.h>
  43:C:/Users/²Ü¼ÒºÀ/.iotlink/sdk/IoT_LINK/iot_link/os/liteos/arch/arm/arm-m/include\los_svc.h **** #include <los_memory.h>
  44:C:/Users/²Ü¼ÒºÀ/.iotlink/sdk/IoT_LINK/iot_link/os/liteos/arch/arm/arm-m/include\los_svc.h **** #include <los_queue.h>
  45:C:/Users/²Ü¼ÒºÀ/.iotlink/sdk/IoT_LINK/iot_link/os/liteos/arch/arm/arm-m/include\los_svc.h **** #include <los_event.h>
  46:C:/Users/²Ü¼ÒºÀ/.iotlink/sdk/IoT_LINK/iot_link/os/liteos/arch/arm/arm-m/include\los_svc.h **** #include <los_mux.h>
  47:C:/Users/²Ü¼ÒºÀ/.iotlink/sdk/IoT_LINK/iot_link/os/liteos/arch/arm/arm-m/include\los_svc.h **** #include <los_sem.h>
  48:C:/Users/²Ü¼ÒºÀ/.iotlink/sdk/IoT_LINK/iot_link/os/liteos/arch/arm/arm-m/include\los_svc.h **** #include <los_swtmr.h>
  49:C:/Users/²Ü¼ÒºÀ/.iotlink/sdk/IoT_LINK/iot_link/os/liteos/arch/arm/arm-m/include\los_svc.h **** #include <los_sys.h>
  50:C:/Users/²Ü¼ÒºÀ/.iotlink/sdk/IoT_LINK/iot_link/os/liteos/arch/arm/arm-m/include\los_svc.h **** 
  51:C:/Users/²Ü¼ÒºÀ/.iotlink/sdk/IoT_LINK/iot_link/os/liteos/arch/arm/arm-m/include\los_svc.h **** /*
  52:C:/Users/²Ü¼ÒºÀ/.iotlink/sdk/IoT_LINK/iot_link/os/liteos/arch/arm/arm-m/include\los_svc.h ****  * syscall number bits:
  53:C:/Users/²Ü¼ÒºÀ/.iotlink/sdk/IoT_LINK/iot_link/os/liteos/arch/arm/arm-m/include\los_svc.h ****  *
  54:C:/Users/²Ü¼ÒºÀ/.iotlink/sdk/IoT_LINK/iot_link/os/liteos/arch/arm/arm-m/include\los_svc.h ****  *     8-bits        8-bits               16-bits
  55:C:/Users/²Ü¼ÒºÀ/.iotlink/sdk/IoT_LINK/iot_link/os/liteos/arch/arm/arm-m/include\los_svc.h ****  * ------------------------------------------------------------
  56:C:/Users/²Ü¼ÒºÀ/.iotlink/sdk/IoT_LINK/iot_link/os/liteos/arch/arm/arm-m/include\los_svc.h ****  * |           |               |                              |
  57:C:/Users/²Ü¼ÒºÀ/.iotlink/sdk/IoT_LINK/iot_link/os/liteos/arch/arm/arm-m/include\los_svc.h ****  * |  module#  |  args_on_sp#  |           routine#           |
  58:C:/Users/²Ü¼ÒºÀ/.iotlink/sdk/IoT_LINK/iot_link/os/liteos/arch/arm/arm-m/include\los_svc.h ****  * |           |               |                              |
  59:C:/Users/²Ü¼ÒºÀ/.iotlink/sdk/IoT_LINK/iot_link/os/liteos/arch/arm/arm-m/include\los_svc.h ****  * ------------------------------------------------------------
  60:C:/Users/²Ü¼ÒºÀ/.iotlink/sdk/IoT_LINK/iot_link/os/liteos/arch/arm/arm-m/include\los_svc.h ****  * 31          23              15                             0
ARM GAS  C:\Users\²Ü¼ÒºÀ\AppData\Local\Temp\ccKhPaIi.s 			page 5


  61:C:/Users/²Ü¼ÒºÀ/.iotlink/sdk/IoT_LINK/iot_link/os/liteos/arch/arm/arm-m/include\los_svc.h ****  */
  62:C:/Users/²Ü¼ÒºÀ/.iotlink/sdk/IoT_LINK/iot_link/os/liteos/arch/arm/arm-m/include\los_svc.h **** 
  63:C:/Users/²Ü¼ÒºÀ/.iotlink/sdk/IoT_LINK/iot_link/os/liteos/arch/arm/arm-m/include\los_svc.h **** #define SVC_NUM(mod, args, rtn)                 \
  64:C:/Users/²Ü¼ÒºÀ/.iotlink/sdk/IoT_LINK/iot_link/os/liteos/arch/arm/arm-m/include\los_svc.h ****     (((mod) << 24) + (((args) & 0x0f) << 16) + ((rtn) & 0xffff))
  65:C:/Users/²Ü¼ÒºÀ/.iotlink/sdk/IoT_LINK/iot_link/os/liteos/arch/arm/arm-m/include\los_svc.h **** 
  66:C:/Users/²Ü¼ÒºÀ/.iotlink/sdk/IoT_LINK/iot_link/os/liteos/arch/arm/arm-m/include\los_svc.h **** /* module ids */
  67:C:/Users/²Ü¼ÒºÀ/.iotlink/sdk/IoT_LINK/iot_link/os/liteos/arch/arm/arm-m/include\los_svc.h **** 
  68:C:/Users/²Ü¼ÒºÀ/.iotlink/sdk/IoT_LINK/iot_link/os/liteos/arch/arm/arm-m/include\los_svc.h **** #define MOD_TASK                        0
  69:C:/Users/²Ü¼ÒºÀ/.iotlink/sdk/IoT_LINK/iot_link/os/liteos/arch/arm/arm-m/include\los_svc.h **** #define MOD_MEM                         1
  70:C:/Users/²Ü¼ÒºÀ/.iotlink/sdk/IoT_LINK/iot_link/os/liteos/arch/arm/arm-m/include\los_svc.h **** #define MOD_QUEUE                       2
  71:C:/Users/²Ü¼ÒºÀ/.iotlink/sdk/IoT_LINK/iot_link/os/liteos/arch/arm/arm-m/include\los_svc.h **** #define MOD_EVENT                       3
  72:C:/Users/²Ü¼ÒºÀ/.iotlink/sdk/IoT_LINK/iot_link/os/liteos/arch/arm/arm-m/include\los_svc.h **** #define MOD_MUX                         4
  73:C:/Users/²Ü¼ÒºÀ/.iotlink/sdk/IoT_LINK/iot_link/os/liteos/arch/arm/arm-m/include\los_svc.h **** #define MOD_SEM                         5
  74:C:/Users/²Ü¼ÒºÀ/.iotlink/sdk/IoT_LINK/iot_link/os/liteos/arch/arm/arm-m/include\los_svc.h **** #define MOD_SWTIMER                     6
  75:C:/Users/²Ü¼ÒºÀ/.iotlink/sdk/IoT_LINK/iot_link/os/liteos/arch/arm/arm-m/include\los_svc.h **** #define MOD_SYS                         7
  76:C:/Users/²Ü¼ÒºÀ/.iotlink/sdk/IoT_LINK/iot_link/os/liteos/arch/arm/arm-m/include\los_svc.h **** #define MOD_CUSTOM                      15
  77:C:/Users/²Ü¼ÒºÀ/.iotlink/sdk/IoT_LINK/iot_link/os/liteos/arch/arm/arm-m/include\los_svc.h **** 
  78:C:/Users/²Ü¼ÒºÀ/.iotlink/sdk/IoT_LINK/iot_link/os/liteos/arch/arm/arm-m/include\los_svc.h **** /* syscall numbers for task module */
  79:C:/Users/²Ü¼ÒºÀ/.iotlink/sdk/IoT_LINK/iot_link/os/liteos/arch/arm/arm-m/include\los_svc.h **** 
  80:C:/Users/²Ü¼ÒºÀ/.iotlink/sdk/IoT_LINK/iot_link/os/liteos/arch/arm/arm-m/include\los_svc.h **** #define SCN_TaskCreateOnly              SVC_NUM (MOD_TASK, 2, 0)
  81:C:/Users/²Ü¼ÒºÀ/.iotlink/sdk/IoT_LINK/iot_link/os/liteos/arch/arm/arm-m/include\los_svc.h **** #define SCN_TaskCreate                  SVC_NUM (MOD_TASK, 2, 1)
  82:C:/Users/²Ü¼ÒºÀ/.iotlink/sdk/IoT_LINK/iot_link/os/liteos/arch/arm/arm-m/include\los_svc.h **** #define SCN_TaskDelete                  SVC_NUM (MOD_TASK, 1, 2)
  83:C:/Users/²Ü¼ÒºÀ/.iotlink/sdk/IoT_LINK/iot_link/os/liteos/arch/arm/arm-m/include\los_svc.h **** #define SCN_TaskResume                  SVC_NUM (MOD_TASK, 1, 3)
  84:C:/Users/²Ü¼ÒºÀ/.iotlink/sdk/IoT_LINK/iot_link/os/liteos/arch/arm/arm-m/include\los_svc.h **** #define SCN_TaskSuspend                 SVC_NUM (MOD_TASK, 1, 4)
  85:C:/Users/²Ü¼ÒºÀ/.iotlink/sdk/IoT_LINK/iot_link/os/liteos/arch/arm/arm-m/include\los_svc.h **** #define SCN_TaskDelay                   SVC_NUM (MOD_TASK, 1, 5)
  86:C:/Users/²Ü¼ÒºÀ/.iotlink/sdk/IoT_LINK/iot_link/os/liteos/arch/arm/arm-m/include\los_svc.h **** #define SCN_TaskYield                   SVC_NUM (MOD_TASK, 0, 6)
  87:C:/Users/²Ü¼ÒºÀ/.iotlink/sdk/IoT_LINK/iot_link/os/liteos/arch/arm/arm-m/include\los_svc.h **** #define SCN_TaskLock                    SVC_NUM (MOD_TASK, 0, 7)
  88:C:/Users/²Ü¼ÒºÀ/.iotlink/sdk/IoT_LINK/iot_link/os/liteos/arch/arm/arm-m/include\los_svc.h **** #define SCN_TaskUnlock                  SVC_NUM (MOD_TASK, 0, 8)
  89:C:/Users/²Ü¼ÒºÀ/.iotlink/sdk/IoT_LINK/iot_link/os/liteos/arch/arm/arm-m/include\los_svc.h **** #define SCN_CurTaskPriSet               SVC_NUM (MOD_TASK, 1, 9)
  90:C:/Users/²Ü¼ÒºÀ/.iotlink/sdk/IoT_LINK/iot_link/os/liteos/arch/arm/arm-m/include\los_svc.h **** #define SCN_TaskPriSet                  SVC_NUM (MOD_TASK, 2, 10)
  91:C:/Users/²Ü¼ÒºÀ/.iotlink/sdk/IoT_LINK/iot_link/os/liteos/arch/arm/arm-m/include\los_svc.h **** #define SCN_TaskPriGet                  SVC_NUM (MOD_TASK, 1, 11)
  92:C:/Users/²Ü¼ÒºÀ/.iotlink/sdk/IoT_LINK/iot_link/os/liteos/arch/arm/arm-m/include\los_svc.h **** #define SCN_CurTaskIDGet                SVC_NUM (MOD_TASK, 0, 12)
  93:C:/Users/²Ü¼ÒºÀ/.iotlink/sdk/IoT_LINK/iot_link/os/liteos/arch/arm/arm-m/include\los_svc.h **** #define SCN_TaskInfoGet                 SVC_NUM (MOD_TASK, 2, 13)
  94:C:/Users/²Ü¼ÒºÀ/.iotlink/sdk/IoT_LINK/iot_link/os/liteos/arch/arm/arm-m/include\los_svc.h **** #define SCN_TaskStatusGet               SVC_NUM (MOD_TASK, 2, 14)
  95:C:/Users/²Ü¼ÒºÀ/.iotlink/sdk/IoT_LINK/iot_link/os/liteos/arch/arm/arm-m/include\los_svc.h **** #define SCN_TaskNameGet                 SVC_NUM (MOD_TASK, 0, 15)
  96:C:/Users/²Ü¼ÒºÀ/.iotlink/sdk/IoT_LINK/iot_link/os/liteos/arch/arm/arm-m/include\los_svc.h **** #define SCN_TaskInfoMonitor             SVC_NUM (MOD_TASK, 0, 16)
  97:C:/Users/²Ü¼ÒºÀ/.iotlink/sdk/IoT_LINK/iot_link/os/liteos/arch/arm/arm-m/include\los_svc.h **** #define SCN_NextTaskIDGet               SVC_NUM (MOD_TASK, 0, 17)
  98:C:/Users/²Ü¼ÒºÀ/.iotlink/sdk/IoT_LINK/iot_link/os/liteos/arch/arm/arm-m/include\los_svc.h **** 
  99:C:/Users/²Ü¼ÒºÀ/.iotlink/sdk/IoT_LINK/iot_link/os/liteos/arch/arm/arm-m/include\los_svc.h **** /* syscall numbers for memory module */
 100:C:/Users/²Ü¼ÒºÀ/.iotlink/sdk/IoT_LINK/iot_link/os/liteos/arch/arm/arm-m/include\los_svc.h **** 
 101:C:/Users/²Ü¼ÒºÀ/.iotlink/sdk/IoT_LINK/iot_link/os/liteos/arch/arm/arm-m/include\los_svc.h **** #define SCN_MemboxInit                  SVC_NUM (MOD_MEM, 3, 0)
 102:C:/Users/²Ü¼ÒºÀ/.iotlink/sdk/IoT_LINK/iot_link/os/liteos/arch/arm/arm-m/include\los_svc.h **** #define SCN_MemboxClr                   SVC_NUM (MOD_MEM, 2, 1)
 103:C:/Users/²Ü¼ÒºÀ/.iotlink/sdk/IoT_LINK/iot_link/os/liteos/arch/arm/arm-m/include\los_svc.h **** #define SCN_MemboxAlloc                 SVC_NUM (MOD_MEM, 1, 2)
 104:C:/Users/²Ü¼ÒºÀ/.iotlink/sdk/IoT_LINK/iot_link/os/liteos/arch/arm/arm-m/include\los_svc.h **** #define SCN_MemboxFree                  SVC_NUM (MOD_MEM, 2, 3)
 105:C:/Users/²Ü¼ÒºÀ/.iotlink/sdk/IoT_LINK/iot_link/os/liteos/arch/arm/arm-m/include\los_svc.h **** #define SCN_MemboxStatisticsGet         SVC_NUM (MOD_MEM, 4, 4)
 106:C:/Users/²Ü¼ÒºÀ/.iotlink/sdk/IoT_LINK/iot_link/os/liteos/arch/arm/arm-m/include\los_svc.h **** #define SCN_MemInit                     SVC_NUM (MOD_MEM, 2, 5)
 107:C:/Users/²Ü¼ÒºÀ/.iotlink/sdk/IoT_LINK/iot_link/os/liteos/arch/arm/arm-m/include\los_svc.h **** #define SCN_MemAlloc                    SVC_NUM (MOD_MEM, 2, 6)
 108:C:/Users/²Ü¼ÒºÀ/.iotlink/sdk/IoT_LINK/iot_link/os/liteos/arch/arm/arm-m/include\los_svc.h **** #define SCN_MemFree                     SVC_NUM (MOD_MEM, 2, 7)
 109:C:/Users/²Ü¼ÒºÀ/.iotlink/sdk/IoT_LINK/iot_link/os/liteos/arch/arm/arm-m/include\los_svc.h **** #define SCN_MemRealloc                  SVC_NUM (MOD_MEM, 3, 8)
 110:C:/Users/²Ü¼ÒºÀ/.iotlink/sdk/IoT_LINK/iot_link/os/liteos/arch/arm/arm-m/include\los_svc.h **** #define SCN_MemAllocAlign               SVC_NUM (MOD_MEM, 3, 9)
 111:C:/Users/²Ü¼ÒºÀ/.iotlink/sdk/IoT_LINK/iot_link/os/liteos/arch/arm/arm-m/include\los_svc.h **** //#define SCN_MemStatisticsGet            SVC_NUM (MOD_MEM, 2, 10)
 112:C:/Users/²Ü¼ÒºÀ/.iotlink/sdk/IoT_LINK/iot_link/os/liteos/arch/arm/arm-m/include\los_svc.h **** //#define SCN_MemGetMaxFreeBlkSize        SVC_NUM (MOD_MEM, 1, 11)
 113:C:/Users/²Ü¼ÒºÀ/.iotlink/sdk/IoT_LINK/iot_link/os/liteos/arch/arm/arm-m/include\los_svc.h **** 
 114:C:/Users/²Ü¼ÒºÀ/.iotlink/sdk/IoT_LINK/iot_link/os/liteos/arch/arm/arm-m/include\los_svc.h **** /* syscall numbers for queue module */
 115:C:/Users/²Ü¼ÒºÀ/.iotlink/sdk/IoT_LINK/iot_link/os/liteos/arch/arm/arm-m/include\los_svc.h **** 
 116:C:/Users/²Ü¼ÒºÀ/.iotlink/sdk/IoT_LINK/iot_link/os/liteos/arch/arm/arm-m/include\los_svc.h **** #define SCN_QueueCreate                 SVC_NUM (MOD_QUEUE, 5, 0)
 117:C:/Users/²Ü¼ÒºÀ/.iotlink/sdk/IoT_LINK/iot_link/os/liteos/arch/arm/arm-m/include\los_svc.h **** #define SCN_QueueRead                   SVC_NUM (MOD_QUEUE, 4, 1)
ARM GAS  C:\Users\²Ü¼ÒºÀ\AppData\Local\Temp\ccKhPaIi.s 			page 6


 118:C:/Users/²Ü¼ÒºÀ/.iotlink/sdk/IoT_LINK/iot_link/os/liteos/arch/arm/arm-m/include\los_svc.h **** #define SCN_QueueWrite                  SVC_NUM (MOD_QUEUE, 4, 2)
 119:C:/Users/²Ü¼ÒºÀ/.iotlink/sdk/IoT_LINK/iot_link/os/liteos/arch/arm/arm-m/include\los_svc.h **** #define SCN_QueueReadCopy               SVC_NUM (MOD_QUEUE, 4, 3)
 120:C:/Users/²Ü¼ÒºÀ/.iotlink/sdk/IoT_LINK/iot_link/os/liteos/arch/arm/arm-m/include\los_svc.h **** #define SCN_QueueWriteCopy              SVC_NUM (MOD_QUEUE, 4, 4)
 121:C:/Users/²Ü¼ÒºÀ/.iotlink/sdk/IoT_LINK/iot_link/os/liteos/arch/arm/arm-m/include\los_svc.h **** #define SCN_QueueWriteHead              SVC_NUM (MOD_QUEUE, 4, 5)
 122:C:/Users/²Ü¼ÒºÀ/.iotlink/sdk/IoT_LINK/iot_link/os/liteos/arch/arm/arm-m/include\los_svc.h **** #define SCN_QueueDelete                 SVC_NUM (MOD_QUEUE, 1, 6)
 123:C:/Users/²Ü¼ÒºÀ/.iotlink/sdk/IoT_LINK/iot_link/os/liteos/arch/arm/arm-m/include\los_svc.h **** #define SCN_QueueInfoGet                SVC_NUM (MOD_QUEUE, 2, 7)
 124:C:/Users/²Ü¼ÒºÀ/.iotlink/sdk/IoT_LINK/iot_link/os/liteos/arch/arm/arm-m/include\los_svc.h **** 
 125:C:/Users/²Ü¼ÒºÀ/.iotlink/sdk/IoT_LINK/iot_link/os/liteos/arch/arm/arm-m/include\los_svc.h **** /* syscall numbers for event module */
 126:C:/Users/²Ü¼ÒºÀ/.iotlink/sdk/IoT_LINK/iot_link/os/liteos/arch/arm/arm-m/include\los_svc.h **** 
 127:C:/Users/²Ü¼ÒºÀ/.iotlink/sdk/IoT_LINK/iot_link/os/liteos/arch/arm/arm-m/include\los_svc.h **** #define SCN_EventInit                   SVC_NUM (MOD_EVENT, 1, 0)
 128:C:/Users/²Ü¼ÒºÀ/.iotlink/sdk/IoT_LINK/iot_link/os/liteos/arch/arm/arm-m/include\los_svc.h **** #define SCN_EventRead                   SVC_NUM (MOD_EVENT, 4, 1)
 129:C:/Users/²Ü¼ÒºÀ/.iotlink/sdk/IoT_LINK/iot_link/os/liteos/arch/arm/arm-m/include\los_svc.h **** #define SCN_EventWrite                  SVC_NUM (MOD_EVENT, 2, 2)
 130:C:/Users/²Ü¼ÒºÀ/.iotlink/sdk/IoT_LINK/iot_link/os/liteos/arch/arm/arm-m/include\los_svc.h **** #define SCN_EventClear                  SVC_NUM (MOD_EVENT, 2, 3)
 131:C:/Users/²Ü¼ÒºÀ/.iotlink/sdk/IoT_LINK/iot_link/os/liteos/arch/arm/arm-m/include\los_svc.h **** #define SCN_EventPoll                   SVC_NUM (MOD_EVENT, 3, 4)
 132:C:/Users/²Ü¼ÒºÀ/.iotlink/sdk/IoT_LINK/iot_link/os/liteos/arch/arm/arm-m/include\los_svc.h **** #define SCN_EventDestroy                SVC_NUM (MOD_EVENT, 1, 5)
 133:C:/Users/²Ü¼ÒºÀ/.iotlink/sdk/IoT_LINK/iot_link/os/liteos/arch/arm/arm-m/include\los_svc.h **** 
 134:C:/Users/²Ü¼ÒºÀ/.iotlink/sdk/IoT_LINK/iot_link/os/liteos/arch/arm/arm-m/include\los_svc.h **** /* syscall numbers for mutex module */
 135:C:/Users/²Ü¼ÒºÀ/.iotlink/sdk/IoT_LINK/iot_link/os/liteos/arch/arm/arm-m/include\los_svc.h **** 
 136:C:/Users/²Ü¼ÒºÀ/.iotlink/sdk/IoT_LINK/iot_link/os/liteos/arch/arm/arm-m/include\los_svc.h **** #define SCN_MuxCreate                   SVC_NUM (MOD_MUX, 1, 0)
 137:C:/Users/²Ü¼ÒºÀ/.iotlink/sdk/IoT_LINK/iot_link/os/liteos/arch/arm/arm-m/include\los_svc.h **** #define SCN_MuxDelete                   SVC_NUM (MOD_MUX, 1, 1)
 138:C:/Users/²Ü¼ÒºÀ/.iotlink/sdk/IoT_LINK/iot_link/os/liteos/arch/arm/arm-m/include\los_svc.h **** #define SCN_MuxPend                     SVC_NUM (MOD_MUX, 2, 2)
 139:C:/Users/²Ü¼ÒºÀ/.iotlink/sdk/IoT_LINK/iot_link/os/liteos/arch/arm/arm-m/include\los_svc.h **** #define SCN_MuxPost                     SVC_NUM (MOD_MUX, 1, 3)
 140:C:/Users/²Ü¼ÒºÀ/.iotlink/sdk/IoT_LINK/iot_link/os/liteos/arch/arm/arm-m/include\los_svc.h **** 
 141:C:/Users/²Ü¼ÒºÀ/.iotlink/sdk/IoT_LINK/iot_link/os/liteos/arch/arm/arm-m/include\los_svc.h **** /* syscall numbers for semaphore module */
 142:C:/Users/²Ü¼ÒºÀ/.iotlink/sdk/IoT_LINK/iot_link/os/liteos/arch/arm/arm-m/include\los_svc.h **** 
 143:C:/Users/²Ü¼ÒºÀ/.iotlink/sdk/IoT_LINK/iot_link/os/liteos/arch/arm/arm-m/include\los_svc.h **** #define SCN_SemCreate                   SVC_NUM (MOD_SEM, 2, 0)
 144:C:/Users/²Ü¼ÒºÀ/.iotlink/sdk/IoT_LINK/iot_link/os/liteos/arch/arm/arm-m/include\los_svc.h **** #define SCN_BinarySemCreate             SVC_NUM (MOD_SEM, 2, 1)
 145:C:/Users/²Ü¼ÒºÀ/.iotlink/sdk/IoT_LINK/iot_link/os/liteos/arch/arm/arm-m/include\los_svc.h **** #define SCN_SemDelete                   SVC_NUM (MOD_SEM, 1, 2)
 146:C:/Users/²Ü¼ÒºÀ/.iotlink/sdk/IoT_LINK/iot_link/os/liteos/arch/arm/arm-m/include\los_svc.h **** #define SCN_SemPend                     SVC_NUM (MOD_SEM, 2, 3)
 147:C:/Users/²Ü¼ÒºÀ/.iotlink/sdk/IoT_LINK/iot_link/os/liteos/arch/arm/arm-m/include\los_svc.h **** #define SCN_SemPost                     SVC_NUM (MOD_SEM, 1, 4)
 148:C:/Users/²Ü¼ÒºÀ/.iotlink/sdk/IoT_LINK/iot_link/os/liteos/arch/arm/arm-m/include\los_svc.h **** 
 149:C:/Users/²Ü¼ÒºÀ/.iotlink/sdk/IoT_LINK/iot_link/os/liteos/arch/arm/arm-m/include\los_svc.h **** /* syscall numbers for software timer module */
 150:C:/Users/²Ü¼ÒºÀ/.iotlink/sdk/IoT_LINK/iot_link/os/liteos/arch/arm/arm-m/include\los_svc.h **** 
 151:C:/Users/²Ü¼ÒºÀ/.iotlink/sdk/IoT_LINK/iot_link/os/liteos/arch/arm/arm-m/include\los_svc.h **** #if (LOSCFG_BASE_CORE_SWTMR_ALIGN == YES)
 152:C:/Users/²Ü¼ÒºÀ/.iotlink/sdk/IoT_LINK/iot_link/os/liteos/arch/arm/arm-m/include\los_svc.h **** #define SCN_SwtmrCreate                 SVC_NUM (MOD_SWTIMER, 5, 0)
 153:C:/Users/²Ü¼ÒºÀ/.iotlink/sdk/IoT_LINK/iot_link/os/liteos/arch/arm/arm-m/include\los_svc.h **** #else
 154:C:/Users/²Ü¼ÒºÀ/.iotlink/sdk/IoT_LINK/iot_link/os/liteos/arch/arm/arm-m/include\los_svc.h **** #define SCN_SwtmrCreate                 SVC_NUM (MOD_SWTIMER, 7, 0)
 155:C:/Users/²Ü¼ÒºÀ/.iotlink/sdk/IoT_LINK/iot_link/os/liteos/arch/arm/arm-m/include\los_svc.h **** #endif
 156:C:/Users/²Ü¼ÒºÀ/.iotlink/sdk/IoT_LINK/iot_link/os/liteos/arch/arm/arm-m/include\los_svc.h **** #define SCN_SwtmrDelete                 SVC_NUM (MOD_SWTIMER, 1, 1)
 157:C:/Users/²Ü¼ÒºÀ/.iotlink/sdk/IoT_LINK/iot_link/os/liteos/arch/arm/arm-m/include\los_svc.h **** #define SCN_SwtmrStart                  SVC_NUM (MOD_SWTIMER, 1, 2)
 158:C:/Users/²Ü¼ÒºÀ/.iotlink/sdk/IoT_LINK/iot_link/os/liteos/arch/arm/arm-m/include\los_svc.h **** #define SCN_SwtmrStop                   SVC_NUM (MOD_SWTIMER, 1, 3)
 159:C:/Users/²Ü¼ÒºÀ/.iotlink/sdk/IoT_LINK/iot_link/os/liteos/arch/arm/arm-m/include\los_svc.h **** #define SCN_SwtmrTimeGet                SVC_NUM (MOD_SWTIMER, 2, 4)
 160:C:/Users/²Ü¼ÒºÀ/.iotlink/sdk/IoT_LINK/iot_link/os/liteos/arch/arm/arm-m/include\los_svc.h **** 
 161:C:/Users/²Ü¼ÒºÀ/.iotlink/sdk/IoT_LINK/iot_link/os/liteos/arch/arm/arm-m/include\los_svc.h **** /* syscall numbers for sys module (los_sys.c/h) */
 162:C:/Users/²Ü¼ÒºÀ/.iotlink/sdk/IoT_LINK/iot_link/os/liteos/arch/arm/arm-m/include\los_svc.h **** 
 163:C:/Users/²Ü¼ÒºÀ/.iotlink/sdk/IoT_LINK/iot_link/os/liteos/arch/arm/arm-m/include\los_svc.h **** #define SCN_MS2Tick                     SVC_NUM (MOD_SYS, 1, 0)
 164:C:/Users/²Ü¼ÒºÀ/.iotlink/sdk/IoT_LINK/iot_link/os/liteos/arch/arm/arm-m/include\los_svc.h **** #define SCN_Tick2MS                     SVC_NUM (MOD_SYS, 1, 1)
 165:C:/Users/²Ü¼ÒºÀ/.iotlink/sdk/IoT_LINK/iot_link/os/liteos/arch/arm/arm-m/include\los_svc.h **** #define SCN_CyclePerTickGet             SVC_NUM (MOD_SYS, 0, 2)
 166:C:/Users/²Ü¼ÒºÀ/.iotlink/sdk/IoT_LINK/iot_link/os/liteos/arch/arm/arm-m/include\los_svc.h **** #define SCN_TickCountGet                SVC_NUM (MOD_SYS, 0, 3)
 167:C:/Users/²Ü¼ÒºÀ/.iotlink/sdk/IoT_LINK/iot_link/os/liteos/arch/arm/arm-m/include\los_svc.h **** ///////////////////////////////////////////////////////////////////////////////////
 168:C:/Users/²Ü¼ÒºÀ/.iotlink/sdk/IoT_LINK/iot_link/os/liteos/arch/arm/arm-m/include\los_svc.h **** #define SCN_printf                      SVC_NUM (MOD_SYS, 4, 4)
 169:C:/Users/²Ü¼ÒºÀ/.iotlink/sdk/IoT_LINK/iot_link/os/liteos/arch/arm/arm-m/include\los_svc.h **** ///////////////////////////////////////////////////////////////////////////////////
 170:C:/Users/²Ü¼ÒºÀ/.iotlink/sdk/IoT_LINK/iot_link/os/liteos/arch/arm/arm-m/include\los_svc.h **** 
 171:C:/Users/²Ü¼ÒºÀ/.iotlink/sdk/IoT_LINK/iot_link/os/liteos/arch/arm/arm-m/include\los_svc.h **** #if defined (__CC_ARM)
 172:C:/Users/²Ü¼ÒºÀ/.iotlink/sdk/IoT_LINK/iot_link/os/liteos/arch/arm/arm-m/include\los_svc.h **** 
 173:C:/Users/²Ü¼ÒºÀ/.iotlink/sdk/IoT_LINK/iot_link/os/liteos/arch/arm/arm-m/include\los_svc.h **** #define SYSCALL_RTN(sn, rt, name, ...)  __svc_indirect_r7(0) rt __##name (int r12, ##__VA_ARGS__);
 174:C:/Users/²Ü¼ÒºÀ/.iotlink/sdk/IoT_LINK/iot_link/os/liteos/arch/arm/arm-m/include\los_svc.h **** 
ARM GAS  C:\Users\²Ü¼ÒºÀ\AppData\Local\Temp\ccKhPaIi.s 			page 7


 175:C:/Users/²Ü¼ÒºÀ/.iotlink/sdk/IoT_LINK/iot_link/os/liteos/arch/arm/arm-m/include\los_svc.h **** #define LOS_TaskCreateOnly(...)         __LOS_TaskCreateOnly(SCN_TaskCreateOnly, ##__VA_ARGS__)
 176:C:/Users/²Ü¼ÒºÀ/.iotlink/sdk/IoT_LINK/iot_link/os/liteos/arch/arm/arm-m/include\los_svc.h **** #define LOS_UsrTaskCreate(...)          __LOS_UsrTaskCreate(SCN_TaskCreate, ##__VA_ARGS__)
 177:C:/Users/²Ü¼ÒºÀ/.iotlink/sdk/IoT_LINK/iot_link/os/liteos/arch/arm/arm-m/include\los_svc.h **** #define LOS_UsrTaskDelete(...)          __LOS_UsrTaskDelete(SCN_TaskDelete, ##__VA_ARGS__)
 178:C:/Users/²Ü¼ÒºÀ/.iotlink/sdk/IoT_LINK/iot_link/os/liteos/arch/arm/arm-m/include\los_svc.h **** #define LOS_UsrTaskResume(...)          __LOS_UsrTaskResume(SCN_TaskResume, ##__VA_ARGS__)
 179:C:/Users/²Ü¼ÒºÀ/.iotlink/sdk/IoT_LINK/iot_link/os/liteos/arch/arm/arm-m/include\los_svc.h **** #define LOS_UsrTaskSuspend(...)         __LOS_UsrTaskSuspend(SCN_TaskSuspend, ##__VA_ARGS__)
 180:C:/Users/²Ü¼ÒºÀ/.iotlink/sdk/IoT_LINK/iot_link/os/liteos/arch/arm/arm-m/include\los_svc.h **** #define LOS_UsrTaskDelay(...)           __LOS_UsrTaskDelay(SCN_TaskDelay, ##__VA_ARGS__)
 181:C:/Users/²Ü¼ÒºÀ/.iotlink/sdk/IoT_LINK/iot_link/os/liteos/arch/arm/arm-m/include\los_svc.h **** #define LOS_UsrTaskYield(...)           __LOS_UsrTaskYield(SCN_TaskYield, ##__VA_ARGS__)
 182:C:/Users/²Ü¼ÒºÀ/.iotlink/sdk/IoT_LINK/iot_link/os/liteos/arch/arm/arm-m/include\los_svc.h **** #define LOS_UsrTaskLock(...)            __LOS_UsrTaskLock(SCN_TaskLock, ##__VA_ARGS__)
 183:C:/Users/²Ü¼ÒºÀ/.iotlink/sdk/IoT_LINK/iot_link/os/liteos/arch/arm/arm-m/include\los_svc.h **** #define LOS_UsrTaskUnlock(...)          __LOS_UsrTaskUnlock(SCN_TaskUnlock, ##__VA_ARGS__)
 184:C:/Users/²Ü¼ÒºÀ/.iotlink/sdk/IoT_LINK/iot_link/os/liteos/arch/arm/arm-m/include\los_svc.h **** #define LOS_UsrCurTaskPriSet(...)       __LOS_UsrCurTaskPriSet(SCN_CurTaskPriSet, ##__VA_ARGS__)
 185:C:/Users/²Ü¼ÒºÀ/.iotlink/sdk/IoT_LINK/iot_link/os/liteos/arch/arm/arm-m/include\los_svc.h **** #define LOS_UsrTaskPriSet(...)          __LOS_UsrTaskPriSet(SCN_TaskPriSet, ##__VA_ARGS__)
 186:C:/Users/²Ü¼ÒºÀ/.iotlink/sdk/IoT_LINK/iot_link/os/liteos/arch/arm/arm-m/include\los_svc.h **** #define LOS_UsrTaskPriGet(...)          __LOS_UsrTaskPriGet(SCN_TaskPriGet, ##__VA_ARGS__)
 187:C:/Users/²Ü¼ÒºÀ/.iotlink/sdk/IoT_LINK/iot_link/os/liteos/arch/arm/arm-m/include\los_svc.h **** #define LOS_UsrCurTaskIDGet(...)        __LOS_UsrCurTaskIDGet(SCN_CurTaskIDGet, ##__VA_ARGS__)
 188:C:/Users/²Ü¼ÒºÀ/.iotlink/sdk/IoT_LINK/iot_link/os/liteos/arch/arm/arm-m/include\los_svc.h **** #define LOS_UsrTaskInfoGet(...)         __LOS_UsrTaskInfoGet(SCN_TaskInfoGet, ##__VA_ARGS__)
 189:C:/Users/²Ü¼ÒºÀ/.iotlink/sdk/IoT_LINK/iot_link/os/liteos/arch/arm/arm-m/include\los_svc.h **** #define LOS_UsrTaskStatusGet(...)       __LOS_UsrTaskStatusGet(SCN_TaskStatusGet, ##__VA_ARGS__)
 190:C:/Users/²Ü¼ÒºÀ/.iotlink/sdk/IoT_LINK/iot_link/os/liteos/arch/arm/arm-m/include\los_svc.h **** #define LOS_UsrTaskNameGet(...)         __LOS_UsrTaskNameGet(SCN_TaskNameGet, ##__VA_ARGS__)
 191:C:/Users/²Ü¼ÒºÀ/.iotlink/sdk/IoT_LINK/iot_link/os/liteos/arch/arm/arm-m/include\los_svc.h **** #define LOS_UsrTaskInfoMonitor(...)     __LOS_UsrTaskInfoMonitor(SCN_TaskInfoMonitor, ##__VA_ARGS__
 192:C:/Users/²Ü¼ÒºÀ/.iotlink/sdk/IoT_LINK/iot_link/os/liteos/arch/arm/arm-m/include\los_svc.h **** #define LOS_UsrNextTaskIDGet(...)       __LOS_UsrNextTaskIDGet(SCN_NextTaskIDGet, ##__VA_ARGS__)
 193:C:/Users/²Ü¼ÒºÀ/.iotlink/sdk/IoT_LINK/iot_link/os/liteos/arch/arm/arm-m/include\los_svc.h **** 
 194:C:/Users/²Ü¼ÒºÀ/.iotlink/sdk/IoT_LINK/iot_link/os/liteos/arch/arm/arm-m/include\los_svc.h **** #define LOS_UsrMemboxInit(...)          __LOS_UsrMemboxInit(SCN_MemboxInit, ##__VA_ARGS__)
 195:C:/Users/²Ü¼ÒºÀ/.iotlink/sdk/IoT_LINK/iot_link/os/liteos/arch/arm/arm-m/include\los_svc.h **** #define LOS_UsrMemboxClr(...)           __LOS_UsrMemboxClr(SCN_MemboxClr, ##__VA_ARGS__)
 196:C:/Users/²Ü¼ÒºÀ/.iotlink/sdk/IoT_LINK/iot_link/os/liteos/arch/arm/arm-m/include\los_svc.h **** #define LOS_UsrMemboxAlloc(...)         __LOS_UsrMemboxAlloc(SCN_MemboxAlloc, ##__VA_ARGS__)
 197:C:/Users/²Ü¼ÒºÀ/.iotlink/sdk/IoT_LINK/iot_link/os/liteos/arch/arm/arm-m/include\los_svc.h **** #define LOS_UsrMemboxFree(...)          __LOS_UsrMemboxFree(SCN_MemboxFree, ##__VA_ARGS__)
 198:C:/Users/²Ü¼ÒºÀ/.iotlink/sdk/IoT_LINK/iot_link/os/liteos/arch/arm/arm-m/include\los_svc.h **** #define LOS_UsrMemboxStatisticsGet(...) __LOS_UsrMemboxStatisticsGet(SCN_MemboxStatisticsGet, ##__V
 199:C:/Users/²Ü¼ÒºÀ/.iotlink/sdk/IoT_LINK/iot_link/os/liteos/arch/arm/arm-m/include\los_svc.h **** #define LOS_UsrMemInit(...)             __LOS_UsrMemInit(SCN_MemInit, ##__VA_ARGS__)
 200:C:/Users/²Ü¼ÒºÀ/.iotlink/sdk/IoT_LINK/iot_link/os/liteos/arch/arm/arm-m/include\los_svc.h **** #define LOS_UsrMemAlloc(...)            __LOS_UsrMemAlloc(SCN_MemAlloc, ##__VA_ARGS__)
 201:C:/Users/²Ü¼ÒºÀ/.iotlink/sdk/IoT_LINK/iot_link/os/liteos/arch/arm/arm-m/include\los_svc.h **** #define LOS_UsrMemFree(...)             __LOS_UsrMemFree(SCN_MemFree, ##__VA_ARGS__)
 202:C:/Users/²Ü¼ÒºÀ/.iotlink/sdk/IoT_LINK/iot_link/os/liteos/arch/arm/arm-m/include\los_svc.h **** #define LOS_UsrMemRealloc(...)          __LOS_UsrMemRealloc(SCN_MemRealloc, ##__VA_ARGS__)
 203:C:/Users/²Ü¼ÒºÀ/.iotlink/sdk/IoT_LINK/iot_link/os/liteos/arch/arm/arm-m/include\los_svc.h **** #define LOS_UsrMemAllocAlign(...)       __LOS_UsrMemAllocAlign(SCN_MemAllocAlign, ##__VA_ARGS__)
 204:C:/Users/²Ü¼ÒºÀ/.iotlink/sdk/IoT_LINK/iot_link/os/liteos/arch/arm/arm-m/include\los_svc.h **** 
 205:C:/Users/²Ü¼ÒºÀ/.iotlink/sdk/IoT_LINK/iot_link/os/liteos/arch/arm/arm-m/include\los_svc.h **** #define LOS_UsrQueueCreate(...)         __LOS_UsrQueueCreate(SCN_QueueCreate, ##__VA_ARGS__)
 206:C:/Users/²Ü¼ÒºÀ/.iotlink/sdk/IoT_LINK/iot_link/os/liteos/arch/arm/arm-m/include\los_svc.h **** #define LOS_UsrQueueRead(...)           __LOS_UsrQueueRead(SCN_QueueRead, ##__VA_ARGS__)
 207:C:/Users/²Ü¼ÒºÀ/.iotlink/sdk/IoT_LINK/iot_link/os/liteos/arch/arm/arm-m/include\los_svc.h **** #define LOS_UsrQueueWrite(...)          __LOS_UsrQueueWrite(SCN_QueueWrite, ##__VA_ARGS__)
 208:C:/Users/²Ü¼ÒºÀ/.iotlink/sdk/IoT_LINK/iot_link/os/liteos/arch/arm/arm-m/include\los_svc.h **** #define LOS_UsrQueueReadCopy(...)       __LOS_UsrQueueReadCopy(SCN_QueueReadCopy, ##__VA_ARGS__)
 209:C:/Users/²Ü¼ÒºÀ/.iotlink/sdk/IoT_LINK/iot_link/os/liteos/arch/arm/arm-m/include\los_svc.h **** #define LOS_UsrQueueWriteCopy(...)      __LOS_UsrQueueWriteCopy(SCN_QueueWriteCopy, ##__VA_ARGS__)
 210:C:/Users/²Ü¼ÒºÀ/.iotlink/sdk/IoT_LINK/iot_link/os/liteos/arch/arm/arm-m/include\los_svc.h **** #define LOS_UsrQueueWriteHead(...)      __LOS_UsrQueueWriteHead(SCN_QueueWriteHead, ##__VA_ARGS__)
 211:C:/Users/²Ü¼ÒºÀ/.iotlink/sdk/IoT_LINK/iot_link/os/liteos/arch/arm/arm-m/include\los_svc.h **** #define LOS_UsrQueueDelete(...)         __LOS_UsrQueueDelete(SCN_QueueDelete, ##__VA_ARGS__)
 212:C:/Users/²Ü¼ÒºÀ/.iotlink/sdk/IoT_LINK/iot_link/os/liteos/arch/arm/arm-m/include\los_svc.h **** #define LOS_UsrQueueInfoGet(...)        __LOS_UsrQueueInfoGet(SCN_QueueInfoGet, ##__VA_ARGS__)
 213:C:/Users/²Ü¼ÒºÀ/.iotlink/sdk/IoT_LINK/iot_link/os/liteos/arch/arm/arm-m/include\los_svc.h **** 
 214:C:/Users/²Ü¼ÒºÀ/.iotlink/sdk/IoT_LINK/iot_link/os/liteos/arch/arm/arm-m/include\los_svc.h **** #define LOS_UsrEventInit(...)           __LOS_UsrEventInit(SCN_EventInit, ##__VA_ARGS__)
 215:C:/Users/²Ü¼ÒºÀ/.iotlink/sdk/IoT_LINK/iot_link/os/liteos/arch/arm/arm-m/include\los_svc.h **** #define LOS_UsrEventRead(...)           __LOS_UsrEventRead(SCN_EventRead, ##__VA_ARGS__)
 216:C:/Users/²Ü¼ÒºÀ/.iotlink/sdk/IoT_LINK/iot_link/os/liteos/arch/arm/arm-m/include\los_svc.h **** #define LOS_UsrEventWrite(...)          __LOS_UsrEventWrite(SCN_EventWrite, ##__VA_ARGS__)
 217:C:/Users/²Ü¼ÒºÀ/.iotlink/sdk/IoT_LINK/iot_link/os/liteos/arch/arm/arm-m/include\los_svc.h **** #define LOS_UsrEventClear(...)          __LOS_UsrEventClear(SCN_EventClear, ##__VA_ARGS__)
 218:C:/Users/²Ü¼ÒºÀ/.iotlink/sdk/IoT_LINK/iot_link/os/liteos/arch/arm/arm-m/include\los_svc.h **** #define LOS_UsrEventPoll(...)           __LOS_UsrEventPoll(SCN_EventPoll, ##__VA_ARGS__)
 219:C:/Users/²Ü¼ÒºÀ/.iotlink/sdk/IoT_LINK/iot_link/os/liteos/arch/arm/arm-m/include\los_svc.h **** #define LOS_UsrEventDestroy(...)        __LOS_UsrEventDestroy(SCN_EventDestroy, ##__VA_ARGS__)
 220:C:/Users/²Ü¼ÒºÀ/.iotlink/sdk/IoT_LINK/iot_link/os/liteos/arch/arm/arm-m/include\los_svc.h **** 
 221:C:/Users/²Ü¼ÒºÀ/.iotlink/sdk/IoT_LINK/iot_link/os/liteos/arch/arm/arm-m/include\los_svc.h **** #define LOS_UsrMuxCreate(...)           __LOS_UsrMuxCreate(SCN_MuxCreate, ##__VA_ARGS__)
 222:C:/Users/²Ü¼ÒºÀ/.iotlink/sdk/IoT_LINK/iot_link/os/liteos/arch/arm/arm-m/include\los_svc.h **** #define LOS_UsrMuxDelete(...)           __LOS_UsrMuxDelete(SCN_MuxDelete, ##__VA_ARGS__)
 223:C:/Users/²Ü¼ÒºÀ/.iotlink/sdk/IoT_LINK/iot_link/os/liteos/arch/arm/arm-m/include\los_svc.h **** #define LOS_UsrMuxPend(...)             __LOS_UsrMuxPend(SCN_MuxPend, ##__VA_ARGS__)
 224:C:/Users/²Ü¼ÒºÀ/.iotlink/sdk/IoT_LINK/iot_link/os/liteos/arch/arm/arm-m/include\los_svc.h **** #define LOS_UsrMuxPost(...)             __LOS_UsrMuxPost(SCN_MuxPost, ##__VA_ARGS__)
 225:C:/Users/²Ü¼ÒºÀ/.iotlink/sdk/IoT_LINK/iot_link/os/liteos/arch/arm/arm-m/include\los_svc.h **** 
 226:C:/Users/²Ü¼ÒºÀ/.iotlink/sdk/IoT_LINK/iot_link/os/liteos/arch/arm/arm-m/include\los_svc.h **** #define LOS_UsrSemCreate(...)           __LOS_UsrSemCreate(SCN_SemCreate, ##__VA_ARGS__)
 227:C:/Users/²Ü¼ÒºÀ/.iotlink/sdk/IoT_LINK/iot_link/os/liteos/arch/arm/arm-m/include\los_svc.h **** #define LOS_UsrBinarySemCreate(...)     __LOS_UsrBinarySemCreate(SCN_BinarySemCreate, ##__VA_ARGS__
 228:C:/Users/²Ü¼ÒºÀ/.iotlink/sdk/IoT_LINK/iot_link/os/liteos/arch/arm/arm-m/include\los_svc.h **** #define LOS_UsrSemDelete(...)           __LOS_UsrSemDelete(SCN_SemDelete, ##__VA_ARGS__)
 229:C:/Users/²Ü¼ÒºÀ/.iotlink/sdk/IoT_LINK/iot_link/os/liteos/arch/arm/arm-m/include\los_svc.h **** #define LOS_UsrSemPend(...)             __LOS_UsrSemPend(SCN_SemPend, ##__VA_ARGS__)
 230:C:/Users/²Ü¼ÒºÀ/.iotlink/sdk/IoT_LINK/iot_link/os/liteos/arch/arm/arm-m/include\los_svc.h **** #define LOS_UsrSemPost(...)             __LOS_UsrSemPost(SCN_SemPost, ##__VA_ARGS__)
 231:C:/Users/²Ü¼ÒºÀ/.iotlink/sdk/IoT_LINK/iot_link/os/liteos/arch/arm/arm-m/include\los_svc.h **** 
ARM GAS  C:\Users\²Ü¼ÒºÀ\AppData\Local\Temp\ccKhPaIi.s 			page 8


 232:C:/Users/²Ü¼ÒºÀ/.iotlink/sdk/IoT_LINK/iot_link/os/liteos/arch/arm/arm-m/include\los_svc.h **** #define LOS_UsrSwtmrCreate(...)         __LOS_UsrSwtmrCreate(SCN_SwtmrCreate, ##__VA_ARGS__)
 233:C:/Users/²Ü¼ÒºÀ/.iotlink/sdk/IoT_LINK/iot_link/os/liteos/arch/arm/arm-m/include\los_svc.h **** #define LOS_UsrSwtmrDelete(...)         __LOS_UsrSwtmrDelete(SCN_SwtmrDelete, ##__VA_ARGS__)
 234:C:/Users/²Ü¼ÒºÀ/.iotlink/sdk/IoT_LINK/iot_link/os/liteos/arch/arm/arm-m/include\los_svc.h **** #define LOS_UsrSwtmrStart(...)          __LOS_UsrSwtmrStart(SCN_SwtmrStart, ##__VA_ARGS__)
 235:C:/Users/²Ü¼ÒºÀ/.iotlink/sdk/IoT_LINK/iot_link/os/liteos/arch/arm/arm-m/include\los_svc.h **** #define LOS_UsrSwtmrStop(...)           __LOS_UsrSwtmrStop(SCN_SwtmrStop, ##__VA_ARGS__)
 236:C:/Users/²Ü¼ÒºÀ/.iotlink/sdk/IoT_LINK/iot_link/os/liteos/arch/arm/arm-m/include\los_svc.h **** #define LOS_UsrSwtmrTimeGet(...)        __LOS_UsrSwtmrTimeGet(SCN_SwtmrTimeGet, ##__VA_ARGS__)
 237:C:/Users/²Ü¼ÒºÀ/.iotlink/sdk/IoT_LINK/iot_link/os/liteos/arch/arm/arm-m/include\los_svc.h **** 
 238:C:/Users/²Ü¼ÒºÀ/.iotlink/sdk/IoT_LINK/iot_link/os/liteos/arch/arm/arm-m/include\los_svc.h **** #define LOS_UsrMS2Tick(...)             __LOS_UsrMS2Tick(SCN_MS2Tick, ##__VA_ARGS__)
 239:C:/Users/²Ü¼ÒºÀ/.iotlink/sdk/IoT_LINK/iot_link/os/liteos/arch/arm/arm-m/include\los_svc.h **** #define LOS_UsrTick2MS(...)             __LOS_UsrTick2MS(SCN_Tick2MS, ##__VA_ARGS__)
 240:C:/Users/²Ü¼ÒºÀ/.iotlink/sdk/IoT_LINK/iot_link/os/liteos/arch/arm/arm-m/include\los_svc.h **** #define LOS_UsrCyclePerTickGet(...)     __LOS_UsrCyclePerTickGet(SCN_CyclePerTickGet, ##__VA_ARGS__
 241:C:/Users/²Ü¼ÒºÀ/.iotlink/sdk/IoT_LINK/iot_link/os/liteos/arch/arm/arm-m/include\los_svc.h **** #define LOS_UsrTickCountGet(...)        __LOS_UsrTickCountGet(SCN_TickCountGet, ##__VA_ARGS__)
 242:C:/Users/²Ü¼ÒºÀ/.iotlink/sdk/IoT_LINK/iot_link/os/liteos/arch/arm/arm-m/include\los_svc.h **** #define LOS_UsrPrintf(...)              __LOS_UsrPrintf(SCN_printf, ##__VA_ARGS__)
 243:C:/Users/²Ü¼ÒºÀ/.iotlink/sdk/IoT_LINK/iot_link/os/liteos/arch/arm/arm-m/include\los_svc.h **** 
 244:C:/Users/²Ü¼ÒºÀ/.iotlink/sdk/IoT_LINK/iot_link/os/liteos/arch/arm/arm-m/include\los_svc.h **** #elif defined (__GNUC__)
 245:C:/Users/²Ü¼ÒºÀ/.iotlink/sdk/IoT_LINK/iot_link/os/liteos/arch/arm/arm-m/include\los_svc.h **** 
 246:C:/Users/²Ü¼ÒºÀ/.iotlink/sdk/IoT_LINK/iot_link/os/liteos/arch/arm/arm-m/include\los_svc.h **** #define _SYSCALL_RTN(sn, rt, name, ...)                     \
 247:C:/Users/²Ü¼ÒºÀ/.iotlink/sdk/IoT_LINK/iot_link/os/liteos/arch/arm/arm-m/include\los_svc.h ****     _Pragma("GCC diagnostic push")                          \
 248:C:/Users/²Ü¼ÒºÀ/.iotlink/sdk/IoT_LINK/iot_link/os/liteos/arch/arm/arm-m/include\los_svc.h ****     _Pragma("GCC diagnostic ignored \"-Wreturn-type\"")     \
 249:C:/Users/²Ü¼ÒºÀ/.iotlink/sdk/IoT_LINK/iot_link/os/liteos/arch/arm/arm-m/include\los_svc.h ****     __attribute__((naked))                                  \
 250:C:/Users/²Ü¼ÒºÀ/.iotlink/sdk/IoT_LINK/iot_link/os/liteos/arch/arm/arm-m/include\los_svc.h ****     __attribute__((unused))                                 \
 251:C:/Users/²Ü¼ÒºÀ/.iotlink/sdk/IoT_LINK/iot_link/os/liteos/arch/arm/arm-m/include\los_svc.h ****     __attribute__ ((weak)) rt name (__VA_ARGS__)            \
 252:C:/Users/²Ü¼ÒºÀ/.iotlink/sdk/IoT_LINK/iot_link/os/liteos/arch/arm/arm-m/include\los_svc.h ****     {                                                       \
 253:C:/Users/²Ü¼ÒºÀ/.iotlink/sdk/IoT_LINK/iot_link/os/liteos/arch/arm/arm-m/include\los_svc.h ****         __asm(                                              \
 254:C:/Users/²Ü¼ÒºÀ/.iotlink/sdk/IoT_LINK/iot_link/os/liteos/arch/arm/arm-m/include\los_svc.h ****             "push {r7, lr}\n\t"                             \
 255:C:/Users/²Ü¼ÒºÀ/.iotlink/sdk/IoT_LINK/iot_link/os/liteos/arch/arm/arm-m/include\los_svc.h ****             "ldr  r7, ="#sn"\n\t"                           \
 256:C:/Users/²Ü¼ÒºÀ/.iotlink/sdk/IoT_LINK/iot_link/os/liteos/arch/arm/arm-m/include\los_svc.h ****             "svc  #0\n\t"                                   \
 257:C:/Users/²Ü¼ÒºÀ/.iotlink/sdk/IoT_LINK/iot_link/os/liteos/arch/arm/arm-m/include\los_svc.h ****             "pop  {r7, pc}\n\t"                             \
 258:C:/Users/²Ü¼ÒºÀ/.iotlink/sdk/IoT_LINK/iot_link/os/liteos/arch/arm/arm-m/include\los_svc.h ****             : : : "r0", "r1", "r2", "r3", "r12", "cc"       \
 259:C:/Users/²Ü¼ÒºÀ/.iotlink/sdk/IoT_LINK/iot_link/os/liteos/arch/arm/arm-m/include\los_svc.h ****         );                                                  \
 260:C:/Users/²Ü¼ÒºÀ/.iotlink/sdk/IoT_LINK/iot_link/os/liteos/arch/arm/arm-m/include\los_svc.h ****     }                                                       \
 261:C:/Users/²Ü¼ÒºÀ/.iotlink/sdk/IoT_LINK/iot_link/os/liteos/arch/arm/arm-m/include\los_svc.h ****     _Pragma("GCC diagnostic pop")
 262:C:/Users/²Ü¼ÒºÀ/.iotlink/sdk/IoT_LINK/iot_link/os/liteos/arch/arm/arm-m/include\los_svc.h **** 
 263:C:/Users/²Ü¼ÒºÀ/.iotlink/sdk/IoT_LINK/iot_link/os/liteos/arch/arm/arm-m/include\los_svc.h **** #define SYSCALL_RTN(sn, rt, name, ...) _SYSCALL_RTN(sn, rt, name, ##__VA_ARGS__)
 264:C:/Users/²Ü¼ÒºÀ/.iotlink/sdk/IoT_LINK/iot_link/os/liteos/arch/arm/arm-m/include\los_svc.h **** 
 265:C:/Users/²Ü¼ÒºÀ/.iotlink/sdk/IoT_LINK/iot_link/os/liteos/arch/arm/arm-m/include\los_svc.h **** #else
 266:C:/Users/²Ü¼ÒºÀ/.iotlink/sdk/IoT_LINK/iot_link/os/liteos/arch/arm/arm-m/include\los_svc.h **** #error "not supported tool"
 267:C:/Users/²Ü¼ÒºÀ/.iotlink/sdk/IoT_LINK/iot_link/os/liteos/arch/arm/arm-m/include\los_svc.h **** #endif
 268:C:/Users/²Ü¼ÒºÀ/.iotlink/sdk/IoT_LINK/iot_link/os/liteos/arch/arm/arm-m/include\los_svc.h **** 
 269:C:/Users/²Ü¼ÒºÀ/.iotlink/sdk/IoT_LINK/iot_link/os/liteos/arch/arm/arm-m/include\los_svc.h **** SYSCALL_RTN (SCN_TaskCreateOnly,
  70              		.loc 2 269 1 is_stmt 1 view -0
  71              		.cfi_startproc
  72              		@ Naked Function: prologue and epilogue provided by programmer.
  73              		@ args = 0, pretend = 0, frame = 0
  74              		@ frame_needed = 0, uses_anonymous_args = 0
  75              		.loc 2 269 1 view .LVU7
  76              		.syntax unified
  77              	@ 269 "C:/Users/²Ü¼ÒºÀ/.iotlink/sdk/IoT_LINK/iot_link/os/liteos/arch/arm/arm-m/include/los_svc.h" 1
  78 0000 80B5     		push {r7, lr}
  79 0002 4FF40037 		ldr  r7, =(((0) << 24) + (((2) & 0x0f) << 16) + ((0) & 0xffff))
  80 0006 00DF     		svc  #0
  81 0008 80BD     		pop  {r7, pc}
  82              		
  83              	@ 0 "" 2
  84              	.LVL4:
  85              		.loc 2 269 1 is_stmt 0 view .LVU8
  86              		.thumb
  87              		.syntax unified
  88              		.cfi_endproc
ARM GAS  C:\Users\²Ü¼ÒºÀ\AppData\Local\Temp\ccKhPaIi.s 			page 9


  89              	.LFE287:
  91              		.section	.text.LOS_UsrTaskCreate,"ax",%progbits
  92              		.align	1
  93              		.weak	LOS_UsrTaskCreate
  94              		.syntax unified
  95              		.thumb
  96              		.thumb_func
  97              		.fpu fpv4-sp-d16
  99              	LOS_UsrTaskCreate:
 100              	.LVL5:
 101              	.LFB288:
 270:C:/Users/²Ü¼ÒºÀ/.iotlink/sdk/IoT_LINK/iot_link/os/liteos/arch/arm/arm-m/include\los_svc.h ****              UINT32, LOS_UsrTaskCreateOnly, UINT32 *puwTaskID, TSK_INIT_PARAM_S *pstInitParam)
 271:C:/Users/²Ü¼ÒºÀ/.iotlink/sdk/IoT_LINK/iot_link/os/liteos/arch/arm/arm-m/include\los_svc.h **** SYSCALL_RTN (SCN_TaskCreate,
 102              		.loc 2 271 1 is_stmt 1 view -0
 103              		.cfi_startproc
 104              		@ Naked Function: prologue and epilogue provided by programmer.
 105              		@ args = 0, pretend = 0, frame = 0
 106              		@ frame_needed = 0, uses_anonymous_args = 0
 107              		.loc 2 271 1 view .LVU10
 108              		.syntax unified
 109              	@ 271 "C:/Users/²Ü¼ÒºÀ/.iotlink/sdk/IoT_LINK/iot_link/os/liteos/arch/arm/arm-m/include/los_svc.h" 1
 110 0000 80B5     		push {r7, lr}
 111 0002 014F     		ldr  r7, =(((0) << 24) + (((2) & 0x0f) << 16) + ((1) & 0xffff))
 112 0004 00DF     		svc  #0
 113 0006 80BD     		pop  {r7, pc}
 114              		
 115              	@ 0 "" 2
 116              	.LVL6:
 117              		.loc 2 271 1 is_stmt 0 view .LVU11
 118              		.thumb
 119              		.syntax unified
 120              		.cfi_endproc
 121              	.LFE288:
 123              		.section	.text.LOS_UsrTaskDelete,"ax",%progbits
 124              		.align	1
 125              		.weak	LOS_UsrTaskDelete
 126              		.syntax unified
 127              		.thumb
 128              		.thumb_func
 129              		.fpu fpv4-sp-d16
 131              	LOS_UsrTaskDelete:
 132              	.LVL7:
 133              	.LFB289:
 272:C:/Users/²Ü¼ÒºÀ/.iotlink/sdk/IoT_LINK/iot_link/os/liteos/arch/arm/arm-m/include\los_svc.h ****              UINT32, LOS_UsrTaskCreate, UINT32 *puwTaskID, TSK_INIT_PARAM_S *pstInitParam)
 273:C:/Users/²Ü¼ÒºÀ/.iotlink/sdk/IoT_LINK/iot_link/os/liteos/arch/arm/arm-m/include\los_svc.h **** SYSCALL_RTN (SCN_TaskDelete,
 134              		.loc 2 273 1 is_stmt 1 view -0
 135              		.cfi_startproc
 136              		@ Naked Function: prologue and epilogue provided by programmer.
 137              		@ args = 0, pretend = 0, frame = 0
 138              		@ frame_needed = 0, uses_anonymous_args = 0
 139              		.loc 2 273 1 view .LVU13
 140              		.syntax unified
 141              	@ 273 "C:/Users/²Ü¼ÒºÀ/.iotlink/sdk/IoT_LINK/iot_link/os/liteos/arch/arm/arm-m/include/los_svc.h" 1
 142 0000 80B5     		push {r7, lr}
 143 0002 014F     		ldr  r7, =(((0) << 24) + (((1) & 0x0f) << 16) + ((2) & 0xffff))
 144 0004 00DF     		svc  #0
 145 0006 80BD     		pop  {r7, pc}
ARM GAS  C:\Users\²Ü¼ÒºÀ\AppData\Local\Temp\ccKhPaIi.s 			page 10


 146              		
 147              	@ 0 "" 2
 148              	.LVL8:
 149              		.loc 2 273 1 is_stmt 0 view .LVU14
 150              		.thumb
 151              		.syntax unified
 152              		.cfi_endproc
 153              	.LFE289:
 155              		.section	.text.LOS_UsrTaskResume,"ax",%progbits
 156              		.align	1
 157              		.weak	LOS_UsrTaskResume
 158              		.syntax unified
 159              		.thumb
 160              		.thumb_func
 161              		.fpu fpv4-sp-d16
 163              	LOS_UsrTaskResume:
 164              	.LVL9:
 165              	.LFB290:
 274:C:/Users/²Ü¼ÒºÀ/.iotlink/sdk/IoT_LINK/iot_link/os/liteos/arch/arm/arm-m/include\los_svc.h ****              UINT32, LOS_UsrTaskDelete, UINT32 uwTaskID)
 275:C:/Users/²Ü¼ÒºÀ/.iotlink/sdk/IoT_LINK/iot_link/os/liteos/arch/arm/arm-m/include\los_svc.h **** SYSCALL_RTN (SCN_TaskResume,
 166              		.loc 2 275 1 is_stmt 1 view -0
 167              		.cfi_startproc
 168              		@ Naked Function: prologue and epilogue provided by programmer.
 169              		@ args = 0, pretend = 0, frame = 0
 170              		@ frame_needed = 0, uses_anonymous_args = 0
 171              		.loc 2 275 1 view .LVU16
 172              		.syntax unified
 173              	@ 275 "C:/Users/²Ü¼ÒºÀ/.iotlink/sdk/IoT_LINK/iot_link/os/liteos/arch/arm/arm-m/include/los_svc.h" 1
 174 0000 80B5     		push {r7, lr}
 175 0002 014F     		ldr  r7, =(((0) << 24) + (((1) & 0x0f) << 16) + ((3) & 0xffff))
 176 0004 00DF     		svc  #0
 177 0006 80BD     		pop  {r7, pc}
 178              		
 179              	@ 0 "" 2
 180              	.LVL10:
 181              		.loc 2 275 1 is_stmt 0 view .LVU17
 182              		.thumb
 183              		.syntax unified
 184              		.cfi_endproc
 185              	.LFE290:
 187              		.section	.text.LOS_UsrTaskSuspend,"ax",%progbits
 188              		.align	1
 189              		.weak	LOS_UsrTaskSuspend
 190              		.syntax unified
 191              		.thumb
 192              		.thumb_func
 193              		.fpu fpv4-sp-d16
 195              	LOS_UsrTaskSuspend:
 196              	.LVL11:
 197              	.LFB291:
 276:C:/Users/²Ü¼ÒºÀ/.iotlink/sdk/IoT_LINK/iot_link/os/liteos/arch/arm/arm-m/include\los_svc.h ****              UINT32, LOS_UsrTaskResume, UINT32 uwTaskID)
 277:C:/Users/²Ü¼ÒºÀ/.iotlink/sdk/IoT_LINK/iot_link/os/liteos/arch/arm/arm-m/include\los_svc.h **** SYSCALL_RTN (SCN_TaskSuspend,
 198              		.loc 2 277 1 is_stmt 1 view -0
 199              		.cfi_startproc
 200              		@ Naked Function: prologue and epilogue provided by programmer.
 201              		@ args = 0, pretend = 0, frame = 0
 202              		@ frame_needed = 0, uses_anonymous_args = 0
ARM GAS  C:\Users\²Ü¼ÒºÀ\AppData\Local\Temp\ccKhPaIi.s 			page 11


 203              		.loc 2 277 1 view .LVU19
 204              		.syntax unified
 205              	@ 277 "C:/Users/²Ü¼ÒºÀ/.iotlink/sdk/IoT_LINK/iot_link/os/liteos/arch/arm/arm-m/include/los_svc.h" 1
 206 0000 80B5     		push {r7, lr}
 207 0002 014F     		ldr  r7, =(((0) << 24) + (((1) & 0x0f) << 16) + ((4) & 0xffff))
 208 0004 00DF     		svc  #0
 209 0006 80BD     		pop  {r7, pc}
 210              		
 211              	@ 0 "" 2
 212              	.LVL12:
 213              		.loc 2 277 1 is_stmt 0 view .LVU20
 214              		.thumb
 215              		.syntax unified
 216              		.cfi_endproc
 217              	.LFE291:
 219              		.section	.text.LOS_UsrTaskDelay,"ax",%progbits
 220              		.align	1
 221              		.weak	LOS_UsrTaskDelay
 222              		.syntax unified
 223              		.thumb
 224              		.thumb_func
 225              		.fpu fpv4-sp-d16
 227              	LOS_UsrTaskDelay:
 228              	.LVL13:
 229              	.LFB292:
 278:C:/Users/²Ü¼ÒºÀ/.iotlink/sdk/IoT_LINK/iot_link/os/liteos/arch/arm/arm-m/include\los_svc.h ****              UINT32, LOS_UsrTaskSuspend, UINT32 uwTaskID)
 279:C:/Users/²Ü¼ÒºÀ/.iotlink/sdk/IoT_LINK/iot_link/os/liteos/arch/arm/arm-m/include\los_svc.h **** SYSCALL_RTN (SCN_TaskDelay,
 230              		.loc 2 279 1 is_stmt 1 view -0
 231              		.cfi_startproc
 232              		@ Naked Function: prologue and epilogue provided by programmer.
 233              		@ args = 0, pretend = 0, frame = 0
 234              		@ frame_needed = 0, uses_anonymous_args = 0
 235              		.loc 2 279 1 view .LVU22
 236              		.syntax unified
 237              	@ 279 "C:/Users/²Ü¼ÒºÀ/.iotlink/sdk/IoT_LINK/iot_link/os/liteos/arch/arm/arm-m/include/los_svc.h" 1
 238 0000 80B5     		push {r7, lr}
 239 0002 014F     		ldr  r7, =(((0) << 24) + (((1) & 0x0f) << 16) + ((5) & 0xffff))
 240 0004 00DF     		svc  #0
 241 0006 80BD     		pop  {r7, pc}
 242              		
 243              	@ 0 "" 2
 244              	.LVL14:
 245              		.loc 2 279 1 is_stmt 0 view .LVU23
 246              		.thumb
 247              		.syntax unified
 248              		.cfi_endproc
 249              	.LFE292:
 251              		.section	.text.LOS_UsrTaskYield,"ax",%progbits
 252              		.align	1
 253              		.weak	LOS_UsrTaskYield
 254              		.syntax unified
 255              		.thumb
 256              		.thumb_func
 257              		.fpu fpv4-sp-d16
 259              	LOS_UsrTaskYield:
 260              	.LFB293:
 280:C:/Users/²Ü¼ÒºÀ/.iotlink/sdk/IoT_LINK/iot_link/os/liteos/arch/arm/arm-m/include\los_svc.h ****              UINT32, LOS_UsrTaskDelay, UINT32 uwTick)
ARM GAS  C:\Users\²Ü¼ÒºÀ\AppData\Local\Temp\ccKhPaIi.s 			page 12


 281:C:/Users/²Ü¼ÒºÀ/.iotlink/sdk/IoT_LINK/iot_link/os/liteos/arch/arm/arm-m/include\los_svc.h **** SYSCALL_RTN (SCN_TaskYield,
 261              		.loc 2 281 1 is_stmt 1 view -0
 262              		.cfi_startproc
 263              		@ Naked Function: prologue and epilogue provided by programmer.
 264              		@ args = 0, pretend = 0, frame = 0
 265              		@ frame_needed = 0, uses_anonymous_args = 0
 266              		.loc 2 281 1 view .LVU25
 267              		.syntax unified
 268              	@ 281 "C:/Users/²Ü¼ÒºÀ/.iotlink/sdk/IoT_LINK/iot_link/os/liteos/arch/arm/arm-m/include/los_svc.h" 1
 269 0000 80B5     		push {r7, lr}
 270 0002 4FF00607 		ldr  r7, =(((0) << 24) + (((0) & 0x0f) << 16) + ((6) & 0xffff))
 271 0006 00DF     		svc  #0
 272 0008 80BD     		pop  {r7, pc}
 273              		
 274              	@ 0 "" 2
 275              		.thumb
 276              		.syntax unified
 277              		.cfi_endproc
 278              	.LFE293:
 280              		.section	.text.LOS_UsrTaskLock,"ax",%progbits
 281              		.align	1
 282              		.weak	LOS_UsrTaskLock
 283              		.syntax unified
 284              		.thumb
 285              		.thumb_func
 286              		.fpu fpv4-sp-d16
 288              	LOS_UsrTaskLock:
 289              	.LFB294:
 282:C:/Users/²Ü¼ÒºÀ/.iotlink/sdk/IoT_LINK/iot_link/os/liteos/arch/arm/arm-m/include\los_svc.h ****              UINT32, LOS_UsrTaskYield)
 283:C:/Users/²Ü¼ÒºÀ/.iotlink/sdk/IoT_LINK/iot_link/os/liteos/arch/arm/arm-m/include\los_svc.h **** SYSCALL_RTN (SCN_TaskLock,
 290              		.loc 2 283 1 view -0
 291              		.cfi_startproc
 292              		@ Naked Function: prologue and epilogue provided by programmer.
 293              		@ args = 0, pretend = 0, frame = 0
 294              		@ frame_needed = 0, uses_anonymous_args = 0
 295              		.loc 2 283 1 view .LVU27
 296              		.syntax unified
 297              	@ 283 "C:/Users/²Ü¼ÒºÀ/.iotlink/sdk/IoT_LINK/iot_link/os/liteos/arch/arm/arm-m/include/los_svc.h" 1
 298 0000 80B5     		push {r7, lr}
 299 0002 4FF00707 		ldr  r7, =(((0) << 24) + (((0) & 0x0f) << 16) + ((7) & 0xffff))
 300 0006 00DF     		svc  #0
 301 0008 80BD     		pop  {r7, pc}
 302              		
 303              	@ 0 "" 2
 304              		.thumb
 305              		.syntax unified
 306              		.cfi_endproc
 307              	.LFE294:
 309              		.section	.text.LOS_UsrTaskUnlock,"ax",%progbits
 310              		.align	1
 311              		.weak	LOS_UsrTaskUnlock
 312              		.syntax unified
 313              		.thumb
 314              		.thumb_func
 315              		.fpu fpv4-sp-d16
 317              	LOS_UsrTaskUnlock:
 318              	.LFB295:
ARM GAS  C:\Users\²Ü¼ÒºÀ\AppData\Local\Temp\ccKhPaIi.s 			page 13


 284:C:/Users/²Ü¼ÒºÀ/.iotlink/sdk/IoT_LINK/iot_link/os/liteos/arch/arm/arm-m/include\los_svc.h ****              VOID, LOS_UsrTaskLock)
 285:C:/Users/²Ü¼ÒºÀ/.iotlink/sdk/IoT_LINK/iot_link/os/liteos/arch/arm/arm-m/include\los_svc.h **** SYSCALL_RTN (SCN_TaskUnlock,
 319              		.loc 2 285 1 view -0
 320              		.cfi_startproc
 321              		@ Naked Function: prologue and epilogue provided by programmer.
 322              		@ args = 0, pretend = 0, frame = 0
 323              		@ frame_needed = 0, uses_anonymous_args = 0
 324              		.loc 2 285 1 view .LVU29
 325              		.syntax unified
 326              	@ 285 "C:/Users/²Ü¼ÒºÀ/.iotlink/sdk/IoT_LINK/iot_link/os/liteos/arch/arm/arm-m/include/los_svc.h" 1
 327 0000 80B5     		push {r7, lr}
 328 0002 4FF00807 		ldr  r7, =(((0) << 24) + (((0) & 0x0f) << 16) + ((8) & 0xffff))
 329 0006 00DF     		svc  #0
 330 0008 80BD     		pop  {r7, pc}
 331              		
 332              	@ 0 "" 2
 333              		.thumb
 334              		.syntax unified
 335              		.cfi_endproc
 336              	.LFE295:
 338              		.section	.text.LOS_UsrCurTaskPriSet,"ax",%progbits
 339              		.align	1
 340              		.weak	LOS_UsrCurTaskPriSet
 341              		.syntax unified
 342              		.thumb
 343              		.thumb_func
 344              		.fpu fpv4-sp-d16
 346              	LOS_UsrCurTaskPriSet:
 347              	.LVL15:
 348              	.LFB296:
 286:C:/Users/²Ü¼ÒºÀ/.iotlink/sdk/IoT_LINK/iot_link/os/liteos/arch/arm/arm-m/include\los_svc.h ****              VOID, LOS_UsrTaskUnlock)
 287:C:/Users/²Ü¼ÒºÀ/.iotlink/sdk/IoT_LINK/iot_link/os/liteos/arch/arm/arm-m/include\los_svc.h **** SYSCALL_RTN (SCN_CurTaskPriSet,
 349              		.loc 2 287 1 view -0
 350              		.cfi_startproc
 351              		@ Naked Function: prologue and epilogue provided by programmer.
 352              		@ args = 0, pretend = 0, frame = 0
 353              		@ frame_needed = 0, uses_anonymous_args = 0
 354              		.loc 2 287 1 view .LVU31
 355              		.syntax unified
 356              	@ 287 "C:/Users/²Ü¼ÒºÀ/.iotlink/sdk/IoT_LINK/iot_link/os/liteos/arch/arm/arm-m/include/los_svc.h" 1
 357 0000 80B5     		push {r7, lr}
 358 0002 014F     		ldr  r7, =(((0) << 24) + (((1) & 0x0f) << 16) + ((9) & 0xffff))
 359 0004 00DF     		svc  #0
 360 0006 80BD     		pop  {r7, pc}
 361              		
 362              	@ 0 "" 2
 363              	.LVL16:
 364              		.loc 2 287 1 is_stmt 0 view .LVU32
 365              		.thumb
 366              		.syntax unified
 367              		.cfi_endproc
 368              	.LFE296:
 370              		.section	.text.LOS_UsrTaskPriSet,"ax",%progbits
 371              		.align	1
 372              		.weak	LOS_UsrTaskPriSet
 373              		.syntax unified
 374              		.thumb
ARM GAS  C:\Users\²Ü¼ÒºÀ\AppData\Local\Temp\ccKhPaIi.s 			page 14


 375              		.thumb_func
 376              		.fpu fpv4-sp-d16
 378              	LOS_UsrTaskPriSet:
 379              	.LVL17:
 380              	.LFB297:
 288:C:/Users/²Ü¼ÒºÀ/.iotlink/sdk/IoT_LINK/iot_link/os/liteos/arch/arm/arm-m/include\los_svc.h ****              UINT32, LOS_UsrCurTaskPriSet, UINT16 usTaskPrio)
 289:C:/Users/²Ü¼ÒºÀ/.iotlink/sdk/IoT_LINK/iot_link/os/liteos/arch/arm/arm-m/include\los_svc.h **** SYSCALL_RTN (SCN_TaskPriSet,
 381              		.loc 2 289 1 is_stmt 1 view -0
 382              		.cfi_startproc
 383              		@ Naked Function: prologue and epilogue provided by programmer.
 384              		@ args = 0, pretend = 0, frame = 0
 385              		@ frame_needed = 0, uses_anonymous_args = 0
 386              		.loc 2 289 1 view .LVU34
 387              		.syntax unified
 388              	@ 289 "C:/Users/²Ü¼ÒºÀ/.iotlink/sdk/IoT_LINK/iot_link/os/liteos/arch/arm/arm-m/include/los_svc.h" 1
 389 0000 80B5     		push {r7, lr}
 390 0002 014F     		ldr  r7, =(((0) << 24) + (((2) & 0x0f) << 16) + ((10) & 0xffff))
 391 0004 00DF     		svc  #0
 392 0006 80BD     		pop  {r7, pc}
 393              		
 394              	@ 0 "" 2
 395              	.LVL18:
 396              		.loc 2 289 1 is_stmt 0 view .LVU35
 397              		.thumb
 398              		.syntax unified
 399              		.cfi_endproc
 400              	.LFE297:
 402              		.section	.text.LOS_UsrTaskPriGet,"ax",%progbits
 403              		.align	1
 404              		.weak	LOS_UsrTaskPriGet
 405              		.syntax unified
 406              		.thumb
 407              		.thumb_func
 408              		.fpu fpv4-sp-d16
 410              	LOS_UsrTaskPriGet:
 411              	.LVL19:
 412              	.LFB298:
 290:C:/Users/²Ü¼ÒºÀ/.iotlink/sdk/IoT_LINK/iot_link/os/liteos/arch/arm/arm-m/include\los_svc.h ****              UINT32, LOS_UsrTaskPriSet, UINT32 uwTaskID, UINT16 usTaskPrio)
 291:C:/Users/²Ü¼ÒºÀ/.iotlink/sdk/IoT_LINK/iot_link/os/liteos/arch/arm/arm-m/include\los_svc.h **** SYSCALL_RTN (SCN_TaskPriGet,
 413              		.loc 2 291 1 is_stmt 1 view -0
 414              		.cfi_startproc
 415              		@ Naked Function: prologue and epilogue provided by programmer.
 416              		@ args = 0, pretend = 0, frame = 0
 417              		@ frame_needed = 0, uses_anonymous_args = 0
 418              		.loc 2 291 1 view .LVU37
 419              		.syntax unified
 420              	@ 291 "C:/Users/²Ü¼ÒºÀ/.iotlink/sdk/IoT_LINK/iot_link/os/liteos/arch/arm/arm-m/include/los_svc.h" 1
 421 0000 80B5     		push {r7, lr}
 422 0002 014F     		ldr  r7, =(((0) << 24) + (((1) & 0x0f) << 16) + ((11) & 0xffff))
 423 0004 00DF     		svc  #0
 424 0006 80BD     		pop  {r7, pc}
 425              		
 426              	@ 0 "" 2
 427              	.LVL20:
 428              		.loc 2 291 1 is_stmt 0 view .LVU38
 429              		.thumb
 430              		.syntax unified
ARM GAS  C:\Users\²Ü¼ÒºÀ\AppData\Local\Temp\ccKhPaIi.s 			page 15


 431              		.cfi_endproc
 432              	.LFE298:
 434              		.section	.text.LOS_UsrCurTaskIDGet,"ax",%progbits
 435              		.align	1
 436              		.weak	LOS_UsrCurTaskIDGet
 437              		.syntax unified
 438              		.thumb
 439              		.thumb_func
 440              		.fpu fpv4-sp-d16
 442              	LOS_UsrCurTaskIDGet:
 443              	.LFB299:
 292:C:/Users/²Ü¼ÒºÀ/.iotlink/sdk/IoT_LINK/iot_link/os/liteos/arch/arm/arm-m/include\los_svc.h ****              UINT16, LOS_UsrTaskPriGet, UINT32 uwTaskID)
 293:C:/Users/²Ü¼ÒºÀ/.iotlink/sdk/IoT_LINK/iot_link/os/liteos/arch/arm/arm-m/include\los_svc.h **** SYSCALL_RTN (SCN_CurTaskIDGet,
 444              		.loc 2 293 1 is_stmt 1 view -0
 445              		.cfi_startproc
 446              		@ Naked Function: prologue and epilogue provided by programmer.
 447              		@ args = 0, pretend = 0, frame = 0
 448              		@ frame_needed = 0, uses_anonymous_args = 0
 449              		.loc 2 293 1 view .LVU40
 450              		.syntax unified
 451              	@ 293 "C:/Users/²Ü¼ÒºÀ/.iotlink/sdk/IoT_LINK/iot_link/os/liteos/arch/arm/arm-m/include/los_svc.h" 1
 452 0000 80B5     		push {r7, lr}
 453 0002 4FF00C07 		ldr  r7, =(((0) << 24) + (((0) & 0x0f) << 16) + ((12) & 0xffff))
 454 0006 00DF     		svc  #0
 455 0008 80BD     		pop  {r7, pc}
 456              		
 457              	@ 0 "" 2
 458              		.thumb
 459              		.syntax unified
 460              		.cfi_endproc
 461              	.LFE299:
 463              		.section	.text.LOS_UsrTaskInfoGet,"ax",%progbits
 464              		.align	1
 465              		.weak	LOS_UsrTaskInfoGet
 466              		.syntax unified
 467              		.thumb
 468              		.thumb_func
 469              		.fpu fpv4-sp-d16
 471              	LOS_UsrTaskInfoGet:
 472              	.LVL21:
 473              	.LFB300:
 294:C:/Users/²Ü¼ÒºÀ/.iotlink/sdk/IoT_LINK/iot_link/os/liteos/arch/arm/arm-m/include\los_svc.h ****              UINT32, LOS_UsrCurTaskIDGet)
 295:C:/Users/²Ü¼ÒºÀ/.iotlink/sdk/IoT_LINK/iot_link/os/liteos/arch/arm/arm-m/include\los_svc.h **** SYSCALL_RTN (SCN_TaskInfoGet,
 474              		.loc 2 295 1 view -0
 475              		.cfi_startproc
 476              		@ Naked Function: prologue and epilogue provided by programmer.
 477              		@ args = 0, pretend = 0, frame = 0
 478              		@ frame_needed = 0, uses_anonymous_args = 0
 479              		.loc 2 295 1 view .LVU42
 480              		.syntax unified
 481              	@ 295 "C:/Users/²Ü¼ÒºÀ/.iotlink/sdk/IoT_LINK/iot_link/os/liteos/arch/arm/arm-m/include/los_svc.h" 1
 482 0000 80B5     		push {r7, lr}
 483 0002 014F     		ldr  r7, =(((0) << 24) + (((2) & 0x0f) << 16) + ((13) & 0xffff))
 484 0004 00DF     		svc  #0
 485 0006 80BD     		pop  {r7, pc}
 486              		
 487              	@ 0 "" 2
ARM GAS  C:\Users\²Ü¼ÒºÀ\AppData\Local\Temp\ccKhPaIi.s 			page 16


 488              	.LVL22:
 489              		.loc 2 295 1 is_stmt 0 view .LVU43
 490              		.thumb
 491              		.syntax unified
 492              		.cfi_endproc
 493              	.LFE300:
 495              		.section	.text.LOS_UsrTaskStatusGet,"ax",%progbits
 496              		.align	1
 497              		.weak	LOS_UsrTaskStatusGet
 498              		.syntax unified
 499              		.thumb
 500              		.thumb_func
 501              		.fpu fpv4-sp-d16
 503              	LOS_UsrTaskStatusGet:
 504              	.LVL23:
 505              	.LFB301:
 296:C:/Users/²Ü¼ÒºÀ/.iotlink/sdk/IoT_LINK/iot_link/os/liteos/arch/arm/arm-m/include\los_svc.h ****              UINT32, LOS_UsrTaskInfoGet, UINT32 uwTaskID, TSK_INFO_S *pstTaskInfo)
 297:C:/Users/²Ü¼ÒºÀ/.iotlink/sdk/IoT_LINK/iot_link/os/liteos/arch/arm/arm-m/include\los_svc.h **** SYSCALL_RTN (SCN_TaskStatusGet,
 506              		.loc 2 297 1 is_stmt 1 view -0
 507              		.cfi_startproc
 508              		@ Naked Function: prologue and epilogue provided by programmer.
 509              		@ args = 0, pretend = 0, frame = 0
 510              		@ frame_needed = 0, uses_anonymous_args = 0
 511              		.loc 2 297 1 view .LVU45
 512              		.syntax unified
 513              	@ 297 "C:/Users/²Ü¼ÒºÀ/.iotlink/sdk/IoT_LINK/iot_link/os/liteos/arch/arm/arm-m/include/los_svc.h" 1
 514 0000 80B5     		push {r7, lr}
 515 0002 014F     		ldr  r7, =(((0) << 24) + (((2) & 0x0f) << 16) + ((14) & 0xffff))
 516 0004 00DF     		svc  #0
 517 0006 80BD     		pop  {r7, pc}
 518              		
 519              	@ 0 "" 2
 520              	.LVL24:
 521              		.loc 2 297 1 is_stmt 0 view .LVU46
 522              		.thumb
 523              		.syntax unified
 524              		.cfi_endproc
 525              	.LFE301:
 527              		.section	.text.LOS_UsrTaskNameGet,"ax",%progbits
 528              		.align	1
 529              		.weak	LOS_UsrTaskNameGet
 530              		.syntax unified
 531              		.thumb
 532              		.thumb_func
 533              		.fpu fpv4-sp-d16
 535              	LOS_UsrTaskNameGet:
 536              	.LVL25:
 537              	.LFB302:
 298:C:/Users/²Ü¼ÒºÀ/.iotlink/sdk/IoT_LINK/iot_link/os/liteos/arch/arm/arm-m/include\los_svc.h ****              UINT32, LOS_UsrTaskStatusGet, UINT32 uwTaskID, UINT32* puwTaskStatus)
 299:C:/Users/²Ü¼ÒºÀ/.iotlink/sdk/IoT_LINK/iot_link/os/liteos/arch/arm/arm-m/include\los_svc.h **** SYSCALL_RTN (SCN_TaskNameGet,
 538              		.loc 2 299 1 is_stmt 1 view -0
 539              		.cfi_startproc
 540              		@ Naked Function: prologue and epilogue provided by programmer.
 541              		@ args = 0, pretend = 0, frame = 0
 542              		@ frame_needed = 0, uses_anonymous_args = 0
 543              		.loc 2 299 1 view .LVU48
 544              		.syntax unified
ARM GAS  C:\Users\²Ü¼ÒºÀ\AppData\Local\Temp\ccKhPaIi.s 			page 17


 545              	@ 299 "C:/Users/²Ü¼ÒºÀ/.iotlink/sdk/IoT_LINK/iot_link/os/liteos/arch/arm/arm-m/include/los_svc.h" 1
 546 0000 80B5     		push {r7, lr}
 547 0002 4FF00F07 		ldr  r7, =(((0) << 24) + (((0) & 0x0f) << 16) + ((15) & 0xffff))
 548 0006 00DF     		svc  #0
 549 0008 80BD     		pop  {r7, pc}
 550              		
 551              	@ 0 "" 2
 552              	.LVL26:
 553              		.loc 2 299 1 is_stmt 0 view .LVU49
 554              		.thumb
 555              		.syntax unified
 556              		.cfi_endproc
 557              	.LFE302:
 559              		.section	.text.LOS_UsrTaskInfoMonitor,"ax",%progbits
 560              		.align	1
 561              		.weak	LOS_UsrTaskInfoMonitor
 562              		.syntax unified
 563              		.thumb
 564              		.thumb_func
 565              		.fpu fpv4-sp-d16
 567              	LOS_UsrTaskInfoMonitor:
 568              	.LFB303:
 300:C:/Users/²Ü¼ÒºÀ/.iotlink/sdk/IoT_LINK/iot_link/os/liteos/arch/arm/arm-m/include\los_svc.h ****              CHAR *, LOS_UsrTaskNameGet, UINT32 uwTaskID)
 301:C:/Users/²Ü¼ÒºÀ/.iotlink/sdk/IoT_LINK/iot_link/os/liteos/arch/arm/arm-m/include\los_svc.h **** SYSCALL_RTN (SCN_TaskInfoMonitor,
 569              		.loc 2 301 1 is_stmt 1 view -0
 570              		.cfi_startproc
 571              		@ Naked Function: prologue and epilogue provided by programmer.
 572              		@ args = 0, pretend = 0, frame = 0
 573              		@ frame_needed = 0, uses_anonymous_args = 0
 574              		.loc 2 301 1 view .LVU51
 575              		.syntax unified
 576              	@ 301 "C:/Users/²Ü¼ÒºÀ/.iotlink/sdk/IoT_LINK/iot_link/os/liteos/arch/arm/arm-m/include/los_svc.h" 1
 577 0000 80B5     		push {r7, lr}
 578 0002 4FF01007 		ldr  r7, =(((0) << 24) + (((0) & 0x0f) << 16) + ((16) & 0xffff))
 579 0006 00DF     		svc  #0
 580 0008 80BD     		pop  {r7, pc}
 581              		
 582              	@ 0 "" 2
 583              		.thumb
 584              		.syntax unified
 585              		.cfi_endproc
 586              	.LFE303:
 588              		.section	.text.LOS_UsrNextTaskIDGet,"ax",%progbits
 589              		.align	1
 590              		.weak	LOS_UsrNextTaskIDGet
 591              		.syntax unified
 592              		.thumb
 593              		.thumb_func
 594              		.fpu fpv4-sp-d16
 596              	LOS_UsrNextTaskIDGet:
 597              	.LFB304:
 302:C:/Users/²Ü¼ÒºÀ/.iotlink/sdk/IoT_LINK/iot_link/os/liteos/arch/arm/arm-m/include\los_svc.h ****              UINT32, LOS_UsrTaskInfoMonitor)
 303:C:/Users/²Ü¼ÒºÀ/.iotlink/sdk/IoT_LINK/iot_link/os/liteos/arch/arm/arm-m/include\los_svc.h **** SYSCALL_RTN (SCN_NextTaskIDGet,
 598              		.loc 2 303 1 view -0
 599              		.cfi_startproc
 600              		@ Naked Function: prologue and epilogue provided by programmer.
 601              		@ args = 0, pretend = 0, frame = 0
ARM GAS  C:\Users\²Ü¼ÒºÀ\AppData\Local\Temp\ccKhPaIi.s 			page 18


 602              		@ frame_needed = 0, uses_anonymous_args = 0
 603              		.loc 2 303 1 view .LVU53
 604              		.syntax unified
 605              	@ 303 "C:/Users/²Ü¼ÒºÀ/.iotlink/sdk/IoT_LINK/iot_link/os/liteos/arch/arm/arm-m/include/los_svc.h" 1
 606 0000 80B5     		push {r7, lr}
 607 0002 4FF01107 		ldr  r7, =(((0) << 24) + (((0) & 0x0f) << 16) + ((17) & 0xffff))
 608 0006 00DF     		svc  #0
 609 0008 80BD     		pop  {r7, pc}
 610              		
 611              	@ 0 "" 2
 612              		.thumb
 613              		.syntax unified
 614              		.cfi_endproc
 615              	.LFE304:
 617              		.section	.text.LOS_UsrMemboxInit,"ax",%progbits
 618              		.align	1
 619              		.weak	LOS_UsrMemboxInit
 620              		.syntax unified
 621              		.thumb
 622              		.thumb_func
 623              		.fpu fpv4-sp-d16
 625              	LOS_UsrMemboxInit:
 626              	.LVL27:
 627              	.LFB305:
 304:C:/Users/²Ü¼ÒºÀ/.iotlink/sdk/IoT_LINK/iot_link/os/liteos/arch/arm/arm-m/include\los_svc.h ****              UINT32, LOS_UsrNextTaskIDGet)
 305:C:/Users/²Ü¼ÒºÀ/.iotlink/sdk/IoT_LINK/iot_link/os/liteos/arch/arm/arm-m/include\los_svc.h **** 
 306:C:/Users/²Ü¼ÒºÀ/.iotlink/sdk/IoT_LINK/iot_link/os/liteos/arch/arm/arm-m/include\los_svc.h **** SYSCALL_RTN (SCN_MemboxInit,
 628              		.loc 2 306 1 view -0
 629              		.cfi_startproc
 630              		@ Naked Function: prologue and epilogue provided by programmer.
 631              		@ args = 0, pretend = 0, frame = 0
 632              		@ frame_needed = 0, uses_anonymous_args = 0
 633              		.loc 2 306 1 view .LVU55
 634              		.syntax unified
 635              	@ 306 "C:/Users/²Ü¼ÒºÀ/.iotlink/sdk/IoT_LINK/iot_link/os/liteos/arch/arm/arm-m/include/los_svc.h" 1
 636 0000 80B5     		push {r7, lr}
 637 0002 014F     		ldr  r7, =(((1) << 24) + (((3) & 0x0f) << 16) + ((0) & 0xffff))
 638 0004 00DF     		svc  #0
 639 0006 80BD     		pop  {r7, pc}
 640              		
 641              	@ 0 "" 2
 642              	.LVL28:
 643              		.loc 2 306 1 is_stmt 0 view .LVU56
 644              		.thumb
 645              		.syntax unified
 646              		.cfi_endproc
 647              	.LFE305:
 649              		.section	.text.LOS_UsrMemboxClr,"ax",%progbits
 650              		.align	1
 651              		.weak	LOS_UsrMemboxClr
 652              		.syntax unified
 653              		.thumb
 654              		.thumb_func
 655              		.fpu fpv4-sp-d16
 657              	LOS_UsrMemboxClr:
 658              	.LVL29:
 659              	.LFB306:
ARM GAS  C:\Users\²Ü¼ÒºÀ\AppData\Local\Temp\ccKhPaIi.s 			page 19


 307:C:/Users/²Ü¼ÒºÀ/.iotlink/sdk/IoT_LINK/iot_link/os/liteos/arch/arm/arm-m/include\los_svc.h ****              UINT32, LOS_UsrMemboxInit, VOID *pBoxMem, UINT32 uwBoxSize, UINT32 uwBlkSize)
 308:C:/Users/²Ü¼ÒºÀ/.iotlink/sdk/IoT_LINK/iot_link/os/liteos/arch/arm/arm-m/include\los_svc.h **** SYSCALL_RTN (SCN_MemboxClr,
 660              		.loc 2 308 1 is_stmt 1 view -0
 661              		.cfi_startproc
 662              		@ Naked Function: prologue and epilogue provided by programmer.
 663              		@ args = 0, pretend = 0, frame = 0
 664              		@ frame_needed = 0, uses_anonymous_args = 0
 665              		.loc 2 308 1 view .LVU58
 666              		.syntax unified
 667              	@ 308 "C:/Users/²Ü¼ÒºÀ/.iotlink/sdk/IoT_LINK/iot_link/os/liteos/arch/arm/arm-m/include/los_svc.h" 1
 668 0000 80B5     		push {r7, lr}
 669 0002 014F     		ldr  r7, =(((1) << 24) + (((2) & 0x0f) << 16) + ((1) & 0xffff))
 670 0004 00DF     		svc  #0
 671 0006 80BD     		pop  {r7, pc}
 672              		
 673              	@ 0 "" 2
 674              	.LVL30:
 675              		.loc 2 308 1 is_stmt 0 view .LVU59
 676              		.thumb
 677              		.syntax unified
 678              		.cfi_endproc
 679              	.LFE306:
 681              		.section	.text.LOS_UsrMemboxAlloc,"ax",%progbits
 682              		.align	1
 683              		.weak	LOS_UsrMemboxAlloc
 684              		.syntax unified
 685              		.thumb
 686              		.thumb_func
 687              		.fpu fpv4-sp-d16
 689              	LOS_UsrMemboxAlloc:
 690              	.LVL31:
 691              	.LFB307:
 309:C:/Users/²Ü¼ÒºÀ/.iotlink/sdk/IoT_LINK/iot_link/os/liteos/arch/arm/arm-m/include\los_svc.h ****              VOID, LOS_UsrMemboxClr, VOID *pBoxMem, VOID *pBox)
 310:C:/Users/²Ü¼ÒºÀ/.iotlink/sdk/IoT_LINK/iot_link/os/liteos/arch/arm/arm-m/include\los_svc.h **** SYSCALL_RTN (SCN_MemboxAlloc,
 692              		.loc 2 310 1 is_stmt 1 view -0
 693              		.cfi_startproc
 694              		@ Naked Function: prologue and epilogue provided by programmer.
 695              		@ args = 0, pretend = 0, frame = 0
 696              		@ frame_needed = 0, uses_anonymous_args = 0
 697              		.loc 2 310 1 view .LVU61
 698              		.syntax unified
 699              	@ 310 "C:/Users/²Ü¼ÒºÀ/.iotlink/sdk/IoT_LINK/iot_link/os/liteos/arch/arm/arm-m/include/los_svc.h" 1
 700 0000 80B5     		push {r7, lr}
 701 0002 014F     		ldr  r7, =(((1) << 24) + (((1) & 0x0f) << 16) + ((2) & 0xffff))
 702 0004 00DF     		svc  #0
 703 0006 80BD     		pop  {r7, pc}
 704              		
 705              	@ 0 "" 2
 706              	.LVL32:
 707              		.loc 2 310 1 is_stmt 0 view .LVU62
 708              		.thumb
 709              		.syntax unified
 710              		.cfi_endproc
 711              	.LFE307:
 713              		.section	.text.LOS_UsrMemboxFree,"ax",%progbits
 714              		.align	1
 715              		.weak	LOS_UsrMemboxFree
ARM GAS  C:\Users\²Ü¼ÒºÀ\AppData\Local\Temp\ccKhPaIi.s 			page 20


 716              		.syntax unified
 717              		.thumb
 718              		.thumb_func
 719              		.fpu fpv4-sp-d16
 721              	LOS_UsrMemboxFree:
 722              	.LVL33:
 723              	.LFB308:
 311:C:/Users/²Ü¼ÒºÀ/.iotlink/sdk/IoT_LINK/iot_link/os/liteos/arch/arm/arm-m/include\los_svc.h ****              VOID *, LOS_UsrMemboxAlloc, VOID *pBoxMem)
 312:C:/Users/²Ü¼ÒºÀ/.iotlink/sdk/IoT_LINK/iot_link/os/liteos/arch/arm/arm-m/include\los_svc.h **** SYSCALL_RTN (SCN_MemboxFree,
 724              		.loc 2 312 1 is_stmt 1 view -0
 725              		.cfi_startproc
 726              		@ Naked Function: prologue and epilogue provided by programmer.
 727              		@ args = 0, pretend = 0, frame = 0
 728              		@ frame_needed = 0, uses_anonymous_args = 0
 729              		.loc 2 312 1 view .LVU64
 730              		.syntax unified
 731              	@ 312 "C:/Users/²Ü¼ÒºÀ/.iotlink/sdk/IoT_LINK/iot_link/os/liteos/arch/arm/arm-m/include/los_svc.h" 1
 732 0000 80B5     		push {r7, lr}
 733 0002 014F     		ldr  r7, =(((1) << 24) + (((2) & 0x0f) << 16) + ((3) & 0xffff))
 734 0004 00DF     		svc  #0
 735 0006 80BD     		pop  {r7, pc}
 736              		
 737              	@ 0 "" 2
 738              	.LVL34:
 739              		.loc 2 312 1 is_stmt 0 view .LVU65
 740              		.thumb
 741              		.syntax unified
 742              		.cfi_endproc
 743              	.LFE308:
 745              		.section	.text.LOS_UsrMemboxStatisticsGet,"ax",%progbits
 746              		.align	1
 747              		.weak	LOS_UsrMemboxStatisticsGet
 748              		.syntax unified
 749              		.thumb
 750              		.thumb_func
 751              		.fpu fpv4-sp-d16
 753              	LOS_UsrMemboxStatisticsGet:
 754              	.LVL35:
 755              	.LFB309:
 313:C:/Users/²Ü¼ÒºÀ/.iotlink/sdk/IoT_LINK/iot_link/os/liteos/arch/arm/arm-m/include\los_svc.h ****              UINT32, LOS_UsrMemboxFree, VOID *pBoxMem, VOID *pBox)
 314:C:/Users/²Ü¼ÒºÀ/.iotlink/sdk/IoT_LINK/iot_link/os/liteos/arch/arm/arm-m/include\los_svc.h **** SYSCALL_RTN (SCN_MemboxStatisticsGet,
 756              		.loc 2 314 1 is_stmt 1 view -0
 757              		.cfi_startproc
 758              		@ Naked Function: prologue and epilogue provided by programmer.
 759              		@ args = 0, pretend = 0, frame = 0
 760              		@ frame_needed = 0, uses_anonymous_args = 0
 761              		.loc 2 314 1 view .LVU67
 762              		.syntax unified
 763              	@ 314 "C:/Users/²Ü¼ÒºÀ/.iotlink/sdk/IoT_LINK/iot_link/os/liteos/arch/arm/arm-m/include/los_svc.h" 1
 764 0000 80B5     		push {r7, lr}
 765 0002 014F     		ldr  r7, =(((1) << 24) + (((4) & 0x0f) << 16) + ((4) & 0xffff))
 766 0004 00DF     		svc  #0
 767 0006 80BD     		pop  {r7, pc}
 768              		
 769              	@ 0 "" 2
 770              	.LVL36:
 771              		.loc 2 314 1 is_stmt 0 view .LVU68
ARM GAS  C:\Users\²Ü¼ÒºÀ\AppData\Local\Temp\ccKhPaIi.s 			page 21


 772              		.thumb
 773              		.syntax unified
 774              		.cfi_endproc
 775              	.LFE309:
 777              		.section	.text.LOS_UsrMemInit,"ax",%progbits
 778              		.align	1
 779              		.weak	LOS_UsrMemInit
 780              		.syntax unified
 781              		.thumb
 782              		.thumb_func
 783              		.fpu fpv4-sp-d16
 785              	LOS_UsrMemInit:
 786              	.LVL37:
 787              	.LFB310:
 315:C:/Users/²Ü¼ÒºÀ/.iotlink/sdk/IoT_LINK/iot_link/os/liteos/arch/arm/arm-m/include\los_svc.h ****              UINT32, LOS_UsrMemboxStatisticsGet, VOID *pBoxMem, UINT32 *puwMaxBlk, UINT32 *puwBlkCn
 316:C:/Users/²Ü¼ÒºÀ/.iotlink/sdk/IoT_LINK/iot_link/os/liteos/arch/arm/arm-m/include\los_svc.h **** SYSCALL_RTN (SCN_MemInit,
 788              		.loc 2 316 1 is_stmt 1 view -0
 789              		.cfi_startproc
 790              		@ Naked Function: prologue and epilogue provided by programmer.
 791              		@ args = 0, pretend = 0, frame = 0
 792              		@ frame_needed = 0, uses_anonymous_args = 0
 793              		.loc 2 316 1 view .LVU70
 794              		.syntax unified
 795              	@ 316 "C:/Users/²Ü¼ÒºÀ/.iotlink/sdk/IoT_LINK/iot_link/os/liteos/arch/arm/arm-m/include/los_svc.h" 1
 796 0000 80B5     		push {r7, lr}
 797 0002 014F     		ldr  r7, =(((1) << 24) + (((2) & 0x0f) << 16) + ((5) & 0xffff))
 798 0004 00DF     		svc  #0
 799 0006 80BD     		pop  {r7, pc}
 800              		
 801              	@ 0 "" 2
 802              	.LVL38:
 803              		.loc 2 316 1 is_stmt 0 view .LVU71
 804              		.thumb
 805              		.syntax unified
 806              		.cfi_endproc
 807              	.LFE310:
 809              		.section	.text.LOS_UsrMemAlloc,"ax",%progbits
 810              		.align	1
 811              		.weak	LOS_UsrMemAlloc
 812              		.syntax unified
 813              		.thumb
 814              		.thumb_func
 815              		.fpu fpv4-sp-d16
 817              	LOS_UsrMemAlloc:
 818              	.LVL39:
 819              	.LFB311:
 317:C:/Users/²Ü¼ÒºÀ/.iotlink/sdk/IoT_LINK/iot_link/os/liteos/arch/arm/arm-m/include\los_svc.h ****              UINT32, LOS_UsrMemInit, VOID *pPool, UINT32 uwSize)
 318:C:/Users/²Ü¼ÒºÀ/.iotlink/sdk/IoT_LINK/iot_link/os/liteos/arch/arm/arm-m/include\los_svc.h **** SYSCALL_RTN (SCN_MemAlloc,
 820              		.loc 2 318 1 is_stmt 1 view -0
 821              		.cfi_startproc
 822              		@ Naked Function: prologue and epilogue provided by programmer.
 823              		@ args = 0, pretend = 0, frame = 0
 824              		@ frame_needed = 0, uses_anonymous_args = 0
 825              		.loc 2 318 1 view .LVU73
 826              		.syntax unified
 827              	@ 318 "C:/Users/²Ü¼ÒºÀ/.iotlink/sdk/IoT_LINK/iot_link/os/liteos/arch/arm/arm-m/include/los_svc.h" 1
 828 0000 80B5     		push {r7, lr}
ARM GAS  C:\Users\²Ü¼ÒºÀ\AppData\Local\Temp\ccKhPaIi.s 			page 22


 829 0002 014F     		ldr  r7, =(((1) << 24) + (((2) & 0x0f) << 16) + ((6) & 0xffff))
 830 0004 00DF     		svc  #0
 831 0006 80BD     		pop  {r7, pc}
 832              		
 833              	@ 0 "" 2
 834              	.LVL40:
 835              		.loc 2 318 1 is_stmt 0 view .LVU74
 836              		.thumb
 837              		.syntax unified
 838              		.cfi_endproc
 839              	.LFE311:
 841              		.section	.text.LOS_UsrMemFree,"ax",%progbits
 842              		.align	1
 843              		.weak	LOS_UsrMemFree
 844              		.syntax unified
 845              		.thumb
 846              		.thumb_func
 847              		.fpu fpv4-sp-d16
 849              	LOS_UsrMemFree:
 850              	.LVL41:
 851              	.LFB312:
 319:C:/Users/²Ü¼ÒºÀ/.iotlink/sdk/IoT_LINK/iot_link/os/liteos/arch/arm/arm-m/include\los_svc.h ****              VOID *, LOS_UsrMemAlloc , VOID *pPool, UINT32  size)
 320:C:/Users/²Ü¼ÒºÀ/.iotlink/sdk/IoT_LINK/iot_link/os/liteos/arch/arm/arm-m/include\los_svc.h **** SYSCALL_RTN (SCN_MemFree,
 852              		.loc 2 320 1 is_stmt 1 view -0
 853              		.cfi_startproc
 854              		@ Naked Function: prologue and epilogue provided by programmer.
 855              		@ args = 0, pretend = 0, frame = 0
 856              		@ frame_needed = 0, uses_anonymous_args = 0
 857              		.loc 2 320 1 view .LVU76
 858              		.syntax unified
 859              	@ 320 "C:/Users/²Ü¼ÒºÀ/.iotlink/sdk/IoT_LINK/iot_link/os/liteos/arch/arm/arm-m/include/los_svc.h" 1
 860 0000 80B5     		push {r7, lr}
 861 0002 014F     		ldr  r7, =(((1) << 24) + (((2) & 0x0f) << 16) + ((7) & 0xffff))
 862 0004 00DF     		svc  #0
 863 0006 80BD     		pop  {r7, pc}
 864              		
 865              	@ 0 "" 2
 866              	.LVL42:
 867              		.loc 2 320 1 is_stmt 0 view .LVU77
 868              		.thumb
 869              		.syntax unified
 870              		.cfi_endproc
 871              	.LFE312:
 873              		.section	.text.LOS_UsrMemRealloc,"ax",%progbits
 874              		.align	1
 875              		.weak	LOS_UsrMemRealloc
 876              		.syntax unified
 877              		.thumb
 878              		.thumb_func
 879              		.fpu fpv4-sp-d16
 881              	LOS_UsrMemRealloc:
 882              	.LVL43:
 883              	.LFB313:
 321:C:/Users/²Ü¼ÒºÀ/.iotlink/sdk/IoT_LINK/iot_link/os/liteos/arch/arm/arm-m/include\los_svc.h ****              UINT32, LOS_UsrMemFree, VOID *pPool, VOID *pMem)
 322:C:/Users/²Ü¼ÒºÀ/.iotlink/sdk/IoT_LINK/iot_link/os/liteos/arch/arm/arm-m/include\los_svc.h **** SYSCALL_RTN (SCN_MemRealloc,
 884              		.loc 2 322 1 is_stmt 1 view -0
 885              		.cfi_startproc
ARM GAS  C:\Users\²Ü¼ÒºÀ\AppData\Local\Temp\ccKhPaIi.s 			page 23


 886              		@ Naked Function: prologue and epilogue provided by programmer.
 887              		@ args = 0, pretend = 0, frame = 0
 888              		@ frame_needed = 0, uses_anonymous_args = 0
 889              		.loc 2 322 1 view .LVU79
 890              		.syntax unified
 891              	@ 322 "C:/Users/²Ü¼ÒºÀ/.iotlink/sdk/IoT_LINK/iot_link/os/liteos/arch/arm/arm-m/include/los_svc.h" 1
 892 0000 80B5     		push {r7, lr}
 893 0002 014F     		ldr  r7, =(((1) << 24) + (((3) & 0x0f) << 16) + ((8) & 0xffff))
 894 0004 00DF     		svc  #0
 895 0006 80BD     		pop  {r7, pc}
 896              		
 897              	@ 0 "" 2
 898              	.LVL44:
 899              		.loc 2 322 1 is_stmt 0 view .LVU80
 900              		.thumb
 901              		.syntax unified
 902              		.cfi_endproc
 903              	.LFE313:
 905              		.section	.text.LOS_UsrMemAllocAlign,"ax",%progbits
 906              		.align	1
 907              		.weak	LOS_UsrMemAllocAlign
 908              		.syntax unified
 909              		.thumb
 910              		.thumb_func
 911              		.fpu fpv4-sp-d16
 913              	LOS_UsrMemAllocAlign:
 914              	.LVL45:
 915              	.LFB314:
 323:C:/Users/²Ü¼ÒºÀ/.iotlink/sdk/IoT_LINK/iot_link/os/liteos/arch/arm/arm-m/include\los_svc.h ****              VOID *, LOS_UsrMemRealloc, VOID *pPool, VOID *pPtr, UINT32 uwSize)
 324:C:/Users/²Ü¼ÒºÀ/.iotlink/sdk/IoT_LINK/iot_link/os/liteos/arch/arm/arm-m/include\los_svc.h **** SYSCALL_RTN (SCN_MemAllocAlign,
 916              		.loc 2 324 1 is_stmt 1 view -0
 917              		.cfi_startproc
 918              		@ Naked Function: prologue and epilogue provided by programmer.
 919              		@ args = 0, pretend = 0, frame = 0
 920              		@ frame_needed = 0, uses_anonymous_args = 0
 921              		.loc 2 324 1 view .LVU82
 922              		.syntax unified
 923              	@ 324 "C:/Users/²Ü¼ÒºÀ/.iotlink/sdk/IoT_LINK/iot_link/os/liteos/arch/arm/arm-m/include/los_svc.h" 1
 924 0000 80B5     		push {r7, lr}
 925 0002 014F     		ldr  r7, =(((1) << 24) + (((3) & 0x0f) << 16) + ((9) & 0xffff))
 926 0004 00DF     		svc  #0
 927 0006 80BD     		pop  {r7, pc}
 928              		
 929              	@ 0 "" 2
 930              	.LVL46:
 931              		.loc 2 324 1 is_stmt 0 view .LVU83
 932              		.thumb
 933              		.syntax unified
 934              		.cfi_endproc
 935              	.LFE314:
 937              		.section	.text.LOS_UsrQueueCreate,"ax",%progbits
 938              		.align	1
 939              		.weak	LOS_UsrQueueCreate
 940              		.syntax unified
 941              		.thumb
 942              		.thumb_func
 943              		.fpu fpv4-sp-d16
ARM GAS  C:\Users\²Ü¼ÒºÀ\AppData\Local\Temp\ccKhPaIi.s 			page 24


 945              	LOS_UsrQueueCreate:
 946              	.LVL47:
 947              	.LFB315:
 325:C:/Users/²Ü¼ÒºÀ/.iotlink/sdk/IoT_LINK/iot_link/os/liteos/arch/arm/arm-m/include\los_svc.h ****              VOID *, LOS_UsrMemAllocAlign , VOID *pPool, UINT32 uwSize, UINT32 uwBoundary)
 326:C:/Users/²Ü¼ÒºÀ/.iotlink/sdk/IoT_LINK/iot_link/os/liteos/arch/arm/arm-m/include\los_svc.h **** 
 327:C:/Users/²Ü¼ÒºÀ/.iotlink/sdk/IoT_LINK/iot_link/os/liteos/arch/arm/arm-m/include\los_svc.h **** typedef struct
 328:C:/Users/²Ü¼ÒºÀ/.iotlink/sdk/IoT_LINK/iot_link/os/liteos/arch/arm/arm-m/include\los_svc.h **** {
 329:C:/Users/²Ü¼ÒºÀ/.iotlink/sdk/IoT_LINK/iot_link/os/liteos/arch/arm/arm-m/include\los_svc.h ****      CHAR * pcQueueName;
 330:C:/Users/²Ü¼ÒºÀ/.iotlink/sdk/IoT_LINK/iot_link/os/liteos/arch/arm/arm-m/include\los_svc.h ****      UINT16 usLen;
 331:C:/Users/²Ü¼ÒºÀ/.iotlink/sdk/IoT_LINK/iot_link/os/liteos/arch/arm/arm-m/include\los_svc.h ****      UINT32 *puwQueueID;
 332:C:/Users/²Ü¼ÒºÀ/.iotlink/sdk/IoT_LINK/iot_link/os/liteos/arch/arm/arm-m/include\los_svc.h ****      UINT32 uwFlags;
 333:C:/Users/²Ü¼ÒºÀ/.iotlink/sdk/IoT_LINK/iot_link/os/liteos/arch/arm/arm-m/include\los_svc.h ****      UINT16 usMaxMsgSize;
 334:C:/Users/²Ü¼ÒºÀ/.iotlink/sdk/IoT_LINK/iot_link/os/liteos/arch/arm/arm-m/include\los_svc.h **** } QUEUE_INIT_PARAM_S;
 335:C:/Users/²Ü¼ÒºÀ/.iotlink/sdk/IoT_LINK/iot_link/os/liteos/arch/arm/arm-m/include\los_svc.h **** 
 336:C:/Users/²Ü¼ÒºÀ/.iotlink/sdk/IoT_LINK/iot_link/os/liteos/arch/arm/arm-m/include\los_svc.h **** 
 337:C:/Users/²Ü¼ÒºÀ/.iotlink/sdk/IoT_LINK/iot_link/os/liteos/arch/arm/arm-m/include\los_svc.h **** SYSCALL_RTN (SCN_QueueCreate,
 948              		.loc 2 337 1 is_stmt 1 view -0
 949              		.cfi_startproc
 950              		@ Naked Function: prologue and epilogue provided by programmer.
 951              		@ args = 0, pretend = 0, frame = 0
 952              		@ frame_needed = 0, uses_anonymous_args = 0
 953              		.loc 2 337 1 view .LVU85
 954              		.syntax unified
 955              	@ 337 "C:/Users/²Ü¼ÒºÀ/.iotlink/sdk/IoT_LINK/iot_link/os/liteos/arch/arm/arm-m/include/los_svc.h" 1
 956 0000 80B5     		push {r7, lr}
 957 0002 014F     		ldr  r7, =(((2) << 24) + (((5) & 0x0f) << 16) + ((0) & 0xffff))
 958 0004 00DF     		svc  #0
 959 0006 80BD     		pop  {r7, pc}
 960              		
 961              	@ 0 "" 2
 962              	.LVL48:
 963              		.loc 2 337 1 is_stmt 0 view .LVU86
 964              		.thumb
 965              		.syntax unified
 966              		.cfi_endproc
 967              	.LFE315:
 969              		.section	.text.LOS_UsrQueueRead,"ax",%progbits
 970              		.align	1
 971              		.weak	LOS_UsrQueueRead
 972              		.syntax unified
 973              		.thumb
 974              		.thumb_func
 975              		.fpu fpv4-sp-d16
 977              	LOS_UsrQueueRead:
 978              	.LVL49:
 979              	.LFB316:
 338:C:/Users/²Ü¼ÒºÀ/.iotlink/sdk/IoT_LINK/iot_link/os/liteos/arch/arm/arm-m/include\los_svc.h ****              UINT32, LOS_UsrQueueCreate, QUEUE_INIT_PARAM_S *pstInitParam)
 339:C:/Users/²Ü¼ÒºÀ/.iotlink/sdk/IoT_LINK/iot_link/os/liteos/arch/arm/arm-m/include\los_svc.h **** SYSCALL_RTN (SCN_QueueRead,
 980              		.loc 2 339 1 is_stmt 1 view -0
 981              		.cfi_startproc
 982              		@ Naked Function: prologue and epilogue provided by programmer.
 983              		@ args = 0, pretend = 0, frame = 0
 984              		@ frame_needed = 0, uses_anonymous_args = 0
 985              		.loc 2 339 1 view .LVU88
 986              		.syntax unified
 987              	@ 339 "C:/Users/²Ü¼ÒºÀ/.iotlink/sdk/IoT_LINK/iot_link/os/liteos/arch/arm/arm-m/include/los_svc.h" 1
 988 0000 80B5     		push {r7, lr}
ARM GAS  C:\Users\²Ü¼ÒºÀ\AppData\Local\Temp\ccKhPaIi.s 			page 25


 989 0002 014F     		ldr  r7, =(((2) << 24) + (((4) & 0x0f) << 16) + ((1) & 0xffff))
 990 0004 00DF     		svc  #0
 991 0006 80BD     		pop  {r7, pc}
 992              		
 993              	@ 0 "" 2
 994              	.LVL50:
 995              		.loc 2 339 1 is_stmt 0 view .LVU89
 996              		.thumb
 997              		.syntax unified
 998              		.cfi_endproc
 999              	.LFE316:
 1001              		.section	.text.LOS_UsrQueueWrite,"ax",%progbits
 1002              		.align	1
 1003              		.weak	LOS_UsrQueueWrite
 1004              		.syntax unified
 1005              		.thumb
 1006              		.thumb_func
 1007              		.fpu fpv4-sp-d16
 1009              	LOS_UsrQueueWrite:
 1010              	.LVL51:
 1011              	.LFB317:
 340:C:/Users/²Ü¼ÒºÀ/.iotlink/sdk/IoT_LINK/iot_link/os/liteos/arch/arm/arm-m/include\los_svc.h ****              UINT32, LOS_UsrQueueRead, UINT32 uwQueueID, VOID *pBufferAddr, UINT32 uwBufferSize, UI
 341:C:/Users/²Ü¼ÒºÀ/.iotlink/sdk/IoT_LINK/iot_link/os/liteos/arch/arm/arm-m/include\los_svc.h **** SYSCALL_RTN (SCN_QueueWrite,
 1012              		.loc 2 341 1 is_stmt 1 view -0
 1013              		.cfi_startproc
 1014              		@ Naked Function: prologue and epilogue provided by programmer.
 1015              		@ args = 0, pretend = 0, frame = 0
 1016              		@ frame_needed = 0, uses_anonymous_args = 0
 1017              		.loc 2 341 1 view .LVU91
 1018              		.syntax unified
 1019              	@ 341 "C:/Users/²Ü¼ÒºÀ/.iotlink/sdk/IoT_LINK/iot_link/os/liteos/arch/arm/arm-m/include/los_svc.h" 1
 1020 0000 80B5     		push {r7, lr}
 1021 0002 014F     		ldr  r7, =(((2) << 24) + (((4) & 0x0f) << 16) + ((2) & 0xffff))
 1022 0004 00DF     		svc  #0
 1023 0006 80BD     		pop  {r7, pc}
 1024              		
 1025              	@ 0 "" 2
 1026              	.LVL52:
 1027              		.loc 2 341 1 is_stmt 0 view .LVU92
 1028              		.thumb
 1029              		.syntax unified
 1030              		.cfi_endproc
 1031              	.LFE317:
 1033              		.section	.text.LOS_UsrQueueReadCopy,"ax",%progbits
 1034              		.align	1
 1035              		.weak	LOS_UsrQueueReadCopy
 1036              		.syntax unified
 1037              		.thumb
 1038              		.thumb_func
 1039              		.fpu fpv4-sp-d16
 1041              	LOS_UsrQueueReadCopy:
 1042              	.LVL53:
 1043              	.LFB318:
 342:C:/Users/²Ü¼ÒºÀ/.iotlink/sdk/IoT_LINK/iot_link/os/liteos/arch/arm/arm-m/include\los_svc.h ****              UINT32, LOS_UsrQueueWrite, UINT32 uwQueueID, VOID *pBufferAddr, UINT32 uwBufferSize, U
 343:C:/Users/²Ü¼ÒºÀ/.iotlink/sdk/IoT_LINK/iot_link/os/liteos/arch/arm/arm-m/include\los_svc.h **** SYSCALL_RTN (SCN_QueueReadCopy,
 1044              		.loc 2 343 1 is_stmt 1 view -0
 1045              		.cfi_startproc
ARM GAS  C:\Users\²Ü¼ÒºÀ\AppData\Local\Temp\ccKhPaIi.s 			page 26


 1046              		@ Naked Function: prologue and epilogue provided by programmer.
 1047              		@ args = 0, pretend = 0, frame = 0
 1048              		@ frame_needed = 0, uses_anonymous_args = 0
 1049              		.loc 2 343 1 view .LVU94
 1050              		.syntax unified
 1051              	@ 343 "C:/Users/²Ü¼ÒºÀ/.iotlink/sdk/IoT_LINK/iot_link/os/liteos/arch/arm/arm-m/include/los_svc.h" 1
 1052 0000 80B5     		push {r7, lr}
 1053 0002 014F     		ldr  r7, =(((2) << 24) + (((4) & 0x0f) << 16) + ((3) & 0xffff))
 1054 0004 00DF     		svc  #0
 1055 0006 80BD     		pop  {r7, pc}
 1056              		
 1057              	@ 0 "" 2
 1058              	.LVL54:
 1059              		.loc 2 343 1 is_stmt 0 view .LVU95
 1060              		.thumb
 1061              		.syntax unified
 1062              		.cfi_endproc
 1063              	.LFE318:
 1065              		.section	.text.LOS_UsrQueueWriteCopy,"ax",%progbits
 1066              		.align	1
 1067              		.weak	LOS_UsrQueueWriteCopy
 1068              		.syntax unified
 1069              		.thumb
 1070              		.thumb_func
 1071              		.fpu fpv4-sp-d16
 1073              	LOS_UsrQueueWriteCopy:
 1074              	.LVL55:
 1075              	.LFB319:
 344:C:/Users/²Ü¼ÒºÀ/.iotlink/sdk/IoT_LINK/iot_link/os/liteos/arch/arm/arm-m/include\los_svc.h ****              UINT32, LOS_UsrQueueReadCopy, UINT32 uwQueueID, VOID *pBufferAddr, UINT32 *puwBufferSi
 345:C:/Users/²Ü¼ÒºÀ/.iotlink/sdk/IoT_LINK/iot_link/os/liteos/arch/arm/arm-m/include\los_svc.h **** SYSCALL_RTN (SCN_QueueWriteCopy,
 1076              		.loc 2 345 1 is_stmt 1 view -0
 1077              		.cfi_startproc
 1078              		@ Naked Function: prologue and epilogue provided by programmer.
 1079              		@ args = 0, pretend = 0, frame = 0
 1080              		@ frame_needed = 0, uses_anonymous_args = 0
 1081              		.loc 2 345 1 view .LVU97
 1082              		.syntax unified
 1083              	@ 345 "C:/Users/²Ü¼ÒºÀ/.iotlink/sdk/IoT_LINK/iot_link/os/liteos/arch/arm/arm-m/include/los_svc.h" 1
 1084 0000 80B5     		push {r7, lr}
 1085 0002 014F     		ldr  r7, =(((2) << 24) + (((4) & 0x0f) << 16) + ((4) & 0xffff))
 1086 0004 00DF     		svc  #0
 1087 0006 80BD     		pop  {r7, pc}
 1088              		
 1089              	@ 0 "" 2
 1090              	.LVL56:
 1091              		.loc 2 345 1 is_stmt 0 view .LVU98
 1092              		.thumb
 1093              		.syntax unified
 1094              		.cfi_endproc
 1095              	.LFE319:
 1097              		.section	.text.LOS_UsrQueueWriteHead,"ax",%progbits
 1098              		.align	1
 1099              		.weak	LOS_UsrQueueWriteHead
 1100              		.syntax unified
 1101              		.thumb
 1102              		.thumb_func
 1103              		.fpu fpv4-sp-d16
ARM GAS  C:\Users\²Ü¼ÒºÀ\AppData\Local\Temp\ccKhPaIi.s 			page 27


 1105              	LOS_UsrQueueWriteHead:
 1106              	.LVL57:
 1107              	.LFB320:
 346:C:/Users/²Ü¼ÒºÀ/.iotlink/sdk/IoT_LINK/iot_link/os/liteos/arch/arm/arm-m/include\los_svc.h ****              UINT32, LOS_UsrQueueWriteCopy, UINT32 uwQueueID, VOID *pBufferAddr, UINT32 uwBufferSiz
 347:C:/Users/²Ü¼ÒºÀ/.iotlink/sdk/IoT_LINK/iot_link/os/liteos/arch/arm/arm-m/include\los_svc.h **** SYSCALL_RTN (SCN_QueueWriteHead,
 1108              		.loc 2 347 1 is_stmt 1 view -0
 1109              		.cfi_startproc
 1110              		@ Naked Function: prologue and epilogue provided by programmer.
 1111              		@ args = 0, pretend = 0, frame = 0
 1112              		@ frame_needed = 0, uses_anonymous_args = 0
 1113              		.loc 2 347 1 view .LVU100
 1114              		.syntax unified
 1115              	@ 347 "C:/Users/²Ü¼ÒºÀ/.iotlink/sdk/IoT_LINK/iot_link/os/liteos/arch/arm/arm-m/include/los_svc.h" 1
 1116 0000 80B5     		push {r7, lr}
 1117 0002 014F     		ldr  r7, =(((2) << 24) + (((4) & 0x0f) << 16) + ((5) & 0xffff))
 1118 0004 00DF     		svc  #0
 1119 0006 80BD     		pop  {r7, pc}
 1120              		
 1121              	@ 0 "" 2
 1122              	.LVL58:
 1123              		.loc 2 347 1 is_stmt 0 view .LVU101
 1124              		.thumb
 1125              		.syntax unified
 1126              		.cfi_endproc
 1127              	.LFE320:
 1129              		.section	.text.LOS_UsrQueueDelete,"ax",%progbits
 1130              		.align	1
 1131              		.weak	LOS_UsrQueueDelete
 1132              		.syntax unified
 1133              		.thumb
 1134              		.thumb_func
 1135              		.fpu fpv4-sp-d16
 1137              	LOS_UsrQueueDelete:
 1138              	.LVL59:
 1139              	.LFB321:
 348:C:/Users/²Ü¼ÒºÀ/.iotlink/sdk/IoT_LINK/iot_link/os/liteos/arch/arm/arm-m/include\los_svc.h ****              UINT32, LOS_UsrQueueWriteHead, UINT32 uwQueueID, VOID *pBufferAddr, UINT32 uwBufferSiz
 349:C:/Users/²Ü¼ÒºÀ/.iotlink/sdk/IoT_LINK/iot_link/os/liteos/arch/arm/arm-m/include\los_svc.h **** SYSCALL_RTN (SCN_QueueDelete,
 1140              		.loc 2 349 1 is_stmt 1 view -0
 1141              		.cfi_startproc
 1142              		@ Naked Function: prologue and epilogue provided by programmer.
 1143              		@ args = 0, pretend = 0, frame = 0
 1144              		@ frame_needed = 0, uses_anonymous_args = 0
 1145              		.loc 2 349 1 view .LVU103
 1146              		.syntax unified
 1147              	@ 349 "C:/Users/²Ü¼ÒºÀ/.iotlink/sdk/IoT_LINK/iot_link/os/liteos/arch/arm/arm-m/include/los_svc.h" 1
 1148 0000 80B5     		push {r7, lr}
 1149 0002 014F     		ldr  r7, =(((2) << 24) + (((1) & 0x0f) << 16) + ((6) & 0xffff))
 1150 0004 00DF     		svc  #0
 1151 0006 80BD     		pop  {r7, pc}
 1152              		
 1153              	@ 0 "" 2
 1154              	.LVL60:
 1155              		.loc 2 349 1 is_stmt 0 view .LVU104
 1156              		.thumb
 1157              		.syntax unified
 1158              		.cfi_endproc
 1159              	.LFE321:
ARM GAS  C:\Users\²Ü¼ÒºÀ\AppData\Local\Temp\ccKhPaIi.s 			page 28


 1161              		.section	.text.LOS_UsrQueueInfoGet,"ax",%progbits
 1162              		.align	1
 1163              		.weak	LOS_UsrQueueInfoGet
 1164              		.syntax unified
 1165              		.thumb
 1166              		.thumb_func
 1167              		.fpu fpv4-sp-d16
 1169              	LOS_UsrQueueInfoGet:
 1170              	.LVL61:
 1171              	.LFB322:
 350:C:/Users/²Ü¼ÒºÀ/.iotlink/sdk/IoT_LINK/iot_link/os/liteos/arch/arm/arm-m/include\los_svc.h ****              UINT32, LOS_UsrQueueDelete, UINT32 uwQueueID)
 351:C:/Users/²Ü¼ÒºÀ/.iotlink/sdk/IoT_LINK/iot_link/os/liteos/arch/arm/arm-m/include\los_svc.h **** SYSCALL_RTN (SCN_QueueInfoGet,
 1172              		.loc 2 351 1 is_stmt 1 view -0
 1173              		.cfi_startproc
 1174              		@ Naked Function: prologue and epilogue provided by programmer.
 1175              		@ args = 0, pretend = 0, frame = 0
 1176              		@ frame_needed = 0, uses_anonymous_args = 0
 1177              		.loc 2 351 1 view .LVU106
 1178              		.syntax unified
 1179              	@ 351 "C:/Users/²Ü¼ÒºÀ/.iotlink/sdk/IoT_LINK/iot_link/os/liteos/arch/arm/arm-m/include/los_svc.h" 1
 1180 0000 80B5     		push {r7, lr}
 1181 0002 014F     		ldr  r7, =(((2) << 24) + (((2) & 0x0f) << 16) + ((7) & 0xffff))
 1182 0004 00DF     		svc  #0
 1183 0006 80BD     		pop  {r7, pc}
 1184              		
 1185              	@ 0 "" 2
 1186              	.LVL62:
 1187              		.loc 2 351 1 is_stmt 0 view .LVU107
 1188              		.thumb
 1189              		.syntax unified
 1190              		.cfi_endproc
 1191              	.LFE322:
 1193              		.section	.text.LOS_UsrEventInit,"ax",%progbits
 1194              		.align	1
 1195              		.weak	LOS_UsrEventInit
 1196              		.syntax unified
 1197              		.thumb
 1198              		.thumb_func
 1199              		.fpu fpv4-sp-d16
 1201              	LOS_UsrEventInit:
 1202              	.LVL63:
 1203              	.LFB323:
 352:C:/Users/²Ü¼ÒºÀ/.iotlink/sdk/IoT_LINK/iot_link/os/liteos/arch/arm/arm-m/include\los_svc.h ****              UINT32, LOS_UsrQueueInfoGet, UINT32 uwQueueID, QUEUE_INFO_S *pstQueueInfo)
 353:C:/Users/²Ü¼ÒºÀ/.iotlink/sdk/IoT_LINK/iot_link/os/liteos/arch/arm/arm-m/include\los_svc.h **** 
 354:C:/Users/²Ü¼ÒºÀ/.iotlink/sdk/IoT_LINK/iot_link/os/liteos/arch/arm/arm-m/include\los_svc.h **** SYSCALL_RTN (SCN_EventInit,
 1204              		.loc 2 354 1 is_stmt 1 view -0
 1205              		.cfi_startproc
 1206              		@ Naked Function: prologue and epilogue provided by programmer.
 1207              		@ args = 0, pretend = 0, frame = 0
 1208              		@ frame_needed = 0, uses_anonymous_args = 0
 1209              		.loc 2 354 1 view .LVU109
 1210              		.syntax unified
 1211              	@ 354 "C:/Users/²Ü¼ÒºÀ/.iotlink/sdk/IoT_LINK/iot_link/os/liteos/arch/arm/arm-m/include/los_svc.h" 1
 1212 0000 80B5     		push {r7, lr}
 1213 0002 014F     		ldr  r7, =(((3) << 24) + (((1) & 0x0f) << 16) + ((0) & 0xffff))
 1214 0004 00DF     		svc  #0
 1215 0006 80BD     		pop  {r7, pc}
ARM GAS  C:\Users\²Ü¼ÒºÀ\AppData\Local\Temp\ccKhPaIi.s 			page 29


 1216              		
 1217              	@ 0 "" 2
 1218              	.LVL64:
 1219              		.loc 2 354 1 is_stmt 0 view .LVU110
 1220              		.thumb
 1221              		.syntax unified
 1222              		.cfi_endproc
 1223              	.LFE323:
 1225              		.section	.text.LOS_UsrEventRead,"ax",%progbits
 1226              		.align	1
 1227              		.weak	LOS_UsrEventRead
 1228              		.syntax unified
 1229              		.thumb
 1230              		.thumb_func
 1231              		.fpu fpv4-sp-d16
 1233              	LOS_UsrEventRead:
 1234              	.LVL65:
 1235              	.LFB324:
 355:C:/Users/²Ü¼ÒºÀ/.iotlink/sdk/IoT_LINK/iot_link/os/liteos/arch/arm/arm-m/include\los_svc.h ****              UINT32, LOS_UsrEventInit, PEVENT_CB_S pstEventCB)
 356:C:/Users/²Ü¼ÒºÀ/.iotlink/sdk/IoT_LINK/iot_link/os/liteos/arch/arm/arm-m/include\los_svc.h **** SYSCALL_RTN (SCN_EventRead,
 1236              		.loc 2 356 1 is_stmt 1 view -0
 1237              		.cfi_startproc
 1238              		@ Naked Function: prologue and epilogue provided by programmer.
 1239              		@ args = 0, pretend = 0, frame = 0
 1240              		@ frame_needed = 0, uses_anonymous_args = 0
 1241              		.loc 2 356 1 view .LVU112
 1242              		.syntax unified
 1243              	@ 356 "C:/Users/²Ü¼ÒºÀ/.iotlink/sdk/IoT_LINK/iot_link/os/liteos/arch/arm/arm-m/include/los_svc.h" 1
 1244 0000 80B5     		push {r7, lr}
 1245 0002 014F     		ldr  r7, =(((3) << 24) + (((4) & 0x0f) << 16) + ((1) & 0xffff))
 1246 0004 00DF     		svc  #0
 1247 0006 80BD     		pop  {r7, pc}
 1248              		
 1249              	@ 0 "" 2
 1250              	.LVL66:
 1251              		.loc 2 356 1 is_stmt 0 view .LVU113
 1252              		.thumb
 1253              		.syntax unified
 1254              		.cfi_endproc
 1255              	.LFE324:
 1257              		.section	.text.LOS_UsrEventWrite,"ax",%progbits
 1258              		.align	1
 1259              		.weak	LOS_UsrEventWrite
 1260              		.syntax unified
 1261              		.thumb
 1262              		.thumb_func
 1263              		.fpu fpv4-sp-d16
 1265              	LOS_UsrEventWrite:
 1266              	.LVL67:
 1267              	.LFB325:
 357:C:/Users/²Ü¼ÒºÀ/.iotlink/sdk/IoT_LINK/iot_link/os/liteos/arch/arm/arm-m/include\los_svc.h ****              UINT32, LOS_UsrEventRead, PEVENT_CB_S pstEventCB, UINT32 uwEventMask, UINT32 uwMode, U
 358:C:/Users/²Ü¼ÒºÀ/.iotlink/sdk/IoT_LINK/iot_link/os/liteos/arch/arm/arm-m/include\los_svc.h **** SYSCALL_RTN (SCN_EventWrite,
 1268              		.loc 2 358 1 is_stmt 1 view -0
 1269              		.cfi_startproc
 1270              		@ Naked Function: prologue and epilogue provided by programmer.
 1271              		@ args = 0, pretend = 0, frame = 0
 1272              		@ frame_needed = 0, uses_anonymous_args = 0
ARM GAS  C:\Users\²Ü¼ÒºÀ\AppData\Local\Temp\ccKhPaIi.s 			page 30


 1273              		.loc 2 358 1 view .LVU115
 1274              		.syntax unified
 1275              	@ 358 "C:/Users/²Ü¼ÒºÀ/.iotlink/sdk/IoT_LINK/iot_link/os/liteos/arch/arm/arm-m/include/los_svc.h" 1
 1276 0000 80B5     		push {r7, lr}
 1277 0002 014F     		ldr  r7, =(((3) << 24) + (((2) & 0x0f) << 16) + ((2) & 0xffff))
 1278 0004 00DF     		svc  #0
 1279 0006 80BD     		pop  {r7, pc}
 1280              		
 1281              	@ 0 "" 2
 1282              	.LVL68:
 1283              		.loc 2 358 1 is_stmt 0 view .LVU116
 1284              		.thumb
 1285              		.syntax unified
 1286              		.cfi_endproc
 1287              	.LFE325:
 1289              		.section	.text.LOS_UsrEventClear,"ax",%progbits
 1290              		.align	1
 1291              		.weak	LOS_UsrEventClear
 1292              		.syntax unified
 1293              		.thumb
 1294              		.thumb_func
 1295              		.fpu fpv4-sp-d16
 1297              	LOS_UsrEventClear:
 1298              	.LVL69:
 1299              	.LFB326:
 359:C:/Users/²Ü¼ÒºÀ/.iotlink/sdk/IoT_LINK/iot_link/os/liteos/arch/arm/arm-m/include\los_svc.h ****              UINT32, LOS_UsrEventWrite, PEVENT_CB_S pstEventCB, UINT32 uwEvents)
 360:C:/Users/²Ü¼ÒºÀ/.iotlink/sdk/IoT_LINK/iot_link/os/liteos/arch/arm/arm-m/include\los_svc.h **** SYSCALL_RTN (SCN_EventClear,
 1300              		.loc 2 360 1 is_stmt 1 view -0
 1301              		.cfi_startproc
 1302              		@ Naked Function: prologue and epilogue provided by programmer.
 1303              		@ args = 0, pretend = 0, frame = 0
 1304              		@ frame_needed = 0, uses_anonymous_args = 0
 1305              		.loc 2 360 1 view .LVU118
 1306              		.syntax unified
 1307              	@ 360 "C:/Users/²Ü¼ÒºÀ/.iotlink/sdk/IoT_LINK/iot_link/os/liteos/arch/arm/arm-m/include/los_svc.h" 1
 1308 0000 80B5     		push {r7, lr}
 1309 0002 014F     		ldr  r7, =(((3) << 24) + (((2) & 0x0f) << 16) + ((3) & 0xffff))
 1310 0004 00DF     		svc  #0
 1311 0006 80BD     		pop  {r7, pc}
 1312              		
 1313              	@ 0 "" 2
 1314              	.LVL70:
 1315              		.loc 2 360 1 is_stmt 0 view .LVU119
 1316              		.thumb
 1317              		.syntax unified
 1318              		.cfi_endproc
 1319              	.LFE326:
 1321              		.section	.text.LOS_UsrEventPoll,"ax",%progbits
 1322              		.align	1
 1323              		.weak	LOS_UsrEventPoll
 1324              		.syntax unified
 1325              		.thumb
 1326              		.thumb_func
 1327              		.fpu fpv4-sp-d16
 1329              	LOS_UsrEventPoll:
 1330              	.LVL71:
 1331              	.LFB327:
ARM GAS  C:\Users\²Ü¼ÒºÀ\AppData\Local\Temp\ccKhPaIi.s 			page 31


 361:C:/Users/²Ü¼ÒºÀ/.iotlink/sdk/IoT_LINK/iot_link/os/liteos/arch/arm/arm-m/include\los_svc.h ****              UINT32, LOS_UsrEventClear, PEVENT_CB_S pstEventCB, UINT32 uwEvents)
 362:C:/Users/²Ü¼ÒºÀ/.iotlink/sdk/IoT_LINK/iot_link/os/liteos/arch/arm/arm-m/include\los_svc.h **** SYSCALL_RTN (SCN_EventPoll,
 1332              		.loc 2 362 1 is_stmt 1 view -0
 1333              		.cfi_startproc
 1334              		@ Naked Function: prologue and epilogue provided by programmer.
 1335              		@ args = 0, pretend = 0, frame = 0
 1336              		@ frame_needed = 0, uses_anonymous_args = 0
 1337              		.loc 2 362 1 view .LVU121
 1338              		.syntax unified
 1339              	@ 362 "C:/Users/²Ü¼ÒºÀ/.iotlink/sdk/IoT_LINK/iot_link/os/liteos/arch/arm/arm-m/include/los_svc.h" 1
 1340 0000 80B5     		push {r7, lr}
 1341 0002 014F     		ldr  r7, =(((3) << 24) + (((3) & 0x0f) << 16) + ((4) & 0xffff))
 1342 0004 00DF     		svc  #0
 1343 0006 80BD     		pop  {r7, pc}
 1344              		
 1345              	@ 0 "" 2
 1346              	.LVL72:
 1347              		.loc 2 362 1 is_stmt 0 view .LVU122
 1348              		.thumb
 1349              		.syntax unified
 1350              		.cfi_endproc
 1351              	.LFE327:
 1353              		.section	.text.LOS_UsrEventDestroy,"ax",%progbits
 1354              		.align	1
 1355              		.weak	LOS_UsrEventDestroy
 1356              		.syntax unified
 1357              		.thumb
 1358              		.thumb_func
 1359              		.fpu fpv4-sp-d16
 1361              	LOS_UsrEventDestroy:
 1362              	.LVL73:
 1363              	.LFB328:
 363:C:/Users/²Ü¼ÒºÀ/.iotlink/sdk/IoT_LINK/iot_link/os/liteos/arch/arm/arm-m/include\los_svc.h ****              UINT32, LOS_UsrEventPoll, UINT32 *uwEventID, UINT32 uwEventMask, UINT32 uwMode)
 364:C:/Users/²Ü¼ÒºÀ/.iotlink/sdk/IoT_LINK/iot_link/os/liteos/arch/arm/arm-m/include\los_svc.h **** SYSCALL_RTN (SCN_EventDestroy,
 1364              		.loc 2 364 1 is_stmt 1 view -0
 1365              		.cfi_startproc
 1366              		@ Naked Function: prologue and epilogue provided by programmer.
 1367              		@ args = 0, pretend = 0, frame = 0
 1368              		@ frame_needed = 0, uses_anonymous_args = 0
 1369              		.loc 2 364 1 view .LVU124
 1370              		.syntax unified
 1371              	@ 364 "C:/Users/²Ü¼ÒºÀ/.iotlink/sdk/IoT_LINK/iot_link/os/liteos/arch/arm/arm-m/include/los_svc.h" 1
 1372 0000 80B5     		push {r7, lr}
 1373 0002 014F     		ldr  r7, =(((3) << 24) + (((1) & 0x0f) << 16) + ((5) & 0xffff))
 1374 0004 00DF     		svc  #0
 1375 0006 80BD     		pop  {r7, pc}
 1376              		
 1377              	@ 0 "" 2
 1378              	.LVL74:
 1379              		.loc 2 364 1 is_stmt 0 view .LVU125
 1380              		.thumb
 1381              		.syntax unified
 1382              		.cfi_endproc
 1383              	.LFE328:
 1385              		.section	.text.LOS_UsrMuxCreate,"ax",%progbits
 1386              		.align	1
 1387              		.weak	LOS_UsrMuxCreate
ARM GAS  C:\Users\²Ü¼ÒºÀ\AppData\Local\Temp\ccKhPaIi.s 			page 32


 1388              		.syntax unified
 1389              		.thumb
 1390              		.thumb_func
 1391              		.fpu fpv4-sp-d16
 1393              	LOS_UsrMuxCreate:
 1394              	.LVL75:
 1395              	.LFB329:
 365:C:/Users/²Ü¼ÒºÀ/.iotlink/sdk/IoT_LINK/iot_link/os/liteos/arch/arm/arm-m/include\los_svc.h ****              UINT32, LOS_UsrEventDestroy, PEVENT_CB_S pstEventCB)
 366:C:/Users/²Ü¼ÒºÀ/.iotlink/sdk/IoT_LINK/iot_link/os/liteos/arch/arm/arm-m/include\los_svc.h **** 
 367:C:/Users/²Ü¼ÒºÀ/.iotlink/sdk/IoT_LINK/iot_link/os/liteos/arch/arm/arm-m/include\los_svc.h **** SYSCALL_RTN (SCN_MuxCreate,
 1396              		.loc 2 367 1 is_stmt 1 view -0
 1397              		.cfi_startproc
 1398              		@ Naked Function: prologue and epilogue provided by programmer.
 1399              		@ args = 0, pretend = 0, frame = 0
 1400              		@ frame_needed = 0, uses_anonymous_args = 0
 1401              		.loc 2 367 1 view .LVU127
 1402              		.syntax unified
 1403              	@ 367 "C:/Users/²Ü¼ÒºÀ/.iotlink/sdk/IoT_LINK/iot_link/os/liteos/arch/arm/arm-m/include/los_svc.h" 1
 1404 0000 80B5     		push {r7, lr}
 1405 0002 014F     		ldr  r7, =(((4) << 24) + (((1) & 0x0f) << 16) + ((0) & 0xffff))
 1406 0004 00DF     		svc  #0
 1407 0006 80BD     		pop  {r7, pc}
 1408              		
 1409              	@ 0 "" 2
 1410              	.LVL76:
 1411              		.loc 2 367 1 is_stmt 0 view .LVU128
 1412              		.thumb
 1413              		.syntax unified
 1414              		.cfi_endproc
 1415              	.LFE329:
 1417              		.section	.text.LOS_UsrMuxDelete,"ax",%progbits
 1418              		.align	1
 1419              		.weak	LOS_UsrMuxDelete
 1420              		.syntax unified
 1421              		.thumb
 1422              		.thumb_func
 1423              		.fpu fpv4-sp-d16
 1425              	LOS_UsrMuxDelete:
 1426              	.LVL77:
 1427              	.LFB330:
 368:C:/Users/²Ü¼ÒºÀ/.iotlink/sdk/IoT_LINK/iot_link/os/liteos/arch/arm/arm-m/include\los_svc.h ****              UINT32, LOS_UsrMuxCreate, UINT32 *puwMuxHandle)
 369:C:/Users/²Ü¼ÒºÀ/.iotlink/sdk/IoT_LINK/iot_link/os/liteos/arch/arm/arm-m/include\los_svc.h **** SYSCALL_RTN (SCN_MuxDelete,
 1428              		.loc 2 369 1 is_stmt 1 view -0
 1429              		.cfi_startproc
 1430              		@ Naked Function: prologue and epilogue provided by programmer.
 1431              		@ args = 0, pretend = 0, frame = 0
 1432              		@ frame_needed = 0, uses_anonymous_args = 0
 1433              		.loc 2 369 1 view .LVU130
 1434              		.syntax unified
 1435              	@ 369 "C:/Users/²Ü¼ÒºÀ/.iotlink/sdk/IoT_LINK/iot_link/os/liteos/arch/arm/arm-m/include/los_svc.h" 1
 1436 0000 80B5     		push {r7, lr}
 1437 0002 014F     		ldr  r7, =(((4) << 24) + (((1) & 0x0f) << 16) + ((1) & 0xffff))
 1438 0004 00DF     		svc  #0
 1439 0006 80BD     		pop  {r7, pc}
 1440              		
 1441              	@ 0 "" 2
 1442              	.LVL78:
ARM GAS  C:\Users\²Ü¼ÒºÀ\AppData\Local\Temp\ccKhPaIi.s 			page 33


 1443              		.loc 2 369 1 is_stmt 0 view .LVU131
 1444              		.thumb
 1445              		.syntax unified
 1446              		.cfi_endproc
 1447              	.LFE330:
 1449              		.section	.text.LOS_UsrMuxPend,"ax",%progbits
 1450              		.align	1
 1451              		.weak	LOS_UsrMuxPend
 1452              		.syntax unified
 1453              		.thumb
 1454              		.thumb_func
 1455              		.fpu fpv4-sp-d16
 1457              	LOS_UsrMuxPend:
 1458              	.LVL79:
 1459              	.LFB331:
 370:C:/Users/²Ü¼ÒºÀ/.iotlink/sdk/IoT_LINK/iot_link/os/liteos/arch/arm/arm-m/include\los_svc.h ****              UINT32, LOS_UsrMuxDelete, UINT32 puwMuxHandle)
 371:C:/Users/²Ü¼ÒºÀ/.iotlink/sdk/IoT_LINK/iot_link/os/liteos/arch/arm/arm-m/include\los_svc.h **** SYSCALL_RTN (SCN_MuxPend,
 1460              		.loc 2 371 1 is_stmt 1 view -0
 1461              		.cfi_startproc
 1462              		@ Naked Function: prologue and epilogue provided by programmer.
 1463              		@ args = 0, pretend = 0, frame = 0
 1464              		@ frame_needed = 0, uses_anonymous_args = 0
 1465              		.loc 2 371 1 view .LVU133
 1466              		.syntax unified
 1467              	@ 371 "C:/Users/²Ü¼ÒºÀ/.iotlink/sdk/IoT_LINK/iot_link/os/liteos/arch/arm/arm-m/include/los_svc.h" 1
 1468 0000 80B5     		push {r7, lr}
 1469 0002 014F     		ldr  r7, =(((4) << 24) + (((2) & 0x0f) << 16) + ((2) & 0xffff))
 1470 0004 00DF     		svc  #0
 1471 0006 80BD     		pop  {r7, pc}
 1472              		
 1473              	@ 0 "" 2
 1474              	.LVL80:
 1475              		.loc 2 371 1 is_stmt 0 view .LVU134
 1476              		.thumb
 1477              		.syntax unified
 1478              		.cfi_endproc
 1479              	.LFE331:
 1481              		.section	.text.LOS_UsrMuxPost,"ax",%progbits
 1482              		.align	1
 1483              		.weak	LOS_UsrMuxPost
 1484              		.syntax unified
 1485              		.thumb
 1486              		.thumb_func
 1487              		.fpu fpv4-sp-d16
 1489              	LOS_UsrMuxPost:
 1490              	.LVL81:
 1491              	.LFB332:
 372:C:/Users/²Ü¼ÒºÀ/.iotlink/sdk/IoT_LINK/iot_link/os/liteos/arch/arm/arm-m/include\los_svc.h ****              UINT32, LOS_UsrMuxPend, UINT32 uwMuxHandle, UINT32 uwTimeout)
 373:C:/Users/²Ü¼ÒºÀ/.iotlink/sdk/IoT_LINK/iot_link/os/liteos/arch/arm/arm-m/include\los_svc.h **** SYSCALL_RTN (SCN_MuxPost,
 1492              		.loc 2 373 1 is_stmt 1 view -0
 1493              		.cfi_startproc
 1494              		@ Naked Function: prologue and epilogue provided by programmer.
 1495              		@ args = 0, pretend = 0, frame = 0
 1496              		@ frame_needed = 0, uses_anonymous_args = 0
 1497              		.loc 2 373 1 view .LVU136
 1498              		.syntax unified
 1499              	@ 373 "C:/Users/²Ü¼ÒºÀ/.iotlink/sdk/IoT_LINK/iot_link/os/liteos/arch/arm/arm-m/include/los_svc.h" 1
ARM GAS  C:\Users\²Ü¼ÒºÀ\AppData\Local\Temp\ccKhPaIi.s 			page 34


 1500 0000 80B5     		push {r7, lr}
 1501 0002 014F     		ldr  r7, =(((4) << 24) + (((1) & 0x0f) << 16) + ((3) & 0xffff))
 1502 0004 00DF     		svc  #0
 1503 0006 80BD     		pop  {r7, pc}
 1504              		
 1505              	@ 0 "" 2
 1506              	.LVL82:
 1507              		.loc 2 373 1 is_stmt 0 view .LVU137
 1508              		.thumb
 1509              		.syntax unified
 1510              		.cfi_endproc
 1511              	.LFE332:
 1513              		.section	.text.LOS_UsrSemCreate,"ax",%progbits
 1514              		.align	1
 1515              		.weak	LOS_UsrSemCreate
 1516              		.syntax unified
 1517              		.thumb
 1518              		.thumb_func
 1519              		.fpu fpv4-sp-d16
 1521              	LOS_UsrSemCreate:
 1522              	.LVL83:
 1523              	.LFB333:
 374:C:/Users/²Ü¼ÒºÀ/.iotlink/sdk/IoT_LINK/iot_link/os/liteos/arch/arm/arm-m/include\los_svc.h ****              UINT32, LOS_UsrMuxPost, UINT32 uwMuxHandle)
 375:C:/Users/²Ü¼ÒºÀ/.iotlink/sdk/IoT_LINK/iot_link/os/liteos/arch/arm/arm-m/include\los_svc.h **** 
 376:C:/Users/²Ü¼ÒºÀ/.iotlink/sdk/IoT_LINK/iot_link/os/liteos/arch/arm/arm-m/include\los_svc.h **** SYSCALL_RTN (SCN_SemCreate,
 1524              		.loc 2 376 1 is_stmt 1 view -0
 1525              		.cfi_startproc
 1526              		@ Naked Function: prologue and epilogue provided by programmer.
 1527              		@ args = 0, pretend = 0, frame = 0
 1528              		@ frame_needed = 0, uses_anonymous_args = 0
 1529              		.loc 2 376 1 view .LVU139
 1530              		.syntax unified
 1531              	@ 376 "C:/Users/²Ü¼ÒºÀ/.iotlink/sdk/IoT_LINK/iot_link/os/liteos/arch/arm/arm-m/include/los_svc.h" 1
 1532 0000 80B5     		push {r7, lr}
 1533 0002 014F     		ldr  r7, =(((5) << 24) + (((2) & 0x0f) << 16) + ((0) & 0xffff))
 1534 0004 00DF     		svc  #0
 1535 0006 80BD     		pop  {r7, pc}
 1536              		
 1537              	@ 0 "" 2
 1538              	.LVL84:
 1539              		.loc 2 376 1 is_stmt 0 view .LVU140
 1540              		.thumb
 1541              		.syntax unified
 1542              		.cfi_endproc
 1543              	.LFE333:
 1545              		.section	.text.LOS_UsrBinarySemCreate,"ax",%progbits
 1546              		.align	1
 1547              		.weak	LOS_UsrBinarySemCreate
 1548              		.syntax unified
 1549              		.thumb
 1550              		.thumb_func
 1551              		.fpu fpv4-sp-d16
 1553              	LOS_UsrBinarySemCreate:
 1554              	.LVL85:
 1555              	.LFB334:
 377:C:/Users/²Ü¼ÒºÀ/.iotlink/sdk/IoT_LINK/iot_link/os/liteos/arch/arm/arm-m/include\los_svc.h ****              UINT32, LOS_UsrSemCreate, UINT16 usCount, UINT32 *puwSemHandle)
 378:C:/Users/²Ü¼ÒºÀ/.iotlink/sdk/IoT_LINK/iot_link/os/liteos/arch/arm/arm-m/include\los_svc.h **** SYSCALL_RTN (SCN_BinarySemCreate,
ARM GAS  C:\Users\²Ü¼ÒºÀ\AppData\Local\Temp\ccKhPaIi.s 			page 35


 1556              		.loc 2 378 1 is_stmt 1 view -0
 1557              		.cfi_startproc
 1558              		@ Naked Function: prologue and epilogue provided by programmer.
 1559              		@ args = 0, pretend = 0, frame = 0
 1560              		@ frame_needed = 0, uses_anonymous_args = 0
 1561              		.loc 2 378 1 view .LVU142
 1562              		.syntax unified
 1563              	@ 378 "C:/Users/²Ü¼ÒºÀ/.iotlink/sdk/IoT_LINK/iot_link/os/liteos/arch/arm/arm-m/include/los_svc.h" 1
 1564 0000 80B5     		push {r7, lr}
 1565 0002 014F     		ldr  r7, =(((5) << 24) + (((2) & 0x0f) << 16) + ((1) & 0xffff))
 1566 0004 00DF     		svc  #0
 1567 0006 80BD     		pop  {r7, pc}
 1568              		
 1569              	@ 0 "" 2
 1570              	.LVL86:
 1571              		.loc 2 378 1 is_stmt 0 view .LVU143
 1572              		.thumb
 1573              		.syntax unified
 1574              		.cfi_endproc
 1575              	.LFE334:
 1577              		.section	.text.LOS_UsrSemDelete,"ax",%progbits
 1578              		.align	1
 1579              		.weak	LOS_UsrSemDelete
 1580              		.syntax unified
 1581              		.thumb
 1582              		.thumb_func
 1583              		.fpu fpv4-sp-d16
 1585              	LOS_UsrSemDelete:
 1586              	.LVL87:
 1587              	.LFB335:
 379:C:/Users/²Ü¼ÒºÀ/.iotlink/sdk/IoT_LINK/iot_link/os/liteos/arch/arm/arm-m/include\los_svc.h ****              UINT32, LOS_UsrBinarySemCreate , UINT16 usCount, UINT32 *puwSemHandle)
 380:C:/Users/²Ü¼ÒºÀ/.iotlink/sdk/IoT_LINK/iot_link/os/liteos/arch/arm/arm-m/include\los_svc.h **** SYSCALL_RTN (SCN_SemDelete,
 1588              		.loc 2 380 1 is_stmt 1 view -0
 1589              		.cfi_startproc
 1590              		@ Naked Function: prologue and epilogue provided by programmer.
 1591              		@ args = 0, pretend = 0, frame = 0
 1592              		@ frame_needed = 0, uses_anonymous_args = 0
 1593              		.loc 2 380 1 view .LVU145
 1594              		.syntax unified
 1595              	@ 380 "C:/Users/²Ü¼ÒºÀ/.iotlink/sdk/IoT_LINK/iot_link/os/liteos/arch/arm/arm-m/include/los_svc.h" 1
 1596 0000 80B5     		push {r7, lr}
 1597 0002 014F     		ldr  r7, =(((5) << 24) + (((1) & 0x0f) << 16) + ((2) & 0xffff))
 1598 0004 00DF     		svc  #0
 1599 0006 80BD     		pop  {r7, pc}
 1600              		
 1601              	@ 0 "" 2
 1602              	.LVL88:
 1603              		.loc 2 380 1 is_stmt 0 view .LVU146
 1604              		.thumb
 1605              		.syntax unified
 1606              		.cfi_endproc
 1607              	.LFE335:
 1609              		.section	.text.LOS_UsrSemPend,"ax",%progbits
 1610              		.align	1
 1611              		.weak	LOS_UsrSemPend
 1612              		.syntax unified
 1613              		.thumb
ARM GAS  C:\Users\²Ü¼ÒºÀ\AppData\Local\Temp\ccKhPaIi.s 			page 36


 1614              		.thumb_func
 1615              		.fpu fpv4-sp-d16
 1617              	LOS_UsrSemPend:
 1618              	.LVL89:
 1619              	.LFB336:
 381:C:/Users/²Ü¼ÒºÀ/.iotlink/sdk/IoT_LINK/iot_link/os/liteos/arch/arm/arm-m/include\los_svc.h ****              UINT32, LOS_UsrSemDelete, UINT32 uwSemHandle)
 382:C:/Users/²Ü¼ÒºÀ/.iotlink/sdk/IoT_LINK/iot_link/os/liteos/arch/arm/arm-m/include\los_svc.h **** SYSCALL_RTN (SCN_SemPend,
 1620              		.loc 2 382 1 is_stmt 1 view -0
 1621              		.cfi_startproc
 1622              		@ Naked Function: prologue and epilogue provided by programmer.
 1623              		@ args = 0, pretend = 0, frame = 0
 1624              		@ frame_needed = 0, uses_anonymous_args = 0
 1625              		.loc 2 382 1 view .LVU148
 1626              		.syntax unified
 1627              	@ 382 "C:/Users/²Ü¼ÒºÀ/.iotlink/sdk/IoT_LINK/iot_link/os/liteos/arch/arm/arm-m/include/los_svc.h" 1
 1628 0000 80B5     		push {r7, lr}
 1629 0002 014F     		ldr  r7, =(((5) << 24) + (((2) & 0x0f) << 16) + ((3) & 0xffff))
 1630 0004 00DF     		svc  #0
 1631 0006 80BD     		pop  {r7, pc}
 1632              		
 1633              	@ 0 "" 2
 1634              	.LVL90:
 1635              		.loc 2 382 1 is_stmt 0 view .LVU149
 1636              		.thumb
 1637              		.syntax unified
 1638              		.cfi_endproc
 1639              	.LFE336:
 1641              		.section	.text.LOS_UsrSemPost,"ax",%progbits
 1642              		.align	1
 1643              		.weak	LOS_UsrSemPost
 1644              		.syntax unified
 1645              		.thumb
 1646              		.thumb_func
 1647              		.fpu fpv4-sp-d16
 1649              	LOS_UsrSemPost:
 1650              	.LVL91:
 1651              	.LFB337:
 383:C:/Users/²Ü¼ÒºÀ/.iotlink/sdk/IoT_LINK/iot_link/os/liteos/arch/arm/arm-m/include\los_svc.h ****              UINT32, LOS_UsrSemPend, UINT32 uwSemHandle, UINT32 uwTimeout)
 384:C:/Users/²Ü¼ÒºÀ/.iotlink/sdk/IoT_LINK/iot_link/os/liteos/arch/arm/arm-m/include\los_svc.h **** SYSCALL_RTN (SCN_SemPost,
 1652              		.loc 2 384 1 is_stmt 1 view -0
 1653              		.cfi_startproc
 1654              		@ Naked Function: prologue and epilogue provided by programmer.
 1655              		@ args = 0, pretend = 0, frame = 0
 1656              		@ frame_needed = 0, uses_anonymous_args = 0
 1657              		.loc 2 384 1 view .LVU151
 1658              		.syntax unified
 1659              	@ 384 "C:/Users/²Ü¼ÒºÀ/.iotlink/sdk/IoT_LINK/iot_link/os/liteos/arch/arm/arm-m/include/los_svc.h" 1
 1660 0000 80B5     		push {r7, lr}
 1661 0002 014F     		ldr  r7, =(((5) << 24) + (((1) & 0x0f) << 16) + ((4) & 0xffff))
 1662 0004 00DF     		svc  #0
 1663 0006 80BD     		pop  {r7, pc}
 1664              		
 1665              	@ 0 "" 2
 1666              	.LVL92:
 1667              		.loc 2 384 1 is_stmt 0 view .LVU152
 1668              		.thumb
 1669              		.syntax unified
ARM GAS  C:\Users\²Ü¼ÒºÀ\AppData\Local\Temp\ccKhPaIi.s 			page 37


 1670              		.cfi_endproc
 1671              	.LFE337:
 1673              		.section	.text.LOS_UsrSwtmrCreate,"ax",%progbits
 1674              		.align	1
 1675              		.weak	LOS_UsrSwtmrCreate
 1676              		.syntax unified
 1677              		.thumb
 1678              		.thumb_func
 1679              		.fpu fpv4-sp-d16
 1681              	LOS_UsrSwtmrCreate:
 1682              	.LVL93:
 1683              	.LFB338:
 385:C:/Users/²Ü¼ÒºÀ/.iotlink/sdk/IoT_LINK/iot_link/os/liteos/arch/arm/arm-m/include\los_svc.h ****              UINT32, LOS_UsrSemPost, UINT32 uwSemHandle)
 386:C:/Users/²Ü¼ÒºÀ/.iotlink/sdk/IoT_LINK/iot_link/os/liteos/arch/arm/arm-m/include\los_svc.h **** 
 387:C:/Users/²Ü¼ÒºÀ/.iotlink/sdk/IoT_LINK/iot_link/os/liteos/arch/arm/arm-m/include\los_svc.h **** typedef struct
 388:C:/Users/²Ü¼ÒºÀ/.iotlink/sdk/IoT_LINK/iot_link/os/liteos/arch/arm/arm-m/include\los_svc.h **** {
 389:C:/Users/²Ü¼ÒºÀ/.iotlink/sdk/IoT_LINK/iot_link/os/liteos/arch/arm/arm-m/include\los_svc.h ****      UINT32 uwInterval;
 390:C:/Users/²Ü¼ÒºÀ/.iotlink/sdk/IoT_LINK/iot_link/os/liteos/arch/arm/arm-m/include\los_svc.h ****      UINT8 ucMode;
 391:C:/Users/²Ü¼ÒºÀ/.iotlink/sdk/IoT_LINK/iot_link/os/liteos/arch/arm/arm-m/include\los_svc.h ****      SWTMR_PROC_FUNC pfnHandler;
 392:C:/Users/²Ü¼ÒºÀ/.iotlink/sdk/IoT_LINK/iot_link/os/liteos/arch/arm/arm-m/include\los_svc.h ****      UINT16 *pusSwTmrID;
 393:C:/Users/²Ü¼ÒºÀ/.iotlink/sdk/IoT_LINK/iot_link/os/liteos/arch/arm/arm-m/include\los_svc.h ****      UINT32 uwArg;
 394:C:/Users/²Ü¼ÒºÀ/.iotlink/sdk/IoT_LINK/iot_link/os/liteos/arch/arm/arm-m/include\los_svc.h **** #if (LOSCFG_BASE_CORE_SWTMR_ALIGN == YES)
 395:C:/Users/²Ü¼ÒºÀ/.iotlink/sdk/IoT_LINK/iot_link/os/liteos/arch/arm/arm-m/include\los_svc.h ****      UINT8 ucRouses;
 396:C:/Users/²Ü¼ÒºÀ/.iotlink/sdk/IoT_LINK/iot_link/os/liteos/arch/arm/arm-m/include\los_svc.h ****      UINT8 ucSensitive;
 397:C:/Users/²Ü¼ÒºÀ/.iotlink/sdk/IoT_LINK/iot_link/os/liteos/arch/arm/arm-m/include\los_svc.h **** #endif
 398:C:/Users/²Ü¼ÒºÀ/.iotlink/sdk/IoT_LINK/iot_link/os/liteos/arch/arm/arm-m/include\los_svc.h **** } SWTMR_INIT_PARAM_S;
 399:C:/Users/²Ü¼ÒºÀ/.iotlink/sdk/IoT_LINK/iot_link/os/liteos/arch/arm/arm-m/include\los_svc.h **** 
 400:C:/Users/²Ü¼ÒºÀ/.iotlink/sdk/IoT_LINK/iot_link/os/liteos/arch/arm/arm-m/include\los_svc.h **** SYSCALL_RTN (SCN_SwtmrCreate,
 1684              		.loc 2 400 1 is_stmt 1 view -0
 1685              		.cfi_startproc
 1686              		@ Naked Function: prologue and epilogue provided by programmer.
 1687              		@ args = 0, pretend = 0, frame = 0
 1688              		@ frame_needed = 0, uses_anonymous_args = 0
 1689              		.loc 2 400 1 view .LVU154
 1690              		.syntax unified
 1691              	@ 400 "C:/Users/²Ü¼ÒºÀ/.iotlink/sdk/IoT_LINK/iot_link/os/liteos/arch/arm/arm-m/include/los_svc.h" 1
 1692 0000 80B5     		push {r7, lr}
 1693 0002 014F     		ldr  r7, =(((6) << 24) + (((7) & 0x0f) << 16) + ((0) & 0xffff))
 1694 0004 00DF     		svc  #0
 1695 0006 80BD     		pop  {r7, pc}
 1696              		
 1697              	@ 0 "" 2
 1698              	.LVL94:
 1699              		.loc 2 400 1 is_stmt 0 view .LVU155
 1700              		.thumb
 1701              		.syntax unified
 1702              		.cfi_endproc
 1703              	.LFE338:
 1705              		.section	.text.LOS_UsrSwtmrDelete,"ax",%progbits
 1706              		.align	1
 1707              		.weak	LOS_UsrSwtmrDelete
 1708              		.syntax unified
 1709              		.thumb
 1710              		.thumb_func
 1711              		.fpu fpv4-sp-d16
 1713              	LOS_UsrSwtmrDelete:
 1714              	.LVL95:
ARM GAS  C:\Users\²Ü¼ÒºÀ\AppData\Local\Temp\ccKhPaIi.s 			page 38


 1715              	.LFB339:
 401:C:/Users/²Ü¼ÒºÀ/.iotlink/sdk/IoT_LINK/iot_link/os/liteos/arch/arm/arm-m/include\los_svc.h ****              UINT32, LOS_UsrSwtmrCreate, SWTMR_INIT_PARAM_S *pstInitParam)
 402:C:/Users/²Ü¼ÒºÀ/.iotlink/sdk/IoT_LINK/iot_link/os/liteos/arch/arm/arm-m/include\los_svc.h **** SYSCALL_RTN (SCN_SwtmrDelete,
 1716              		.loc 2 402 1 is_stmt 1 view -0
 1717              		.cfi_startproc
 1718              		@ Naked Function: prologue and epilogue provided by programmer.
 1719              		@ args = 0, pretend = 0, frame = 0
 1720              		@ frame_needed = 0, uses_anonymous_args = 0
 1721              		.loc 2 402 1 view .LVU157
 1722              		.syntax unified
 1723              	@ 402 "C:/Users/²Ü¼ÒºÀ/.iotlink/sdk/IoT_LINK/iot_link/os/liteos/arch/arm/arm-m/include/los_svc.h" 1
 1724 0000 80B5     		push {r7, lr}
 1725 0002 014F     		ldr  r7, =(((6) << 24) + (((1) & 0x0f) << 16) + ((1) & 0xffff))
 1726 0004 00DF     		svc  #0
 1727 0006 80BD     		pop  {r7, pc}
 1728              		
 1729              	@ 0 "" 2
 1730              	.LVL96:
 1731              		.loc 2 402 1 is_stmt 0 view .LVU158
 1732              		.thumb
 1733              		.syntax unified
 1734              		.cfi_endproc
 1735              	.LFE339:
 1737              		.section	.text.LOS_UsrSwtmrStart,"ax",%progbits
 1738              		.align	1
 1739              		.weak	LOS_UsrSwtmrStart
 1740              		.syntax unified
 1741              		.thumb
 1742              		.thumb_func
 1743              		.fpu fpv4-sp-d16
 1745              	LOS_UsrSwtmrStart:
 1746              	.LVL97:
 1747              	.LFB340:
 403:C:/Users/²Ü¼ÒºÀ/.iotlink/sdk/IoT_LINK/iot_link/os/liteos/arch/arm/arm-m/include\los_svc.h ****              UINT32, LOS_UsrSwtmrDelete, UINT16 usSwTmrID)
 404:C:/Users/²Ü¼ÒºÀ/.iotlink/sdk/IoT_LINK/iot_link/os/liteos/arch/arm/arm-m/include\los_svc.h **** SYSCALL_RTN (SCN_SwtmrStart,
 1748              		.loc 2 404 1 is_stmt 1 view -0
 1749              		.cfi_startproc
 1750              		@ Naked Function: prologue and epilogue provided by programmer.
 1751              		@ args = 0, pretend = 0, frame = 0
 1752              		@ frame_needed = 0, uses_anonymous_args = 0
 1753              		.loc 2 404 1 view .LVU160
 1754              		.syntax unified
 1755              	@ 404 "C:/Users/²Ü¼ÒºÀ/.iotlink/sdk/IoT_LINK/iot_link/os/liteos/arch/arm/arm-m/include/los_svc.h" 1
 1756 0000 80B5     		push {r7, lr}
 1757 0002 014F     		ldr  r7, =(((6) << 24) + (((1) & 0x0f) << 16) + ((2) & 0xffff))
 1758 0004 00DF     		svc  #0
 1759 0006 80BD     		pop  {r7, pc}
 1760              		
 1761              	@ 0 "" 2
 1762              	.LVL98:
 1763              		.loc 2 404 1 is_stmt 0 view .LVU161
 1764              		.thumb
 1765              		.syntax unified
 1766              		.cfi_endproc
 1767              	.LFE340:
 1769              		.section	.text.LOS_UsrSwtmrStop,"ax",%progbits
 1770              		.align	1
ARM GAS  C:\Users\²Ü¼ÒºÀ\AppData\Local\Temp\ccKhPaIi.s 			page 39


 1771              		.weak	LOS_UsrSwtmrStop
 1772              		.syntax unified
 1773              		.thumb
 1774              		.thumb_func
 1775              		.fpu fpv4-sp-d16
 1777              	LOS_UsrSwtmrStop:
 1778              	.LVL99:
 1779              	.LFB341:
 405:C:/Users/²Ü¼ÒºÀ/.iotlink/sdk/IoT_LINK/iot_link/os/liteos/arch/arm/arm-m/include\los_svc.h ****              UINT32, LOS_UsrSwtmrStart, UINT16 usSwTmrID)
 406:C:/Users/²Ü¼ÒºÀ/.iotlink/sdk/IoT_LINK/iot_link/os/liteos/arch/arm/arm-m/include\los_svc.h **** SYSCALL_RTN (SCN_SwtmrStop,
 1780              		.loc 2 406 1 is_stmt 1 view -0
 1781              		.cfi_startproc
 1782              		@ Naked Function: prologue and epilogue provided by programmer.
 1783              		@ args = 0, pretend = 0, frame = 0
 1784              		@ frame_needed = 0, uses_anonymous_args = 0
 1785              		.loc 2 406 1 view .LVU163
 1786              		.syntax unified
 1787              	@ 406 "C:/Users/²Ü¼ÒºÀ/.iotlink/sdk/IoT_LINK/iot_link/os/liteos/arch/arm/arm-m/include/los_svc.h" 1
 1788 0000 80B5     		push {r7, lr}
 1789 0002 014F     		ldr  r7, =(((6) << 24) + (((1) & 0x0f) << 16) + ((3) & 0xffff))
 1790 0004 00DF     		svc  #0
 1791 0006 80BD     		pop  {r7, pc}
 1792              		
 1793              	@ 0 "" 2
 1794              	.LVL100:
 1795              		.loc 2 406 1 is_stmt 0 view .LVU164
 1796              		.thumb
 1797              		.syntax unified
 1798              		.cfi_endproc
 1799              	.LFE341:
 1801              		.section	.text.LOS_UsrSwtmrTimeGet,"ax",%progbits
 1802              		.align	1
 1803              		.weak	LOS_UsrSwtmrTimeGet
 1804              		.syntax unified
 1805              		.thumb
 1806              		.thumb_func
 1807              		.fpu fpv4-sp-d16
 1809              	LOS_UsrSwtmrTimeGet:
 1810              	.LVL101:
 1811              	.LFB342:
 407:C:/Users/²Ü¼ÒºÀ/.iotlink/sdk/IoT_LINK/iot_link/os/liteos/arch/arm/arm-m/include\los_svc.h ****              UINT32, LOS_UsrSwtmrStop, UINT16 usSwTmrID)
 408:C:/Users/²Ü¼ÒºÀ/.iotlink/sdk/IoT_LINK/iot_link/os/liteos/arch/arm/arm-m/include\los_svc.h **** SYSCALL_RTN (SCN_SwtmrTimeGet,
 1812              		.loc 2 408 1 is_stmt 1 view -0
 1813              		.cfi_startproc
 1814              		@ Naked Function: prologue and epilogue provided by programmer.
 1815              		@ args = 0, pretend = 0, frame = 0
 1816              		@ frame_needed = 0, uses_anonymous_args = 0
 1817              		.loc 2 408 1 view .LVU166
 1818              		.syntax unified
 1819              	@ 408 "C:/Users/²Ü¼ÒºÀ/.iotlink/sdk/IoT_LINK/iot_link/os/liteos/arch/arm/arm-m/include/los_svc.h" 1
 1820 0000 80B5     		push {r7, lr}
 1821 0002 014F     		ldr  r7, =(((6) << 24) + (((2) & 0x0f) << 16) + ((4) & 0xffff))
 1822 0004 00DF     		svc  #0
 1823 0006 80BD     		pop  {r7, pc}
 1824              		
 1825              	@ 0 "" 2
 1826              	.LVL102:
ARM GAS  C:\Users\²Ü¼ÒºÀ\AppData\Local\Temp\ccKhPaIi.s 			page 40


 1827              		.loc 2 408 1 is_stmt 0 view .LVU167
 1828              		.thumb
 1829              		.syntax unified
 1830              		.cfi_endproc
 1831              	.LFE342:
 1833              		.section	.text.LOS_UsrMS2Tick,"ax",%progbits
 1834              		.align	1
 1835              		.weak	LOS_UsrMS2Tick
 1836              		.syntax unified
 1837              		.thumb
 1838              		.thumb_func
 1839              		.fpu fpv4-sp-d16
 1841              	LOS_UsrMS2Tick:
 1842              	.LVL103:
 1843              	.LFB343:
 409:C:/Users/²Ü¼ÒºÀ/.iotlink/sdk/IoT_LINK/iot_link/os/liteos/arch/arm/arm-m/include\los_svc.h ****              UINT32, LOS_UsrSwtmrTimeGet, UINT16 usSwTmrID, UINT32 *uwTick)
 410:C:/Users/²Ü¼ÒºÀ/.iotlink/sdk/IoT_LINK/iot_link/os/liteos/arch/arm/arm-m/include\los_svc.h **** 
 411:C:/Users/²Ü¼ÒºÀ/.iotlink/sdk/IoT_LINK/iot_link/os/liteos/arch/arm/arm-m/include\los_svc.h **** SYSCALL_RTN (SCN_MS2Tick,
 1844              		.loc 2 411 1 is_stmt 1 view -0
 1845              		.cfi_startproc
 1846              		@ Naked Function: prologue and epilogue provided by programmer.
 1847              		@ args = 0, pretend = 0, frame = 0
 1848              		@ frame_needed = 0, uses_anonymous_args = 0
 1849              		.loc 2 411 1 view .LVU169
 1850              		.syntax unified
 1851              	@ 411 "C:/Users/²Ü¼ÒºÀ/.iotlink/sdk/IoT_LINK/iot_link/os/liteos/arch/arm/arm-m/include/los_svc.h" 1
 1852 0000 80B5     		push {r7, lr}
 1853 0002 014F     		ldr  r7, =(((7) << 24) + (((1) & 0x0f) << 16) + ((0) & 0xffff))
 1854 0004 00DF     		svc  #0
 1855 0006 80BD     		pop  {r7, pc}
 1856              		
 1857              	@ 0 "" 2
 1858              	.LVL104:
 1859              		.loc 2 411 1 is_stmt 0 view .LVU170
 1860              		.thumb
 1861              		.syntax unified
 1862              		.cfi_endproc
 1863              	.LFE343:
 1865              		.section	.text.LOS_UsrTick2MS,"ax",%progbits
 1866              		.align	1
 1867              		.weak	LOS_UsrTick2MS
 1868              		.syntax unified
 1869              		.thumb
 1870              		.thumb_func
 1871              		.fpu fpv4-sp-d16
 1873              	LOS_UsrTick2MS:
 1874              	.LVL105:
 1875              	.LFB344:
 412:C:/Users/²Ü¼ÒºÀ/.iotlink/sdk/IoT_LINK/iot_link/os/liteos/arch/arm/arm-m/include\los_svc.h ****              UINT32, LOS_UsrMS2Tick, UINT32 uwMillisec)
 413:C:/Users/²Ü¼ÒºÀ/.iotlink/sdk/IoT_LINK/iot_link/os/liteos/arch/arm/arm-m/include\los_svc.h **** SYSCALL_RTN (SCN_Tick2MS,
 1876              		.loc 2 413 1 is_stmt 1 view -0
 1877              		.cfi_startproc
 1878              		@ Naked Function: prologue and epilogue provided by programmer.
 1879              		@ args = 0, pretend = 0, frame = 0
 1880              		@ frame_needed = 0, uses_anonymous_args = 0
 1881              		.loc 2 413 1 view .LVU172
 1882              		.syntax unified
ARM GAS  C:\Users\²Ü¼ÒºÀ\AppData\Local\Temp\ccKhPaIi.s 			page 41


 1883              	@ 413 "C:/Users/²Ü¼ÒºÀ/.iotlink/sdk/IoT_LINK/iot_link/os/liteos/arch/arm/arm-m/include/los_svc.h" 1
 1884 0000 80B5     		push {r7, lr}
 1885 0002 014F     		ldr  r7, =(((7) << 24) + (((1) & 0x0f) << 16) + ((1) & 0xffff))
 1886 0004 00DF     		svc  #0
 1887 0006 80BD     		pop  {r7, pc}
 1888              		
 1889              	@ 0 "" 2
 1890              	.LVL106:
 1891              		.loc 2 413 1 is_stmt 0 view .LVU173
 1892              		.thumb
 1893              		.syntax unified
 1894              		.cfi_endproc
 1895              	.LFE344:
 1897              		.section	.text.LOS_UsrCyclePerTickGet,"ax",%progbits
 1898              		.align	1
 1899              		.weak	LOS_UsrCyclePerTickGet
 1900              		.syntax unified
 1901              		.thumb
 1902              		.thumb_func
 1903              		.fpu fpv4-sp-d16
 1905              	LOS_UsrCyclePerTickGet:
 1906              	.LFB345:
 414:C:/Users/²Ü¼ÒºÀ/.iotlink/sdk/IoT_LINK/iot_link/os/liteos/arch/arm/arm-m/include\los_svc.h ****              UINT32, LOS_UsrTick2MS, UINT32 uwTick)
 415:C:/Users/²Ü¼ÒºÀ/.iotlink/sdk/IoT_LINK/iot_link/os/liteos/arch/arm/arm-m/include\los_svc.h **** SYSCALL_RTN (SCN_CyclePerTickGet,
 1907              		.loc 2 415 1 is_stmt 1 view -0
 1908              		.cfi_startproc
 1909              		@ Naked Function: prologue and epilogue provided by programmer.
 1910              		@ args = 0, pretend = 0, frame = 0
 1911              		@ frame_needed = 0, uses_anonymous_args = 0
 1912              		.loc 2 415 1 view .LVU175
 1913              		.syntax unified
 1914              	@ 415 "C:/Users/²Ü¼ÒºÀ/.iotlink/sdk/IoT_LINK/iot_link/os/liteos/arch/arm/arm-m/include/los_svc.h" 1
 1915 0000 80B5     		push {r7, lr}
 1916 0002 014F     		ldr  r7, =(((7) << 24) + (((0) & 0x0f) << 16) + ((2) & 0xffff))
 1917 0004 00DF     		svc  #0
 1918 0006 80BD     		pop  {r7, pc}
 1919              		
 1920              	@ 0 "" 2
 1921              		.thumb
 1922              		.syntax unified
 1923              		.cfi_endproc
 1924              	.LFE345:
 1926              		.section	.text.LOS_UsrTickCountGet,"ax",%progbits
 1927              		.align	1
 1928              		.weak	LOS_UsrTickCountGet
 1929              		.syntax unified
 1930              		.thumb
 1931              		.thumb_func
 1932              		.fpu fpv4-sp-d16
 1934              	LOS_UsrTickCountGet:
 1935              	.LFB346:
 416:C:/Users/²Ü¼ÒºÀ/.iotlink/sdk/IoT_LINK/iot_link/os/liteos/arch/arm/arm-m/include\los_svc.h ****              UINT32, LOS_UsrCyclePerTickGet)
 417:C:/Users/²Ü¼ÒºÀ/.iotlink/sdk/IoT_LINK/iot_link/os/liteos/arch/arm/arm-m/include\los_svc.h **** SYSCALL_RTN (SCN_TickCountGet,
 1936              		.loc 2 417 1 view -0
 1937              		.cfi_startproc
 1938              		@ Naked Function: prologue and epilogue provided by programmer.
 1939              		@ args = 0, pretend = 0, frame = 0
ARM GAS  C:\Users\²Ü¼ÒºÀ\AppData\Local\Temp\ccKhPaIi.s 			page 42


 1940              		@ frame_needed = 0, uses_anonymous_args = 0
 1941              		.loc 2 417 1 view .LVU177
 1942              		.syntax unified
 1943              	@ 417 "C:/Users/²Ü¼ÒºÀ/.iotlink/sdk/IoT_LINK/iot_link/os/liteos/arch/arm/arm-m/include/los_svc.h" 1
 1944 0000 80B5     		push {r7, lr}
 1945 0002 014F     		ldr  r7, =(((7) << 24) + (((0) & 0x0f) << 16) + ((3) & 0xffff))
 1946 0004 00DF     		svc  #0
 1947 0006 80BD     		pop  {r7, pc}
 1948              		
 1949              	@ 0 "" 2
 1950              		.thumb
 1951              		.syntax unified
 1952              		.cfi_endproc
 1953              	.LFE346:
 1955              		.section	.text.LOS_UsrPrintf,"ax",%progbits
 1956              		.align	1
 1957              		.weak	LOS_UsrPrintf
 1958              		.syntax unified
 1959              		.thumb
 1960              		.thumb_func
 1961              		.fpu fpv4-sp-d16
 1963              	LOS_UsrPrintf:
 1964              	.LVL107:
 1965              	.LFB347:
 418:C:/Users/²Ü¼ÒºÀ/.iotlink/sdk/IoT_LINK/iot_link/os/liteos/arch/arm/arm-m/include\los_svc.h ****              UINT64, LOS_UsrTickCountGet)
 419:C:/Users/²Ü¼ÒºÀ/.iotlink/sdk/IoT_LINK/iot_link/os/liteos/arch/arm/arm-m/include\los_svc.h **** SYSCALL_RTN (SCN_printf,
 1966              		.loc 2 419 1 view -0
 1967              		.cfi_startproc
 1968              		@ Naked Function: prologue and epilogue provided by programmer.
 1969              		@ args = 0, pretend = 0, frame = 0
 1970              		@ frame_needed = 0, uses_anonymous_args = 0
 1971              		.loc 2 419 1 view .LVU179
 1972              		.syntax unified
 1973              	@ 419 "C:/Users/²Ü¼ÒºÀ/.iotlink/sdk/IoT_LINK/iot_link/os/liteos/arch/arm/arm-m/include/los_svc.h" 1
 1974 0000 80B5     		push {r7, lr}
 1975 0002 014F     		ldr  r7, =(((7) << 24) + (((4) & 0x0f) << 16) + ((4) & 0xffff))
 1976 0004 00DF     		svc  #0
 1977 0006 80BD     		pop  {r7, pc}
 1978              		
 1979              	@ 0 "" 2
 1980              	.LVL108:
 1981              		.loc 2 419 1 is_stmt 0 view .LVU180
 1982              		.thumb
 1983              		.syntax unified
 1984              		.cfi_endproc
 1985              	.LFE347:
 1987              		.global	svc_tables
 1988              		.weak	svc_tbl_custom
 1989              		.global	svc_tbl_sys
 1990              		.global	svc_tbl_sem
 1991              		.global	svc_tbl_mux
 1992              		.global	svc_tbl_event
 1993              		.global	svc_tbl_queue
 1994              		.global	svc_tbl_mem
 1995              		.global	svc_tbl_task
 1996              		.section	.data.svc_tables,"aw"
 1997              		.align	2
ARM GAS  C:\Users\²Ü¼ÒºÀ\AppData\Local\Temp\ccKhPaIi.s 			page 43


 2000              	svc_tables:
 2001 0000 00000000 		.word	svc_tbl_task
 2002 0004 00000000 		.word	svc_tbl_mem
 2003 0008 00000000 		.word	svc_tbl_queue
 2004 000c 00000000 		.word	svc_tbl_event
 2005 0010 00000000 		.word	svc_tbl_mux
 2006 0014 00000000 		.word	svc_tbl_sem
 2007 0018 00000000 		.word	0
 2008 001c 00000000 		.word	svc_tbl_sys
 2009 0020 00000000 		.word	0
 2010 0024 00000000 		.word	0
 2011 0028 00000000 		.word	0
 2012 002c 00000000 		.word	0
 2013 0030 00000000 		.word	0
 2014 0034 00000000 		.word	0
 2015 0038 00000000 		.word	0
 2016 003c 00000000 		.word	svc_tbl_custom
 2017 0040 00000000 		.word	0
 2018              		.section	.rodata.svc_tbl_custom,"a"
 2019              		.align	2
 2022              	svc_tbl_custom:
 2023 0000 00000000 		.space	20
 2023      00000000 
 2023      00000000 
 2023      00000000 
 2023      00000000 
 2024              		.section	.rodata.svc_tbl_event,"a"
 2025              		.align	2
 2028              	svc_tbl_event:
 2029 0000 00000000 		.word	LOS_EventInit
 2030 0004 00000000 		.word	LOS_EventRead
 2031 0008 00000000 		.word	LOS_EventWrite
 2032 000c 00000000 		.word	LOS_EventClear
 2033 0010 00000000 		.word	LOS_EventPoll
 2034 0014 00000000 		.word	LOS_EventDestroy
 2035              		.section	.rodata.svc_tbl_mem,"a"
 2036              		.align	2
 2039              	svc_tbl_mem:
 2040 0000 00000000 		.word	LOS_MemboxInit
 2041 0004 00000000 		.word	LOS_MemboxClr
 2042 0008 00000000 		.word	LOS_MemboxAlloc
 2043 000c 00000000 		.word	LOS_MemboxFree
 2044 0010 00000000 		.word	LOS_MemboxStatisticsGet
 2045 0014 00000000 		.word	LOS_MemInit
 2046 0018 00000000 		.word	LOS_MemAlloc
 2047 001c 00000000 		.word	LOS_MemFree
 2048 0020 00000000 		.word	LOS_MemRealloc
 2049 0024 00000000 		.word	LOS_MemAllocAlign
 2050              		.section	.rodata.svc_tbl_mux,"a"
 2051              		.align	2
 2054              	svc_tbl_mux:
 2055 0000 00000000 		.word	LOS_MuxCreate
 2056 0004 00000000 		.word	LOS_MuxDelete
 2057 0008 00000000 		.word	LOS_MuxPend
 2058 000c 00000000 		.word	LOS_MuxPost
 2059              		.section	.rodata.svc_tbl_queue,"a"
 2060              		.align	2
ARM GAS  C:\Users\²Ü¼ÒºÀ\AppData\Local\Temp\ccKhPaIi.s 			page 44


 2063              	svc_tbl_queue:
 2064 0000 00000000 		.word	LOS_QueueCreateSvc
 2065 0004 00000000 		.word	LOS_QueueRead
 2066 0008 00000000 		.word	LOS_QueueWrite
 2067 000c 00000000 		.word	LOS_QueueReadCopy
 2068 0010 00000000 		.word	LOS_QueueWriteCopy
 2069 0014 00000000 		.word	LOS_QueueWriteHead
 2070 0018 00000000 		.word	LOS_QueueDelete
 2071 001c 00000000 		.word	LOS_QueueInfoGet
 2072              		.section	.rodata.svc_tbl_sem,"a"
 2073              		.align	2
 2076              	svc_tbl_sem:
 2077 0000 00000000 		.word	LOS_SemCreate
 2078 0004 00000000 		.word	LOS_BinarySemCreate
 2079 0008 00000000 		.word	LOS_SemDelete
 2080 000c 00000000 		.word	LOS_SemPend
 2081 0010 00000000 		.word	LOS_SemPost
 2082              		.section	.rodata.svc_tbl_sys,"a"
 2083              		.align	2
 2086              	svc_tbl_sys:
 2087 0000 00000000 		.word	LOS_MS2Tick
 2088 0004 00000000 		.word	LOS_Tick2MS
 2089 0008 00000000 		.word	LOS_CyclePerTickGet
 2090 000c 00000000 		.word	LOS_TickCountGet
 2091 0010 00000000 		.word	printf
 2092              		.section	.rodata.svc_tbl_task,"a"
 2093              		.align	2
 2096              	svc_tbl_task:
 2097 0000 00000000 		.word	LOS_TaskCreateOnly
 2098 0004 00000000 		.word	LOS_TaskCreate
 2099 0008 00000000 		.word	LOS_TaskDelete
 2100 000c 00000000 		.word	LOS_TaskResume
 2101 0010 00000000 		.word	LOS_TaskSuspend
 2102 0014 00000000 		.word	LOS_TaskDelay
 2103 0018 00000000 		.word	LOS_TaskYield
 2104 001c 00000000 		.word	LOS_TaskLock
 2105 0020 00000000 		.word	LOS_TaskUnlock
 2106 0024 00000000 		.word	LOS_CurTaskPriSet
 2107 0028 00000000 		.word	LOS_TaskPriSet
 2108 002c 00000000 		.word	LOS_TaskPriGet
 2109 0030 00000000 		.word	LOS_CurTaskIDGet
 2110 0034 00000000 		.word	LOS_TaskInfoGet
 2111 0038 00000000 		.word	LOS_TaskStatusGet
 2112 003c 00000000 		.word	LOS_TaskNameGet
 2113 0040 00000000 		.word	LOS_TaskInfoMonitor
 2114 0044 00000000 		.word	LOS_NextTaskIDGet
 2115              		.text
 2116              	.Letext0:
 2117              		.file 3 "c:\\users\\\262\334\274\322\272\300\\.iotlink\\tools\\gcc-arm-none-eabi\\arm-none-eabi\\i
 2118              		.file 4 "c:\\users\\\262\334\274\322\272\300\\.iotlink\\tools\\gcc-arm-none-eabi\\arm-none-eabi\\i
 2119              		.file 5 "c:\\users\\\262\334\274\322\272\300\\.iotlink\\tools\\gcc-arm-none-eabi\\arm-none-eabi\\i
 2120              		.file 6 "c:\\users\\\262\334\274\322\272\300\\.iotlink\\tools\\gcc-arm-none-eabi\\lib\\gcc\\arm-no
 2121              		.file 7 "c:\\users\\\262\334\274\322\272\300\\.iotlink\\tools\\gcc-arm-none-eabi\\arm-none-eabi\\i
 2122              		.file 8 "c:\\users\\\262\334\274\322\272\300\\.iotlink\\tools\\gcc-arm-none-eabi\\arm-none-eabi\\i
 2123              		.file 9 "C:/Users/\262\334\274\322\272\300/.iotlink/sdk/IoT_LINK/iot_link/os/liteos/include/los_ty
 2124              		.file 10 "C:/Users/\262\334\274\322\272\300/.iotlink/sdk/IoT_LINK/iot_link/os/liteos/arch/arm/comm
 2125              		.file 11 "d:/liteos/code/WIFI2/Inc/system_stm32l4xx.h"
ARM GAS  C:\Users\²Ü¼ÒºÀ\AppData\Local\Temp\ccKhPaIi.s 			page 45


 2126              		.file 12 "C:/Users/\262\334\274\322\272\300/.iotlink/sdk/IoT_LINK/iot_link/os/liteos/include/los_l
 2127              		.file 13 "C:/Users/\262\334\274\322\272\300/.iotlink/sdk/IoT_LINK/iot_link/os/liteos/include/los_e
 2128              		.file 14 "C:/Users/\262\334\274\322\272\300/.iotlink/sdk/IoT_LINK/iot_link/os/liteos/arch/arm/arm-
 2129              		.file 15 "C:/Users/\262\334\274\322\272\300/.iotlink/sdk/IoT_LINK/iot_link/os/liteos/include/los_e
 2130              		.file 16 "C:/Users/\262\334\274\322\272\300/.iotlink/sdk/IoT_LINK/iot_link/os/liteos/include/los_c
 2131              		.file 17 "C:/Users/\262\334\274\322\272\300/.iotlink/sdk/IoT_LINK/iot_link/os/liteos/include/los_t
 2132              		.file 18 "C:/Users/\262\334\274\322\272\300/.iotlink/sdk/IoT_LINK/iot_link/os/liteos/include/los_t
 2133              		.file 19 "C:/Users/\262\334\274\322\272\300/.iotlink/sdk/IoT_LINK/iot_link/os/liteos/include/los_m
 2134              		.file 20 "C:/Users/\262\334\274\322\272\300/.iotlink/sdk/IoT_LINK/iot_link/os/liteos/include/los_q
 2135              		.file 21 "C:/Users/\262\334\274\322\272\300/.iotlink/sdk/IoT_LINK/iot_link/os/liteos/include/los_s
ARM GAS  C:\Users\²Ü¼ÒºÀ\AppData\Local\Temp\ccKhPaIi.s 			page 46

