ARM GAS  C:\Users\²Ü¼ÒºÀ\AppData\Local\Temp\ccapTJCk.s 			page 1


   1              		.cpu cortex-m4
   2              		.eabi_attribute 27, 1
   3              		.eabi_attribute 28, 1
   4              		.eabi_attribute 20, 1
   5              		.eabi_attribute 21, 1
   6              		.eabi_attribute 23, 3
   7              		.eabi_attribute 24, 1
   8              		.eabi_attribute 25, 1
   9              		.eabi_attribute 26, 1
  10              		.eabi_attribute 30, 4
  11              		.eabi_attribute 34, 1
  12              		.eabi_attribute 18, 4
  13              		.file	"los_queue.c"
  14              		.text
  15              	.Ltext0:
  16              		.cfi_sections	.debug_frame
  17              		.section	.text.osQueueInit,"ax",%progbits
  18              		.align	1
  19              		.global	osQueueInit
  20              		.arch armv7e-m
  21              		.syntax unified
  22              		.thumb
  23              		.thumb_func
  24              		.fpu fpv4-sp-d16
  26              	osQueueInit:
  27              	.LFB287:
  28              		.file 1 "C:/Users/\262\334\274\322\272\300/.iotlink/sdk/IoT_LINK/iot_link/os/liteos/base/ipc/los_q
   1:C:/Users/²Ü¼ÒºÀ/.iotlink/sdk/IoT_LINK/iot_link/os/liteos/base/ipc\los_queue.c **** /*----------------------------------------------------------------------------
   2:C:/Users/²Ü¼ÒºÀ/.iotlink/sdk/IoT_LINK/iot_link/os/liteos/base/ipc\los_queue.c ****  * Copyright (c) <2013-2015>, <Huawei Technologies Co., Ltd>
   3:C:/Users/²Ü¼ÒºÀ/.iotlink/sdk/IoT_LINK/iot_link/os/liteos/base/ipc\los_queue.c ****  * All rights reserved.
   4:C:/Users/²Ü¼ÒºÀ/.iotlink/sdk/IoT_LINK/iot_link/os/liteos/base/ipc\los_queue.c ****  * Redistribution and use in source and binary forms, with or without modification,
   5:C:/Users/²Ü¼ÒºÀ/.iotlink/sdk/IoT_LINK/iot_link/os/liteos/base/ipc\los_queue.c ****  * are permitted provided that the following conditions are met:
   6:C:/Users/²Ü¼ÒºÀ/.iotlink/sdk/IoT_LINK/iot_link/os/liteos/base/ipc\los_queue.c ****  * 1. Redistributions of source code must retain the above copyright notice, this list of
   7:C:/Users/²Ü¼ÒºÀ/.iotlink/sdk/IoT_LINK/iot_link/os/liteos/base/ipc\los_queue.c ****  * conditions and the following disclaimer.
   8:C:/Users/²Ü¼ÒºÀ/.iotlink/sdk/IoT_LINK/iot_link/os/liteos/base/ipc\los_queue.c ****  * 2. Redistributions in binary form must reproduce the above copyright notice, this list
   9:C:/Users/²Ü¼ÒºÀ/.iotlink/sdk/IoT_LINK/iot_link/os/liteos/base/ipc\los_queue.c ****  * of conditions and the following disclaimer in the documentation and/or other materials
  10:C:/Users/²Ü¼ÒºÀ/.iotlink/sdk/IoT_LINK/iot_link/os/liteos/base/ipc\los_queue.c ****  * provided with the distribution.
  11:C:/Users/²Ü¼ÒºÀ/.iotlink/sdk/IoT_LINK/iot_link/os/liteos/base/ipc\los_queue.c ****  * 3. Neither the name of the copyright holder nor the names of its contributors may be used
  12:C:/Users/²Ü¼ÒºÀ/.iotlink/sdk/IoT_LINK/iot_link/os/liteos/base/ipc\los_queue.c ****  * to endorse or promote products derived from this software without specific prior written
  13:C:/Users/²Ü¼ÒºÀ/.iotlink/sdk/IoT_LINK/iot_link/os/liteos/base/ipc\los_queue.c ****  * permission.
  14:C:/Users/²Ü¼ÒºÀ/.iotlink/sdk/IoT_LINK/iot_link/os/liteos/base/ipc\los_queue.c ****  * THIS SOFTWARE IS PROVIDED BY THE COPYRIGHT HOLDERS AND CONTRIBUTORS
  15:C:/Users/²Ü¼ÒºÀ/.iotlink/sdk/IoT_LINK/iot_link/os/liteos/base/ipc\los_queue.c ****  * "AS IS" AND ANY EXPRESS OR IMPLIED WARRANTIES, INCLUDING, BUT NOT LIMITED TO,
  16:C:/Users/²Ü¼ÒºÀ/.iotlink/sdk/IoT_LINK/iot_link/os/liteos/base/ipc\los_queue.c ****  * THE IMPLIED WARRANTIES OF MERCHANTABILITY AND FITNESS FOR A PARTICULAR
  17:C:/Users/²Ü¼ÒºÀ/.iotlink/sdk/IoT_LINK/iot_link/os/liteos/base/ipc\los_queue.c ****  * PURPOSE ARE DISCLAIMED. IN NO EVENT SHALL THE COPYRIGHT HOLDER OR
  18:C:/Users/²Ü¼ÒºÀ/.iotlink/sdk/IoT_LINK/iot_link/os/liteos/base/ipc\los_queue.c ****  * CONTRIBUTORS BE LIABLE FOR ANY DIRECT, INDIRECT, INCIDENTAL, SPECIAL,
  19:C:/Users/²Ü¼ÒºÀ/.iotlink/sdk/IoT_LINK/iot_link/os/liteos/base/ipc\los_queue.c ****  * EXEMPLARY, OR CONSEQUENTIAL DAMAGES (INCLUDING, BUT NOT LIMITED TO,
  20:C:/Users/²Ü¼ÒºÀ/.iotlink/sdk/IoT_LINK/iot_link/os/liteos/base/ipc\los_queue.c ****  * PROCUREMENT OF SUBSTITUTE GOODS OR SERVICES; LOSS OF USE, DATA, OR PROFITS;
  21:C:/Users/²Ü¼ÒºÀ/.iotlink/sdk/IoT_LINK/iot_link/os/liteos/base/ipc\los_queue.c ****  * OR BUSINESS INTERRUPTION) HOWEVER CAUSED AND ON ANY THEORY OF LIABILITY,
  22:C:/Users/²Ü¼ÒºÀ/.iotlink/sdk/IoT_LINK/iot_link/os/liteos/base/ipc\los_queue.c ****  * WHETHER IN CONTRACT, STRICT LIABILITY, OR TORT (INCLUDING NEGLIGENCE OR
  23:C:/Users/²Ü¼ÒºÀ/.iotlink/sdk/IoT_LINK/iot_link/os/liteos/base/ipc\los_queue.c ****  * OTHERWISE) ARISING IN ANY WAY OUT OF THE USE OF THIS SOFTWARE, EVEN IF
  24:C:/Users/²Ü¼ÒºÀ/.iotlink/sdk/IoT_LINK/iot_link/os/liteos/base/ipc\los_queue.c ****  * ADVISED OF THE POSSIBILITY OF SUCH DAMAGE.
  25:C:/Users/²Ü¼ÒºÀ/.iotlink/sdk/IoT_LINK/iot_link/os/liteos/base/ipc\los_queue.c ****  *---------------------------------------------------------------------------*/
  26:C:/Users/²Ü¼ÒºÀ/.iotlink/sdk/IoT_LINK/iot_link/os/liteos/base/ipc\los_queue.c **** /*----------------------------------------------------------------------------
  27:C:/Users/²Ü¼ÒºÀ/.iotlink/sdk/IoT_LINK/iot_link/os/liteos/base/ipc\los_queue.c ****  * Notice of Export Control Law
  28:C:/Users/²Ü¼ÒºÀ/.iotlink/sdk/IoT_LINK/iot_link/os/liteos/base/ipc\los_queue.c ****  * ===============================================
  29:C:/Users/²Ü¼ÒºÀ/.iotlink/sdk/IoT_LINK/iot_link/os/liteos/base/ipc\los_queue.c ****  * Huawei LiteOS may be subject to applicable export control laws and regulations, which might
  30:C:/Users/²Ü¼ÒºÀ/.iotlink/sdk/IoT_LINK/iot_link/os/liteos/base/ipc\los_queue.c ****  * include those applicable to Huawei LiteOS of U.S. and the country in which you are located.
ARM GAS  C:\Users\²Ü¼ÒºÀ\AppData\Local\Temp\ccapTJCk.s 			page 2


  31:C:/Users/²Ü¼ÒºÀ/.iotlink/sdk/IoT_LINK/iot_link/os/liteos/base/ipc\los_queue.c ****  * Import, export and usage of Huawei LiteOS in any manner by you shall be in compliance with such
  32:C:/Users/²Ü¼ÒºÀ/.iotlink/sdk/IoT_LINK/iot_link/os/liteos/base/ipc\los_queue.c ****  * applicable export control laws and regulations.
  33:C:/Users/²Ü¼ÒºÀ/.iotlink/sdk/IoT_LINK/iot_link/os/liteos/base/ipc\los_queue.c ****  *---------------------------------------------------------------------------*/
  34:C:/Users/²Ü¼ÒºÀ/.iotlink/sdk/IoT_LINK/iot_link/os/liteos/base/ipc\los_queue.c **** #include "string.h"
  35:C:/Users/²Ü¼ÒºÀ/.iotlink/sdk/IoT_LINK/iot_link/os/liteos/base/ipc\los_queue.c **** #include "los_queue.ph"
  36:C:/Users/²Ü¼ÒºÀ/.iotlink/sdk/IoT_LINK/iot_link/os/liteos/base/ipc\los_queue.c **** #include "los_membox.ph"
  37:C:/Users/²Ü¼ÒºÀ/.iotlink/sdk/IoT_LINK/iot_link/os/liteos/base/ipc\los_queue.c **** #include "los_memory.ph"
  38:C:/Users/²Ü¼ÒºÀ/.iotlink/sdk/IoT_LINK/iot_link/os/liteos/base/ipc\los_queue.c **** #include "los_priqueue.ph"
  39:C:/Users/²Ü¼ÒºÀ/.iotlink/sdk/IoT_LINK/iot_link/os/liteos/base/ipc\los_queue.c **** #include "los_task.ph"
  40:C:/Users/²Ü¼ÒºÀ/.iotlink/sdk/IoT_LINK/iot_link/os/liteos/base/ipc\los_queue.c **** #if (LOSCFG_PLATFORM_EXC == YES)
  41:C:/Users/²Ü¼ÒºÀ/.iotlink/sdk/IoT_LINK/iot_link/os/liteos/base/ipc\los_queue.c **** #include "los_exc.ph"
  42:C:/Users/²Ü¼ÒºÀ/.iotlink/sdk/IoT_LINK/iot_link/os/liteos/base/ipc\los_queue.c **** #endif
  43:C:/Users/²Ü¼ÒºÀ/.iotlink/sdk/IoT_LINK/iot_link/os/liteos/base/ipc\los_queue.c **** 
  44:C:/Users/²Ü¼ÒºÀ/.iotlink/sdk/IoT_LINK/iot_link/os/liteos/base/ipc\los_queue.c **** #ifdef __cplusplus
  45:C:/Users/²Ü¼ÒºÀ/.iotlink/sdk/IoT_LINK/iot_link/os/liteos/base/ipc\los_queue.c **** #if __cplusplus
  46:C:/Users/²Ü¼ÒºÀ/.iotlink/sdk/IoT_LINK/iot_link/os/liteos/base/ipc\los_queue.c **** extern "C"{
  47:C:/Users/²Ü¼ÒºÀ/.iotlink/sdk/IoT_LINK/iot_link/os/liteos/base/ipc\los_queue.c **** #endif
  48:C:/Users/²Ü¼ÒºÀ/.iotlink/sdk/IoT_LINK/iot_link/os/liteos/base/ipc\los_queue.c **** #endif /* __cplusplus */
  49:C:/Users/²Ü¼ÒºÀ/.iotlink/sdk/IoT_LINK/iot_link/os/liteos/base/ipc\los_queue.c **** 
  50:C:/Users/²Ü¼ÒºÀ/.iotlink/sdk/IoT_LINK/iot_link/os/liteos/base/ipc\los_queue.c **** #if (LOSCFG_BASE_IPC_QUEUE == YES)
  51:C:/Users/²Ü¼ÒºÀ/.iotlink/sdk/IoT_LINK/iot_link/os/liteos/base/ipc\los_queue.c **** 
  52:C:/Users/²Ü¼ÒºÀ/.iotlink/sdk/IoT_LINK/iot_link/os/liteos/base/ipc\los_queue.c **** /*lint -save -e64*/
  53:C:/Users/²Ü¼ÒºÀ/.iotlink/sdk/IoT_LINK/iot_link/os/liteos/base/ipc\los_queue.c **** LITE_OS_SEC_BSS      QUEUE_CB_S       *g_pstAllQueue;
  54:C:/Users/²Ü¼ÒºÀ/.iotlink/sdk/IoT_LINK/iot_link/os/liteos/base/ipc\los_queue.c **** LITE_OS_SEC_BSS      LOS_DL_LIST      g_stFreeQueueList;
  55:C:/Users/²Ü¼ÒºÀ/.iotlink/sdk/IoT_LINK/iot_link/os/liteos/base/ipc\los_queue.c **** #if ((LOSCFG_PLATFORM_EXC == YES) && (LOSCFG_SAVE_EXC_INFO == YES))
  56:C:/Users/²Ü¼ÒºÀ/.iotlink/sdk/IoT_LINK/iot_link/os/liteos/base/ipc\los_queue.c **** LITE_OS_SEC_BSS      UINT32           g_uwExcQueueMaxNum;
  57:C:/Users/²Ü¼ÒºÀ/.iotlink/sdk/IoT_LINK/iot_link/os/liteos/base/ipc\los_queue.c **** #endif
  58:C:/Users/²Ü¼ÒºÀ/.iotlink/sdk/IoT_LINK/iot_link/os/liteos/base/ipc\los_queue.c **** 
  59:C:/Users/²Ü¼ÒºÀ/.iotlink/sdk/IoT_LINK/iot_link/os/liteos/base/ipc\los_queue.c **** /**************************************************************************
  60:C:/Users/²Ü¼ÒºÀ/.iotlink/sdk/IoT_LINK/iot_link/os/liteos/base/ipc\los_queue.c ****  Function    : osQueueInit
  61:C:/Users/²Ü¼ÒºÀ/.iotlink/sdk/IoT_LINK/iot_link/os/liteos/base/ipc\los_queue.c ****  Description : queue initial
  62:C:/Users/²Ü¼ÒºÀ/.iotlink/sdk/IoT_LINK/iot_link/os/liteos/base/ipc\los_queue.c ****  Input       : None
  63:C:/Users/²Ü¼ÒºÀ/.iotlink/sdk/IoT_LINK/iot_link/os/liteos/base/ipc\los_queue.c ****  Output      : None
  64:C:/Users/²Ü¼ÒºÀ/.iotlink/sdk/IoT_LINK/iot_link/os/liteos/base/ipc\los_queue.c ****  Return      : LOS_OK on success or error code on failure
  65:C:/Users/²Ü¼ÒºÀ/.iotlink/sdk/IoT_LINK/iot_link/os/liteos/base/ipc\los_queue.c **** **************************************************************************/
  66:C:/Users/²Ü¼ÒºÀ/.iotlink/sdk/IoT_LINK/iot_link/os/liteos/base/ipc\los_queue.c **** LITE_OS_SEC_TEXT_INIT UINT32 osQueueInit(VOID)
  67:C:/Users/²Ü¼ÒºÀ/.iotlink/sdk/IoT_LINK/iot_link/os/liteos/base/ipc\los_queue.c **** {
  29              		.loc 1 67 1 view -0
  30              		.cfi_startproc
  31              		@ args = 0, pretend = 0, frame = 0
  32              		@ frame_needed = 0, uses_anonymous_args = 0
  68:C:/Users/²Ü¼ÒºÀ/.iotlink/sdk/IoT_LINK/iot_link/os/liteos/base/ipc\los_queue.c ****     QUEUE_CB_S *pstQueueNode;
  33              		.loc 1 68 5 view .LVU1
  69:C:/Users/²Ü¼ÒºÀ/.iotlink/sdk/IoT_LINK/iot_link/os/liteos/base/ipc\los_queue.c ****     UINT16   usIndex;
  34              		.loc 1 69 5 view .LVU2
  70:C:/Users/²Ü¼ÒºÀ/.iotlink/sdk/IoT_LINK/iot_link/os/liteos/base/ipc\los_queue.c **** 
  71:C:/Users/²Ü¼ÒºÀ/.iotlink/sdk/IoT_LINK/iot_link/os/liteos/base/ipc\los_queue.c ****     if (0 == LOSCFG_BASE_IPC_QUEUE_LIMIT)   /*lint !e506*/
  35              		.loc 1 71 5 view .LVU3
  72:C:/Users/²Ü¼ÒºÀ/.iotlink/sdk/IoT_LINK/iot_link/os/liteos/base/ipc\los_queue.c ****     {
  73:C:/Users/²Ü¼ÒºÀ/.iotlink/sdk/IoT_LINK/iot_link/os/liteos/base/ipc\los_queue.c ****         return LOS_ERRNO_QUEUE_MAXNUM_ZERO;
  74:C:/Users/²Ü¼ÒºÀ/.iotlink/sdk/IoT_LINK/iot_link/os/liteos/base/ipc\los_queue.c ****     }
  75:C:/Users/²Ü¼ÒºÀ/.iotlink/sdk/IoT_LINK/iot_link/os/liteos/base/ipc\los_queue.c **** 
  76:C:/Users/²Ü¼ÒºÀ/.iotlink/sdk/IoT_LINK/iot_link/os/liteos/base/ipc\los_queue.c ****     g_pstAllQueue = (QUEUE_CB_S *)LOS_MemAlloc(m_aucSysMem0, LOSCFG_BASE_IPC_QUEUE_LIMIT * sizeof(Q
  36              		.loc 1 76 5 view .LVU4
  37              		.loc 1 76 35 is_stmt 0 view .LVU5
  38 0000 124B     		ldr	r3, .L6
  67:C:/Users/²Ü¼ÒºÀ/.iotlink/sdk/IoT_LINK/iot_link/os/liteos/base/ipc\los_queue.c ****     QUEUE_CB_S *pstQueueNode;
ARM GAS  C:\Users\²Ü¼ÒºÀ\AppData\Local\Temp\ccapTJCk.s 			page 3


  39              		.loc 1 67 1 view .LVU6
  40 0002 10B5     		push	{r4, lr}
  41              	.LCFI0:
  42              		.cfi_def_cfa_offset 8
  43              		.cfi_offset 4, -8
  44              		.cfi_offset 14, -4
  45              		.loc 1 76 35 view .LVU7
  46 0004 1868     		ldr	r0, [r3]
  47              		.loc 1 76 19 view .LVU8
  48 0006 124C     		ldr	r4, .L6+4
  49              		.loc 1 76 35 view .LVU9
  50 0008 4FF4DC71 		mov	r1, #440
  51 000c FFF7FEFF 		bl	LOS_MemAlloc
  52              	.LVL0:
  53              		.loc 1 76 19 view .LVU10
  54 0010 2060     		str	r0, [r4]
  77:C:/Users/²Ü¼ÒºÀ/.iotlink/sdk/IoT_LINK/iot_link/os/liteos/base/ipc\los_queue.c ****     if (NULL == g_pstAllQueue)
  55              		.loc 1 77 5 is_stmt 1 view .LVU11
  56              		.loc 1 77 8 is_stmt 0 view .LVU12
  57 0012 C8B1     		cbz	r0, .L4
  78:C:/Users/²Ü¼ÒºÀ/.iotlink/sdk/IoT_LINK/iot_link/os/liteos/base/ipc\los_queue.c ****     {
  79:C:/Users/²Ü¼ÒºÀ/.iotlink/sdk/IoT_LINK/iot_link/os/liteos/base/ipc\los_queue.c ****         return LOS_ERRNO_QUEUE_NO_MEMORY;
  80:C:/Users/²Ü¼ÒºÀ/.iotlink/sdk/IoT_LINK/iot_link/os/liteos/base/ipc\los_queue.c ****     }
  81:C:/Users/²Ü¼ÒºÀ/.iotlink/sdk/IoT_LINK/iot_link/os/liteos/base/ipc\los_queue.c **** 
  82:C:/Users/²Ü¼ÒºÀ/.iotlink/sdk/IoT_LINK/iot_link/os/liteos/base/ipc\los_queue.c ****     (VOID)memset(g_pstAllQueue, 0, LOSCFG_BASE_IPC_QUEUE_LIMIT * sizeof(QUEUE_CB_S));
  58              		.loc 1 82 5 is_stmt 1 view .LVU13
  59              		.loc 1 82 11 is_stmt 0 view .LVU14
  60 0014 4FF4DC72 		mov	r2, #440
  61 0018 0021     		movs	r1, #0
  62 001a FFF7FEFF 		bl	memset
  63              	.LVL1:
  83:C:/Users/²Ü¼ÒºÀ/.iotlink/sdk/IoT_LINK/iot_link/os/liteos/base/ipc\los_queue.c **** 
  84:C:/Users/²Ü¼ÒºÀ/.iotlink/sdk/IoT_LINK/iot_link/os/liteos/base/ipc\los_queue.c ****     LOS_ListInit(&g_stFreeQueueList);
  64              		.loc 1 84 5 is_stmt 1 view .LVU15
  65              	.LBB32:
  66              	.LBI32:
  67              		.file 2 "C:/Users/\262\334\274\322\272\300/.iotlink/sdk/IoT_LINK/iot_link/os/liteos/include/los_li
   1:C:/Users/²Ü¼ÒºÀ/.iotlink/sdk/IoT_LINK/iot_link/os/liteos/include\los_list.h **** /*----------------------------------------------------------------------------
   2:C:/Users/²Ü¼ÒºÀ/.iotlink/sdk/IoT_LINK/iot_link/os/liteos/include\los_list.h ****  * Copyright (c) <2013-2015>, <Huawei Technologies Co., Ltd>
   3:C:/Users/²Ü¼ÒºÀ/.iotlink/sdk/IoT_LINK/iot_link/os/liteos/include\los_list.h ****  * All rights reserved.
   4:C:/Users/²Ü¼ÒºÀ/.iotlink/sdk/IoT_LINK/iot_link/os/liteos/include\los_list.h ****  * Redistribution and use in source and binary forms, with or without modification,
   5:C:/Users/²Ü¼ÒºÀ/.iotlink/sdk/IoT_LINK/iot_link/os/liteos/include\los_list.h ****  * are permitted provided that the following conditions are met:
   6:C:/Users/²Ü¼ÒºÀ/.iotlink/sdk/IoT_LINK/iot_link/os/liteos/include\los_list.h ****  * 1. Redistributions of source code must retain the above copyright notice, this list of
   7:C:/Users/²Ü¼ÒºÀ/.iotlink/sdk/IoT_LINK/iot_link/os/liteos/include\los_list.h ****  * conditions and the following disclaimer.
   8:C:/Users/²Ü¼ÒºÀ/.iotlink/sdk/IoT_LINK/iot_link/os/liteos/include\los_list.h ****  * 2. Redistributions in binary form must reproduce the above copyright notice, this list
   9:C:/Users/²Ü¼ÒºÀ/.iotlink/sdk/IoT_LINK/iot_link/os/liteos/include\los_list.h ****  * of conditions and the following disclaimer in the documentation and/or other materials
  10:C:/Users/²Ü¼ÒºÀ/.iotlink/sdk/IoT_LINK/iot_link/os/liteos/include\los_list.h ****  * provided with the distribution.
  11:C:/Users/²Ü¼ÒºÀ/.iotlink/sdk/IoT_LINK/iot_link/os/liteos/include\los_list.h ****  * 3. Neither the name of the copyright holder nor the names of its contributors may be used
  12:C:/Users/²Ü¼ÒºÀ/.iotlink/sdk/IoT_LINK/iot_link/os/liteos/include\los_list.h ****  * to endorse or promote products derived from this software without specific prior written
  13:C:/Users/²Ü¼ÒºÀ/.iotlink/sdk/IoT_LINK/iot_link/os/liteos/include\los_list.h ****  * permission.
  14:C:/Users/²Ü¼ÒºÀ/.iotlink/sdk/IoT_LINK/iot_link/os/liteos/include\los_list.h ****  * THIS SOFTWARE IS PROVIDED BY THE COPYRIGHT HOLDERS AND CONTRIBUTORS
  15:C:/Users/²Ü¼ÒºÀ/.iotlink/sdk/IoT_LINK/iot_link/os/liteos/include\los_list.h ****  * "AS IS" AND ANY EXPRESS OR IMPLIED WARRANTIES, INCLUDING, BUT NOT LIMITED TO,
  16:C:/Users/²Ü¼ÒºÀ/.iotlink/sdk/IoT_LINK/iot_link/os/liteos/include\los_list.h ****  * THE IMPLIED WARRANTIES OF MERCHANTABILITY AND FITNESS FOR A PARTICULAR
  17:C:/Users/²Ü¼ÒºÀ/.iotlink/sdk/IoT_LINK/iot_link/os/liteos/include\los_list.h ****  * PURPOSE ARE DISCLAIMED. IN NO EVENT SHALL THE COPYRIGHT HOLDER OR
  18:C:/Users/²Ü¼ÒºÀ/.iotlink/sdk/IoT_LINK/iot_link/os/liteos/include\los_list.h ****  * CONTRIBUTORS BE LIABLE FOR ANY DIRECT, INDIRECT, INCIDENTAL, SPECIAL,
  19:C:/Users/²Ü¼ÒºÀ/.iotlink/sdk/IoT_LINK/iot_link/os/liteos/include\los_list.h ****  * EXEMPLARY, OR CONSEQUENTIAL DAMAGES (INCLUDING, BUT NOT LIMITED TO,
  20:C:/Users/²Ü¼ÒºÀ/.iotlink/sdk/IoT_LINK/iot_link/os/liteos/include\los_list.h ****  * PROCUREMENT OF SUBSTITUTE GOODS OR SERVICES; LOSS OF USE, DATA, OR PROFITS;
ARM GAS  C:\Users\²Ü¼ÒºÀ\AppData\Local\Temp\ccapTJCk.s 			page 4


  21:C:/Users/²Ü¼ÒºÀ/.iotlink/sdk/IoT_LINK/iot_link/os/liteos/include\los_list.h ****  * OR BUSINESS INTERRUPTION) HOWEVER CAUSED AND ON ANY THEORY OF LIABILITY,
  22:C:/Users/²Ü¼ÒºÀ/.iotlink/sdk/IoT_LINK/iot_link/os/liteos/include\los_list.h ****  * WHETHER IN CONTRACT, STRICT LIABILITY, OR TORT (INCLUDING NEGLIGENCE OR
  23:C:/Users/²Ü¼ÒºÀ/.iotlink/sdk/IoT_LINK/iot_link/os/liteos/include\los_list.h ****  * OTHERWISE) ARISING IN ANY WAY OUT OF THE USE OF THIS SOFTWARE, EVEN IF
  24:C:/Users/²Ü¼ÒºÀ/.iotlink/sdk/IoT_LINK/iot_link/os/liteos/include\los_list.h ****  * ADVISED OF THE POSSIBILITY OF SUCH DAMAGE.
  25:C:/Users/²Ü¼ÒºÀ/.iotlink/sdk/IoT_LINK/iot_link/os/liteos/include\los_list.h ****  *---------------------------------------------------------------------------*/
  26:C:/Users/²Ü¼ÒºÀ/.iotlink/sdk/IoT_LINK/iot_link/os/liteos/include\los_list.h **** /*----------------------------------------------------------------------------
  27:C:/Users/²Ü¼ÒºÀ/.iotlink/sdk/IoT_LINK/iot_link/os/liteos/include\los_list.h ****  * Notice of Export Control Law
  28:C:/Users/²Ü¼ÒºÀ/.iotlink/sdk/IoT_LINK/iot_link/os/liteos/include\los_list.h ****  * ===============================================
  29:C:/Users/²Ü¼ÒºÀ/.iotlink/sdk/IoT_LINK/iot_link/os/liteos/include\los_list.h ****  * Huawei LiteOS may be subject to applicable export control laws and regulations, which might
  30:C:/Users/²Ü¼ÒºÀ/.iotlink/sdk/IoT_LINK/iot_link/os/liteos/include\los_list.h ****  * include those applicable to Huawei LiteOS of U.S. and the country in which you are located.
  31:C:/Users/²Ü¼ÒºÀ/.iotlink/sdk/IoT_LINK/iot_link/os/liteos/include\los_list.h ****  * Import, export and usage of Huawei LiteOS in any manner by you shall be in compliance with such
  32:C:/Users/²Ü¼ÒºÀ/.iotlink/sdk/IoT_LINK/iot_link/os/liteos/include\los_list.h ****  * applicable export control laws and regulations.
  33:C:/Users/²Ü¼ÒºÀ/.iotlink/sdk/IoT_LINK/iot_link/os/liteos/include\los_list.h ****  *---------------------------------------------------------------------------*/
  34:C:/Users/²Ü¼ÒºÀ/.iotlink/sdk/IoT_LINK/iot_link/os/liteos/include\los_list.h **** 
  35:C:/Users/²Ü¼ÒºÀ/.iotlink/sdk/IoT_LINK/iot_link/os/liteos/include\los_list.h ****  /** @defgroup los_list Doubly linked list
  36:C:/Users/²Ü¼ÒºÀ/.iotlink/sdk/IoT_LINK/iot_link/os/liteos/include\los_list.h ****  * @ingroup kernel
  37:C:/Users/²Ü¼ÒºÀ/.iotlink/sdk/IoT_LINK/iot_link/os/liteos/include\los_list.h ****  */
  38:C:/Users/²Ü¼ÒºÀ/.iotlink/sdk/IoT_LINK/iot_link/os/liteos/include\los_list.h **** 
  39:C:/Users/²Ü¼ÒºÀ/.iotlink/sdk/IoT_LINK/iot_link/os/liteos/include\los_list.h **** #ifndef _LOS_LIST_H
  40:C:/Users/²Ü¼ÒºÀ/.iotlink/sdk/IoT_LINK/iot_link/os/liteos/include\los_list.h **** #define _LOS_LIST_H
  41:C:/Users/²Ü¼ÒºÀ/.iotlink/sdk/IoT_LINK/iot_link/os/liteos/include\los_list.h **** 
  42:C:/Users/²Ü¼ÒºÀ/.iotlink/sdk/IoT_LINK/iot_link/os/liteos/include\los_list.h **** #include "los_typedef.h"
  43:C:/Users/²Ü¼ÒºÀ/.iotlink/sdk/IoT_LINK/iot_link/os/liteos/include\los_list.h **** 
  44:C:/Users/²Ü¼ÒºÀ/.iotlink/sdk/IoT_LINK/iot_link/os/liteos/include\los_list.h **** #ifdef __cplusplus
  45:C:/Users/²Ü¼ÒºÀ/.iotlink/sdk/IoT_LINK/iot_link/os/liteos/include\los_list.h **** #if __cplusplus
  46:C:/Users/²Ü¼ÒºÀ/.iotlink/sdk/IoT_LINK/iot_link/os/liteos/include\los_list.h **** extern "C" {
  47:C:/Users/²Ü¼ÒºÀ/.iotlink/sdk/IoT_LINK/iot_link/os/liteos/include\los_list.h **** #endif /* __cplusplus */
  48:C:/Users/²Ü¼ÒºÀ/.iotlink/sdk/IoT_LINK/iot_link/os/liteos/include\los_list.h **** #endif /* __cplusplus */
  49:C:/Users/²Ü¼ÒºÀ/.iotlink/sdk/IoT_LINK/iot_link/os/liteos/include\los_list.h **** 
  50:C:/Users/²Ü¼ÒºÀ/.iotlink/sdk/IoT_LINK/iot_link/os/liteos/include\los_list.h **** 
  51:C:/Users/²Ü¼ÒºÀ/.iotlink/sdk/IoT_LINK/iot_link/os/liteos/include\los_list.h **** /**
  52:C:/Users/²Ü¼ÒºÀ/.iotlink/sdk/IoT_LINK/iot_link/os/liteos/include\los_list.h ****  *@ingroup los_list
  53:C:/Users/²Ü¼ÒºÀ/.iotlink/sdk/IoT_LINK/iot_link/os/liteos/include\los_list.h ****  *Structure of a node in a doubly linked list.
  54:C:/Users/²Ü¼ÒºÀ/.iotlink/sdk/IoT_LINK/iot_link/os/liteos/include\los_list.h ****  */
  55:C:/Users/²Ü¼ÒºÀ/.iotlink/sdk/IoT_LINK/iot_link/os/liteos/include\los_list.h **** typedef struct LOS_DL_LIST
  56:C:/Users/²Ü¼ÒºÀ/.iotlink/sdk/IoT_LINK/iot_link/os/liteos/include\los_list.h **** {
  57:C:/Users/²Ü¼ÒºÀ/.iotlink/sdk/IoT_LINK/iot_link/os/liteos/include\los_list.h ****     struct LOS_DL_LIST *pstPrev;            /**< Current node's pointer to the previous node*/
  58:C:/Users/²Ü¼ÒºÀ/.iotlink/sdk/IoT_LINK/iot_link/os/liteos/include\los_list.h ****     struct LOS_DL_LIST *pstNext;            /**< Current node's pointer to the next node*/
  59:C:/Users/²Ü¼ÒºÀ/.iotlink/sdk/IoT_LINK/iot_link/os/liteos/include\los_list.h **** } LOS_DL_LIST;
  60:C:/Users/²Ü¼ÒºÀ/.iotlink/sdk/IoT_LINK/iot_link/os/liteos/include\los_list.h **** 
  61:C:/Users/²Ü¼ÒºÀ/.iotlink/sdk/IoT_LINK/iot_link/os/liteos/include\los_list.h **** /**
  62:C:/Users/²Ü¼ÒºÀ/.iotlink/sdk/IoT_LINK/iot_link/os/liteos/include\los_list.h ****  *@ingroup los_list
  63:C:/Users/²Ü¼ÒºÀ/.iotlink/sdk/IoT_LINK/iot_link/os/liteos/include\los_list.h ****  *@brief Initialize a doubly linked list.
  64:C:/Users/²Ü¼ÒºÀ/.iotlink/sdk/IoT_LINK/iot_link/os/liteos/include\los_list.h ****  *
  65:C:/Users/²Ü¼ÒºÀ/.iotlink/sdk/IoT_LINK/iot_link/os/liteos/include\los_list.h ****  *@par Description:
  66:C:/Users/²Ü¼ÒºÀ/.iotlink/sdk/IoT_LINK/iot_link/os/liteos/include\los_list.h ****  *This API is used to initialize a doubly linked list.
  67:C:/Users/²Ü¼ÒºÀ/.iotlink/sdk/IoT_LINK/iot_link/os/liteos/include\los_list.h ****  *@attention
  68:C:/Users/²Ü¼ÒºÀ/.iotlink/sdk/IoT_LINK/iot_link/os/liteos/include\los_list.h ****  *<ul>
  69:C:/Users/²Ü¼ÒºÀ/.iotlink/sdk/IoT_LINK/iot_link/os/liteos/include\los_list.h ****  *<li>The parameter passed in should be ensured to be a legal pointer.</li>
  70:C:/Users/²Ü¼ÒºÀ/.iotlink/sdk/IoT_LINK/iot_link/os/liteos/include\los_list.h ****  *</ul>
  71:C:/Users/²Ü¼ÒºÀ/.iotlink/sdk/IoT_LINK/iot_link/os/liteos/include\los_list.h ****  *
  72:C:/Users/²Ü¼ÒºÀ/.iotlink/sdk/IoT_LINK/iot_link/os/liteos/include\los_list.h ****  *@param pstList    [IN] Node in a doubly linked list.
  73:C:/Users/²Ü¼ÒºÀ/.iotlink/sdk/IoT_LINK/iot_link/os/liteos/include\los_list.h ****  *
  74:C:/Users/²Ü¼ÒºÀ/.iotlink/sdk/IoT_LINK/iot_link/os/liteos/include\los_list.h ****  *@retval None.
  75:C:/Users/²Ü¼ÒºÀ/.iotlink/sdk/IoT_LINK/iot_link/os/liteos/include\los_list.h ****  *@par Dependency:
  76:C:/Users/²Ü¼ÒºÀ/.iotlink/sdk/IoT_LINK/iot_link/os/liteos/include\los_list.h ****  *<ul><li>los_list.h: the header file that contains the API declaration.</li></ul>
  77:C:/Users/²Ü¼ÒºÀ/.iotlink/sdk/IoT_LINK/iot_link/os/liteos/include\los_list.h ****  *@see
ARM GAS  C:\Users\²Ü¼ÒºÀ\AppData\Local\Temp\ccapTJCk.s 			page 5


  78:C:/Users/²Ü¼ÒºÀ/.iotlink/sdk/IoT_LINK/iot_link/os/liteos/include\los_list.h ****  *@since Huawei LiteOS V100R001C00
  79:C:/Users/²Ü¼ÒºÀ/.iotlink/sdk/IoT_LINK/iot_link/os/liteos/include\los_list.h ****  */
  80:C:/Users/²Ü¼ÒºÀ/.iotlink/sdk/IoT_LINK/iot_link/os/liteos/include\los_list.h **** LITE_OS_SEC_ALW_INLINE STATIC_INLINE VOID LOS_ListInit(LOS_DL_LIST *pstList)
  68              		.loc 2 80 43 view .LVU16
  69              	.LBB33:
  81:C:/Users/²Ü¼ÒºÀ/.iotlink/sdk/IoT_LINK/iot_link/os/liteos/include\los_list.h **** {
  82:C:/Users/²Ü¼ÒºÀ/.iotlink/sdk/IoT_LINK/iot_link/os/liteos/include\los_list.h ****     pstList->pstNext = pstList;
  70              		.loc 2 82 5 view .LVU17
  71              		.loc 2 82 22 is_stmt 0 view .LVU18
  72 001e 0D4A     		ldr	r2, .L6+8
  73 0020 2368     		ldr	r3, [r4]
  83:C:/Users/²Ü¼ÒºÀ/.iotlink/sdk/IoT_LINK/iot_link/os/liteos/include\los_list.h ****     pstList->pstPrev = pstList;
  74              		.loc 2 83 22 view .LVU19
  75 0022 C2E90022 		strd	r2, r2, [r2]
  76              	.LVL2:
  77              		.loc 2 83 22 view .LVU20
  78              	.LBE33:
  79              	.LBE32:
  85:C:/Users/²Ü¼ÒºÀ/.iotlink/sdk/IoT_LINK/iot_link/os/liteos/base/ipc\los_queue.c ****     for (usIndex = 0; usIndex < LOSCFG_BASE_IPC_QUEUE_LIMIT; usIndex++)
  80              		.loc 1 85 5 is_stmt 1 view .LVU21
  81              		.loc 1 85 23 view .LVU22
  82 0026 1C33     		adds	r3, r3, #28
  86:C:/Users/²Ü¼ÒºÀ/.iotlink/sdk/IoT_LINK/iot_link/os/liteos/base/ipc\los_queue.c ****     {
  87:C:/Users/²Ü¼ÒºÀ/.iotlink/sdk/IoT_LINK/iot_link/os/liteos/base/ipc\los_queue.c ****         pstQueueNode = ((QUEUE_CB_S *)g_pstAllQueue) + usIndex;
  83              		.loc 1 87 54 is_stmt 0 view .LVU23
  84 0028 0021     		movs	r1, #0
  85              	.LVL3:
  86              	.L3:
  87              		.loc 1 87 9 is_stmt 1 discriminator 3 view .LVU24
  88:C:/Users/²Ü¼ÒºÀ/.iotlink/sdk/IoT_LINK/iot_link/os/liteos/base/ipc\los_queue.c ****         pstQueueNode->usQueueID = usIndex;
  88              		.loc 1 88 9 discriminator 3 view .LVU25
  89:C:/Users/²Ü¼ÒºÀ/.iotlink/sdk/IoT_LINK/iot_link/os/liteos/base/ipc\los_queue.c ****         LOS_ListTailInsert(&g_stFreeQueueList, &pstQueueNode->stReadWriteList[OS_QUEUE_WRITE]);
  89              		.loc 1 89 9 is_stmt 0 discriminator 3 view .LVU26
  90 002a 1068     		ldr	r0, [r2]
  88:C:/Users/²Ü¼ÒºÀ/.iotlink/sdk/IoT_LINK/iot_link/os/liteos/base/ipc\los_queue.c ****         pstQueueNode->usQueueID = usIndex;
  91              		.loc 1 88 33 discriminator 3 view .LVU27
  92 002c 23F8121C 		strh	r1, [r3, #-18]	@ movhi
  93              		.loc 1 89 9 is_stmt 1 discriminator 3 view .LVU28
  94              	.LVL4:
  95              	.LBB34:
  96              	.LBI34:
  84:C:/Users/²Ü¼ÒºÀ/.iotlink/sdk/IoT_LINK/iot_link/os/liteos/include\los_list.h **** }
  85:C:/Users/²Ü¼ÒºÀ/.iotlink/sdk/IoT_LINK/iot_link/os/liteos/include\los_list.h **** 
  86:C:/Users/²Ü¼ÒºÀ/.iotlink/sdk/IoT_LINK/iot_link/os/liteos/include\los_list.h **** /**
  87:C:/Users/²Ü¼ÒºÀ/.iotlink/sdk/IoT_LINK/iot_link/os/liteos/include\los_list.h ****  *@ingroup los_list
  88:C:/Users/²Ü¼ÒºÀ/.iotlink/sdk/IoT_LINK/iot_link/os/liteos/include\los_list.h ****  *@brief Point to the next node pointed to by the current node.
  89:C:/Users/²Ü¼ÒºÀ/.iotlink/sdk/IoT_LINK/iot_link/os/liteos/include\los_list.h ****  *
  90:C:/Users/²Ü¼ÒºÀ/.iotlink/sdk/IoT_LINK/iot_link/os/liteos/include\los_list.h ****  *@par Description:
  91:C:/Users/²Ü¼ÒºÀ/.iotlink/sdk/IoT_LINK/iot_link/os/liteos/include\los_list.h ****  *<ul>
  92:C:/Users/²Ü¼ÒºÀ/.iotlink/sdk/IoT_LINK/iot_link/os/liteos/include\los_list.h ****  *<li>This API is used to point to the next node pointed to by the current node.</li>
  93:C:/Users/²Ü¼ÒºÀ/.iotlink/sdk/IoT_LINK/iot_link/os/liteos/include\los_list.h ****  *</ul>
  94:C:/Users/²Ü¼ÒºÀ/.iotlink/sdk/IoT_LINK/iot_link/os/liteos/include\los_list.h ****  *@attention
  95:C:/Users/²Ü¼ÒºÀ/.iotlink/sdk/IoT_LINK/iot_link/os/liteos/include\los_list.h ****  *<ul>
  96:C:/Users/²Ü¼ÒºÀ/.iotlink/sdk/IoT_LINK/iot_link/os/liteos/include\los_list.h ****  *<li>None.</li>
  97:C:/Users/²Ü¼ÒºÀ/.iotlink/sdk/IoT_LINK/iot_link/os/liteos/include\los_list.h ****  *</ul>
  98:C:/Users/²Ü¼ÒºÀ/.iotlink/sdk/IoT_LINK/iot_link/os/liteos/include\los_list.h ****  *
  99:C:/Users/²Ü¼ÒºÀ/.iotlink/sdk/IoT_LINK/iot_link/os/liteos/include\los_list.h ****  *@param pstObject  [IN] Node in the doubly linked list.
ARM GAS  C:\Users\²Ü¼ÒºÀ\AppData\Local\Temp\ccapTJCk.s 			page 6


 100:C:/Users/²Ü¼ÒºÀ/.iotlink/sdk/IoT_LINK/iot_link/os/liteos/include\los_list.h ****  *
 101:C:/Users/²Ü¼ÒºÀ/.iotlink/sdk/IoT_LINK/iot_link/os/liteos/include\los_list.h ****  *@retval None.
 102:C:/Users/²Ü¼ÒºÀ/.iotlink/sdk/IoT_LINK/iot_link/os/liteos/include\los_list.h ****  *@par Dependency:
 103:C:/Users/²Ü¼ÒºÀ/.iotlink/sdk/IoT_LINK/iot_link/os/liteos/include\los_list.h ****  *<ul><li>los_list.h: the header file that contains the API declaration.</li></ul>
 104:C:/Users/²Ü¼ÒºÀ/.iotlink/sdk/IoT_LINK/iot_link/os/liteos/include\los_list.h ****  *@see
 105:C:/Users/²Ü¼ÒºÀ/.iotlink/sdk/IoT_LINK/iot_link/os/liteos/include\los_list.h ****  *@since Huawei LiteOS V100R001C00
 106:C:/Users/²Ü¼ÒºÀ/.iotlink/sdk/IoT_LINK/iot_link/os/liteos/include\los_list.h ****  */
 107:C:/Users/²Ü¼ÒºÀ/.iotlink/sdk/IoT_LINK/iot_link/os/liteos/include\los_list.h **** #define LOS_DL_LIST_FIRST(pstObject) ((pstObject)->pstNext)
 108:C:/Users/²Ü¼ÒºÀ/.iotlink/sdk/IoT_LINK/iot_link/os/liteos/include\los_list.h **** 
 109:C:/Users/²Ü¼ÒºÀ/.iotlink/sdk/IoT_LINK/iot_link/os/liteos/include\los_list.h **** /**
 110:C:/Users/²Ü¼ÒºÀ/.iotlink/sdk/IoT_LINK/iot_link/os/liteos/include\los_list.h ****  *@ingroup los_list
 111:C:/Users/²Ü¼ÒºÀ/.iotlink/sdk/IoT_LINK/iot_link/os/liteos/include\los_list.h ****  *@brief Insert a new node to a doubly linked list.
 112:C:/Users/²Ü¼ÒºÀ/.iotlink/sdk/IoT_LINK/iot_link/os/liteos/include\los_list.h ****  *
 113:C:/Users/²Ü¼ÒºÀ/.iotlink/sdk/IoT_LINK/iot_link/os/liteos/include\los_list.h ****  *@par Description:
 114:C:/Users/²Ü¼ÒºÀ/.iotlink/sdk/IoT_LINK/iot_link/os/liteos/include\los_list.h ****  *This API is used to insert a new node to a doubly linked list.
 115:C:/Users/²Ü¼ÒºÀ/.iotlink/sdk/IoT_LINK/iot_link/os/liteos/include\los_list.h ****  *@attention
 116:C:/Users/²Ü¼ÒºÀ/.iotlink/sdk/IoT_LINK/iot_link/os/liteos/include\los_list.h ****  *<ul>
 117:C:/Users/²Ü¼ÒºÀ/.iotlink/sdk/IoT_LINK/iot_link/os/liteos/include\los_list.h ****  *<li>The parameters passed in should be ensured to be legal pointers.</li>
 118:C:/Users/²Ü¼ÒºÀ/.iotlink/sdk/IoT_LINK/iot_link/os/liteos/include\los_list.h ****  *</ul>
 119:C:/Users/²Ü¼ÒºÀ/.iotlink/sdk/IoT_LINK/iot_link/os/liteos/include\los_list.h ****  *
 120:C:/Users/²Ü¼ÒºÀ/.iotlink/sdk/IoT_LINK/iot_link/os/liteos/include\los_list.h ****  *@param pstList    [IN]   Doubly linked list where the new node is inserted.
 121:C:/Users/²Ü¼ÒºÀ/.iotlink/sdk/IoT_LINK/iot_link/os/liteos/include\los_list.h ****  *@param pstNode    [IN]   New node to be inserted.
 122:C:/Users/²Ü¼ÒºÀ/.iotlink/sdk/IoT_LINK/iot_link/os/liteos/include\los_list.h ****  *
 123:C:/Users/²Ü¼ÒºÀ/.iotlink/sdk/IoT_LINK/iot_link/os/liteos/include\los_list.h ****  *@retval None
 124:C:/Users/²Ü¼ÒºÀ/.iotlink/sdk/IoT_LINK/iot_link/os/liteos/include\los_list.h ****  *@par Dependency:
 125:C:/Users/²Ü¼ÒºÀ/.iotlink/sdk/IoT_LINK/iot_link/os/liteos/include\los_list.h ****  *<ul><li>los_list.h: the header file that contains the API declaration.</li></ul>
 126:C:/Users/²Ü¼ÒºÀ/.iotlink/sdk/IoT_LINK/iot_link/os/liteos/include\los_list.h ****  *@see LOS_ListDelete
 127:C:/Users/²Ü¼ÒºÀ/.iotlink/sdk/IoT_LINK/iot_link/os/liteos/include\los_list.h ****  *@since Huawei LiteOS V100R001C00
 128:C:/Users/²Ü¼ÒºÀ/.iotlink/sdk/IoT_LINK/iot_link/os/liteos/include\los_list.h ****  */
 129:C:/Users/²Ü¼ÒºÀ/.iotlink/sdk/IoT_LINK/iot_link/os/liteos/include\los_list.h **** LITE_OS_SEC_ALW_INLINE STATIC_INLINE VOID LOS_ListAdd(LOS_DL_LIST *pstList, LOS_DL_LIST *pstNode)
 130:C:/Users/²Ü¼ÒºÀ/.iotlink/sdk/IoT_LINK/iot_link/os/liteos/include\los_list.h **** {
 131:C:/Users/²Ü¼ÒºÀ/.iotlink/sdk/IoT_LINK/iot_link/os/liteos/include\los_list.h ****     pstNode->pstNext = pstList->pstNext;
 132:C:/Users/²Ü¼ÒºÀ/.iotlink/sdk/IoT_LINK/iot_link/os/liteos/include\los_list.h ****     pstNode->pstPrev = pstList;
 133:C:/Users/²Ü¼ÒºÀ/.iotlink/sdk/IoT_LINK/iot_link/os/liteos/include\los_list.h ****     pstList->pstNext->pstPrev = pstNode;
 134:C:/Users/²Ü¼ÒºÀ/.iotlink/sdk/IoT_LINK/iot_link/os/liteos/include\los_list.h ****     pstList->pstNext = pstNode;
 135:C:/Users/²Ü¼ÒºÀ/.iotlink/sdk/IoT_LINK/iot_link/os/liteos/include\los_list.h **** }
 136:C:/Users/²Ü¼ÒºÀ/.iotlink/sdk/IoT_LINK/iot_link/os/liteos/include\los_list.h **** 
 137:C:/Users/²Ü¼ÒºÀ/.iotlink/sdk/IoT_LINK/iot_link/os/liteos/include\los_list.h **** /**
 138:C:/Users/²Ü¼ÒºÀ/.iotlink/sdk/IoT_LINK/iot_link/os/liteos/include\los_list.h ****  *@ingroup los_list
 139:C:/Users/²Ü¼ÒºÀ/.iotlink/sdk/IoT_LINK/iot_link/os/liteos/include\los_list.h ****  *@brief Insert a node to the tail of a doubly linked list.
 140:C:/Users/²Ü¼ÒºÀ/.iotlink/sdk/IoT_LINK/iot_link/os/liteos/include\los_list.h ****  *
 141:C:/Users/²Ü¼ÒºÀ/.iotlink/sdk/IoT_LINK/iot_link/os/liteos/include\los_list.h ****  *@par Description:
 142:C:/Users/²Ü¼ÒºÀ/.iotlink/sdk/IoT_LINK/iot_link/os/liteos/include\los_list.h ****  *This API is used to insert a new node to the tail of a doubly linked list.
 143:C:/Users/²Ü¼ÒºÀ/.iotlink/sdk/IoT_LINK/iot_link/os/liteos/include\los_list.h ****  *@attention
 144:C:/Users/²Ü¼ÒºÀ/.iotlink/sdk/IoT_LINK/iot_link/os/liteos/include\los_list.h ****  *<ul>
 145:C:/Users/²Ü¼ÒºÀ/.iotlink/sdk/IoT_LINK/iot_link/os/liteos/include\los_list.h ****  *<li>The parameters passed in should be ensured to be legal pointers.</li>
 146:C:/Users/²Ü¼ÒºÀ/.iotlink/sdk/IoT_LINK/iot_link/os/liteos/include\los_list.h ****  *</ul>
 147:C:/Users/²Ü¼ÒºÀ/.iotlink/sdk/IoT_LINK/iot_link/os/liteos/include\los_list.h ****  *
 148:C:/Users/²Ü¼ÒºÀ/.iotlink/sdk/IoT_LINK/iot_link/os/liteos/include\los_list.h ****  *@param pstList     [IN] Doubly linked list where the new node is inserted.
 149:C:/Users/²Ü¼ÒºÀ/.iotlink/sdk/IoT_LINK/iot_link/os/liteos/include\los_list.h ****  *@param pstNode     [IN] New node to be inserted.
 150:C:/Users/²Ü¼ÒºÀ/.iotlink/sdk/IoT_LINK/iot_link/os/liteos/include\los_list.h ****  *
 151:C:/Users/²Ü¼ÒºÀ/.iotlink/sdk/IoT_LINK/iot_link/os/liteos/include\los_list.h ****  *@retval None.
 152:C:/Users/²Ü¼ÒºÀ/.iotlink/sdk/IoT_LINK/iot_link/os/liteos/include\los_list.h ****  *@par Dependency:
 153:C:/Users/²Ü¼ÒºÀ/.iotlink/sdk/IoT_LINK/iot_link/os/liteos/include\los_list.h ****  *<ul><li>los_list.h: the header file that contains the API declaration.</li></ul>
 154:C:/Users/²Ü¼ÒºÀ/.iotlink/sdk/IoT_LINK/iot_link/os/liteos/include\los_list.h ****  *@see LOS_ListAdd | LOS_ListHeadInsert
 155:C:/Users/²Ü¼ÒºÀ/.iotlink/sdk/IoT_LINK/iot_link/os/liteos/include\los_list.h ****  *@since Huawei LiteOS V100R001C00
 156:C:/Users/²Ü¼ÒºÀ/.iotlink/sdk/IoT_LINK/iot_link/os/liteos/include\los_list.h ****  */
ARM GAS  C:\Users\²Ü¼ÒºÀ\AppData\Local\Temp\ccapTJCk.s 			page 7


 157:C:/Users/²Ü¼ÒºÀ/.iotlink/sdk/IoT_LINK/iot_link/os/liteos/include\los_list.h **** LITE_OS_SEC_ALW_INLINE STATIC_INLINE VOID LOS_ListTailInsert(LOS_DL_LIST *pstList, LOS_DL_LIST *pst
  97              		.loc 2 157 43 discriminator 3 view .LVU29
  98              		.loc 2 157 43 is_stmt 0 discriminator 3 view .LVU30
  99              	.LBE34:
 158:C:/Users/²Ü¼ÒºÀ/.iotlink/sdk/IoT_LINK/iot_link/os/liteos/include\los_list.h **** {
 159:C:/Users/²Ü¼ÒºÀ/.iotlink/sdk/IoT_LINK/iot_link/os/liteos/include\los_list.h ****     LOS_ListAdd(pstList->pstPrev, pstNode);
 100              		.loc 2 159 5 is_stmt 1 discriminator 3 view .LVU31
 101              	.LBB39:
 102              	.LBB35:
 103              	.LBI35:
 129:C:/Users/²Ü¼ÒºÀ/.iotlink/sdk/IoT_LINK/iot_link/os/liteos/include\los_list.h **** {
 104              		.loc 2 129 43 discriminator 3 view .LVU32
 105              	.LBB36:
 131:C:/Users/²Ü¼ÒºÀ/.iotlink/sdk/IoT_LINK/iot_link/os/liteos/include\los_list.h ****     pstNode->pstPrev = pstList;
 106              		.loc 2 131 5 discriminator 3 view .LVU33
 131:C:/Users/²Ü¼ÒºÀ/.iotlink/sdk/IoT_LINK/iot_link/os/liteos/include\los_list.h ****     pstNode->pstPrev = pstList;
 107              		.loc 2 131 31 is_stmt 0 discriminator 3 view .LVU34
 108 0030 4468     		ldr	r4, [r0, #4]
 109 0032 0131     		adds	r1, r1, #1
 110              	.LVL5:
 131:C:/Users/²Ü¼ÒºÀ/.iotlink/sdk/IoT_LINK/iot_link/os/liteos/include\los_list.h ****     pstNode->pstPrev = pstList;
 111              		.loc 2 131 31 discriminator 3 view .LVU35
 112              	.LBE36:
 113              	.LBE35:
 114              	.LBE39:
  85:C:/Users/²Ü¼ÒºÀ/.iotlink/sdk/IoT_LINK/iot_link/os/liteos/base/ipc\los_queue.c ****     {
 115              		.loc 1 85 5 discriminator 3 view .LVU36
 116 0034 0A29     		cmp	r1, #10
 117              	.LBB40:
 118              	.LBB38:
 119              	.LBB37:
 132:C:/Users/²Ü¼ÒºÀ/.iotlink/sdk/IoT_LINK/iot_link/os/liteos/include\los_list.h ****     pstList->pstNext->pstPrev = pstNode;
 120              		.loc 2 132 22 discriminator 3 view .LVU37
 121 0036 C3E90004 		strd	r0, r4, [r3]
 133:C:/Users/²Ü¼ÒºÀ/.iotlink/sdk/IoT_LINK/iot_link/os/liteos/include\los_list.h ****     pstList->pstNext = pstNode;
 122              		.loc 2 133 5 is_stmt 1 discriminator 3 view .LVU38
 133:C:/Users/²Ü¼ÒºÀ/.iotlink/sdk/IoT_LINK/iot_link/os/liteos/include\los_list.h ****     pstList->pstNext = pstNode;
 123              		.loc 2 133 31 is_stmt 0 discriminator 3 view .LVU39
 124 003a 2360     		str	r3, [r4]
 134:C:/Users/²Ü¼ÒºÀ/.iotlink/sdk/IoT_LINK/iot_link/os/liteos/include\los_list.h **** }
 125              		.loc 2 134 5 is_stmt 1 discriminator 3 view .LVU40
 134:C:/Users/²Ü¼ÒºÀ/.iotlink/sdk/IoT_LINK/iot_link/os/liteos/include\los_list.h **** }
 126              		.loc 2 134 22 is_stmt 0 discriminator 3 view .LVU41
 127 003c 4360     		str	r3, [r0, #4]
 128              	.LVL6:
 134:C:/Users/²Ü¼ÒºÀ/.iotlink/sdk/IoT_LINK/iot_link/os/liteos/include\los_list.h **** }
 129              		.loc 2 134 22 discriminator 3 view .LVU42
 130              	.LBE37:
 131              	.LBE38:
 132              	.LBE40:
  85:C:/Users/²Ü¼ÒºÀ/.iotlink/sdk/IoT_LINK/iot_link/os/liteos/base/ipc\los_queue.c ****     {
 133              		.loc 1 85 62 is_stmt 1 discriminator 3 view .LVU43
  85:C:/Users/²Ü¼ÒºÀ/.iotlink/sdk/IoT_LINK/iot_link/os/liteos/base/ipc\los_queue.c ****     {
 134              		.loc 1 85 23 discriminator 3 view .LVU44
 135 003e 03F12C03 		add	r3, r3, #44
 136              	.LVL7:
  85:C:/Users/²Ü¼ÒºÀ/.iotlink/sdk/IoT_LINK/iot_link/os/liteos/base/ipc\los_queue.c ****     {
ARM GAS  C:\Users\²Ü¼ÒºÀ\AppData\Local\Temp\ccapTJCk.s 			page 8


 137              		.loc 1 85 5 is_stmt 0 discriminator 3 view .LVU45
 138 0042 F2D1     		bne	.L3
  90:C:/Users/²Ü¼ÒºÀ/.iotlink/sdk/IoT_LINK/iot_link/os/liteos/base/ipc\los_queue.c ****     }
  91:C:/Users/²Ü¼ÒºÀ/.iotlink/sdk/IoT_LINK/iot_link/os/liteos/base/ipc\los_queue.c **** 
  92:C:/Users/²Ü¼ÒºÀ/.iotlink/sdk/IoT_LINK/iot_link/os/liteos/base/ipc\los_queue.c **** #if ((LOSCFG_PLATFORM_EXC == YES) && (LOSCFG_SAVE_EXC_INFO == YES))
  93:C:/Users/²Ü¼ÒºÀ/.iotlink/sdk/IoT_LINK/iot_link/os/liteos/base/ipc\los_queue.c ****     g_uwExcQueueMaxNum = LOSCFG_BASE_IPC_QUEUE_LIMIT;
  94:C:/Users/²Ü¼ÒºÀ/.iotlink/sdk/IoT_LINK/iot_link/os/liteos/base/ipc\los_queue.c ****     osExcRegister(OS_EXC_TYPE_QUE, (EXC_INFO_SAVE_CALLBACK)LOS_QueueInfoGet, &g_uwExcQueueMaxNum);
  95:C:/Users/²Ü¼ÒºÀ/.iotlink/sdk/IoT_LINK/iot_link/os/liteos/base/ipc\los_queue.c **** #endif
  96:C:/Users/²Ü¼ÒºÀ/.iotlink/sdk/IoT_LINK/iot_link/os/liteos/base/ipc\los_queue.c **** 
  97:C:/Users/²Ü¼ÒºÀ/.iotlink/sdk/IoT_LINK/iot_link/os/liteos/base/ipc\los_queue.c ****     return LOS_OK;
 139              		.loc 1 97 12 view .LVU46
 140 0044 0020     		movs	r0, #0
 141              	.LVL8:
 142              	.L1:
  98:C:/Users/²Ü¼ÒºÀ/.iotlink/sdk/IoT_LINK/iot_link/os/liteos/base/ipc\los_queue.c **** }
 143              		.loc 1 98 1 view .LVU47
 144 0046 10BD     		pop	{r4, pc}
 145              	.L4:
  79:C:/Users/²Ü¼ÒºÀ/.iotlink/sdk/IoT_LINK/iot_link/os/liteos/base/ipc\los_queue.c ****     }
 146              		.loc 1 79 16 view .LVU48
 147 0048 0348     		ldr	r0, .L6+12
 148 004a FCE7     		b	.L1
 149              	.L7:
 150              		.align	2
 151              	.L6:
 152 004c 00000000 		.word	m_aucSysMem0
 153 0050 00000000 		.word	g_pstAllQueue
 154 0054 00000000 		.word	g_stFreeQueueList
 155 0058 01060002 		.word	33555969
 156              		.cfi_endproc
 157              	.LFE287:
 159              		.section	.text.LOS_QueueCreate,"ax",%progbits
 160              		.align	1
 161              		.global	LOS_QueueCreate
 162              		.syntax unified
 163              		.thumb
 164              		.thumb_func
 165              		.fpu fpv4-sp-d16
 167              	LOS_QueueCreate:
 168              	.LVL9:
 169              	.LFB288:
  99:C:/Users/²Ü¼ÒºÀ/.iotlink/sdk/IoT_LINK/iot_link/os/liteos/base/ipc\los_queue.c **** 
 100:C:/Users/²Ü¼ÒºÀ/.iotlink/sdk/IoT_LINK/iot_link/os/liteos/base/ipc\los_queue.c **** /*****************************************************************************
 101:C:/Users/²Ü¼ÒºÀ/.iotlink/sdk/IoT_LINK/iot_link/os/liteos/base/ipc\los_queue.c ****  Function    : LOS_QueueCreate
 102:C:/Users/²Ü¼ÒºÀ/.iotlink/sdk/IoT_LINK/iot_link/os/liteos/base/ipc\los_queue.c ****  Description : Create a queue
 103:C:/Users/²Ü¼ÒºÀ/.iotlink/sdk/IoT_LINK/iot_link/os/liteos/base/ipc\los_queue.c ****  Input       : pcQueueName  --- Queue name, less than 4 characters
 104:C:/Users/²Ü¼ÒºÀ/.iotlink/sdk/IoT_LINK/iot_link/os/liteos/base/ipc\los_queue.c ****                usLen        --- Queue lenth
 105:C:/Users/²Ü¼ÒºÀ/.iotlink/sdk/IoT_LINK/iot_link/os/liteos/base/ipc\los_queue.c ****                uwFlags      --- Queue type, FIFO or PRIO
 106:C:/Users/²Ü¼ÒºÀ/.iotlink/sdk/IoT_LINK/iot_link/os/liteos/base/ipc\los_queue.c ****                usMaxMsgSize --- Maximum message size in byte
 107:C:/Users/²Ü¼ÒºÀ/.iotlink/sdk/IoT_LINK/iot_link/os/liteos/base/ipc\los_queue.c ****  Output      : puwQueueID   --- Queue ID
 108:C:/Users/²Ü¼ÒºÀ/.iotlink/sdk/IoT_LINK/iot_link/os/liteos/base/ipc\los_queue.c ****  Return      : LOS_OK on success or error code on failure
 109:C:/Users/²Ü¼ÒºÀ/.iotlink/sdk/IoT_LINK/iot_link/os/liteos/base/ipc\los_queue.c ****  *****************************************************************************/
 110:C:/Users/²Ü¼ÒºÀ/.iotlink/sdk/IoT_LINK/iot_link/os/liteos/base/ipc\los_queue.c **** LITE_OS_SEC_TEXT_INIT UINT32 LOS_QueueCreate(CHAR *pcQueueName,
 111:C:/Users/²Ü¼ÒºÀ/.iotlink/sdk/IoT_LINK/iot_link/os/liteos/base/ipc\los_queue.c ****                                           UINT16 usLen,
 112:C:/Users/²Ü¼ÒºÀ/.iotlink/sdk/IoT_LINK/iot_link/os/liteos/base/ipc\los_queue.c ****                                           UINT32 *puwQueueID,
 113:C:/Users/²Ü¼ÒºÀ/.iotlink/sdk/IoT_LINK/iot_link/os/liteos/base/ipc\los_queue.c ****                                           UINT32 uwFlags,
 114:C:/Users/²Ü¼ÒºÀ/.iotlink/sdk/IoT_LINK/iot_link/os/liteos/base/ipc\los_queue.c ****                                           UINT16 usMaxMsgSize )
ARM GAS  C:\Users\²Ü¼ÒºÀ\AppData\Local\Temp\ccapTJCk.s 			page 9


 115:C:/Users/²Ü¼ÒºÀ/.iotlink/sdk/IoT_LINK/iot_link/os/liteos/base/ipc\los_queue.c **** {
 170              		.loc 1 115 1 is_stmt 1 view -0
 171              		.cfi_startproc
 172              		@ args = 4, pretend = 0, frame = 0
 173              		@ frame_needed = 0, uses_anonymous_args = 0
 116:C:/Users/²Ü¼ÒºÀ/.iotlink/sdk/IoT_LINK/iot_link/os/liteos/base/ipc\los_queue.c ****     QUEUE_CB_S      *pstQueueCB;
 174              		.loc 1 116 5 view .LVU50
 117:C:/Users/²Ü¼ÒºÀ/.iotlink/sdk/IoT_LINK/iot_link/os/liteos/base/ipc\los_queue.c ****     UINTPTR         uvIntSave;
 175              		.loc 1 117 5 view .LVU51
 118:C:/Users/²Ü¼ÒºÀ/.iotlink/sdk/IoT_LINK/iot_link/os/liteos/base/ipc\los_queue.c ****     LOS_DL_LIST     *pstUnusedQueue;
 176              		.loc 1 118 5 view .LVU52
 119:C:/Users/²Ü¼ÒºÀ/.iotlink/sdk/IoT_LINK/iot_link/os/liteos/base/ipc\los_queue.c ****     UINT8           *pucQueue;
 177              		.loc 1 119 5 view .LVU53
 120:C:/Users/²Ü¼ÒºÀ/.iotlink/sdk/IoT_LINK/iot_link/os/liteos/base/ipc\los_queue.c ****     UINT16          usMsgSize = usMaxMsgSize + sizeof(UINT32);
 178              		.loc 1 120 5 view .LVU54
 115:C:/Users/²Ü¼ÒºÀ/.iotlink/sdk/IoT_LINK/iot_link/os/liteos/base/ipc\los_queue.c ****     QUEUE_CB_S      *pstQueueCB;
 179              		.loc 1 115 1 is_stmt 0 view .LVU55
 180 0000 2DE9F843 		push	{r3, r4, r5, r6, r7, r8, r9, lr}
 181              	.LCFI1:
 182              		.cfi_def_cfa_offset 32
 183              		.cfi_offset 3, -32
 184              		.cfi_offset 4, -28
 185              		.cfi_offset 5, -24
 186              		.cfi_offset 6, -20
 187              		.cfi_offset 7, -16
 188              		.cfi_offset 8, -12
 189              		.cfi_offset 9, -8
 190              		.cfi_offset 14, -4
 115:C:/Users/²Ü¼ÒºÀ/.iotlink/sdk/IoT_LINK/iot_link/os/liteos/base/ipc\los_queue.c ****     QUEUE_CB_S      *pstQueueCB;
 191              		.loc 1 115 1 view .LVU56
 192 0004 8846     		mov	r8, r1
 193 0006 BDF82030 		ldrh	r3, [sp, #32]
 194              	.LVL10:
 121:C:/Users/²Ü¼ÒºÀ/.iotlink/sdk/IoT_LINK/iot_link/os/liteos/base/ipc\los_queue.c **** 
 122:C:/Users/²Ü¼ÒºÀ/.iotlink/sdk/IoT_LINK/iot_link/os/liteos/base/ipc\los_queue.c ****     (VOID)pcQueueName;
 195              		.loc 1 122 5 is_stmt 1 view .LVU57
 123:C:/Users/²Ü¼ÒºÀ/.iotlink/sdk/IoT_LINK/iot_link/os/liteos/base/ipc\los_queue.c ****     (VOID)uwFlags;
 196              		.loc 1 123 5 view .LVU58
 124:C:/Users/²Ü¼ÒºÀ/.iotlink/sdk/IoT_LINK/iot_link/os/liteos/base/ipc\los_queue.c **** 
 125:C:/Users/²Ü¼ÒºÀ/.iotlink/sdk/IoT_LINK/iot_link/os/liteos/base/ipc\los_queue.c ****     if (NULL == puwQueueID)
 197              		.loc 1 125 5 view .LVU59
 198              		.loc 1 125 8 is_stmt 0 view .LVU60
 199 000a 1746     		mov	r7, r2
 200 000c 002A     		cmp	r2, #0
 201 000e 4AD0     		beq	.L11
 126:C:/Users/²Ü¼ÒºÀ/.iotlink/sdk/IoT_LINK/iot_link/os/liteos/base/ipc\los_queue.c ****     {
 127:C:/Users/²Ü¼ÒºÀ/.iotlink/sdk/IoT_LINK/iot_link/os/liteos/base/ipc\los_queue.c ****         return LOS_ERRNO_QUEUE_CREAT_PTR_NULL;
 128:C:/Users/²Ü¼ÒºÀ/.iotlink/sdk/IoT_LINK/iot_link/os/liteos/base/ipc\los_queue.c ****     }
 129:C:/Users/²Ü¼ÒºÀ/.iotlink/sdk/IoT_LINK/iot_link/os/liteos/base/ipc\los_queue.c **** 
 130:C:/Users/²Ü¼ÒºÀ/.iotlink/sdk/IoT_LINK/iot_link/os/liteos/base/ipc\los_queue.c ****     if(usMaxMsgSize > OS_NULL_SHORT -4)
 202              		.loc 1 130 5 is_stmt 1 view .LVU61
 203              		.loc 1 130 7 is_stmt 0 view .LVU62
 204 0010 4FF6FB72 		movw	r2, #65531
 205              	.LVL11:
 206              		.loc 1 130 7 view .LVU63
 207 0014 9342     		cmp	r3, r2
 208 0016 48D8     		bhi	.L12
ARM GAS  C:\Users\²Ü¼ÒºÀ\AppData\Local\Temp\ccapTJCk.s 			page 10


 131:C:/Users/²Ü¼ÒºÀ/.iotlink/sdk/IoT_LINK/iot_link/os/liteos/base/ipc\los_queue.c ****     {
 132:C:/Users/²Ü¼ÒºÀ/.iotlink/sdk/IoT_LINK/iot_link/os/liteos/base/ipc\los_queue.c ****         return LOS_ERRNO_QUEUE_SIZE_TOO_BIG;
 133:C:/Users/²Ü¼ÒºÀ/.iotlink/sdk/IoT_LINK/iot_link/os/liteos/base/ipc\los_queue.c ****     }
 134:C:/Users/²Ü¼ÒºÀ/.iotlink/sdk/IoT_LINK/iot_link/os/liteos/base/ipc\los_queue.c **** 
 135:C:/Users/²Ü¼ÒºÀ/.iotlink/sdk/IoT_LINK/iot_link/os/liteos/base/ipc\los_queue.c ****     if ((0 == usLen) || (0 == usMaxMsgSize))
 209              		.loc 1 135 5 is_stmt 1 view .LVU64
 210              		.loc 1 135 8 is_stmt 0 view .LVU65
 211 0018 0029     		cmp	r1, #0
 212 001a 48D0     		beq	.L14
 213              		.loc 1 135 22 discriminator 1 view .LVU66
 214 001c 002B     		cmp	r3, #0
 215 001e 46D0     		beq	.L14
 120:C:/Users/²Ü¼ÒºÀ/.iotlink/sdk/IoT_LINK/iot_link/os/liteos/base/ipc\los_queue.c **** 
 216              		.loc 1 120 21 view .LVU67
 217 0020 0433     		adds	r3, r3, #4
 218              	.LVL12:
 136:C:/Users/²Ü¼ÒºÀ/.iotlink/sdk/IoT_LINK/iot_link/os/liteos/base/ipc\los_queue.c ****     {
 137:C:/Users/²Ü¼ÒºÀ/.iotlink/sdk/IoT_LINK/iot_link/os/liteos/base/ipc\los_queue.c ****         return LOS_ERRNO_QUEUE_PARA_ISZERO;
 138:C:/Users/²Ü¼ÒºÀ/.iotlink/sdk/IoT_LINK/iot_link/os/liteos/base/ipc\los_queue.c ****     }
 139:C:/Users/²Ü¼ÒºÀ/.iotlink/sdk/IoT_LINK/iot_link/os/liteos/base/ipc\los_queue.c **** 
 140:C:/Users/²Ü¼ÒºÀ/.iotlink/sdk/IoT_LINK/iot_link/os/liteos/base/ipc\los_queue.c ****     /* Memory allocation is time-consuming, to shorten the time of disable interrupt,
 141:C:/Users/²Ü¼ÒºÀ/.iotlink/sdk/IoT_LINK/iot_link/os/liteos/base/ipc\los_queue.c ****        move the memory allocation to here. */
 142:C:/Users/²Ü¼ÒºÀ/.iotlink/sdk/IoT_LINK/iot_link/os/liteos/base/ipc\los_queue.c ****     pucQueue = (UINT8 *)LOS_MemAlloc(m_aucSysMem0, usLen * usMsgSize);
 219              		.loc 1 142 25 view .LVU68
 220 0022 DFF8AC90 		ldr	r9, .L16+24
 120:C:/Users/²Ü¼ÒºÀ/.iotlink/sdk/IoT_LINK/iot_link/os/liteos/base/ipc\los_queue.c **** 
 221              		.loc 1 120 21 view .LVU69
 222 0026 9EB2     		uxth	r6, r3
 223              		.loc 1 142 5 is_stmt 1 view .LVU70
 224              		.loc 1 142 25 is_stmt 0 view .LVU71
 225 0028 D9F80000 		ldr	r0, [r9]
 226              	.LVL13:
 227              		.loc 1 142 25 view .LVU72
 228 002c 7143     		muls	r1, r6, r1
 229              	.LVL14:
 230              		.loc 1 142 25 view .LVU73
 231 002e FFF7FEFF 		bl	LOS_MemAlloc
 232              	.LVL15:
 143:C:/Users/²Ü¼ÒºÀ/.iotlink/sdk/IoT_LINK/iot_link/os/liteos/base/ipc\los_queue.c ****     if (NULL == pucQueue)
 233              		.loc 1 143 5 is_stmt 1 view .LVU74
 234              		.loc 1 143 8 is_stmt 0 view .LVU75
 235 0032 0546     		mov	r5, r0
 236 0034 0028     		cmp	r0, #0
 237 0036 3CD0     		beq	.L15
 144:C:/Users/²Ü¼ÒºÀ/.iotlink/sdk/IoT_LINK/iot_link/os/liteos/base/ipc\los_queue.c ****     {
 145:C:/Users/²Ü¼ÒºÀ/.iotlink/sdk/IoT_LINK/iot_link/os/liteos/base/ipc\los_queue.c ****         return LOS_ERRNO_QUEUE_CREATE_NO_MEMORY;
 146:C:/Users/²Ü¼ÒºÀ/.iotlink/sdk/IoT_LINK/iot_link/os/liteos/base/ipc\los_queue.c ****     }
 147:C:/Users/²Ü¼ÒºÀ/.iotlink/sdk/IoT_LINK/iot_link/os/liteos/base/ipc\los_queue.c **** 
 148:C:/Users/²Ü¼ÒºÀ/.iotlink/sdk/IoT_LINK/iot_link/os/liteos/base/ipc\los_queue.c ****     uvIntSave = LOS_IntLock();
 238              		.loc 1 148 5 is_stmt 1 view .LVU76
 239              		.loc 1 148 17 is_stmt 0 view .LVU77
 240 0038 FFF7FEFF 		bl	LOS_IntLock
 241              	.LVL16:
 149:C:/Users/²Ü¼ÒºÀ/.iotlink/sdk/IoT_LINK/iot_link/os/liteos/base/ipc\los_queue.c ****     if (LOS_ListEmpty(&g_stFreeQueueList))
 242              		.loc 1 149 5 is_stmt 1 view .LVU78
 243              	.LBB51:
 244              	.LBI51:
ARM GAS  C:\Users\²Ü¼ÒºÀ\AppData\Local\Temp\ccapTJCk.s 			page 11


 160:C:/Users/²Ü¼ÒºÀ/.iotlink/sdk/IoT_LINK/iot_link/os/liteos/include\los_list.h **** }
 161:C:/Users/²Ü¼ÒºÀ/.iotlink/sdk/IoT_LINK/iot_link/os/liteos/include\los_list.h **** 
 162:C:/Users/²Ü¼ÒºÀ/.iotlink/sdk/IoT_LINK/iot_link/os/liteos/include\los_list.h **** /**
 163:C:/Users/²Ü¼ÒºÀ/.iotlink/sdk/IoT_LINK/iot_link/os/liteos/include\los_list.h ****  *@ingroup los_list
 164:C:/Users/²Ü¼ÒºÀ/.iotlink/sdk/IoT_LINK/iot_link/os/liteos/include\los_list.h ****  *@brief Delete a specified node from a doubly linked list.
 165:C:/Users/²Ü¼ÒºÀ/.iotlink/sdk/IoT_LINK/iot_link/os/liteos/include\los_list.h ****  *
 166:C:/Users/²Ü¼ÒºÀ/.iotlink/sdk/IoT_LINK/iot_link/os/liteos/include\los_list.h ****  *@par Description:
 167:C:/Users/²Ü¼ÒºÀ/.iotlink/sdk/IoT_LINK/iot_link/os/liteos/include\los_list.h ****  *<ul>
 168:C:/Users/²Ü¼ÒºÀ/.iotlink/sdk/IoT_LINK/iot_link/os/liteos/include\los_list.h ****  *<li>This API is used to delete a specified node from a doubly linked list.</li>
 169:C:/Users/²Ü¼ÒºÀ/.iotlink/sdk/IoT_LINK/iot_link/os/liteos/include\los_list.h ****  *</ul>
 170:C:/Users/²Ü¼ÒºÀ/.iotlink/sdk/IoT_LINK/iot_link/os/liteos/include\los_list.h ****  *@attention
 171:C:/Users/²Ü¼ÒºÀ/.iotlink/sdk/IoT_LINK/iot_link/os/liteos/include\los_list.h ****  *<ul>
 172:C:/Users/²Ü¼ÒºÀ/.iotlink/sdk/IoT_LINK/iot_link/os/liteos/include\los_list.h ****  *<li>The parameter passed in should be ensured to be a legal pointer.</li>
 173:C:/Users/²Ü¼ÒºÀ/.iotlink/sdk/IoT_LINK/iot_link/os/liteos/include\los_list.h ****  *</ul>
 174:C:/Users/²Ü¼ÒºÀ/.iotlink/sdk/IoT_LINK/iot_link/os/liteos/include\los_list.h ****  *
 175:C:/Users/²Ü¼ÒºÀ/.iotlink/sdk/IoT_LINK/iot_link/os/liteos/include\los_list.h ****  *@param pstNode    [IN] Node to be deleted.
 176:C:/Users/²Ü¼ÒºÀ/.iotlink/sdk/IoT_LINK/iot_link/os/liteos/include\los_list.h ****  *
 177:C:/Users/²Ü¼ÒºÀ/.iotlink/sdk/IoT_LINK/iot_link/os/liteos/include\los_list.h ****  *@retval None.
 178:C:/Users/²Ü¼ÒºÀ/.iotlink/sdk/IoT_LINK/iot_link/os/liteos/include\los_list.h ****  *@par Dependency:
 179:C:/Users/²Ü¼ÒºÀ/.iotlink/sdk/IoT_LINK/iot_link/os/liteos/include\los_list.h ****  *<ul><li>los_list.h: the header file that contains the API declaration.</li></ul>
 180:C:/Users/²Ü¼ÒºÀ/.iotlink/sdk/IoT_LINK/iot_link/os/liteos/include\los_list.h ****  *@see LOS_ListAdd
 181:C:/Users/²Ü¼ÒºÀ/.iotlink/sdk/IoT_LINK/iot_link/os/liteos/include\los_list.h ****  *@since Huawei LiteOS V100R001C00
 182:C:/Users/²Ü¼ÒºÀ/.iotlink/sdk/IoT_LINK/iot_link/os/liteos/include\los_list.h ****  */
 183:C:/Users/²Ü¼ÒºÀ/.iotlink/sdk/IoT_LINK/iot_link/os/liteos/include\los_list.h **** LITE_OS_SEC_ALW_INLINE STATIC_INLINE VOID LOS_ListDelete(LOS_DL_LIST *pstNode)
 184:C:/Users/²Ü¼ÒºÀ/.iotlink/sdk/IoT_LINK/iot_link/os/liteos/include\los_list.h **** {
 185:C:/Users/²Ü¼ÒºÀ/.iotlink/sdk/IoT_LINK/iot_link/os/liteos/include\los_list.h ****     pstNode->pstNext->pstPrev = pstNode->pstPrev;
 186:C:/Users/²Ü¼ÒºÀ/.iotlink/sdk/IoT_LINK/iot_link/os/liteos/include\los_list.h ****     pstNode->pstPrev->pstNext = pstNode->pstNext;
 187:C:/Users/²Ü¼ÒºÀ/.iotlink/sdk/IoT_LINK/iot_link/os/liteos/include\los_list.h ****     pstNode->pstNext = (LOS_DL_LIST *)NULL;
 188:C:/Users/²Ü¼ÒºÀ/.iotlink/sdk/IoT_LINK/iot_link/os/liteos/include\los_list.h ****     pstNode->pstPrev = (LOS_DL_LIST *)NULL;
 189:C:/Users/²Ü¼ÒºÀ/.iotlink/sdk/IoT_LINK/iot_link/os/liteos/include\los_list.h **** }
 190:C:/Users/²Ü¼ÒºÀ/.iotlink/sdk/IoT_LINK/iot_link/os/liteos/include\los_list.h **** 
 191:C:/Users/²Ü¼ÒºÀ/.iotlink/sdk/IoT_LINK/iot_link/os/liteos/include\los_list.h **** /**
 192:C:/Users/²Ü¼ÒºÀ/.iotlink/sdk/IoT_LINK/iot_link/os/liteos/include\los_list.h ****  *@ingroup los_list
 193:C:/Users/²Ü¼ÒºÀ/.iotlink/sdk/IoT_LINK/iot_link/os/liteos/include\los_list.h ****  *@brief Identify whether a specified doubly linked list is empty.
 194:C:/Users/²Ü¼ÒºÀ/.iotlink/sdk/IoT_LINK/iot_link/os/liteos/include\los_list.h ****  *
 195:C:/Users/²Ü¼ÒºÀ/.iotlink/sdk/IoT_LINK/iot_link/os/liteos/include\los_list.h ****  *@par Description:
 196:C:/Users/²Ü¼ÒºÀ/.iotlink/sdk/IoT_LINK/iot_link/os/liteos/include\los_list.h ****  *<ul>
 197:C:/Users/²Ü¼ÒºÀ/.iotlink/sdk/IoT_LINK/iot_link/os/liteos/include\los_list.h ****  *<li>This API is used to return whether a doubly linked list is empty.</li>
 198:C:/Users/²Ü¼ÒºÀ/.iotlink/sdk/IoT_LINK/iot_link/os/liteos/include\los_list.h ****  *</ul>
 199:C:/Users/²Ü¼ÒºÀ/.iotlink/sdk/IoT_LINK/iot_link/os/liteos/include\los_list.h ****  *@attention
 200:C:/Users/²Ü¼ÒºÀ/.iotlink/sdk/IoT_LINK/iot_link/os/liteos/include\los_list.h ****  *<ul>
 201:C:/Users/²Ü¼ÒºÀ/.iotlink/sdk/IoT_LINK/iot_link/os/liteos/include\los_list.h ****  *<li>The parameter passed in should be ensured to be a legal pointer.</li>
 202:C:/Users/²Ü¼ÒºÀ/.iotlink/sdk/IoT_LINK/iot_link/os/liteos/include\los_list.h ****  *</ul>
 203:C:/Users/²Ü¼ÒºÀ/.iotlink/sdk/IoT_LINK/iot_link/os/liteos/include\los_list.h ****  *
 204:C:/Users/²Ü¼ÒºÀ/.iotlink/sdk/IoT_LINK/iot_link/os/liteos/include\los_list.h ****  *@param pstList  [IN] Doubly linked list.
 205:C:/Users/²Ü¼ÒºÀ/.iotlink/sdk/IoT_LINK/iot_link/os/liteos/include\los_list.h ****  *
 206:C:/Users/²Ü¼ÒºÀ/.iotlink/sdk/IoT_LINK/iot_link/os/liteos/include\los_list.h ****  *@retval TRUE The doubly linked list is empty.
 207:C:/Users/²Ü¼ÒºÀ/.iotlink/sdk/IoT_LINK/iot_link/os/liteos/include\los_list.h ****  *@retval FALSE The doubly linked list is not empty.
 208:C:/Users/²Ü¼ÒºÀ/.iotlink/sdk/IoT_LINK/iot_link/os/liteos/include\los_list.h ****  *@par Dependency:
 209:C:/Users/²Ü¼ÒºÀ/.iotlink/sdk/IoT_LINK/iot_link/os/liteos/include\los_list.h ****  *<ul><li>los_list.h: the header file that contains the API declaration.</li></ul>
 210:C:/Users/²Ü¼ÒºÀ/.iotlink/sdk/IoT_LINK/iot_link/os/liteos/include\los_list.h ****  *@see
 211:C:/Users/²Ü¼ÒºÀ/.iotlink/sdk/IoT_LINK/iot_link/os/liteos/include\los_list.h ****  *@since Huawei LiteOS V100R001C00
 212:C:/Users/²Ü¼ÒºÀ/.iotlink/sdk/IoT_LINK/iot_link/os/liteos/include\los_list.h ****  */
 213:C:/Users/²Ü¼ÒºÀ/.iotlink/sdk/IoT_LINK/iot_link/os/liteos/include\los_list.h **** LITE_OS_SEC_ALW_INLINE STATIC_INLINE BOOL LOS_ListEmpty(LOS_DL_LIST *pstNode)
 245              		.loc 2 213 43 view .LVU79
 246              	.LBB52:
 214:C:/Users/²Ü¼ÒºÀ/.iotlink/sdk/IoT_LINK/iot_link/os/liteos/include\los_list.h **** {
ARM GAS  C:\Users\²Ü¼ÒºÀ\AppData\Local\Temp\ccapTJCk.s 			page 12


 215:C:/Users/²Ü¼ÒºÀ/.iotlink/sdk/IoT_LINK/iot_link/os/liteos/include\los_list.h ****     return (BOOL)(pstNode->pstNext == pstNode);
 247              		.loc 2 215 5 view .LVU80
 248              		.loc 2 215 26 is_stmt 0 view .LVU81
 249 003c 1E4B     		ldr	r3, .L16
 250 003e 5C68     		ldr	r4, [r3, #4]
 251              	.LVL17:
 252              		.loc 2 215 26 view .LVU82
 253              	.LBE52:
 254              	.LBE51:
 255              		.loc 1 149 8 view .LVU83
 256 0040 9C42     		cmp	r4, r3
 257 0042 09D1     		bne	.L10
 150:C:/Users/²Ü¼ÒºÀ/.iotlink/sdk/IoT_LINK/iot_link/os/liteos/base/ipc\los_queue.c ****     {
 151:C:/Users/²Ü¼ÒºÀ/.iotlink/sdk/IoT_LINK/iot_link/os/liteos/base/ipc\los_queue.c ****         LOS_IntRestore(uvIntSave);
 258              		.loc 1 151 9 is_stmt 1 view .LVU84
 259 0044 FFF7FEFF 		bl	LOS_IntRestore
 260              	.LVL18:
 152:C:/Users/²Ü¼ÒºÀ/.iotlink/sdk/IoT_LINK/iot_link/os/liteos/base/ipc\los_queue.c ****         (VOID)LOS_MemFree(m_aucSysMem0, pucQueue);
 261              		.loc 1 152 9 view .LVU85
 262              		.loc 1 152 15 is_stmt 0 view .LVU86
 263 0048 D9F80000 		ldr	r0, [r9]
 264 004c 2946     		mov	r1, r5
 265 004e FFF7FEFF 		bl	LOS_MemFree
 266              	.LVL19:
 153:C:/Users/²Ü¼ÒºÀ/.iotlink/sdk/IoT_LINK/iot_link/os/liteos/base/ipc\los_queue.c ****         return LOS_ERRNO_QUEUE_CB_UNAVAILABLE;
 267              		.loc 1 153 9 is_stmt 1 view .LVU87
 268              		.loc 1 153 16 is_stmt 0 view .LVU88
 269 0052 1A48     		ldr	r0, .L16+4
 270              	.LVL20:
 271              	.L8:
 154:C:/Users/²Ü¼ÒºÀ/.iotlink/sdk/IoT_LINK/iot_link/os/liteos/base/ipc\los_queue.c ****     }
 155:C:/Users/²Ü¼ÒºÀ/.iotlink/sdk/IoT_LINK/iot_link/os/liteos/base/ipc\los_queue.c **** 
 156:C:/Users/²Ü¼ÒºÀ/.iotlink/sdk/IoT_LINK/iot_link/os/liteos/base/ipc\los_queue.c ****     pstUnusedQueue = LOS_DL_LIST_FIRST(&(g_stFreeQueueList));
 157:C:/Users/²Ü¼ÒºÀ/.iotlink/sdk/IoT_LINK/iot_link/os/liteos/base/ipc\los_queue.c ****     LOS_ListDelete(pstUnusedQueue);
 158:C:/Users/²Ü¼ÒºÀ/.iotlink/sdk/IoT_LINK/iot_link/os/liteos/base/ipc\los_queue.c ****     pstQueueCB = (GET_QUEUE_LIST(pstUnusedQueue));
 159:C:/Users/²Ü¼ÒºÀ/.iotlink/sdk/IoT_LINK/iot_link/os/liteos/base/ipc\los_queue.c ****     pstQueueCB->usQueueLen = usLen;
 160:C:/Users/²Ü¼ÒºÀ/.iotlink/sdk/IoT_LINK/iot_link/os/liteos/base/ipc\los_queue.c ****     pstQueueCB->usQueueSize = usMsgSize;
 161:C:/Users/²Ü¼ÒºÀ/.iotlink/sdk/IoT_LINK/iot_link/os/liteos/base/ipc\los_queue.c ****     pstQueueCB->pucQueue = pucQueue;
 162:C:/Users/²Ü¼ÒºÀ/.iotlink/sdk/IoT_LINK/iot_link/os/liteos/base/ipc\los_queue.c ****     pstQueueCB->usQueueState = OS_QUEUE_INUSED;
 163:C:/Users/²Ü¼ÒºÀ/.iotlink/sdk/IoT_LINK/iot_link/os/liteos/base/ipc\los_queue.c ****     pstQueueCB->usReadWriteableCnt[OS_QUEUE_READ]  = 0;
 164:C:/Users/²Ü¼ÒºÀ/.iotlink/sdk/IoT_LINK/iot_link/os/liteos/base/ipc\los_queue.c ****     pstQueueCB->usReadWriteableCnt[OS_QUEUE_WRITE] = usLen;
 165:C:/Users/²Ü¼ÒºÀ/.iotlink/sdk/IoT_LINK/iot_link/os/liteos/base/ipc\los_queue.c ****     pstQueueCB->usQueueHead = 0;
 166:C:/Users/²Ü¼ÒºÀ/.iotlink/sdk/IoT_LINK/iot_link/os/liteos/base/ipc\los_queue.c ****     pstQueueCB->usQueueTail = 0;
 167:C:/Users/²Ü¼ÒºÀ/.iotlink/sdk/IoT_LINK/iot_link/os/liteos/base/ipc\los_queue.c ****     LOS_ListInit(&pstQueueCB->stReadWriteList[OS_QUEUE_READ]);
 168:C:/Users/²Ü¼ÒºÀ/.iotlink/sdk/IoT_LINK/iot_link/os/liteos/base/ipc\los_queue.c ****     LOS_ListInit(&pstQueueCB->stReadWriteList[OS_QUEUE_WRITE]);
 169:C:/Users/²Ü¼ÒºÀ/.iotlink/sdk/IoT_LINK/iot_link/os/liteos/base/ipc\los_queue.c ****     LOS_ListInit(&pstQueueCB->stMemList);
 170:C:/Users/²Ü¼ÒºÀ/.iotlink/sdk/IoT_LINK/iot_link/os/liteos/base/ipc\los_queue.c ****     LOS_IntRestore(uvIntSave);
 171:C:/Users/²Ü¼ÒºÀ/.iotlink/sdk/IoT_LINK/iot_link/os/liteos/base/ipc\los_queue.c **** 
 172:C:/Users/²Ü¼ÒºÀ/.iotlink/sdk/IoT_LINK/iot_link/os/liteos/base/ipc\los_queue.c ****     *puwQueueID = pstQueueCB->usQueueID;
 173:C:/Users/²Ü¼ÒºÀ/.iotlink/sdk/IoT_LINK/iot_link/os/liteos/base/ipc\los_queue.c **** 
 174:C:/Users/²Ü¼ÒºÀ/.iotlink/sdk/IoT_LINK/iot_link/os/liteos/base/ipc\los_queue.c ****     return LOS_OK;
 175:C:/Users/²Ü¼ÒºÀ/.iotlink/sdk/IoT_LINK/iot_link/os/liteos/base/ipc\los_queue.c **** }
 272              		.loc 1 175 1 view .LVU89
 273 0054 BDE8F883 		pop	{r3, r4, r5, r6, r7, r8, r9, pc}
 274              	.LVL21:
 275              	.L10:
 156:C:/Users/²Ü¼ÒºÀ/.iotlink/sdk/IoT_LINK/iot_link/os/liteos/base/ipc\los_queue.c ****     LOS_ListDelete(pstUnusedQueue);
ARM GAS  C:\Users\²Ü¼ÒºÀ\AppData\Local\Temp\ccapTJCk.s 			page 13


 276              		.loc 1 156 5 is_stmt 1 view .LVU90
 157:C:/Users/²Ü¼ÒºÀ/.iotlink/sdk/IoT_LINK/iot_link/os/liteos/base/ipc\los_queue.c ****     pstQueueCB = (GET_QUEUE_LIST(pstUnusedQueue));
 277              		.loc 1 157 5 view .LVU91
 278              	.LBB53:
 279              	.LBI53:
 183:C:/Users/²Ü¼ÒºÀ/.iotlink/sdk/IoT_LINK/iot_link/os/liteos/include\los_list.h **** {
 280              		.loc 2 183 43 view .LVU92
 281              	.LBB54:
 185:C:/Users/²Ü¼ÒºÀ/.iotlink/sdk/IoT_LINK/iot_link/os/liteos/include\los_list.h ****     pstNode->pstPrev->pstNext = pstNode->pstNext;
 282              		.loc 2 185 5 view .LVU93
 185:C:/Users/²Ü¼ÒºÀ/.iotlink/sdk/IoT_LINK/iot_link/os/liteos/include\los_list.h ****     pstNode->pstPrev->pstNext = pstNode->pstNext;
 283              		.loc 2 185 40 is_stmt 0 view .LVU94
 284 0058 D4E90032 		ldrd	r3, r2, [r4]
 185:C:/Users/²Ü¼ÒºÀ/.iotlink/sdk/IoT_LINK/iot_link/os/liteos/include\los_list.h ****     pstNode->pstPrev->pstNext = pstNode->pstNext;
 285              		.loc 2 185 31 view .LVU95
 286 005c 1360     		str	r3, [r2]
 186:C:/Users/²Ü¼ÒºÀ/.iotlink/sdk/IoT_LINK/iot_link/os/liteos/include\los_list.h ****     pstNode->pstNext = (LOS_DL_LIST *)NULL;
 287              		.loc 2 186 5 is_stmt 1 view .LVU96
 186:C:/Users/²Ü¼ÒºÀ/.iotlink/sdk/IoT_LINK/iot_link/os/liteos/include\los_list.h ****     pstNode->pstNext = (LOS_DL_LIST *)NULL;
 288              		.loc 2 186 31 is_stmt 0 view .LVU97
 289 005e 5A60     		str	r2, [r3, #4]
 187:C:/Users/²Ü¼ÒºÀ/.iotlink/sdk/IoT_LINK/iot_link/os/liteos/include\los_list.h ****     pstNode->pstPrev = (LOS_DL_LIST *)NULL;
 290              		.loc 2 187 5 is_stmt 1 view .LVU98
 188:C:/Users/²Ü¼ÒºÀ/.iotlink/sdk/IoT_LINK/iot_link/os/liteos/include\los_list.h **** }
 291              		.loc 2 188 5 view .LVU99
 292              	.LVL22:
 188:C:/Users/²Ü¼ÒºÀ/.iotlink/sdk/IoT_LINK/iot_link/os/liteos/include\los_list.h **** }
 293              		.loc 2 188 5 is_stmt 0 view .LVU100
 294              	.LBE54:
 295              	.LBE53:
 158:C:/Users/²Ü¼ÒºÀ/.iotlink/sdk/IoT_LINK/iot_link/os/liteos/base/ipc\los_queue.c ****     pstQueueCB->usQueueLen = usLen;
 296              		.loc 1 158 5 is_stmt 1 view .LVU101
 159:C:/Users/²Ü¼ÒºÀ/.iotlink/sdk/IoT_LINK/iot_link/os/liteos/base/ipc\los_queue.c ****     pstQueueCB->usQueueSize = usMsgSize;
 297              		.loc 1 159 5 view .LVU102
 162:C:/Users/²Ü¼ÒºÀ/.iotlink/sdk/IoT_LINK/iot_link/os/liteos/base/ipc\los_queue.c ****     pstQueueCB->usReadWriteableCnt[OS_QUEUE_READ]  = 0;
 298              		.loc 1 162 30 is_stmt 0 view .LVU103
 299 0060 0123     		movs	r3, #1
 300 0062 24F8183C 		strh	r3, [r4, #-24]	@ movhi
 167:C:/Users/²Ü¼ÒºÀ/.iotlink/sdk/IoT_LINK/iot_link/os/liteos/base/ipc\los_queue.c ****     LOS_ListInit(&pstQueueCB->stReadWriteList[OS_QUEUE_WRITE]);
 301              		.loc 1 167 5 view .LVU104
 302 0066 A4F10803 		sub	r3, r4, #8
 303              	.LBB55:
 304              	.LBB56:
  83:C:/Users/²Ü¼ÒºÀ/.iotlink/sdk/IoT_LINK/iot_link/os/liteos/include\los_list.h **** }
 305              		.loc 2 83 22 view .LVU105
 306 006a 44E90233 		strd	r3, r3, [r4, #-8]
 307              	.LBE56:
 308              	.LBE55:
 161:C:/Users/²Ü¼ÒºÀ/.iotlink/sdk/IoT_LINK/iot_link/os/liteos/base/ipc\los_queue.c ****     pstQueueCB->usQueueState = OS_QUEUE_INUSED;
 309              		.loc 1 161 26 view .LVU106
 310 006e 44F81C5C 		str	r5, [r4, #-28]
 169:C:/Users/²Ü¼ÒºÀ/.iotlink/sdk/IoT_LINK/iot_link/os/liteos/base/ipc\los_queue.c ****     LOS_IntRestore(uvIntSave);
 311              		.loc 1 169 5 view .LVU107
 312 0072 04F10803 		add	r3, r4, #8
 163:C:/Users/²Ü¼ÒºÀ/.iotlink/sdk/IoT_LINK/iot_link/os/liteos/base/ipc\los_queue.c ****     pstQueueCB->usReadWriteableCnt[OS_QUEUE_WRITE] = usLen;
 313              		.loc 1 163 52 view .LVU108
 314 0076 0025     		movs	r5, #0
ARM GAS  C:\Users\²Ü¼ÒºÀ\AppData\Local\Temp\ccapTJCk.s 			page 14


 315              	.LVL23:
 316              	.LBB58:
 317              	.LBB59:
  83:C:/Users/²Ü¼ÒºÀ/.iotlink/sdk/IoT_LINK/iot_link/os/liteos/include\los_list.h **** }
 318              		.loc 2 83 22 view .LVU109
 319 0078 C4E90233 		strd	r3, r3, [r4, #8]
 320              	.LBE59:
 321              	.LBE58:
 322              	.LBB61:
 323              	.LBB62:
 324 007c C4E90044 		strd	r4, r4, [r4]
 325              	.LBE62:
 326              	.LBE61:
 159:C:/Users/²Ü¼ÒºÀ/.iotlink/sdk/IoT_LINK/iot_link/os/liteos/base/ipc\los_queue.c ****     pstQueueCB->usQueueSize = usMsgSize;
 327              		.loc 1 159 28 view .LVU110
 328 0080 24F8168C 		strh	r8, [r4, #-22]	@ movhi
 160:C:/Users/²Ü¼ÒºÀ/.iotlink/sdk/IoT_LINK/iot_link/os/liteos/base/ipc\los_queue.c ****     pstQueueCB->pucQueue = pucQueue;
 329              		.loc 1 160 5 is_stmt 1 view .LVU111
 160:C:/Users/²Ü¼ÒºÀ/.iotlink/sdk/IoT_LINK/iot_link/os/liteos/base/ipc\los_queue.c ****     pstQueueCB->pucQueue = pucQueue;
 330              		.loc 1 160 29 is_stmt 0 view .LVU112
 331 0084 24F8146C 		strh	r6, [r4, #-20]	@ movhi
 161:C:/Users/²Ü¼ÒºÀ/.iotlink/sdk/IoT_LINK/iot_link/os/liteos/base/ipc\los_queue.c ****     pstQueueCB->usQueueState = OS_QUEUE_INUSED;
 332              		.loc 1 161 5 is_stmt 1 view .LVU113
 162:C:/Users/²Ü¼ÒºÀ/.iotlink/sdk/IoT_LINK/iot_link/os/liteos/base/ipc\los_queue.c ****     pstQueueCB->usReadWriteableCnt[OS_QUEUE_READ]  = 0;
 333              		.loc 1 162 5 view .LVU114
 163:C:/Users/²Ü¼ÒºÀ/.iotlink/sdk/IoT_LINK/iot_link/os/liteos/base/ipc\los_queue.c ****     pstQueueCB->usReadWriteableCnt[OS_QUEUE_WRITE] = usLen;
 334              		.loc 1 163 5 view .LVU115
 163:C:/Users/²Ü¼ÒºÀ/.iotlink/sdk/IoT_LINK/iot_link/os/liteos/base/ipc\los_queue.c ****     pstQueueCB->usReadWriteableCnt[OS_QUEUE_WRITE] = usLen;
 335              		.loc 1 163 52 is_stmt 0 view .LVU116
 336 0088 24F80C5C 		strh	r5, [r4, #-12]	@ movhi
 164:C:/Users/²Ü¼ÒºÀ/.iotlink/sdk/IoT_LINK/iot_link/os/liteos/base/ipc\los_queue.c ****     pstQueueCB->usQueueHead = 0;
 337              		.loc 1 164 5 is_stmt 1 view .LVU117
 164:C:/Users/²Ü¼ÒºÀ/.iotlink/sdk/IoT_LINK/iot_link/os/liteos/base/ipc\los_queue.c ****     pstQueueCB->usQueueHead = 0;
 338              		.loc 1 164 52 is_stmt 0 view .LVU118
 339 008c 24F80A8C 		strh	r8, [r4, #-10]	@ movhi
 165:C:/Users/²Ü¼ÒºÀ/.iotlink/sdk/IoT_LINK/iot_link/os/liteos/base/ipc\los_queue.c ****     pstQueueCB->usQueueTail = 0;
 340              		.loc 1 165 5 is_stmt 1 view .LVU119
 165:C:/Users/²Ü¼ÒºÀ/.iotlink/sdk/IoT_LINK/iot_link/os/liteos/base/ipc\los_queue.c ****     pstQueueCB->usQueueTail = 0;
 341              		.loc 1 165 29 is_stmt 0 view .LVU120
 342 0090 24F8105C 		strh	r5, [r4, #-16]	@ movhi
 166:C:/Users/²Ü¼ÒºÀ/.iotlink/sdk/IoT_LINK/iot_link/os/liteos/base/ipc\los_queue.c ****     LOS_ListInit(&pstQueueCB->stReadWriteList[OS_QUEUE_READ]);
 343              		.loc 1 166 5 is_stmt 1 view .LVU121
 166:C:/Users/²Ü¼ÒºÀ/.iotlink/sdk/IoT_LINK/iot_link/os/liteos/base/ipc\los_queue.c ****     LOS_ListInit(&pstQueueCB->stReadWriteList[OS_QUEUE_READ]);
 344              		.loc 1 166 29 is_stmt 0 view .LVU122
 345 0094 24F80E5C 		strh	r5, [r4, #-14]	@ movhi
 167:C:/Users/²Ü¼ÒºÀ/.iotlink/sdk/IoT_LINK/iot_link/os/liteos/base/ipc\los_queue.c ****     LOS_ListInit(&pstQueueCB->stReadWriteList[OS_QUEUE_WRITE]);
 346              		.loc 1 167 5 is_stmt 1 view .LVU123
 347              	.LBB64:
 348              	.LBI55:
  80:C:/Users/²Ü¼ÒºÀ/.iotlink/sdk/IoT_LINK/iot_link/os/liteos/include\los_list.h **** {
 349              		.loc 2 80 43 view .LVU124
 350              	.LBB57:
  82:C:/Users/²Ü¼ÒºÀ/.iotlink/sdk/IoT_LINK/iot_link/os/liteos/include\los_list.h ****     pstList->pstPrev = pstList;
 351              		.loc 2 82 5 view .LVU125
 352              	.LBE57:
 353              	.LBE64:
 168:C:/Users/²Ü¼ÒºÀ/.iotlink/sdk/IoT_LINK/iot_link/os/liteos/base/ipc\los_queue.c ****     LOS_ListInit(&pstQueueCB->stMemList);
ARM GAS  C:\Users\²Ü¼ÒºÀ\AppData\Local\Temp\ccapTJCk.s 			page 15


 354              		.loc 1 168 5 view .LVU126
 355              	.LVL24:
 356              	.LBB65:
 357              	.LBI61:
  80:C:/Users/²Ü¼ÒºÀ/.iotlink/sdk/IoT_LINK/iot_link/os/liteos/include\los_list.h **** {
 358              		.loc 2 80 43 view .LVU127
 359              	.LBB63:
  82:C:/Users/²Ü¼ÒºÀ/.iotlink/sdk/IoT_LINK/iot_link/os/liteos/include\los_list.h ****     pstList->pstPrev = pstList;
 360              		.loc 2 82 5 view .LVU128
  82:C:/Users/²Ü¼ÒºÀ/.iotlink/sdk/IoT_LINK/iot_link/os/liteos/include\los_list.h ****     pstList->pstPrev = pstList;
 361              		.loc 2 82 5 is_stmt 0 view .LVU129
 362              	.LBE63:
 363              	.LBE65:
 169:C:/Users/²Ü¼ÒºÀ/.iotlink/sdk/IoT_LINK/iot_link/os/liteos/base/ipc\los_queue.c ****     LOS_IntRestore(uvIntSave);
 364              		.loc 1 169 5 is_stmt 1 view .LVU130
 365              	.LBB66:
 366              	.LBI58:
  80:C:/Users/²Ü¼ÒºÀ/.iotlink/sdk/IoT_LINK/iot_link/os/liteos/include\los_list.h **** {
 367              		.loc 2 80 43 view .LVU131
 368              	.LBB60:
  82:C:/Users/²Ü¼ÒºÀ/.iotlink/sdk/IoT_LINK/iot_link/os/liteos/include\los_list.h ****     pstList->pstPrev = pstList;
 369              		.loc 2 82 5 view .LVU132
  82:C:/Users/²Ü¼ÒºÀ/.iotlink/sdk/IoT_LINK/iot_link/os/liteos/include\los_list.h ****     pstList->pstPrev = pstList;
 370              		.loc 2 82 5 is_stmt 0 view .LVU133
 371              	.LBE60:
 372              	.LBE66:
 170:C:/Users/²Ü¼ÒºÀ/.iotlink/sdk/IoT_LINK/iot_link/os/liteos/base/ipc\los_queue.c **** 
 373              		.loc 1 170 5 is_stmt 1 view .LVU134
 374 0098 FFF7FEFF 		bl	LOS_IntRestore
 375              	.LVL25:
 172:C:/Users/²Ü¼ÒºÀ/.iotlink/sdk/IoT_LINK/iot_link/os/liteos/base/ipc\los_queue.c **** 
 376              		.loc 1 172 5 view .LVU135
 172:C:/Users/²Ü¼ÒºÀ/.iotlink/sdk/IoT_LINK/iot_link/os/liteos/base/ipc\los_queue.c **** 
 377              		.loc 1 172 29 is_stmt 0 view .LVU136
 378 009c 34F8123C 		ldrh	r3, [r4, #-18]
 379 00a0 3B60     		str	r3, [r7]
 174:C:/Users/²Ü¼ÒºÀ/.iotlink/sdk/IoT_LINK/iot_link/os/liteos/base/ipc\los_queue.c **** }
 380              		.loc 1 174 5 is_stmt 1 view .LVU137
 174:C:/Users/²Ü¼ÒºÀ/.iotlink/sdk/IoT_LINK/iot_link/os/liteos/base/ipc\los_queue.c **** }
 381              		.loc 1 174 12 is_stmt 0 view .LVU138
 382 00a2 2846     		mov	r0, r5
 383 00a4 D6E7     		b	.L8
 384              	.LVL26:
 385              	.L11:
 127:C:/Users/²Ü¼ÒºÀ/.iotlink/sdk/IoT_LINK/iot_link/os/liteos/base/ipc\los_queue.c ****     }
 386              		.loc 1 127 16 view .LVU139
 387 00a6 0648     		ldr	r0, .L16+8
 388              	.LVL27:
 127:C:/Users/²Ü¼ÒºÀ/.iotlink/sdk/IoT_LINK/iot_link/os/liteos/base/ipc\los_queue.c ****     }
 389              		.loc 1 127 16 view .LVU140
 390 00a8 D4E7     		b	.L8
 391              	.LVL28:
 392              	.L12:
 132:C:/Users/²Ü¼ÒºÀ/.iotlink/sdk/IoT_LINK/iot_link/os/liteos/base/ipc\los_queue.c ****     }
 393              		.loc 1 132 16 view .LVU141
 394 00aa 0648     		ldr	r0, .L16+12
 395              	.LVL29:
ARM GAS  C:\Users\²Ü¼ÒºÀ\AppData\Local\Temp\ccapTJCk.s 			page 16


 132:C:/Users/²Ü¼ÒºÀ/.iotlink/sdk/IoT_LINK/iot_link/os/liteos/base/ipc\los_queue.c ****     }
 396              		.loc 1 132 16 view .LVU142
 397 00ac D2E7     		b	.L8
 398              	.LVL30:
 399              	.L14:
 137:C:/Users/²Ü¼ÒºÀ/.iotlink/sdk/IoT_LINK/iot_link/os/liteos/base/ipc\los_queue.c ****     }
 400              		.loc 1 137 16 view .LVU143
 401 00ae 0648     		ldr	r0, .L16+16
 402              	.LVL31:
 137:C:/Users/²Ü¼ÒºÀ/.iotlink/sdk/IoT_LINK/iot_link/os/liteos/base/ipc\los_queue.c ****     }
 403              		.loc 1 137 16 view .LVU144
 404 00b0 D0E7     		b	.L8
 405              	.LVL32:
 406              	.L15:
 145:C:/Users/²Ü¼ÒºÀ/.iotlink/sdk/IoT_LINK/iot_link/os/liteos/base/ipc\los_queue.c ****     }
 407              		.loc 1 145 16 view .LVU145
 408 00b2 0648     		ldr	r0, .L16+20
 409              	.LVL33:
 145:C:/Users/²Ü¼ÒºÀ/.iotlink/sdk/IoT_LINK/iot_link/os/liteos/base/ipc\los_queue.c ****     }
 410              		.loc 1 145 16 view .LVU146
 411 00b4 CEE7     		b	.L8
 412              	.L17:
 413 00b6 00BF     		.align	2
 414              	.L16:
 415 00b8 00000000 		.word	g_stFreeQueueList
 416 00bc 04060002 		.word	33555972
 417 00c0 0C060002 		.word	33555980
 418 00c4 03060002 		.word	33555971
 419 00c8 0D060002 		.word	33555981
 420 00cc 02060002 		.word	33555970
 421 00d0 00000000 		.word	m_aucSysMem0
 422              		.cfi_endproc
 423              	.LFE288:
 425              		.section	.rodata.osQueueOperate.str1.1,"aMS",%progbits,1
 426              	.LC0:
 427 0000 5B455252 		.ascii	"[ERR] \000"
 427      5D2000
 428              	.LC1:
 429 0007 696E7661 		.ascii	"invalid queue operate type!\000"
 429      6C696420 
 429      71756575 
 429      65206F70 
 429      65726174 
 430              		.section	.text.osQueueOperate,"ax",%progbits
 431              		.align	1
 432              		.global	osQueueOperate
 433              		.syntax unified
 434              		.thumb
 435              		.thumb_func
 436              		.fpu fpv4-sp-d16
 438              	osQueueOperate:
 439              	.LVL34:
 440              	.LFB292:
 176:C:/Users/²Ü¼ÒºÀ/.iotlink/sdk/IoT_LINK/iot_link/os/liteos/base/ipc\los_queue.c **** 
 177:C:/Users/²Ü¼ÒºÀ/.iotlink/sdk/IoT_LINK/iot_link/os/liteos/base/ipc\los_queue.c **** LITE_OS_SEC_TEXT static INLINE UINT32 osQueueReadParameterCheck(UINT32 uwQueueID, VOID *pBufferAddr
 178:C:/Users/²Ü¼ÒºÀ/.iotlink/sdk/IoT_LINK/iot_link/os/liteos/base/ipc\los_queue.c **** {
 179:C:/Users/²Ü¼ÒºÀ/.iotlink/sdk/IoT_LINK/iot_link/os/liteos/base/ipc\los_queue.c ****     if (uwQueueID >= LOSCFG_BASE_IPC_QUEUE_LIMIT)
ARM GAS  C:\Users\²Ü¼ÒºÀ\AppData\Local\Temp\ccapTJCk.s 			page 17


 180:C:/Users/²Ü¼ÒºÀ/.iotlink/sdk/IoT_LINK/iot_link/os/liteos/base/ipc\los_queue.c ****     {
 181:C:/Users/²Ü¼ÒºÀ/.iotlink/sdk/IoT_LINK/iot_link/os/liteos/base/ipc\los_queue.c ****         return LOS_ERRNO_QUEUE_INVALID;
 182:C:/Users/²Ü¼ÒºÀ/.iotlink/sdk/IoT_LINK/iot_link/os/liteos/base/ipc\los_queue.c ****     }
 183:C:/Users/²Ü¼ÒºÀ/.iotlink/sdk/IoT_LINK/iot_link/os/liteos/base/ipc\los_queue.c ****     if ((NULL == pBufferAddr) || (NULL == puwBufferSize))
 184:C:/Users/²Ü¼ÒºÀ/.iotlink/sdk/IoT_LINK/iot_link/os/liteos/base/ipc\los_queue.c ****     {
 185:C:/Users/²Ü¼ÒºÀ/.iotlink/sdk/IoT_LINK/iot_link/os/liteos/base/ipc\los_queue.c ****         return LOS_ERRNO_QUEUE_READ_PTR_NULL;
 186:C:/Users/²Ü¼ÒºÀ/.iotlink/sdk/IoT_LINK/iot_link/os/liteos/base/ipc\los_queue.c ****     }
 187:C:/Users/²Ü¼ÒºÀ/.iotlink/sdk/IoT_LINK/iot_link/os/liteos/base/ipc\los_queue.c **** 
 188:C:/Users/²Ü¼ÒºÀ/.iotlink/sdk/IoT_LINK/iot_link/os/liteos/base/ipc\los_queue.c ****     if (0 == *puwBufferSize)
 189:C:/Users/²Ü¼ÒºÀ/.iotlink/sdk/IoT_LINK/iot_link/os/liteos/base/ipc\los_queue.c ****     {
 190:C:/Users/²Ü¼ÒºÀ/.iotlink/sdk/IoT_LINK/iot_link/os/liteos/base/ipc\los_queue.c ****         return LOS_ERRNO_QUEUE_READSIZE_ISZERO;
 191:C:/Users/²Ü¼ÒºÀ/.iotlink/sdk/IoT_LINK/iot_link/os/liteos/base/ipc\los_queue.c ****     }
 192:C:/Users/²Ü¼ÒºÀ/.iotlink/sdk/IoT_LINK/iot_link/os/liteos/base/ipc\los_queue.c **** 
 193:C:/Users/²Ü¼ÒºÀ/.iotlink/sdk/IoT_LINK/iot_link/os/liteos/base/ipc\los_queue.c ****     if (LOS_NO_WAIT != uwTimeOut)
 194:C:/Users/²Ü¼ÒºÀ/.iotlink/sdk/IoT_LINK/iot_link/os/liteos/base/ipc\los_queue.c ****     {
 195:C:/Users/²Ü¼ÒºÀ/.iotlink/sdk/IoT_LINK/iot_link/os/liteos/base/ipc\los_queue.c ****         if (OS_INT_ACTIVE)
 196:C:/Users/²Ü¼ÒºÀ/.iotlink/sdk/IoT_LINK/iot_link/os/liteos/base/ipc\los_queue.c ****         {
 197:C:/Users/²Ü¼ÒºÀ/.iotlink/sdk/IoT_LINK/iot_link/os/liteos/base/ipc\los_queue.c ****             return LOS_ERRNO_QUEUE_READ_IN_INTERRUPT;
 198:C:/Users/²Ü¼ÒºÀ/.iotlink/sdk/IoT_LINK/iot_link/os/liteos/base/ipc\los_queue.c ****         }
 199:C:/Users/²Ü¼ÒºÀ/.iotlink/sdk/IoT_LINK/iot_link/os/liteos/base/ipc\los_queue.c ****     }
 200:C:/Users/²Ü¼ÒºÀ/.iotlink/sdk/IoT_LINK/iot_link/os/liteos/base/ipc\los_queue.c ****     return LOS_OK;
 201:C:/Users/²Ü¼ÒºÀ/.iotlink/sdk/IoT_LINK/iot_link/os/liteos/base/ipc\los_queue.c **** }
 202:C:/Users/²Ü¼ÒºÀ/.iotlink/sdk/IoT_LINK/iot_link/os/liteos/base/ipc\los_queue.c **** 
 203:C:/Users/²Ü¼ÒºÀ/.iotlink/sdk/IoT_LINK/iot_link/os/liteos/base/ipc\los_queue.c **** 
 204:C:/Users/²Ü¼ÒºÀ/.iotlink/sdk/IoT_LINK/iot_link/os/liteos/base/ipc\los_queue.c **** LITE_OS_SEC_TEXT static INLINE UINT32 osQueueWriteParameterCheck(UINT32 uwQueueID, VOID *pBufferAdd
 205:C:/Users/²Ü¼ÒºÀ/.iotlink/sdk/IoT_LINK/iot_link/os/liteos/base/ipc\los_queue.c **** {
 206:C:/Users/²Ü¼ÒºÀ/.iotlink/sdk/IoT_LINK/iot_link/os/liteos/base/ipc\los_queue.c ****     if (uwQueueID >= LOSCFG_BASE_IPC_QUEUE_LIMIT)
 207:C:/Users/²Ü¼ÒºÀ/.iotlink/sdk/IoT_LINK/iot_link/os/liteos/base/ipc\los_queue.c ****     {
 208:C:/Users/²Ü¼ÒºÀ/.iotlink/sdk/IoT_LINK/iot_link/os/liteos/base/ipc\los_queue.c ****         return LOS_ERRNO_QUEUE_INVALID;
 209:C:/Users/²Ü¼ÒºÀ/.iotlink/sdk/IoT_LINK/iot_link/os/liteos/base/ipc\los_queue.c ****     }
 210:C:/Users/²Ü¼ÒºÀ/.iotlink/sdk/IoT_LINK/iot_link/os/liteos/base/ipc\los_queue.c **** 
 211:C:/Users/²Ü¼ÒºÀ/.iotlink/sdk/IoT_LINK/iot_link/os/liteos/base/ipc\los_queue.c ****     if (NULL == pBufferAddr)
 212:C:/Users/²Ü¼ÒºÀ/.iotlink/sdk/IoT_LINK/iot_link/os/liteos/base/ipc\los_queue.c ****     {
 213:C:/Users/²Ü¼ÒºÀ/.iotlink/sdk/IoT_LINK/iot_link/os/liteos/base/ipc\los_queue.c ****         return LOS_ERRNO_QUEUE_WRITE_PTR_NULL;
 214:C:/Users/²Ü¼ÒºÀ/.iotlink/sdk/IoT_LINK/iot_link/os/liteos/base/ipc\los_queue.c ****     }
 215:C:/Users/²Ü¼ÒºÀ/.iotlink/sdk/IoT_LINK/iot_link/os/liteos/base/ipc\los_queue.c **** 
 216:C:/Users/²Ü¼ÒºÀ/.iotlink/sdk/IoT_LINK/iot_link/os/liteos/base/ipc\los_queue.c ****     if (0 == *puwBufferSize)
 217:C:/Users/²Ü¼ÒºÀ/.iotlink/sdk/IoT_LINK/iot_link/os/liteos/base/ipc\los_queue.c ****     {
 218:C:/Users/²Ü¼ÒºÀ/.iotlink/sdk/IoT_LINK/iot_link/os/liteos/base/ipc\los_queue.c ****         return LOS_ERRNO_QUEUE_WRITESIZE_ISZERO;
 219:C:/Users/²Ü¼ÒºÀ/.iotlink/sdk/IoT_LINK/iot_link/os/liteos/base/ipc\los_queue.c ****     }
 220:C:/Users/²Ü¼ÒºÀ/.iotlink/sdk/IoT_LINK/iot_link/os/liteos/base/ipc\los_queue.c **** 
 221:C:/Users/²Ü¼ÒºÀ/.iotlink/sdk/IoT_LINK/iot_link/os/liteos/base/ipc\los_queue.c ****     if (LOS_NO_WAIT != uwTimeOut)
 222:C:/Users/²Ü¼ÒºÀ/.iotlink/sdk/IoT_LINK/iot_link/os/liteos/base/ipc\los_queue.c ****     {
 223:C:/Users/²Ü¼ÒºÀ/.iotlink/sdk/IoT_LINK/iot_link/os/liteos/base/ipc\los_queue.c ****         if (OS_INT_ACTIVE)
 224:C:/Users/²Ü¼ÒºÀ/.iotlink/sdk/IoT_LINK/iot_link/os/liteos/base/ipc\los_queue.c ****         {
 225:C:/Users/²Ü¼ÒºÀ/.iotlink/sdk/IoT_LINK/iot_link/os/liteos/base/ipc\los_queue.c ****             return LOS_ERRNO_QUEUE_WRITE_IN_INTERRUPT;
 226:C:/Users/²Ü¼ÒºÀ/.iotlink/sdk/IoT_LINK/iot_link/os/liteos/base/ipc\los_queue.c ****         }
 227:C:/Users/²Ü¼ÒºÀ/.iotlink/sdk/IoT_LINK/iot_link/os/liteos/base/ipc\los_queue.c ****     }
 228:C:/Users/²Ü¼ÒºÀ/.iotlink/sdk/IoT_LINK/iot_link/os/liteos/base/ipc\los_queue.c ****     return LOS_OK;
 229:C:/Users/²Ü¼ÒºÀ/.iotlink/sdk/IoT_LINK/iot_link/os/liteos/base/ipc\los_queue.c **** }
 230:C:/Users/²Ü¼ÒºÀ/.iotlink/sdk/IoT_LINK/iot_link/os/liteos/base/ipc\los_queue.c **** 
 231:C:/Users/²Ü¼ÒºÀ/.iotlink/sdk/IoT_LINK/iot_link/os/liteos/base/ipc\los_queue.c **** LITE_OS_SEC_TEXT static INLINE VOID osQueueBufferOperate(QUEUE_CB_S *pstQueueCB, UINT32 uwOperateTy
 232:C:/Users/²Ü¼ÒºÀ/.iotlink/sdk/IoT_LINK/iot_link/os/liteos/base/ipc\los_queue.c **** {
 233:C:/Users/²Ü¼ÒºÀ/.iotlink/sdk/IoT_LINK/iot_link/os/liteos/base/ipc\los_queue.c ****     UINT8        *pucQueueNode;
 234:C:/Users/²Ü¼ÒºÀ/.iotlink/sdk/IoT_LINK/iot_link/os/liteos/base/ipc\los_queue.c ****     UINT32       uwMsgDataSize = 0;
 235:C:/Users/²Ü¼ÒºÀ/.iotlink/sdk/IoT_LINK/iot_link/os/liteos/base/ipc\los_queue.c ****     UINT16      usQueuePosion = 0;
 236:C:/Users/²Ü¼ÒºÀ/.iotlink/sdk/IoT_LINK/iot_link/os/liteos/base/ipc\los_queue.c **** 
ARM GAS  C:\Users\²Ü¼ÒºÀ\AppData\Local\Temp\ccapTJCk.s 			page 18


 237:C:/Users/²Ü¼ÒºÀ/.iotlink/sdk/IoT_LINK/iot_link/os/liteos/base/ipc\los_queue.c ****     /* get the queue position */
 238:C:/Users/²Ü¼ÒºÀ/.iotlink/sdk/IoT_LINK/iot_link/os/liteos/base/ipc\los_queue.c ****     switch (OS_QUEUE_OPERATE_GET(uwOperateType))
 239:C:/Users/²Ü¼ÒºÀ/.iotlink/sdk/IoT_LINK/iot_link/os/liteos/base/ipc\los_queue.c ****     {
 240:C:/Users/²Ü¼ÒºÀ/.iotlink/sdk/IoT_LINK/iot_link/os/liteos/base/ipc\los_queue.c ****         case OS_QUEUE_READ_HEAD:
 241:C:/Users/²Ü¼ÒºÀ/.iotlink/sdk/IoT_LINK/iot_link/os/liteos/base/ipc\los_queue.c ****             usQueuePosion = pstQueueCB->usQueueHead;
 242:C:/Users/²Ü¼ÒºÀ/.iotlink/sdk/IoT_LINK/iot_link/os/liteos/base/ipc\los_queue.c ****             (pstQueueCB->usQueueHead + 1 == pstQueueCB->usQueueLen) ? (pstQueueCB->usQueueHead = 0)
 243:C:/Users/²Ü¼ÒºÀ/.iotlink/sdk/IoT_LINK/iot_link/os/liteos/base/ipc\los_queue.c ****             break;
 244:C:/Users/²Ü¼ÒºÀ/.iotlink/sdk/IoT_LINK/iot_link/os/liteos/base/ipc\los_queue.c **** 
 245:C:/Users/²Ü¼ÒºÀ/.iotlink/sdk/IoT_LINK/iot_link/os/liteos/base/ipc\los_queue.c ****         case OS_QUEUE_WRITE_HEAD:
 246:C:/Users/²Ü¼ÒºÀ/.iotlink/sdk/IoT_LINK/iot_link/os/liteos/base/ipc\los_queue.c ****             (0 == pstQueueCB->usQueueHead) ? (pstQueueCB->usQueueHead = pstQueueCB->usQueueLen - 1)
 247:C:/Users/²Ü¼ÒºÀ/.iotlink/sdk/IoT_LINK/iot_link/os/liteos/base/ipc\los_queue.c ****             usQueuePosion = pstQueueCB->usQueueHead;
 248:C:/Users/²Ü¼ÒºÀ/.iotlink/sdk/IoT_LINK/iot_link/os/liteos/base/ipc\los_queue.c ****             break;
 249:C:/Users/²Ü¼ÒºÀ/.iotlink/sdk/IoT_LINK/iot_link/os/liteos/base/ipc\los_queue.c **** 
 250:C:/Users/²Ü¼ÒºÀ/.iotlink/sdk/IoT_LINK/iot_link/os/liteos/base/ipc\los_queue.c ****         case OS_QUEUE_WRITE_TAIL :
 251:C:/Users/²Ü¼ÒºÀ/.iotlink/sdk/IoT_LINK/iot_link/os/liteos/base/ipc\los_queue.c ****             usQueuePosion = pstQueueCB->usQueueTail;
 252:C:/Users/²Ü¼ÒºÀ/.iotlink/sdk/IoT_LINK/iot_link/os/liteos/base/ipc\los_queue.c ****             (pstQueueCB->usQueueTail + 1 == pstQueueCB->usQueueLen) ? (pstQueueCB->usQueueTail = 0)
 253:C:/Users/²Ü¼ÒºÀ/.iotlink/sdk/IoT_LINK/iot_link/os/liteos/base/ipc\los_queue.c ****             break;
 254:C:/Users/²Ü¼ÒºÀ/.iotlink/sdk/IoT_LINK/iot_link/os/liteos/base/ipc\los_queue.c **** 
 255:C:/Users/²Ü¼ÒºÀ/.iotlink/sdk/IoT_LINK/iot_link/os/liteos/base/ipc\los_queue.c ****         default: //read tail , reserved.
 256:C:/Users/²Ü¼ÒºÀ/.iotlink/sdk/IoT_LINK/iot_link/os/liteos/base/ipc\los_queue.c ****             PRINT_ERR("invalid queue operate type!\n");
 257:C:/Users/²Ü¼ÒºÀ/.iotlink/sdk/IoT_LINK/iot_link/os/liteos/base/ipc\los_queue.c ****             return;
 258:C:/Users/²Ü¼ÒºÀ/.iotlink/sdk/IoT_LINK/iot_link/os/liteos/base/ipc\los_queue.c ****     }
 259:C:/Users/²Ü¼ÒºÀ/.iotlink/sdk/IoT_LINK/iot_link/os/liteos/base/ipc\los_queue.c **** 
 260:C:/Users/²Ü¼ÒºÀ/.iotlink/sdk/IoT_LINK/iot_link/os/liteos/base/ipc\los_queue.c ****     pucQueueNode = &(pstQueueCB->pucQueue[(usQueuePosion * (pstQueueCB->usQueueSize))]);
 261:C:/Users/²Ü¼ÒºÀ/.iotlink/sdk/IoT_LINK/iot_link/os/liteos/base/ipc\los_queue.c **** 
 262:C:/Users/²Ü¼ÒºÀ/.iotlink/sdk/IoT_LINK/iot_link/os/liteos/base/ipc\los_queue.c ****     if(OS_QUEUE_IS_POINT(uwOperateType))
 263:C:/Users/²Ü¼ÒºÀ/.iotlink/sdk/IoT_LINK/iot_link/os/liteos/base/ipc\los_queue.c ****     {
 264:C:/Users/²Ü¼ÒºÀ/.iotlink/sdk/IoT_LINK/iot_link/os/liteos/base/ipc\los_queue.c ****         if(OS_QUEUE_IS_READ(uwOperateType))
 265:C:/Users/²Ü¼ÒºÀ/.iotlink/sdk/IoT_LINK/iot_link/os/liteos/base/ipc\los_queue.c ****         {
 266:C:/Users/²Ü¼ÒºÀ/.iotlink/sdk/IoT_LINK/iot_link/os/liteos/base/ipc\los_queue.c ****             *(UINT32 *)pBufferAddr = *(UINT32 *)pucQueueNode;
 267:C:/Users/²Ü¼ÒºÀ/.iotlink/sdk/IoT_LINK/iot_link/os/liteos/base/ipc\los_queue.c ****         }
 268:C:/Users/²Ü¼ÒºÀ/.iotlink/sdk/IoT_LINK/iot_link/os/liteos/base/ipc\los_queue.c ****         else
 269:C:/Users/²Ü¼ÒºÀ/.iotlink/sdk/IoT_LINK/iot_link/os/liteos/base/ipc\los_queue.c ****         {
 270:C:/Users/²Ü¼ÒºÀ/.iotlink/sdk/IoT_LINK/iot_link/os/liteos/base/ipc\los_queue.c ****             *(UINT32 *)pucQueueNode = *(UINT32 *)pBufferAddr;//change to pp when calling osQueueOpe
 271:C:/Users/²Ü¼ÒºÀ/.iotlink/sdk/IoT_LINK/iot_link/os/liteos/base/ipc\los_queue.c ****         }
 272:C:/Users/²Ü¼ÒºÀ/.iotlink/sdk/IoT_LINK/iot_link/os/liteos/base/ipc\los_queue.c ****     }
 273:C:/Users/²Ü¼ÒºÀ/.iotlink/sdk/IoT_LINK/iot_link/os/liteos/base/ipc\los_queue.c ****     else
 274:C:/Users/²Ü¼ÒºÀ/.iotlink/sdk/IoT_LINK/iot_link/os/liteos/base/ipc\los_queue.c ****     {
 275:C:/Users/²Ü¼ÒºÀ/.iotlink/sdk/IoT_LINK/iot_link/os/liteos/base/ipc\los_queue.c ****         if(OS_QUEUE_IS_READ(uwOperateType))
 276:C:/Users/²Ü¼ÒºÀ/.iotlink/sdk/IoT_LINK/iot_link/os/liteos/base/ipc\los_queue.c ****         {
 277:C:/Users/²Ü¼ÒºÀ/.iotlink/sdk/IoT_LINK/iot_link/os/liteos/base/ipc\los_queue.c ****             memcpy((VOID *)&uwMsgDataSize, (VOID *)(pucQueueNode + pstQueueCB->usQueueSize - sizeof
 278:C:/Users/²Ü¼ÒºÀ/.iotlink/sdk/IoT_LINK/iot_link/os/liteos/base/ipc\los_queue.c ****             memcpy((VOID *)pBufferAddr, (VOID *)pucQueueNode, uwMsgDataSize);
 279:C:/Users/²Ü¼ÒºÀ/.iotlink/sdk/IoT_LINK/iot_link/os/liteos/base/ipc\los_queue.c ****             *puwBufferSize = uwMsgDataSize;
 280:C:/Users/²Ü¼ÒºÀ/.iotlink/sdk/IoT_LINK/iot_link/os/liteos/base/ipc\los_queue.c ****         }
 281:C:/Users/²Ü¼ÒºÀ/.iotlink/sdk/IoT_LINK/iot_link/os/liteos/base/ipc\los_queue.c ****         else
 282:C:/Users/²Ü¼ÒºÀ/.iotlink/sdk/IoT_LINK/iot_link/os/liteos/base/ipc\los_queue.c ****         {
 283:C:/Users/²Ü¼ÒºÀ/.iotlink/sdk/IoT_LINK/iot_link/os/liteos/base/ipc\los_queue.c ****             memcpy((VOID *)pucQueueNode, (VOID *)pBufferAddr, *puwBufferSize);
 284:C:/Users/²Ü¼ÒºÀ/.iotlink/sdk/IoT_LINK/iot_link/os/liteos/base/ipc\los_queue.c ****             memcpy((VOID *)(pucQueueNode + pstQueueCB->usQueueSize - sizeof(UINT32)), puwBufferSize
 285:C:/Users/²Ü¼ÒºÀ/.iotlink/sdk/IoT_LINK/iot_link/os/liteos/base/ipc\los_queue.c ****         }
 286:C:/Users/²Ü¼ÒºÀ/.iotlink/sdk/IoT_LINK/iot_link/os/liteos/base/ipc\los_queue.c ****     }
 287:C:/Users/²Ü¼ÒºÀ/.iotlink/sdk/IoT_LINK/iot_link/os/liteos/base/ipc\los_queue.c **** }
 288:C:/Users/²Ü¼ÒºÀ/.iotlink/sdk/IoT_LINK/iot_link/os/liteos/base/ipc\los_queue.c **** 
 289:C:/Users/²Ü¼ÒºÀ/.iotlink/sdk/IoT_LINK/iot_link/os/liteos/base/ipc\los_queue.c **** 
 290:C:/Users/²Ü¼ÒºÀ/.iotlink/sdk/IoT_LINK/iot_link/os/liteos/base/ipc\los_queue.c **** LITE_OS_SEC_TEXT UINT32 osQueueOperate(UINT32 uwQueueID, UINT32 uwOperateType, VOID *pBufferAddr, U
 291:C:/Users/²Ü¼ÒºÀ/.iotlink/sdk/IoT_LINK/iot_link/os/liteos/base/ipc\los_queue.c **** {
 441              		.loc 1 291 1 is_stmt 1 view -0
 442              		.cfi_startproc
ARM GAS  C:\Users\²Ü¼ÒºÀ\AppData\Local\Temp\ccapTJCk.s 			page 19


 443              		@ args = 4, pretend = 0, frame = 8
 444              		@ frame_needed = 0, uses_anonymous_args = 0
 292:C:/Users/²Ü¼ÒºÀ/.iotlink/sdk/IoT_LINK/iot_link/os/liteos/base/ipc\los_queue.c ****     QUEUE_CB_S *pstQueueCB;
 445              		.loc 1 292 5 view .LVU148
 293:C:/Users/²Ü¼ÒºÀ/.iotlink/sdk/IoT_LINK/iot_link/os/liteos/base/ipc\los_queue.c ****     LOS_TASK_CB  *pstRunTsk;
 446              		.loc 1 293 5 view .LVU149
 294:C:/Users/²Ü¼ÒºÀ/.iotlink/sdk/IoT_LINK/iot_link/os/liteos/base/ipc\los_queue.c ****     UINTPTR      uvIntSave;
 447              		.loc 1 294 5 view .LVU150
 295:C:/Users/²Ü¼ÒºÀ/.iotlink/sdk/IoT_LINK/iot_link/os/liteos/base/ipc\los_queue.c ****     LOS_TASK_CB  *pstResumedTask;
 448              		.loc 1 295 5 view .LVU151
 296:C:/Users/²Ü¼ÒºÀ/.iotlink/sdk/IoT_LINK/iot_link/os/liteos/base/ipc\los_queue.c ****     UINT32       uwRet = LOS_OK;
 449              		.loc 1 296 5 view .LVU152
 297:C:/Users/²Ü¼ÒºÀ/.iotlink/sdk/IoT_LINK/iot_link/os/liteos/base/ipc\los_queue.c ****     UINT32       uwReadWrite = OS_QUEUE_READ_WRITE_GET(uwOperateType);
 450              		.loc 1 297 5 view .LVU153
 291:C:/Users/²Ü¼ÒºÀ/.iotlink/sdk/IoT_LINK/iot_link/os/liteos/base/ipc\los_queue.c ****     QUEUE_CB_S *pstQueueCB;
 451              		.loc 1 291 1 is_stmt 0 view .LVU154
 452 0000 2DE9F74F 		push	{r0, r1, r2, r4, r5, r6, r7, r8, r9, r10, fp, lr}
 453              	.LCFI2:
 454              		.cfi_def_cfa_offset 48
 455              		.cfi_offset 4, -36
 456              		.cfi_offset 5, -32
 457              		.cfi_offset 6, -28
 458              		.cfi_offset 7, -24
 459              		.cfi_offset 8, -20
 460              		.cfi_offset 9, -16
 461              		.cfi_offset 10, -12
 462              		.cfi_offset 11, -8
 463              		.cfi_offset 14, -4
 291:C:/Users/²Ü¼ÒºÀ/.iotlink/sdk/IoT_LINK/iot_link/os/liteos/base/ipc\los_queue.c ****     QUEUE_CB_S *pstQueueCB;
 464              		.loc 1 291 1 view .LVU155
 465 0004 8346     		mov	fp, r0
 466 0006 8A46     		mov	r10, r1
 467              	.LVL35:
 298:C:/Users/²Ü¼ÒºÀ/.iotlink/sdk/IoT_LINK/iot_link/os/liteos/base/ipc\los_queue.c **** 
 299:C:/Users/²Ü¼ÒºÀ/.iotlink/sdk/IoT_LINK/iot_link/os/liteos/base/ipc\los_queue.c ****     uvIntSave = LOS_IntLock();
 468              		.loc 1 299 5 is_stmt 1 view .LVU156
 291:C:/Users/²Ü¼ÒºÀ/.iotlink/sdk/IoT_LINK/iot_link/os/liteos/base/ipc\los_queue.c ****     QUEUE_CB_S *pstQueueCB;
 469              		.loc 1 291 1 is_stmt 0 view .LVU157
 470 0008 9846     		mov	r8, r3
 471 000a 9146     		mov	r9, r2
 472              		.loc 1 299 17 view .LVU158
 473 000c FFF7FEFF 		bl	LOS_IntLock
 474              	.LVL36:
 300:C:/Users/²Ü¼ÒºÀ/.iotlink/sdk/IoT_LINK/iot_link/os/liteos/base/ipc\los_queue.c **** 
 301:C:/Users/²Ü¼ÒºÀ/.iotlink/sdk/IoT_LINK/iot_link/os/liteos/base/ipc\los_queue.c ****     pstQueueCB = (QUEUE_CB_S *)GET_QUEUE_HANDLE(uwQueueID);
 475              		.loc 1 301 16 view .LVU159
 476 0010 614B     		ldr	r3, .L47
 299:C:/Users/²Ü¼ÒºÀ/.iotlink/sdk/IoT_LINK/iot_link/os/liteos/base/ipc\los_queue.c **** 
 477              		.loc 1 299 17 view .LVU160
 478 0012 0746     		mov	r7, r0
 479              	.LVL37:
 480              		.loc 1 301 5 is_stmt 1 view .LVU161
 481              		.loc 1 301 16 is_stmt 0 view .LVU162
 482 0014 1B68     		ldr	r3, [r3]
 483              		.loc 1 301 32 view .LVU163
 484 0016 2C20     		movs	r0, #44
 485              	.LVL38:
ARM GAS  C:\Users\²Ü¼ÒºÀ\AppData\Local\Temp\ccapTJCk.s 			page 20


 486              		.loc 1 301 32 view .LVU164
 487 0018 00FB0BFB 		mul	fp, r0, fp
 488              	.LVL39:
 489              		.loc 1 301 16 view .LVU165
 490 001c 03EB0B04 		add	r4, r3, fp
 491              	.LVL40:
 302:C:/Users/²Ü¼ÒºÀ/.iotlink/sdk/IoT_LINK/iot_link/os/liteos/base/ipc\los_queue.c ****     if (OS_QUEUE_UNUSED == pstQueueCB->usQueueState)
 492              		.loc 1 302 5 is_stmt 1 view .LVU166
 493              		.loc 1 302 8 is_stmt 0 view .LVU167
 494 0020 A188     		ldrh	r1, [r4, #4]
 495 0022 0029     		cmp	r1, #0
 496 0024 00F0B280 		beq	.L39
 303:C:/Users/²Ü¼ÒºÀ/.iotlink/sdk/IoT_LINK/iot_link/os/liteos/base/ipc\los_queue.c ****     {
 304:C:/Users/²Ü¼ÒºÀ/.iotlink/sdk/IoT_LINK/iot_link/os/liteos/base/ipc\los_queue.c ****         uwRet = LOS_ERRNO_QUEUE_NOT_CREATE;
 305:C:/Users/²Ü¼ÒºÀ/.iotlink/sdk/IoT_LINK/iot_link/os/liteos/base/ipc\los_queue.c ****         goto QUEUE_END;
 306:C:/Users/²Ü¼ÒºÀ/.iotlink/sdk/IoT_LINK/iot_link/os/liteos/base/ipc\los_queue.c **** 
 307:C:/Users/²Ü¼ÒºÀ/.iotlink/sdk/IoT_LINK/iot_link/os/liteos/base/ipc\los_queue.c ****     }
 308:C:/Users/²Ü¼ÒºÀ/.iotlink/sdk/IoT_LINK/iot_link/os/liteos/base/ipc\los_queue.c **** 
 309:C:/Users/²Ü¼ÒºÀ/.iotlink/sdk/IoT_LINK/iot_link/os/liteos/base/ipc\los_queue.c ****     if(OS_QUEUE_IS_READ(uwOperateType) && (*puwBufferSize < pstQueueCB->usQueueSize - sizeof(UINT32
 497              		.loc 1 309 5 is_stmt 1 view .LVU168
 498 0028 2189     		ldrh	r1, [r4, #8]
 499 002a D8F80000 		ldr	r0, [r8]
 500              		.loc 1 309 7 is_stmt 0 view .LVU169
 501 002e 0C9A     		ldr	r2, [sp, #48]
 502 0030 1AF00106 		ands	r6, r10, #1
 503              	.LVL41:
 504              		.loc 1 309 7 view .LVU170
 505 0034 A1F10401 		sub	r1, r1, #4
 506 0038 03D1     		bne	.L20
 507              		.loc 1 309 40 discriminator 1 view .LVU171
 508 003a 8142     		cmp	r1, r0
 509 003c 04D9     		bls	.L21
 310:C:/Users/²Ü¼ÒºÀ/.iotlink/sdk/IoT_LINK/iot_link/os/liteos/base/ipc\los_queue.c ****     {
 311:C:/Users/²Ü¼ÒºÀ/.iotlink/sdk/IoT_LINK/iot_link/os/liteos/base/ipc\los_queue.c ****         uwRet = LOS_ERRNO_QUEUE_READ_SIZE_TOO_SMALL;
 510              		.loc 1 311 15 view .LVU172
 511 003e 574E     		ldr	r6, .L47+4
 512              	.LVL42:
 513              		.loc 1 311 15 view .LVU173
 514 0040 0DE0     		b	.L19
 515              	.LVL43:
 516              	.L20:
 312:C:/Users/²Ü¼ÒºÀ/.iotlink/sdk/IoT_LINK/iot_link/os/liteos/base/ipc\los_queue.c ****         goto QUEUE_END;
 313:C:/Users/²Ü¼ÒºÀ/.iotlink/sdk/IoT_LINK/iot_link/os/liteos/base/ipc\los_queue.c ****     }
 314:C:/Users/²Ü¼ÒºÀ/.iotlink/sdk/IoT_LINK/iot_link/os/liteos/base/ipc\los_queue.c ****     else if(OS_QUEUE_IS_WRITE(uwOperateType) && (*puwBufferSize > pstQueueCB->usQueueSize - sizeof(
 517              		.loc 1 314 10 is_stmt 1 discriminator 1 view .LVU174
 518              		.loc 1 314 46 is_stmt 0 discriminator 1 view .LVU175
 519 0042 8142     		cmp	r1, r0
 520 0044 C0F0A480 		bcc	.L41
 521              	.L21:
 315:C:/Users/²Ü¼ÒºÀ/.iotlink/sdk/IoT_LINK/iot_link/os/liteos/base/ipc\los_queue.c ****     {
 316:C:/Users/²Ü¼ÒºÀ/.iotlink/sdk/IoT_LINK/iot_link/os/liteos/base/ipc\los_queue.c ****         uwRet = LOS_ERRNO_QUEUE_WRITE_SIZE_TOO_BIG;
 317:C:/Users/²Ü¼ÒºÀ/.iotlink/sdk/IoT_LINK/iot_link/os/liteos/base/ipc\los_queue.c ****         goto QUEUE_END;
 318:C:/Users/²Ü¼ÒºÀ/.iotlink/sdk/IoT_LINK/iot_link/os/liteos/base/ipc\los_queue.c ****     }
 319:C:/Users/²Ü¼ÒºÀ/.iotlink/sdk/IoT_LINK/iot_link/os/liteos/base/ipc\los_queue.c **** 
 320:C:/Users/²Ü¼ÒºÀ/.iotlink/sdk/IoT_LINK/iot_link/os/liteos/base/ipc\los_queue.c ****     if (0 == pstQueueCB->usReadWriteableCnt[uwReadWrite])
 522              		.loc 1 320 5 is_stmt 1 view .LVU176
 523 0048 04EB4600 		add	r0, r4, r6, lsl #1
ARM GAS  C:\Users\²Ü¼ÒºÀ\AppData\Local\Temp\ccapTJCk.s 			page 21


 524              		.loc 1 320 44 is_stmt 0 view .LVU177
 525 004c 018A     		ldrh	r1, [r0, #16]
 526              		.loc 1 320 8 view .LVU178
 527 004e 61BB     		cbnz	r1, .L22
 321:C:/Users/²Ü¼ÒºÀ/.iotlink/sdk/IoT_LINK/iot_link/os/liteos/base/ipc\los_queue.c ****     {
 322:C:/Users/²Ü¼ÒºÀ/.iotlink/sdk/IoT_LINK/iot_link/os/liteos/base/ipc\los_queue.c ****         if (LOS_NO_WAIT == uwTimeOut)
 528              		.loc 1 322 9 is_stmt 1 view .LVU179
 529              		.loc 1 322 12 is_stmt 0 view .LVU180
 530 0050 4AB9     		cbnz	r2, .L23
 323:C:/Users/²Ü¼ÒºÀ/.iotlink/sdk/IoT_LINK/iot_link/os/liteos/base/ipc\los_queue.c ****         {
 324:C:/Users/²Ü¼ÒºÀ/.iotlink/sdk/IoT_LINK/iot_link/os/liteos/base/ipc\los_queue.c ****             uwRet = OS_QUEUE_IS_READ(uwOperateType) ? LOS_ERRNO_QUEUE_ISEMPTY : LOS_ERRNO_QUEUE_ISF
 531              		.loc 1 324 13 is_stmt 1 view .LVU181
 532              		.loc 1 324 79 is_stmt 0 view .LVU182
 533 0052 534C     		ldr	r4, .L47+8
 534              	.LVL44:
 535              		.loc 1 324 79 view .LVU183
 536 0054 534B     		ldr	r3, .L47+12
 537              	.LVL45:
 538              		.loc 1 324 79 view .LVU184
 539 0056 002E     		cmp	r6, #0
 540 0058 0CBF     		ite	eq
 541 005a 2646     		moveq	r6, r4
 542 005c 1E46     		movne	r6, r3
 543              	.LVL46:
 544              	.L19:
 325:C:/Users/²Ü¼ÒºÀ/.iotlink/sdk/IoT_LINK/iot_link/os/liteos/base/ipc\los_queue.c ****             goto QUEUE_END;
 326:C:/Users/²Ü¼ÒºÀ/.iotlink/sdk/IoT_LINK/iot_link/os/liteos/base/ipc\los_queue.c ****         }
 327:C:/Users/²Ü¼ÒºÀ/.iotlink/sdk/IoT_LINK/iot_link/os/liteos/base/ipc\los_queue.c **** 
 328:C:/Users/²Ü¼ÒºÀ/.iotlink/sdk/IoT_LINK/iot_link/os/liteos/base/ipc\los_queue.c ****         if (g_usLosTaskLock)
 329:C:/Users/²Ü¼ÒºÀ/.iotlink/sdk/IoT_LINK/iot_link/os/liteos/base/ipc\los_queue.c ****         {
 330:C:/Users/²Ü¼ÒºÀ/.iotlink/sdk/IoT_LINK/iot_link/os/liteos/base/ipc\los_queue.c ****             uwRet = LOS_ERRNO_QUEUE_PEND_IN_LOCK;
 331:C:/Users/²Ü¼ÒºÀ/.iotlink/sdk/IoT_LINK/iot_link/os/liteos/base/ipc\los_queue.c ****             goto QUEUE_END;
 332:C:/Users/²Ü¼ÒºÀ/.iotlink/sdk/IoT_LINK/iot_link/os/liteos/base/ipc\los_queue.c ****         }
 333:C:/Users/²Ü¼ÒºÀ/.iotlink/sdk/IoT_LINK/iot_link/os/liteos/base/ipc\los_queue.c **** 
 334:C:/Users/²Ü¼ÒºÀ/.iotlink/sdk/IoT_LINK/iot_link/os/liteos/base/ipc\los_queue.c ****         pstRunTsk = (LOS_TASK_CB *)g_stLosTask.pstRunTask;
 335:C:/Users/²Ü¼ÒºÀ/.iotlink/sdk/IoT_LINK/iot_link/os/liteos/base/ipc\los_queue.c ****         osTaskWait(&pstQueueCB->stReadWriteList[uwReadWrite], OS_TASK_STATUS_PEND_QUEUE, uwTimeOut)
 336:C:/Users/²Ü¼ÒºÀ/.iotlink/sdk/IoT_LINK/iot_link/os/liteos/base/ipc\los_queue.c ****         LOS_IntRestore(uvIntSave);
 337:C:/Users/²Ü¼ÒºÀ/.iotlink/sdk/IoT_LINK/iot_link/os/liteos/base/ipc\los_queue.c ****         LOS_Schedule();
 338:C:/Users/²Ü¼ÒºÀ/.iotlink/sdk/IoT_LINK/iot_link/os/liteos/base/ipc\los_queue.c **** 
 339:C:/Users/²Ü¼ÒºÀ/.iotlink/sdk/IoT_LINK/iot_link/os/liteos/base/ipc\los_queue.c ****         uvIntSave = LOS_IntLock();
 340:C:/Users/²Ü¼ÒºÀ/.iotlink/sdk/IoT_LINK/iot_link/os/liteos/base/ipc\los_queue.c **** 
 341:C:/Users/²Ü¼ÒºÀ/.iotlink/sdk/IoT_LINK/iot_link/os/liteos/base/ipc\los_queue.c ****         if (pstRunTsk->usTaskStatus & OS_TASK_STATUS_TIMEOUT)
 342:C:/Users/²Ü¼ÒºÀ/.iotlink/sdk/IoT_LINK/iot_link/os/liteos/base/ipc\los_queue.c ****         {
 343:C:/Users/²Ü¼ÒºÀ/.iotlink/sdk/IoT_LINK/iot_link/os/liteos/base/ipc\los_queue.c ****             pstRunTsk->usTaskStatus &= (~OS_TASK_STATUS_TIMEOUT);
 344:C:/Users/²Ü¼ÒºÀ/.iotlink/sdk/IoT_LINK/iot_link/os/liteos/base/ipc\los_queue.c ****             uwRet = LOS_ERRNO_QUEUE_TIMEOUT;
 345:C:/Users/²Ü¼ÒºÀ/.iotlink/sdk/IoT_LINK/iot_link/os/liteos/base/ipc\los_queue.c ****             goto QUEUE_END;
 346:C:/Users/²Ü¼ÒºÀ/.iotlink/sdk/IoT_LINK/iot_link/os/liteos/base/ipc\los_queue.c ****         }
 347:C:/Users/²Ü¼ÒºÀ/.iotlink/sdk/IoT_LINK/iot_link/os/liteos/base/ipc\los_queue.c ****     }
 348:C:/Users/²Ü¼ÒºÀ/.iotlink/sdk/IoT_LINK/iot_link/os/liteos/base/ipc\los_queue.c ****     else
 349:C:/Users/²Ü¼ÒºÀ/.iotlink/sdk/IoT_LINK/iot_link/os/liteos/base/ipc\los_queue.c ****     {
 350:C:/Users/²Ü¼ÒºÀ/.iotlink/sdk/IoT_LINK/iot_link/os/liteos/base/ipc\los_queue.c ****         pstQueueCB->usReadWriteableCnt[uwReadWrite]--;
 351:C:/Users/²Ü¼ÒºÀ/.iotlink/sdk/IoT_LINK/iot_link/os/liteos/base/ipc\los_queue.c ****     }
 352:C:/Users/²Ü¼ÒºÀ/.iotlink/sdk/IoT_LINK/iot_link/os/liteos/base/ipc\los_queue.c **** 
 353:C:/Users/²Ü¼ÒºÀ/.iotlink/sdk/IoT_LINK/iot_link/os/liteos/base/ipc\los_queue.c ****     osQueueBufferOperate(pstQueueCB, uwOperateType, pBufferAddr, puwBufferSize);
 354:C:/Users/²Ü¼ÒºÀ/.iotlink/sdk/IoT_LINK/iot_link/os/liteos/base/ipc\los_queue.c **** 
 355:C:/Users/²Ü¼ÒºÀ/.iotlink/sdk/IoT_LINK/iot_link/os/liteos/base/ipc\los_queue.c ****     if (!LOS_ListEmpty(&pstQueueCB->stReadWriteList[!uwReadWrite])) /*lint !e514*/
 356:C:/Users/²Ü¼ÒºÀ/.iotlink/sdk/IoT_LINK/iot_link/os/liteos/base/ipc\los_queue.c ****     {
ARM GAS  C:\Users\²Ü¼ÒºÀ\AppData\Local\Temp\ccapTJCk.s 			page 22


 357:C:/Users/²Ü¼ÒºÀ/.iotlink/sdk/IoT_LINK/iot_link/os/liteos/base/ipc\los_queue.c ****         pstResumedTask = OS_TCB_FROM_PENDLIST(LOS_DL_LIST_FIRST(&pstQueueCB->stReadWriteList[!uwRea
 358:C:/Users/²Ü¼ÒºÀ/.iotlink/sdk/IoT_LINK/iot_link/os/liteos/base/ipc\los_queue.c ****         osTaskWake(pstResumedTask, OS_TASK_STATUS_PEND_QUEUE);
 359:C:/Users/²Ü¼ÒºÀ/.iotlink/sdk/IoT_LINK/iot_link/os/liteos/base/ipc\los_queue.c ****         LOS_IntRestore(uvIntSave);
 360:C:/Users/²Ü¼ÒºÀ/.iotlink/sdk/IoT_LINK/iot_link/os/liteos/base/ipc\los_queue.c ****         LOS_Schedule();
 361:C:/Users/²Ü¼ÒºÀ/.iotlink/sdk/IoT_LINK/iot_link/os/liteos/base/ipc\los_queue.c ****         return LOS_OK;
 362:C:/Users/²Ü¼ÒºÀ/.iotlink/sdk/IoT_LINK/iot_link/os/liteos/base/ipc\los_queue.c ****     }
 363:C:/Users/²Ü¼ÒºÀ/.iotlink/sdk/IoT_LINK/iot_link/os/liteos/base/ipc\los_queue.c ****     else
 364:C:/Users/²Ü¼ÒºÀ/.iotlink/sdk/IoT_LINK/iot_link/os/liteos/base/ipc\los_queue.c ****     {
 365:C:/Users/²Ü¼ÒºÀ/.iotlink/sdk/IoT_LINK/iot_link/os/liteos/base/ipc\los_queue.c ****         pstQueueCB->usReadWriteableCnt[!uwReadWrite]++; /*lint !e514*/
 366:C:/Users/²Ü¼ÒºÀ/.iotlink/sdk/IoT_LINK/iot_link/os/liteos/base/ipc\los_queue.c ****     }
 367:C:/Users/²Ü¼ÒºÀ/.iotlink/sdk/IoT_LINK/iot_link/os/liteos/base/ipc\los_queue.c **** 
 368:C:/Users/²Ü¼ÒºÀ/.iotlink/sdk/IoT_LINK/iot_link/os/liteos/base/ipc\los_queue.c **** QUEUE_END:
 369:C:/Users/²Ü¼ÒºÀ/.iotlink/sdk/IoT_LINK/iot_link/os/liteos/base/ipc\los_queue.c ****     LOS_IntRestore(uvIntSave);
 545              		.loc 1 369 5 is_stmt 1 view .LVU185
 546 005e 3846     		mov	r0, r7
 547 0060 FFF7FEFF 		bl	LOS_IntRestore
 548              	.LVL47:
 370:C:/Users/²Ü¼ÒºÀ/.iotlink/sdk/IoT_LINK/iot_link/os/liteos/base/ipc\los_queue.c ****     return uwRet;
 549              		.loc 1 370 5 view .LVU186
 550              		.loc 1 370 12 is_stmt 0 view .LVU187
 551 0064 69E0     		b	.L18
 552              	.LVL48:
 553              	.L23:
 328:C:/Users/²Ü¼ÒºÀ/.iotlink/sdk/IoT_LINK/iot_link/os/liteos/base/ipc\los_queue.c ****         {
 554              		.loc 1 328 13 view .LVU188
 555 0066 5049     		ldr	r1, .L47+16
 556 0068 0193     		str	r3, [sp, #4]
 328:C:/Users/²Ü¼ÒºÀ/.iotlink/sdk/IoT_LINK/iot_link/os/liteos/base/ipc\los_queue.c ****         {
 557              		.loc 1 328 9 is_stmt 1 view .LVU189
 328:C:/Users/²Ü¼ÒºÀ/.iotlink/sdk/IoT_LINK/iot_link/os/liteos/base/ipc\los_queue.c ****         {
 558              		.loc 1 328 12 is_stmt 0 view .LVU190
 559 006a 0988     		ldrh	r1, [r1]
 560 006c 0029     		cmp	r1, #0
 561 006e 40F09180 		bne	.L43
 334:C:/Users/²Ü¼ÒºÀ/.iotlink/sdk/IoT_LINK/iot_link/os/liteos/base/ipc\los_queue.c ****         osTaskWait(&pstQueueCB->stReadWriteList[uwReadWrite], OS_TASK_STATUS_PEND_QUEUE, uwTimeOut)
 562              		.loc 1 334 9 is_stmt 1 view .LVU191
 334:C:/Users/²Ü¼ÒºÀ/.iotlink/sdk/IoT_LINK/iot_link/os/liteos/base/ipc\los_queue.c ****         osTaskWait(&pstQueueCB->stReadWriteList[uwReadWrite], OS_TASK_STATUS_PEND_QUEUE, uwTimeOut)
 563              		.loc 1 334 19 is_stmt 0 view .LVU192
 564 0072 4E49     		ldr	r1, .L47+20
 335:C:/Users/²Ü¼ÒºÀ/.iotlink/sdk/IoT_LINK/iot_link/os/liteos/base/ipc\los_queue.c ****         LOS_IntRestore(uvIntSave);
 565              		.loc 1 335 9 view .LVU193
 566 0074 B01C     		adds	r0, r6, #2
 567 0076 04EBC000 		add	r0, r4, r0, lsl #3
 334:C:/Users/²Ü¼ÒºÀ/.iotlink/sdk/IoT_LINK/iot_link/os/liteos/base/ipc\los_queue.c ****         osTaskWait(&pstQueueCB->stReadWriteList[uwReadWrite], OS_TASK_STATUS_PEND_QUEUE, uwTimeOut)
 568              		.loc 1 334 19 view .LVU194
 569 007a 0D68     		ldr	r5, [r1]
 570              	.LVL49:
 335:C:/Users/²Ü¼ÒºÀ/.iotlink/sdk/IoT_LINK/iot_link/os/liteos/base/ipc\los_queue.c ****         LOS_IntRestore(uvIntSave);
 571              		.loc 1 335 9 is_stmt 1 view .LVU195
 572 007c 0430     		adds	r0, r0, #4
 573 007e 4FF40051 		mov	r1, #8192
 574 0082 FFF7FEFF 		bl	osTaskWait
 575              	.LVL50:
 336:C:/Users/²Ü¼ÒºÀ/.iotlink/sdk/IoT_LINK/iot_link/os/liteos/base/ipc\los_queue.c ****         LOS_Schedule();
 576              		.loc 1 336 9 view .LVU196
 577 0086 3846     		mov	r0, r7
 578 0088 FFF7FEFF 		bl	LOS_IntRestore
ARM GAS  C:\Users\²Ü¼ÒºÀ\AppData\Local\Temp\ccapTJCk.s 			page 23


 579              	.LVL51:
 337:C:/Users/²Ü¼ÒºÀ/.iotlink/sdk/IoT_LINK/iot_link/os/liteos/base/ipc\los_queue.c **** 
 580              		.loc 1 337 9 view .LVU197
 581 008c FFF7FEFF 		bl	LOS_Schedule
 582              	.LVL52:
 339:C:/Users/²Ü¼ÒºÀ/.iotlink/sdk/IoT_LINK/iot_link/os/liteos/base/ipc\los_queue.c **** 
 583              		.loc 1 339 9 view .LVU198
 339:C:/Users/²Ü¼ÒºÀ/.iotlink/sdk/IoT_LINK/iot_link/os/liteos/base/ipc\los_queue.c **** 
 584              		.loc 1 339 21 is_stmt 0 view .LVU199
 585 0090 FFF7FEFF 		bl	LOS_IntLock
 586              	.LVL53:
 341:C:/Users/²Ü¼ÒºÀ/.iotlink/sdk/IoT_LINK/iot_link/os/liteos/base/ipc\los_queue.c ****         {
 587              		.loc 1 341 22 view .LVU200
 588 0094 AA88     		ldrh	r2, [r5, #4]
 341:C:/Users/²Ü¼ÒºÀ/.iotlink/sdk/IoT_LINK/iot_link/os/liteos/base/ipc\los_queue.c ****         {
 589              		.loc 1 341 12 view .LVU201
 590 0096 019B     		ldr	r3, [sp, #4]
 591 0098 12F0400F 		tst	r2, #64
 339:C:/Users/²Ü¼ÒºÀ/.iotlink/sdk/IoT_LINK/iot_link/os/liteos/base/ipc\los_queue.c **** 
 592              		.loc 1 339 21 view .LVU202
 593 009c 0746     		mov	r7, r0
 594              	.LVL54:
 341:C:/Users/²Ü¼ÒºÀ/.iotlink/sdk/IoT_LINK/iot_link/os/liteos/base/ipc\los_queue.c ****         {
 595              		.loc 1 341 9 is_stmt 1 view .LVU203
 341:C:/Users/²Ü¼ÒºÀ/.iotlink/sdk/IoT_LINK/iot_link/os/liteos/base/ipc\los_queue.c ****         {
 596              		.loc 1 341 12 is_stmt 0 view .LVU204
 597 009e 06D0     		beq	.L24
 343:C:/Users/²Ü¼ÒºÀ/.iotlink/sdk/IoT_LINK/iot_link/os/liteos/base/ipc\los_queue.c ****             uwRet = LOS_ERRNO_QUEUE_TIMEOUT;
 598              		.loc 1 343 13 is_stmt 1 view .LVU205
 343:C:/Users/²Ü¼ÒºÀ/.iotlink/sdk/IoT_LINK/iot_link/os/liteos/base/ipc\los_queue.c ****             uwRet = LOS_ERRNO_QUEUE_TIMEOUT;
 599              		.loc 1 343 37 is_stmt 0 view .LVU206
 600 00a0 22F04002 		bic	r2, r2, #64
 344:C:/Users/²Ü¼ÒºÀ/.iotlink/sdk/IoT_LINK/iot_link/os/liteos/base/ipc\los_queue.c ****             goto QUEUE_END;
 601              		.loc 1 344 19 view .LVU207
 602 00a4 424E     		ldr	r6, .L47+24
 603              	.LVL55:
 343:C:/Users/²Ü¼ÒºÀ/.iotlink/sdk/IoT_LINK/iot_link/os/liteos/base/ipc\los_queue.c ****             uwRet = LOS_ERRNO_QUEUE_TIMEOUT;
 604              		.loc 1 343 37 view .LVU208
 605 00a6 AA80     		strh	r2, [r5, #4]	@ movhi
 344:C:/Users/²Ü¼ÒºÀ/.iotlink/sdk/IoT_LINK/iot_link/os/liteos/base/ipc\los_queue.c ****             goto QUEUE_END;
 606              		.loc 1 344 13 is_stmt 1 view .LVU209
 607              	.LVL56:
 345:C:/Users/²Ü¼ÒºÀ/.iotlink/sdk/IoT_LINK/iot_link/os/liteos/base/ipc\los_queue.c ****         }
 608              		.loc 1 345 13 view .LVU210
 609 00a8 D9E7     		b	.L19
 610              	.LVL57:
 611              	.L22:
 350:C:/Users/²Ü¼ÒºÀ/.iotlink/sdk/IoT_LINK/iot_link/os/liteos/base/ipc\los_queue.c ****     }
 612              		.loc 1 350 9 view .LVU211
 350:C:/Users/²Ü¼ÒºÀ/.iotlink/sdk/IoT_LINK/iot_link/os/liteos/base/ipc\los_queue.c ****     }
 613              		.loc 1 350 52 is_stmt 0 view .LVU212
 614 00aa 0139     		subs	r1, r1, #1
 615 00ac 0182     		strh	r1, [r0, #16]	@ movhi
 616              	.L24:
 353:C:/Users/²Ü¼ÒºÀ/.iotlink/sdk/IoT_LINK/iot_link/os/liteos/base/ipc\los_queue.c **** 
 617              		.loc 1 353 5 is_stmt 1 view .LVU213
 618              	.LVL58:
ARM GAS  C:\Users\²Ü¼ÒºÀ\AppData\Local\Temp\ccapTJCk.s 			page 24


 619              	.LBB71:
 620              	.LBI71:
 231:C:/Users/²Ü¼ÒºÀ/.iotlink/sdk/IoT_LINK/iot_link/os/liteos/base/ipc\los_queue.c **** {
 621              		.loc 1 231 37 view .LVU214
 622              	.LBB72:
 233:C:/Users/²Ü¼ÒºÀ/.iotlink/sdk/IoT_LINK/iot_link/os/liteos/base/ipc\los_queue.c ****     UINT32       uwMsgDataSize = 0;
 623              		.loc 1 233 5 view .LVU215
 234:C:/Users/²Ü¼ÒºÀ/.iotlink/sdk/IoT_LINK/iot_link/os/liteos/base/ipc\los_queue.c ****     UINT16      usQueuePosion = 0;
 624              		.loc 1 234 5 view .LVU216
 235:C:/Users/²Ü¼ÒºÀ/.iotlink/sdk/IoT_LINK/iot_link/os/liteos/base/ipc\los_queue.c **** 
 625              		.loc 1 235 5 view .LVU217
 238:C:/Users/²Ü¼ÒºÀ/.iotlink/sdk/IoT_LINK/iot_link/os/liteos/base/ipc\los_queue.c ****     {
 626              		.loc 1 238 5 view .LVU218
 238:C:/Users/²Ü¼ÒºÀ/.iotlink/sdk/IoT_LINK/iot_link/os/liteos/base/ipc\los_queue.c ****     {
 627              		.loc 1 238 13 is_stmt 0 view .LVU219
 628 00ae 0AF00301 		and	r1, r10, #3
 238:C:/Users/²Ü¼ÒºÀ/.iotlink/sdk/IoT_LINK/iot_link/os/liteos/base/ipc\los_queue.c ****     {
 629              		.loc 1 238 5 view .LVU220
 630 00b2 0129     		cmp	r1, #1
 631 00b4 17D0     		beq	.L25
 238:C:/Users/²Ü¼ÒºÀ/.iotlink/sdk/IoT_LINK/iot_link/os/liteos/base/ipc\los_queue.c ****     {
 632              		.loc 1 238 5 view .LVU221
 633 00b6 0329     		cmp	r1, #3
 634 00b8 1CD0     		beq	.L26
 635 00ba 19BB     		cbnz	r1, .L27
 241:C:/Users/²Ü¼ÒºÀ/.iotlink/sdk/IoT_LINK/iot_link/os/liteos/base/ipc\los_queue.c ****             (pstQueueCB->usQueueHead + 1 == pstQueueCB->usQueueLen) ? (pstQueueCB->usQueueHead = 0)
 636              		.loc 1 241 13 is_stmt 1 view .LVU222
 241:C:/Users/²Ü¼ÒºÀ/.iotlink/sdk/IoT_LINK/iot_link/os/liteos/base/ipc\los_queue.c ****             (pstQueueCB->usQueueHead + 1 == pstQueueCB->usQueueLen) ? (pstQueueCB->usQueueHead = 0)
 637              		.loc 1 241 27 is_stmt 0 view .LVU223
 638 00bc A589     		ldrh	r5, [r4, #12]
 639              	.LVL59:
 242:C:/Users/²Ü¼ÒºÀ/.iotlink/sdk/IoT_LINK/iot_link/os/liteos/base/ipc\los_queue.c ****             break;
 640              		.loc 1 242 13 is_stmt 1 view .LVU224
 242:C:/Users/²Ü¼ÒºÀ/.iotlink/sdk/IoT_LINK/iot_link/os/liteos/base/ipc\los_queue.c ****             break;
 641              		.loc 1 242 55 is_stmt 0 view .LVU225
 642 00be E088     		ldrh	r0, [r4, #6]
 242:C:/Users/²Ü¼ÒºÀ/.iotlink/sdk/IoT_LINK/iot_link/os/liteos/base/ipc\los_queue.c ****             break;
 643              		.loc 1 242 38 view .LVU226
 644 00c0 6A1C     		adds	r2, r5, #1
 242:C:/Users/²Ü¼ÒºÀ/.iotlink/sdk/IoT_LINK/iot_link/os/liteos/base/ipc\los_queue.c ****             break;
 645              		.loc 1 242 96 view .LVU227
 646 00c2 8242     		cmp	r2, r0
 647 00c4 08BF     		it	eq
 648 00c6 0A46     		moveq	r2, r1
 649 00c8 A281     		strh	r2, [r4, #12]	@ movhi
 650              	.L29:
 260:C:/Users/²Ü¼ÒºÀ/.iotlink/sdk/IoT_LINK/iot_link/os/liteos/base/ipc\los_queue.c **** 
 651              		.loc 1 260 5 is_stmt 1 view .LVU228
 260:C:/Users/²Ü¼ÒºÀ/.iotlink/sdk/IoT_LINK/iot_link/os/liteos/base/ipc\los_queue.c **** 
 652              		.loc 1 260 71 is_stmt 0 view .LVU229
 653 00ca 2289     		ldrh	r2, [r4, #8]
 260:C:/Users/²Ü¼ÒºÀ/.iotlink/sdk/IoT_LINK/iot_link/os/liteos/base/ipc\los_queue.c **** 
 654              		.loc 1 260 18 view .LVU230
 655 00cc 53F80B10 		ldr	r1, [r3, fp]
 260:C:/Users/²Ü¼ÒºÀ/.iotlink/sdk/IoT_LINK/iot_link/os/liteos/base/ipc\los_queue.c **** 
 656              		.loc 1 260 58 view .LVU231
 657 00d0 5543     		muls	r5, r2, r5
ARM GAS  C:\Users\²Ü¼ÒºÀ\AppData\Local\Temp\ccapTJCk.s 			page 25


 658              	.LVL60:
 262:C:/Users/²Ü¼ÒºÀ/.iotlink/sdk/IoT_LINK/iot_link/os/liteos/base/ipc\los_queue.c ****     {
 659              		.loc 1 262 7 view .LVU232
 660 00d2 1AF0040F 		tst	r10, #4
 260:C:/Users/²Ü¼ÒºÀ/.iotlink/sdk/IoT_LINK/iot_link/os/liteos/base/ipc\los_queue.c **** 
 661              		.loc 1 260 18 view .LVU233
 662 00d6 01EB0503 		add	r3, r1, r5
 663              	.LVL61:
 262:C:/Users/²Ü¼ÒºÀ/.iotlink/sdk/IoT_LINK/iot_link/os/liteos/base/ipc\los_queue.c ****     {
 664              		.loc 1 262 5 is_stmt 1 view .LVU234
 262:C:/Users/²Ü¼ÒºÀ/.iotlink/sdk/IoT_LINK/iot_link/os/liteos/base/ipc\los_queue.c ****     {
 665              		.loc 1 262 7 is_stmt 0 view .LVU235
 666 00da 36D0     		beq	.L34
 264:C:/Users/²Ü¼ÒºÀ/.iotlink/sdk/IoT_LINK/iot_link/os/liteos/base/ipc\los_queue.c ****         {
 667              		.loc 1 264 9 is_stmt 1 view .LVU236
 264:C:/Users/²Ü¼ÒºÀ/.iotlink/sdk/IoT_LINK/iot_link/os/liteos/base/ipc\los_queue.c ****         {
 668              		.loc 1 264 11 is_stmt 0 view .LVU237
 669 00dc 8EBB     		cbnz	r6, .L35
 266:C:/Users/²Ü¼ÒºÀ/.iotlink/sdk/IoT_LINK/iot_link/os/liteos/base/ipc\los_queue.c ****         }
 670              		.loc 1 266 13 is_stmt 1 view .LVU238
 266:C:/Users/²Ü¼ÒºÀ/.iotlink/sdk/IoT_LINK/iot_link/os/liteos/base/ipc\los_queue.c ****         }
 671              		.loc 1 266 38 is_stmt 0 view .LVU239
 672 00de 4B59     		ldr	r3, [r1, r5]
 673              	.LVL62:
 266:C:/Users/²Ü¼ÒºÀ/.iotlink/sdk/IoT_LINK/iot_link/os/liteos/base/ipc\los_queue.c ****         }
 674              		.loc 1 266 36 view .LVU240
 675 00e0 C9F80030 		str	r3, [r9]
 676 00e4 14E0     		b	.L33
 677              	.LVL63:
 678              	.L25:
 246:C:/Users/²Ü¼ÒºÀ/.iotlink/sdk/IoT_LINK/iot_link/os/liteos/base/ipc\los_queue.c ****             usQueuePosion = pstQueueCB->usQueueHead;
 679              		.loc 1 246 13 is_stmt 1 view .LVU241
 246:C:/Users/²Ü¼ÒºÀ/.iotlink/sdk/IoT_LINK/iot_link/os/liteos/base/ipc\los_queue.c ****             usQueuePosion = pstQueueCB->usQueueHead;
 680              		.loc 1 246 29 is_stmt 0 view .LVU242
 681 00e6 A589     		ldrh	r5, [r4, #12]
 246:C:/Users/²Ü¼ÒºÀ/.iotlink/sdk/IoT_LINK/iot_link/os/liteos/base/ipc\los_queue.c ****             usQueuePosion = pstQueueCB->usQueueHead;
 682              		.loc 1 246 101 view .LVU243
 683 00e8 05B9     		cbnz	r5, .L30
 246:C:/Users/²Ü¼ÒºÀ/.iotlink/sdk/IoT_LINK/iot_link/os/liteos/base/ipc\los_queue.c ****             usQueuePosion = pstQueueCB->usQueueHead;
 684              		.loc 1 246 96 view .LVU244
 685 00ea E588     		ldrh	r5, [r4, #6]
 686              	.L30:
 246:C:/Users/²Ü¼ÒºÀ/.iotlink/sdk/IoT_LINK/iot_link/os/liteos/base/ipc\los_queue.c ****             usQueuePosion = pstQueueCB->usQueueHead;
 687              		.loc 1 246 104 view .LVU245
 688 00ec 013D     		subs	r5, r5, #1
 689 00ee ADB2     		uxth	r5, r5
 690 00f0 A581     		strh	r5, [r4, #12]	@ movhi
 247:C:/Users/²Ü¼ÒºÀ/.iotlink/sdk/IoT_LINK/iot_link/os/liteos/base/ipc\los_queue.c ****             break;
 691              		.loc 1 247 13 is_stmt 1 view .LVU246
 692              	.LVL64:
 248:C:/Users/²Ü¼ÒºÀ/.iotlink/sdk/IoT_LINK/iot_link/os/liteos/base/ipc\los_queue.c **** 
 693              		.loc 1 248 13 view .LVU247
 694 00f2 EAE7     		b	.L29
 695              	.LVL65:
 696              	.L26:
 251:C:/Users/²Ü¼ÒºÀ/.iotlink/sdk/IoT_LINK/iot_link/os/liteos/base/ipc\los_queue.c ****             (pstQueueCB->usQueueTail + 1 == pstQueueCB->usQueueLen) ? (pstQueueCB->usQueueTail = 0)
 697              		.loc 1 251 13 view .LVU248
ARM GAS  C:\Users\²Ü¼ÒºÀ\AppData\Local\Temp\ccapTJCk.s 			page 26


 251:C:/Users/²Ü¼ÒºÀ/.iotlink/sdk/IoT_LINK/iot_link/os/liteos/base/ipc\los_queue.c ****             (pstQueueCB->usQueueTail + 1 == pstQueueCB->usQueueLen) ? (pstQueueCB->usQueueTail = 0)
 698              		.loc 1 251 27 is_stmt 0 view .LVU249
 699 00f4 E589     		ldrh	r5, [r4, #14]
 700              	.LVL66:
 252:C:/Users/²Ü¼ÒºÀ/.iotlink/sdk/IoT_LINK/iot_link/os/liteos/base/ipc\los_queue.c ****             break;
 701              		.loc 1 252 13 is_stmt 1 view .LVU250
 252:C:/Users/²Ü¼ÒºÀ/.iotlink/sdk/IoT_LINK/iot_link/os/liteos/base/ipc\los_queue.c ****             break;
 702              		.loc 1 252 55 is_stmt 0 view .LVU251
 703 00f6 E188     		ldrh	r1, [r4, #6]
 252:C:/Users/²Ü¼ÒºÀ/.iotlink/sdk/IoT_LINK/iot_link/os/liteos/base/ipc\los_queue.c ****             break;
 704              		.loc 1 252 38 view .LVU252
 705 00f8 6A1C     		adds	r2, r5, #1
 252:C:/Users/²Ü¼ÒºÀ/.iotlink/sdk/IoT_LINK/iot_link/os/liteos/base/ipc\los_queue.c ****             break;
 706              		.loc 1 252 101 view .LVU253
 707 00fa 8A42     		cmp	r2, r1
 252:C:/Users/²Ü¼ÒºÀ/.iotlink/sdk/IoT_LINK/iot_link/os/liteos/base/ipc\los_queue.c ****             break;
 708              		.loc 1 252 96 view .LVU254
 709 00fc 08BF     		it	eq
 710 00fe 0022     		moveq	r2, #0
 252:C:/Users/²Ü¼ÒºÀ/.iotlink/sdk/IoT_LINK/iot_link/os/liteos/base/ipc\los_queue.c ****             break;
 711              		.loc 1 252 127 view .LVU255
 712 0100 E281     		strh	r2, [r4, #14]	@ movhi
 713 0102 E2E7     		b	.L29
 714              	.LVL67:
 715              	.L27:
 256:C:/Users/²Ü¼ÒºÀ/.iotlink/sdk/IoT_LINK/iot_link/os/liteos/base/ipc\los_queue.c ****             return;
 716              		.loc 1 256 13 is_stmt 1 view .LVU256
 256:C:/Users/²Ü¼ÒºÀ/.iotlink/sdk/IoT_LINK/iot_link/os/liteos/base/ipc\los_queue.c ****             return;
 717              		.loc 1 256 13 view .LVU257
 718 0104 2B48     		ldr	r0, .L47+28
 719 0106 FFF7FEFF 		bl	printf
 720              	.LVL68:
 721 010a 2B48     		ldr	r0, .L47+32
 722 010c FFF7FEFF 		bl	puts
 723              	.LVL69:
 256:C:/Users/²Ü¼ÒºÀ/.iotlink/sdk/IoT_LINK/iot_link/os/liteos/base/ipc\los_queue.c ****             return;
 724              		.loc 1 256 13 view .LVU258
 257:C:/Users/²Ü¼ÒºÀ/.iotlink/sdk/IoT_LINK/iot_link/os/liteos/base/ipc\los_queue.c ****     }
 725              		.loc 1 257 13 view .LVU259
 726              	.L33:
 257:C:/Users/²Ü¼ÒºÀ/.iotlink/sdk/IoT_LINK/iot_link/os/liteos/base/ipc\los_queue.c ****     }
 727              		.loc 1 257 13 is_stmt 0 view .LVU260
 728              	.LBE72:
 729              	.LBE71:
 355:C:/Users/²Ü¼ÒºÀ/.iotlink/sdk/IoT_LINK/iot_link/os/liteos/base/ipc\los_queue.c ****     {
 730              		.loc 1 355 5 is_stmt 1 view .LVU261
 731 0110 86F00106 		eor	r6, r6, #1
 732              	.LVL70:
 733              	.LBB74:
 734              	.LBI74:
 213:C:/Users/²Ü¼ÒºÀ/.iotlink/sdk/IoT_LINK/iot_link/os/liteos/include\los_list.h **** {
 735              		.loc 2 213 43 view .LVU262
 736              	.LBB75:
 737              		.loc 2 215 5 view .LVU263
 738              		.loc 2 215 26 is_stmt 0 view .LVU264
 739 0114 B31C     		adds	r3, r6, #2
 740 0116 04EBC302 		add	r2, r4, r3, lsl #3
ARM GAS  C:\Users\²Ü¼ÒºÀ\AppData\Local\Temp\ccapTJCk.s 			page 27


 741              	.LBE75:
 742              	.LBE74:
 355:C:/Users/²Ü¼ÒºÀ/.iotlink/sdk/IoT_LINK/iot_link/os/liteos/base/ipc\los_queue.c ****     {
 743              		.loc 1 355 10 view .LVU265
 744 011a 1346     		mov	r3, r2
 745              	.LBB77:
 746              	.LBB76:
 747              		.loc 2 215 26 view .LVU266
 748 011c 9068     		ldr	r0, [r2, #8]
 749              	.LVL71:
 750              		.loc 2 215 26 view .LVU267
 751              	.LBE76:
 752              	.LBE77:
 355:C:/Users/²Ü¼ÒºÀ/.iotlink/sdk/IoT_LINK/iot_link/os/liteos/base/ipc\los_queue.c ****     {
 753              		.loc 1 355 10 view .LVU268
 754 011e 0433     		adds	r3, r3, #4
 355:C:/Users/²Ü¼ÒºÀ/.iotlink/sdk/IoT_LINK/iot_link/os/liteos/base/ipc\los_queue.c ****     {
 755              		.loc 1 355 8 view .LVU269
 756 0120 9842     		cmp	r0, r3
 757 0122 2CD0     		beq	.L37
 357:C:/Users/²Ü¼ÒºÀ/.iotlink/sdk/IoT_LINK/iot_link/os/liteos/base/ipc\los_queue.c ****         osTaskWake(pstResumedTask, OS_TASK_STATUS_PEND_QUEUE);
 758              		.loc 1 357 9 is_stmt 1 view .LVU270
 759              	.LVL72:
 358:C:/Users/²Ü¼ÒºÀ/.iotlink/sdk/IoT_LINK/iot_link/os/liteos/base/ipc\los_queue.c ****         LOS_IntRestore(uvIntSave);
 760              		.loc 1 358 9 view .LVU271
 761 0124 4FF40051 		mov	r1, #8192
 762 0128 2838     		subs	r0, r0, #40
 763              	.LVL73:
 358:C:/Users/²Ü¼ÒºÀ/.iotlink/sdk/IoT_LINK/iot_link/os/liteos/base/ipc\los_queue.c ****         LOS_IntRestore(uvIntSave);
 764              		.loc 1 358 9 is_stmt 0 view .LVU272
 765 012a FFF7FEFF 		bl	osTaskWake
 766              	.LVL74:
 359:C:/Users/²Ü¼ÒºÀ/.iotlink/sdk/IoT_LINK/iot_link/os/liteos/base/ipc\los_queue.c ****         LOS_Schedule();
 767              		.loc 1 359 9 is_stmt 1 view .LVU273
 768 012e 3846     		mov	r0, r7
 769 0130 FFF7FEFF 		bl	LOS_IntRestore
 770              	.LVL75:
 360:C:/Users/²Ü¼ÒºÀ/.iotlink/sdk/IoT_LINK/iot_link/os/liteos/base/ipc\los_queue.c ****         return LOS_OK;
 771              		.loc 1 360 9 view .LVU274
 772 0134 FFF7FEFF 		bl	LOS_Schedule
 773              	.LVL76:
 361:C:/Users/²Ü¼ÒºÀ/.iotlink/sdk/IoT_LINK/iot_link/os/liteos/base/ipc\los_queue.c ****     }
 774              		.loc 1 361 9 view .LVU275
 361:C:/Users/²Ü¼ÒºÀ/.iotlink/sdk/IoT_LINK/iot_link/os/liteos/base/ipc\los_queue.c ****     }
 775              		.loc 1 361 16 is_stmt 0 view .LVU276
 776 0138 0026     		movs	r6, #0
 777              	.LVL77:
 778              	.L18:
 371:C:/Users/²Ü¼ÒºÀ/.iotlink/sdk/IoT_LINK/iot_link/os/liteos/base/ipc\los_queue.c **** }
 779              		.loc 1 371 1 view .LVU277
 780 013a 3046     		mov	r0, r6
 781 013c 03B0     		add	sp, sp, #12
 782              	.LCFI3:
 783              		.cfi_remember_state
 784              		.cfi_def_cfa_offset 36
 785              		@ sp needed
 786 013e BDE8F08F 		pop	{r4, r5, r6, r7, r8, r9, r10, fp, pc}
ARM GAS  C:\Users\²Ü¼ÒºÀ\AppData\Local\Temp\ccapTJCk.s 			page 28


 787              	.LVL78:
 788              	.L35:
 789              	.LCFI4:
 790              		.cfi_restore_state
 791              	.LBB78:
 792              	.LBB73:
 270:C:/Users/²Ü¼ÒºÀ/.iotlink/sdk/IoT_LINK/iot_link/os/liteos/base/ipc\los_queue.c ****         }
 793              		.loc 1 270 13 is_stmt 1 view .LVU278
 270:C:/Users/²Ü¼ÒºÀ/.iotlink/sdk/IoT_LINK/iot_link/os/liteos/base/ipc\los_queue.c ****         }
 794              		.loc 1 270 39 is_stmt 0 view .LVU279
 795 0142 D9F80030 		ldr	r3, [r9]
 796              	.LVL79:
 270:C:/Users/²Ü¼ÒºÀ/.iotlink/sdk/IoT_LINK/iot_link/os/liteos/base/ipc\los_queue.c ****         }
 797              		.loc 1 270 37 view .LVU280
 798 0146 4B51     		str	r3, [r1, r5]
 799 0148 E2E7     		b	.L33
 800              	.LVL80:
 801              	.L34:
 275:C:/Users/²Ü¼ÒºÀ/.iotlink/sdk/IoT_LINK/iot_link/os/liteos/base/ipc\los_queue.c ****         {
 802              		.loc 1 275 9 is_stmt 1 view .LVU281
 275:C:/Users/²Ü¼ÒºÀ/.iotlink/sdk/IoT_LINK/iot_link/os/liteos/base/ipc\los_queue.c ****         {
 803              		.loc 1 275 11 is_stmt 0 view .LVU282
 804 014a 56B9     		cbnz	r6, .L36
 277:C:/Users/²Ü¼ÒºÀ/.iotlink/sdk/IoT_LINK/iot_link/os/liteos/base/ipc\los_queue.c ****             memcpy((VOID *)pBufferAddr, (VOID *)pucQueueNode, uwMsgDataSize);
 805              		.loc 1 277 13 is_stmt 1 view .LVU283
 806 014c 1A44     		add	r2, r2, r3
 278:C:/Users/²Ü¼ÒºÀ/.iotlink/sdk/IoT_LINK/iot_link/os/liteos/base/ipc\los_queue.c ****             *puwBufferSize = uwMsgDataSize;
 807              		.loc 1 278 13 is_stmt 0 view .LVU284
 808 014e 1946     		mov	r1, r3
 809 0150 52F8045C 		ldr	r5, [r2, #-4]	@ unaligned
 810              	.LVL81:
 278:C:/Users/²Ü¼ÒºÀ/.iotlink/sdk/IoT_LINK/iot_link/os/liteos/base/ipc\los_queue.c ****             *puwBufferSize = uwMsgDataSize;
 811              		.loc 1 278 13 is_stmt 1 view .LVU285
 812 0154 4846     		mov	r0, r9
 813 0156 2A46     		mov	r2, r5
 814 0158 FFF7FEFF 		bl	memcpy
 815              	.LVL82:
 279:C:/Users/²Ü¼ÒºÀ/.iotlink/sdk/IoT_LINK/iot_link/os/liteos/base/ipc\los_queue.c ****         }
 816              		.loc 1 279 13 view .LVU286
 279:C:/Users/²Ü¼ÒºÀ/.iotlink/sdk/IoT_LINK/iot_link/os/liteos/base/ipc\los_queue.c ****         }
 817              		.loc 1 279 28 is_stmt 0 view .LVU287
 818 015c C8F80050 		str	r5, [r8]
 819 0160 D6E7     		b	.L33
 820              	.LVL83:
 821              	.L36:
 283:C:/Users/²Ü¼ÒºÀ/.iotlink/sdk/IoT_LINK/iot_link/os/liteos/base/ipc\los_queue.c ****             memcpy((VOID *)(pucQueueNode + pstQueueCB->usQueueSize - sizeof(UINT32)), puwBufferSize
 822              		.loc 1 283 13 is_stmt 1 view .LVU288
 823 0162 D8F80020 		ldr	r2, [r8]
 824 0166 4946     		mov	r1, r9
 825 0168 1846     		mov	r0, r3
 826 016a FFF7FEFF 		bl	memcpy
 827              	.LVL84:
 284:C:/Users/²Ü¼ÒºÀ/.iotlink/sdk/IoT_LINK/iot_link/os/liteos/base/ipc\los_queue.c ****         }
 828              		.loc 1 284 54 is_stmt 0 view .LVU289
 829 016e 2189     		ldrh	r1, [r4, #8]
 830 0170 D8F80020 		ldr	r2, [r8]	@ unaligned
 283:C:/Users/²Ü¼ÒºÀ/.iotlink/sdk/IoT_LINK/iot_link/os/liteos/base/ipc\los_queue.c ****             memcpy((VOID *)(pucQueueNode + pstQueueCB->usQueueSize - sizeof(UINT32)), puwBufferSize
ARM GAS  C:\Users\²Ü¼ÒºÀ\AppData\Local\Temp\ccapTJCk.s 			page 29


 831              		.loc 1 283 13 view .LVU290
 832 0174 0346     		mov	r3, r0
 284:C:/Users/²Ü¼ÒºÀ/.iotlink/sdk/IoT_LINK/iot_link/os/liteos/base/ipc\los_queue.c ****         }
 833              		.loc 1 284 13 is_stmt 1 view .LVU291
 834 0176 0B44     		add	r3, r3, r1
 835 0178 43F8042C 		str	r2, [r3, #-4]	@ unaligned
 836 017c C8E7     		b	.L33
 837              	.LVL85:
 838              	.L37:
 284:C:/Users/²Ü¼ÒºÀ/.iotlink/sdk/IoT_LINK/iot_link/os/liteos/base/ipc\los_queue.c ****         }
 839              		.loc 1 284 13 is_stmt 0 view .LVU292
 840              	.LBE73:
 841              	.LBE78:
 365:C:/Users/²Ü¼ÒºÀ/.iotlink/sdk/IoT_LINK/iot_link/os/liteos/base/ipc\los_queue.c ****     }
 842              		.loc 1 365 9 is_stmt 1 view .LVU293
 843 017e 04EB4604 		add	r4, r4, r6, lsl #1
 844              	.LVL86:
 296:C:/Users/²Ü¼ÒºÀ/.iotlink/sdk/IoT_LINK/iot_link/os/liteos/base/ipc\los_queue.c ****     UINT32       uwReadWrite = OS_QUEUE_READ_WRITE_GET(uwOperateType);
 845              		.loc 1 296 18 is_stmt 0 view .LVU294
 846 0182 0026     		movs	r6, #0
 847              	.LVL87:
 365:C:/Users/²Ü¼ÒºÀ/.iotlink/sdk/IoT_LINK/iot_link/os/liteos/base/ipc\los_queue.c ****     }
 848              		.loc 1 365 53 view .LVU295
 849 0184 238A     		ldrh	r3, [r4, #16]
 850 0186 0133     		adds	r3, r3, #1
 851 0188 2382     		strh	r3, [r4, #16]	@ movhi
 852 018a 68E7     		b	.L19
 853              	.LVL88:
 854              	.L39:
 304:C:/Users/²Ü¼ÒºÀ/.iotlink/sdk/IoT_LINK/iot_link/os/liteos/base/ipc\los_queue.c ****         goto QUEUE_END;
 855              		.loc 1 304 15 view .LVU296
 856 018c 0B4E     		ldr	r6, .L47+36
 857 018e 66E7     		b	.L19
 858              	.LVL89:
 859              	.L41:
 316:C:/Users/²Ü¼ÒºÀ/.iotlink/sdk/IoT_LINK/iot_link/os/liteos/base/ipc\los_queue.c ****         goto QUEUE_END;
 860              		.loc 1 316 15 view .LVU297
 861 0190 0B4E     		ldr	r6, .L47+40
 862              	.LVL90:
 316:C:/Users/²Ü¼ÒºÀ/.iotlink/sdk/IoT_LINK/iot_link/os/liteos/base/ipc\los_queue.c ****         goto QUEUE_END;
 863              		.loc 1 316 15 view .LVU298
 864 0192 64E7     		b	.L19
 865              	.LVL91:
 866              	.L43:
 330:C:/Users/²Ü¼ÒºÀ/.iotlink/sdk/IoT_LINK/iot_link/os/liteos/base/ipc\los_queue.c ****             goto QUEUE_END;
 867              		.loc 1 330 19 view .LVU299
 868 0194 0B4E     		ldr	r6, .L47+44
 869              	.LVL92:
 330:C:/Users/²Ü¼ÒºÀ/.iotlink/sdk/IoT_LINK/iot_link/os/liteos/base/ipc\los_queue.c ****             goto QUEUE_END;
 870              		.loc 1 330 19 view .LVU300
 871 0196 62E7     		b	.L19
 872              	.L48:
 873              		.align	2
 874              	.L47:
 875 0198 00000000 		.word	g_pstAllQueue
 876 019c 1F060002 		.word	33555999
 877 01a0 1D060002 		.word	33555997
ARM GAS  C:\Users\²Ü¼ÒºÀ\AppData\Local\Temp\ccapTJCk.s 			page 30


 878 01a4 16060002 		.word	33555990
 879 01a8 00000000 		.word	g_usLosTaskLock
 880 01ac 00000000 		.word	g_stLosTask
 881 01b0 07060002 		.word	33555975
 882 01b4 00000000 		.word	.LC0
 883 01b8 07000000 		.word	.LC1
 884 01bc 0A060002 		.word	33555978
 885 01c0 15060002 		.word	33555989
 886 01c4 06060002 		.word	33555974
 887              		.cfi_endproc
 888              	.LFE292:
 890              		.section	.text.LOS_QueueReadCopy,"ax",%progbits
 891              		.align	1
 892              		.global	LOS_QueueReadCopy
 893              		.syntax unified
 894              		.thumb
 895              		.thumb_func
 896              		.fpu fpv4-sp-d16
 898              	LOS_QueueReadCopy:
 899              	.LVL93:
 900              	.LFB293:
 372:C:/Users/²Ü¼ÒºÀ/.iotlink/sdk/IoT_LINK/iot_link/os/liteos/base/ipc\los_queue.c **** 
 373:C:/Users/²Ü¼ÒºÀ/.iotlink/sdk/IoT_LINK/iot_link/os/liteos/base/ipc\los_queue.c **** /*****************************************************************************
 374:C:/Users/²Ü¼ÒºÀ/.iotlink/sdk/IoT_LINK/iot_link/os/liteos/base/ipc\los_queue.c ****  Function    : LOS_QueueReadCopy
 375:C:/Users/²Ü¼ÒºÀ/.iotlink/sdk/IoT_LINK/iot_link/os/liteos/base/ipc\los_queue.c ****  Description : Read queue
 376:C:/Users/²Ü¼ÒºÀ/.iotlink/sdk/IoT_LINK/iot_link/os/liteos/base/ipc\los_queue.c ****  Input       : uwQueueID
 377:C:/Users/²Ü¼ÒºÀ/.iotlink/sdk/IoT_LINK/iot_link/os/liteos/base/ipc\los_queue.c ****                puwBufferSize
 378:C:/Users/²Ü¼ÒºÀ/.iotlink/sdk/IoT_LINK/iot_link/os/liteos/base/ipc\los_queue.c ****                uwTimeOut
 379:C:/Users/²Ü¼ÒºÀ/.iotlink/sdk/IoT_LINK/iot_link/os/liteos/base/ipc\los_queue.c ****  Output      : pBufferAddr
 380:C:/Users/²Ü¼ÒºÀ/.iotlink/sdk/IoT_LINK/iot_link/os/liteos/base/ipc\los_queue.c ****                puwBufferSize
 381:C:/Users/²Ü¼ÒºÀ/.iotlink/sdk/IoT_LINK/iot_link/os/liteos/base/ipc\los_queue.c ****  Return      : LOS_OK on success or error code on failure
 382:C:/Users/²Ü¼ÒºÀ/.iotlink/sdk/IoT_LINK/iot_link/os/liteos/base/ipc\los_queue.c ****  *****************************************************************************/
 383:C:/Users/²Ü¼ÒºÀ/.iotlink/sdk/IoT_LINK/iot_link/os/liteos/base/ipc\los_queue.c **** LITE_OS_SEC_TEXT UINT32 LOS_QueueReadCopy(UINT32  uwQueueID,
 384:C:/Users/²Ü¼ÒºÀ/.iotlink/sdk/IoT_LINK/iot_link/os/liteos/base/ipc\los_queue.c ****                     VOID *  pBufferAddr,
 385:C:/Users/²Ü¼ÒºÀ/.iotlink/sdk/IoT_LINK/iot_link/os/liteos/base/ipc\los_queue.c ****                     UINT32 * puwBufferSize,
 386:C:/Users/²Ü¼ÒºÀ/.iotlink/sdk/IoT_LINK/iot_link/os/liteos/base/ipc\los_queue.c ****                     UINT32  uwTimeOut)
 387:C:/Users/²Ü¼ÒºÀ/.iotlink/sdk/IoT_LINK/iot_link/os/liteos/base/ipc\los_queue.c **** {
 901              		.loc 1 387 1 is_stmt 1 view -0
 902              		.cfi_startproc
 903              		@ args = 0, pretend = 0, frame = 0
 904              		@ frame_needed = 0, uses_anonymous_args = 0
 388:C:/Users/²Ü¼ÒºÀ/.iotlink/sdk/IoT_LINK/iot_link/os/liteos/base/ipc\los_queue.c ****     UINT32 uwRet;
 905              		.loc 1 388 5 view .LVU302
 389:C:/Users/²Ü¼ÒºÀ/.iotlink/sdk/IoT_LINK/iot_link/os/liteos/base/ipc\los_queue.c ****     UINT32 uwOperateType;
 906              		.loc 1 389 5 view .LVU303
 390:C:/Users/²Ü¼ÒºÀ/.iotlink/sdk/IoT_LINK/iot_link/os/liteos/base/ipc\los_queue.c **** 
 391:C:/Users/²Ü¼ÒºÀ/.iotlink/sdk/IoT_LINK/iot_link/os/liteos/base/ipc\los_queue.c ****     uwRet = osQueueReadParameterCheck(uwQueueID, pBufferAddr, puwBufferSize, uwTimeOut);
 907              		.loc 1 391 5 view .LVU304
 908              	.LBB83:
 909              	.LBB84:
 179:C:/Users/²Ü¼ÒºÀ/.iotlink/sdk/IoT_LINK/iot_link/os/liteos/base/ipc\los_queue.c ****     {
 910              		.loc 1 179 8 is_stmt 0 view .LVU305
 911 0000 0928     		cmp	r0, #9
 912              	.LBE84:
 913              	.LBE83:
 387:C:/Users/²Ü¼ÒºÀ/.iotlink/sdk/IoT_LINK/iot_link/os/liteos/base/ipc\los_queue.c ****     UINT32 uwRet;
 914              		.loc 1 387 1 view .LVU306
ARM GAS  C:\Users\²Ü¼ÒºÀ\AppData\Local\Temp\ccapTJCk.s 			page 31


 915 0002 F7B5     		push	{r0, r1, r2, r4, r5, r6, r7, lr}
 916              	.LCFI5:
 917              		.cfi_def_cfa_offset 32
 918              		.cfi_offset 4, -20
 919              		.cfi_offset 5, -16
 920              		.cfi_offset 6, -12
 921              		.cfi_offset 7, -8
 922              		.cfi_offset 14, -4
 387:C:/Users/²Ü¼ÒºÀ/.iotlink/sdk/IoT_LINK/iot_link/os/liteos/base/ipc\los_queue.c ****     UINT32 uwRet;
 923              		.loc 1 387 1 view .LVU307
 924 0004 0546     		mov	r5, r0
 925 0006 0E46     		mov	r6, r1
 926 0008 1446     		mov	r4, r2
 927 000a 1F46     		mov	r7, r3
 928              	.LVL94:
 929              	.LBB89:
 930              	.LBI83:
 177:C:/Users/²Ü¼ÒºÀ/.iotlink/sdk/IoT_LINK/iot_link/os/liteos/base/ipc\los_queue.c **** {
 931              		.loc 1 177 39 is_stmt 1 view .LVU308
 932              	.LBB87:
 179:C:/Users/²Ü¼ÒºÀ/.iotlink/sdk/IoT_LINK/iot_link/os/liteos/base/ipc\los_queue.c ****     {
 933              		.loc 1 179 5 view .LVU309
 179:C:/Users/²Ü¼ÒºÀ/.iotlink/sdk/IoT_LINK/iot_link/os/liteos/base/ipc\los_queue.c ****     {
 934              		.loc 1 179 8 is_stmt 0 view .LVU310
 935 000c 13D8     		bhi	.L53
 183:C:/Users/²Ü¼ÒºÀ/.iotlink/sdk/IoT_LINK/iot_link/os/liteos/base/ipc\los_queue.c ****     {
 936              		.loc 1 183 5 is_stmt 1 view .LVU311
 183:C:/Users/²Ü¼ÒºÀ/.iotlink/sdk/IoT_LINK/iot_link/os/liteos/base/ipc\los_queue.c ****     {
 937              		.loc 1 183 8 is_stmt 0 view .LVU312
 938 000e A1B1     		cbz	r1, .L55
 183:C:/Users/²Ü¼ÒºÀ/.iotlink/sdk/IoT_LINK/iot_link/os/liteos/base/ipc\los_queue.c ****     {
 939              		.loc 1 183 31 view .LVU313
 940 0010 9AB1     		cbz	r2, .L55
 188:C:/Users/²Ü¼ÒºÀ/.iotlink/sdk/IoT_LINK/iot_link/os/liteos/base/ipc\los_queue.c ****     {
 941              		.loc 1 188 5 is_stmt 1 view .LVU314
 188:C:/Users/²Ü¼ÒºÀ/.iotlink/sdk/IoT_LINK/iot_link/os/liteos/base/ipc\los_queue.c ****     {
 942              		.loc 1 188 8 is_stmt 0 view .LVU315
 943 0012 1368     		ldr	r3, [r2]
 944              	.LVL95:
 188:C:/Users/²Ü¼ÒºÀ/.iotlink/sdk/IoT_LINK/iot_link/os/liteos/base/ipc\los_queue.c ****     {
 945              		.loc 1 188 8 view .LVU316
 946 0014 9BB1     		cbz	r3, .L56
 193:C:/Users/²Ü¼ÒºÀ/.iotlink/sdk/IoT_LINK/iot_link/os/liteos/base/ipc\los_queue.c ****     {
 947              		.loc 1 193 5 is_stmt 1 view .LVU317
 193:C:/Users/²Ü¼ÒºÀ/.iotlink/sdk/IoT_LINK/iot_link/os/liteos/base/ipc\los_queue.c ****     {
 948              		.loc 1 193 8 is_stmt 0 view .LVU318
 949 0016 47B9     		cbnz	r7, .L51
 950              	.LVL96:
 951              	.L52:
 193:C:/Users/²Ü¼ÒºÀ/.iotlink/sdk/IoT_LINK/iot_link/os/liteos/base/ipc\los_queue.c ****     {
 952              		.loc 1 193 8 view .LVU319
 953              	.LBE87:
 954              	.LBE89:
 392:C:/Users/²Ü¼ÒºÀ/.iotlink/sdk/IoT_LINK/iot_link/os/liteos/base/ipc\los_queue.c ****     if(uwRet != LOS_OK)
 393:C:/Users/²Ü¼ÒºÀ/.iotlink/sdk/IoT_LINK/iot_link/os/liteos/base/ipc\los_queue.c ****     {
 394:C:/Users/²Ü¼ÒºÀ/.iotlink/sdk/IoT_LINK/iot_link/os/liteos/base/ipc\los_queue.c ****         return uwRet;
 395:C:/Users/²Ü¼ÒºÀ/.iotlink/sdk/IoT_LINK/iot_link/os/liteos/base/ipc\los_queue.c ****     }
ARM GAS  C:\Users\²Ü¼ÒºÀ\AppData\Local\Temp\ccapTJCk.s 			page 32


 396:C:/Users/²Ü¼ÒºÀ/.iotlink/sdk/IoT_LINK/iot_link/os/liteos/base/ipc\los_queue.c **** 
 397:C:/Users/²Ü¼ÒºÀ/.iotlink/sdk/IoT_LINK/iot_link/os/liteos/base/ipc\los_queue.c ****     uwOperateType = OS_QUEUE_OPERATE_TYPE(OS_QUEUE_READ, OS_QUEUE_HEAD,OS_QUEUE_NOT_POINT);
 955              		.loc 1 397 5 is_stmt 1 view .LVU320
 398:C:/Users/²Ü¼ÒºÀ/.iotlink/sdk/IoT_LINK/iot_link/os/liteos/base/ipc\los_queue.c ****     return osQueueOperate(uwQueueID, uwOperateType, pBufferAddr, puwBufferSize, uwTimeOut);
 956              		.loc 1 398 5 view .LVU321
 957              		.loc 1 398 12 is_stmt 0 view .LVU322
 958 0018 0097     		str	r7, [sp]
 959 001a 2346     		mov	r3, r4
 960 001c 3246     		mov	r2, r6
 961 001e 0021     		movs	r1, #0
 962 0020 2846     		mov	r0, r5
 963 0022 FFF7FEFF 		bl	osQueueOperate
 964              	.LVL97:
 965              	.L49:
 399:C:/Users/²Ü¼ÒºÀ/.iotlink/sdk/IoT_LINK/iot_link/os/liteos/base/ipc\los_queue.c **** }
 966              		.loc 1 399 1 view .LVU323
 967 0026 03B0     		add	sp, sp, #12
 968              	.LCFI6:
 969              		.cfi_remember_state
 970              		.cfi_def_cfa_offset 20
 971              		@ sp needed
 972 0028 F0BD     		pop	{r4, r5, r6, r7, pc}
 973              	.LVL98:
 974              	.L51:
 975              	.LCFI7:
 976              		.cfi_restore_state
 977              	.LBB90:
 978              	.LBB88:
 979              	.LBB85:
 980              	.LBI85:
 177:C:/Users/²Ü¼ÒºÀ/.iotlink/sdk/IoT_LINK/iot_link/os/liteos/base/ipc\los_queue.c **** {
 981              		.loc 1 177 39 is_stmt 1 view .LVU324
 982              	.LBB86:
 195:C:/Users/²Ü¼ÒºÀ/.iotlink/sdk/IoT_LINK/iot_link/os/liteos/base/ipc\los_queue.c ****         {
 983              		.loc 1 195 9 view .LVU325
 195:C:/Users/²Ü¼ÒºÀ/.iotlink/sdk/IoT_LINK/iot_link/os/liteos/base/ipc\los_queue.c ****         {
 984              		.loc 1 195 13 is_stmt 0 view .LVU326
 985 002a FFF7FEFF 		bl	osIntNumGet
 986              	.LVL99:
 195:C:/Users/²Ü¼ÒºÀ/.iotlink/sdk/IoT_LINK/iot_link/os/liteos/base/ipc\los_queue.c ****         {
 987              		.loc 1 195 12 view .LVU327
 988 002e 0028     		cmp	r0, #0
 989 0030 F2D0     		beq	.L52
 197:C:/Users/²Ü¼ÒºÀ/.iotlink/sdk/IoT_LINK/iot_link/os/liteos/base/ipc\los_queue.c ****         }
 990              		.loc 1 197 20 view .LVU328
 991 0032 0448     		ldr	r0, .L60
 992 0034 F7E7     		b	.L49
 993              	.LVL100:
 994              	.L53:
 197:C:/Users/²Ü¼ÒºÀ/.iotlink/sdk/IoT_LINK/iot_link/os/liteos/base/ipc\los_queue.c ****         }
 995              		.loc 1 197 20 view .LVU329
 996              	.LBE86:
 997              	.LBE85:
 181:C:/Users/²Ü¼ÒºÀ/.iotlink/sdk/IoT_LINK/iot_link/os/liteos/base/ipc\los_queue.c ****     }
 998              		.loc 1 181 16 view .LVU330
 999 0036 0448     		ldr	r0, .L60+4
 1000              	.LVL101:
ARM GAS  C:\Users\²Ü¼ÒºÀ\AppData\Local\Temp\ccapTJCk.s 			page 33


 181:C:/Users/²Ü¼ÒºÀ/.iotlink/sdk/IoT_LINK/iot_link/os/liteos/base/ipc\los_queue.c ****     }
 1001              		.loc 1 181 16 view .LVU331
 1002 0038 F5E7     		b	.L49
 1003              	.LVL102:
 1004              	.L55:
 185:C:/Users/²Ü¼ÒºÀ/.iotlink/sdk/IoT_LINK/iot_link/os/liteos/base/ipc\los_queue.c ****     }
 1005              		.loc 1 185 16 view .LVU332
 1006 003a 0448     		ldr	r0, .L60+8
 1007              	.LVL103:
 185:C:/Users/²Ü¼ÒºÀ/.iotlink/sdk/IoT_LINK/iot_link/os/liteos/base/ipc\los_queue.c ****     }
 1008              		.loc 1 185 16 view .LVU333
 1009 003c F3E7     		b	.L49
 1010              	.LVL104:
 1011              	.L56:
 190:C:/Users/²Ü¼ÒºÀ/.iotlink/sdk/IoT_LINK/iot_link/os/liteos/base/ipc\los_queue.c ****     }
 1012              		.loc 1 190 16 view .LVU334
 1013 003e 0448     		ldr	r0, .L60+12
 1014              	.LVL105:
 190:C:/Users/²Ü¼ÒºÀ/.iotlink/sdk/IoT_LINK/iot_link/os/liteos/base/ipc\los_queue.c ****     }
 1015              		.loc 1 190 16 view .LVU335
 1016 0040 F1E7     		b	.L49
 1017              	.L61:
 1018 0042 00BF     		.align	2
 1019              	.L60:
 1020 0044 18060002 		.word	33555992
 1021 0048 0E060002 		.word	33555982
 1022 004c 0F060002 		.word	33555983
 1023 0050 10060002 		.word	33555984
 1024              	.LBE88:
 1025              	.LBE90:
 1026              		.cfi_endproc
 1027              	.LFE293:
 1029              		.section	.text.LOS_QueueWriteHeadCopy,"ax",%progbits
 1030              		.align	1
 1031              		.global	LOS_QueueWriteHeadCopy
 1032              		.syntax unified
 1033              		.thumb
 1034              		.thumb_func
 1035              		.fpu fpv4-sp-d16
 1037              	LOS_QueueWriteHeadCopy:
 1038              	.LVL106:
 1039              	.LFB294:
 400:C:/Users/²Ü¼ÒºÀ/.iotlink/sdk/IoT_LINK/iot_link/os/liteos/base/ipc\los_queue.c **** 
 401:C:/Users/²Ü¼ÒºÀ/.iotlink/sdk/IoT_LINK/iot_link/os/liteos/base/ipc\los_queue.c **** /*****************************************************************************
 402:C:/Users/²Ü¼ÒºÀ/.iotlink/sdk/IoT_LINK/iot_link/os/liteos/base/ipc\los_queue.c ****  Function    : LOS_QueueWriteHeadCopy
 403:C:/Users/²Ü¼ÒºÀ/.iotlink/sdk/IoT_LINK/iot_link/os/liteos/base/ipc\los_queue.c ****  Description : Write queue head
 404:C:/Users/²Ü¼ÒºÀ/.iotlink/sdk/IoT_LINK/iot_link/os/liteos/base/ipc\los_queue.c ****  Input       : uwQueueID
 405:C:/Users/²Ü¼ÒºÀ/.iotlink/sdk/IoT_LINK/iot_link/os/liteos/base/ipc\los_queue.c ****                pBufferAddr
 406:C:/Users/²Ü¼ÒºÀ/.iotlink/sdk/IoT_LINK/iot_link/os/liteos/base/ipc\los_queue.c ****                uwBufferSize
 407:C:/Users/²Ü¼ÒºÀ/.iotlink/sdk/IoT_LINK/iot_link/os/liteos/base/ipc\los_queue.c ****                uwTimeOut
 408:C:/Users/²Ü¼ÒºÀ/.iotlink/sdk/IoT_LINK/iot_link/os/liteos/base/ipc\los_queue.c ****  Output      : None
 409:C:/Users/²Ü¼ÒºÀ/.iotlink/sdk/IoT_LINK/iot_link/os/liteos/base/ipc\los_queue.c ****  Return      : LOS_OK on success or error code on failure
 410:C:/Users/²Ü¼ÒºÀ/.iotlink/sdk/IoT_LINK/iot_link/os/liteos/base/ipc\los_queue.c ****  *****************************************************************************/
 411:C:/Users/²Ü¼ÒºÀ/.iotlink/sdk/IoT_LINK/iot_link/os/liteos/base/ipc\los_queue.c **** LITE_OS_SEC_TEXT UINT32 LOS_QueueWriteHeadCopy(UINT32 uwQueueID,
 412:C:/Users/²Ü¼ÒºÀ/.iotlink/sdk/IoT_LINK/iot_link/os/liteos/base/ipc\los_queue.c ****                                      VOID * pBufferAddr,
 413:C:/Users/²Ü¼ÒºÀ/.iotlink/sdk/IoT_LINK/iot_link/os/liteos/base/ipc\los_queue.c ****                                      UINT32 uwBufferSize,
 414:C:/Users/²Ü¼ÒºÀ/.iotlink/sdk/IoT_LINK/iot_link/os/liteos/base/ipc\los_queue.c ****                                      UINT32 uwTimeOut )
ARM GAS  C:\Users\²Ü¼ÒºÀ\AppData\Local\Temp\ccapTJCk.s 			page 34


 415:C:/Users/²Ü¼ÒºÀ/.iotlink/sdk/IoT_LINK/iot_link/os/liteos/base/ipc\los_queue.c **** {
 1040              		.loc 1 415 1 is_stmt 1 view -0
 1041              		.cfi_startproc
 1042              		@ args = 0, pretend = 0, frame = 8
 1043              		@ frame_needed = 0, uses_anonymous_args = 0
 416:C:/Users/²Ü¼ÒºÀ/.iotlink/sdk/IoT_LINK/iot_link/os/liteos/base/ipc\los_queue.c ****     UINT32 uwRet;
 1044              		.loc 1 416 5 view .LVU337
 417:C:/Users/²Ü¼ÒºÀ/.iotlink/sdk/IoT_LINK/iot_link/os/liteos/base/ipc\los_queue.c ****     UINT32 uwOperateType;
 1045              		.loc 1 417 5 view .LVU338
 418:C:/Users/²Ü¼ÒºÀ/.iotlink/sdk/IoT_LINK/iot_link/os/liteos/base/ipc\los_queue.c **** 
 419:C:/Users/²Ü¼ÒºÀ/.iotlink/sdk/IoT_LINK/iot_link/os/liteos/base/ipc\los_queue.c ****     uwRet = osQueueWriteParameterCheck(uwQueueID, pBufferAddr, &uwBufferSize, uwTimeOut);
 1046              		.loc 1 419 5 view .LVU339
 415:C:/Users/²Ü¼ÒºÀ/.iotlink/sdk/IoT_LINK/iot_link/os/liteos/base/ipc\los_queue.c ****     UINT32 uwRet;
 1047              		.loc 1 415 1 is_stmt 0 view .LVU340
 1048 0000 7FB5     		push	{r0, r1, r2, r3, r4, r5, r6, lr}
 1049              	.LCFI8:
 1050              		.cfi_def_cfa_offset 32
 1051              		.cfi_offset 4, -16
 1052              		.cfi_offset 5, -12
 1053              		.cfi_offset 6, -8
 1054              		.cfi_offset 14, -4
 1055              	.LVL107:
 1056              	.LBB95:
 1057              	.LBI95:
 204:C:/Users/²Ü¼ÒºÀ/.iotlink/sdk/IoT_LINK/iot_link/os/liteos/base/ipc\los_queue.c **** {
 1058              		.loc 1 204 39 is_stmt 1 view .LVU341
 1059              	.LBB96:
 206:C:/Users/²Ü¼ÒºÀ/.iotlink/sdk/IoT_LINK/iot_link/os/liteos/base/ipc\los_queue.c ****     {
 1060              		.loc 1 206 5 view .LVU342
 206:C:/Users/²Ü¼ÒºÀ/.iotlink/sdk/IoT_LINK/iot_link/os/liteos/base/ipc\los_queue.c ****     {
 1061              		.loc 1 206 8 is_stmt 0 view .LVU343
 1062 0002 0928     		cmp	r0, #9
 1063              	.LBE96:
 1064              	.LBE95:
 415:C:/Users/²Ü¼ÒºÀ/.iotlink/sdk/IoT_LINK/iot_link/os/liteos/base/ipc\los_queue.c ****     UINT32 uwRet;
 1065              		.loc 1 415 1 view .LVU344
 1066 0004 0446     		mov	r4, r0
 1067 0006 0D46     		mov	r5, r1
 1068 0008 0392     		str	r2, [sp, #12]
 1069 000a 1E46     		mov	r6, r3
 1070              	.LBB101:
 1071              	.LBB99:
 206:C:/Users/²Ü¼ÒºÀ/.iotlink/sdk/IoT_LINK/iot_link/os/liteos/base/ipc\los_queue.c ****     {
 1072              		.loc 1 206 8 view .LVU345
 1073 000c 11D8     		bhi	.L66
 211:C:/Users/²Ü¼ÒºÀ/.iotlink/sdk/IoT_LINK/iot_link/os/liteos/base/ipc\los_queue.c ****     {
 1074              		.loc 1 211 5 is_stmt 1 view .LVU346
 211:C:/Users/²Ü¼ÒºÀ/.iotlink/sdk/IoT_LINK/iot_link/os/liteos/base/ipc\los_queue.c ****     {
 1075              		.loc 1 211 8 is_stmt 0 view .LVU347
 1076 000e 91B1     		cbz	r1, .L67
 216:C:/Users/²Ü¼ÒºÀ/.iotlink/sdk/IoT_LINK/iot_link/os/liteos/base/ipc\los_queue.c ****     {
 1077              		.loc 1 216 5 is_stmt 1 view .LVU348
 216:C:/Users/²Ü¼ÒºÀ/.iotlink/sdk/IoT_LINK/iot_link/os/liteos/base/ipc\los_queue.c ****     {
 1078              		.loc 1 216 8 is_stmt 0 view .LVU349
 1079 0010 9AB1     		cbz	r2, .L68
 221:C:/Users/²Ü¼ÒºÀ/.iotlink/sdk/IoT_LINK/iot_link/os/liteos/base/ipc\los_queue.c ****     {
 1080              		.loc 1 221 5 is_stmt 1 view .LVU350
ARM GAS  C:\Users\²Ü¼ÒºÀ\AppData\Local\Temp\ccapTJCk.s 			page 35


 221:C:/Users/²Ü¼ÒºÀ/.iotlink/sdk/IoT_LINK/iot_link/os/liteos/base/ipc\los_queue.c ****     {
 1081              		.loc 1 221 8 is_stmt 0 view .LVU351
 1082 0012 43B9     		cbnz	r3, .L64
 1083              	.LVL108:
 1084              	.L65:
 221:C:/Users/²Ü¼ÒºÀ/.iotlink/sdk/IoT_LINK/iot_link/os/liteos/base/ipc\los_queue.c ****     {
 1085              		.loc 1 221 8 view .LVU352
 1086              	.LBE99:
 1087              	.LBE101:
 420:C:/Users/²Ü¼ÒºÀ/.iotlink/sdk/IoT_LINK/iot_link/os/liteos/base/ipc\los_queue.c ****     if(uwRet != LOS_OK)
 421:C:/Users/²Ü¼ÒºÀ/.iotlink/sdk/IoT_LINK/iot_link/os/liteos/base/ipc\los_queue.c ****     {
 422:C:/Users/²Ü¼ÒºÀ/.iotlink/sdk/IoT_LINK/iot_link/os/liteos/base/ipc\los_queue.c ****         return uwRet;
 423:C:/Users/²Ü¼ÒºÀ/.iotlink/sdk/IoT_LINK/iot_link/os/liteos/base/ipc\los_queue.c ****     }
 424:C:/Users/²Ü¼ÒºÀ/.iotlink/sdk/IoT_LINK/iot_link/os/liteos/base/ipc\los_queue.c **** 
 425:C:/Users/²Ü¼ÒºÀ/.iotlink/sdk/IoT_LINK/iot_link/os/liteos/base/ipc\los_queue.c ****     uwOperateType = OS_QUEUE_OPERATE_TYPE(OS_QUEUE_WRITE, OS_QUEUE_HEAD,OS_QUEUE_NOT_POINT);
 1088              		.loc 1 425 5 is_stmt 1 view .LVU353
 426:C:/Users/²Ü¼ÒºÀ/.iotlink/sdk/IoT_LINK/iot_link/os/liteos/base/ipc\los_queue.c ****     return osQueueOperate(uwQueueID, uwOperateType, pBufferAddr, &uwBufferSize, uwTimeOut);
 1089              		.loc 1 426 5 view .LVU354
 1090              		.loc 1 426 12 is_stmt 0 view .LVU355
 1091 0014 0096     		str	r6, [sp]
 1092 0016 03AB     		add	r3, sp, #12
 1093 0018 2A46     		mov	r2, r5
 1094 001a 0121     		movs	r1, #1
 1095 001c 2046     		mov	r0, r4
 1096 001e FFF7FEFF 		bl	osQueueOperate
 1097              	.LVL109:
 1098              	.L62:
 427:C:/Users/²Ü¼ÒºÀ/.iotlink/sdk/IoT_LINK/iot_link/os/liteos/base/ipc\los_queue.c **** }
 1099              		.loc 1 427 1 view .LVU356
 1100 0022 04B0     		add	sp, sp, #16
 1101              	.LCFI9:
 1102              		.cfi_remember_state
 1103              		.cfi_def_cfa_offset 16
 1104              		@ sp needed
 1105 0024 70BD     		pop	{r4, r5, r6, pc}
 1106              	.LVL110:
 1107              	.L64:
 1108              	.LCFI10:
 1109              		.cfi_restore_state
 1110              	.LBB102:
 1111              	.LBB100:
 1112              	.LBB97:
 1113              	.LBI97:
 204:C:/Users/²Ü¼ÒºÀ/.iotlink/sdk/IoT_LINK/iot_link/os/liteos/base/ipc\los_queue.c **** {
 1114              		.loc 1 204 39 is_stmt 1 view .LVU357
 1115              	.LBB98:
 223:C:/Users/²Ü¼ÒºÀ/.iotlink/sdk/IoT_LINK/iot_link/os/liteos/base/ipc\los_queue.c ****         {
 1116              		.loc 1 223 9 view .LVU358
 223:C:/Users/²Ü¼ÒºÀ/.iotlink/sdk/IoT_LINK/iot_link/os/liteos/base/ipc\los_queue.c ****         {
 1117              		.loc 1 223 13 is_stmt 0 view .LVU359
 1118 0026 FFF7FEFF 		bl	osIntNumGet
 1119              	.LVL111:
 223:C:/Users/²Ü¼ÒºÀ/.iotlink/sdk/IoT_LINK/iot_link/os/liteos/base/ipc\los_queue.c ****         {
 1120              		.loc 1 223 12 view .LVU360
 1121 002a 0028     		cmp	r0, #0
 1122 002c F2D0     		beq	.L65
 225:C:/Users/²Ü¼ÒºÀ/.iotlink/sdk/IoT_LINK/iot_link/os/liteos/base/ipc\los_queue.c ****         }
ARM GAS  C:\Users\²Ü¼ÒºÀ\AppData\Local\Temp\ccapTJCk.s 			page 36


 1123              		.loc 1 225 20 view .LVU361
 1124 002e 0448     		ldr	r0, .L72
 1125 0030 F7E7     		b	.L62
 1126              	.LVL112:
 1127              	.L66:
 225:C:/Users/²Ü¼ÒºÀ/.iotlink/sdk/IoT_LINK/iot_link/os/liteos/base/ipc\los_queue.c ****         }
 1128              		.loc 1 225 20 view .LVU362
 1129              	.LBE98:
 1130              	.LBE97:
 208:C:/Users/²Ü¼ÒºÀ/.iotlink/sdk/IoT_LINK/iot_link/os/liteos/base/ipc\los_queue.c ****     }
 1131              		.loc 1 208 16 view .LVU363
 1132 0032 0448     		ldr	r0, .L72+4
 1133              	.LVL113:
 208:C:/Users/²Ü¼ÒºÀ/.iotlink/sdk/IoT_LINK/iot_link/os/liteos/base/ipc\los_queue.c ****     }
 1134              		.loc 1 208 16 view .LVU364
 1135 0034 F5E7     		b	.L62
 1136              	.LVL114:
 1137              	.L67:
 213:C:/Users/²Ü¼ÒºÀ/.iotlink/sdk/IoT_LINK/iot_link/os/liteos/base/ipc\los_queue.c ****     }
 1138              		.loc 1 213 16 view .LVU365
 1139 0036 0448     		ldr	r0, .L72+8
 1140              	.LVL115:
 213:C:/Users/²Ü¼ÒºÀ/.iotlink/sdk/IoT_LINK/iot_link/os/liteos/base/ipc\los_queue.c ****     }
 1141              		.loc 1 213 16 view .LVU366
 1142 0038 F3E7     		b	.L62
 1143              	.LVL116:
 1144              	.L68:
 218:C:/Users/²Ü¼ÒºÀ/.iotlink/sdk/IoT_LINK/iot_link/os/liteos/base/ipc\los_queue.c ****     }
 1145              		.loc 1 218 16 view .LVU367
 1146 003a 0448     		ldr	r0, .L72+12
 1147              	.LVL117:
 218:C:/Users/²Ü¼ÒºÀ/.iotlink/sdk/IoT_LINK/iot_link/os/liteos/base/ipc\los_queue.c ****     }
 1148              		.loc 1 218 16 view .LVU368
 1149 003c F1E7     		b	.L62
 1150              	.L73:
 1151 003e 00BF     		.align	2
 1152              	.L72:
 1153 0040 09060002 		.word	33555977
 1154 0044 0E060002 		.word	33555982
 1155 0048 12060002 		.word	33555986
 1156 004c 13060002 		.word	33555987
 1157              	.LBE100:
 1158              	.LBE102:
 1159              		.cfi_endproc
 1160              	.LFE294:
 1162              		.section	.text.LOS_QueueWriteCopy,"ax",%progbits
 1163              		.align	1
 1164              		.global	LOS_QueueWriteCopy
 1165              		.syntax unified
 1166              		.thumb
 1167              		.thumb_func
 1168              		.fpu fpv4-sp-d16
 1170              	LOS_QueueWriteCopy:
 1171              	.LVL118:
 1172              	.LFB295:
 428:C:/Users/²Ü¼ÒºÀ/.iotlink/sdk/IoT_LINK/iot_link/os/liteos/base/ipc\los_queue.c **** 
 429:C:/Users/²Ü¼ÒºÀ/.iotlink/sdk/IoT_LINK/iot_link/os/liteos/base/ipc\los_queue.c **** /*****************************************************************************
ARM GAS  C:\Users\²Ü¼ÒºÀ\AppData\Local\Temp\ccapTJCk.s 			page 37


 430:C:/Users/²Ü¼ÒºÀ/.iotlink/sdk/IoT_LINK/iot_link/os/liteos/base/ipc\los_queue.c ****  Function    : LOS_QueueWriteCopy
 431:C:/Users/²Ü¼ÒºÀ/.iotlink/sdk/IoT_LINK/iot_link/os/liteos/base/ipc\los_queue.c ****  Description : Write queue tail
 432:C:/Users/²Ü¼ÒºÀ/.iotlink/sdk/IoT_LINK/iot_link/os/liteos/base/ipc\los_queue.c ****  Input       : uwQueueID
 433:C:/Users/²Ü¼ÒºÀ/.iotlink/sdk/IoT_LINK/iot_link/os/liteos/base/ipc\los_queue.c ****                pBufferAddr
 434:C:/Users/²Ü¼ÒºÀ/.iotlink/sdk/IoT_LINK/iot_link/os/liteos/base/ipc\los_queue.c ****                uwBufferSize
 435:C:/Users/²Ü¼ÒºÀ/.iotlink/sdk/IoT_LINK/iot_link/os/liteos/base/ipc\los_queue.c ****                uwTimeOut
 436:C:/Users/²Ü¼ÒºÀ/.iotlink/sdk/IoT_LINK/iot_link/os/liteos/base/ipc\los_queue.c ****  Output      : None
 437:C:/Users/²Ü¼ÒºÀ/.iotlink/sdk/IoT_LINK/iot_link/os/liteos/base/ipc\los_queue.c ****  Return      : LOS_OK on success or error code on failure
 438:C:/Users/²Ü¼ÒºÀ/.iotlink/sdk/IoT_LINK/iot_link/os/liteos/base/ipc\los_queue.c ****  *****************************************************************************/
 439:C:/Users/²Ü¼ÒºÀ/.iotlink/sdk/IoT_LINK/iot_link/os/liteos/base/ipc\los_queue.c **** LITE_OS_SEC_TEXT UINT32 LOS_QueueWriteCopy( UINT32 uwQueueID,
 440:C:/Users/²Ü¼ÒºÀ/.iotlink/sdk/IoT_LINK/iot_link/os/liteos/base/ipc\los_queue.c ****                                      VOID * pBufferAddr,
 441:C:/Users/²Ü¼ÒºÀ/.iotlink/sdk/IoT_LINK/iot_link/os/liteos/base/ipc\los_queue.c ****                                      UINT32 uwBufferSize,
 442:C:/Users/²Ü¼ÒºÀ/.iotlink/sdk/IoT_LINK/iot_link/os/liteos/base/ipc\los_queue.c ****                                      UINT32 uwTimeOut )
 443:C:/Users/²Ü¼ÒºÀ/.iotlink/sdk/IoT_LINK/iot_link/os/liteos/base/ipc\los_queue.c **** {
 1173              		.loc 1 443 1 is_stmt 1 view -0
 1174              		.cfi_startproc
 1175              		@ args = 0, pretend = 0, frame = 8
 1176              		@ frame_needed = 0, uses_anonymous_args = 0
 444:C:/Users/²Ü¼ÒºÀ/.iotlink/sdk/IoT_LINK/iot_link/os/liteos/base/ipc\los_queue.c ****     UINT32 uwRet;
 1177              		.loc 1 444 5 view .LVU370
 445:C:/Users/²Ü¼ÒºÀ/.iotlink/sdk/IoT_LINK/iot_link/os/liteos/base/ipc\los_queue.c ****     UINT32 uwOperateType;
 1178              		.loc 1 445 5 view .LVU371
 446:C:/Users/²Ü¼ÒºÀ/.iotlink/sdk/IoT_LINK/iot_link/os/liteos/base/ipc\los_queue.c **** 
 447:C:/Users/²Ü¼ÒºÀ/.iotlink/sdk/IoT_LINK/iot_link/os/liteos/base/ipc\los_queue.c ****     uwRet = osQueueWriteParameterCheck(uwQueueID, pBufferAddr, &uwBufferSize, uwTimeOut);
 1179              		.loc 1 447 5 view .LVU372
 443:C:/Users/²Ü¼ÒºÀ/.iotlink/sdk/IoT_LINK/iot_link/os/liteos/base/ipc\los_queue.c ****     UINT32 uwRet;
 1180              		.loc 1 443 1 is_stmt 0 view .LVU373
 1181 0000 7FB5     		push	{r0, r1, r2, r3, r4, r5, r6, lr}
 1182              	.LCFI11:
 1183              		.cfi_def_cfa_offset 32
 1184              		.cfi_offset 4, -16
 1185              		.cfi_offset 5, -12
 1186              		.cfi_offset 6, -8
 1187              		.cfi_offset 14, -4
 1188              	.LVL119:
 1189              	.LBB107:
 1190              	.LBI107:
 204:C:/Users/²Ü¼ÒºÀ/.iotlink/sdk/IoT_LINK/iot_link/os/liteos/base/ipc\los_queue.c **** {
 1191              		.loc 1 204 39 is_stmt 1 view .LVU374
 1192              	.LBB108:
 206:C:/Users/²Ü¼ÒºÀ/.iotlink/sdk/IoT_LINK/iot_link/os/liteos/base/ipc\los_queue.c ****     {
 1193              		.loc 1 206 5 view .LVU375
 206:C:/Users/²Ü¼ÒºÀ/.iotlink/sdk/IoT_LINK/iot_link/os/liteos/base/ipc\los_queue.c ****     {
 1194              		.loc 1 206 8 is_stmt 0 view .LVU376
 1195 0002 0928     		cmp	r0, #9
 1196              	.LBE108:
 1197              	.LBE107:
 443:C:/Users/²Ü¼ÒºÀ/.iotlink/sdk/IoT_LINK/iot_link/os/liteos/base/ipc\los_queue.c ****     UINT32 uwRet;
 1198              		.loc 1 443 1 view .LVU377
 1199 0004 0446     		mov	r4, r0
 1200 0006 0D46     		mov	r5, r1
 1201 0008 0392     		str	r2, [sp, #12]
 1202 000a 1E46     		mov	r6, r3
 1203              	.LBB113:
 1204              	.LBB111:
 206:C:/Users/²Ü¼ÒºÀ/.iotlink/sdk/IoT_LINK/iot_link/os/liteos/base/ipc\los_queue.c ****     {
 1205              		.loc 1 206 8 view .LVU378
ARM GAS  C:\Users\²Ü¼ÒºÀ\AppData\Local\Temp\ccapTJCk.s 			page 38


 1206 000c 11D8     		bhi	.L78
 211:C:/Users/²Ü¼ÒºÀ/.iotlink/sdk/IoT_LINK/iot_link/os/liteos/base/ipc\los_queue.c ****     {
 1207              		.loc 1 211 5 is_stmt 1 view .LVU379
 211:C:/Users/²Ü¼ÒºÀ/.iotlink/sdk/IoT_LINK/iot_link/os/liteos/base/ipc\los_queue.c ****     {
 1208              		.loc 1 211 8 is_stmt 0 view .LVU380
 1209 000e 91B1     		cbz	r1, .L79
 216:C:/Users/²Ü¼ÒºÀ/.iotlink/sdk/IoT_LINK/iot_link/os/liteos/base/ipc\los_queue.c ****     {
 1210              		.loc 1 216 5 is_stmt 1 view .LVU381
 216:C:/Users/²Ü¼ÒºÀ/.iotlink/sdk/IoT_LINK/iot_link/os/liteos/base/ipc\los_queue.c ****     {
 1211              		.loc 1 216 8 is_stmt 0 view .LVU382
 1212 0010 9AB1     		cbz	r2, .L80
 221:C:/Users/²Ü¼ÒºÀ/.iotlink/sdk/IoT_LINK/iot_link/os/liteos/base/ipc\los_queue.c ****     {
 1213              		.loc 1 221 5 is_stmt 1 view .LVU383
 221:C:/Users/²Ü¼ÒºÀ/.iotlink/sdk/IoT_LINK/iot_link/os/liteos/base/ipc\los_queue.c ****     {
 1214              		.loc 1 221 8 is_stmt 0 view .LVU384
 1215 0012 43B9     		cbnz	r3, .L76
 1216              	.LVL120:
 1217              	.L77:
 221:C:/Users/²Ü¼ÒºÀ/.iotlink/sdk/IoT_LINK/iot_link/os/liteos/base/ipc\los_queue.c ****     {
 1218              		.loc 1 221 8 view .LVU385
 1219              	.LBE111:
 1220              	.LBE113:
 448:C:/Users/²Ü¼ÒºÀ/.iotlink/sdk/IoT_LINK/iot_link/os/liteos/base/ipc\los_queue.c ****     if(uwRet != LOS_OK)
 449:C:/Users/²Ü¼ÒºÀ/.iotlink/sdk/IoT_LINK/iot_link/os/liteos/base/ipc\los_queue.c ****     {
 450:C:/Users/²Ü¼ÒºÀ/.iotlink/sdk/IoT_LINK/iot_link/os/liteos/base/ipc\los_queue.c ****         return uwRet;
 451:C:/Users/²Ü¼ÒºÀ/.iotlink/sdk/IoT_LINK/iot_link/os/liteos/base/ipc\los_queue.c ****     }
 452:C:/Users/²Ü¼ÒºÀ/.iotlink/sdk/IoT_LINK/iot_link/os/liteos/base/ipc\los_queue.c **** 
 453:C:/Users/²Ü¼ÒºÀ/.iotlink/sdk/IoT_LINK/iot_link/os/liteos/base/ipc\los_queue.c ****     uwOperateType = OS_QUEUE_OPERATE_TYPE(OS_QUEUE_WRITE, OS_QUEUE_TAIL, OS_QUEUE_NOT_POINT);
 1221              		.loc 1 453 5 is_stmt 1 view .LVU386
 454:C:/Users/²Ü¼ÒºÀ/.iotlink/sdk/IoT_LINK/iot_link/os/liteos/base/ipc\los_queue.c ****     return osQueueOperate(uwQueueID, uwOperateType, pBufferAddr, &uwBufferSize, uwTimeOut);
 1222              		.loc 1 454 5 view .LVU387
 1223              		.loc 1 454 12 is_stmt 0 view .LVU388
 1224 0014 0096     		str	r6, [sp]
 1225 0016 03AB     		add	r3, sp, #12
 1226 0018 2A46     		mov	r2, r5
 1227 001a 0321     		movs	r1, #3
 1228 001c 2046     		mov	r0, r4
 1229 001e FFF7FEFF 		bl	osQueueOperate
 1230              	.LVL121:
 1231              	.L74:
 455:C:/Users/²Ü¼ÒºÀ/.iotlink/sdk/IoT_LINK/iot_link/os/liteos/base/ipc\los_queue.c **** }
 1232              		.loc 1 455 1 view .LVU389
 1233 0022 04B0     		add	sp, sp, #16
 1234              	.LCFI12:
 1235              		.cfi_remember_state
 1236              		.cfi_def_cfa_offset 16
 1237              		@ sp needed
 1238 0024 70BD     		pop	{r4, r5, r6, pc}
 1239              	.LVL122:
 1240              	.L76:
 1241              	.LCFI13:
 1242              		.cfi_restore_state
 1243              	.LBB114:
 1244              	.LBB112:
 1245              	.LBB109:
 1246              	.LBI109:
 204:C:/Users/²Ü¼ÒºÀ/.iotlink/sdk/IoT_LINK/iot_link/os/liteos/base/ipc\los_queue.c **** {
ARM GAS  C:\Users\²Ü¼ÒºÀ\AppData\Local\Temp\ccapTJCk.s 			page 39


 1247              		.loc 1 204 39 is_stmt 1 view .LVU390
 1248              	.LBB110:
 223:C:/Users/²Ü¼ÒºÀ/.iotlink/sdk/IoT_LINK/iot_link/os/liteos/base/ipc\los_queue.c ****         {
 1249              		.loc 1 223 9 view .LVU391
 223:C:/Users/²Ü¼ÒºÀ/.iotlink/sdk/IoT_LINK/iot_link/os/liteos/base/ipc\los_queue.c ****         {
 1250              		.loc 1 223 13 is_stmt 0 view .LVU392
 1251 0026 FFF7FEFF 		bl	osIntNumGet
 1252              	.LVL123:
 223:C:/Users/²Ü¼ÒºÀ/.iotlink/sdk/IoT_LINK/iot_link/os/liteos/base/ipc\los_queue.c ****         {
 1253              		.loc 1 223 12 view .LVU393
 1254 002a 0028     		cmp	r0, #0
 1255 002c F2D0     		beq	.L77
 225:C:/Users/²Ü¼ÒºÀ/.iotlink/sdk/IoT_LINK/iot_link/os/liteos/base/ipc\los_queue.c ****         }
 1256              		.loc 1 225 20 view .LVU394
 1257 002e 0448     		ldr	r0, .L84
 1258 0030 F7E7     		b	.L74
 1259              	.LVL124:
 1260              	.L78:
 225:C:/Users/²Ü¼ÒºÀ/.iotlink/sdk/IoT_LINK/iot_link/os/liteos/base/ipc\los_queue.c ****         }
 1261              		.loc 1 225 20 view .LVU395
 1262              	.LBE110:
 1263              	.LBE109:
 208:C:/Users/²Ü¼ÒºÀ/.iotlink/sdk/IoT_LINK/iot_link/os/liteos/base/ipc\los_queue.c ****     }
 1264              		.loc 1 208 16 view .LVU396
 1265 0032 0448     		ldr	r0, .L84+4
 1266              	.LVL125:
 208:C:/Users/²Ü¼ÒºÀ/.iotlink/sdk/IoT_LINK/iot_link/os/liteos/base/ipc\los_queue.c ****     }
 1267              		.loc 1 208 16 view .LVU397
 1268 0034 F5E7     		b	.L74
 1269              	.LVL126:
 1270              	.L79:
 213:C:/Users/²Ü¼ÒºÀ/.iotlink/sdk/IoT_LINK/iot_link/os/liteos/base/ipc\los_queue.c ****     }
 1271              		.loc 1 213 16 view .LVU398
 1272 0036 0448     		ldr	r0, .L84+8
 1273              	.LVL127:
 213:C:/Users/²Ü¼ÒºÀ/.iotlink/sdk/IoT_LINK/iot_link/os/liteos/base/ipc\los_queue.c ****     }
 1274              		.loc 1 213 16 view .LVU399
 1275 0038 F3E7     		b	.L74
 1276              	.LVL128:
 1277              	.L80:
 218:C:/Users/²Ü¼ÒºÀ/.iotlink/sdk/IoT_LINK/iot_link/os/liteos/base/ipc\los_queue.c ****     }
 1278              		.loc 1 218 16 view .LVU400
 1279 003a 0448     		ldr	r0, .L84+12
 1280              	.LVL129:
 218:C:/Users/²Ü¼ÒºÀ/.iotlink/sdk/IoT_LINK/iot_link/os/liteos/base/ipc\los_queue.c ****     }
 1281              		.loc 1 218 16 view .LVU401
 1282 003c F1E7     		b	.L74
 1283              	.L85:
 1284 003e 00BF     		.align	2
 1285              	.L84:
 1286 0040 09060002 		.word	33555977
 1287 0044 0E060002 		.word	33555982
 1288 0048 12060002 		.word	33555986
 1289 004c 13060002 		.word	33555987
 1290              	.LBE112:
 1291              	.LBE114:
 1292              		.cfi_endproc
ARM GAS  C:\Users\²Ü¼ÒºÀ\AppData\Local\Temp\ccapTJCk.s 			page 40


 1293              	.LFE295:
 1295              		.section	.text.LOS_QueueRead,"ax",%progbits
 1296              		.align	1
 1297              		.global	LOS_QueueRead
 1298              		.syntax unified
 1299              		.thumb
 1300              		.thumb_func
 1301              		.fpu fpv4-sp-d16
 1303              	LOS_QueueRead:
 1304              	.LVL130:
 1305              	.LFB296:
 456:C:/Users/²Ü¼ÒºÀ/.iotlink/sdk/IoT_LINK/iot_link/os/liteos/base/ipc\los_queue.c **** 
 457:C:/Users/²Ü¼ÒºÀ/.iotlink/sdk/IoT_LINK/iot_link/os/liteos/base/ipc\los_queue.c **** /*****************************************************************************
 458:C:/Users/²Ü¼ÒºÀ/.iotlink/sdk/IoT_LINK/iot_link/os/liteos/base/ipc\los_queue.c ****  Function    : LOS_QueueRead
 459:C:/Users/²Ü¼ÒºÀ/.iotlink/sdk/IoT_LINK/iot_link/os/liteos/base/ipc\los_queue.c ****  Description : read queue
 460:C:/Users/²Ü¼ÒºÀ/.iotlink/sdk/IoT_LINK/iot_link/os/liteos/base/ipc\los_queue.c ****  Input       : uwQueueID
 461:C:/Users/²Ü¼ÒºÀ/.iotlink/sdk/IoT_LINK/iot_link/os/liteos/base/ipc\los_queue.c ****                uwBufferSize
 462:C:/Users/²Ü¼ÒºÀ/.iotlink/sdk/IoT_LINK/iot_link/os/liteos/base/ipc\los_queue.c ****                uwTimeOut
 463:C:/Users/²Ü¼ÒºÀ/.iotlink/sdk/IoT_LINK/iot_link/os/liteos/base/ipc\los_queue.c ****  Output      : pBufferAddr
 464:C:/Users/²Ü¼ÒºÀ/.iotlink/sdk/IoT_LINK/iot_link/os/liteos/base/ipc\los_queue.c ****  Return      : LOS_OK on success or error code on failure
 465:C:/Users/²Ü¼ÒºÀ/.iotlink/sdk/IoT_LINK/iot_link/os/liteos/base/ipc\los_queue.c ****  *****************************************************************************/
 466:C:/Users/²Ü¼ÒºÀ/.iotlink/sdk/IoT_LINK/iot_link/os/liteos/base/ipc\los_queue.c **** LITE_OS_SEC_TEXT UINT32 LOS_QueueRead(UINT32  uwQueueID, VOID *pBufferAddr, UINT32 uwBufferSize, UI
 467:C:/Users/²Ü¼ÒºÀ/.iotlink/sdk/IoT_LINK/iot_link/os/liteos/base/ipc\los_queue.c **** {
 1306              		.loc 1 467 1 is_stmt 1 view -0
 1307              		.cfi_startproc
 1308              		@ args = 0, pretend = 0, frame = 8
 1309              		@ frame_needed = 0, uses_anonymous_args = 0
 468:C:/Users/²Ü¼ÒºÀ/.iotlink/sdk/IoT_LINK/iot_link/os/liteos/base/ipc\los_queue.c ****     UINT32 uwRet;
 1310              		.loc 1 468 5 view .LVU403
 469:C:/Users/²Ü¼ÒºÀ/.iotlink/sdk/IoT_LINK/iot_link/os/liteos/base/ipc\los_queue.c ****     UINT32 uwOperateType;
 1311              		.loc 1 469 5 view .LVU404
 470:C:/Users/²Ü¼ÒºÀ/.iotlink/sdk/IoT_LINK/iot_link/os/liteos/base/ipc\los_queue.c **** 
 471:C:/Users/²Ü¼ÒºÀ/.iotlink/sdk/IoT_LINK/iot_link/os/liteos/base/ipc\los_queue.c ****     uwRet = osQueueReadParameterCheck(uwQueueID, pBufferAddr, &uwBufferSize, uwTimeOut);
 1312              		.loc 1 471 5 view .LVU405
 467:C:/Users/²Ü¼ÒºÀ/.iotlink/sdk/IoT_LINK/iot_link/os/liteos/base/ipc\los_queue.c ****     UINT32 uwRet;
 1313              		.loc 1 467 1 is_stmt 0 view .LVU406
 1314 0000 7FB5     		push	{r0, r1, r2, r3, r4, r5, r6, lr}
 1315              	.LCFI14:
 1316              		.cfi_def_cfa_offset 32
 1317              		.cfi_offset 4, -16
 1318              		.cfi_offset 5, -12
 1319              		.cfi_offset 6, -8
 1320              		.cfi_offset 14, -4
 1321              	.LVL131:
 1322              	.LBB119:
 1323              	.LBI119:
 177:C:/Users/²Ü¼ÒºÀ/.iotlink/sdk/IoT_LINK/iot_link/os/liteos/base/ipc\los_queue.c **** {
 1324              		.loc 1 177 39 is_stmt 1 view .LVU407
 1325              	.LBB120:
 179:C:/Users/²Ü¼ÒºÀ/.iotlink/sdk/IoT_LINK/iot_link/os/liteos/base/ipc\los_queue.c ****     {
 1326              		.loc 1 179 5 view .LVU408
 179:C:/Users/²Ü¼ÒºÀ/.iotlink/sdk/IoT_LINK/iot_link/os/liteos/base/ipc\los_queue.c ****     {
 1327              		.loc 1 179 8 is_stmt 0 view .LVU409
 1328 0002 0928     		cmp	r0, #9
 1329              	.LBE120:
 1330              	.LBE119:
 467:C:/Users/²Ü¼ÒºÀ/.iotlink/sdk/IoT_LINK/iot_link/os/liteos/base/ipc\los_queue.c ****     UINT32 uwRet;
ARM GAS  C:\Users\²Ü¼ÒºÀ\AppData\Local\Temp\ccapTJCk.s 			page 41


 1331              		.loc 1 467 1 view .LVU410
 1332 0004 0446     		mov	r4, r0
 1333 0006 0D46     		mov	r5, r1
 1334 0008 0392     		str	r2, [sp, #12]
 1335 000a 1E46     		mov	r6, r3
 1336              	.LBB125:
 1337              	.LBB123:
 179:C:/Users/²Ü¼ÒºÀ/.iotlink/sdk/IoT_LINK/iot_link/os/liteos/base/ipc\los_queue.c ****     {
 1338              		.loc 1 179 8 view .LVU411
 1339 000c 11D8     		bhi	.L90
 183:C:/Users/²Ü¼ÒºÀ/.iotlink/sdk/IoT_LINK/iot_link/os/liteos/base/ipc\los_queue.c ****     {
 1340              		.loc 1 183 5 is_stmt 1 view .LVU412
 183:C:/Users/²Ü¼ÒºÀ/.iotlink/sdk/IoT_LINK/iot_link/os/liteos/base/ipc\los_queue.c ****     {
 1341              		.loc 1 183 8 is_stmt 0 view .LVU413
 1342 000e 91B1     		cbz	r1, .L91
 188:C:/Users/²Ü¼ÒºÀ/.iotlink/sdk/IoT_LINK/iot_link/os/liteos/base/ipc\los_queue.c ****     {
 1343              		.loc 1 188 5 is_stmt 1 view .LVU414
 188:C:/Users/²Ü¼ÒºÀ/.iotlink/sdk/IoT_LINK/iot_link/os/liteos/base/ipc\los_queue.c ****     {
 1344              		.loc 1 188 8 is_stmt 0 view .LVU415
 1345 0010 9AB1     		cbz	r2, .L92
 193:C:/Users/²Ü¼ÒºÀ/.iotlink/sdk/IoT_LINK/iot_link/os/liteos/base/ipc\los_queue.c ****     {
 1346              		.loc 1 193 5 is_stmt 1 view .LVU416
 193:C:/Users/²Ü¼ÒºÀ/.iotlink/sdk/IoT_LINK/iot_link/os/liteos/base/ipc\los_queue.c ****     {
 1347              		.loc 1 193 8 is_stmt 0 view .LVU417
 1348 0012 43B9     		cbnz	r3, .L88
 1349              	.LVL132:
 1350              	.L89:
 193:C:/Users/²Ü¼ÒºÀ/.iotlink/sdk/IoT_LINK/iot_link/os/liteos/base/ipc\los_queue.c ****     {
 1351              		.loc 1 193 8 view .LVU418
 1352              	.LBE123:
 1353              	.LBE125:
 472:C:/Users/²Ü¼ÒºÀ/.iotlink/sdk/IoT_LINK/iot_link/os/liteos/base/ipc\los_queue.c ****     if(uwRet != LOS_OK)
 473:C:/Users/²Ü¼ÒºÀ/.iotlink/sdk/IoT_LINK/iot_link/os/liteos/base/ipc\los_queue.c ****     {
 474:C:/Users/²Ü¼ÒºÀ/.iotlink/sdk/IoT_LINK/iot_link/os/liteos/base/ipc\los_queue.c ****         return uwRet;
 475:C:/Users/²Ü¼ÒºÀ/.iotlink/sdk/IoT_LINK/iot_link/os/liteos/base/ipc\los_queue.c ****     }
 476:C:/Users/²Ü¼ÒºÀ/.iotlink/sdk/IoT_LINK/iot_link/os/liteos/base/ipc\los_queue.c **** 
 477:C:/Users/²Ü¼ÒºÀ/.iotlink/sdk/IoT_LINK/iot_link/os/liteos/base/ipc\los_queue.c ****     uwOperateType = OS_QUEUE_OPERATE_TYPE(OS_QUEUE_READ, OS_QUEUE_HEAD, OS_QUEUE_POINT);
 1354              		.loc 1 477 5 is_stmt 1 view .LVU419
 478:C:/Users/²Ü¼ÒºÀ/.iotlink/sdk/IoT_LINK/iot_link/os/liteos/base/ipc\los_queue.c ****     return osQueueOperate(uwQueueID, uwOperateType, pBufferAddr, &uwBufferSize, uwTimeOut);
 1355              		.loc 1 478 5 view .LVU420
 1356              		.loc 1 478 12 is_stmt 0 view .LVU421
 1357 0014 0096     		str	r6, [sp]
 1358 0016 03AB     		add	r3, sp, #12
 1359 0018 2A46     		mov	r2, r5
 1360 001a 0421     		movs	r1, #4
 1361 001c 2046     		mov	r0, r4
 1362 001e FFF7FEFF 		bl	osQueueOperate
 1363              	.LVL133:
 1364              	.L86:
 479:C:/Users/²Ü¼ÒºÀ/.iotlink/sdk/IoT_LINK/iot_link/os/liteos/base/ipc\los_queue.c **** }
 1365              		.loc 1 479 1 view .LVU422
 1366 0022 04B0     		add	sp, sp, #16
 1367              	.LCFI15:
 1368              		.cfi_remember_state
 1369              		.cfi_def_cfa_offset 16
 1370              		@ sp needed
 1371 0024 70BD     		pop	{r4, r5, r6, pc}
ARM GAS  C:\Users\²Ü¼ÒºÀ\AppData\Local\Temp\ccapTJCk.s 			page 42


 1372              	.LVL134:
 1373              	.L88:
 1374              	.LCFI16:
 1375              		.cfi_restore_state
 1376              	.LBB126:
 1377              	.LBB124:
 1378              	.LBB121:
 1379              	.LBI121:
 177:C:/Users/²Ü¼ÒºÀ/.iotlink/sdk/IoT_LINK/iot_link/os/liteos/base/ipc\los_queue.c **** {
 1380              		.loc 1 177 39 is_stmt 1 view .LVU423
 1381              	.LBB122:
 195:C:/Users/²Ü¼ÒºÀ/.iotlink/sdk/IoT_LINK/iot_link/os/liteos/base/ipc\los_queue.c ****         {
 1382              		.loc 1 195 9 view .LVU424
 195:C:/Users/²Ü¼ÒºÀ/.iotlink/sdk/IoT_LINK/iot_link/os/liteos/base/ipc\los_queue.c ****         {
 1383              		.loc 1 195 13 is_stmt 0 view .LVU425
 1384 0026 FFF7FEFF 		bl	osIntNumGet
 1385              	.LVL135:
 195:C:/Users/²Ü¼ÒºÀ/.iotlink/sdk/IoT_LINK/iot_link/os/liteos/base/ipc\los_queue.c ****         {
 1386              		.loc 1 195 12 view .LVU426
 1387 002a 0028     		cmp	r0, #0
 1388 002c F2D0     		beq	.L89
 197:C:/Users/²Ü¼ÒºÀ/.iotlink/sdk/IoT_LINK/iot_link/os/liteos/base/ipc\los_queue.c ****         }
 1389              		.loc 1 197 20 view .LVU427
 1390 002e 0448     		ldr	r0, .L96
 1391 0030 F7E7     		b	.L86
 1392              	.LVL136:
 1393              	.L90:
 197:C:/Users/²Ü¼ÒºÀ/.iotlink/sdk/IoT_LINK/iot_link/os/liteos/base/ipc\los_queue.c ****         }
 1394              		.loc 1 197 20 view .LVU428
 1395              	.LBE122:
 1396              	.LBE121:
 181:C:/Users/²Ü¼ÒºÀ/.iotlink/sdk/IoT_LINK/iot_link/os/liteos/base/ipc\los_queue.c ****     }
 1397              		.loc 1 181 16 view .LVU429
 1398 0032 0448     		ldr	r0, .L96+4
 1399              	.LVL137:
 181:C:/Users/²Ü¼ÒºÀ/.iotlink/sdk/IoT_LINK/iot_link/os/liteos/base/ipc\los_queue.c ****     }
 1400              		.loc 1 181 16 view .LVU430
 1401 0034 F5E7     		b	.L86
 1402              	.LVL138:
 1403              	.L91:
 185:C:/Users/²Ü¼ÒºÀ/.iotlink/sdk/IoT_LINK/iot_link/os/liteos/base/ipc\los_queue.c ****     }
 1404              		.loc 1 185 16 view .LVU431
 1405 0036 0448     		ldr	r0, .L96+8
 1406              	.LVL139:
 185:C:/Users/²Ü¼ÒºÀ/.iotlink/sdk/IoT_LINK/iot_link/os/liteos/base/ipc\los_queue.c ****     }
 1407              		.loc 1 185 16 view .LVU432
 1408 0038 F3E7     		b	.L86
 1409              	.LVL140:
 1410              	.L92:
 190:C:/Users/²Ü¼ÒºÀ/.iotlink/sdk/IoT_LINK/iot_link/os/liteos/base/ipc\los_queue.c ****     }
 1411              		.loc 1 190 16 view .LVU433
 1412 003a 0448     		ldr	r0, .L96+12
 1413              	.LVL141:
 190:C:/Users/²Ü¼ÒºÀ/.iotlink/sdk/IoT_LINK/iot_link/os/liteos/base/ipc\los_queue.c ****     }
 1414              		.loc 1 190 16 view .LVU434
 1415 003c F1E7     		b	.L86
 1416              	.L97:
ARM GAS  C:\Users\²Ü¼ÒºÀ\AppData\Local\Temp\ccapTJCk.s 			page 43


 1417 003e 00BF     		.align	2
 1418              	.L96:
 1419 0040 18060002 		.word	33555992
 1420 0044 0E060002 		.word	33555982
 1421 0048 0F060002 		.word	33555983
 1422 004c 10060002 		.word	33555984
 1423              	.LBE124:
 1424              	.LBE126:
 1425              		.cfi_endproc
 1426              	.LFE296:
 1428              		.section	.text.LOS_QueueWrite,"ax",%progbits
 1429              		.align	1
 1430              		.global	LOS_QueueWrite
 1431              		.syntax unified
 1432              		.thumb
 1433              		.thumb_func
 1434              		.fpu fpv4-sp-d16
 1436              	LOS_QueueWrite:
 1437              	.LVL142:
 1438              	.LFB297:
 480:C:/Users/²Ü¼ÒºÀ/.iotlink/sdk/IoT_LINK/iot_link/os/liteos/base/ipc\los_queue.c **** 
 481:C:/Users/²Ü¼ÒºÀ/.iotlink/sdk/IoT_LINK/iot_link/os/liteos/base/ipc\los_queue.c **** /*****************************************************************************
 482:C:/Users/²Ü¼ÒºÀ/.iotlink/sdk/IoT_LINK/iot_link/os/liteos/base/ipc\los_queue.c ****  Function    : LOS_QueueWrite
 483:C:/Users/²Ü¼ÒºÀ/.iotlink/sdk/IoT_LINK/iot_link/os/liteos/base/ipc\los_queue.c ****  Description : Write queue tail
 484:C:/Users/²Ü¼ÒºÀ/.iotlink/sdk/IoT_LINK/iot_link/os/liteos/base/ipc\los_queue.c ****  Input       : uwQueueID
 485:C:/Users/²Ü¼ÒºÀ/.iotlink/sdk/IoT_LINK/iot_link/os/liteos/base/ipc\los_queue.c ****                pBufferAddr
 486:C:/Users/²Ü¼ÒºÀ/.iotlink/sdk/IoT_LINK/iot_link/os/liteos/base/ipc\los_queue.c ****                uwBufferSize
 487:C:/Users/²Ü¼ÒºÀ/.iotlink/sdk/IoT_LINK/iot_link/os/liteos/base/ipc\los_queue.c ****                uwTimeOut
 488:C:/Users/²Ü¼ÒºÀ/.iotlink/sdk/IoT_LINK/iot_link/os/liteos/base/ipc\los_queue.c ****  Output      : None
 489:C:/Users/²Ü¼ÒºÀ/.iotlink/sdk/IoT_LINK/iot_link/os/liteos/base/ipc\los_queue.c ****  Return      : LOS_OK on success or error code on failure
 490:C:/Users/²Ü¼ÒºÀ/.iotlink/sdk/IoT_LINK/iot_link/os/liteos/base/ipc\los_queue.c ****  *****************************************************************************/
 491:C:/Users/²Ü¼ÒºÀ/.iotlink/sdk/IoT_LINK/iot_link/os/liteos/base/ipc\los_queue.c **** LITE_OS_SEC_TEXT UINT32 LOS_QueueWrite(UINT32 uwQueueID, VOID *pBufferAddr, UINT32 uwBufferSize, UI
 492:C:/Users/²Ü¼ÒºÀ/.iotlink/sdk/IoT_LINK/iot_link/os/liteos/base/ipc\los_queue.c **** {
 1439              		.loc 1 492 1 is_stmt 1 view -0
 1440              		.cfi_startproc
 1441              		@ args = 0, pretend = 0, frame = 8
 1442              		@ frame_needed = 0, uses_anonymous_args = 0
 493:C:/Users/²Ü¼ÒºÀ/.iotlink/sdk/IoT_LINK/iot_link/os/liteos/base/ipc\los_queue.c ****     UINT32 uwRet;
 1443              		.loc 1 493 5 view .LVU436
 494:C:/Users/²Ü¼ÒºÀ/.iotlink/sdk/IoT_LINK/iot_link/os/liteos/base/ipc\los_queue.c ****     UINT32 uwOperateType;
 1444              		.loc 1 494 5 view .LVU437
 495:C:/Users/²Ü¼ÒºÀ/.iotlink/sdk/IoT_LINK/iot_link/os/liteos/base/ipc\los_queue.c **** 
 496:C:/Users/²Ü¼ÒºÀ/.iotlink/sdk/IoT_LINK/iot_link/os/liteos/base/ipc\los_queue.c ****     uwBufferSize = sizeof(UINT32*);
 1445              		.loc 1 496 5 view .LVU438
 492:C:/Users/²Ü¼ÒºÀ/.iotlink/sdk/IoT_LINK/iot_link/os/liteos/base/ipc\los_queue.c ****     UINT32 uwRet;
 1446              		.loc 1 492 1 is_stmt 0 view .LVU439
 1447 0000 30B5     		push	{r4, r5, lr}
 1448              	.LCFI17:
 1449              		.cfi_def_cfa_offset 12
 1450              		.cfi_offset 4, -12
 1451              		.cfi_offset 5, -8
 1452              		.cfi_offset 14, -4
 1453 0002 85B0     		sub	sp, sp, #20
 1454              	.LCFI18:
 1455              		.cfi_def_cfa_offset 32
 492:C:/Users/²Ü¼ÒºÀ/.iotlink/sdk/IoT_LINK/iot_link/os/liteos/base/ipc\los_queue.c ****     UINT32 uwRet;
 1456              		.loc 1 492 1 view .LVU440
ARM GAS  C:\Users\²Ü¼ÒºÀ\AppData\Local\Temp\ccapTJCk.s 			page 44


 1457 0004 1D46     		mov	r5, r3
 1458              	.LBB131:
 1459              	.LBB132:
 206:C:/Users/²Ü¼ÒºÀ/.iotlink/sdk/IoT_LINK/iot_link/os/liteos/base/ipc\los_queue.c ****     {
 1460              		.loc 1 206 8 view .LVU441
 1461 0006 0928     		cmp	r0, #9
 1462              	.LBE132:
 1463              	.LBE131:
 1464              		.loc 1 496 18 view .LVU442
 1465 0008 4FF00403 		mov	r3, #4
 1466              	.LVL143:
 492:C:/Users/²Ü¼ÒºÀ/.iotlink/sdk/IoT_LINK/iot_link/os/liteos/base/ipc\los_queue.c ****     UINT32 uwRet;
 1467              		.loc 1 492 1 view .LVU443
 1468 000c 0446     		mov	r4, r0
 1469 000e 0391     		str	r1, [sp, #12]
 1470              		.loc 1 496 18 view .LVU444
 1471 0010 0293     		str	r3, [sp, #8]
 497:C:/Users/²Ü¼ÒºÀ/.iotlink/sdk/IoT_LINK/iot_link/os/liteos/base/ipc\los_queue.c **** 
 498:C:/Users/²Ü¼ÒºÀ/.iotlink/sdk/IoT_LINK/iot_link/os/liteos/base/ipc\los_queue.c ****     uwRet = osQueueWriteParameterCheck(uwQueueID, pBufferAddr, &uwBufferSize, uwTimeOut);
 1472              		.loc 1 498 5 is_stmt 1 view .LVU445
 1473              	.LVL144:
 1474              	.LBB137:
 1475              	.LBI131:
 204:C:/Users/²Ü¼ÒºÀ/.iotlink/sdk/IoT_LINK/iot_link/os/liteos/base/ipc\los_queue.c **** {
 1476              		.loc 1 204 39 view .LVU446
 1477              	.LBB135:
 206:C:/Users/²Ü¼ÒºÀ/.iotlink/sdk/IoT_LINK/iot_link/os/liteos/base/ipc\los_queue.c ****     {
 1478              		.loc 1 206 5 view .LVU447
 206:C:/Users/²Ü¼ÒºÀ/.iotlink/sdk/IoT_LINK/iot_link/os/liteos/base/ipc\los_queue.c ****     {
 1479              		.loc 1 206 8 is_stmt 0 view .LVU448
 1480 0012 10D8     		bhi	.L102
 211:C:/Users/²Ü¼ÒºÀ/.iotlink/sdk/IoT_LINK/iot_link/os/liteos/base/ipc\los_queue.c ****     {
 1481              		.loc 1 211 5 is_stmt 1 view .LVU449
 211:C:/Users/²Ü¼ÒºÀ/.iotlink/sdk/IoT_LINK/iot_link/os/liteos/base/ipc\los_queue.c ****     {
 1482              		.loc 1 211 8 is_stmt 0 view .LVU450
 1483 0014 89B1     		cbz	r1, .L103
 216:C:/Users/²Ü¼ÒºÀ/.iotlink/sdk/IoT_LINK/iot_link/os/liteos/base/ipc\los_queue.c ****     {
 1484              		.loc 1 216 5 is_stmt 1 view .LVU451
 221:C:/Users/²Ü¼ÒºÀ/.iotlink/sdk/IoT_LINK/iot_link/os/liteos/base/ipc\los_queue.c ****     {
 1485              		.loc 1 221 5 view .LVU452
 221:C:/Users/²Ü¼ÒºÀ/.iotlink/sdk/IoT_LINK/iot_link/os/liteos/base/ipc\los_queue.c ****     {
 1486              		.loc 1 221 8 is_stmt 0 view .LVU453
 1487 0016 45B9     		cbnz	r5, .L100
 1488              	.LVL145:
 1489              	.L101:
 221:C:/Users/²Ü¼ÒºÀ/.iotlink/sdk/IoT_LINK/iot_link/os/liteos/base/ipc\los_queue.c ****     {
 1490              		.loc 1 221 8 view .LVU454
 1491              	.LBE135:
 1492              	.LBE137:
 499:C:/Users/²Ü¼ÒºÀ/.iotlink/sdk/IoT_LINK/iot_link/os/liteos/base/ipc\los_queue.c ****     if(uwRet != LOS_OK)
 500:C:/Users/²Ü¼ÒºÀ/.iotlink/sdk/IoT_LINK/iot_link/os/liteos/base/ipc\los_queue.c ****     {
 501:C:/Users/²Ü¼ÒºÀ/.iotlink/sdk/IoT_LINK/iot_link/os/liteos/base/ipc\los_queue.c ****         return uwRet;
 502:C:/Users/²Ü¼ÒºÀ/.iotlink/sdk/IoT_LINK/iot_link/os/liteos/base/ipc\los_queue.c ****     }
 503:C:/Users/²Ü¼ÒºÀ/.iotlink/sdk/IoT_LINK/iot_link/os/liteos/base/ipc\los_queue.c **** 
 504:C:/Users/²Ü¼ÒºÀ/.iotlink/sdk/IoT_LINK/iot_link/os/liteos/base/ipc\los_queue.c ****     uwOperateType = OS_QUEUE_OPERATE_TYPE(OS_QUEUE_WRITE, OS_QUEUE_TAIL, OS_QUEUE_POINT);
 1493              		.loc 1 504 5 is_stmt 1 view .LVU455
 505:C:/Users/²Ü¼ÒºÀ/.iotlink/sdk/IoT_LINK/iot_link/os/liteos/base/ipc\los_queue.c ****     return osQueueOperate(uwQueueID, uwOperateType, &pBufferAddr, &uwBufferSize, uwTimeOut);
ARM GAS  C:\Users\²Ü¼ÒºÀ\AppData\Local\Temp\ccapTJCk.s 			page 45


 1494              		.loc 1 505 5 view .LVU456
 1495              		.loc 1 505 12 is_stmt 0 view .LVU457
 1496 0018 0095     		str	r5, [sp]
 1497 001a 02AB     		add	r3, sp, #8
 1498 001c 03AA     		add	r2, sp, #12
 1499 001e 0721     		movs	r1, #7
 1500 0020 2046     		mov	r0, r4
 1501 0022 FFF7FEFF 		bl	osQueueOperate
 1502              	.LVL146:
 1503              	.L98:
 506:C:/Users/²Ü¼ÒºÀ/.iotlink/sdk/IoT_LINK/iot_link/os/liteos/base/ipc\los_queue.c **** }
 1504              		.loc 1 506 1 view .LVU458
 1505 0026 05B0     		add	sp, sp, #20
 1506              	.LCFI19:
 1507              		.cfi_remember_state
 1508              		.cfi_def_cfa_offset 12
 1509              		@ sp needed
 1510 0028 30BD     		pop	{r4, r5, pc}
 1511              	.LVL147:
 1512              	.L100:
 1513              	.LCFI20:
 1514              		.cfi_restore_state
 1515              	.LBB138:
 1516              	.LBB136:
 1517              	.LBB133:
 1518              	.LBI133:
 204:C:/Users/²Ü¼ÒºÀ/.iotlink/sdk/IoT_LINK/iot_link/os/liteos/base/ipc\los_queue.c **** {
 1519              		.loc 1 204 39 is_stmt 1 view .LVU459
 1520              	.LBB134:
 223:C:/Users/²Ü¼ÒºÀ/.iotlink/sdk/IoT_LINK/iot_link/os/liteos/base/ipc\los_queue.c ****         {
 1521              		.loc 1 223 9 view .LVU460
 223:C:/Users/²Ü¼ÒºÀ/.iotlink/sdk/IoT_LINK/iot_link/os/liteos/base/ipc\los_queue.c ****         {
 1522              		.loc 1 223 13 is_stmt 0 view .LVU461
 1523 002a FFF7FEFF 		bl	osIntNumGet
 1524              	.LVL148:
 223:C:/Users/²Ü¼ÒºÀ/.iotlink/sdk/IoT_LINK/iot_link/os/liteos/base/ipc\los_queue.c ****         {
 1525              		.loc 1 223 12 view .LVU462
 1526 002e 0028     		cmp	r0, #0
 1527 0030 F2D0     		beq	.L101
 225:C:/Users/²Ü¼ÒºÀ/.iotlink/sdk/IoT_LINK/iot_link/os/liteos/base/ipc\los_queue.c ****         }
 1528              		.loc 1 225 20 view .LVU463
 1529 0032 0348     		ldr	r0, .L107
 1530 0034 F7E7     		b	.L98
 1531              	.LVL149:
 1532              	.L102:
 225:C:/Users/²Ü¼ÒºÀ/.iotlink/sdk/IoT_LINK/iot_link/os/liteos/base/ipc\los_queue.c ****         }
 1533              		.loc 1 225 20 view .LVU464
 1534              	.LBE134:
 1535              	.LBE133:
 208:C:/Users/²Ü¼ÒºÀ/.iotlink/sdk/IoT_LINK/iot_link/os/liteos/base/ipc\los_queue.c ****     }
 1536              		.loc 1 208 16 view .LVU465
 1537 0036 0348     		ldr	r0, .L107+4
 1538              	.LVL150:
 208:C:/Users/²Ü¼ÒºÀ/.iotlink/sdk/IoT_LINK/iot_link/os/liteos/base/ipc\los_queue.c ****     }
 1539              		.loc 1 208 16 view .LVU466
 1540 0038 F5E7     		b	.L98
 1541              	.LVL151:
ARM GAS  C:\Users\²Ü¼ÒºÀ\AppData\Local\Temp\ccapTJCk.s 			page 46


 1542              	.L103:
 213:C:/Users/²Ü¼ÒºÀ/.iotlink/sdk/IoT_LINK/iot_link/os/liteos/base/ipc\los_queue.c ****     }
 1543              		.loc 1 213 16 view .LVU467
 1544 003a 0348     		ldr	r0, .L107+8
 1545              	.LVL152:
 213:C:/Users/²Ü¼ÒºÀ/.iotlink/sdk/IoT_LINK/iot_link/os/liteos/base/ipc\los_queue.c ****     }
 1546              		.loc 1 213 16 view .LVU468
 1547 003c F3E7     		b	.L98
 1548              	.L108:
 1549 003e 00BF     		.align	2
 1550              	.L107:
 1551 0040 09060002 		.word	33555977
 1552 0044 0E060002 		.word	33555982
 1553 0048 12060002 		.word	33555986
 1554              	.LBE136:
 1555              	.LBE138:
 1556              		.cfi_endproc
 1557              	.LFE297:
 1559              		.section	.text.LOS_QueueWriteHead,"ax",%progbits
 1560              		.align	1
 1561              		.global	LOS_QueueWriteHead
 1562              		.syntax unified
 1563              		.thumb
 1564              		.thumb_func
 1565              		.fpu fpv4-sp-d16
 1567              	LOS_QueueWriteHead:
 1568              	.LVL153:
 1569              	.LFB298:
 507:C:/Users/²Ü¼ÒºÀ/.iotlink/sdk/IoT_LINK/iot_link/os/liteos/base/ipc\los_queue.c **** 
 508:C:/Users/²Ü¼ÒºÀ/.iotlink/sdk/IoT_LINK/iot_link/os/liteos/base/ipc\los_queue.c **** /*****************************************************************************
 509:C:/Users/²Ü¼ÒºÀ/.iotlink/sdk/IoT_LINK/iot_link/os/liteos/base/ipc\los_queue.c ****  Function    : LOS_QueueWriteHead
 510:C:/Users/²Ü¼ÒºÀ/.iotlink/sdk/IoT_LINK/iot_link/os/liteos/base/ipc\los_queue.c ****  Description : write queue head
 511:C:/Users/²Ü¼ÒºÀ/.iotlink/sdk/IoT_LINK/iot_link/os/liteos/base/ipc\los_queue.c ****  Input       : uwQueueID
 512:C:/Users/²Ü¼ÒºÀ/.iotlink/sdk/IoT_LINK/iot_link/os/liteos/base/ipc\los_queue.c ****                pBufferAddr
 513:C:/Users/²Ü¼ÒºÀ/.iotlink/sdk/IoT_LINK/iot_link/os/liteos/base/ipc\los_queue.c ****                uwBufferSize
 514:C:/Users/²Ü¼ÒºÀ/.iotlink/sdk/IoT_LINK/iot_link/os/liteos/base/ipc\los_queue.c ****                uwTimeOut
 515:C:/Users/²Ü¼ÒºÀ/.iotlink/sdk/IoT_LINK/iot_link/os/liteos/base/ipc\los_queue.c ****  Output      : None
 516:C:/Users/²Ü¼ÒºÀ/.iotlink/sdk/IoT_LINK/iot_link/os/liteos/base/ipc\los_queue.c ****  Return      : LOS_OK on success or error code on failure
 517:C:/Users/²Ü¼ÒºÀ/.iotlink/sdk/IoT_LINK/iot_link/os/liteos/base/ipc\los_queue.c ****  *****************************************************************************/
 518:C:/Users/²Ü¼ÒºÀ/.iotlink/sdk/IoT_LINK/iot_link/os/liteos/base/ipc\los_queue.c **** LITE_OS_SEC_TEXT UINT32 LOS_QueueWriteHead( UINT32 uwQueueID,
 519:C:/Users/²Ü¼ÒºÀ/.iotlink/sdk/IoT_LINK/iot_link/os/liteos/base/ipc\los_queue.c ****                                      VOID * pBufferAddr,
 520:C:/Users/²Ü¼ÒºÀ/.iotlink/sdk/IoT_LINK/iot_link/os/liteos/base/ipc\los_queue.c ****                                      UINT32 uwBufferSize,
 521:C:/Users/²Ü¼ÒºÀ/.iotlink/sdk/IoT_LINK/iot_link/os/liteos/base/ipc\los_queue.c ****                                      UINT32 uwTimeOut )
 522:C:/Users/²Ü¼ÒºÀ/.iotlink/sdk/IoT_LINK/iot_link/os/liteos/base/ipc\los_queue.c **** {
 1570              		.loc 1 522 1 is_stmt 1 view -0
 1571              		.cfi_startproc
 1572              		@ args = 0, pretend = 0, frame = 8
 1573              		@ frame_needed = 0, uses_anonymous_args = 0
 523:C:/Users/²Ü¼ÒºÀ/.iotlink/sdk/IoT_LINK/iot_link/os/liteos/base/ipc\los_queue.c ****     if(pBufferAddr == NULL)
 1574              		.loc 1 523 5 view .LVU470
 522:C:/Users/²Ü¼ÒºÀ/.iotlink/sdk/IoT_LINK/iot_link/os/liteos/base/ipc\los_queue.c ****     if(pBufferAddr == NULL)
 1575              		.loc 1 522 1 is_stmt 0 view .LVU471
 1576 0000 07B5     		push	{r0, r1, r2, lr}
 1577              	.LCFI21:
 1578              		.cfi_def_cfa_offset 16
 1579              		.cfi_offset 14, -4
 522:C:/Users/²Ü¼ÒºÀ/.iotlink/sdk/IoT_LINK/iot_link/os/liteos/base/ipc\los_queue.c ****     if(pBufferAddr == NULL)
ARM GAS  C:\Users\²Ü¼ÒºÀ\AppData\Local\Temp\ccapTJCk.s 			page 47


 1580              		.loc 1 522 1 view .LVU472
 1581 0002 0191     		str	r1, [sp, #4]
 1582              		.loc 1 523 7 view .LVU473
 1583 0004 39B1     		cbz	r1, .L111
 524:C:/Users/²Ü¼ÒºÀ/.iotlink/sdk/IoT_LINK/iot_link/os/liteos/base/ipc\los_queue.c ****     {
 525:C:/Users/²Ü¼ÒºÀ/.iotlink/sdk/IoT_LINK/iot_link/os/liteos/base/ipc\los_queue.c ****         return LOS_ERRNO_QUEUE_WRITE_PTR_NULL;
 526:C:/Users/²Ü¼ÒºÀ/.iotlink/sdk/IoT_LINK/iot_link/os/liteos/base/ipc\los_queue.c ****     }
 527:C:/Users/²Ü¼ÒºÀ/.iotlink/sdk/IoT_LINK/iot_link/os/liteos/base/ipc\los_queue.c ****     uwBufferSize = sizeof(UINT32*);
 1584              		.loc 1 527 5 is_stmt 1 view .LVU474
 1585              	.LVL154:
 528:C:/Users/²Ü¼ÒºÀ/.iotlink/sdk/IoT_LINK/iot_link/os/liteos/base/ipc\los_queue.c ****     return LOS_QueueWriteHeadCopy(uwQueueID, &pBufferAddr, uwBufferSize, uwTimeOut);
 1586              		.loc 1 528 5 view .LVU475
 1587              		.loc 1 528 12 is_stmt 0 view .LVU476
 1588 0006 0422     		movs	r2, #4
 1589 0008 0DEB0201 		add	r1, sp, r2
 1590              	.LVL155:
 1591              		.loc 1 528 12 view .LVU477
 1592 000c FFF7FEFF 		bl	LOS_QueueWriteHeadCopy
 1593              	.LVL156:
 1594              	.L109:
 529:C:/Users/²Ü¼ÒºÀ/.iotlink/sdk/IoT_LINK/iot_link/os/liteos/base/ipc\los_queue.c **** }
 1595              		.loc 1 529 1 view .LVU478
 1596 0010 03B0     		add	sp, sp, #12
 1597              	.LCFI22:
 1598              		.cfi_remember_state
 1599              		.cfi_def_cfa_offset 4
 1600              		@ sp needed
 1601 0012 5DF804FB 		ldr	pc, [sp], #4
 1602              	.LVL157:
 1603              	.L111:
 1604              	.LCFI23:
 1605              		.cfi_restore_state
 525:C:/Users/²Ü¼ÒºÀ/.iotlink/sdk/IoT_LINK/iot_link/os/liteos/base/ipc\los_queue.c ****     }
 1606              		.loc 1 525 16 view .LVU479
 1607 0016 0148     		ldr	r0, .L112
 1608              	.LVL158:
 525:C:/Users/²Ü¼ÒºÀ/.iotlink/sdk/IoT_LINK/iot_link/os/liteos/base/ipc\los_queue.c ****     }
 1609              		.loc 1 525 16 view .LVU480
 1610 0018 FAE7     		b	.L109
 1611              	.L113:
 1612 001a 00BF     		.align	2
 1613              	.L112:
 1614 001c 12060002 		.word	33555986
 1615              		.cfi_endproc
 1616              	.LFE298:
 1618              		.section	.text.osQueueMailAlloc,"ax",%progbits
 1619              		.align	1
 1620              		.global	osQueueMailAlloc
 1621              		.syntax unified
 1622              		.thumb
 1623              		.thumb_func
 1624              		.fpu fpv4-sp-d16
 1626              	osQueueMailAlloc:
 1627              	.LVL159:
 1628              	.LFB299:
 530:C:/Users/²Ü¼ÒºÀ/.iotlink/sdk/IoT_LINK/iot_link/os/liteos/base/ipc\los_queue.c **** 
 531:C:/Users/²Ü¼ÒºÀ/.iotlink/sdk/IoT_LINK/iot_link/os/liteos/base/ipc\los_queue.c **** /*****************************************************************************
ARM GAS  C:\Users\²Ü¼ÒºÀ\AppData\Local\Temp\ccapTJCk.s 			page 48


 532:C:/Users/²Ü¼ÒºÀ/.iotlink/sdk/IoT_LINK/iot_link/os/liteos/base/ipc\los_queue.c ****  Function    : osQueueMailAlloc
 533:C:/Users/²Ü¼ÒºÀ/.iotlink/sdk/IoT_LINK/iot_link/os/liteos/base/ipc\los_queue.c ****  Description : Mail allocate memory
 534:C:/Users/²Ü¼ÒºÀ/.iotlink/sdk/IoT_LINK/iot_link/os/liteos/base/ipc\los_queue.c ****  Input       : uwQueueID   --- QueueID
 535:C:/Users/²Ü¼ÒºÀ/.iotlink/sdk/IoT_LINK/iot_link/os/liteos/base/ipc\los_queue.c ****              : pMailPool   --- MailPool
 536:C:/Users/²Ü¼ÒºÀ/.iotlink/sdk/IoT_LINK/iot_link/os/liteos/base/ipc\los_queue.c ****              : uwTimeOut   --- TimeOut
 537:C:/Users/²Ü¼ÒºÀ/.iotlink/sdk/IoT_LINK/iot_link/os/liteos/base/ipc\los_queue.c ****  Output      : None
 538:C:/Users/²Ü¼ÒºÀ/.iotlink/sdk/IoT_LINK/iot_link/os/liteos/base/ipc\los_queue.c ****  Return      : pointer if success otherwise NULL
 539:C:/Users/²Ü¼ÒºÀ/.iotlink/sdk/IoT_LINK/iot_link/os/liteos/base/ipc\los_queue.c ****  *****************************************************************************/
 540:C:/Users/²Ü¼ÒºÀ/.iotlink/sdk/IoT_LINK/iot_link/os/liteos/base/ipc\los_queue.c **** LITE_OS_SEC_TEXT VOID *osQueueMailAlloc(UINT32  uwQueueID, VOID* pMailPool, UINT32 uwTimeOut)
 541:C:/Users/²Ü¼ÒºÀ/.iotlink/sdk/IoT_LINK/iot_link/os/liteos/base/ipc\los_queue.c **** {
 1629              		.loc 1 541 1 is_stmt 1 view -0
 1630              		.cfi_startproc
 1631              		@ args = 0, pretend = 0, frame = 0
 1632              		@ frame_needed = 0, uses_anonymous_args = 0
 542:C:/Users/²Ü¼ÒºÀ/.iotlink/sdk/IoT_LINK/iot_link/os/liteos/base/ipc\los_queue.c ****     VOID *pMem = (VOID *)NULL;
 1633              		.loc 1 542 5 view .LVU482
 543:C:/Users/²Ü¼ÒºÀ/.iotlink/sdk/IoT_LINK/iot_link/os/liteos/base/ipc\los_queue.c ****     UINTPTR uvIntSave;
 1634              		.loc 1 543 5 view .LVU483
 544:C:/Users/²Ü¼ÒºÀ/.iotlink/sdk/IoT_LINK/iot_link/os/liteos/base/ipc\los_queue.c ****     QUEUE_CB_S *pstQueueCB = (QUEUE_CB_S *)NULL;
 1635              		.loc 1 544 5 view .LVU484
 545:C:/Users/²Ü¼ÒºÀ/.iotlink/sdk/IoT_LINK/iot_link/os/liteos/base/ipc\los_queue.c ****     LOS_TASK_CB *pstRunTsk = (LOS_TASK_CB *)NULL;
 1636              		.loc 1 545 5 view .LVU485
 546:C:/Users/²Ü¼ÒºÀ/.iotlink/sdk/IoT_LINK/iot_link/os/liteos/base/ipc\los_queue.c **** 
 547:C:/Users/²Ü¼ÒºÀ/.iotlink/sdk/IoT_LINK/iot_link/os/liteos/base/ipc\los_queue.c ****     if (uwQueueID >= LOSCFG_BASE_IPC_QUEUE_LIMIT)
 1637              		.loc 1 547 5 view .LVU486
 1638              		.loc 1 547 8 is_stmt 0 view .LVU487
 1639 0000 0928     		cmp	r0, #9
 541:C:/Users/²Ü¼ÒºÀ/.iotlink/sdk/IoT_LINK/iot_link/os/liteos/base/ipc\los_queue.c ****     VOID *pMem = (VOID *)NULL;
 1640              		.loc 1 541 1 view .LVU488
 1641 0002 2DE9F041 		push	{r4, r5, r6, r7, r8, lr}
 1642              	.LCFI24:
 1643              		.cfi_def_cfa_offset 24
 1644              		.cfi_offset 4, -24
 1645              		.cfi_offset 5, -20
 1646              		.cfi_offset 6, -16
 1647              		.cfi_offset 7, -12
 1648              		.cfi_offset 8, -8
 1649              		.cfi_offset 14, -4
 541:C:/Users/²Ü¼ÒºÀ/.iotlink/sdk/IoT_LINK/iot_link/os/liteos/base/ipc\los_queue.c ****     VOID *pMem = (VOID *)NULL;
 1650              		.loc 1 541 1 view .LVU489
 1651 0006 0446     		mov	r4, r0
 1652 0008 0E46     		mov	r6, r1
 1653 000a 9046     		mov	r8, r2
 1654              		.loc 1 547 8 view .LVU490
 1655 000c 03D9     		bls	.L115
 1656              	.LVL160:
 1657              	.L117:
 548:C:/Users/²Ü¼ÒºÀ/.iotlink/sdk/IoT_LINK/iot_link/os/liteos/base/ipc\los_queue.c ****     {
 549:C:/Users/²Ü¼ÒºÀ/.iotlink/sdk/IoT_LINK/iot_link/os/liteos/base/ipc\los_queue.c ****         return NULL;
 1658              		.loc 1 549 16 view .LVU491
 1659 000e 0024     		movs	r4, #0
 1660              	.LVL161:
 1661              	.L114:
 550:C:/Users/²Ü¼ÒºÀ/.iotlink/sdk/IoT_LINK/iot_link/os/liteos/base/ipc\los_queue.c ****     }
 551:C:/Users/²Ü¼ÒºÀ/.iotlink/sdk/IoT_LINK/iot_link/os/liteos/base/ipc\los_queue.c **** 
 552:C:/Users/²Ü¼ÒºÀ/.iotlink/sdk/IoT_LINK/iot_link/os/liteos/base/ipc\los_queue.c ****     if (pMailPool == NULL)
 553:C:/Users/²Ü¼ÒºÀ/.iotlink/sdk/IoT_LINK/iot_link/os/liteos/base/ipc\los_queue.c ****     {
ARM GAS  C:\Users\²Ü¼ÒºÀ\AppData\Local\Temp\ccapTJCk.s 			page 49


 554:C:/Users/²Ü¼ÒºÀ/.iotlink/sdk/IoT_LINK/iot_link/os/liteos/base/ipc\los_queue.c ****         return NULL;
 555:C:/Users/²Ü¼ÒºÀ/.iotlink/sdk/IoT_LINK/iot_link/os/liteos/base/ipc\los_queue.c ****     }
 556:C:/Users/²Ü¼ÒºÀ/.iotlink/sdk/IoT_LINK/iot_link/os/liteos/base/ipc\los_queue.c **** 
 557:C:/Users/²Ü¼ÒºÀ/.iotlink/sdk/IoT_LINK/iot_link/os/liteos/base/ipc\los_queue.c ****     if (LOS_NO_WAIT != uwTimeOut)
 558:C:/Users/²Ü¼ÒºÀ/.iotlink/sdk/IoT_LINK/iot_link/os/liteos/base/ipc\los_queue.c ****     {
 559:C:/Users/²Ü¼ÒºÀ/.iotlink/sdk/IoT_LINK/iot_link/os/liteos/base/ipc\los_queue.c ****         if (OS_INT_ACTIVE)
 560:C:/Users/²Ü¼ÒºÀ/.iotlink/sdk/IoT_LINK/iot_link/os/liteos/base/ipc\los_queue.c ****         {
 561:C:/Users/²Ü¼ÒºÀ/.iotlink/sdk/IoT_LINK/iot_link/os/liteos/base/ipc\los_queue.c ****             return NULL;
 562:C:/Users/²Ü¼ÒºÀ/.iotlink/sdk/IoT_LINK/iot_link/os/liteos/base/ipc\los_queue.c ****         }
 563:C:/Users/²Ü¼ÒºÀ/.iotlink/sdk/IoT_LINK/iot_link/os/liteos/base/ipc\los_queue.c ****     }
 564:C:/Users/²Ü¼ÒºÀ/.iotlink/sdk/IoT_LINK/iot_link/os/liteos/base/ipc\los_queue.c **** 
 565:C:/Users/²Ü¼ÒºÀ/.iotlink/sdk/IoT_LINK/iot_link/os/liteos/base/ipc\los_queue.c ****     uvIntSave = LOS_IntLock();
 566:C:/Users/²Ü¼ÒºÀ/.iotlink/sdk/IoT_LINK/iot_link/os/liteos/base/ipc\los_queue.c ****     pstQueueCB = GET_QUEUE_HANDLE(uwQueueID);
 567:C:/Users/²Ü¼ÒºÀ/.iotlink/sdk/IoT_LINK/iot_link/os/liteos/base/ipc\los_queue.c ****     if (OS_QUEUE_UNUSED == pstQueueCB->usQueueState)
 568:C:/Users/²Ü¼ÒºÀ/.iotlink/sdk/IoT_LINK/iot_link/os/liteos/base/ipc\los_queue.c ****     {
 569:C:/Users/²Ü¼ÒºÀ/.iotlink/sdk/IoT_LINK/iot_link/os/liteos/base/ipc\los_queue.c ****         goto END;
 570:C:/Users/²Ü¼ÒºÀ/.iotlink/sdk/IoT_LINK/iot_link/os/liteos/base/ipc\los_queue.c ****     }
 571:C:/Users/²Ü¼ÒºÀ/.iotlink/sdk/IoT_LINK/iot_link/os/liteos/base/ipc\los_queue.c **** 
 572:C:/Users/²Ü¼ÒºÀ/.iotlink/sdk/IoT_LINK/iot_link/os/liteos/base/ipc\los_queue.c ****     pMem = LOS_MemboxAlloc(pMailPool);
 573:C:/Users/²Ü¼ÒºÀ/.iotlink/sdk/IoT_LINK/iot_link/os/liteos/base/ipc\los_queue.c ****     if (NULL == pMem)
 574:C:/Users/²Ü¼ÒºÀ/.iotlink/sdk/IoT_LINK/iot_link/os/liteos/base/ipc\los_queue.c ****     {
 575:C:/Users/²Ü¼ÒºÀ/.iotlink/sdk/IoT_LINK/iot_link/os/liteos/base/ipc\los_queue.c ****         if (uwTimeOut == LOS_NO_WAIT)
 576:C:/Users/²Ü¼ÒºÀ/.iotlink/sdk/IoT_LINK/iot_link/os/liteos/base/ipc\los_queue.c ****         {
 577:C:/Users/²Ü¼ÒºÀ/.iotlink/sdk/IoT_LINK/iot_link/os/liteos/base/ipc\los_queue.c ****             goto END;
 578:C:/Users/²Ü¼ÒºÀ/.iotlink/sdk/IoT_LINK/iot_link/os/liteos/base/ipc\los_queue.c ****         }
 579:C:/Users/²Ü¼ÒºÀ/.iotlink/sdk/IoT_LINK/iot_link/os/liteos/base/ipc\los_queue.c **** 
 580:C:/Users/²Ü¼ÒºÀ/.iotlink/sdk/IoT_LINK/iot_link/os/liteos/base/ipc\los_queue.c ****         pstRunTsk = (LOS_TASK_CB *)g_stLosTask.pstRunTask;
 581:C:/Users/²Ü¼ÒºÀ/.iotlink/sdk/IoT_LINK/iot_link/os/liteos/base/ipc\los_queue.c ****         osTaskWait(&pstQueueCB->stMemList, OS_TASK_STATUS_PEND_QUEUE, uwTimeOut);
 582:C:/Users/²Ü¼ÒºÀ/.iotlink/sdk/IoT_LINK/iot_link/os/liteos/base/ipc\los_queue.c ****         LOS_IntRestore(uvIntSave);
 583:C:/Users/²Ü¼ÒºÀ/.iotlink/sdk/IoT_LINK/iot_link/os/liteos/base/ipc\los_queue.c ****         LOS_Schedule();
 584:C:/Users/²Ü¼ÒºÀ/.iotlink/sdk/IoT_LINK/iot_link/os/liteos/base/ipc\los_queue.c **** 
 585:C:/Users/²Ü¼ÒºÀ/.iotlink/sdk/IoT_LINK/iot_link/os/liteos/base/ipc\los_queue.c ****         uvIntSave = LOS_IntLock();
 586:C:/Users/²Ü¼ÒºÀ/.iotlink/sdk/IoT_LINK/iot_link/os/liteos/base/ipc\los_queue.c ****         if (pstRunTsk->usTaskStatus & OS_TASK_STATUS_TIMEOUT)
 587:C:/Users/²Ü¼ÒºÀ/.iotlink/sdk/IoT_LINK/iot_link/os/liteos/base/ipc\los_queue.c ****         {
 588:C:/Users/²Ü¼ÒºÀ/.iotlink/sdk/IoT_LINK/iot_link/os/liteos/base/ipc\los_queue.c ****             pstRunTsk->usTaskStatus &= (~OS_TASK_STATUS_TIMEOUT);
 589:C:/Users/²Ü¼ÒºÀ/.iotlink/sdk/IoT_LINK/iot_link/os/liteos/base/ipc\los_queue.c ****             goto END;
 590:C:/Users/²Ü¼ÒºÀ/.iotlink/sdk/IoT_LINK/iot_link/os/liteos/base/ipc\los_queue.c ****         }
 591:C:/Users/²Ü¼ÒºÀ/.iotlink/sdk/IoT_LINK/iot_link/os/liteos/base/ipc\los_queue.c ****         else
 592:C:/Users/²Ü¼ÒºÀ/.iotlink/sdk/IoT_LINK/iot_link/os/liteos/base/ipc\los_queue.c ****         {
 593:C:/Users/²Ü¼ÒºÀ/.iotlink/sdk/IoT_LINK/iot_link/os/liteos/base/ipc\los_queue.c ****             /* When enters the current branch, means the current task already got a available membo
 594:C:/Users/²Ü¼ÒºÀ/.iotlink/sdk/IoT_LINK/iot_link/os/liteos/base/ipc\los_queue.c ****              * so the pstRunTsk->puwMsg can not be NULL.
 595:C:/Users/²Ü¼ÒºÀ/.iotlink/sdk/IoT_LINK/iot_link/os/liteos/base/ipc\los_queue.c ****              */
 596:C:/Users/²Ü¼ÒºÀ/.iotlink/sdk/IoT_LINK/iot_link/os/liteos/base/ipc\los_queue.c ****             pMem = pstRunTsk->puwMsg;
 597:C:/Users/²Ü¼ÒºÀ/.iotlink/sdk/IoT_LINK/iot_link/os/liteos/base/ipc\los_queue.c ****             pstRunTsk->puwMsg = NULL;
 598:C:/Users/²Ü¼ÒºÀ/.iotlink/sdk/IoT_LINK/iot_link/os/liteos/base/ipc\los_queue.c ****         }
 599:C:/Users/²Ü¼ÒºÀ/.iotlink/sdk/IoT_LINK/iot_link/os/liteos/base/ipc\los_queue.c ****     }
 600:C:/Users/²Ü¼ÒºÀ/.iotlink/sdk/IoT_LINK/iot_link/os/liteos/base/ipc\los_queue.c **** 
 601:C:/Users/²Ü¼ÒºÀ/.iotlink/sdk/IoT_LINK/iot_link/os/liteos/base/ipc\los_queue.c **** END:
 602:C:/Users/²Ü¼ÒºÀ/.iotlink/sdk/IoT_LINK/iot_link/os/liteos/base/ipc\los_queue.c ****     LOS_IntRestore(uvIntSave);
 603:C:/Users/²Ü¼ÒºÀ/.iotlink/sdk/IoT_LINK/iot_link/os/liteos/base/ipc\los_queue.c ****     return pMem;
 604:C:/Users/²Ü¼ÒºÀ/.iotlink/sdk/IoT_LINK/iot_link/os/liteos/base/ipc\los_queue.c **** }
 1662              		.loc 1 604 1 view .LVU492
 1663 0010 2046     		mov	r0, r4
 1664 0012 BDE8F081 		pop	{r4, r5, r6, r7, r8, pc}
 1665              	.LVL162:
 1666              	.L115:
 552:C:/Users/²Ü¼ÒºÀ/.iotlink/sdk/IoT_LINK/iot_link/os/liteos/base/ipc\los_queue.c ****     {
ARM GAS  C:\Users\²Ü¼ÒºÀ\AppData\Local\Temp\ccapTJCk.s 			page 50


 1667              		.loc 1 552 5 is_stmt 1 view .LVU493
 552:C:/Users/²Ü¼ÒºÀ/.iotlink/sdk/IoT_LINK/iot_link/os/liteos/base/ipc\los_queue.c ****     {
 1668              		.loc 1 552 8 is_stmt 0 view .LVU494
 1669 0016 0029     		cmp	r1, #0
 1670 0018 F9D0     		beq	.L117
 557:C:/Users/²Ü¼ÒºÀ/.iotlink/sdk/IoT_LINK/iot_link/os/liteos/base/ipc\los_queue.c ****     {
 1671              		.loc 1 557 5 is_stmt 1 view .LVU495
 557:C:/Users/²Ü¼ÒºÀ/.iotlink/sdk/IoT_LINK/iot_link/os/liteos/base/ipc\los_queue.c ****     {
 1672              		.loc 1 557 8 is_stmt 0 view .LVU496
 1673 001a 82BB     		cbnz	r2, .L118
 1674              	.LVL163:
 1675              	.L121:
 565:C:/Users/²Ü¼ÒºÀ/.iotlink/sdk/IoT_LINK/iot_link/os/liteos/base/ipc\los_queue.c ****     pstQueueCB = GET_QUEUE_HANDLE(uwQueueID);
 1676              		.loc 1 565 5 is_stmt 1 view .LVU497
 565:C:/Users/²Ü¼ÒºÀ/.iotlink/sdk/IoT_LINK/iot_link/os/liteos/base/ipc\los_queue.c ****     pstQueueCB = GET_QUEUE_HANDLE(uwQueueID);
 1677              		.loc 1 565 17 is_stmt 0 view .LVU498
 1678 001c FFF7FEFF 		bl	LOS_IntLock
 1679              	.LVL164:
 566:C:/Users/²Ü¼ÒºÀ/.iotlink/sdk/IoT_LINK/iot_link/os/liteos/base/ipc\los_queue.c ****     if (OS_QUEUE_UNUSED == pstQueueCB->usQueueState)
 1680              		.loc 1 566 16 view .LVU499
 1681 0020 194B     		ldr	r3, .L131
 1682 0022 1D68     		ldr	r5, [r3]
 565:C:/Users/²Ü¼ÒºÀ/.iotlink/sdk/IoT_LINK/iot_link/os/liteos/base/ipc\los_queue.c ****     pstQueueCB = GET_QUEUE_HANDLE(uwQueueID);
 1683              		.loc 1 565 17 view .LVU500
 1684 0024 0746     		mov	r7, r0
 1685              	.LVL165:
 566:C:/Users/²Ü¼ÒºÀ/.iotlink/sdk/IoT_LINK/iot_link/os/liteos/base/ipc\los_queue.c ****     if (OS_QUEUE_UNUSED == pstQueueCB->usQueueState)
 1686              		.loc 1 566 5 is_stmt 1 view .LVU501
 566:C:/Users/²Ü¼ÒºÀ/.iotlink/sdk/IoT_LINK/iot_link/os/liteos/base/ipc\los_queue.c ****     if (OS_QUEUE_UNUSED == pstQueueCB->usQueueState)
 1687              		.loc 1 566 16 is_stmt 0 view .LVU502
 1688 0026 2C20     		movs	r0, #44
 1689              	.LVL166:
 566:C:/Users/²Ü¼ÒºÀ/.iotlink/sdk/IoT_LINK/iot_link/os/liteos/base/ipc\los_queue.c ****     if (OS_QUEUE_UNUSED == pstQueueCB->usQueueState)
 1690              		.loc 1 566 16 view .LVU503
 1691 0028 00FB0455 		mla	r5, r0, r4, r5
 1692              	.LVL167:
 567:C:/Users/²Ü¼ÒºÀ/.iotlink/sdk/IoT_LINK/iot_link/os/liteos/base/ipc\los_queue.c ****     {
 1693              		.loc 1 567 5 is_stmt 1 view .LVU504
 567:C:/Users/²Ü¼ÒºÀ/.iotlink/sdk/IoT_LINK/iot_link/os/liteos/base/ipc\los_queue.c ****     {
 1694              		.loc 1 567 8 is_stmt 0 view .LVU505
 1695 002c AC88     		ldrh	r4, [r5, #4]
 1696              	.LVL168:
 567:C:/Users/²Ü¼ÒºÀ/.iotlink/sdk/IoT_LINK/iot_link/os/liteos/base/ipc\los_queue.c ****     {
 1697              		.loc 1 567 8 view .LVU506
 1698 002e 14B3     		cbz	r4, .L119
 572:C:/Users/²Ü¼ÒºÀ/.iotlink/sdk/IoT_LINK/iot_link/os/liteos/base/ipc\los_queue.c ****     if (NULL == pMem)
 1699              		.loc 1 572 5 is_stmt 1 view .LVU507
 572:C:/Users/²Ü¼ÒºÀ/.iotlink/sdk/IoT_LINK/iot_link/os/liteos/base/ipc\los_queue.c ****     if (NULL == pMem)
 1700              		.loc 1 572 12 is_stmt 0 view .LVU508
 1701 0030 3046     		mov	r0, r6
 1702 0032 FFF7FEFF 		bl	LOS_MemboxAlloc
 1703              	.LVL169:
 573:C:/Users/²Ü¼ÒºÀ/.iotlink/sdk/IoT_LINK/iot_link/os/liteos/base/ipc\los_queue.c ****     {
 1704              		.loc 1 573 5 is_stmt 1 view .LVU509
 573:C:/Users/²Ü¼ÒºÀ/.iotlink/sdk/IoT_LINK/iot_link/os/liteos/base/ipc\los_queue.c ****     {
 1705              		.loc 1 573 8 is_stmt 0 view .LVU510
 1706 0036 0446     		mov	r4, r0
ARM GAS  C:\Users\²Ü¼ÒºÀ\AppData\Local\Temp\ccapTJCk.s 			page 51


 1707 0038 E8B9     		cbnz	r0, .L119
 575:C:/Users/²Ü¼ÒºÀ/.iotlink/sdk/IoT_LINK/iot_link/os/liteos/base/ipc\los_queue.c ****         {
 1708              		.loc 1 575 9 is_stmt 1 view .LVU511
 575:C:/Users/²Ü¼ÒºÀ/.iotlink/sdk/IoT_LINK/iot_link/os/liteos/base/ipc\los_queue.c ****         {
 1709              		.loc 1 575 12 is_stmt 0 view .LVU512
 1710 003a B8F1000F 		cmp	r8, #0
 1711 003e 1AD0     		beq	.L119
 580:C:/Users/²Ü¼ÒºÀ/.iotlink/sdk/IoT_LINK/iot_link/os/liteos/base/ipc\los_queue.c ****         osTaskWait(&pstQueueCB->stMemList, OS_TASK_STATUS_PEND_QUEUE, uwTimeOut);
 1712              		.loc 1 580 9 is_stmt 1 view .LVU513
 580:C:/Users/²Ü¼ÒºÀ/.iotlink/sdk/IoT_LINK/iot_link/os/liteos/base/ipc\los_queue.c ****         osTaskWait(&pstQueueCB->stMemList, OS_TASK_STATUS_PEND_QUEUE, uwTimeOut);
 1713              		.loc 1 580 19 is_stmt 0 view .LVU514
 1714 0040 124B     		ldr	r3, .L131+4
 581:C:/Users/²Ü¼ÒºÀ/.iotlink/sdk/IoT_LINK/iot_link/os/liteos/base/ipc\los_queue.c ****         LOS_IntRestore(uvIntSave);
 1715              		.loc 1 581 9 view .LVU515
 1716 0042 4246     		mov	r2, r8
 580:C:/Users/²Ü¼ÒºÀ/.iotlink/sdk/IoT_LINK/iot_link/os/liteos/base/ipc\los_queue.c ****         osTaskWait(&pstQueueCB->stMemList, OS_TASK_STATUS_PEND_QUEUE, uwTimeOut);
 1717              		.loc 1 580 19 view .LVU516
 1718 0044 1E68     		ldr	r6, [r3]
 1719              	.LVL170:
 581:C:/Users/²Ü¼ÒºÀ/.iotlink/sdk/IoT_LINK/iot_link/os/liteos/base/ipc\los_queue.c ****         LOS_IntRestore(uvIntSave);
 1720              		.loc 1 581 9 is_stmt 1 view .LVU517
 1721 0046 4FF40051 		mov	r1, #8192
 1722 004a 05F12400 		add	r0, r5, #36
 1723              	.LVL171:
 581:C:/Users/²Ü¼ÒºÀ/.iotlink/sdk/IoT_LINK/iot_link/os/liteos/base/ipc\los_queue.c ****         LOS_IntRestore(uvIntSave);
 1724              		.loc 1 581 9 is_stmt 0 view .LVU518
 1725 004e FFF7FEFF 		bl	osTaskWait
 1726              	.LVL172:
 582:C:/Users/²Ü¼ÒºÀ/.iotlink/sdk/IoT_LINK/iot_link/os/liteos/base/ipc\los_queue.c ****         LOS_Schedule();
 1727              		.loc 1 582 9 is_stmt 1 view .LVU519
 1728 0052 3846     		mov	r0, r7
 1729 0054 FFF7FEFF 		bl	LOS_IntRestore
 1730              	.LVL173:
 583:C:/Users/²Ü¼ÒºÀ/.iotlink/sdk/IoT_LINK/iot_link/os/liteos/base/ipc\los_queue.c **** 
 1731              		.loc 1 583 9 view .LVU520
 1732 0058 FFF7FEFF 		bl	LOS_Schedule
 1733              	.LVL174:
 585:C:/Users/²Ü¼ÒºÀ/.iotlink/sdk/IoT_LINK/iot_link/os/liteos/base/ipc\los_queue.c ****         if (pstRunTsk->usTaskStatus & OS_TASK_STATUS_TIMEOUT)
 1734              		.loc 1 585 9 view .LVU521
 585:C:/Users/²Ü¼ÒºÀ/.iotlink/sdk/IoT_LINK/iot_link/os/liteos/base/ipc\los_queue.c ****         if (pstRunTsk->usTaskStatus & OS_TASK_STATUS_TIMEOUT)
 1735              		.loc 1 585 21 is_stmt 0 view .LVU522
 1736 005c FFF7FEFF 		bl	LOS_IntLock
 1737              	.LVL175:
 586:C:/Users/²Ü¼ÒºÀ/.iotlink/sdk/IoT_LINK/iot_link/os/liteos/base/ipc\los_queue.c ****         {
 1738              		.loc 1 586 22 view .LVU523
 1739 0060 B388     		ldrh	r3, [r6, #4]
 586:C:/Users/²Ü¼ÒºÀ/.iotlink/sdk/IoT_LINK/iot_link/os/liteos/base/ipc\los_queue.c ****         {
 1740              		.loc 1 586 12 view .LVU524
 1741 0062 13F04002 		ands	r2, r3, #64
 588:C:/Users/²Ü¼ÒºÀ/.iotlink/sdk/IoT_LINK/iot_link/os/liteos/base/ipc\los_queue.c ****             goto END;
 1742              		.loc 1 588 37 view .LVU525
 1743 0066 16BF     		itet	ne
 1744 0068 23F04003 		bicne	r3, r3, #64
 596:C:/Users/²Ü¼ÒºÀ/.iotlink/sdk/IoT_LINK/iot_link/os/liteos/base/ipc\los_queue.c ****             pstRunTsk->puwMsg = NULL;
 1745              		.loc 1 596 18 view .LVU526
 1746 006c 346D     		ldreq	r4, [r6, #80]
 1747              	.LVL176:
ARM GAS  C:\Users\²Ü¼ÒºÀ\AppData\Local\Temp\ccapTJCk.s 			page 52


 588:C:/Users/²Ü¼ÒºÀ/.iotlink/sdk/IoT_LINK/iot_link/os/liteos/base/ipc\los_queue.c ****             goto END;
 1748              		.loc 1 588 37 view .LVU527
 1749 006e B380     		strhne	r3, [r6, #4]	@ movhi
 585:C:/Users/²Ü¼ÒºÀ/.iotlink/sdk/IoT_LINK/iot_link/os/liteos/base/ipc\los_queue.c ****         if (pstRunTsk->usTaskStatus & OS_TASK_STATUS_TIMEOUT)
 1750              		.loc 1 585 21 view .LVU528
 1751 0070 0746     		mov	r7, r0
 1752              	.LVL177:
 586:C:/Users/²Ü¼ÒºÀ/.iotlink/sdk/IoT_LINK/iot_link/os/liteos/base/ipc\los_queue.c ****         {
 1753              		.loc 1 586 9 is_stmt 1 view .LVU529
 588:C:/Users/²Ü¼ÒºÀ/.iotlink/sdk/IoT_LINK/iot_link/os/liteos/base/ipc\los_queue.c ****             goto END;
 1754              		.loc 1 588 13 view .LVU530
 589:C:/Users/²Ü¼ÒºÀ/.iotlink/sdk/IoT_LINK/iot_link/os/liteos/base/ipc\los_queue.c ****         }
 1755              		.loc 1 589 13 view .LVU531
 596:C:/Users/²Ü¼ÒºÀ/.iotlink/sdk/IoT_LINK/iot_link/os/liteos/base/ipc\los_queue.c ****             pstRunTsk->puwMsg = NULL;
 1756              		.loc 1 596 13 view .LVU532
 597:C:/Users/²Ü¼ÒºÀ/.iotlink/sdk/IoT_LINK/iot_link/os/liteos/base/ipc\los_queue.c ****         }
 1757              		.loc 1 597 13 view .LVU533
 597:C:/Users/²Ü¼ÒºÀ/.iotlink/sdk/IoT_LINK/iot_link/os/liteos/base/ipc\los_queue.c ****         }
 1758              		.loc 1 597 31 is_stmt 0 view .LVU534
 1759 0072 08BF     		it	eq
 1760 0074 3265     		streq	r2, [r6, #80]
 1761              	.LVL178:
 1762              	.L119:
 602:C:/Users/²Ü¼ÒºÀ/.iotlink/sdk/IoT_LINK/iot_link/os/liteos/base/ipc\los_queue.c ****     return pMem;
 1763              		.loc 1 602 5 is_stmt 1 view .LVU535
 1764 0076 3846     		mov	r0, r7
 1765 0078 FFF7FEFF 		bl	LOS_IntRestore
 1766              	.LVL179:
 603:C:/Users/²Ü¼ÒºÀ/.iotlink/sdk/IoT_LINK/iot_link/os/liteos/base/ipc\los_queue.c **** }
 1767              		.loc 1 603 5 view .LVU536
 603:C:/Users/²Ü¼ÒºÀ/.iotlink/sdk/IoT_LINK/iot_link/os/liteos/base/ipc\los_queue.c **** }
 1768              		.loc 1 603 12 is_stmt 0 view .LVU537
 1769 007c C8E7     		b	.L114
 1770              	.LVL180:
 1771              	.L118:
 559:C:/Users/²Ü¼ÒºÀ/.iotlink/sdk/IoT_LINK/iot_link/os/liteos/base/ipc\los_queue.c ****         {
 1772              		.loc 1 559 9 is_stmt 1 view .LVU538
 559:C:/Users/²Ü¼ÒºÀ/.iotlink/sdk/IoT_LINK/iot_link/os/liteos/base/ipc\los_queue.c ****         {
 1773              		.loc 1 559 13 is_stmt 0 view .LVU539
 1774 007e FFF7FEFF 		bl	osIntNumGet
 1775              	.LVL181:
 559:C:/Users/²Ü¼ÒºÀ/.iotlink/sdk/IoT_LINK/iot_link/os/liteos/base/ipc\los_queue.c ****         {
 1776              		.loc 1 559 12 view .LVU540
 1777 0082 0028     		cmp	r0, #0
 1778 0084 CAD0     		beq	.L121
 1779 0086 C2E7     		b	.L117
 1780              	.L132:
 1781              		.align	2
 1782              	.L131:
 1783 0088 00000000 		.word	g_pstAllQueue
 1784 008c 00000000 		.word	g_stLosTask
 1785              		.cfi_endproc
 1786              	.LFE299:
 1788              		.section	.text.osQueueMailFree,"ax",%progbits
 1789              		.align	1
 1790              		.global	osQueueMailFree
 1791              		.syntax unified
ARM GAS  C:\Users\²Ü¼ÒºÀ\AppData\Local\Temp\ccapTJCk.s 			page 53


 1792              		.thumb
 1793              		.thumb_func
 1794              		.fpu fpv4-sp-d16
 1796              	osQueueMailFree:
 1797              	.LVL182:
 1798              	.LFB300:
 605:C:/Users/²Ü¼ÒºÀ/.iotlink/sdk/IoT_LINK/iot_link/os/liteos/base/ipc\los_queue.c **** 
 606:C:/Users/²Ü¼ÒºÀ/.iotlink/sdk/IoT_LINK/iot_link/os/liteos/base/ipc\los_queue.c **** /*****************************************************************************
 607:C:/Users/²Ü¼ÒºÀ/.iotlink/sdk/IoT_LINK/iot_link/os/liteos/base/ipc\los_queue.c ****  Function    : osQueueMailFree
 608:C:/Users/²Ü¼ÒºÀ/.iotlink/sdk/IoT_LINK/iot_link/os/liteos/base/ipc\los_queue.c ****  Description : Mail free memory
 609:C:/Users/²Ü¼ÒºÀ/.iotlink/sdk/IoT_LINK/iot_link/os/liteos/base/ipc\los_queue.c ****  Input       : uwQueueID   --- QueueID
 610:C:/Users/²Ü¼ÒºÀ/.iotlink/sdk/IoT_LINK/iot_link/os/liteos/base/ipc\los_queue.c ****              : pMailPool   --- MailPool
 611:C:/Users/²Ü¼ÒºÀ/.iotlink/sdk/IoT_LINK/iot_link/os/liteos/base/ipc\los_queue.c ****  Output      : None
 612:C:/Users/²Ü¼ÒºÀ/.iotlink/sdk/IoT_LINK/iot_link/os/liteos/base/ipc\los_queue.c ****  Return      : LOS_OK on success or error code on failure
 613:C:/Users/²Ü¼ÒºÀ/.iotlink/sdk/IoT_LINK/iot_link/os/liteos/base/ipc\los_queue.c ****  *****************************************************************************/
 614:C:/Users/²Ü¼ÒºÀ/.iotlink/sdk/IoT_LINK/iot_link/os/liteos/base/ipc\los_queue.c **** LITE_OS_SEC_TEXT UINT32 osQueueMailFree(UINT32  uwQueueID, VOID* pMailPool, VOID* pMailMem)
 615:C:/Users/²Ü¼ÒºÀ/.iotlink/sdk/IoT_LINK/iot_link/os/liteos/base/ipc\los_queue.c **** {
 1799              		.loc 1 615 1 is_stmt 1 view -0
 1800              		.cfi_startproc
 1801              		@ args = 0, pretend = 0, frame = 8
 1802              		@ frame_needed = 0, uses_anonymous_args = 0
 616:C:/Users/²Ü¼ÒºÀ/.iotlink/sdk/IoT_LINK/iot_link/os/liteos/base/ipc\los_queue.c ****     VOID *pMem = (VOID *)NULL;
 1803              		.loc 1 616 5 view .LVU542
 617:C:/Users/²Ü¼ÒºÀ/.iotlink/sdk/IoT_LINK/iot_link/os/liteos/base/ipc\los_queue.c ****     UINTPTR uvIntSave;
 1804              		.loc 1 617 5 view .LVU543
 618:C:/Users/²Ü¼ÒºÀ/.iotlink/sdk/IoT_LINK/iot_link/os/liteos/base/ipc\los_queue.c ****     QUEUE_CB_S *pstQueueCB = (QUEUE_CB_S *)NULL;
 1805              		.loc 1 618 5 view .LVU544
 619:C:/Users/²Ü¼ÒºÀ/.iotlink/sdk/IoT_LINK/iot_link/os/liteos/base/ipc\los_queue.c ****     LOS_TASK_CB *pstResumedTask = (LOS_TASK_CB *)NULL;
 1806              		.loc 1 619 5 view .LVU545
 620:C:/Users/²Ü¼ÒºÀ/.iotlink/sdk/IoT_LINK/iot_link/os/liteos/base/ipc\los_queue.c **** 
 621:C:/Users/²Ü¼ÒºÀ/.iotlink/sdk/IoT_LINK/iot_link/os/liteos/base/ipc\los_queue.c ****     if (uwQueueID >= LOSCFG_BASE_IPC_QUEUE_LIMIT)
 1807              		.loc 1 621 5 view .LVU546
 615:C:/Users/²Ü¼ÒºÀ/.iotlink/sdk/IoT_LINK/iot_link/os/liteos/base/ipc\los_queue.c ****     VOID *pMem = (VOID *)NULL;
 1808              		.loc 1 615 1 is_stmt 0 view .LVU547
 1809 0000 F7B5     		push	{r0, r1, r2, r4, r5, r6, r7, lr}
 1810              	.LCFI25:
 1811              		.cfi_def_cfa_offset 32
 1812              		.cfi_offset 4, -20
 1813              		.cfi_offset 5, -16
 1814              		.cfi_offset 6, -12
 1815              		.cfi_offset 7, -8
 1816              		.cfi_offset 14, -4
 1817              		.loc 1 621 8 view .LVU548
 1818 0002 0928     		cmp	r0, #9
 615:C:/Users/²Ü¼ÒºÀ/.iotlink/sdk/IoT_LINK/iot_link/os/liteos/base/ipc\los_queue.c ****     VOID *pMem = (VOID *)NULL;
 1819              		.loc 1 615 1 view .LVU549
 1820 0004 0446     		mov	r4, r0
 1821 0006 0F46     		mov	r7, r1
 1822 0008 0192     		str	r2, [sp, #4]
 1823              		.loc 1 621 8 view .LVU550
 1824 000a 34D8     		bhi	.L138
 622:C:/Users/²Ü¼ÒºÀ/.iotlink/sdk/IoT_LINK/iot_link/os/liteos/base/ipc\los_queue.c ****     {
 623:C:/Users/²Ü¼ÒºÀ/.iotlink/sdk/IoT_LINK/iot_link/os/liteos/base/ipc\los_queue.c ****         return LOS_ERRNO_QUEUE_MAIL_HANDLE_INVALID;
 624:C:/Users/²Ü¼ÒºÀ/.iotlink/sdk/IoT_LINK/iot_link/os/liteos/base/ipc\los_queue.c ****     }
 625:C:/Users/²Ü¼ÒºÀ/.iotlink/sdk/IoT_LINK/iot_link/os/liteos/base/ipc\los_queue.c **** 
 626:C:/Users/²Ü¼ÒºÀ/.iotlink/sdk/IoT_LINK/iot_link/os/liteos/base/ipc\los_queue.c ****     if (pMailPool == NULL)
 1825              		.loc 1 626 5 is_stmt 1 view .LVU551
ARM GAS  C:\Users\²Ü¼ÒºÀ\AppData\Local\Temp\ccapTJCk.s 			page 54


 1826              		.loc 1 626 8 is_stmt 0 view .LVU552
 1827 000c AFB3     		cbz	r7, .L139
 627:C:/Users/²Ü¼ÒºÀ/.iotlink/sdk/IoT_LINK/iot_link/os/liteos/base/ipc\los_queue.c ****     {
 628:C:/Users/²Ü¼ÒºÀ/.iotlink/sdk/IoT_LINK/iot_link/os/liteos/base/ipc\los_queue.c ****         return LOS_ERRNO_QUEUE_MAIL_PTR_INVALID;
 629:C:/Users/²Ü¼ÒºÀ/.iotlink/sdk/IoT_LINK/iot_link/os/liteos/base/ipc\los_queue.c ****     }
 630:C:/Users/²Ü¼ÒºÀ/.iotlink/sdk/IoT_LINK/iot_link/os/liteos/base/ipc\los_queue.c **** 
 631:C:/Users/²Ü¼ÒºÀ/.iotlink/sdk/IoT_LINK/iot_link/os/liteos/base/ipc\los_queue.c ****     uvIntSave = LOS_IntLock();
 1828              		.loc 1 631 5 is_stmt 1 view .LVU553
 1829              		.loc 1 631 17 is_stmt 0 view .LVU554
 1830 000e FFF7FEFF 		bl	LOS_IntLock
 1831              	.LVL183:
 632:C:/Users/²Ü¼ÒºÀ/.iotlink/sdk/IoT_LINK/iot_link/os/liteos/base/ipc\los_queue.c **** 
 633:C:/Users/²Ü¼ÒºÀ/.iotlink/sdk/IoT_LINK/iot_link/os/liteos/base/ipc\los_queue.c ****     if (LOS_MemboxFree(pMailPool, pMailMem))
 1832              		.loc 1 633 9 view .LVU555
 1833 0012 0199     		ldr	r1, [sp, #4]
 631:C:/Users/²Ü¼ÒºÀ/.iotlink/sdk/IoT_LINK/iot_link/os/liteos/base/ipc\los_queue.c **** 
 1834              		.loc 1 631 17 view .LVU556
 1835 0014 0646     		mov	r6, r0
 1836              	.LVL184:
 1837              		.loc 1 633 5 is_stmt 1 view .LVU557
 1838              		.loc 1 633 9 is_stmt 0 view .LVU558
 1839 0016 3846     		mov	r0, r7
 1840              	.LVL185:
 1841              		.loc 1 633 9 view .LVU559
 1842 0018 FFF7FEFF 		bl	LOS_MemboxFree
 1843              	.LVL186:
 1844              		.loc 1 633 8 view .LVU560
 1845 001c 0546     		mov	r5, r0
 1846 001e 30B1     		cbz	r0, .L135
 634:C:/Users/²Ü¼ÒºÀ/.iotlink/sdk/IoT_LINK/iot_link/os/liteos/base/ipc\los_queue.c ****     {
 635:C:/Users/²Ü¼ÒºÀ/.iotlink/sdk/IoT_LINK/iot_link/os/liteos/base/ipc\los_queue.c ****         LOS_IntRestore(uvIntSave);
 1847              		.loc 1 635 9 is_stmt 1 view .LVU561
 1848 0020 3046     		mov	r0, r6
 1849 0022 FFF7FEFF 		bl	LOS_IntRestore
 1850              	.LVL187:
 636:C:/Users/²Ü¼ÒºÀ/.iotlink/sdk/IoT_LINK/iot_link/os/liteos/base/ipc\los_queue.c ****         return LOS_ERRNO_QUEUE_MAIL_FREE_ERROR;
 1851              		.loc 1 636 9 view .LVU562
 1852              		.loc 1 636 16 is_stmt 0 view .LVU563
 1853 0026 164D     		ldr	r5, .L140
 1854              	.LVL188:
 1855              	.L133:
 637:C:/Users/²Ü¼ÒºÀ/.iotlink/sdk/IoT_LINK/iot_link/os/liteos/base/ipc\los_queue.c ****     }
 638:C:/Users/²Ü¼ÒºÀ/.iotlink/sdk/IoT_LINK/iot_link/os/liteos/base/ipc\los_queue.c **** 
 639:C:/Users/²Ü¼ÒºÀ/.iotlink/sdk/IoT_LINK/iot_link/os/liteos/base/ipc\los_queue.c ****     pstQueueCB = GET_QUEUE_HANDLE(uwQueueID);
 640:C:/Users/²Ü¼ÒºÀ/.iotlink/sdk/IoT_LINK/iot_link/os/liteos/base/ipc\los_queue.c ****     if (OS_QUEUE_UNUSED == pstQueueCB->usQueueState)
 641:C:/Users/²Ü¼ÒºÀ/.iotlink/sdk/IoT_LINK/iot_link/os/liteos/base/ipc\los_queue.c ****     {
 642:C:/Users/²Ü¼ÒºÀ/.iotlink/sdk/IoT_LINK/iot_link/os/liteos/base/ipc\los_queue.c ****         LOS_IntRestore(uvIntSave);
 643:C:/Users/²Ü¼ÒºÀ/.iotlink/sdk/IoT_LINK/iot_link/os/liteos/base/ipc\los_queue.c ****         return LOS_ERRNO_QUEUE_NOT_CREATE;
 644:C:/Users/²Ü¼ÒºÀ/.iotlink/sdk/IoT_LINK/iot_link/os/liteos/base/ipc\los_queue.c ****     }
 645:C:/Users/²Ü¼ÒºÀ/.iotlink/sdk/IoT_LINK/iot_link/os/liteos/base/ipc\los_queue.c **** 
 646:C:/Users/²Ü¼ÒºÀ/.iotlink/sdk/IoT_LINK/iot_link/os/liteos/base/ipc\los_queue.c ****     if (!LOS_ListEmpty(&pstQueueCB->stMemList))
 647:C:/Users/²Ü¼ÒºÀ/.iotlink/sdk/IoT_LINK/iot_link/os/liteos/base/ipc\los_queue.c ****     {
 648:C:/Users/²Ü¼ÒºÀ/.iotlink/sdk/IoT_LINK/iot_link/os/liteos/base/ipc\los_queue.c ****         pstResumedTask = OS_TCB_FROM_PENDLIST(LOS_DL_LIST_FIRST(&pstQueueCB->stMemList)); /*lint !e
 649:C:/Users/²Ü¼ÒºÀ/.iotlink/sdk/IoT_LINK/iot_link/os/liteos/base/ipc\los_queue.c ****         osTaskWake(pstResumedTask, OS_TASK_STATUS_PEND_QUEUE);
 650:C:/Users/²Ü¼ÒºÀ/.iotlink/sdk/IoT_LINK/iot_link/os/liteos/base/ipc\los_queue.c ****         pMem = LOS_MemboxAlloc(pMailPool);
 651:C:/Users/²Ü¼ÒºÀ/.iotlink/sdk/IoT_LINK/iot_link/os/liteos/base/ipc\los_queue.c ****         /* At the state of LOS_IntLock, the allocation can not be failed after releasing succefully
 652:C:/Users/²Ü¼ÒºÀ/.iotlink/sdk/IoT_LINK/iot_link/os/liteos/base/ipc\los_queue.c **** 
ARM GAS  C:\Users\²Ü¼ÒºÀ\AppData\Local\Temp\ccapTJCk.s 			page 55


 653:C:/Users/²Ü¼ÒºÀ/.iotlink/sdk/IoT_LINK/iot_link/os/liteos/base/ipc\los_queue.c ****         pstResumedTask->puwMsg = pMem;
 654:C:/Users/²Ü¼ÒºÀ/.iotlink/sdk/IoT_LINK/iot_link/os/liteos/base/ipc\los_queue.c ****         LOS_IntRestore(uvIntSave);
 655:C:/Users/²Ü¼ÒºÀ/.iotlink/sdk/IoT_LINK/iot_link/os/liteos/base/ipc\los_queue.c ****         LOS_Schedule();
 656:C:/Users/²Ü¼ÒºÀ/.iotlink/sdk/IoT_LINK/iot_link/os/liteos/base/ipc\los_queue.c ****     }
 657:C:/Users/²Ü¼ÒºÀ/.iotlink/sdk/IoT_LINK/iot_link/os/liteos/base/ipc\los_queue.c ****     else
 658:C:/Users/²Ü¼ÒºÀ/.iotlink/sdk/IoT_LINK/iot_link/os/liteos/base/ipc\los_queue.c ****     {
 659:C:/Users/²Ü¼ÒºÀ/.iotlink/sdk/IoT_LINK/iot_link/os/liteos/base/ipc\los_queue.c ****         LOS_IntRestore(uvIntSave);
 660:C:/Users/²Ü¼ÒºÀ/.iotlink/sdk/IoT_LINK/iot_link/os/liteos/base/ipc\los_queue.c ****     }
 661:C:/Users/²Ü¼ÒºÀ/.iotlink/sdk/IoT_LINK/iot_link/os/liteos/base/ipc\los_queue.c ****     return LOS_OK;
 662:C:/Users/²Ü¼ÒºÀ/.iotlink/sdk/IoT_LINK/iot_link/os/liteos/base/ipc\los_queue.c **** }
 1856              		.loc 1 662 1 view .LVU564
 1857 0028 2846     		mov	r0, r5
 1858 002a 03B0     		add	sp, sp, #12
 1859              	.LCFI26:
 1860              		.cfi_remember_state
 1861              		.cfi_def_cfa_offset 20
 1862              		@ sp needed
 1863 002c F0BD     		pop	{r4, r5, r6, r7, pc}
 1864              	.LVL189:
 1865              	.L135:
 1866              	.LCFI27:
 1867              		.cfi_restore_state
 639:C:/Users/²Ü¼ÒºÀ/.iotlink/sdk/IoT_LINK/iot_link/os/liteos/base/ipc\los_queue.c ****     if (OS_QUEUE_UNUSED == pstQueueCB->usQueueState)
 1868              		.loc 1 639 5 is_stmt 1 view .LVU565
 639:C:/Users/²Ü¼ÒºÀ/.iotlink/sdk/IoT_LINK/iot_link/os/liteos/base/ipc\los_queue.c ****     if (OS_QUEUE_UNUSED == pstQueueCB->usQueueState)
 1869              		.loc 1 639 16 is_stmt 0 view .LVU566
 1870 002e 154B     		ldr	r3, .L140+4
 1871 0030 1B68     		ldr	r3, [r3]
 1872 0032 2C20     		movs	r0, #44
 1873 0034 00FB0433 		mla	r3, r0, r4, r3
 1874              	.LVL190:
 640:C:/Users/²Ü¼ÒºÀ/.iotlink/sdk/IoT_LINK/iot_link/os/liteos/base/ipc\los_queue.c ****     {
 1875              		.loc 1 640 5 is_stmt 1 view .LVU567
 640:C:/Users/²Ü¼ÒºÀ/.iotlink/sdk/IoT_LINK/iot_link/os/liteos/base/ipc\los_queue.c ****     {
 1876              		.loc 1 640 8 is_stmt 0 view .LVU568
 1877 0038 9A88     		ldrh	r2, [r3, #4]
 1878 003a 22B9     		cbnz	r2, .L136
 642:C:/Users/²Ü¼ÒºÀ/.iotlink/sdk/IoT_LINK/iot_link/os/liteos/base/ipc\los_queue.c ****         return LOS_ERRNO_QUEUE_NOT_CREATE;
 1879              		.loc 1 642 9 is_stmt 1 view .LVU569
 1880 003c 3046     		mov	r0, r6
 1881 003e FFF7FEFF 		bl	LOS_IntRestore
 1882              	.LVL191:
 643:C:/Users/²Ü¼ÒºÀ/.iotlink/sdk/IoT_LINK/iot_link/os/liteos/base/ipc\los_queue.c ****     }
 1883              		.loc 1 643 9 view .LVU570
 643:C:/Users/²Ü¼ÒºÀ/.iotlink/sdk/IoT_LINK/iot_link/os/liteos/base/ipc\los_queue.c ****     }
 1884              		.loc 1 643 16 is_stmt 0 view .LVU571
 1885 0042 114D     		ldr	r5, .L140+8
 1886 0044 F0E7     		b	.L133
 1887              	.LVL192:
 1888              	.L136:
 646:C:/Users/²Ü¼ÒºÀ/.iotlink/sdk/IoT_LINK/iot_link/os/liteos/base/ipc\los_queue.c ****     {
 1889              		.loc 1 646 5 is_stmt 1 view .LVU572
 1890              	.LBB139:
 1891              	.LBI139:
 213:C:/Users/²Ü¼ÒºÀ/.iotlink/sdk/IoT_LINK/iot_link/os/liteos/include\los_list.h **** {
 1892              		.loc 2 213 43 view .LVU573
 1893              	.LBB140:
ARM GAS  C:\Users\²Ü¼ÒºÀ\AppData\Local\Temp\ccapTJCk.s 			page 56


 1894              		.loc 2 215 5 view .LVU574
 1895              		.loc 2 215 26 is_stmt 0 view .LVU575
 1896 0046 9C6A     		ldr	r4, [r3, #40]
 1897              	.LVL193:
 1898              		.loc 2 215 26 view .LVU576
 1899              	.LBE140:
 1900              	.LBE139:
 646:C:/Users/²Ü¼ÒºÀ/.iotlink/sdk/IoT_LINK/iot_link/os/liteos/base/ipc\los_queue.c ****     {
 1901              		.loc 1 646 10 view .LVU577
 1902 0048 2433     		adds	r3, r3, #36
 1903              	.LVL194:
 646:C:/Users/²Ü¼ÒºÀ/.iotlink/sdk/IoT_LINK/iot_link/os/liteos/base/ipc\los_queue.c ****     {
 1904              		.loc 1 646 8 view .LVU578
 1905 004a 9C42     		cmp	r4, r3
 1906 004c 0FD0     		beq	.L137
 648:C:/Users/²Ü¼ÒºÀ/.iotlink/sdk/IoT_LINK/iot_link/os/liteos/base/ipc\los_queue.c ****         osTaskWake(pstResumedTask, OS_TASK_STATUS_PEND_QUEUE);
 1907              		.loc 1 648 9 is_stmt 1 view .LVU579
 1908              	.LVL195:
 649:C:/Users/²Ü¼ÒºÀ/.iotlink/sdk/IoT_LINK/iot_link/os/liteos/base/ipc\los_queue.c ****         pMem = LOS_MemboxAlloc(pMailPool);
 1909              		.loc 1 649 9 view .LVU580
 1910 004e 4FF40051 		mov	r1, #8192
 1911 0052 A4F12800 		sub	r0, r4, #40
 1912              	.LVL196:
 649:C:/Users/²Ü¼ÒºÀ/.iotlink/sdk/IoT_LINK/iot_link/os/liteos/base/ipc\los_queue.c ****         pMem = LOS_MemboxAlloc(pMailPool);
 1913              		.loc 1 649 9 is_stmt 0 view .LVU581
 1914 0056 FFF7FEFF 		bl	osTaskWake
 1915              	.LVL197:
 650:C:/Users/²Ü¼ÒºÀ/.iotlink/sdk/IoT_LINK/iot_link/os/liteos/base/ipc\los_queue.c ****         /* At the state of LOS_IntLock, the allocation can not be failed after releasing succefully
 1916              		.loc 1 650 9 is_stmt 1 view .LVU582
 650:C:/Users/²Ü¼ÒºÀ/.iotlink/sdk/IoT_LINK/iot_link/os/liteos/base/ipc\los_queue.c ****         /* At the state of LOS_IntLock, the allocation can not be failed after releasing succefully
 1917              		.loc 1 650 16 is_stmt 0 view .LVU583
 1918 005a 3846     		mov	r0, r7
 1919 005c FFF7FEFF 		bl	LOS_MemboxAlloc
 1920              	.LVL198:
 653:C:/Users/²Ü¼ÒºÀ/.iotlink/sdk/IoT_LINK/iot_link/os/liteos/base/ipc\los_queue.c ****         LOS_IntRestore(uvIntSave);
 1921              		.loc 1 653 9 is_stmt 1 view .LVU584
 653:C:/Users/²Ü¼ÒºÀ/.iotlink/sdk/IoT_LINK/iot_link/os/liteos/base/ipc\los_queue.c ****         LOS_IntRestore(uvIntSave);
 1922              		.loc 1 653 32 is_stmt 0 view .LVU585
 1923 0060 A062     		str	r0, [r4, #40]
 654:C:/Users/²Ü¼ÒºÀ/.iotlink/sdk/IoT_LINK/iot_link/os/liteos/base/ipc\los_queue.c ****         LOS_Schedule();
 1924              		.loc 1 654 9 is_stmt 1 view .LVU586
 1925 0062 3046     		mov	r0, r6
 1926              	.LVL199:
 654:C:/Users/²Ü¼ÒºÀ/.iotlink/sdk/IoT_LINK/iot_link/os/liteos/base/ipc\los_queue.c ****         LOS_Schedule();
 1927              		.loc 1 654 9 is_stmt 0 view .LVU587
 1928 0064 FFF7FEFF 		bl	LOS_IntRestore
 1929              	.LVL200:
 655:C:/Users/²Ü¼ÒºÀ/.iotlink/sdk/IoT_LINK/iot_link/os/liteos/base/ipc\los_queue.c ****     }
 1930              		.loc 1 655 9 is_stmt 1 view .LVU588
 1931 0068 FFF7FEFF 		bl	LOS_Schedule
 1932              	.LVL201:
 1933 006c DCE7     		b	.L133
 1934              	.LVL202:
 1935              	.L137:
 659:C:/Users/²Ü¼ÒºÀ/.iotlink/sdk/IoT_LINK/iot_link/os/liteos/base/ipc\los_queue.c ****     }
 1936              		.loc 1 659 9 view .LVU589
 1937 006e 3046     		mov	r0, r6
ARM GAS  C:\Users\²Ü¼ÒºÀ\AppData\Local\Temp\ccapTJCk.s 			page 57


 1938 0070 FFF7FEFF 		bl	LOS_IntRestore
 1939              	.LVL203:
 659:C:/Users/²Ü¼ÒºÀ/.iotlink/sdk/IoT_LINK/iot_link/os/liteos/base/ipc\los_queue.c ****     }
 1940              		.loc 1 659 9 is_stmt 0 view .LVU590
 1941 0074 D8E7     		b	.L133
 1942              	.LVL204:
 1943              	.L138:
 623:C:/Users/²Ü¼ÒºÀ/.iotlink/sdk/IoT_LINK/iot_link/os/liteos/base/ipc\los_queue.c ****     }
 1944              		.loc 1 623 16 view .LVU591
 1945 0076 054D     		ldr	r5, .L140+12
 1946 0078 D6E7     		b	.L133
 1947              	.L139:
 628:C:/Users/²Ü¼ÒºÀ/.iotlink/sdk/IoT_LINK/iot_link/os/liteos/base/ipc\los_queue.c ****     }
 1948              		.loc 1 628 16 view .LVU592
 1949 007a 054D     		ldr	r5, .L140+16
 1950 007c D4E7     		b	.L133
 1951              	.L141:
 1952 007e 00BF     		.align	2
 1953              	.L140:
 1954 0080 1B060002 		.word	33555995
 1955 0084 00000000 		.word	g_pstAllQueue
 1956 0088 0A060002 		.word	33555978
 1957 008c 19060002 		.word	33555993
 1958 0090 1A060002 		.word	33555994
 1959              		.cfi_endproc
 1960              	.LFE300:
 1962              		.section	.text.LOS_QueueDelete,"ax",%progbits
 1963              		.align	1
 1964              		.global	LOS_QueueDelete
 1965              		.syntax unified
 1966              		.thumb
 1967              		.thumb_func
 1968              		.fpu fpv4-sp-d16
 1970              	LOS_QueueDelete:
 1971              	.LVL205:
 1972              	.LFB301:
 663:C:/Users/²Ü¼ÒºÀ/.iotlink/sdk/IoT_LINK/iot_link/os/liteos/base/ipc\los_queue.c **** 
 664:C:/Users/²Ü¼ÒºÀ/.iotlink/sdk/IoT_LINK/iot_link/os/liteos/base/ipc\los_queue.c **** /*****************************************************************************
 665:C:/Users/²Ü¼ÒºÀ/.iotlink/sdk/IoT_LINK/iot_link/os/liteos/base/ipc\los_queue.c ****  Function    : LOS_QueueDelete
 666:C:/Users/²Ü¼ÒºÀ/.iotlink/sdk/IoT_LINK/iot_link/os/liteos/base/ipc\los_queue.c ****  Description : Delete a queue
 667:C:/Users/²Ü¼ÒºÀ/.iotlink/sdk/IoT_LINK/iot_link/os/liteos/base/ipc\los_queue.c ****  Input       : puwQueueID   --- QueueID
 668:C:/Users/²Ü¼ÒºÀ/.iotlink/sdk/IoT_LINK/iot_link/os/liteos/base/ipc\los_queue.c ****  Output      : None
 669:C:/Users/²Ü¼ÒºÀ/.iotlink/sdk/IoT_LINK/iot_link/os/liteos/base/ipc\los_queue.c ****  Return      : LOS_OK on success or error code on failure
 670:C:/Users/²Ü¼ÒºÀ/.iotlink/sdk/IoT_LINK/iot_link/os/liteos/base/ipc\los_queue.c ****  *****************************************************************************/
 671:C:/Users/²Ü¼ÒºÀ/.iotlink/sdk/IoT_LINK/iot_link/os/liteos/base/ipc\los_queue.c **** LITE_OS_SEC_TEXT_INIT UINT32 LOS_QueueDelete(UINT32 uwQueueID)
 672:C:/Users/²Ü¼ÒºÀ/.iotlink/sdk/IoT_LINK/iot_link/os/liteos/base/ipc\los_queue.c **** {
 1973              		.loc 1 672 1 is_stmt 1 view -0
 1974              		.cfi_startproc
 1975              		@ args = 0, pretend = 0, frame = 8
 1976              		@ frame_needed = 0, uses_anonymous_args = 0
 673:C:/Users/²Ü¼ÒºÀ/.iotlink/sdk/IoT_LINK/iot_link/os/liteos/base/ipc\los_queue.c ****     QUEUE_CB_S *pstQueueCB;
 1977              		.loc 1 673 5 view .LVU594
 674:C:/Users/²Ü¼ÒºÀ/.iotlink/sdk/IoT_LINK/iot_link/os/liteos/base/ipc\los_queue.c ****     UINT8 *pucQueue = NULL;
 1978              		.loc 1 674 5 view .LVU595
 675:C:/Users/²Ü¼ÒºÀ/.iotlink/sdk/IoT_LINK/iot_link/os/liteos/base/ipc\los_queue.c ****     UINTPTR  uvIntSave;
 1979              		.loc 1 675 5 view .LVU596
 676:C:/Users/²Ü¼ÒºÀ/.iotlink/sdk/IoT_LINK/iot_link/os/liteos/base/ipc\los_queue.c ****     UINT32 uwRet;
ARM GAS  C:\Users\²Ü¼ÒºÀ\AppData\Local\Temp\ccapTJCk.s 			page 58


 1980              		.loc 1 676 5 view .LVU597
 677:C:/Users/²Ü¼ÒºÀ/.iotlink/sdk/IoT_LINK/iot_link/os/liteos/base/ipc\los_queue.c **** 
 678:C:/Users/²Ü¼ÒºÀ/.iotlink/sdk/IoT_LINK/iot_link/os/liteos/base/ipc\los_queue.c ****     if (uwQueueID >= LOSCFG_BASE_IPC_QUEUE_LIMIT)
 1981              		.loc 1 678 5 view .LVU598
 1982              		.loc 1 678 8 is_stmt 0 view .LVU599
 1983 0000 0928     		cmp	r0, #9
 672:C:/Users/²Ü¼ÒºÀ/.iotlink/sdk/IoT_LINK/iot_link/os/liteos/base/ipc\los_queue.c ****     QUEUE_CB_S *pstQueueCB;
 1984              		.loc 1 672 1 view .LVU600
 1985 0002 F7B5     		push	{r0, r1, r2, r4, r5, r6, r7, lr}
 1986              	.LCFI28:
 1987              		.cfi_def_cfa_offset 32
 1988              		.cfi_offset 4, -20
 1989              		.cfi_offset 5, -16
 1990              		.cfi_offset 6, -12
 1991              		.cfi_offset 7, -8
 1992              		.cfi_offset 14, -4
 672:C:/Users/²Ü¼ÒºÀ/.iotlink/sdk/IoT_LINK/iot_link/os/liteos/base/ipc\los_queue.c ****     QUEUE_CB_S *pstQueueCB;
 1993              		.loc 1 672 1 view .LVU601
 1994 0004 0446     		mov	r4, r0
 1995              		.loc 1 678 8 view .LVU602
 1996 0006 3ED8     		bhi	.L145
 679:C:/Users/²Ü¼ÒºÀ/.iotlink/sdk/IoT_LINK/iot_link/os/liteos/base/ipc\los_queue.c ****     {
 680:C:/Users/²Ü¼ÒºÀ/.iotlink/sdk/IoT_LINK/iot_link/os/liteos/base/ipc\los_queue.c ****         return LOS_ERRNO_QUEUE_NOT_FOUND;
 681:C:/Users/²Ü¼ÒºÀ/.iotlink/sdk/IoT_LINK/iot_link/os/liteos/base/ipc\los_queue.c ****     }
 682:C:/Users/²Ü¼ÒºÀ/.iotlink/sdk/IoT_LINK/iot_link/os/liteos/base/ipc\los_queue.c **** 
 683:C:/Users/²Ü¼ÒºÀ/.iotlink/sdk/IoT_LINK/iot_link/os/liteos/base/ipc\los_queue.c ****     uvIntSave = LOS_IntLock();
 1997              		.loc 1 683 5 is_stmt 1 view .LVU603
 1998              		.loc 1 683 17 is_stmt 0 view .LVU604
 1999 0008 FFF7FEFF 		bl	LOS_IntLock
 2000              	.LVL206:
 684:C:/Users/²Ü¼ÒºÀ/.iotlink/sdk/IoT_LINK/iot_link/os/liteos/base/ipc\los_queue.c ****     pstQueueCB = (QUEUE_CB_S *)GET_QUEUE_HANDLE(uwQueueID);
 2001              		.loc 1 684 16 view .LVU605
 2002 000c 1F4B     		ldr	r3, .L151
 2003              		.loc 1 684 32 view .LVU606
 2004 000e 2C22     		movs	r2, #44
 2005              		.loc 1 684 16 view .LVU607
 2006 0010 1D68     		ldr	r5, [r3]
 2007              		.loc 1 684 32 view .LVU608
 2008 0012 6243     		muls	r2, r4, r2
 2009              		.loc 1 684 16 view .LVU609
 2010 0014 AB18     		adds	r3, r5, r2
 683:C:/Users/²Ü¼ÒºÀ/.iotlink/sdk/IoT_LINK/iot_link/os/liteos/base/ipc\los_queue.c ****     pstQueueCB = (QUEUE_CB_S *)GET_QUEUE_HANDLE(uwQueueID);
 2011              		.loc 1 683 17 view .LVU610
 2012 0016 0146     		mov	r1, r0
 2013              	.LVL207:
 2014              		.loc 1 684 5 is_stmt 1 view .LVU611
 685:C:/Users/²Ü¼ÒºÀ/.iotlink/sdk/IoT_LINK/iot_link/os/liteos/base/ipc\los_queue.c ****     if (OS_QUEUE_UNUSED == pstQueueCB->usQueueState)
 2015              		.loc 1 685 5 view .LVU612
 2016              		.loc 1 685 8 is_stmt 0 view .LVU613
 2017 0018 9C88     		ldrh	r4, [r3, #4]
 2018              	.LVL208:
 2019              		.loc 1 685 8 view .LVU614
 2020 001a 4CB3     		cbz	r4, .L146
 686:C:/Users/²Ü¼ÒºÀ/.iotlink/sdk/IoT_LINK/iot_link/os/liteos/base/ipc\los_queue.c ****     {
 687:C:/Users/²Ü¼ÒºÀ/.iotlink/sdk/IoT_LINK/iot_link/os/liteos/base/ipc\los_queue.c ****         uwRet = LOS_ERRNO_QUEUE_NOT_CREATE;
 688:C:/Users/²Ü¼ÒºÀ/.iotlink/sdk/IoT_LINK/iot_link/os/liteos/base/ipc\los_queue.c ****         goto QUEUE_END;
 689:C:/Users/²Ü¼ÒºÀ/.iotlink/sdk/IoT_LINK/iot_link/os/liteos/base/ipc\los_queue.c ****     }
ARM GAS  C:\Users\²Ü¼ÒºÀ\AppData\Local\Temp\ccapTJCk.s 			page 59


 690:C:/Users/²Ü¼ÒºÀ/.iotlink/sdk/IoT_LINK/iot_link/os/liteos/base/ipc\los_queue.c **** 
 691:C:/Users/²Ü¼ÒºÀ/.iotlink/sdk/IoT_LINK/iot_link/os/liteos/base/ipc\los_queue.c ****     if (!LOS_ListEmpty(&pstQueueCB->stReadWriteList[OS_QUEUE_READ]))
 2021              		.loc 1 691 5 is_stmt 1 view .LVU615
 2022              	.LVL209:
 2023              	.LBB141:
 2024              	.LBI141:
 213:C:/Users/²Ü¼ÒºÀ/.iotlink/sdk/IoT_LINK/iot_link/os/liteos/include\los_list.h **** {
 2025              		.loc 2 213 43 view .LVU616
 2026              	.LBB142:
 2027              		.loc 2 215 5 view .LVU617
 2028              		.loc 2 215 5 is_stmt 0 view .LVU618
 2029              	.LBE142:
 2030              	.LBE141:
 2031              		.loc 1 691 8 view .LVU619
 2032 001c 9E69     		ldr	r6, [r3, #24]
 2033              		.loc 1 691 10 view .LVU620
 2034 001e 03F11404 		add	r4, r3, #20
 2035              		.loc 1 691 8 view .LVU621
 2036 0022 A642     		cmp	r6, r4
 2037 0024 2BD1     		bne	.L149
 692:C:/Users/²Ü¼ÒºÀ/.iotlink/sdk/IoT_LINK/iot_link/os/liteos/base/ipc\los_queue.c ****     {
 693:C:/Users/²Ü¼ÒºÀ/.iotlink/sdk/IoT_LINK/iot_link/os/liteos/base/ipc\los_queue.c ****         uwRet = LOS_ERRNO_QUEUE_IN_TSKUSE;
 694:C:/Users/²Ü¼ÒºÀ/.iotlink/sdk/IoT_LINK/iot_link/os/liteos/base/ipc\los_queue.c ****         goto QUEUE_END;
 695:C:/Users/²Ü¼ÒºÀ/.iotlink/sdk/IoT_LINK/iot_link/os/liteos/base/ipc\los_queue.c ****     }
 696:C:/Users/²Ü¼ÒºÀ/.iotlink/sdk/IoT_LINK/iot_link/os/liteos/base/ipc\los_queue.c **** 
 697:C:/Users/²Ü¼ÒºÀ/.iotlink/sdk/IoT_LINK/iot_link/os/liteos/base/ipc\los_queue.c ****     if (!LOS_ListEmpty(&pstQueueCB->stReadWriteList[OS_QUEUE_WRITE]))
 2038              		.loc 1 697 5 is_stmt 1 view .LVU622
 2039              		.loc 1 697 8 is_stmt 0 view .LVU623
 2040 0026 1E6A     		ldr	r6, [r3, #32]
 2041              		.loc 1 697 10 view .LVU624
 2042 0028 03F11C04 		add	r4, r3, #28
 2043              	.LVL210:
 2044              	.LBB143:
 2045              	.LBI143:
 213:C:/Users/²Ü¼ÒºÀ/.iotlink/sdk/IoT_LINK/iot_link/os/liteos/include\los_list.h **** {
 2046              		.loc 2 213 43 is_stmt 1 view .LVU625
 2047              	.LBB144:
 2048              		.loc 2 215 5 view .LVU626
 2049              		.loc 2 215 5 is_stmt 0 view .LVU627
 2050              	.LBE144:
 2051              	.LBE143:
 2052              		.loc 1 697 8 view .LVU628
 2053 002c B442     		cmp	r4, r6
 2054 002e 26D1     		bne	.L149
 698:C:/Users/²Ü¼ÒºÀ/.iotlink/sdk/IoT_LINK/iot_link/os/liteos/base/ipc\los_queue.c ****     {
 699:C:/Users/²Ü¼ÒºÀ/.iotlink/sdk/IoT_LINK/iot_link/os/liteos/base/ipc\los_queue.c ****         uwRet = LOS_ERRNO_QUEUE_IN_TSKUSE;
 700:C:/Users/²Ü¼ÒºÀ/.iotlink/sdk/IoT_LINK/iot_link/os/liteos/base/ipc\los_queue.c ****         goto QUEUE_END;
 701:C:/Users/²Ü¼ÒºÀ/.iotlink/sdk/IoT_LINK/iot_link/os/liteos/base/ipc\los_queue.c ****     }
 702:C:/Users/²Ü¼ÒºÀ/.iotlink/sdk/IoT_LINK/iot_link/os/liteos/base/ipc\los_queue.c **** 
 703:C:/Users/²Ü¼ÒºÀ/.iotlink/sdk/IoT_LINK/iot_link/os/liteos/base/ipc\los_queue.c ****     if (!LOS_ListEmpty(&pstQueueCB->stMemList))
 2055              		.loc 1 703 5 is_stmt 1 view .LVU629
 2056              	.LVL211:
 2057              	.LBB145:
 2058              	.LBI145:
 213:C:/Users/²Ü¼ÒºÀ/.iotlink/sdk/IoT_LINK/iot_link/os/liteos/include\los_list.h **** {
 2059              		.loc 2 213 43 view .LVU630
 2060              	.LBB146:
ARM GAS  C:\Users\²Ü¼ÒºÀ\AppData\Local\Temp\ccapTJCk.s 			page 60


 2061              		.loc 2 215 5 view .LVU631
 2062              		.loc 2 215 5 is_stmt 0 view .LVU632
 2063              	.LBE146:
 2064              	.LBE145:
 2065              		.loc 1 703 8 view .LVU633
 2066 0030 9F6A     		ldr	r7, [r3, #40]
 2067              		.loc 1 703 10 view .LVU634
 2068 0032 03F12406 		add	r6, r3, #36
 2069              		.loc 1 703 8 view .LVU635
 2070 0036 B742     		cmp	r7, r6
 2071 0038 21D1     		bne	.L149
 704:C:/Users/²Ü¼ÒºÀ/.iotlink/sdk/IoT_LINK/iot_link/os/liteos/base/ipc\los_queue.c ****     {
 705:C:/Users/²Ü¼ÒºÀ/.iotlink/sdk/IoT_LINK/iot_link/os/liteos/base/ipc\los_queue.c ****         uwRet = LOS_ERRNO_QUEUE_IN_TSKUSE;
 706:C:/Users/²Ü¼ÒºÀ/.iotlink/sdk/IoT_LINK/iot_link/os/liteos/base/ipc\los_queue.c ****         goto QUEUE_END;
 707:C:/Users/²Ü¼ÒºÀ/.iotlink/sdk/IoT_LINK/iot_link/os/liteos/base/ipc\los_queue.c ****     }
 708:C:/Users/²Ü¼ÒºÀ/.iotlink/sdk/IoT_LINK/iot_link/os/liteos/base/ipc\los_queue.c **** 
 709:C:/Users/²Ü¼ÒºÀ/.iotlink/sdk/IoT_LINK/iot_link/os/liteos/base/ipc\los_queue.c ****     if ((pstQueueCB->usReadWriteableCnt[OS_QUEUE_WRITE] + pstQueueCB->usReadWriteableCnt[OS_QUEUE_R
 2072              		.loc 1 709 5 is_stmt 1 view .LVU636
 2073              		.loc 1 709 89 is_stmt 0 view .LVU637
 2074 003a 1F8A     		ldrh	r7, [r3, #16]
 2075              		.loc 1 709 40 view .LVU638
 2076 003c 5E8A     		ldrh	r6, [r3, #18]
 2077              		.loc 1 709 57 view .LVU639
 2078 003e 3E44     		add	r6, r6, r7
 2079              		.loc 1 709 119 view .LVU640
 2080 0040 DF88     		ldrh	r7, [r3, #6]
 2081              		.loc 1 709 8 view .LVU641
 2082 0042 BE42     		cmp	r6, r7
 2083 0044 1DD1     		bne	.L150
 710:C:/Users/²Ü¼ÒºÀ/.iotlink/sdk/IoT_LINK/iot_link/os/liteos/base/ipc\los_queue.c ****     {
 711:C:/Users/²Ü¼ÒºÀ/.iotlink/sdk/IoT_LINK/iot_link/os/liteos/base/ipc\los_queue.c ****         uwRet = LOS_ERRNO_QUEUE_IN_TSKWRITE;
 712:C:/Users/²Ü¼ÒºÀ/.iotlink/sdk/IoT_LINK/iot_link/os/liteos/base/ipc\los_queue.c ****         goto QUEUE_END;
 713:C:/Users/²Ü¼ÒºÀ/.iotlink/sdk/IoT_LINK/iot_link/os/liteos/base/ipc\los_queue.c ****     }
 714:C:/Users/²Ü¼ÒºÀ/.iotlink/sdk/IoT_LINK/iot_link/os/liteos/base/ipc\los_queue.c **** 
 715:C:/Users/²Ü¼ÒºÀ/.iotlink/sdk/IoT_LINK/iot_link/os/liteos/base/ipc\los_queue.c ****     pucQueue = pstQueueCB->pucQueue;
 2084              		.loc 1 715 5 is_stmt 1 view .LVU642
 716:C:/Users/²Ü¼ÒºÀ/.iotlink/sdk/IoT_LINK/iot_link/os/liteos/base/ipc\los_queue.c ****     pstQueueCB->pucQueue = (UINT8 *)NULL;
 2085              		.loc 1 716 26 is_stmt 0 view .LVU643
 2086 0046 0026     		movs	r6, #0
 715:C:/Users/²Ü¼ÒºÀ/.iotlink/sdk/IoT_LINK/iot_link/os/liteos/base/ipc\los_queue.c ****     pstQueueCB->pucQueue = (UINT8 *)NULL;
 2087              		.loc 1 715 14 view .LVU644
 2088 0048 A958     		ldr	r1, [r5, r2]
 2089              		.loc 1 716 26 view .LVU645
 2090 004a AE50     		str	r6, [r5, r2]
 2091              	.LBB147:
 2092              	.LBB148:
 131:C:/Users/²Ü¼ÒºÀ/.iotlink/sdk/IoT_LINK/iot_link/os/liteos/include\los_list.h ****     pstNode->pstPrev = pstList;
 2093              		.loc 2 131 31 view .LVU646
 2094 004c 104A     		ldr	r2, .L151+4
 2095              	.LBE148:
 2096              	.LBE147:
 717:C:/Users/²Ü¼ÒºÀ/.iotlink/sdk/IoT_LINK/iot_link/os/liteos/base/ipc\los_queue.c ****     pstQueueCB->usQueueState = OS_QUEUE_UNUSED;
 2097              		.loc 1 717 30 view .LVU647
 2098 004e 9E80     		strh	r6, [r3, #4]	@ movhi
 2099              	.LBB151:
 2100              	.LBB149:
 131:C:/Users/²Ü¼ÒºÀ/.iotlink/sdk/IoT_LINK/iot_link/os/liteos/include\los_list.h ****     pstNode->pstPrev = pstList;
ARM GAS  C:\Users\²Ü¼ÒºÀ\AppData\Local\Temp\ccapTJCk.s 			page 61


 2101              		.loc 2 131 31 view .LVU648
 2102 0050 5568     		ldr	r5, [r2, #4]
 2103              	.LBE149:
 2104              	.LBE151:
 715:C:/Users/²Ü¼ÒºÀ/.iotlink/sdk/IoT_LINK/iot_link/os/liteos/base/ipc\los_queue.c ****     pstQueueCB->pucQueue = (UINT8 *)NULL;
 2105              		.loc 1 715 14 view .LVU649
 2106 0052 0191     		str	r1, [sp, #4]
 2107              	.LVL212:
 716:C:/Users/²Ü¼ÒºÀ/.iotlink/sdk/IoT_LINK/iot_link/os/liteos/base/ipc\los_queue.c ****     pstQueueCB->usQueueState = OS_QUEUE_UNUSED;
 2108              		.loc 1 716 5 is_stmt 1 view .LVU650
 2109              		.loc 1 717 5 view .LVU651
 718:C:/Users/²Ü¼ÒºÀ/.iotlink/sdk/IoT_LINK/iot_link/os/liteos/base/ipc\los_queue.c ****     LOS_ListAdd(&g_stFreeQueueList, &pstQueueCB->stReadWriteList[OS_QUEUE_WRITE]);
 2110              		.loc 1 718 5 view .LVU652
 2111              	.LBB152:
 2112              	.LBI147:
 129:C:/Users/²Ü¼ÒºÀ/.iotlink/sdk/IoT_LINK/iot_link/os/liteos/include\los_list.h **** {
 2113              		.loc 2 129 43 view .LVU653
 2114              	.LBB150:
 131:C:/Users/²Ü¼ÒºÀ/.iotlink/sdk/IoT_LINK/iot_link/os/liteos/include\los_list.h ****     pstNode->pstPrev = pstList;
 2115              		.loc 2 131 5 view .LVU654
 132:C:/Users/²Ü¼ÒºÀ/.iotlink/sdk/IoT_LINK/iot_link/os/liteos/include\los_list.h ****     pstList->pstNext->pstPrev = pstNode;
 2116              		.loc 2 132 22 is_stmt 0 view .LVU655
 2117 0054 C3E90725 		strd	r2, r5, [r3, #28]
 133:C:/Users/²Ü¼ÒºÀ/.iotlink/sdk/IoT_LINK/iot_link/os/liteos/include\los_list.h ****     pstList->pstNext = pstNode;
 2118              		.loc 2 133 5 is_stmt 1 view .LVU656
 133:C:/Users/²Ü¼ÒºÀ/.iotlink/sdk/IoT_LINK/iot_link/os/liteos/include\los_list.h ****     pstList->pstNext = pstNode;
 2119              		.loc 2 133 31 is_stmt 0 view .LVU657
 2120 0058 2C60     		str	r4, [r5]
 134:C:/Users/²Ü¼ÒºÀ/.iotlink/sdk/IoT_LINK/iot_link/os/liteos/include\los_list.h **** }
 2121              		.loc 2 134 5 is_stmt 1 view .LVU658
 134:C:/Users/²Ü¼ÒºÀ/.iotlink/sdk/IoT_LINK/iot_link/os/liteos/include\los_list.h **** }
 2122              		.loc 2 134 22 is_stmt 0 view .LVU659
 2123 005a 5460     		str	r4, [r2, #4]
 2124              	.LVL213:
 134:C:/Users/²Ü¼ÒºÀ/.iotlink/sdk/IoT_LINK/iot_link/os/liteos/include\los_list.h **** }
 2125              		.loc 2 134 22 view .LVU660
 2126              	.LBE150:
 2127              	.LBE152:
 719:C:/Users/²Ü¼ÒºÀ/.iotlink/sdk/IoT_LINK/iot_link/os/liteos/base/ipc\los_queue.c ****     LOS_IntRestore(uvIntSave);
 2128              		.loc 1 719 5 is_stmt 1 view .LVU661
 2129 005c FFF7FEFF 		bl	LOS_IntRestore
 2130              	.LVL214:
 720:C:/Users/²Ü¼ÒºÀ/.iotlink/sdk/IoT_LINK/iot_link/os/liteos/base/ipc\los_queue.c **** 
 721:C:/Users/²Ü¼ÒºÀ/.iotlink/sdk/IoT_LINK/iot_link/os/liteos/base/ipc\los_queue.c ****     uwRet = LOS_MemFree(m_aucSysMem0, (VOID *)pucQueue);
 2131              		.loc 1 721 5 view .LVU662
 2132              		.loc 1 721 13 is_stmt 0 view .LVU663
 2133 0060 0C4B     		ldr	r3, .L151+8
 2134 0062 0199     		ldr	r1, [sp, #4]
 2135 0064 1868     		ldr	r0, [r3]
 722:C:/Users/²Ü¼ÒºÀ/.iotlink/sdk/IoT_LINK/iot_link/os/liteos/base/ipc\los_queue.c ****     return uwRet;
 723:C:/Users/²Ü¼ÒºÀ/.iotlink/sdk/IoT_LINK/iot_link/os/liteos/base/ipc\los_queue.c **** 
 724:C:/Users/²Ü¼ÒºÀ/.iotlink/sdk/IoT_LINK/iot_link/os/liteos/base/ipc\los_queue.c **** QUEUE_END:
 725:C:/Users/²Ü¼ÒºÀ/.iotlink/sdk/IoT_LINK/iot_link/os/liteos/base/ipc\los_queue.c ****     LOS_IntRestore(uvIntSave);
 726:C:/Users/²Ü¼ÒºÀ/.iotlink/sdk/IoT_LINK/iot_link/os/liteos/base/ipc\los_queue.c ****     return uwRet;
 727:C:/Users/²Ü¼ÒºÀ/.iotlink/sdk/IoT_LINK/iot_link/os/liteos/base/ipc\los_queue.c **** }
 2136              		.loc 1 727 1 view .LVU664
 2137 0066 03B0     		add	sp, sp, #12
ARM GAS  C:\Users\²Ü¼ÒºÀ\AppData\Local\Temp\ccapTJCk.s 			page 62


 2138              	.LCFI29:
 2139              		.cfi_remember_state
 2140              		.cfi_def_cfa_offset 20
 2141              		@ sp needed
 2142 0068 BDE8F040 		pop	{r4, r5, r6, r7, lr}
 2143              	.LCFI30:
 2144              		.cfi_restore 14
 2145              		.cfi_restore 7
 2146              		.cfi_restore 6
 2147              		.cfi_restore 5
 2148              		.cfi_restore 4
 2149              		.cfi_def_cfa_offset 0
 2150              	.LVL215:
 721:C:/Users/²Ü¼ÒºÀ/.iotlink/sdk/IoT_LINK/iot_link/os/liteos/base/ipc\los_queue.c ****     return uwRet;
 2151              		.loc 1 721 13 view .LVU665
 2152 006c FFF7FEBF 		b	LOS_MemFree
 2153              	.LVL216:
 2154              	.L146:
 2155              	.LCFI31:
 2156              		.cfi_restore_state
 687:C:/Users/²Ü¼ÒºÀ/.iotlink/sdk/IoT_LINK/iot_link/os/liteos/base/ipc\los_queue.c ****         goto QUEUE_END;
 2157              		.loc 1 687 15 view .LVU666
 2158 0070 094C     		ldr	r4, .L151+12
 2159              	.L144:
 2160              	.LVL217:
 725:C:/Users/²Ü¼ÒºÀ/.iotlink/sdk/IoT_LINK/iot_link/os/liteos/base/ipc\los_queue.c ****     return uwRet;
 2161              		.loc 1 725 5 is_stmt 1 view .LVU667
 2162 0072 0846     		mov	r0, r1
 2163              	.LVL218:
 725:C:/Users/²Ü¼ÒºÀ/.iotlink/sdk/IoT_LINK/iot_link/os/liteos/base/ipc\los_queue.c ****     return uwRet;
 2164              		.loc 1 725 5 is_stmt 0 view .LVU668
 2165 0074 FFF7FEFF 		bl	LOS_IntRestore
 2166              	.LVL219:
 726:C:/Users/²Ü¼ÒºÀ/.iotlink/sdk/IoT_LINK/iot_link/os/liteos/base/ipc\los_queue.c **** }
 2167              		.loc 1 726 5 is_stmt 1 view .LVU669
 2168              	.L142:
 2169              		.loc 1 727 1 is_stmt 0 view .LVU670
 2170 0078 2046     		mov	r0, r4
 2171 007a 03B0     		add	sp, sp, #12
 2172              	.LCFI32:
 2173              		.cfi_remember_state
 2174              		.cfi_def_cfa_offset 20
 2175              		@ sp needed
 2176 007c F0BD     		pop	{r4, r5, r6, r7, pc}
 2177              	.LVL220:
 2178              	.L149:
 2179              	.LCFI33:
 2180              		.cfi_restore_state
 693:C:/Users/²Ü¼ÒºÀ/.iotlink/sdk/IoT_LINK/iot_link/os/liteos/base/ipc\los_queue.c ****         goto QUEUE_END;
 2181              		.loc 1 693 15 view .LVU671
 2182 007e 074C     		ldr	r4, .L151+16
 2183 0080 F7E7     		b	.L144
 2184              	.L150:
 711:C:/Users/²Ü¼ÒºÀ/.iotlink/sdk/IoT_LINK/iot_link/os/liteos/base/ipc\los_queue.c ****         goto QUEUE_END;
 2185              		.loc 1 711 15 view .LVU672
 2186 0082 074C     		ldr	r4, .L151+20
 2187 0084 F5E7     		b	.L144
ARM GAS  C:\Users\²Ü¼ÒºÀ\AppData\Local\Temp\ccapTJCk.s 			page 63


 2188              	.LVL221:
 2189              	.L145:
 680:C:/Users/²Ü¼ÒºÀ/.iotlink/sdk/IoT_LINK/iot_link/os/liteos/base/ipc\los_queue.c ****     }
 2190              		.loc 1 680 16 view .LVU673
 2191 0086 074C     		ldr	r4, .L151+24
 2192 0088 F6E7     		b	.L142
 2193              	.L152:
 2194 008a 00BF     		.align	2
 2195              	.L151:
 2196 008c 00000000 		.word	g_pstAllQueue
 2197 0090 00000000 		.word	g_stFreeQueueList
 2198 0094 00000000 		.word	m_aucSysMem0
 2199 0098 0A060002 		.word	33555978
 2200 009c 08060002 		.word	33555976
 2201 00a0 0B060002 		.word	33555979
 2202 00a4 05060002 		.word	33555973
 2203              		.cfi_endproc
 2204              	.LFE301:
 2206              		.section	.text.LOS_QueueInfoGet,"ax",%progbits
 2207              		.align	1
 2208              		.global	LOS_QueueInfoGet
 2209              		.syntax unified
 2210              		.thumb
 2211              		.thumb_func
 2212              		.fpu fpv4-sp-d16
 2214              	LOS_QueueInfoGet:
 2215              	.LVL222:
 2216              	.LFB302:
 728:C:/Users/²Ü¼ÒºÀ/.iotlink/sdk/IoT_LINK/iot_link/os/liteos/base/ipc\los_queue.c **** 
