ARM GAS  C:\Users\≤‹º“∫¿\AppData\Local\Temp\ccb8bRq8.s 			page 1


   1              		.cpu cortex-m4
   2              		.eabi_attribute 27, 1
   3              		.eabi_attribute 28, 1
   4              		.eabi_attribute 20, 1
   5              		.eabi_attribute 21, 1
   6              		.eabi_attribute 23, 3
   7              		.eabi_attribute 24, 1
   8              		.eabi_attribute 25, 1
   9              		.eabi_attribute 26, 1
  10              		.eabi_attribute 30, 4
  11              		.eabi_attribute 34, 1
  12              		.eabi_attribute 18, 4
  13              		.file	"lcd.c"
  14              		.text
  15              	.Ltext0:
  16              		.cfi_sections	.debug_frame
  17              		.section	.text.LCD_Write_Data,"ax",%progbits
  18              		.align	1
  19              		.arch armv7e-m
  20              		.syntax unified
  21              		.thumb
  22              		.thumb_func
  23              		.fpu fpv4-sp-d16
  25              	LCD_Write_Data:
  26              	.LVL0:
  27              	.LFB290:
  28              		.file 1 "d:/liteos/code/WIFI2/Hardware/LCD/lcd.c"
   1:d:/liteos/code/WIFI2/Hardware/LCD\lcd.c **** /********************************************************************************
   2:d:/liteos/code/WIFI2/Hardware/LCD\lcd.c ****     * Êñá‰ª∂ÂêçÁß∞ Ôºölcd.c
   3:d:/liteos/code/WIFI2/Hardware/LCD\lcd.c ****     * ‰Ωú     ËÄÖÔºöÂ∞èÁÜäÊ¥æÂºÄÊ∫êÁ§æÂå∫
   4:d:/liteos/code/WIFI2/Hardware/LCD\lcd.c ****     * Áâà     Êú¨ÔºöV1.0
   5:d:/liteos/code/WIFI2/Hardware/LCD\lcd.c ****     * ÁºñÂÜôÊó•Êúü Ôºö2018-4-1
   6:d:/liteos/code/WIFI2/Hardware/LCD\lcd.c ****     * Âäü     ËÉΩÔºöLCDÂ±èÂπïÈ©±Âä®
   7:d:/liteos/code/WIFI2/Hardware/LCD\lcd.c **** *********************************************************************************
   8:d:/liteos/code/WIFI2/Hardware/LCD\lcd.c ****     * ËØ¥    Êòé ÔºöÊú¨‰æãÁ®ãÈÖçÂ•óÂ∞èÁÜäÊ¥æÂºÄÊ∫êÁ§æÂå∫ÂºÄÂèëÊùø‰ΩøÁî®
   9:d:/liteos/code/WIFI2/Hardware/LCD\lcd.c ****     *
  10:d:/liteos/code/WIFI2/Hardware/LCD\lcd.c ****     * Ê∑ò     ÂÆùÔºöhttps://shop336827451.taobao.com/
  11:d:/liteos/code/WIFI2/Hardware/LCD\lcd.c ****     * ËÆ∫     ÂùõÔºöhttps://bbs.huaweicloud.com/forum/forum-734-1.html
  12:d:/liteos/code/WIFI2/Hardware/LCD\lcd.c ****     * ÂæÆ‰ø°ÂÖ¨‰ºóÂè∑ÔºöÂ∞èÁÜäÊ¥æÂºÄÊ∫êÁ§æÂå∫
  13:d:/liteos/code/WIFI2/Hardware/LCD\lcd.c **** *********************************************************************************/
  14:d:/liteos/code/WIFI2/Hardware/LCD\lcd.c **** #include "lcd.h"
  15:d:/liteos/code/WIFI2/Hardware/LCD\lcd.c **** #include "font.h"
  16:d:/liteos/code/WIFI2/Hardware/LCD\lcd.c **** #include "spi.h"
  17:d:/liteos/code/WIFI2/Hardware/LCD\lcd.c **** #include "gpio.h"
  18:d:/liteos/code/WIFI2/Hardware/LCD\lcd.c **** #include "dwt.h"
  19:d:/liteos/code/WIFI2/Hardware/LCD\lcd.c **** 
  20:d:/liteos/code/WIFI2/Hardware/LCD\lcd.c **** #include "stm32l4xx_hal.h"
  21:d:/liteos/code/WIFI2/Hardware/LCD\lcd.c **** #define LCD_TOTAL_BUF_SIZE	(240*240*2)
  22:d:/liteos/code/WIFI2/Hardware/LCD\lcd.c **** #define LCD_Buf_Size 1152
  23:d:/liteos/code/WIFI2/Hardware/LCD\lcd.c **** static uint8_t lcd_buf[LCD_Buf_Size];
  24:d:/liteos/code/WIFI2/Hardware/LCD\lcd.c **** 
  25:d:/liteos/code/WIFI2/Hardware/LCD\lcd.c **** uint16_t	POINT_COLOR = GREEN;	//ÁîªÁ¨îÈ¢úËâ≤	ÈªòËÆ§‰∏∫ÈªëËâ≤
  26:d:/liteos/code/WIFI2/Hardware/LCD\lcd.c **** uint16_t	BACK_COLOR 	= BLACK;	//ËÉåÊôØÈ¢úËâ≤	ÈªòËÆ§‰∏∫ÁôΩËâ≤
  27:d:/liteos/code/WIFI2/Hardware/LCD\lcd.c **** 
  28:d:/liteos/code/WIFI2/Hardware/LCD\lcd.c **** 
  29:d:/liteos/code/WIFI2/Hardware/LCD\lcd.c **** /**
  30:d:/liteos/code/WIFI2/Hardware/LCD\lcd.c ****  * @brief	LCDÊéßÂà∂Êé•Âè£ÂàùÂßãÂåñ
ARM GAS  C:\Users\≤‹º“∫¿\AppData\Local\Temp\ccb8bRq8.s 			page 2


  31:d:/liteos/code/WIFI2/Hardware/LCD\lcd.c ****  *
  32:d:/liteos/code/WIFI2/Hardware/LCD\lcd.c ****  * @param   void
  33:d:/liteos/code/WIFI2/Hardware/LCD\lcd.c ****  *
  34:d:/liteos/code/WIFI2/Hardware/LCD\lcd.c ****  * @return  void
  35:d:/liteos/code/WIFI2/Hardware/LCD\lcd.c ****  */
  36:d:/liteos/code/WIFI2/Hardware/LCD\lcd.c **** static void LCD_Gpio_Init(void)
  37:d:/liteos/code/WIFI2/Hardware/LCD\lcd.c **** {
  38:d:/liteos/code/WIFI2/Hardware/LCD\lcd.c ****     GPIO_InitTypeDef GPIO_InitStruct;
  39:d:/liteos/code/WIFI2/Hardware/LCD\lcd.c **** 
  40:d:/liteos/code/WIFI2/Hardware/LCD\lcd.c ****     __HAL_RCC_GPIOB_CLK_ENABLE();
  41:d:/liteos/code/WIFI2/Hardware/LCD\lcd.c ****     __HAL_RCC_GPIOC_CLK_ENABLE();
  42:d:/liteos/code/WIFI2/Hardware/LCD\lcd.c **** 
  43:d:/liteos/code/WIFI2/Hardware/LCD\lcd.c ****     /*
  44:d:/liteos/code/WIFI2/Hardware/LCD\lcd.c **** 	LCD_PWR:	PB15
  45:d:/liteos/code/WIFI2/Hardware/LCD\lcd.c **** 	LCD_RST:	PC7
  46:d:/liteos/code/WIFI2/Hardware/LCD\lcd.c **** 	LCD_DC:		PC6
  47:d:/liteos/code/WIFI2/Hardware/LCD\lcd.c ****     */
  48:d:/liteos/code/WIFI2/Hardware/LCD\lcd.c ****     GPIO_InitStruct.Pin = GPIO_PIN_15;
  49:d:/liteos/code/WIFI2/Hardware/LCD\lcd.c ****     GPIO_InitStruct.Mode = GPIO_MODE_OUTPUT_PP;
  50:d:/liteos/code/WIFI2/Hardware/LCD\lcd.c ****     GPIO_InitStruct.Pull = GPIO_PULLUP;
  51:d:/liteos/code/WIFI2/Hardware/LCD\lcd.c ****     GPIO_InitStruct.Speed = GPIO_SPEED_FREQ_HIGH;
  52:d:/liteos/code/WIFI2/Hardware/LCD\lcd.c ****     HAL_GPIO_Init(GPIOB, &GPIO_InitStruct);
  53:d:/liteos/code/WIFI2/Hardware/LCD\lcd.c ****     HAL_GPIO_WritePin(GPIOB, GPIO_PIN_15, GPIO_PIN_RESET);
  54:d:/liteos/code/WIFI2/Hardware/LCD\lcd.c **** 	
  55:d:/liteos/code/WIFI2/Hardware/LCD\lcd.c **** 	GPIO_InitStruct.Pin = GPIO_PIN_6 | GPIO_PIN_7;
  56:d:/liteos/code/WIFI2/Hardware/LCD\lcd.c ****     GPIO_InitStruct.Mode = GPIO_MODE_OUTPUT_PP;
  57:d:/liteos/code/WIFI2/Hardware/LCD\lcd.c ****     GPIO_InitStruct.Pull = GPIO_PULLUP;
  58:d:/liteos/code/WIFI2/Hardware/LCD\lcd.c ****     GPIO_InitStruct.Speed = GPIO_SPEED_FREQ_HIGH;
  59:d:/liteos/code/WIFI2/Hardware/LCD\lcd.c ****     HAL_GPIO_Init(GPIOC, &GPIO_InitStruct);
  60:d:/liteos/code/WIFI2/Hardware/LCD\lcd.c ****     HAL_GPIO_WritePin(GPIOC ,GPIO_PIN_6 | GPIO_PIN_7, GPIO_PIN_RESET);
  61:d:/liteos/code/WIFI2/Hardware/LCD\lcd.c **** 
  62:d:/liteos/code/WIFI2/Hardware/LCD\lcd.c **** 
  63:d:/liteos/code/WIFI2/Hardware/LCD\lcd.c ****     LCD_PWR(0);
  64:d:/liteos/code/WIFI2/Hardware/LCD\lcd.c **** 
  65:d:/liteos/code/WIFI2/Hardware/LCD\lcd.c ****     LCD_RST(0);
  66:d:/liteos/code/WIFI2/Hardware/LCD\lcd.c ****     delay10ms(12);
  67:d:/liteos/code/WIFI2/Hardware/LCD\lcd.c ****     LCD_RST(1);
  68:d:/liteos/code/WIFI2/Hardware/LCD\lcd.c **** 
  69:d:/liteos/code/WIFI2/Hardware/LCD\lcd.c ****     //MX_SPI2_Init();	//ÂàùÂßãÂåñSPI2Êé•Âè£
  70:d:/liteos/code/WIFI2/Hardware/LCD\lcd.c **** }
  71:d:/liteos/code/WIFI2/Hardware/LCD\lcd.c **** 
  72:d:/liteos/code/WIFI2/Hardware/LCD\lcd.c **** 
  73:d:/liteos/code/WIFI2/Hardware/LCD\lcd.c **** /**
  74:d:/liteos/code/WIFI2/Hardware/LCD\lcd.c ****  * @brief	LCDÂ∫ïÂ±ÇSPIÂèëÈÄÅÊï∞ÊçÆÂáΩÊï∞
  75:d:/liteos/code/WIFI2/Hardware/LCD\lcd.c ****  *
  76:d:/liteos/code/WIFI2/Hardware/LCD\lcd.c ****  * @param   data	Êï∞ÊçÆÁöÑËµ∑ÂßãÂú∞ÂùÄ
  77:d:/liteos/code/WIFI2/Hardware/LCD\lcd.c ****  * @param   size	ÂèëÈÄÅÊï∞ÊçÆÂ§ßÂ∞è
  78:d:/liteos/code/WIFI2/Hardware/LCD\lcd.c ****  *
  79:d:/liteos/code/WIFI2/Hardware/LCD\lcd.c ****  * @return  void
  80:d:/liteos/code/WIFI2/Hardware/LCD\lcd.c ****  */
  81:d:/liteos/code/WIFI2/Hardware/LCD\lcd.c **** extern uint8_t SPI2_WriteByte(uint8_t *TxData,uint16_t size);
  82:d:/liteos/code/WIFI2/Hardware/LCD\lcd.c **** static void LCD_SPI_Send(uint8_t *data, uint16_t size)
  83:d:/liteos/code/WIFI2/Hardware/LCD\lcd.c **** {
  84:d:/liteos/code/WIFI2/Hardware/LCD\lcd.c ****     SPI2_WriteByte(data, size);
  85:d:/liteos/code/WIFI2/Hardware/LCD\lcd.c **** }
  86:d:/liteos/code/WIFI2/Hardware/LCD\lcd.c **** 
  87:d:/liteos/code/WIFI2/Hardware/LCD\lcd.c **** 
ARM GAS  C:\Users\≤‹º“∫¿\AppData\Local\Temp\ccb8bRq8.s 			page 3


  88:d:/liteos/code/WIFI2/Hardware/LCD\lcd.c **** /**
  89:d:/liteos/code/WIFI2/Hardware/LCD\lcd.c ****  * @brief	ÂÜôÂëΩ‰ª§Âà∞LCD
  90:d:/liteos/code/WIFI2/Hardware/LCD\lcd.c ****  *
  91:d:/liteos/code/WIFI2/Hardware/LCD\lcd.c ****  * @param   cmd		ÈúÄË¶ÅÂèëÈÄÅÁöÑÂëΩ‰ª§
  92:d:/liteos/code/WIFI2/Hardware/LCD\lcd.c ****  *
  93:d:/liteos/code/WIFI2/Hardware/LCD\lcd.c ****  * @return  void
  94:d:/liteos/code/WIFI2/Hardware/LCD\lcd.c ****  */
  95:d:/liteos/code/WIFI2/Hardware/LCD\lcd.c **** static void LCD_Write_Cmd(uint8_t cmd)
  96:d:/liteos/code/WIFI2/Hardware/LCD\lcd.c **** {
  97:d:/liteos/code/WIFI2/Hardware/LCD\lcd.c ****     LCD_DC(0);
  98:d:/liteos/code/WIFI2/Hardware/LCD\lcd.c **** 
  99:d:/liteos/code/WIFI2/Hardware/LCD\lcd.c ****     LCD_SPI_Send(&cmd, 1);
 100:d:/liteos/code/WIFI2/Hardware/LCD\lcd.c **** }
 101:d:/liteos/code/WIFI2/Hardware/LCD\lcd.c **** 
 102:d:/liteos/code/WIFI2/Hardware/LCD\lcd.c **** /**
 103:d:/liteos/code/WIFI2/Hardware/LCD\lcd.c ****  * @brief	ÂÜôÊï∞ÊçÆÂà∞LCD
 104:d:/liteos/code/WIFI2/Hardware/LCD\lcd.c ****  *
 105:d:/liteos/code/WIFI2/Hardware/LCD\lcd.c ****  * @param   cmd		ÈúÄË¶ÅÂèëÈÄÅÁöÑÊï∞ÊçÆ
 106:d:/liteos/code/WIFI2/Hardware/LCD\lcd.c ****  *
 107:d:/liteos/code/WIFI2/Hardware/LCD\lcd.c ****  * @return  void
 108:d:/liteos/code/WIFI2/Hardware/LCD\lcd.c ****  */
 109:d:/liteos/code/WIFI2/Hardware/LCD\lcd.c **** static void LCD_Write_Data(uint8_t data)
 110:d:/liteos/code/WIFI2/Hardware/LCD\lcd.c **** {
  29              		.loc 1 110 1 view -0
  30              		.cfi_startproc
  31              		@ args = 0, pretend = 0, frame = 8
  32              		@ frame_needed = 0, uses_anonymous_args = 0
 111:d:/liteos/code/WIFI2/Hardware/LCD\lcd.c ****     LCD_DC(1);
  33              		.loc 1 111 5 view .LVU1
 110:d:/liteos/code/WIFI2/Hardware/LCD\lcd.c ****     LCD_DC(1);
  34              		.loc 1 110 1 is_stmt 0 view .LVU2
  35 0000 07B5     		push	{r0, r1, r2, lr}
  36              	.LCFI0:
  37              		.cfi_def_cfa_offset 16
  38              		.cfi_offset 14, -4
  39              		.loc 1 111 5 view .LVU3
  40 0002 0122     		movs	r2, #1
 110:d:/liteos/code/WIFI2/Hardware/LCD\lcd.c ****     LCD_DC(1);
  41              		.loc 1 110 1 view .LVU4
  42 0004 8DF80700 		strb	r0, [sp, #7]
  43              		.loc 1 111 5 view .LVU5
  44 0008 4021     		movs	r1, #64
  45 000a 0548     		ldr	r0, .L2
  46              	.LVL1:
  47              		.loc 1 111 5 view .LVU6
  48 000c FFF7FEFF 		bl	HAL_GPIO_WritePin
  49              	.LVL2:
 112:d:/liteos/code/WIFI2/Hardware/LCD\lcd.c **** 
 113:d:/liteos/code/WIFI2/Hardware/LCD\lcd.c ****     LCD_SPI_Send(&data, 1);
  50              		.loc 1 113 5 is_stmt 1 view .LVU7
  51              	.LBB26:
  52              	.LBI26:
  82:d:/liteos/code/WIFI2/Hardware/LCD\lcd.c **** {
  53              		.loc 1 82 13 view .LVU8
  54              	.LBB27:
  84:d:/liteos/code/WIFI2/Hardware/LCD\lcd.c **** }
  55              		.loc 1 84 5 view .LVU9
ARM GAS  C:\Users\≤‹º“∫¿\AppData\Local\Temp\ccb8bRq8.s 			page 4


  56 0010 0121     		movs	r1, #1
  57 0012 0DF10700 		add	r0, sp, #7
  58              	.LVL3:
  84:d:/liteos/code/WIFI2/Hardware/LCD\lcd.c **** }
  59              		.loc 1 84 5 is_stmt 0 view .LVU10
  60 0016 FFF7FEFF 		bl	SPI2_WriteByte
  61              	.LVL4:
  84:d:/liteos/code/WIFI2/Hardware/LCD\lcd.c **** }
  62              		.loc 1 84 5 view .LVU11
  63              	.LBE27:
  64              	.LBE26:
 114:d:/liteos/code/WIFI2/Hardware/LCD\lcd.c **** }
  65              		.loc 1 114 1 view .LVU12
  66 001a 03B0     		add	sp, sp, #12
  67              	.LCFI1:
  68              		.cfi_def_cfa_offset 4
  69              		@ sp needed
  70 001c 5DF804FB 		ldr	pc, [sp], #4
  71              	.L3:
  72              		.align	2
  73              	.L2:
  74 0020 00080048 		.word	1207961600
  75              		.cfi_endproc
  76              	.LFE290:
  78              		.section	.text.LCD_Write_Cmd,"ax",%progbits
  79              		.align	1
  80              		.syntax unified
  81              		.thumb
  82              		.thumb_func
  83              		.fpu fpv4-sp-d16
  85              	LCD_Write_Cmd:
  86              	.LVL5:
  87              	.LFB289:
  96:d:/liteos/code/WIFI2/Hardware/LCD\lcd.c ****     LCD_DC(0);
  88              		.loc 1 96 1 is_stmt 1 view -0
  89              		.cfi_startproc
  90              		@ args = 0, pretend = 0, frame = 8
  91              		@ frame_needed = 0, uses_anonymous_args = 0
  97:d:/liteos/code/WIFI2/Hardware/LCD\lcd.c **** 
  92              		.loc 1 97 5 view .LVU14
  96:d:/liteos/code/WIFI2/Hardware/LCD\lcd.c ****     LCD_DC(0);
  93              		.loc 1 96 1 is_stmt 0 view .LVU15
  94 0000 07B5     		push	{r0, r1, r2, lr}
  95              	.LCFI2:
  96              		.cfi_def_cfa_offset 16
  97              		.cfi_offset 14, -4
  97:d:/liteos/code/WIFI2/Hardware/LCD\lcd.c **** 
  98              		.loc 1 97 5 view .LVU16
  99 0002 0022     		movs	r2, #0
  96:d:/liteos/code/WIFI2/Hardware/LCD\lcd.c ****     LCD_DC(0);
 100              		.loc 1 96 1 view .LVU17
 101 0004 8DF80700 		strb	r0, [sp, #7]
  97:d:/liteos/code/WIFI2/Hardware/LCD\lcd.c **** 
 102              		.loc 1 97 5 view .LVU18
 103 0008 4021     		movs	r1, #64
 104 000a 0548     		ldr	r0, .L5
 105              	.LVL6:
ARM GAS  C:\Users\≤‹º“∫¿\AppData\Local\Temp\ccb8bRq8.s 			page 5


  97:d:/liteos/code/WIFI2/Hardware/LCD\lcd.c **** 
 106              		.loc 1 97 5 view .LVU19
 107 000c FFF7FEFF 		bl	HAL_GPIO_WritePin
 108              	.LVL7:
  99:d:/liteos/code/WIFI2/Hardware/LCD\lcd.c **** }
 109              		.loc 1 99 5 is_stmt 1 view .LVU20
 110              	.LBB28:
 111              	.LBI28:
  82:d:/liteos/code/WIFI2/Hardware/LCD\lcd.c **** {
 112              		.loc 1 82 13 view .LVU21
 113              	.LBB29:
  84:d:/liteos/code/WIFI2/Hardware/LCD\lcd.c **** }
 114              		.loc 1 84 5 view .LVU22
 115 0010 0121     		movs	r1, #1
 116 0012 0DF10700 		add	r0, sp, #7
 117              	.LVL8:
  84:d:/liteos/code/WIFI2/Hardware/LCD\lcd.c **** }
 118              		.loc 1 84 5 is_stmt 0 view .LVU23
 119 0016 FFF7FEFF 		bl	SPI2_WriteByte
 120              	.LVL9:
  84:d:/liteos/code/WIFI2/Hardware/LCD\lcd.c **** }
 121              		.loc 1 84 5 view .LVU24
 122              	.LBE29:
 123              	.LBE28:
 100:d:/liteos/code/WIFI2/Hardware/LCD\lcd.c **** 
 124              		.loc 1 100 1 view .LVU25
 125 001a 03B0     		add	sp, sp, #12
 126              	.LCFI3:
 127              		.cfi_def_cfa_offset 4
 128              		@ sp needed
 129 001c 5DF804FB 		ldr	pc, [sp], #4
 130              	.L6:
 131              		.align	2
 132              	.L5:
 133 0020 00080048 		.word	1207961600
 134              		.cfi_endproc
 135              	.LFE289:
 137              		.section	.text.LCD_Write_HalfWord,"ax",%progbits
 138              		.align	1
 139              		.global	LCD_Write_HalfWord
 140              		.syntax unified
 141              		.thumb
 142              		.thumb_func
 143              		.fpu fpv4-sp-d16
 145              	LCD_Write_HalfWord:
 146              	.LVL10:
 147              	.LFB291:
 115:d:/liteos/code/WIFI2/Hardware/LCD\lcd.c **** 
 116:d:/liteos/code/WIFI2/Hardware/LCD\lcd.c **** /**
 117:d:/liteos/code/WIFI2/Hardware/LCD\lcd.c ****  * @brief	ÂÜôÂçä‰∏™Â≠óÁöÑÊï∞ÊçÆÂà∞LCD
 118:d:/liteos/code/WIFI2/Hardware/LCD\lcd.c ****  *
 119:d:/liteos/code/WIFI2/Hardware/LCD\lcd.c ****  * @param   cmd		ÈúÄË¶ÅÂèëÈÄÅÁöÑÊï∞ÊçÆ
 120:d:/liteos/code/WIFI2/Hardware/LCD\lcd.c ****  *
 121:d:/liteos/code/WIFI2/Hardware/LCD\lcd.c ****  * @return  void
 122:d:/liteos/code/WIFI2/Hardware/LCD\lcd.c ****  */
 123:d:/liteos/code/WIFI2/Hardware/LCD\lcd.c **** void LCD_Write_HalfWord(const uint16_t da)
 124:d:/liteos/code/WIFI2/Hardware/LCD\lcd.c **** {
ARM GAS  C:\Users\≤‹º“∫¿\AppData\Local\Temp\ccb8bRq8.s 			page 6


 148              		.loc 1 124 1 is_stmt 1 view -0
 149              		.cfi_startproc
 150              		@ args = 0, pretend = 0, frame = 8
 151              		@ frame_needed = 0, uses_anonymous_args = 0
 125:d:/liteos/code/WIFI2/Hardware/LCD\lcd.c ****     uint8_t data[2] = {0};
 152              		.loc 1 125 5 view .LVU27
 126:d:/liteos/code/WIFI2/Hardware/LCD\lcd.c **** 
 127:d:/liteos/code/WIFI2/Hardware/LCD\lcd.c ****     data[0] = da >> 8;
 153              		.loc 1 127 5 view .LVU28
 128:d:/liteos/code/WIFI2/Hardware/LCD\lcd.c ****     data[1] = da;
 154              		.loc 1 128 5 view .LVU29
 124:d:/liteos/code/WIFI2/Hardware/LCD\lcd.c ****     uint8_t data[2] = {0};
 155              		.loc 1 124 1 is_stmt 0 view .LVU30
 156 0000 07B5     		push	{r0, r1, r2, lr}
 157              	.LCFI4:
 158              		.cfi_def_cfa_offset 16
 159              		.cfi_offset 14, -4
 127:d:/liteos/code/WIFI2/Hardware/LCD\lcd.c ****     data[1] = da;
 160              		.loc 1 127 13 view .LVU31
 161 0002 40BA     		rev16	r0, r0
 162              	.LVL11:
 127:d:/liteos/code/WIFI2/Hardware/LCD\lcd.c ****     data[1] = da;
 163              		.loc 1 127 13 view .LVU32
 164 0004 ADF80400 		strh	r0, [sp, #4]	@ movhi
 129:d:/liteos/code/WIFI2/Hardware/LCD\lcd.c **** 
 130:d:/liteos/code/WIFI2/Hardware/LCD\lcd.c ****     LCD_DC(1);
 165              		.loc 1 130 5 is_stmt 1 view .LVU33
 166 0008 0122     		movs	r2, #1
 167 000a 0548     		ldr	r0, .L8
 168 000c 4021     		movs	r1, #64
 169 000e FFF7FEFF 		bl	HAL_GPIO_WritePin
 170              	.LVL12:
 131:d:/liteos/code/WIFI2/Hardware/LCD\lcd.c ****     LCD_SPI_Send(data, 2);
 171              		.loc 1 131 5 view .LVU34
 172              	.LBB30:
 173              	.LBI30:
  82:d:/liteos/code/WIFI2/Hardware/LCD\lcd.c **** {
 174              		.loc 1 82 13 view .LVU35
 175              	.LBB31:
  84:d:/liteos/code/WIFI2/Hardware/LCD\lcd.c **** }
 176              		.loc 1 84 5 view .LVU36
 177 0012 0221     		movs	r1, #2
 178 0014 01A8     		add	r0, sp, #4
 179              	.LVL13:
  84:d:/liteos/code/WIFI2/Hardware/LCD\lcd.c **** }
 180              		.loc 1 84 5 is_stmt 0 view .LVU37
 181 0016 FFF7FEFF 		bl	SPI2_WriteByte
 182              	.LVL14:
  84:d:/liteos/code/WIFI2/Hardware/LCD\lcd.c **** }
 183              		.loc 1 84 5 view .LVU38
 184              	.LBE31:
 185              	.LBE30:
 132:d:/liteos/code/WIFI2/Hardware/LCD\lcd.c **** }
 186              		.loc 1 132 1 view .LVU39
 187 001a 03B0     		add	sp, sp, #12
 188              	.LCFI5:
 189              		.cfi_def_cfa_offset 4
ARM GAS  C:\Users\≤‹º“∫¿\AppData\Local\Temp\ccb8bRq8.s 			page 7


 190              		@ sp needed
 191 001c 5DF804FB 		ldr	pc, [sp], #4
 192              	.L9:
 193              		.align	2
 194              	.L8:
 195 0020 00080048 		.word	1207961600
 196              		.cfi_endproc
 197              	.LFE291:
 199              		.section	.text.LCD_Address_Set,"ax",%progbits
 200              		.align	1
 201              		.global	LCD_Address_Set
 202              		.syntax unified
 203              		.thumb
 204              		.thumb_func
 205              		.fpu fpv4-sp-d16
 207              	LCD_Address_Set:
 208              	.LVL15:
 209              	.LFB292:
 133:d:/liteos/code/WIFI2/Hardware/LCD\lcd.c **** 
 134:d:/liteos/code/WIFI2/Hardware/LCD\lcd.c **** 
 135:d:/liteos/code/WIFI2/Hardware/LCD\lcd.c **** /**
 136:d:/liteos/code/WIFI2/Hardware/LCD\lcd.c ****  * ËÆæÁΩÆÊï∞ÊçÆÂÜôÂÖ•LCDÁºìÂ≠òÂå∫Âüü
 137:d:/liteos/code/WIFI2/Hardware/LCD\lcd.c ****  *
 138:d:/liteos/code/WIFI2/Hardware/LCD\lcd.c ****  * @param   x1,y1	Ëµ∑ÁÇπÂùêÊ†á
 139:d:/liteos/code/WIFI2/Hardware/LCD\lcd.c ****  * @param   x2,y2	ÁªàÁÇπÂùêÊ†á
 140:d:/liteos/code/WIFI2/Hardware/LCD\lcd.c ****  *
 141:d:/liteos/code/WIFI2/Hardware/LCD\lcd.c ****  * @return  void
 142:d:/liteos/code/WIFI2/Hardware/LCD\lcd.c ****  */
 143:d:/liteos/code/WIFI2/Hardware/LCD\lcd.c **** void LCD_Address_Set(uint16_t x1, uint16_t y1, uint16_t x2, uint16_t y2)
 144:d:/liteos/code/WIFI2/Hardware/LCD\lcd.c **** {
 210              		.loc 1 144 1 is_stmt 1 view -0
 211              		.cfi_startproc
 212              		@ args = 0, pretend = 0, frame = 0
 213              		@ frame_needed = 0, uses_anonymous_args = 0
 145:d:/liteos/code/WIFI2/Hardware/LCD\lcd.c ****     LCD_Write_Cmd(0x2a);
 214              		.loc 1 145 5 view .LVU41
 144:d:/liteos/code/WIFI2/Hardware/LCD\lcd.c ****     LCD_Write_Cmd(0x2a);
 215              		.loc 1 144 1 is_stmt 0 view .LVU42
 216 0000 F8B5     		push	{r3, r4, r5, r6, r7, lr}
 217              	.LCFI6:
 218              		.cfi_def_cfa_offset 24
 219              		.cfi_offset 3, -24
 220              		.cfi_offset 4, -20
 221              		.cfi_offset 5, -16
 222              		.cfi_offset 6, -12
 223              		.cfi_offset 7, -8
 224              		.cfi_offset 14, -4
 144:d:/liteos/code/WIFI2/Hardware/LCD\lcd.c ****     LCD_Write_Cmd(0x2a);
 225              		.loc 1 144 1 view .LVU43
 226 0002 0746     		mov	r7, r0
 227              		.loc 1 145 5 view .LVU44
 228 0004 2A20     		movs	r0, #42
 229              	.LVL16:
 144:d:/liteos/code/WIFI2/Hardware/LCD\lcd.c ****     LCD_Write_Cmd(0x2a);
 230              		.loc 1 144 1 view .LVU45
 231 0006 0D46     		mov	r5, r1
 232 0008 1646     		mov	r6, r2
ARM GAS  C:\Users\≤‹º“∫¿\AppData\Local\Temp\ccb8bRq8.s 			page 8


 233 000a 1C46     		mov	r4, r3
 234              		.loc 1 145 5 view .LVU46
 235 000c FFF7FEFF 		bl	LCD_Write_Cmd
 236              	.LVL17:
 146:d:/liteos/code/WIFI2/Hardware/LCD\lcd.c ****     LCD_Write_Data(x1 >> 8);
 237              		.loc 1 146 5 is_stmt 1 view .LVU47
 238 0010 380A     		lsrs	r0, r7, #8
 239 0012 FFF7FEFF 		bl	LCD_Write_Data
 240              	.LVL18:
 147:d:/liteos/code/WIFI2/Hardware/LCD\lcd.c ****     LCD_Write_Data(x1);
 241              		.loc 1 147 5 view .LVU48
 242 0016 F8B2     		uxtb	r0, r7
 243 0018 FFF7FEFF 		bl	LCD_Write_Data
 244              	.LVL19:
 148:d:/liteos/code/WIFI2/Hardware/LCD\lcd.c ****     LCD_Write_Data(x2 >> 8);
 245              		.loc 1 148 5 view .LVU49
 246 001c 300A     		lsrs	r0, r6, #8
 247 001e FFF7FEFF 		bl	LCD_Write_Data
 248              	.LVL20:
 149:d:/liteos/code/WIFI2/Hardware/LCD\lcd.c ****     LCD_Write_Data(x2);
 249              		.loc 1 149 5 view .LVU50
 250 0022 F0B2     		uxtb	r0, r6
 251 0024 FFF7FEFF 		bl	LCD_Write_Data
 252              	.LVL21:
 150:d:/liteos/code/WIFI2/Hardware/LCD\lcd.c **** 
 151:d:/liteos/code/WIFI2/Hardware/LCD\lcd.c ****     LCD_Write_Cmd(0x2b);
 253              		.loc 1 151 5 view .LVU51
 254 0028 2B20     		movs	r0, #43
 255 002a FFF7FEFF 		bl	LCD_Write_Cmd
 256              	.LVL22:
 152:d:/liteos/code/WIFI2/Hardware/LCD\lcd.c ****     LCD_Write_Data(y1 >> 8);
 257              		.loc 1 152 5 view .LVU52
 258 002e 280A     		lsrs	r0, r5, #8
 259 0030 FFF7FEFF 		bl	LCD_Write_Data
 260              	.LVL23:
 153:d:/liteos/code/WIFI2/Hardware/LCD\lcd.c ****     LCD_Write_Data(y1);
 261              		.loc 1 153 5 view .LVU53
 262 0034 E8B2     		uxtb	r0, r5
 263 0036 FFF7FEFF 		bl	LCD_Write_Data
 264              	.LVL24:
 154:d:/liteos/code/WIFI2/Hardware/LCD\lcd.c ****     LCD_Write_Data(y2 >> 8);
 265              		.loc 1 154 5 view .LVU54
 266 003a 200A     		lsrs	r0, r4, #8
 267 003c FFF7FEFF 		bl	LCD_Write_Data
 268              	.LVL25:
 155:d:/liteos/code/WIFI2/Hardware/LCD\lcd.c ****     LCD_Write_Data(y2);
 269              		.loc 1 155 5 view .LVU55
 270 0040 E0B2     		uxtb	r0, r4
 271 0042 FFF7FEFF 		bl	LCD_Write_Data
 272              	.LVL26:
 156:d:/liteos/code/WIFI2/Hardware/LCD\lcd.c **** 
 157:d:/liteos/code/WIFI2/Hardware/LCD\lcd.c ****     LCD_Write_Cmd(0x2C);
 273              		.loc 1 157 5 view .LVU56
 158:d:/liteos/code/WIFI2/Hardware/LCD\lcd.c **** }
 274              		.loc 1 158 1 is_stmt 0 view .LVU57
 275 0046 BDE8F840 		pop	{r3, r4, r5, r6, r7, lr}
 276              	.LCFI7:
ARM GAS  C:\Users\≤‹º“∫¿\AppData\Local\Temp\ccb8bRq8.s 			page 9


 277              		.cfi_restore 14
 278              		.cfi_restore 7
 279              		.cfi_restore 6
 280              		.cfi_restore 5
 281              		.cfi_restore 4
 282              		.cfi_restore 3
 283              		.cfi_def_cfa_offset 0
 157:d:/liteos/code/WIFI2/Hardware/LCD\lcd.c **** }
 284              		.loc 1 157 5 view .LVU58
 285 004a 2C20     		movs	r0, #44
 286 004c FFF7FEBF 		b	LCD_Write_Cmd
 287              	.LVL27:
 288              		.cfi_endproc
 289              	.LFE292:
 291              		.section	.text.LCD_DisplayOn,"ax",%progbits
 292              		.align	1
 293              		.global	LCD_DisplayOn
 294              		.syntax unified
 295              		.thumb
 296              		.thumb_func
 297              		.fpu fpv4-sp-d16
 299              	LCD_DisplayOn:
 300              	.LFB293:
 159:d:/liteos/code/WIFI2/Hardware/LCD\lcd.c **** 
 160:d:/liteos/code/WIFI2/Hardware/LCD\lcd.c **** /**
 161:d:/liteos/code/WIFI2/Hardware/LCD\lcd.c ****  * ÊâìÂºÄLCDÊòæÁ§∫
 162:d:/liteos/code/WIFI2/Hardware/LCD\lcd.c ****  *
 163:d:/liteos/code/WIFI2/Hardware/LCD\lcd.c ****  * @param   void
 164:d:/liteos/code/WIFI2/Hardware/LCD\lcd.c ****  *
 165:d:/liteos/code/WIFI2/Hardware/LCD\lcd.c ****  * @return  void
 166:d:/liteos/code/WIFI2/Hardware/LCD\lcd.c ****  */
 167:d:/liteos/code/WIFI2/Hardware/LCD\lcd.c **** void LCD_DisplayOn(void)
 168:d:/liteos/code/WIFI2/Hardware/LCD\lcd.c **** {
 301              		.loc 1 168 1 is_stmt 1 view -0
 302              		.cfi_startproc
 303              		@ args = 0, pretend = 0, frame = 0
 304              		@ frame_needed = 0, uses_anonymous_args = 0
 305              		@ link register save eliminated.
 169:d:/liteos/code/WIFI2/Hardware/LCD\lcd.c ****     LCD_PWR(1);
 306              		.loc 1 169 5 view .LVU60
 307 0000 0248     		ldr	r0, .L12
 308 0002 0122     		movs	r2, #1
 309 0004 4FF40041 		mov	r1, #32768
 310 0008 FFF7FEBF 		b	HAL_GPIO_WritePin
 311              	.LVL28:
 312              	.L13:
 313              		.align	2
 314              	.L12:
 315 000c 00040048 		.word	1207960576
 316              		.cfi_endproc
 317              	.LFE293:
 319              		.section	.text.LCD_DisplayOff,"ax",%progbits
 320              		.align	1
 321              		.global	LCD_DisplayOff
 322              		.syntax unified
 323              		.thumb
 324              		.thumb_func
ARM GAS  C:\Users\≤‹º“∫¿\AppData\Local\Temp\ccb8bRq8.s 			page 10


 325              		.fpu fpv4-sp-d16
 327              	LCD_DisplayOff:
 328              	.LFB294:
 170:d:/liteos/code/WIFI2/Hardware/LCD\lcd.c **** }
 171:d:/liteos/code/WIFI2/Hardware/LCD\lcd.c **** /**
 172:d:/liteos/code/WIFI2/Hardware/LCD\lcd.c ****  * ÂÖ≥Èó≠LCDÊòæÁ§∫
 173:d:/liteos/code/WIFI2/Hardware/LCD\lcd.c ****  *
 174:d:/liteos/code/WIFI2/Hardware/LCD\lcd.c ****  * @param   void
 175:d:/liteos/code/WIFI2/Hardware/LCD\lcd.c ****  *
 176:d:/liteos/code/WIFI2/Hardware/LCD\lcd.c ****  * @return  void
 177:d:/liteos/code/WIFI2/Hardware/LCD\lcd.c ****  */
 178:d:/liteos/code/WIFI2/Hardware/LCD\lcd.c **** void LCD_DisplayOff(void)
 179:d:/liteos/code/WIFI2/Hardware/LCD\lcd.c **** {
 329              		.loc 1 179 1 view -0
 330              		.cfi_startproc
 331              		@ args = 0, pretend = 0, frame = 0
 332              		@ frame_needed = 0, uses_anonymous_args = 0
 333              		@ link register save eliminated.
 180:d:/liteos/code/WIFI2/Hardware/LCD\lcd.c ****     LCD_PWR(0);
 334              		.loc 1 180 5 view .LVU62
 335 0000 0248     		ldr	r0, .L15
 336 0002 0022     		movs	r2, #0
 337 0004 4FF40041 		mov	r1, #32768
 338 0008 FFF7FEBF 		b	HAL_GPIO_WritePin
 339              	.LVL29:
 340              	.L16:
 341              		.align	2
 342              	.L15:
 343 000c 00040048 		.word	1207960576
 344              		.cfi_endproc
 345              	.LFE294:
 347              		.section	.text.LCD_Clear,"ax",%progbits
 348              		.align	1
 349              		.global	LCD_Clear
 350              		.syntax unified
 351              		.thumb
 352              		.thumb_func
 353              		.fpu fpv4-sp-d16
 355              	LCD_Clear:
 356              	.LVL30:
 357              	.LFB295:
 181:d:/liteos/code/WIFI2/Hardware/LCD\lcd.c **** }
 182:d:/liteos/code/WIFI2/Hardware/LCD\lcd.c **** 
 183:d:/liteos/code/WIFI2/Hardware/LCD\lcd.c **** /**
 184:d:/liteos/code/WIFI2/Hardware/LCD\lcd.c ****  * ‰ª•‰∏ÄÁßçÈ¢úËâ≤Ê∏ÖÁ©∫LCDÂ±è
 185:d:/liteos/code/WIFI2/Hardware/LCD\lcd.c ****  *
 186:d:/liteos/code/WIFI2/Hardware/LCD\lcd.c ****  * @param   color	Ê∏ÖÂ±èÈ¢úËâ≤
 187:d:/liteos/code/WIFI2/Hardware/LCD\lcd.c ****  *
 188:d:/liteos/code/WIFI2/Hardware/LCD\lcd.c ****  * @return  void
 189:d:/liteos/code/WIFI2/Hardware/LCD\lcd.c ****  */
 190:d:/liteos/code/WIFI2/Hardware/LCD\lcd.c **** void LCD_Clear(uint16_t color)
 191:d:/liteos/code/WIFI2/Hardware/LCD\lcd.c **** {
 358              		.loc 1 191 1 view -0
 359              		.cfi_startproc
 360              		@ args = 0, pretend = 0, frame = 0
 361              		@ frame_needed = 0, uses_anonymous_args = 0
 192:d:/liteos/code/WIFI2/Hardware/LCD\lcd.c ****     uint16_t i, j;
ARM GAS  C:\Users\≤‹º“∫¿\AppData\Local\Temp\ccb8bRq8.s 			page 11


 362              		.loc 1 192 5 view .LVU64
 193:d:/liteos/code/WIFI2/Hardware/LCD\lcd.c ****     uint8_t data[2] = {0};
 363              		.loc 1 193 5 view .LVU65
 194:d:/liteos/code/WIFI2/Hardware/LCD\lcd.c **** 
 195:d:/liteos/code/WIFI2/Hardware/LCD\lcd.c ****     data[0] = color >> 8;
 364              		.loc 1 195 5 view .LVU66
 191:d:/liteos/code/WIFI2/Hardware/LCD\lcd.c ****     uint16_t i, j;
 365              		.loc 1 191 1 is_stmt 0 view .LVU67
 366 0000 38B5     		push	{r3, r4, r5, lr}
 367              	.LCFI8:
 368              		.cfi_def_cfa_offset 16
 369              		.cfi_offset 3, -16
 370              		.cfi_offset 4, -12
 371              		.cfi_offset 5, -8
 372              		.cfi_offset 14, -4
 196:d:/liteos/code/WIFI2/Hardware/LCD\lcd.c ****     data[1] = color;
 197:d:/liteos/code/WIFI2/Hardware/LCD\lcd.c **** 
 198:d:/liteos/code/WIFI2/Hardware/LCD\lcd.c ****     LCD_Address_Set(0, 0, LCD_Width - 1, LCD_Height - 1);
 373              		.loc 1 198 5 view .LVU68
 374 0002 0021     		movs	r1, #0
 375 0004 EF23     		movs	r3, #239
 376 0006 1A46     		mov	r2, r3
 195:d:/liteos/code/WIFI2/Hardware/LCD\lcd.c ****     data[1] = color;
 377              		.loc 1 195 13 view .LVU69
 378 0008 050A     		lsrs	r5, r0, #8
 379              	.LVL31:
 196:d:/liteos/code/WIFI2/Hardware/LCD\lcd.c ****     data[1] = color;
 380              		.loc 1 196 5 is_stmt 1 view .LVU70
 196:d:/liteos/code/WIFI2/Hardware/LCD\lcd.c ****     data[1] = color;
 381              		.loc 1 196 13 is_stmt 0 view .LVU71
 382 000a C4B2     		uxtb	r4, r0
 383              	.LVL32:
 384              		.loc 1 198 5 is_stmt 1 view .LVU72
 385 000c 0846     		mov	r0, r1
 386              	.LVL33:
 387              		.loc 1 198 5 is_stmt 0 view .LVU73
 388 000e FFF7FEFF 		bl	LCD_Address_Set
 389              	.LVL34:
 199:d:/liteos/code/WIFI2/Hardware/LCD\lcd.c **** 
 200:d:/liteos/code/WIFI2/Hardware/LCD\lcd.c ****     for(j = 0; j < LCD_Buf_Size / 2; j++)
 390              		.loc 1 200 5 is_stmt 1 view .LVU74
 391              		.loc 1 200 16 view .LVU75
 392 0012 0D4B     		ldr	r3, .L22
 198:d:/liteos/code/WIFI2/Hardware/LCD\lcd.c **** 
 393              		.loc 1 198 5 is_stmt 0 view .LVU76
 394 0014 0022     		movs	r2, #0
 395              	.LVL35:
 396              	.L18:
 201:d:/liteos/code/WIFI2/Hardware/LCD\lcd.c ****     {
 202:d:/liteos/code/WIFI2/Hardware/LCD\lcd.c ****         lcd_buf[j * 2] =  data[0];
 397              		.loc 1 202 9 is_stmt 1 discriminator 3 view .LVU77
 398 0016 0132     		adds	r2, r2, #1
 399              	.LVL36:
 200:d:/liteos/code/WIFI2/Hardware/LCD\lcd.c ****     {
 400              		.loc 1 200 5 is_stmt 0 discriminator 3 view .LVU78
 401 0018 B2F5107F 		cmp	r2, #576
 402              		.loc 1 202 24 discriminator 3 view .LVU79
ARM GAS  C:\Users\≤‹º“∫¿\AppData\Local\Temp\ccb8bRq8.s 			page 12


 403 001c 1D70     		strb	r5, [r3]
 203:d:/liteos/code/WIFI2/Hardware/LCD\lcd.c ****         lcd_buf[j * 2 + 1] =  data[1];
 404              		.loc 1 203 9 is_stmt 1 discriminator 3 view .LVU80
 405              		.loc 1 203 28 is_stmt 0 discriminator 3 view .LVU81
 406 001e 5C70     		strb	r4, [r3, #1]
 200:d:/liteos/code/WIFI2/Hardware/LCD\lcd.c ****     {
 407              		.loc 1 200 38 is_stmt 1 discriminator 3 view .LVU82
 200:d:/liteos/code/WIFI2/Hardware/LCD\lcd.c ****     {
 408              		.loc 1 200 16 discriminator 3 view .LVU83
 409 0020 03F10203 		add	r3, r3, #2
 200:d:/liteos/code/WIFI2/Hardware/LCD\lcd.c ****     {
 410              		.loc 1 200 5 is_stmt 0 discriminator 3 view .LVU84
 411 0024 F7D1     		bne	.L18
 204:d:/liteos/code/WIFI2/Hardware/LCD\lcd.c ****     }
 205:d:/liteos/code/WIFI2/Hardware/LCD\lcd.c **** 
 206:d:/liteos/code/WIFI2/Hardware/LCD\lcd.c ****     LCD_DC(1);
 412              		.loc 1 206 5 is_stmt 1 view .LVU85
 413 0026 0948     		ldr	r0, .L22+4
 414              	.LBB32:
 415              	.LBB33:
  84:d:/liteos/code/WIFI2/Hardware/LCD\lcd.c **** }
 416              		.loc 1 84 5 is_stmt 0 view .LVU86
 417 0028 074D     		ldr	r5, .L22
 418              	.LVL37:
  84:d:/liteos/code/WIFI2/Hardware/LCD\lcd.c **** }
 419              		.loc 1 84 5 view .LVU87
 420              	.LBE33:
 421              	.LBE32:
 422              		.loc 1 206 5 view .LVU88
 423 002a 0122     		movs	r2, #1
 424 002c 4021     		movs	r1, #64
 425 002e FFF7FEFF 		bl	HAL_GPIO_WritePin
 426              	.LVL38:
 207:d:/liteos/code/WIFI2/Hardware/LCD\lcd.c **** 
 208:d:/liteos/code/WIFI2/Hardware/LCD\lcd.c ****     for(i = 0; i < (LCD_TOTAL_BUF_SIZE / LCD_Buf_Size); i++)
 427              		.loc 1 208 5 is_stmt 1 view .LVU89
 428              		.loc 1 208 16 view .LVU90
 206:d:/liteos/code/WIFI2/Hardware/LCD\lcd.c **** 
 429              		.loc 1 206 5 is_stmt 0 view .LVU91
 430 0032 6424     		movs	r4, #100
 431              	.LVL39:
 432              	.L19:
 209:d:/liteos/code/WIFI2/Hardware/LCD\lcd.c ****     {
 210:d:/liteos/code/WIFI2/Hardware/LCD\lcd.c ****         LCD_SPI_Send(lcd_buf, LCD_Buf_Size);
 433              		.loc 1 210 9 is_stmt 1 view .LVU92
 434              	.LBB35:
 435              	.LBI32:
  82:d:/liteos/code/WIFI2/Hardware/LCD\lcd.c **** {
 436              		.loc 1 82 13 view .LVU93
 437              	.LBB34:
  84:d:/liteos/code/WIFI2/Hardware/LCD\lcd.c **** }
 438              		.loc 1 84 5 view .LVU94
 439 0034 013C     		subs	r4, r4, #1
 440              	.LVL40:
  84:d:/liteos/code/WIFI2/Hardware/LCD\lcd.c **** }
 441              		.loc 1 84 5 is_stmt 0 view .LVU95
 442 0036 4FF49061 		mov	r1, #1152
ARM GAS  C:\Users\≤‹º“∫¿\AppData\Local\Temp\ccb8bRq8.s 			page 13


 443 003a 2846     		mov	r0, r5
 444 003c A4B2     		uxth	r4, r4
 445 003e FFF7FEFF 		bl	SPI2_WriteByte
 446              	.LVL41:
  84:d:/liteos/code/WIFI2/Hardware/LCD\lcd.c **** }
 447              		.loc 1 84 5 view .LVU96
 448              	.LBE34:
 449              	.LBE35:
 208:d:/liteos/code/WIFI2/Hardware/LCD\lcd.c ****     {
 450              		.loc 1 208 57 is_stmt 1 view .LVU97
 208:d:/liteos/code/WIFI2/Hardware/LCD\lcd.c ****     {
 451              		.loc 1 208 16 view .LVU98
 208:d:/liteos/code/WIFI2/Hardware/LCD\lcd.c ****     {
 452              		.loc 1 208 5 is_stmt 0 view .LVU99
 453 0042 002C     		cmp	r4, #0
 454 0044 F6D1     		bne	.L19
 211:d:/liteos/code/WIFI2/Hardware/LCD\lcd.c ****     }
 212:d:/liteos/code/WIFI2/Hardware/LCD\lcd.c **** }
 455              		.loc 1 212 1 view .LVU100
 456 0046 38BD     		pop	{r3, r4, r5, pc}
 457              	.L23:
 458              		.align	2
 459              	.L22:
 460 0048 00000000 		.word	.LANCHOR0
 461 004c 00080048 		.word	1207961600
 462              		.cfi_endproc
 463              	.LFE295:
 465              		.section	.text.LCD_Fill,"ax",%progbits
 466              		.align	1
 467              		.global	LCD_Fill
 468              		.syntax unified
 469              		.thumb
 470              		.thumb_func
 471              		.fpu fpv4-sp-d16
 473              	LCD_Fill:
 474              	.LVL42:
 475              	.LFB296:
 213:d:/liteos/code/WIFI2/Hardware/LCD\lcd.c **** 
 214:d:/liteos/code/WIFI2/Hardware/LCD\lcd.c **** /**
 215:d:/liteos/code/WIFI2/Hardware/LCD\lcd.c ****  * Áî®‰∏Ä‰∏™È¢úËâ≤Â°´ÂÖÖÊï¥‰∏™Âå∫Âüü
 216:d:/liteos/code/WIFI2/Hardware/LCD\lcd.c ****  *
 217:d:/liteos/code/WIFI2/Hardware/LCD\lcd.c ****  * @param   x_start,y_start     Ëµ∑ÁÇπÂùêÊ†á
 218:d:/liteos/code/WIFI2/Hardware/LCD\lcd.c ****  * @param   x_end,y_end			ÁªàÁÇπÂùêÊ†á
 219:d:/liteos/code/WIFI2/Hardware/LCD\lcd.c ****  * @param   color       		Â°´ÂÖÖÈ¢úËâ≤
 220:d:/liteos/code/WIFI2/Hardware/LCD\lcd.c ****  *
 221:d:/liteos/code/WIFI2/Hardware/LCD\lcd.c ****  * @return  void
 222:d:/liteos/code/WIFI2/Hardware/LCD\lcd.c ****  */
 223:d:/liteos/code/WIFI2/Hardware/LCD\lcd.c **** void LCD_Fill(uint16_t x_start, uint16_t y_start, uint16_t x_end, uint16_t y_end, uint16_t color)
 224:d:/liteos/code/WIFI2/Hardware/LCD\lcd.c **** {
 476              		.loc 1 224 1 is_stmt 1 view -0
 477              		.cfi_startproc
 478              		@ args = 4, pretend = 0, frame = 0
 479              		@ frame_needed = 0, uses_anonymous_args = 0
 225:d:/liteos/code/WIFI2/Hardware/LCD\lcd.c ****     uint16_t i = 0;
 480              		.loc 1 225 5 view .LVU102
 226:d:/liteos/code/WIFI2/Hardware/LCD\lcd.c ****     uint32_t size = 0, size_remain = 0;
 481              		.loc 1 226 5 view .LVU103
ARM GAS  C:\Users\≤‹º“∫¿\AppData\Local\Temp\ccb8bRq8.s 			page 14


 227:d:/liteos/code/WIFI2/Hardware/LCD\lcd.c **** 
 228:d:/liteos/code/WIFI2/Hardware/LCD\lcd.c ****     size = (x_end - x_start + 1) * (y_end - y_start + 1) * 2;
 482              		.loc 1 228 5 view .LVU104
 224:d:/liteos/code/WIFI2/Hardware/LCD\lcd.c ****     uint16_t i = 0;
 483              		.loc 1 224 1 is_stmt 0 view .LVU105
 484 0000 2DE9F843 		push	{r3, r4, r5, r6, r7, r8, r9, lr}
 485              	.LCFI9:
 486              		.cfi_def_cfa_offset 32
 487              		.cfi_offset 3, -32
 488              		.cfi_offset 4, -28
 489              		.cfi_offset 5, -24
 490              		.cfi_offset 6, -20
 491              		.cfi_offset 7, -16
 492              		.cfi_offset 8, -12
 493              		.cfi_offset 9, -8
 494              		.cfi_offset 14, -4
 495              		.loc 1 228 43 view .LVU106
 496 0004 5C1A     		subs	r4, r3, r1
 497              		.loc 1 228 19 view .LVU107
 498 0006 151A     		subs	r5, r2, r0
 499              		.loc 1 228 53 view .LVU108
 500 0008 0134     		adds	r4, r4, #1
 501              		.loc 1 228 34 view .LVU109
 502 000a 05FB0444 		mla	r4, r5, r4, r4
 503              		.loc 1 228 58 view .LVU110
 504 000e 6400     		lsls	r4, r4, #1
 505              	.LVL43:
 229:d:/liteos/code/WIFI2/Hardware/LCD\lcd.c **** 
 230:d:/liteos/code/WIFI2/Hardware/LCD\lcd.c ****     if(size > LCD_Buf_Size)
 506              		.loc 1 230 5 is_stmt 1 view .LVU111
 507              		.loc 1 230 7 is_stmt 0 view .LVU112
 508 0010 B4F5906F 		cmp	r4, #1152
 231:d:/liteos/code/WIFI2/Hardware/LCD\lcd.c ****     {
 232:d:/liteos/code/WIFI2/Hardware/LCD\lcd.c ****         size_remain = size - LCD_Buf_Size;
 509              		.loc 1 232 9 is_stmt 1 view .LVU113
 224:d:/liteos/code/WIFI2/Hardware/LCD\lcd.c ****     uint16_t i = 0;
 510              		.loc 1 224 1 is_stmt 0 view .LVU114
 511 0014 BDF82060 		ldrh	r6, [sp, #32]
 233:d:/liteos/code/WIFI2/Hardware/LCD\lcd.c ****         size = LCD_Buf_Size;
 234:d:/liteos/code/WIFI2/Hardware/LCD\lcd.c ****     }
 235:d:/liteos/code/WIFI2/Hardware/LCD\lcd.c **** 
 236:d:/liteos/code/WIFI2/Hardware/LCD\lcd.c ****     LCD_Address_Set(x_start, y_start, x_end, y_end);
 237:d:/liteos/code/WIFI2/Hardware/LCD\lcd.c **** 
 238:d:/liteos/code/WIFI2/Hardware/LCD\lcd.c ****     while(1)
 239:d:/liteos/code/WIFI2/Hardware/LCD\lcd.c ****     {
 240:d:/liteos/code/WIFI2/Hardware/LCD\lcd.c ****         for(i = 0; i < size / 2; i++)
 241:d:/liteos/code/WIFI2/Hardware/LCD\lcd.c ****         {
 242:d:/liteos/code/WIFI2/Hardware/LCD\lcd.c ****             lcd_buf[2 * i] = color >> 8;
 512              		.loc 1 242 28 view .LVU115
 513 0018 184F     		ldr	r7, .L33
 243:d:/liteos/code/WIFI2/Hardware/LCD\lcd.c ****             lcd_buf[2 * i + 1] = color;
 244:d:/liteos/code/WIFI2/Hardware/LCD\lcd.c ****         }
 245:d:/liteos/code/WIFI2/Hardware/LCD\lcd.c **** 
 246:d:/liteos/code/WIFI2/Hardware/LCD\lcd.c ****         LCD_DC(1);
 514              		.loc 1 246 9 view .LVU116
 515 001a DFF86490 		ldr	r9, .L33+4
 232:d:/liteos/code/WIFI2/Hardware/LCD\lcd.c ****         size = LCD_Buf_Size;
ARM GAS  C:\Users\≤‹º“∫¿\AppData\Local\Temp\ccb8bRq8.s 			page 15


 516              		.loc 1 232 21 view .LVU117
 517 001e 8ABF     		itet	hi
 518 0020 A4F59065 		subhi	r5, r4, #1152
 519              	.LVL44:
 233:d:/liteos/code/WIFI2/Hardware/LCD\lcd.c ****         size = LCD_Buf_Size;
 520              		.loc 1 233 9 is_stmt 1 view .LVU118
 226:d:/liteos/code/WIFI2/Hardware/LCD\lcd.c **** 
 521              		.loc 1 226 24 is_stmt 0 view .LVU119
 522 0024 0025     		movls	r5, #0
 523              	.LVL45:
 233:d:/liteos/code/WIFI2/Hardware/LCD\lcd.c ****     }
 524              		.loc 1 233 14 view .LVU120
 525 0026 4FF49064 		movhi	r4, #1152
 526              	.LVL46:
 236:d:/liteos/code/WIFI2/Hardware/LCD\lcd.c **** 
 527              		.loc 1 236 5 is_stmt 1 view .LVU121
 528 002a FFF7FEFF 		bl	LCD_Address_Set
 529              	.LVL47:
 242:d:/liteos/code/WIFI2/Hardware/LCD\lcd.c ****             lcd_buf[2 * i + 1] = color;
 530              		.loc 1 242 28 is_stmt 0 view .LVU122
 531 002e 4FEA1628 		lsr	r8, r6, #8
 532              	.LVL48:
 533              	.L26:
 238:d:/liteos/code/WIFI2/Hardware/LCD\lcd.c ****     {
 534              		.loc 1 238 5 is_stmt 1 view .LVU123
 240:d:/liteos/code/WIFI2/Hardware/LCD\lcd.c ****         {
 535              		.loc 1 240 9 view .LVU124
 240:d:/liteos/code/WIFI2/Hardware/LCD\lcd.c ****         {
 536              		.loc 1 240 29 is_stmt 0 view .LVU125
 537 0032 6208     		lsrs	r2, r4, #1
 240:d:/liteos/code/WIFI2/Hardware/LCD\lcd.c ****         {
 538              		.loc 1 240 9 view .LVU126
 539 0034 0023     		movs	r3, #0
 540              	.LVL49:
 541              	.L27:
 240:d:/liteos/code/WIFI2/Hardware/LCD\lcd.c ****         {
 542              		.loc 1 240 20 is_stmt 1 discriminator 1 view .LVU127
 543 0036 591C     		adds	r1, r3, #1
 240:d:/liteos/code/WIFI2/Hardware/LCD\lcd.c ****         {
 544              		.loc 1 240 9 is_stmt 0 discriminator 1 view .LVU128
 545 0038 9BB2     		uxth	r3, r3
 240:d:/liteos/code/WIFI2/Hardware/LCD\lcd.c ****         {
 546              		.loc 1 240 9 discriminator 1 view .LVU129
 547 003a 9A42     		cmp	r2, r3
 548 003c 14D8     		bhi	.L28
 549              		.loc 1 246 9 is_stmt 1 view .LVU130
 550 003e 4021     		movs	r1, #64
 551 0040 4846     		mov	r0, r9
 552 0042 0122     		movs	r2, #1
 553 0044 FFF7FEFF 		bl	HAL_GPIO_WritePin
 554              	.LVL50:
 247:d:/liteos/code/WIFI2/Hardware/LCD\lcd.c ****         LCD_SPI_Send(lcd_buf, size);
 555              		.loc 1 247 9 view .LVU131
 556              	.LBB36:
 557              	.LBI36:
  82:d:/liteos/code/WIFI2/Hardware/LCD\lcd.c **** {
 558              		.loc 1 82 13 view .LVU132
ARM GAS  C:\Users\≤‹º“∫¿\AppData\Local\Temp\ccb8bRq8.s 			page 16


 559              	.LBB37:
  84:d:/liteos/code/WIFI2/Hardware/LCD\lcd.c **** }
 560              		.loc 1 84 5 view .LVU133
 561 0048 A1B2     		uxth	r1, r4
 562 004a 3846     		mov	r0, r7
 563 004c FFF7FEFF 		bl	SPI2_WriteByte
 564              	.LVL51:
  84:d:/liteos/code/WIFI2/Hardware/LCD\lcd.c **** }
 565              		.loc 1 84 5 is_stmt 0 view .LVU134
 566              	.LBE37:
 567              	.LBE36:
 248:d:/liteos/code/WIFI2/Hardware/LCD\lcd.c **** 
 249:d:/liteos/code/WIFI2/Hardware/LCD\lcd.c ****         if(size_remain == 0)
 568              		.loc 1 249 9 is_stmt 1 view .LVU135
 569              		.loc 1 249 11 is_stmt 0 view .LVU136
 570 0050 8DB1     		cbz	r5, .L24
 250:d:/liteos/code/WIFI2/Hardware/LCD\lcd.c ****             break;
 251:d:/liteos/code/WIFI2/Hardware/LCD\lcd.c **** 
 252:d:/liteos/code/WIFI2/Hardware/LCD\lcd.c ****         if(size_remain > LCD_Buf_Size)
 571              		.loc 1 252 9 is_stmt 1 view .LVU137
 572              		.loc 1 252 11 is_stmt 0 view .LVU138
 573 0052 B5F5906F 		cmp	r5, #1152
 574 0056 03D9     		bls	.L32
 253:d:/liteos/code/WIFI2/Hardware/LCD\lcd.c ****         {
 254:d:/liteos/code/WIFI2/Hardware/LCD\lcd.c ****             size_remain = size_remain - LCD_Buf_Size;
 575              		.loc 1 254 13 is_stmt 1 view .LVU139
 576              		.loc 1 254 25 is_stmt 0 view .LVU140
 577 0058 A5F59063 		sub	r3, r5, #1152
 578              	.LVL52:
 579              		.loc 1 254 25 view .LVU141
 580 005c 2546     		mov	r5, r4
 581 005e 00E0     		b	.L30
 582              	.LVL53:
 583              	.L32:
 255:d:/liteos/code/WIFI2/Hardware/LCD\lcd.c ****         }
 256:d:/liteos/code/WIFI2/Hardware/LCD\lcd.c **** 
 257:d:/liteos/code/WIFI2/Hardware/LCD\lcd.c ****         else
 258:d:/liteos/code/WIFI2/Hardware/LCD\lcd.c ****         {
 259:d:/liteos/code/WIFI2/Hardware/LCD\lcd.c ****             size = size_remain;
 260:d:/liteos/code/WIFI2/Hardware/LCD\lcd.c ****             size_remain = 0;
 584              		.loc 1 260 25 view .LVU142
 585 0060 0023     		movs	r3, #0
 586              	.LVL54:
 587              	.L30:
 588              		.loc 1 260 25 view .LVU143
 589 0062 2C46     		mov	r4, r5
 590              	.LVL55:
 591              		.loc 1 260 25 view .LVU144
 592 0064 1D46     		mov	r5, r3
 593 0066 E4E7     		b	.L26
 594              	.LVL56:
 595              	.L28:
 242:d:/liteos/code/WIFI2/Hardware/LCD\lcd.c ****             lcd_buf[2 * i + 1] = color;
 596              		.loc 1 242 13 is_stmt 1 discriminator 3 view .LVU145
 242:d:/liteos/code/WIFI2/Hardware/LCD\lcd.c ****             lcd_buf[2 * i + 1] = color;
 597              		.loc 1 242 28 is_stmt 0 discriminator 3 view .LVU146
 598 0068 07F81380 		strb	r8, [r7, r3, lsl #1]
ARM GAS  C:\Users\≤‹º“∫¿\AppData\Local\Temp\ccb8bRq8.s 			page 17


 243:d:/liteos/code/WIFI2/Hardware/LCD\lcd.c ****         }
 599              		.loc 1 243 13 is_stmt 1 discriminator 3 view .LVU147
 243:d:/liteos/code/WIFI2/Hardware/LCD\lcd.c ****         }
 600              		.loc 1 243 32 is_stmt 0 discriminator 3 view .LVU148
 601 006c 07EB4303 		add	r3, r7, r3, lsl #1
 602              	.LVL57:
 243:d:/liteos/code/WIFI2/Hardware/LCD\lcd.c ****         }
 603              		.loc 1 243 32 discriminator 3 view .LVU149
 604 0070 5E70     		strb	r6, [r3, #1]
 240:d:/liteos/code/WIFI2/Hardware/LCD\lcd.c ****         {
 605              		.loc 1 240 34 is_stmt 1 discriminator 3 view .LVU150
 606              	.LVL58:
 243:d:/liteos/code/WIFI2/Hardware/LCD\lcd.c ****         }
 607              		.loc 1 243 32 is_stmt 0 discriminator 3 view .LVU151
 608 0072 0B46     		mov	r3, r1
 609 0074 DFE7     		b	.L27
 610              	.LVL59:
 611              	.L24:
 261:d:/liteos/code/WIFI2/Hardware/LCD\lcd.c ****         }
 262:d:/liteos/code/WIFI2/Hardware/LCD\lcd.c ****     }
 263:d:/liteos/code/WIFI2/Hardware/LCD\lcd.c **** }
 612              		.loc 1 263 1 view .LVU152
 613 0076 BDE8F883 		pop	{r3, r4, r5, r6, r7, r8, r9, pc}
 614              	.LVL60:
 615              	.L34:
 616              		.loc 1 263 1 view .LVU153
 617 007a 00BF     		.align	2
 618              	.L33:
 619 007c 00000000 		.word	.LANCHOR0
 620 0080 00080048 		.word	1207961600
 621              		.cfi_endproc
 622              	.LFE296:
 624              		.section	.text.LCD_Draw_Point,"ax",%progbits
 625              		.align	1
 626              		.global	LCD_Draw_Point
 627              		.syntax unified
 628              		.thumb
 629              		.thumb_func
 630              		.fpu fpv4-sp-d16
 632              	LCD_Draw_Point:
 633              	.LVL61:
 634              	.LFB297:
 264:d:/liteos/code/WIFI2/Hardware/LCD\lcd.c **** 
 265:d:/liteos/code/WIFI2/Hardware/LCD\lcd.c **** /**
 266:d:/liteos/code/WIFI2/Hardware/LCD\lcd.c ****  * ÁîªÁÇπÂáΩÊï∞
 267:d:/liteos/code/WIFI2/Hardware/LCD\lcd.c ****  *
 268:d:/liteos/code/WIFI2/Hardware/LCD\lcd.c ****  * @param   x,y		ÁîªÁÇπÂùêÊ†á
 269:d:/liteos/code/WIFI2/Hardware/LCD\lcd.c ****  *
 270:d:/liteos/code/WIFI2/Hardware/LCD\lcd.c ****  * @return  void
 271:d:/liteos/code/WIFI2/Hardware/LCD\lcd.c ****  */
 272:d:/liteos/code/WIFI2/Hardware/LCD\lcd.c **** void LCD_Draw_Point(uint16_t x, uint16_t y)
 273:d:/liteos/code/WIFI2/Hardware/LCD\lcd.c **** {
 635              		.loc 1 273 1 is_stmt 1 view -0
 636              		.cfi_startproc
 637              		@ args = 0, pretend = 0, frame = 0
 638              		@ frame_needed = 0, uses_anonymous_args = 0
 274:d:/liteos/code/WIFI2/Hardware/LCD\lcd.c ****     LCD_Address_Set(x, y, x, y);
ARM GAS  C:\Users\≤‹º“∫¿\AppData\Local\Temp\ccb8bRq8.s 			page 18


 639              		.loc 1 274 5 view .LVU155
 273:d:/liteos/code/WIFI2/Hardware/LCD\lcd.c ****     LCD_Address_Set(x, y, x, y);
 640              		.loc 1 273 1 is_stmt 0 view .LVU156
 641 0000 08B5     		push	{r3, lr}
 642              	.LCFI10:
 643              		.cfi_def_cfa_offset 8
 644              		.cfi_offset 3, -8
 645              		.cfi_offset 14, -4
 273:d:/liteos/code/WIFI2/Hardware/LCD\lcd.c ****     LCD_Address_Set(x, y, x, y);
 646              		.loc 1 273 1 view .LVU157
 647 0002 0246     		mov	r2, r0
 648 0004 0B46     		mov	r3, r1
 649              		.loc 1 274 5 view .LVU158
 650 0006 FFF7FEFF 		bl	LCD_Address_Set
 651              	.LVL62:
 275:d:/liteos/code/WIFI2/Hardware/LCD\lcd.c ****     LCD_Write_HalfWord(POINT_COLOR);
 652              		.loc 1 275 5 is_stmt 1 view .LVU159
 653 000a 034B     		ldr	r3, .L36
 654 000c 1888     		ldrh	r0, [r3]
 276:d:/liteos/code/WIFI2/Hardware/LCD\lcd.c **** }
 655              		.loc 1 276 1 is_stmt 0 view .LVU160
 656 000e BDE80840 		pop	{r3, lr}
 657              	.LCFI11:
 658              		.cfi_restore 14
 659              		.cfi_restore 3
 660              		.cfi_def_cfa_offset 0
 275:d:/liteos/code/WIFI2/Hardware/LCD\lcd.c ****     LCD_Write_HalfWord(POINT_COLOR);
 661              		.loc 1 275 5 view .LVU161
 662 0012 FFF7FEBF 		b	LCD_Write_HalfWord
 663              	.LVL63:
 664              	.L37:
 665 0016 00BF     		.align	2
 666              	.L36:
 667 0018 00000000 		.word	.LANCHOR1
 668              		.cfi_endproc
 669              	.LFE297:
 671              		.section	.text.LCD_Draw_ColorPoint,"ax",%progbits
 672              		.align	1
 673              		.global	LCD_Draw_ColorPoint
 674              		.syntax unified
 675              		.thumb
 676              		.thumb_func
 677              		.fpu fpv4-sp-d16
 679              	LCD_Draw_ColorPoint:
 680              	.LVL64:
 681              	.LFB298:
 277:d:/liteos/code/WIFI2/Hardware/LCD\lcd.c **** 
 278:d:/liteos/code/WIFI2/Hardware/LCD\lcd.c **** /**
 279:d:/liteos/code/WIFI2/Hardware/LCD\lcd.c ****  * ÁîªÁÇπÂ∏¶È¢úËâ≤ÂáΩÊï∞
 280:d:/liteos/code/WIFI2/Hardware/LCD\lcd.c ****  *
 281:d:/liteos/code/WIFI2/Hardware/LCD\lcd.c ****  * @param   x,y		ÁîªÁÇπÂùêÊ†á
 282:d:/liteos/code/WIFI2/Hardware/LCD\lcd.c ****  *
 283:d:/liteos/code/WIFI2/Hardware/LCD\lcd.c ****  * @return  void
 284:d:/liteos/code/WIFI2/Hardware/LCD\lcd.c ****  */
 285:d:/liteos/code/WIFI2/Hardware/LCD\lcd.c **** void LCD_Draw_ColorPoint(uint16_t x, uint16_t y,uint16_t color)
 286:d:/liteos/code/WIFI2/Hardware/LCD\lcd.c **** {
 682              		.loc 1 286 1 is_stmt 1 view -0
ARM GAS  C:\Users\≤‹º“∫¿\AppData\Local\Temp\ccb8bRq8.s 			page 19


 683              		.cfi_startproc
 684              		@ args = 0, pretend = 0, frame = 0
 685              		@ frame_needed = 0, uses_anonymous_args = 0
 287:d:/liteos/code/WIFI2/Hardware/LCD\lcd.c ****     LCD_Address_Set(x, y, x, y);
 686              		.loc 1 287 5 view .LVU163
 286:d:/liteos/code/WIFI2/Hardware/LCD\lcd.c ****     LCD_Address_Set(x, y, x, y);
 687              		.loc 1 286 1 is_stmt 0 view .LVU164
 688 0000 10B5     		push	{r4, lr}
 689              	.LCFI12:
 690              		.cfi_def_cfa_offset 8
 691              		.cfi_offset 4, -8
 692              		.cfi_offset 14, -4
 286:d:/liteos/code/WIFI2/Hardware/LCD\lcd.c ****     LCD_Address_Set(x, y, x, y);
 693              		.loc 1 286 1 view .LVU165
 694 0002 0B46     		mov	r3, r1
 695 0004 1446     		mov	r4, r2
 696              		.loc 1 287 5 view .LVU166
 697 0006 0246     		mov	r2, r0
 698              	.LVL65:
 699              		.loc 1 287 5 view .LVU167
 700 0008 FFF7FEFF 		bl	LCD_Address_Set
 701              	.LVL66:
 288:d:/liteos/code/WIFI2/Hardware/LCD\lcd.c ****     LCD_Write_HalfWord(color);
 702              		.loc 1 288 5 is_stmt 1 view .LVU168
 703 000c 2046     		mov	r0, r4
 289:d:/liteos/code/WIFI2/Hardware/LCD\lcd.c **** }
 704              		.loc 1 289 1 is_stmt 0 view .LVU169
 705 000e BDE81040 		pop	{r4, lr}
 706              	.LCFI13:
 707              		.cfi_restore 14
 708              		.cfi_restore 4
 709              		.cfi_def_cfa_offset 0
 288:d:/liteos/code/WIFI2/Hardware/LCD\lcd.c ****     LCD_Write_HalfWord(color);
 710              		.loc 1 288 5 view .LVU170
 711 0012 FFF7FEBF 		b	LCD_Write_HalfWord
 712              	.LVL67:
 713              		.cfi_endproc
 714              	.LFE298:
 716              		.section	.text.LCD_DrawLine,"ax",%progbits
 717              		.align	1
 718              		.global	LCD_DrawLine
 719              		.syntax unified
 720              		.thumb
 721              		.thumb_func
 722              		.fpu fpv4-sp-d16
 724              	LCD_DrawLine:
 725              	.LVL68:
 726              	.LFB299:
 290:d:/liteos/code/WIFI2/Hardware/LCD\lcd.c **** 
 291:d:/liteos/code/WIFI2/Hardware/LCD\lcd.c **** 
 292:d:/liteos/code/WIFI2/Hardware/LCD\lcd.c **** 
 293:d:/liteos/code/WIFI2/Hardware/LCD\lcd.c **** /**
 294:d:/liteos/code/WIFI2/Hardware/LCD\lcd.c ****  * @brief	ÁîªÁ∫øÂáΩÊï∞(Áõ¥Á∫ø„ÄÅÊñúÁ∫ø)
 295:d:/liteos/code/WIFI2/Hardware/LCD\lcd.c ****  *
 296:d:/liteos/code/WIFI2/Hardware/LCD\lcd.c ****  * @param   x1,y1	Ëµ∑ÁÇπÂùêÊ†á
 297:d:/liteos/code/WIFI2/Hardware/LCD\lcd.c ****  * @param   x2,y2	ÁªàÁÇπÂùêÊ†á
 298:d:/liteos/code/WIFI2/Hardware/LCD\lcd.c ****  *
ARM GAS  C:\Users\≤‹º“∫¿\AppData\Local\Temp\ccb8bRq8.s 			page 20


 299:d:/liteos/code/WIFI2/Hardware/LCD\lcd.c ****  * @return  void
 300:d:/liteos/code/WIFI2/Hardware/LCD\lcd.c ****  */
 301:d:/liteos/code/WIFI2/Hardware/LCD\lcd.c **** void LCD_DrawLine(uint16_t x1, uint16_t y1, uint16_t x2, uint16_t y2)
 302:d:/liteos/code/WIFI2/Hardware/LCD\lcd.c **** {
 727              		.loc 1 302 1 is_stmt 1 view -0
 728              		.cfi_startproc
 729              		@ args = 0, pretend = 0, frame = 16
 730              		@ frame_needed = 0, uses_anonymous_args = 0
 731              		.loc 1 302 1 is_stmt 0 view .LVU172
 732 0000 2DE9F04F 		push	{r4, r5, r6, r7, r8, r9, r10, fp, lr}
 733              	.LCFI14:
 734              		.cfi_def_cfa_offset 36
 735              		.cfi_offset 4, -36
 736              		.cfi_offset 5, -32
 737              		.cfi_offset 6, -28
 738              		.cfi_offset 7, -24
 739              		.cfi_offset 8, -20
 740              		.cfi_offset 9, -16
 741              		.cfi_offset 10, -12
 742              		.cfi_offset 11, -8
 743              		.cfi_offset 14, -4
 303:d:/liteos/code/WIFI2/Hardware/LCD\lcd.c ****     uint16_t t;
 304:d:/liteos/code/WIFI2/Hardware/LCD\lcd.c ****     int xerr = 0, yerr = 0, delta_x, delta_y, distance;
 305:d:/liteos/code/WIFI2/Hardware/LCD\lcd.c ****     int incx, incy, row, col;
 306:d:/liteos/code/WIFI2/Hardware/LCD\lcd.c ****     uint32_t i = 0;
 307:d:/liteos/code/WIFI2/Hardware/LCD\lcd.c **** 
 308:d:/liteos/code/WIFI2/Hardware/LCD\lcd.c ****     if(y1 == y2)
 744              		.loc 1 308 7 view .LVU173
 745 0004 9942     		cmp	r1, r3
 302:d:/liteos/code/WIFI2/Hardware/LCD\lcd.c ****     uint16_t t;
 746              		.loc 1 302 1 view .LVU174
 747 0006 85B0     		sub	sp, sp, #20
 748              	.LCFI15:
 749              		.cfi_def_cfa_offset 56
 302:d:/liteos/code/WIFI2/Hardware/LCD\lcd.c ****     uint16_t t;
 750              		.loc 1 302 1 view .LVU175
 751 0008 0546     		mov	r5, r0
 752 000a 0E46     		mov	r6, r1
 303:d:/liteos/code/WIFI2/Hardware/LCD\lcd.c ****     uint16_t t;
 753              		.loc 1 303 5 is_stmt 1 view .LVU176
 304:d:/liteos/code/WIFI2/Hardware/LCD\lcd.c ****     int incx, incy, row, col;
 754              		.loc 1 304 5 view .LVU177
 755              	.LVL69:
 305:d:/liteos/code/WIFI2/Hardware/LCD\lcd.c ****     uint32_t i = 0;
 756              		.loc 1 305 5 view .LVU178
 306:d:/liteos/code/WIFI2/Hardware/LCD\lcd.c **** 
 757              		.loc 1 306 5 view .LVU179
 758              		.loc 1 308 5 view .LVU180
 302:d:/liteos/code/WIFI2/Hardware/LCD\lcd.c ****     uint16_t t;
 759              		.loc 1 302 1 is_stmt 0 view .LVU181
 760 000c 1F46     		mov	r7, r3
 761 000e A2EB0004 		sub	r4, r2, r0
 762              		.loc 1 308 7 view .LVU182
 763 0012 1ED1     		bne	.L40
 764              	.LVL70:
 765              	.LBB42:
 766              	.LBI42:
ARM GAS  C:\Users\≤‹º“∫¿\AppData\Local\Temp\ccb8bRq8.s 			page 21


 301:d:/liteos/code/WIFI2/Hardware/LCD\lcd.c **** {
 767              		.loc 1 301 6 is_stmt 1 view .LVU183
 768              	.LBB43:
 309:d:/liteos/code/WIFI2/Hardware/LCD\lcd.c ****     {
 310:d:/liteos/code/WIFI2/Hardware/LCD\lcd.c ****         /*Âø´ÈÄüÁîªÊ∞¥Âπ≥Á∫ø*/
 311:d:/liteos/code/WIFI2/Hardware/LCD\lcd.c ****         LCD_Address_Set(x1, y1, x2, y2);
 769              		.loc 1 311 9 view .LVU184
 770 0014 FFF7FEFF 		bl	LCD_Address_Set
 771              	.LVL71:
 312:d:/liteos/code/WIFI2/Hardware/LCD\lcd.c **** 
 313:d:/liteos/code/WIFI2/Hardware/LCD\lcd.c ****         for(i = 0; i < x2 - x1; i++)
 772              		.loc 1 313 9 view .LVU185
 314:d:/liteos/code/WIFI2/Hardware/LCD\lcd.c ****         {
 315:d:/liteos/code/WIFI2/Hardware/LCD\lcd.c ****             lcd_buf[2 * i] = POINT_COLOR >> 8;
 773              		.loc 1 315 28 is_stmt 0 view .LVU186
 774 0018 2E4B     		ldr	r3, .L53
 775 001a 1B88     		ldrh	r3, [r3]
 776 001c 180A     		lsrs	r0, r3, #8
 316:d:/liteos/code/WIFI2/Hardware/LCD\lcd.c ****             lcd_buf[2 * i + 1] = POINT_COLOR;
 777              		.loc 1 316 32 view .LVU187
 778 001e DAB2     		uxtb	r2, r3
 779 0020 2D4B     		ldr	r3, .L53+4
 313:d:/liteos/code/WIFI2/Hardware/LCD\lcd.c ****         {
 780              		.loc 1 313 15 view .LVU188
 781 0022 0021     		movs	r1, #0
 782              	.LVL72:
 783              	.L41:
 313:d:/liteos/code/WIFI2/Hardware/LCD\lcd.c ****         {
 784              		.loc 1 313 20 is_stmt 1 view .LVU189
 313:d:/liteos/code/WIFI2/Hardware/LCD\lcd.c ****         {
 785              		.loc 1 313 9 is_stmt 0 view .LVU190
 786 0024 8C42     		cmp	r4, r1
 787 0026 03F10203 		add	r3, r3, #2
 788 002a 0CD1     		bne	.L42
 317:d:/liteos/code/WIFI2/Hardware/LCD\lcd.c ****         }
 318:d:/liteos/code/WIFI2/Hardware/LCD\lcd.c **** 
 319:d:/liteos/code/WIFI2/Hardware/LCD\lcd.c ****         LCD_DC(1);
 789              		.loc 1 319 9 is_stmt 1 view .LVU191
 790 002c 2B48     		ldr	r0, .L53+8
 791 002e 0122     		movs	r2, #1
 792 0030 4021     		movs	r1, #64
 793              	.LVL73:
 794              		.loc 1 319 9 is_stmt 0 view .LVU192
 795 0032 FFF7FEFF 		bl	HAL_GPIO_WritePin
 796              	.LVL74:
 320:d:/liteos/code/WIFI2/Hardware/LCD\lcd.c ****         LCD_SPI_Send(lcd_buf, (x2 - x1) * 2);
 797              		.loc 1 320 9 is_stmt 1 view .LVU193
 798              	.LBB44:
 799              	.LBI44:
  82:d:/liteos/code/WIFI2/Hardware/LCD\lcd.c **** {
 800              		.loc 1 82 13 view .LVU194
 801              	.LBB45:
  84:d:/liteos/code/WIFI2/Hardware/LCD\lcd.c **** }
 802              		.loc 1 84 5 view .LVU195
 803              	.LBE45:
 804              	.LBE44:
 805              		.loc 1 320 9 is_stmt 0 view .LVU196
ARM GAS  C:\Users\≤‹º“∫¿\AppData\Local\Temp\ccb8bRq8.s 			page 22


 806 0036 6100     		lsls	r1, r4, #1
 807              	.LBB48:
 808              	.LBB46:
  84:d:/liteos/code/WIFI2/Hardware/LCD\lcd.c **** }
 809              		.loc 1 84 5 view .LVU197
 810 0038 2748     		ldr	r0, .L53+4
 811 003a 89B2     		uxth	r1, r1
 812              	.LBE46:
 813              	.LBE48:
 814              	.LBE43:
 815              	.LBE42:
 321:d:/liteos/code/WIFI2/Hardware/LCD\lcd.c ****         return;
 322:d:/liteos/code/WIFI2/Hardware/LCD\lcd.c ****     }
 323:d:/liteos/code/WIFI2/Hardware/LCD\lcd.c **** 
 324:d:/liteos/code/WIFI2/Hardware/LCD\lcd.c ****     delta_x = x2 - x1;
 325:d:/liteos/code/WIFI2/Hardware/LCD\lcd.c ****     delta_y = y2 - y1;
 326:d:/liteos/code/WIFI2/Hardware/LCD\lcd.c ****     row = x1;
 327:d:/liteos/code/WIFI2/Hardware/LCD\lcd.c ****     col = y1;
 328:d:/liteos/code/WIFI2/Hardware/LCD\lcd.c **** 
 329:d:/liteos/code/WIFI2/Hardware/LCD\lcd.c ****     if(delta_x > 0)incx = 1;
 330:d:/liteos/code/WIFI2/Hardware/LCD\lcd.c **** 
 331:d:/liteos/code/WIFI2/Hardware/LCD\lcd.c ****     else if(delta_x == 0)incx = 0;
 332:d:/liteos/code/WIFI2/Hardware/LCD\lcd.c **** 
 333:d:/liteos/code/WIFI2/Hardware/LCD\lcd.c ****     else
 334:d:/liteos/code/WIFI2/Hardware/LCD\lcd.c ****     {
 335:d:/liteos/code/WIFI2/Hardware/LCD\lcd.c ****         incx = -1;
 336:d:/liteos/code/WIFI2/Hardware/LCD\lcd.c ****         delta_x = -delta_x;
 337:d:/liteos/code/WIFI2/Hardware/LCD\lcd.c ****     }
 338:d:/liteos/code/WIFI2/Hardware/LCD\lcd.c **** 
 339:d:/liteos/code/WIFI2/Hardware/LCD\lcd.c ****     if(delta_y > 0)incy = 1;
 340:d:/liteos/code/WIFI2/Hardware/LCD\lcd.c **** 
 341:d:/liteos/code/WIFI2/Hardware/LCD\lcd.c ****     else if(delta_y == 0)incy = 0;
 342:d:/liteos/code/WIFI2/Hardware/LCD\lcd.c **** 
 343:d:/liteos/code/WIFI2/Hardware/LCD\lcd.c ****     else
 344:d:/liteos/code/WIFI2/Hardware/LCD\lcd.c ****     {
 345:d:/liteos/code/WIFI2/Hardware/LCD\lcd.c ****         incy = -1;
 346:d:/liteos/code/WIFI2/Hardware/LCD\lcd.c ****         delta_y = -delta_y;
 347:d:/liteos/code/WIFI2/Hardware/LCD\lcd.c ****     }
 348:d:/liteos/code/WIFI2/Hardware/LCD\lcd.c **** 
 349:d:/liteos/code/WIFI2/Hardware/LCD\lcd.c ****     if(delta_x > delta_y)distance = delta_x;
 350:d:/liteos/code/WIFI2/Hardware/LCD\lcd.c **** 
 351:d:/liteos/code/WIFI2/Hardware/LCD\lcd.c ****     else distance = delta_y;
 352:d:/liteos/code/WIFI2/Hardware/LCD\lcd.c **** 
 353:d:/liteos/code/WIFI2/Hardware/LCD\lcd.c ****     for(t = 0; t <= distance + 1; t++)
 354:d:/liteos/code/WIFI2/Hardware/LCD\lcd.c ****     {
 355:d:/liteos/code/WIFI2/Hardware/LCD\lcd.c ****         LCD_Draw_Point(row, col);
 356:d:/liteos/code/WIFI2/Hardware/LCD\lcd.c ****         xerr += delta_x ;
 357:d:/liteos/code/WIFI2/Hardware/LCD\lcd.c ****         yerr += delta_y ;
 358:d:/liteos/code/WIFI2/Hardware/LCD\lcd.c **** 
 359:d:/liteos/code/WIFI2/Hardware/LCD\lcd.c ****         if(xerr > distance)
 360:d:/liteos/code/WIFI2/Hardware/LCD\lcd.c ****         {
 361:d:/liteos/code/WIFI2/Hardware/LCD\lcd.c ****             xerr -= distance;
 362:d:/liteos/code/WIFI2/Hardware/LCD\lcd.c ****             row += incx;
 363:d:/liteos/code/WIFI2/Hardware/LCD\lcd.c ****         }
 364:d:/liteos/code/WIFI2/Hardware/LCD\lcd.c **** 
 365:d:/liteos/code/WIFI2/Hardware/LCD\lcd.c ****         if(yerr > distance)
 366:d:/liteos/code/WIFI2/Hardware/LCD\lcd.c ****         {
ARM GAS  C:\Users\≤‹º“∫¿\AppData\Local\Temp\ccb8bRq8.s 			page 23


 367:d:/liteos/code/WIFI2/Hardware/LCD\lcd.c ****             yerr -= distance;
 368:d:/liteos/code/WIFI2/Hardware/LCD\lcd.c ****             col += incy;
 369:d:/liteos/code/WIFI2/Hardware/LCD\lcd.c ****         }
 370:d:/liteos/code/WIFI2/Hardware/LCD\lcd.c ****     }
 371:d:/liteos/code/WIFI2/Hardware/LCD\lcd.c **** }
 816              		.loc 1 371 1 view .LVU198
 817 003c 05B0     		add	sp, sp, #20
 818              	.LCFI16:
 819              		.cfi_remember_state
 820              		.cfi_def_cfa_offset 36
 821              		@ sp needed
 822 003e BDE8F04F 		pop	{r4, r5, r6, r7, r8, r9, r10, fp, lr}
 823              	.LCFI17:
 824              		.cfi_restore 14
 825              		.cfi_restore 11
 826              		.cfi_restore 10
 827              		.cfi_restore 9
 828              		.cfi_restore 8
 829              		.cfi_restore 7
 830              		.cfi_restore 6
 831              		.cfi_restore 5
 832              		.cfi_restore 4
 833              		.cfi_def_cfa_offset 0
 834              	.LVL75:
 835              	.LBB51:
 836              	.LBB50:
 837              	.LBB49:
 838              	.LBB47:
  84:d:/liteos/code/WIFI2/Hardware/LCD\lcd.c **** }
 839              		.loc 1 84 5 view .LVU199
 840 0042 FFF7FEBF 		b	SPI2_WriteByte
 841              	.LVL76:
 842              	.L42:
 843              	.LCFI18:
 844              		.cfi_restore_state
  84:d:/liteos/code/WIFI2/Hardware/LCD\lcd.c **** }
 845              		.loc 1 84 5 view .LVU200
 846              	.LBE47:
 847              	.LBE49:
 315:d:/liteos/code/WIFI2/Hardware/LCD\lcd.c ****             lcd_buf[2 * i + 1] = POINT_COLOR;
 848              		.loc 1 315 13 is_stmt 1 view .LVU201
 315:d:/liteos/code/WIFI2/Hardware/LCD\lcd.c ****             lcd_buf[2 * i + 1] = POINT_COLOR;
 849              		.loc 1 315 28 is_stmt 0 view .LVU202
 850 0046 03F8020C 		strb	r0, [r3, #-2]
 316:d:/liteos/code/WIFI2/Hardware/LCD\lcd.c ****         }
 851              		.loc 1 316 13 is_stmt 1 view .LVU203
 316:d:/liteos/code/WIFI2/Hardware/LCD\lcd.c ****         }
 852              		.loc 1 316 32 is_stmt 0 view .LVU204
 853 004a 03F8012C 		strb	r2, [r3, #-1]
 313:d:/liteos/code/WIFI2/Hardware/LCD\lcd.c ****         {
 854              		.loc 1 313 33 is_stmt 1 view .LVU205
 313:d:/liteos/code/WIFI2/Hardware/LCD\lcd.c ****         {
 855              		.loc 1 313 34 is_stmt 0 view .LVU206
 856 004e 0131     		adds	r1, r1, #1
 857              	.LVL77:
 313:d:/liteos/code/WIFI2/Hardware/LCD\lcd.c ****         {
 858              		.loc 1 313 34 view .LVU207
ARM GAS  C:\Users\≤‹º“∫¿\AppData\Local\Temp\ccb8bRq8.s 			page 24


 859 0050 E8E7     		b	.L41
 860              	.LVL78:
 861              	.L40:
 313:d:/liteos/code/WIFI2/Hardware/LCD\lcd.c ****         {
 862              		.loc 1 313 34 view .LVU208
 863              	.LBE50:
 864              	.LBE51:
 324:d:/liteos/code/WIFI2/Hardware/LCD\lcd.c ****     delta_y = y2 - y1;
 865              		.loc 1 324 5 is_stmt 1 view .LVU209
 325:d:/liteos/code/WIFI2/Hardware/LCD\lcd.c ****     row = x1;
 866              		.loc 1 325 5 view .LVU210
 329:d:/liteos/code/WIFI2/Hardware/LCD\lcd.c **** 
 867              		.loc 1 329 7 is_stmt 0 view .LVU211
 868 0052 002C     		cmp	r4, #0
 325:d:/liteos/code/WIFI2/Hardware/LCD\lcd.c ****     row = x1;
 869              		.loc 1 325 18 view .LVU212
 870 0054 0B46     		mov	r3, r1
 871              	.LVL79:
 325:d:/liteos/code/WIFI2/Hardware/LCD\lcd.c ****     row = x1;
 872              		.loc 1 325 13 view .LVU213
 873 0056 A7EB0109 		sub	r9, r7, r1
 874              	.LVL80:
 326:d:/liteos/code/WIFI2/Hardware/LCD\lcd.c ****     col = y1;
 875              		.loc 1 326 5 is_stmt 1 view .LVU214
 327:d:/liteos/code/WIFI2/Hardware/LCD\lcd.c **** 
 876              		.loc 1 327 5 view .LVU215
 329:d:/liteos/code/WIFI2/Hardware/LCD\lcd.c **** 
 877              		.loc 1 329 5 view .LVU216
 329:d:/liteos/code/WIFI2/Hardware/LCD\lcd.c **** 
 878              		.loc 1 329 7 is_stmt 0 view .LVU217
 879 005a 1CDC     		bgt	.L49
 331:d:/liteos/code/WIFI2/Hardware/LCD\lcd.c **** 
 880              		.loc 1 331 10 is_stmt 1 view .LVU218
 331:d:/liteos/code/WIFI2/Hardware/LCD\lcd.c **** 
 881              		.loc 1 331 12 is_stmt 0 view .LVU219
 882 005c 1DD0     		beq	.L50
 335:d:/liteos/code/WIFI2/Hardware/LCD\lcd.c ****         delta_x = -delta_x;
 883              		.loc 1 335 9 is_stmt 1 view .LVU220
 884              	.LVL81:
 336:d:/liteos/code/WIFI2/Hardware/LCD\lcd.c ****     }
 885              		.loc 1 336 9 view .LVU221
 336:d:/liteos/code/WIFI2/Hardware/LCD\lcd.c ****     }
 886              		.loc 1 336 17 is_stmt 0 view .LVU222
 887 005e 841A     		subs	r4, r0, r2
 888              	.LVL82:
 335:d:/liteos/code/WIFI2/Hardware/LCD\lcd.c ****         delta_x = -delta_x;
 889              		.loc 1 335 14 view .LVU223
 890 0060 4FF0FF32 		mov	r2, #-1
 891              	.LVL83:
 892              	.L43:
 339:d:/liteos/code/WIFI2/Hardware/LCD\lcd.c **** 
 893              		.loc 1 339 5 is_stmt 1 view .LVU224
 339:d:/liteos/code/WIFI2/Hardware/LCD\lcd.c **** 
 894              		.loc 1 339 7 is_stmt 0 view .LVU225
 895 0064 B9F1000F 		cmp	r9, #0
 896 0068 19DC     		bgt	.L51
 341:d:/liteos/code/WIFI2/Hardware/LCD\lcd.c **** 
ARM GAS  C:\Users\≤‹º“∫¿\AppData\Local\Temp\ccb8bRq8.s 			page 25


 897              		.loc 1 341 10 is_stmt 1 view .LVU226
 341:d:/liteos/code/WIFI2/Hardware/LCD\lcd.c **** 
 898              		.loc 1 341 12 is_stmt 0 view .LVU227
 899 006a 1BD0     		beq	.L52
 345:d:/liteos/code/WIFI2/Hardware/LCD\lcd.c ****         delta_y = -delta_y;
 900              		.loc 1 345 9 is_stmt 1 view .LVU228
 901              	.LVL84:
 346:d:/liteos/code/WIFI2/Hardware/LCD\lcd.c ****     }
 902              		.loc 1 346 9 view .LVU229
 346:d:/liteos/code/WIFI2/Hardware/LCD\lcd.c ****     }
 903              		.loc 1 346 17 is_stmt 0 view .LVU230
 904 006c A6EB0709 		sub	r9, r6, r7
 905              	.LVL85:
 345:d:/liteos/code/WIFI2/Hardware/LCD\lcd.c ****         delta_y = -delta_y;
 906              		.loc 1 345 14 view .LVU231
 907 0070 4FF0FF3B 		mov	fp, #-1
 908              	.LVL86:
 909              	.L44:
 349:d:/liteos/code/WIFI2/Hardware/LCD\lcd.c **** 
 910              		.loc 1 349 5 is_stmt 1 view .LVU232
 911 0074 4C45     		cmp	r4, r9
 912 0076 A246     		mov	r10, r4
 913 0078 B8BF     		it	lt
 914 007a CA46     		movlt	r10, r9
 915              	.LVL87:
 353:d:/liteos/code/WIFI2/Hardware/LCD\lcd.c ****     {
 916              		.loc 1 353 5 view .LVU233
 353:d:/liteos/code/WIFI2/Hardware/LCD\lcd.c ****     {
 917              		.loc 1 353 5 is_stmt 0 view .LVU234
 918 007c 0026     		movs	r6, #0
 353:d:/liteos/code/WIFI2/Hardware/LCD\lcd.c ****     {
 919              		.loc 1 353 30 view .LVU235
 920 007e 0AF10101 		add	r1, r10, #1
 921              	.LVL88:
 304:d:/liteos/code/WIFI2/Hardware/LCD\lcd.c ****     int incx, incy, row, col;
 922              		.loc 1 304 19 view .LVU236
 923 0082 B046     		mov	r8, r6
 304:d:/liteos/code/WIFI2/Hardware/LCD\lcd.c ****     int incx, incy, row, col;
 924              		.loc 1 304 9 view .LVU237
 925 0084 3746     		mov	r7, r6
 353:d:/liteos/code/WIFI2/Hardware/LCD\lcd.c ****     {
 926              		.loc 1 353 30 view .LVU238
 927 0086 0191     		str	r1, [sp, #4]
 928              	.LVL89:
 929              	.L45:
 353:d:/liteos/code/WIFI2/Hardware/LCD\lcd.c ****     {
 930              		.loc 1 353 16 is_stmt 1 discriminator 1 view .LVU239
 353:d:/liteos/code/WIFI2/Hardware/LCD\lcd.c ****     {
 931              		.loc 1 353 5 is_stmt 0 discriminator 1 view .LVU240
 932 0088 0198     		ldr	r0, [sp, #4]
 353:d:/liteos/code/WIFI2/Hardware/LCD\lcd.c ****     {
 933              		.loc 1 353 18 discriminator 1 view .LVU241
 934 008a B1B2     		uxth	r1, r6
 353:d:/liteos/code/WIFI2/Hardware/LCD\lcd.c ****     {
 935              		.loc 1 353 5 discriminator 1 view .LVU242
 936 008c 8142     		cmp	r1, r0
 937 008e 0BDD     		ble	.L48
ARM GAS  C:\Users\≤‹º“∫¿\AppData\Local\Temp\ccb8bRq8.s 			page 26


 938              		.loc 1 371 1 view .LVU243
 939 0090 05B0     		add	sp, sp, #20
 940              	.LCFI19:
 941              		.cfi_remember_state
 942              		.cfi_def_cfa_offset 36
 943              		@ sp needed
 944 0092 BDE8F08F 		pop	{r4, r5, r6, r7, r8, r9, r10, fp, pc}
 945              	.LVL90:
 946              	.L49:
 947              	.LCFI20:
 948              		.cfi_restore_state
 329:d:/liteos/code/WIFI2/Hardware/LCD\lcd.c **** 
 949              		.loc 1 329 25 view .LVU244
 950 0096 0122     		movs	r2, #1
 951              	.LVL91:
 329:d:/liteos/code/WIFI2/Hardware/LCD\lcd.c **** 
 952              		.loc 1 329 25 view .LVU245
 953 0098 E4E7     		b	.L43
 954              	.LVL92:
 955              	.L50:
 331:d:/liteos/code/WIFI2/Hardware/LCD\lcd.c **** 
 956              		.loc 1 331 31 view .LVU246
 957 009a 2246     		mov	r2, r4
 958              	.LVL93:
 331:d:/liteos/code/WIFI2/Hardware/LCD\lcd.c **** 
 959              		.loc 1 331 31 view .LVU247
 960 009c E2E7     		b	.L43
 961              	.LVL94:
 962              	.L51:
 339:d:/liteos/code/WIFI2/Hardware/LCD\lcd.c **** 
 963              		.loc 1 339 25 view .LVU248
 964 009e 4FF0010B 		mov	fp, #1
 965 00a2 E7E7     		b	.L44
 966              	.L52:
 341:d:/liteos/code/WIFI2/Hardware/LCD\lcd.c **** 
 967              		.loc 1 341 31 view .LVU249
 968 00a4 CB46     		mov	fp, r9
 969 00a6 E5E7     		b	.L44
 970              	.LVL95:
 971              	.L48:
 355:d:/liteos/code/WIFI2/Hardware/LCD\lcd.c ****         xerr += delta_x ;
 972              		.loc 1 355 9 view .LVU250
 973 00a8 99B2     		uxth	r1, r3
 974 00aa A8B2     		uxth	r0, r5
 975 00ac 0392     		str	r2, [sp, #12]
 355:d:/liteos/code/WIFI2/Hardware/LCD\lcd.c ****         xerr += delta_x ;
 976              		.loc 1 355 9 is_stmt 1 view .LVU251
 977 00ae 0293     		str	r3, [sp, #8]
 978 00b0 FFF7FEFF 		bl	LCD_Draw_Point
 979              	.LVL96:
 356:d:/liteos/code/WIFI2/Hardware/LCD\lcd.c ****         yerr += delta_y ;
 980              		.loc 1 356 9 view .LVU252
 359:d:/liteos/code/WIFI2/Hardware/LCD\lcd.c ****         {
 981              		.loc 1 359 11 is_stmt 0 view .LVU253
 982 00b4 DDE90232 		ldrd	r3, r2, [sp, #8]
 356:d:/liteos/code/WIFI2/Hardware/LCD\lcd.c ****         yerr += delta_y ;
 983              		.loc 1 356 14 view .LVU254
ARM GAS  C:\Users\≤‹º“∫¿\AppData\Local\Temp\ccb8bRq8.s 			page 27


 984 00b8 2744     		add	r7, r7, r4
 985              	.LVL97:
 357:d:/liteos/code/WIFI2/Hardware/LCD\lcd.c **** 
 986              		.loc 1 357 9 is_stmt 1 view .LVU255
 359:d:/liteos/code/WIFI2/Hardware/LCD\lcd.c ****         {
 987              		.loc 1 359 11 is_stmt 0 view .LVU256
 988 00ba BA45     		cmp	r10, r7
 357:d:/liteos/code/WIFI2/Hardware/LCD\lcd.c **** 
 989              		.loc 1 357 14 view .LVU257
 990 00bc C844     		add	r8, r8, r9
 991              	.LVL98:
 359:d:/liteos/code/WIFI2/Hardware/LCD\lcd.c ****         {
 992              		.loc 1 359 9 is_stmt 1 view .LVU258
 361:d:/liteos/code/WIFI2/Hardware/LCD\lcd.c ****             row += incx;
 993              		.loc 1 361 13 view .LVU259
 361:d:/liteos/code/WIFI2/Hardware/LCD\lcd.c ****             row += incx;
 994              		.loc 1 361 18 is_stmt 0 view .LVU260
 995 00be BCBF     		itt	lt
 996 00c0 A7EB0A07 		sublt	r7, r7, r10
 997              	.LVL99:
 362:d:/liteos/code/WIFI2/Hardware/LCD\lcd.c ****         }
 998              		.loc 1 362 13 is_stmt 1 view .LVU261
 362:d:/liteos/code/WIFI2/Hardware/LCD\lcd.c ****         }
 999              		.loc 1 362 17 is_stmt 0 view .LVU262
 1000 00c4 AD18     		addlt	r5, r5, r2
 1001              	.LVL100:
 365:d:/liteos/code/WIFI2/Hardware/LCD\lcd.c ****         {
 1002              		.loc 1 365 9 is_stmt 1 view .LVU263
 365:d:/liteos/code/WIFI2/Hardware/LCD\lcd.c ****         {
 1003              		.loc 1 365 11 is_stmt 0 view .LVU264
 1004 00c6 C245     		cmp	r10, r8
 367:d:/liteos/code/WIFI2/Hardware/LCD\lcd.c ****             col += incy;
 1005              		.loc 1 367 13 is_stmt 1 view .LVU265
 367:d:/liteos/code/WIFI2/Hardware/LCD\lcd.c ****             col += incy;
 1006              		.loc 1 367 18 is_stmt 0 view .LVU266
 1007 00c8 BCBF     		itt	lt
 1008 00ca A8EB0A08 		sublt	r8, r8, r10
 1009              	.LVL101:
 368:d:/liteos/code/WIFI2/Hardware/LCD\lcd.c ****         }
 1010              		.loc 1 368 13 is_stmt 1 view .LVU267
 368:d:/liteos/code/WIFI2/Hardware/LCD\lcd.c ****         }
 1011              		.loc 1 368 17 is_stmt 0 view .LVU268
 1012 00ce 5B44     		addlt	r3, r3, fp
 1013              	.LVL102:
 353:d:/liteos/code/WIFI2/Hardware/LCD\lcd.c ****     {
 1014              		.loc 1 353 35 is_stmt 1 view .LVU269
 353:d:/liteos/code/WIFI2/Hardware/LCD\lcd.c ****     {
 1015              		.loc 1 353 35 is_stmt 0 view .LVU270
 1016 00d0 0136     		adds	r6, r6, #1
 1017              	.LVL103:
 353:d:/liteos/code/WIFI2/Hardware/LCD\lcd.c ****     {
 1018              		.loc 1 353 35 view .LVU271
 1019 00d2 D9E7     		b	.L45
 1020              	.L54:
 1021              		.align	2
 1022              	.L53:
 1023 00d4 00000000 		.word	.LANCHOR1
ARM GAS  C:\Users\≤‹º“∫¿\AppData\Local\Temp\ccb8bRq8.s 			page 28


 1024 00d8 00000000 		.word	.LANCHOR0
 1025 00dc 00080048 		.word	1207961600
 1026              		.cfi_endproc
 1027              	.LFE299:
 1029              		.section	.text.LCD_DrawRectangle,"ax",%progbits
 1030              		.align	1
 1031              		.global	LCD_DrawRectangle
 1032              		.syntax unified
 1033              		.thumb
 1034              		.thumb_func
 1035              		.fpu fpv4-sp-d16
 1037              	LCD_DrawRectangle:
 1038              	.LVL104:
 1039              	.LFB300:
 372:d:/liteos/code/WIFI2/Hardware/LCD\lcd.c **** 
 373:d:/liteos/code/WIFI2/Hardware/LCD\lcd.c **** /**
 374:d:/liteos/code/WIFI2/Hardware/LCD\lcd.c ****  * @brief	Áîª‰∏Ä‰∏™Áü©ÂΩ¢
 375:d:/liteos/code/WIFI2/Hardware/LCD\lcd.c ****  *
 376:d:/liteos/code/WIFI2/Hardware/LCD\lcd.c ****  * @param   x1,y1	Ëµ∑ÁÇπÂùêÊ†á
 377:d:/liteos/code/WIFI2/Hardware/LCD\lcd.c ****  * @param   x2,y2	ÁªàÁÇπÂùêÊ†á
 378:d:/liteos/code/WIFI2/Hardware/LCD\lcd.c ****  *
 379:d:/liteos/code/WIFI2/Hardware/LCD\lcd.c ****  * @return  void
 380:d:/liteos/code/WIFI2/Hardware/LCD\lcd.c ****  */
 381:d:/liteos/code/WIFI2/Hardware/LCD\lcd.c **** void LCD_DrawRectangle(uint16_t x1, uint16_t y1, uint16_t x2, uint16_t y2)
 382:d:/liteos/code/WIFI2/Hardware/LCD\lcd.c **** {
 1040              		.loc 1 382 1 is_stmt 1 view -0
 1041              		.cfi_startproc
 1042              		@ args = 0, pretend = 0, frame = 0
 1043              		@ frame_needed = 0, uses_anonymous_args = 0
 383:d:/liteos/code/WIFI2/Hardware/LCD\lcd.c ****     LCD_DrawLine(x1, y1, x2, y1);
 1044              		.loc 1 383 5 view .LVU273
 382:d:/liteos/code/WIFI2/Hardware/LCD\lcd.c ****     LCD_DrawLine(x1, y1, x2, y1);
 1045              		.loc 1 382 1 is_stmt 0 view .LVU274
 1046 0000 2DE9F041 		push	{r4, r5, r6, r7, r8, lr}
 1047              	.LCFI21:
 1048              		.cfi_def_cfa_offset 24
 1049              		.cfi_offset 4, -24
 1050              		.cfi_offset 5, -20
 1051              		.cfi_offset 6, -16
 1052              		.cfi_offset 7, -12
 1053              		.cfi_offset 8, -8
 1054              		.cfi_offset 14, -4
 382:d:/liteos/code/WIFI2/Hardware/LCD\lcd.c ****     LCD_DrawLine(x1, y1, x2, y1);
 1055              		.loc 1 382 1 view .LVU275
 1056 0004 1C46     		mov	r4, r3
 1057 0006 0646     		mov	r6, r0
 1058 0008 0D46     		mov	r5, r1
 1059              		.loc 1 383 5 view .LVU276
 1060 000a 0B46     		mov	r3, r1
 1061              	.LVL105:
 382:d:/liteos/code/WIFI2/Hardware/LCD\lcd.c ****     LCD_DrawLine(x1, y1, x2, y1);
 1062              		.loc 1 382 1 view .LVU277
 1063 000c 1746     		mov	r7, r2
 1064              		.loc 1 383 5 view .LVU278
 1065 000e FFF7FEFF 		bl	LCD_DrawLine
 1066              	.LVL106:
 384:d:/liteos/code/WIFI2/Hardware/LCD\lcd.c ****     LCD_DrawLine(x1, y1, x1, y2);
ARM GAS  C:\Users\≤‹º“∫¿\AppData\Local\Temp\ccb8bRq8.s 			page 29


 1067              		.loc 1 384 5 is_stmt 1 view .LVU279
 1068 0012 2346     		mov	r3, r4
 1069 0014 3246     		mov	r2, r6
 1070 0016 2946     		mov	r1, r5
 1071 0018 3046     		mov	r0, r6
 1072 001a FFF7FEFF 		bl	LCD_DrawLine
 1073              	.LVL107:
 385:d:/liteos/code/WIFI2/Hardware/LCD\lcd.c ****     LCD_DrawLine(x1, y2, x2, y2);
 1074              		.loc 1 385 5 view .LVU280
 1075 001e 2346     		mov	r3, r4
 1076 0020 3A46     		mov	r2, r7
 1077 0022 2146     		mov	r1, r4
 1078 0024 3046     		mov	r0, r6
 1079 0026 FFF7FEFF 		bl	LCD_DrawLine
 1080              	.LVL108:
 386:d:/liteos/code/WIFI2/Hardware/LCD\lcd.c ****     LCD_DrawLine(x2, y1, x2, y2);
 1081              		.loc 1 386 5 view .LVU281
 1082 002a 2346     		mov	r3, r4
 1083 002c 3A46     		mov	r2, r7
 1084 002e 2946     		mov	r1, r5
 1085 0030 3846     		mov	r0, r7
 387:d:/liteos/code/WIFI2/Hardware/LCD\lcd.c **** }
 1086              		.loc 1 387 1 is_stmt 0 view .LVU282
 1087 0032 BDE8F041 		pop	{r4, r5, r6, r7, r8, lr}
 1088              	.LCFI22:
 1089              		.cfi_restore 14
 1090              		.cfi_restore 8
 1091              		.cfi_restore 7
 1092              		.cfi_restore 6
 1093              		.cfi_restore 5
 1094              		.cfi_restore 4
 1095              		.cfi_def_cfa_offset 0
 386:d:/liteos/code/WIFI2/Hardware/LCD\lcd.c ****     LCD_DrawLine(x2, y1, x2, y2);
 1096              		.loc 1 386 5 view .LVU283
 1097 0036 FFF7FEBF 		b	LCD_DrawLine
 1098              	.LVL109:
 1099              		.cfi_endproc
 1100              	.LFE300:
 1102              		.section	.text.LCD_Draw_Circle,"ax",%progbits
 1103              		.align	1
 1104              		.global	LCD_Draw_Circle
 1105              		.syntax unified
 1106              		.thumb
 1107              		.thumb_func
 1108              		.fpu fpv4-sp-d16
 1110              	LCD_Draw_Circle:
 1111              	.LVL110:
 1112              	.LFB301:
 388:d:/liteos/code/WIFI2/Hardware/LCD\lcd.c **** 
 389:d:/liteos/code/WIFI2/Hardware/LCD\lcd.c **** /**
 390:d:/liteos/code/WIFI2/Hardware/LCD\lcd.c ****  * @brief	Áîª‰∏Ä‰∏™ÂúÜ
 391:d:/liteos/code/WIFI2/Hardware/LCD\lcd.c ****  *
 392:d:/liteos/code/WIFI2/Hardware/LCD\lcd.c ****  * @param   x0,y0	ÂúÜÂøÉÂùêÊ†á
 393:d:/liteos/code/WIFI2/Hardware/LCD\lcd.c ****  * @param   r       ÂúÜÂçäÂæÑ
 394:d:/liteos/code/WIFI2/Hardware/LCD\lcd.c ****  *
 395:d:/liteos/code/WIFI2/Hardware/LCD\lcd.c ****  * @return  void
 396:d:/liteos/code/WIFI2/Hardware/LCD\lcd.c ****  */
ARM GAS  C:\Users\≤‹º“∫¿\AppData\Local\Temp\ccb8bRq8.s 			page 30


 397:d:/liteos/code/WIFI2/Hardware/LCD\lcd.c **** void LCD_Draw_Circle(uint16_t x0, uint16_t y0, uint8_t r)
 398:d:/liteos/code/WIFI2/Hardware/LCD\lcd.c **** {
 1113              		.loc 1 398 1 is_stmt 1 view -0
 1114              		.cfi_startproc
 1115              		@ args = 0, pretend = 0, frame = 16
 1116              		@ frame_needed = 0, uses_anonymous_args = 0
 399:d:/liteos/code/WIFI2/Hardware/LCD\lcd.c ****     int a, b;
 1117              		.loc 1 399 5 view .LVU285
 400:d:/liteos/code/WIFI2/Hardware/LCD\lcd.c ****     int di;
 1118              		.loc 1 400 5 view .LVU286
 401:d:/liteos/code/WIFI2/Hardware/LCD\lcd.c ****     a = 0;
 1119              		.loc 1 401 5 view .LVU287
 402:d:/liteos/code/WIFI2/Hardware/LCD\lcd.c ****     b = r;
 1120              		.loc 1 402 5 view .LVU288
 403:d:/liteos/code/WIFI2/Hardware/LCD\lcd.c ****     di = 3 - (r << 1);
 1121              		.loc 1 403 5 view .LVU289
 398:d:/liteos/code/WIFI2/Hardware/LCD\lcd.c ****     int a, b;
 1122              		.loc 1 398 1 is_stmt 0 view .LVU290
 1123 0000 2DE9F04F 		push	{r4, r5, r6, r7, r8, r9, r10, fp, lr}
 1124              	.LCFI23:
 1125              		.cfi_def_cfa_offset 36
 1126              		.cfi_offset 4, -36
 1127              		.cfi_offset 5, -32
 1128              		.cfi_offset 6, -28
 1129              		.cfi_offset 7, -24
 1130              		.cfi_offset 8, -20
 1131              		.cfi_offset 9, -16
 1132              		.cfi_offset 10, -12
 1133              		.cfi_offset 11, -8
 1134              		.cfi_offset 14, -4
 1135              		.loc 1 403 17 view .LVU291
 1136 0004 5500     		lsls	r5, r2, #1
 398:d:/liteos/code/WIFI2/Hardware/LCD\lcd.c ****     int a, b;
 1137              		.loc 1 398 1 view .LVU292
 1138 0006 85B0     		sub	sp, sp, #20
 1139              	.LCFI24:
 1140              		.cfi_def_cfa_offset 56
 398:d:/liteos/code/WIFI2/Hardware/LCD\lcd.c ****     int a, b;
 1141              		.loc 1 398 1 view .LVU293
 1142 0008 0746     		mov	r7, r0
 1143 000a 8846     		mov	r8, r1
 1144 000c 1446     		mov	r4, r2
 1145              		.loc 1 403 8 view .LVU294
 1146 000e C5F10305 		rsb	r5, r5, #3
 1147              	.LVL111:
 404:d:/liteos/code/WIFI2/Hardware/LCD\lcd.c **** 
 405:d:/liteos/code/WIFI2/Hardware/LCD\lcd.c ****     while(a <= b)
 1148              		.loc 1 405 5 is_stmt 1 view .LVU295
 1149              		.loc 1 405 10 view .LVU296
 401:d:/liteos/code/WIFI2/Hardware/LCD\lcd.c ****     b = r;
 1150              		.loc 1 401 7 is_stmt 0 view .LVU297
 1151 0012 0026     		movs	r6, #0
 1152              	.LVL112:
 1153              	.L59:
 406:d:/liteos/code/WIFI2/Hardware/LCD\lcd.c ****     {
 407:d:/liteos/code/WIFI2/Hardware/LCD\lcd.c ****         LCD_Draw_Point(x0 - b, y0 - a);
 1154              		.loc 1 407 9 is_stmt 1 view .LVU298
ARM GAS  C:\Users\≤‹º“∫¿\AppData\Local\Temp\ccb8bRq8.s 			page 31


 1155 0014 A3B2     		uxth	r3, r4
 1156 0016 0093     		str	r3, [sp]
 1157 0018 A7EB0309 		sub	r9, r7, r3
 1158 001c B3B2     		uxth	r3, r6
 1159 001e A8EB030A 		sub	r10, r8, r3
 1160 0022 1FFA8AFA 		uxth	r10, r10
 1161 0026 1FFA89F9 		uxth	r9, r9
 1162 002a 5146     		mov	r1, r10
 1163 002c 4846     		mov	r0, r9
 1164 002e 0193     		str	r3, [sp, #4]
 1165 0030 FFF7FEFF 		bl	LCD_Draw_Point
 1166              	.LVL113:
 408:d:/liteos/code/WIFI2/Hardware/LCD\lcd.c ****         LCD_Draw_Point(x0 + b, y0 - a);
 1167              		.loc 1 408 9 view .LVU299
 1168 0034 009B     		ldr	r3, [sp]
 1169 0036 3B44     		add	r3, r3, r7
 1170 0038 9BB2     		uxth	r3, r3
 1171 003a 5146     		mov	r1, r10
 1172 003c 1846     		mov	r0, r3
 1173 003e 0393     		str	r3, [sp, #12]
 1174 0040 FFF7FEFF 		bl	LCD_Draw_Point
 1175              	.LVL114:
 409:d:/liteos/code/WIFI2/Hardware/LCD\lcd.c ****         LCD_Draw_Point(x0 - a, y0 + b);
 1176              		.loc 1 409 9 view .LVU300
 1177 0044 019B     		ldr	r3, [sp, #4]
 1178 0046 FA1A     		subs	r2, r7, r3
 1179 0048 009B     		ldr	r3, [sp]
 1180 004a 03EB080B 		add	fp, r3, r8
 1181 004e 92B2     		uxth	r2, r2
 1182 0050 1FFA8BFB 		uxth	fp, fp
 1183 0054 1046     		mov	r0, r2
 1184 0056 5946     		mov	r1, fp
 1185 0058 0292     		str	r2, [sp, #8]
 1186 005a FFF7FEFF 		bl	LCD_Draw_Point
 1187              	.LVL115:
 410:d:/liteos/code/WIFI2/Hardware/LCD\lcd.c ****         LCD_Draw_Point(x0 - b, y0 - a);
 1188              		.loc 1 410 9 view .LVU301
 1189 005e 5146     		mov	r1, r10
 1190 0060 4846     		mov	r0, r9
 1191 0062 FFF7FEFF 		bl	LCD_Draw_Point
 1192              	.LVL116:
 411:d:/liteos/code/WIFI2/Hardware/LCD\lcd.c ****         LCD_Draw_Point(x0 - a, y0 - b);
 1193              		.loc 1 411 9 view .LVU302
 1194 0066 009B     		ldr	r3, [sp]
 1195 0068 029A     		ldr	r2, [sp, #8]
 1196 006a A8EB030A 		sub	r10, r8, r3
 1197 006e 1FFA8AFA 		uxth	r10, r10
 1198 0072 1046     		mov	r0, r2
 1199 0074 5146     		mov	r1, r10
 1200 0076 FFF7FEFF 		bl	LCD_Draw_Point
 1201              	.LVL117:
 412:d:/liteos/code/WIFI2/Hardware/LCD\lcd.c ****         LCD_Draw_Point(x0 + b, y0 + a);
 1202              		.loc 1 412 9 view .LVU303
 1203 007a 019B     		ldr	r3, [sp, #4]
 1204 007c 03EB0802 		add	r2, r3, r8
 1205 0080 039B     		ldr	r3, [sp, #12]
 1206 0082 92B2     		uxth	r2, r2
ARM GAS  C:\Users\≤‹º“∫¿\AppData\Local\Temp\ccb8bRq8.s 			page 32


 1207 0084 1146     		mov	r1, r2
 1208 0086 1846     		mov	r0, r3
 1209 0088 0292     		str	r2, [sp, #8]
 1210 008a FFF7FEFF 		bl	LCD_Draw_Point
 1211              	.LVL118:
 413:d:/liteos/code/WIFI2/Hardware/LCD\lcd.c ****         LCD_Draw_Point(x0 + a, y0 - b);
 1212              		.loc 1 413 9 view .LVU304
 1213 008e 019B     		ldr	r3, [sp, #4]
 1214 0090 D819     		adds	r0, r3, r7
 1215 0092 80B2     		uxth	r0, r0
 1216 0094 5146     		mov	r1, r10
 1217 0096 0090     		str	r0, [sp]
 1218 0098 FFF7FEFF 		bl	LCD_Draw_Point
 1219              	.LVL119:
 414:d:/liteos/code/WIFI2/Hardware/LCD\lcd.c ****         LCD_Draw_Point(x0 + a, y0 + b);
 1220              		.loc 1 414 9 view .LVU305
 1221 009c 0098     		ldr	r0, [sp]
 1222 009e 5946     		mov	r1, fp
 1223 00a0 FFF7FEFF 		bl	LCD_Draw_Point
 1224              	.LVL120:
 415:d:/liteos/code/WIFI2/Hardware/LCD\lcd.c ****         LCD_Draw_Point(x0 - b, y0 + a);
 1225              		.loc 1 415 9 view .LVU306
 1226 00a4 029A     		ldr	r2, [sp, #8]
 1227 00a6 4846     		mov	r0, r9
 1228 00a8 1146     		mov	r1, r2
 1229 00aa FFF7FEFF 		bl	LCD_Draw_Point
 1230              	.LVL121:
 416:d:/liteos/code/WIFI2/Hardware/LCD\lcd.c ****         a++;
 1231              		.loc 1 416 9 view .LVU307
 1232              		.loc 1 416 10 is_stmt 0 view .LVU308
 1233 00ae 0136     		adds	r6, r6, #1
 1234              	.LVL122:
 417:d:/liteos/code/WIFI2/Hardware/LCD\lcd.c **** 
 418:d:/liteos/code/WIFI2/Hardware/LCD\lcd.c ****         //Bresenham
 419:d:/liteos/code/WIFI2/Hardware/LCD\lcd.c ****         if(di < 0)di += 4 * a + 6;
 1235              		.loc 1 419 9 is_stmt 1 view .LVU309
 1236              		.loc 1 419 11 is_stmt 0 view .LVU310
 1237 00b0 002D     		cmp	r5, #0
 1238              		.loc 1 419 19 is_stmt 1 view .LVU311
 420:d:/liteos/code/WIFI2/Hardware/LCD\lcd.c **** 
 421:d:/liteos/code/WIFI2/Hardware/LCD\lcd.c ****         else
 422:d:/liteos/code/WIFI2/Hardware/LCD\lcd.c ****         {
 423:d:/liteos/code/WIFI2/Hardware/LCD\lcd.c ****             di += 10 + 4 * (a - b);
 1239              		.loc 1 423 31 is_stmt 0 view .LVU312
 1240 00b2 A4BF     		itt	ge
 1241 00b4 331B     		subge	r3, r6, r4
 424:d:/liteos/code/WIFI2/Hardware/LCD\lcd.c ****             b--;
 1242              		.loc 1 424 14 view .LVU313
 1243 00b6 04F1FF34 		addge	r4, r4, #-1
 1244              	.LVL123:
 425:d:/liteos/code/WIFI2/Hardware/LCD\lcd.c ****         }
 426:d:/liteos/code/WIFI2/Hardware/LCD\lcd.c **** 
 427:d:/liteos/code/WIFI2/Hardware/LCD\lcd.c ****         LCD_Draw_Point(x0 + a, y0 + b);
 1245              		.loc 1 427 9 view .LVU314
 1246 00ba 08EB0401 		add	r1, r8, r4
 1247 00be 07EB0600 		add	r0, r7, r6
 419:d:/liteos/code/WIFI2/Hardware/LCD\lcd.c **** 
ARM GAS  C:\Users\≤‹º“∫¿\AppData\Local\Temp\ccb8bRq8.s 			page 33


 1248              		.loc 1 419 22 view .LVU315
 1249 00c2 B4BF     		ite	lt
 1250 00c4 05EB8605 		addlt	r5, r5, r6, lsl #2
 1251              	.LVL124:
 423:d:/liteos/code/WIFI2/Hardware/LCD\lcd.c ****             b--;
 1252              		.loc 1 423 22 view .LVU316
 1253 00c8 05EB8305 		addge	r5, r5, r3, lsl #2
 1254              		.loc 1 427 9 view .LVU317
 1255 00cc 89B2     		uxth	r1, r1
 1256 00ce 80B2     		uxth	r0, r0
 419:d:/liteos/code/WIFI2/Hardware/LCD\lcd.c **** 
 1257              		.loc 1 419 22 view .LVU318
 1258 00d0 B4BF     		ite	lt
 1259 00d2 0635     		addlt	r5, r5, #6
 423:d:/liteos/code/WIFI2/Hardware/LCD\lcd.c ****             b--;
 1260              		.loc 1 423 13 is_stmt 1 view .LVU319
 423:d:/liteos/code/WIFI2/Hardware/LCD\lcd.c ****             b--;
 1261              		.loc 1 423 16 is_stmt 0 view .LVU320
 1262 00d4 0A35     		addge	r5, r5, #10
 1263              	.LVL125:
 424:d:/liteos/code/WIFI2/Hardware/LCD\lcd.c ****         }
 1264              		.loc 1 424 13 is_stmt 1 view .LVU321
 1265              		.loc 1 427 9 view .LVU322
 1266 00d6 FFF7FEFF 		bl	LCD_Draw_Point
 1267              	.LVL126:
 405:d:/liteos/code/WIFI2/Hardware/LCD\lcd.c ****     {
 1268              		.loc 1 405 10 view .LVU323
 1269 00da B442     		cmp	r4, r6
 1270 00dc 9ADA     		bge	.L59
 428:d:/liteos/code/WIFI2/Hardware/LCD\lcd.c ****     }
 429:d:/liteos/code/WIFI2/Hardware/LCD\lcd.c **** }
 1271              		.loc 1 429 1 is_stmt 0 view .LVU324
 1272 00de 05B0     		add	sp, sp, #20
 1273              	.LCFI25:
 1274              		.cfi_def_cfa_offset 36
 1275              		@ sp needed
 1276 00e0 BDE8F08F 		pop	{r4, r5, r6, r7, r8, r9, r10, fp, pc}
 1277              		.loc 1 429 1 view .LVU325
 1278              		.cfi_endproc
 1279              	.LFE301:
 1281              		.section	.text.LCD_ShowChar,"ax",%progbits
 1282              		.align	1
 1283              		.global	LCD_ShowChar
 1284              		.syntax unified
 1285              		.thumb
 1286              		.thumb_func
 1287              		.fpu fpv4-sp-d16
 1289              	LCD_ShowChar:
 1290              	.LVL127:
 1291              	.LFB302:
 430:d:/liteos/code/WIFI2/Hardware/LCD\lcd.c **** 
 431:d:/liteos/code/WIFI2/Hardware/LCD\lcd.c **** /**
 432:d:/liteos/code/WIFI2/Hardware/LCD\lcd.c ****  * @brief	ÊòæÁ§∫‰∏Ä‰∏™ASCIIÁ†ÅÂ≠óÁ¨¶
 433:d:/liteos/code/WIFI2/Hardware/LCD\lcd.c ****  *
 434:d:/liteos/code/WIFI2/Hardware/LCD\lcd.c ****  * @param   x,y		ÊòæÁ§∫Ëµ∑ÂßãÂùêÊ†á
 435:d:/liteos/code/WIFI2/Hardware/LCD\lcd.c ****  * @param   chr		ÈúÄË¶ÅÊòæÁ§∫ÁöÑÂ≠óÁ¨¶
 436:d:/liteos/code/WIFI2/Hardware/LCD\lcd.c ****  * @param   size	Â≠ó‰ΩìÂ§ßÂ∞è(ÊîØÊåÅ16/24/32Âè∑Â≠ó‰Ωì)
ARM GAS  C:\Users\≤‹º“∫¿\AppData\Local\Temp\ccb8bRq8.s 			page 34


 437:d:/liteos/code/WIFI2/Hardware/LCD\lcd.c ****  *
 438:d:/liteos/code/WIFI2/Hardware/LCD\lcd.c ****  * @return  void
 439:d:/liteos/code/WIFI2/Hardware/LCD\lcd.c ****  */
 440:d:/liteos/code/WIFI2/Hardware/LCD\lcd.c **** void LCD_ShowChar(uint16_t x, uint16_t y, char msg, uint8_t size)
 441:d:/liteos/code/WIFI2/Hardware/LCD\lcd.c **** {
 1292              		.loc 1 441 1 is_stmt 1 view -0
 1293              		.cfi_startproc
 1294              		@ args = 0, pretend = 0, frame = 0
 1295              		@ frame_needed = 0, uses_anonymous_args = 0
 442:d:/liteos/code/WIFI2/Hardware/LCD\lcd.c ****     unsigned char temp, t1, t,chr;
 1296              		.loc 1 442 5 view .LVU327
 443:d:/liteos/code/WIFI2/Hardware/LCD\lcd.c ****     uint8_t csize;		//ÂæóÂà∞Â≠ó‰Ωì‰∏Ä‰∏™Â≠óÁ¨¶ÂØπÂ∫îÁÇπÈòµÈõÜÊâÄÂç†ÁöÑÂ≠óËäÇÊï∞
 1297              		.loc 1 443 5 view .LVU328
 444:d:/liteos/code/WIFI2/Hardware/LCD\lcd.c ****     uint16_t colortemp;
 1298              		.loc 1 444 5 view .LVU329
 445:d:/liteos/code/WIFI2/Hardware/LCD\lcd.c ****     uint8_t sta;
 1299              		.loc 1 445 5 view .LVU330
 446:d:/liteos/code/WIFI2/Hardware/LCD\lcd.c **** 
 447:d:/liteos/code/WIFI2/Hardware/LCD\lcd.c ****     chr = (unsigned char)msg;
 1300              		.loc 1 447 5 view .LVU331
 448:d:/liteos/code/WIFI2/Hardware/LCD\lcd.c **** 
 449:d:/liteos/code/WIFI2/Hardware/LCD\lcd.c ****     chr = chr - ' '; //ÂæóÂà∞ÂÅèÁßªÂêéÁöÑÂÄºÔºàASCIIÂ≠óÂ∫ìÊòØ‰ªéÁ©∫Ê†ºÂºÄÂßãÂèñÊ®°ÔºåÊâÄ‰ª•-' 'Â∞±Ê
 1301              		.loc 1 449 5 view .LVU332
 450:d:/liteos/code/WIFI2/Hardware/LCD\lcd.c **** 
 451:d:/liteos/code/WIFI2/Hardware/LCD\lcd.c ****     if((x > (LCD_Width - size / 2)) || (y > (LCD_Height - size)))	return;
 1302              		.loc 1 451 5 view .LVU333
 441:d:/liteos/code/WIFI2/Hardware/LCD\lcd.c ****     unsigned char temp, t1, t,chr;
 1303              		.loc 1 441 1 is_stmt 0 view .LVU334
 1304 0000 2DE9F84F 		push	{r3, r4, r5, r6, r7, r8, r9, r10, fp, lr}
 1305              	.LCFI26:
 1306              		.cfi_def_cfa_offset 40
 1307              		.cfi_offset 3, -40
 1308              		.cfi_offset 4, -36
 1309              		.cfi_offset 5, -32
 1310              		.cfi_offset 6, -28
 1311              		.cfi_offset 7, -24
 1312              		.cfi_offset 8, -20
 1313              		.cfi_offset 9, -16
 1314              		.cfi_offset 10, -12
 1315              		.cfi_offset 11, -8
 1316              		.cfi_offset 14, -4
 1317              		.loc 1 451 31 view .LVU335
 1318 0004 4FEA5308 		lsr	r8, r3, #1
 441:d:/liteos/code/WIFI2/Hardware/LCD\lcd.c ****     unsigned char temp, t1, t,chr;
 1319              		.loc 1 441 1 view .LVU336
 1320 0008 1C46     		mov	r4, r3
 1321              		.loc 1 451 24 view .LVU337
 1322 000a C8F1F003 		rsb	r3, r8, #240
 1323              	.LVL128:
 1324              		.loc 1 451 7 view .LVU338
 1325 000e 9842     		cmp	r0, r3
 1326 0010 29DC     		bgt	.L61
 1327              		.loc 1 451 57 discriminator 2 view .LVU339
 1328 0012 C4F1F003 		rsb	r3, r4, #240
 1329              		.loc 1 451 37 discriminator 2 view .LVU340
 1330 0016 9942     		cmp	r1, r3
 1331 0018 25DC     		bgt	.L61
ARM GAS  C:\Users\≤‹º“∫¿\AppData\Local\Temp\ccb8bRq8.s 			page 35


 449:d:/liteos/code/WIFI2/Hardware/LCD\lcd.c **** 
 1332              		.loc 1 449 9 view .LVU341
 1333 001a 203A     		subs	r2, r2, #32
 1334              	.LVL129:
 452:d:/liteos/code/WIFI2/Hardware/LCD\lcd.c **** 
 453:d:/liteos/code/WIFI2/Hardware/LCD\lcd.c ****     LCD_Address_Set(x, y, x + size / 2 - 1, y + size - 1);//(x,y,x+8-1,y+16-1)
 1335              		.loc 1 453 5 view .LVU342
 1336 001c 4B1E     		subs	r3, r1, #1
 449:d:/liteos/code/WIFI2/Hardware/LCD\lcd.c **** 
 1337              		.loc 1 449 9 view .LVU343
 1338 001e D5B2     		uxtb	r5, r2
 1339              		.loc 1 453 5 is_stmt 1 view .LVU344
 1340 0020 421E     		subs	r2, r0, #1
 1341              	.LVL130:
 1342              		.loc 1 453 5 is_stmt 0 view .LVU345
 1343 0022 2344     		add	r3, r3, r4
 1344 0024 4244     		add	r2, r2, r8
 1345 0026 9BB2     		uxth	r3, r3
 1346 0028 92B2     		uxth	r2, r2
 1347 002a FFF7FEFF 		bl	LCD_Address_Set
 1348              	.LVL131:
 454:d:/liteos/code/WIFI2/Hardware/LCD\lcd.c **** 
 455:d:/liteos/code/WIFI2/Hardware/LCD\lcd.c ****     if((size == 16) || (size == 32) )	//16Âíå32Âè∑Â≠ó‰Ωì
 1349              		.loc 1 455 5 is_stmt 1 view .LVU346
 1350              		.loc 1 455 7 is_stmt 0 view .LVU347
 1351 002e 102C     		cmp	r4, #16
 1352 0030 01D0     		beq	.L63
 1353              		.loc 1 455 21 discriminator 1 view .LVU348
 1354 0032 202C     		cmp	r4, #32
 1355 0034 36D1     		bne	.L64
 1356              	.L63:
 456:d:/liteos/code/WIFI2/Hardware/LCD\lcd.c ****     {
 457:d:/liteos/code/WIFI2/Hardware/LCD\lcd.c ****         csize = (size / 8 + ((size % 8) ? 1 : 0)) * (size / 2);
 1357              		.loc 1 457 9 is_stmt 1 view .LVU349
 1358              		.loc 1 457 45 is_stmt 0 view .LVU350
 1359 0036 14F00703 		ands	r3, r4, #7
 1360 003a 18BF     		it	ne
 1361 003c 0123     		movne	r3, #1
 1362              		.loc 1 457 27 view .LVU351
 1363 003e 03EBD406 		add	r6, r3, r4, lsr #3
 1364 0042 3D4B     		ldr	r3, .L91
 458:d:/liteos/code/WIFI2/Hardware/LCD\lcd.c **** 
 459:d:/liteos/code/WIFI2/Hardware/LCD\lcd.c ****         for(t = 0; t < csize; t++)
 460:d:/liteos/code/WIFI2/Hardware/LCD\lcd.c ****         {
 461:d:/liteos/code/WIFI2/Hardware/LCD\lcd.c ****             if(size == 16)temp = asc2_1608[chr][t];	//Ë∞ÉÁî®1608Â≠ó‰Ωì
 462:d:/liteos/code/WIFI2/Hardware/LCD\lcd.c **** 
 463:d:/liteos/code/WIFI2/Hardware/LCD\lcd.c ****             else if(size == 32)temp = asc2_3216[chr][t];	//Ë∞ÉÁî®3216Â≠ó‰Ωì
 464:d:/liteos/code/WIFI2/Hardware/LCD\lcd.c **** 
 465:d:/liteos/code/WIFI2/Hardware/LCD\lcd.c ****             else return;			//Ê≤°ÊúâÁöÑÂ≠óÂ∫ì
 466:d:/liteos/code/WIFI2/Hardware/LCD\lcd.c **** 
 467:d:/liteos/code/WIFI2/Hardware/LCD\lcd.c ****             for(t1 = 0; t1 < 8; t1++)
 468:d:/liteos/code/WIFI2/Hardware/LCD\lcd.c ****             {
 469:d:/liteos/code/WIFI2/Hardware/LCD\lcd.c ****                 if(temp & 0x80) colortemp = POINT_COLOR;
 470:d:/liteos/code/WIFI2/Hardware/LCD\lcd.c **** 
 471:d:/liteos/code/WIFI2/Hardware/LCD\lcd.c ****                 else colortemp = BACK_COLOR;
 1365              		.loc 1 471 32 view .LVU352
 1366 0044 DFF804B1 		ldr	fp, .L91+20
ARM GAS  C:\Users\≤‹º“∫¿\AppData\Local\Temp\ccb8bRq8.s 			page 36


 1367 0048 03EBC51A 		add	r10, r3, r5, lsl #7
 1368 004c 3B4B     		ldr	r3, .L91+4
 457:d:/liteos/code/WIFI2/Hardware/LCD\lcd.c **** 
 1369              		.loc 1 457 15 view .LVU353
 1370 004e 16FB08F6 		smulbb	r6, r6, r8
 1371 0052 03EB0515 		add	r5, r3, r5, lsl #4
 469:d:/liteos/code/WIFI2/Hardware/LCD\lcd.c **** 
 1372              		.loc 1 469 43 view .LVU354
 1373 0056 3A4B     		ldr	r3, .L91+8
 457:d:/liteos/code/WIFI2/Hardware/LCD\lcd.c **** 
 1374              		.loc 1 457 15 view .LVU355
 1375 0058 F6B2     		uxtb	r6, r6
 1376              	.LVL132:
 459:d:/liteos/code/WIFI2/Hardware/LCD\lcd.c ****         {
 1377              		.loc 1 459 9 is_stmt 1 view .LVU356
 459:d:/liteos/code/WIFI2/Hardware/LCD\lcd.c ****         {
 1378              		.loc 1 459 9 is_stmt 0 view .LVU357
 1379 005a 4FF00008 		mov	r8, #0
 1380              	.LVL133:
 1381              	.L65:
 459:d:/liteos/code/WIFI2/Hardware/LCD\lcd.c ****         {
 1382              		.loc 1 459 20 is_stmt 1 discriminator 1 view .LVU358
 459:d:/liteos/code/WIFI2/Hardware/LCD\lcd.c ****         {
 1383              		.loc 1 459 9 is_stmt 0 discriminator 1 view .LVU359
 1384 005e 5FFA88F2 		uxtb	r2, r8
 1385 0062 9642     		cmp	r6, r2
 1386 0064 01D8     		bhi	.L71
 1387              	.LVL134:
 1388              	.L61:
 472:d:/liteos/code/WIFI2/Hardware/LCD\lcd.c **** 
 473:d:/liteos/code/WIFI2/Hardware/LCD\lcd.c ****                 LCD_Write_HalfWord(colortemp);
 474:d:/liteos/code/WIFI2/Hardware/LCD\lcd.c ****                 temp <<= 1;
 475:d:/liteos/code/WIFI2/Hardware/LCD\lcd.c ****             }
 476:d:/liteos/code/WIFI2/Hardware/LCD\lcd.c ****         }
 477:d:/liteos/code/WIFI2/Hardware/LCD\lcd.c ****     }
 478:d:/liteos/code/WIFI2/Hardware/LCD\lcd.c **** 
 479:d:/liteos/code/WIFI2/Hardware/LCD\lcd.c **** 	else if  (size == 12)	//12Âè∑Â≠ó‰Ωì
 480:d:/liteos/code/WIFI2/Hardware/LCD\lcd.c **** 	{
 481:d:/liteos/code/WIFI2/Hardware/LCD\lcd.c ****         csize = (size / 8 + ((size % 8) ? 1 : 0)) * (size / 2);
 482:d:/liteos/code/WIFI2/Hardware/LCD\lcd.c **** 
 483:d:/liteos/code/WIFI2/Hardware/LCD\lcd.c ****         for(t = 0; t < csize; t++)
 484:d:/liteos/code/WIFI2/Hardware/LCD\lcd.c ****         {
 485:d:/liteos/code/WIFI2/Hardware/LCD\lcd.c ****             temp = asc2_1206[chr][t];
 486:d:/liteos/code/WIFI2/Hardware/LCD\lcd.c **** 
 487:d:/liteos/code/WIFI2/Hardware/LCD\lcd.c ****             for(t1 = 0; t1 < 6; t1++)
 488:d:/liteos/code/WIFI2/Hardware/LCD\lcd.c ****             {
 489:d:/liteos/code/WIFI2/Hardware/LCD\lcd.c ****                 if(temp & 0x80) colortemp = POINT_COLOR;
 490:d:/liteos/code/WIFI2/Hardware/LCD\lcd.c **** 
 491:d:/liteos/code/WIFI2/Hardware/LCD\lcd.c ****                 else colortemp = BACK_COLOR;
 492:d:/liteos/code/WIFI2/Hardware/LCD\lcd.c **** 
 493:d:/liteos/code/WIFI2/Hardware/LCD\lcd.c ****                 LCD_Write_HalfWord(colortemp);
 494:d:/liteos/code/WIFI2/Hardware/LCD\lcd.c ****                 temp <<= 1;
 495:d:/liteos/code/WIFI2/Hardware/LCD\lcd.c ****             }
 496:d:/liteos/code/WIFI2/Hardware/LCD\lcd.c ****         }
 497:d:/liteos/code/WIFI2/Hardware/LCD\lcd.c ****     }
 498:d:/liteos/code/WIFI2/Hardware/LCD\lcd.c **** 	
 499:d:/liteos/code/WIFI2/Hardware/LCD\lcd.c ****     else if(size == 24)		//24Âè∑Â≠ó‰Ωì
ARM GAS  C:\Users\≤‹º“∫¿\AppData\Local\Temp\ccb8bRq8.s 			page 37


 500:d:/liteos/code/WIFI2/Hardware/LCD\lcd.c ****     {
 501:d:/liteos/code/WIFI2/Hardware/LCD\lcd.c ****         csize = (size * 16) / 8;
 502:d:/liteos/code/WIFI2/Hardware/LCD\lcd.c **** 
 503:d:/liteos/code/WIFI2/Hardware/LCD\lcd.c ****         for(t = 0; t < csize; t++)
 504:d:/liteos/code/WIFI2/Hardware/LCD\lcd.c ****         {
 505:d:/liteos/code/WIFI2/Hardware/LCD\lcd.c ****             temp = asc2_2412[chr][t];
 506:d:/liteos/code/WIFI2/Hardware/LCD\lcd.c **** 
 507:d:/liteos/code/WIFI2/Hardware/LCD\lcd.c ****             if(t % 2 == 0)sta = 8;
 508:d:/liteos/code/WIFI2/Hardware/LCD\lcd.c **** 
 509:d:/liteos/code/WIFI2/Hardware/LCD\lcd.c ****             else sta = 4;
 510:d:/liteos/code/WIFI2/Hardware/LCD\lcd.c **** 
 511:d:/liteos/code/WIFI2/Hardware/LCD\lcd.c ****             for(t1 = 0; t1 < sta; t1++)
 512:d:/liteos/code/WIFI2/Hardware/LCD\lcd.c ****             {
 513:d:/liteos/code/WIFI2/Hardware/LCD\lcd.c ****                 if(temp & 0x80) colortemp = POINT_COLOR;
 514:d:/liteos/code/WIFI2/Hardware/LCD\lcd.c **** 
 515:d:/liteos/code/WIFI2/Hardware/LCD\lcd.c ****                 else colortemp = BACK_COLOR;
 516:d:/liteos/code/WIFI2/Hardware/LCD\lcd.c **** 
 517:d:/liteos/code/WIFI2/Hardware/LCD\lcd.c ****                 LCD_Write_HalfWord(colortemp);
 518:d:/liteos/code/WIFI2/Hardware/LCD\lcd.c ****                 temp <<= 1;
 519:d:/liteos/code/WIFI2/Hardware/LCD\lcd.c ****             }
 520:d:/liteos/code/WIFI2/Hardware/LCD\lcd.c ****         }
 521:d:/liteos/code/WIFI2/Hardware/LCD\lcd.c ****     }
 522:d:/liteos/code/WIFI2/Hardware/LCD\lcd.c **** }
 1389              		.loc 1 522 1 view .LVU360
 1390 0066 BDE8F88F 		pop	{r3, r4, r5, r6, r7, r8, r9, r10, fp, pc}
 1391              	.LVL135:
 1392              	.L71:
 461:d:/liteos/code/WIFI2/Hardware/LCD\lcd.c **** 
 1393              		.loc 1 461 13 is_stmt 1 view .LVU361
 461:d:/liteos/code/WIFI2/Hardware/LCD\lcd.c **** 
 1394              		.loc 1 461 15 is_stmt 0 view .LVU362
 1395 006a 102C     		cmp	r4, #16
 1396 006c 15D1     		bne	.L66
 461:d:/liteos/code/WIFI2/Hardware/LCD\lcd.c **** 
 1397              		.loc 1 461 27 is_stmt 1 discriminator 1 view .LVU363
 461:d:/liteos/code/WIFI2/Hardware/LCD\lcd.c **** 
 1398              		.loc 1 461 32 is_stmt 0 discriminator 1 view .LVU364
 1399 006e 15F80870 		ldrb	r7, [r5, r8]	@ zero_extendqisi2
 1400              	.LVL136:
 1401              	.L67:
 441:d:/liteos/code/WIFI2/Hardware/LCD\lcd.c ****     unsigned char temp, t1, t,chr;
 1402              		.loc 1 441 1 view .LVU365
 1403 0072 4FF00809 		mov	r9, #8
 1404              	.L70:
 1405              	.LVL137:
 469:d:/liteos/code/WIFI2/Hardware/LCD\lcd.c **** 
 1406              		.loc 1 469 17 is_stmt 1 view .LVU366
 469:d:/liteos/code/WIFI2/Hardware/LCD\lcd.c **** 
 1407              		.loc 1 469 19 is_stmt 0 view .LVU367
 1408 0076 3906     		lsls	r1, r7, #24
 469:d:/liteos/code/WIFI2/Hardware/LCD\lcd.c **** 
 1409              		.loc 1 469 33 is_stmt 1 view .LVU368
 469:d:/liteos/code/WIFI2/Hardware/LCD\lcd.c **** 
 1410              		.loc 1 469 43 is_stmt 0 view .LVU369
 1411 0078 4CBF     		ite	mi
 1412 007a 1888     		ldrhmi	r0, [r3]
 1413              	.LVL138:
ARM GAS  C:\Users\≤‹º“∫¿\AppData\Local\Temp\ccb8bRq8.s 			page 38


 471:d:/liteos/code/WIFI2/Hardware/LCD\lcd.c **** 
 1414              		.loc 1 471 22 is_stmt 1 view .LVU370
 471:d:/liteos/code/WIFI2/Hardware/LCD\lcd.c **** 
 1415              		.loc 1 471 32 is_stmt 0 view .LVU371
 1416 007c BBF80000 		ldrhpl	r0, [fp]
 1417              	.LVL139:
 473:d:/liteos/code/WIFI2/Hardware/LCD\lcd.c ****                 temp <<= 1;
 1418              		.loc 1 473 17 is_stmt 1 view .LVU372
 1419 0080 09F1FF39 		add	r9, r9, #-1
 1420              	.LVL140:
 473:d:/liteos/code/WIFI2/Hardware/LCD\lcd.c ****                 temp <<= 1;
 1421              		.loc 1 473 17 is_stmt 0 view .LVU373
 1422 0084 FFF7FEFF 		bl	LCD_Write_HalfWord
 1423              	.LVL141:
 474:d:/liteos/code/WIFI2/Hardware/LCD\lcd.c ****             }
 1424              		.loc 1 474 17 is_stmt 1 view .LVU374
 474:d:/liteos/code/WIFI2/Hardware/LCD\lcd.c ****             }
 1425              		.loc 1 474 22 is_stmt 0 view .LVU375
 1426 0088 7F00     		lsls	r7, r7, #1
 1427              	.LVL142:
 467:d:/liteos/code/WIFI2/Hardware/LCD\lcd.c ****             {
 1428              		.loc 1 467 13 view .LVU376
 1429 008a 19F0FF09 		ands	r9, r9, #255
 1430 008e 2C4B     		ldr	r3, .L91+8
 474:d:/liteos/code/WIFI2/Hardware/LCD\lcd.c ****             }
 1431              		.loc 1 474 22 view .LVU377
 1432 0090 FFB2     		uxtb	r7, r7
 1433              	.LVL143:
 467:d:/liteos/code/WIFI2/Hardware/LCD\lcd.c ****             {
 1434              		.loc 1 467 33 is_stmt 1 view .LVU378
 467:d:/liteos/code/WIFI2/Hardware/LCD\lcd.c ****             {
 1435              		.loc 1 467 25 view .LVU379
 467:d:/liteos/code/WIFI2/Hardware/LCD\lcd.c ****             {
 1436              		.loc 1 467 13 is_stmt 0 view .LVU380
 1437 0092 F0D1     		bne	.L70
 459:d:/liteos/code/WIFI2/Hardware/LCD\lcd.c ****         {
 1438              		.loc 1 459 31 is_stmt 1 discriminator 2 view .LVU381
 1439              	.LVL144:
 459:d:/liteos/code/WIFI2/Hardware/LCD\lcd.c ****         {
 1440              		.loc 1 459 31 is_stmt 0 discriminator 2 view .LVU382
 1441 0094 08F10108 		add	r8, r8, #1
 1442              	.LVL145:
 459:d:/liteos/code/WIFI2/Hardware/LCD\lcd.c ****         {
 1443              		.loc 1 459 31 discriminator 2 view .LVU383
 1444 0098 E1E7     		b	.L65
 1445              	.LVL146:
 1446              	.L66:
 463:d:/liteos/code/WIFI2/Hardware/LCD\lcd.c **** 
 1447              		.loc 1 463 18 is_stmt 1 view .LVU384
 463:d:/liteos/code/WIFI2/Hardware/LCD\lcd.c **** 
 1448              		.loc 1 463 20 is_stmt 0 view .LVU385
 1449 009a 202C     		cmp	r4, #32
 1450 009c E3D1     		bne	.L61
 463:d:/liteos/code/WIFI2/Hardware/LCD\lcd.c **** 
 1451              		.loc 1 463 32 is_stmt 1 discriminator 1 view .LVU386
 463:d:/liteos/code/WIFI2/Hardware/LCD\lcd.c **** 
 1452              		.loc 1 463 37 is_stmt 0 discriminator 1 view .LVU387
ARM GAS  C:\Users\≤‹º“∫¿\AppData\Local\Temp\ccb8bRq8.s 			page 39


 1453 009e 1AF80870 		ldrb	r7, [r10, r8]	@ zero_extendqisi2
 1454              	.LVL147:
 463:d:/liteos/code/WIFI2/Hardware/LCD\lcd.c **** 
 1455              		.loc 1 463 37 discriminator 1 view .LVU388
 1456 00a2 E6E7     		b	.L67
 1457              	.LVL148:
 1458              	.L64:
 479:d:/liteos/code/WIFI2/Hardware/LCD\lcd.c **** 	{
 1459              		.loc 1 479 7 is_stmt 1 view .LVU389
 479:d:/liteos/code/WIFI2/Hardware/LCD\lcd.c **** 	{
 1460              		.loc 1 479 11 is_stmt 0 view .LVU390
 1461 00a4 0C2C     		cmp	r4, #12
 1462 00a6 1ED1     		bne	.L72
 1463 00a8 264B     		ldr	r3, .L91+12
 491:d:/liteos/code/WIFI2/Hardware/LCD\lcd.c **** 
 1464              		.loc 1 491 32 view .LVU391
 1465 00aa DFF8A080 		ldr	r8, .L91+20
 489:d:/liteos/code/WIFI2/Hardware/LCD\lcd.c **** 
 1466              		.loc 1 489 43 view .LVU392
 1467 00ae DFF89090 		ldr	r9, .L91+8
 1468 00b2 05EB4505 		add	r5, r5, r5, lsl #1
 1469 00b6 03EB8505 		add	r5, r3, r5, lsl #2
 1470              	.L76:
 485:d:/liteos/code/WIFI2/Hardware/LCD\lcd.c **** 
 1471              		.loc 1 485 13 is_stmt 1 view .LVU393
 485:d:/liteos/code/WIFI2/Hardware/LCD\lcd.c **** 
 1472              		.loc 1 485 18 is_stmt 0 view .LVU394
 1473 00ba 15F8017B 		ldrb	r7, [r5], #1	@ zero_extendqisi2
 1474              	.LVL149:
 487:d:/liteos/code/WIFI2/Hardware/LCD\lcd.c ****             {
 1475              		.loc 1 487 13 is_stmt 1 view .LVU395
 487:d:/liteos/code/WIFI2/Hardware/LCD\lcd.c ****             {
 1476              		.loc 1 487 25 view .LVU396
 485:d:/liteos/code/WIFI2/Hardware/LCD\lcd.c **** 
 1477              		.loc 1 485 18 is_stmt 0 view .LVU397
 1478 00be 0626     		movs	r6, #6
 1479              	.LVL150:
 1480              	.L75:
 489:d:/liteos/code/WIFI2/Hardware/LCD\lcd.c **** 
 1481              		.loc 1 489 17 is_stmt 1 view .LVU398
 489:d:/liteos/code/WIFI2/Hardware/LCD\lcd.c **** 
 1482              		.loc 1 489 19 is_stmt 0 view .LVU399
 1483 00c0 3A06     		lsls	r2, r7, #24
 489:d:/liteos/code/WIFI2/Hardware/LCD\lcd.c **** 
 1484              		.loc 1 489 33 is_stmt 1 view .LVU400
 489:d:/liteos/code/WIFI2/Hardware/LCD\lcd.c **** 
 1485              		.loc 1 489 43 is_stmt 0 view .LVU401
 1486 00c2 4CBF     		ite	mi
 1487 00c4 B9F80000 		ldrhmi	r0, [r9]
 1488              	.LVL151:
 491:d:/liteos/code/WIFI2/Hardware/LCD\lcd.c **** 
 1489              		.loc 1 491 22 is_stmt 1 view .LVU402
 491:d:/liteos/code/WIFI2/Hardware/LCD\lcd.c **** 
 1490              		.loc 1 491 32 is_stmt 0 view .LVU403
 1491 00c8 B8F80000 		ldrhpl	r0, [r8]
 1492              	.LVL152:
 493:d:/liteos/code/WIFI2/Hardware/LCD\lcd.c ****                 temp <<= 1;
ARM GAS  C:\Users\≤‹º“∫¿\AppData\Local\Temp\ccb8bRq8.s 			page 40


 1493              		.loc 1 493 17 is_stmt 1 view .LVU404
 1494 00cc 013E     		subs	r6, r6, #1
 1495              	.LVL153:
 493:d:/liteos/code/WIFI2/Hardware/LCD\lcd.c ****                 temp <<= 1;
 1496              		.loc 1 493 17 is_stmt 0 view .LVU405
 1497 00ce FFF7FEFF 		bl	LCD_Write_HalfWord
 1498              	.LVL154:
 494:d:/liteos/code/WIFI2/Hardware/LCD\lcd.c ****             }
 1499              		.loc 1 494 17 is_stmt 1 view .LVU406
 494:d:/liteos/code/WIFI2/Hardware/LCD\lcd.c ****             }
 1500              		.loc 1 494 22 is_stmt 0 view .LVU407
 1501 00d2 7F00     		lsls	r7, r7, #1
 1502              	.LVL155:
 487:d:/liteos/code/WIFI2/Hardware/LCD\lcd.c ****             {
 1503              		.loc 1 487 13 view .LVU408
 1504 00d4 16F0FF06 		ands	r6, r6, #255
 494:d:/liteos/code/WIFI2/Hardware/LCD\lcd.c ****             }
 1505              		.loc 1 494 22 view .LVU409
 1506 00d8 FFB2     		uxtb	r7, r7
 1507              	.LVL156:
 487:d:/liteos/code/WIFI2/Hardware/LCD\lcd.c ****             {
 1508              		.loc 1 487 33 is_stmt 1 view .LVU410
 487:d:/liteos/code/WIFI2/Hardware/LCD\lcd.c ****             {
 1509              		.loc 1 487 25 view .LVU411
 487:d:/liteos/code/WIFI2/Hardware/LCD\lcd.c ****             {
 1510              		.loc 1 487 13 is_stmt 0 view .LVU412
 1511 00da F1D1     		bne	.L75
 483:d:/liteos/code/WIFI2/Hardware/LCD\lcd.c ****         {
 1512              		.loc 1 483 31 is_stmt 1 discriminator 2 view .LVU413
 483:d:/liteos/code/WIFI2/Hardware/LCD\lcd.c ****         {
 1513              		.loc 1 483 20 discriminator 2 view .LVU414
 1514 00dc 013C     		subs	r4, r4, #1
 483:d:/liteos/code/WIFI2/Hardware/LCD\lcd.c ****         {
 1515              		.loc 1 483 9 is_stmt 0 discriminator 2 view .LVU415
 1516 00de 14F0FF04 		ands	r4, r4, #255
 1517 00e2 EAD1     		bne	.L76
 1518 00e4 BFE7     		b	.L61
 1519              	.LVL157:
 1520              	.L72:
 499:d:/liteos/code/WIFI2/Hardware/LCD\lcd.c ****     {
 1521              		.loc 1 499 10 is_stmt 1 view .LVU416
 499:d:/liteos/code/WIFI2/Hardware/LCD\lcd.c ****     {
 1522              		.loc 1 499 12 is_stmt 0 view .LVU417
 1523 00e6 182C     		cmp	r4, #24
 1524 00e8 BDD1     		bne	.L61
 1525 00ea 174B     		ldr	r3, .L91+16
 515:d:/liteos/code/WIFI2/Hardware/LCD\lcd.c **** 
 1526              		.loc 1 515 32 view .LVU418
 1527 00ec DFF85C80 		ldr	r8, .L91+20
 513:d:/liteos/code/WIFI2/Hardware/LCD\lcd.c **** 
 1528              		.loc 1 513 43 view .LVU419
 1529 00f0 DFF84C90 		ldr	r9, .L91+8
 1530 00f4 05EB4505 		add	r5, r5, r5, lsl #1
 1531 00f8 03EB0515 		add	r5, r3, r5, lsl #4
 503:d:/liteos/code/WIFI2/Hardware/LCD\lcd.c ****         {
 1532              		.loc 1 503 15 view .LVU420
 1533 00fc 0024     		movs	r4, #0
ARM GAS  C:\Users\≤‹º“∫¿\AppData\Local\Temp\ccb8bRq8.s 			page 41


 1534              	.L81:
 1535              	.LVL158:
 505:d:/liteos/code/WIFI2/Hardware/LCD\lcd.c **** 
 1536              		.loc 1 505 13 is_stmt 1 view .LVU421
 509:d:/liteos/code/WIFI2/Hardware/LCD\lcd.c **** 
 1537              		.loc 1 509 22 is_stmt 0 view .LVU422
 1538 00fe 14F0010F 		tst	r4, #1
 505:d:/liteos/code/WIFI2/Hardware/LCD\lcd.c **** 
 1539              		.loc 1 505 18 view .LVU423
 1540 0102 15F8016B 		ldrb	r6, [r5], #1	@ zero_extendqisi2
 1541              	.LVL159:
 507:d:/liteos/code/WIFI2/Hardware/LCD\lcd.c **** 
 1542              		.loc 1 507 13 is_stmt 1 view .LVU424
 509:d:/liteos/code/WIFI2/Hardware/LCD\lcd.c **** 
 1543              		.loc 1 509 22 is_stmt 0 view .LVU425
 1544 0106 0CBF     		ite	eq
 1545 0108 4FF0080A 		moveq	r10, #8
 1546 010c 4FF0040A 		movne	r10, #4
 1547              	.LVL160:
 511:d:/liteos/code/WIFI2/Hardware/LCD\lcd.c ****             {
 1548              		.loc 1 511 13 is_stmt 1 view .LVU426
 511:d:/liteos/code/WIFI2/Hardware/LCD\lcd.c ****             {
 1549              		.loc 1 511 25 view .LVU427
 509:d:/liteos/code/WIFI2/Hardware/LCD\lcd.c **** 
 1550              		.loc 1 509 22 is_stmt 0 view .LVU428
 1551 0110 0027     		movs	r7, #0
 1552              	.LVL161:
 1553              	.L80:
 513:d:/liteos/code/WIFI2/Hardware/LCD\lcd.c **** 
 1554              		.loc 1 513 17 is_stmt 1 view .LVU429
 513:d:/liteos/code/WIFI2/Hardware/LCD\lcd.c **** 
 1555              		.loc 1 513 19 is_stmt 0 view .LVU430
 1556 0112 3306     		lsls	r3, r6, #24
 513:d:/liteos/code/WIFI2/Hardware/LCD\lcd.c **** 
 1557              		.loc 1 513 33 is_stmt 1 view .LVU431
 513:d:/liteos/code/WIFI2/Hardware/LCD\lcd.c **** 
 1558              		.loc 1 513 43 is_stmt 0 view .LVU432
 1559 0114 4CBF     		ite	mi
 1560 0116 B9F80000 		ldrhmi	r0, [r9]
 1561              	.LVL162:
 515:d:/liteos/code/WIFI2/Hardware/LCD\lcd.c **** 
 1562              		.loc 1 515 22 is_stmt 1 view .LVU433
 515:d:/liteos/code/WIFI2/Hardware/LCD\lcd.c **** 
 1563              		.loc 1 515 32 is_stmt 0 view .LVU434
 1564 011a B8F80000 		ldrhpl	r0, [r8]
 1565              	.LVL163:
 517:d:/liteos/code/WIFI2/Hardware/LCD\lcd.c ****                 temp <<= 1;
 1566              		.loc 1 517 17 is_stmt 1 view .LVU435
 1567 011e 0137     		adds	r7, r7, #1
 1568              	.LVL164:
 517:d:/liteos/code/WIFI2/Hardware/LCD\lcd.c ****                 temp <<= 1;
 1569              		.loc 1 517 17 is_stmt 0 view .LVU436
 1570 0120 FFF7FEFF 		bl	LCD_Write_HalfWord
 1571              	.LVL165:
 518:d:/liteos/code/WIFI2/Hardware/LCD\lcd.c ****             }
 1572              		.loc 1 518 17 is_stmt 1 view .LVU437
 511:d:/liteos/code/WIFI2/Hardware/LCD\lcd.c ****             {
ARM GAS  C:\Users\≤‹º“∫¿\AppData\Local\Temp\ccb8bRq8.s 			page 42


 1573              		.loc 1 511 13 is_stmt 0 view .LVU438
 1574 0124 FBB2     		uxtb	r3, r7
 518:d:/liteos/code/WIFI2/Hardware/LCD\lcd.c ****             }
 1575              		.loc 1 518 22 view .LVU439
 1576 0126 7600     		lsls	r6, r6, #1
 1577              	.LVL166:
 511:d:/liteos/code/WIFI2/Hardware/LCD\lcd.c ****             {
 1578              		.loc 1 511 13 view .LVU440
 1579 0128 9A45     		cmp	r10, r3
 518:d:/liteos/code/WIFI2/Hardware/LCD\lcd.c ****             }
 1580              		.loc 1 518 22 view .LVU441
 1581 012a F6B2     		uxtb	r6, r6
 1582              	.LVL167:
 511:d:/liteos/code/WIFI2/Hardware/LCD\lcd.c ****             {
 1583              		.loc 1 511 35 is_stmt 1 view .LVU442
 511:d:/liteos/code/WIFI2/Hardware/LCD\lcd.c ****             {
 1584              		.loc 1 511 25 view .LVU443
 511:d:/liteos/code/WIFI2/Hardware/LCD\lcd.c ****             {
 1585              		.loc 1 511 13 is_stmt 0 view .LVU444
 1586 012c F1D8     		bhi	.L80
 503:d:/liteos/code/WIFI2/Hardware/LCD\lcd.c ****         {
 1587              		.loc 1 503 31 is_stmt 1 discriminator 2 view .LVU445
 503:d:/liteos/code/WIFI2/Hardware/LCD\lcd.c ****         {
 1588              		.loc 1 503 32 is_stmt 0 discriminator 2 view .LVU446
 1589 012e 0134     		adds	r4, r4, #1
 1590 0130 E4B2     		uxtb	r4, r4
 1591              	.LVL168:
 503:d:/liteos/code/WIFI2/Hardware/LCD\lcd.c ****         {
 1592              		.loc 1 503 20 is_stmt 1 discriminator 2 view .LVU447
 503:d:/liteos/code/WIFI2/Hardware/LCD\lcd.c ****         {
 1593              		.loc 1 503 9 is_stmt 0 discriminator 2 view .LVU448
 1594 0132 302C     		cmp	r4, #48
 1595 0134 E3D1     		bne	.L81
 1596 0136 96E7     		b	.L61
 1597              	.L92:
 1598              		.align	2
 1599              	.L91:
 1600 0138 00000000 		.word	asc2_3216
 1601 013c 00000000 		.word	.LANCHOR2
 1602 0140 00000000 		.word	.LANCHOR1
 1603 0144 00000000 		.word	.LANCHOR4
 1604 0148 00000000 		.word	asc2_2412
 1605 014c 00000000 		.word	.LANCHOR3
 1606              		.cfi_endproc
 1607              	.LFE302:
 1609              		.section	.text.LCD_ShowNum,"ax",%progbits
 1610              		.align	1
 1611              		.global	LCD_ShowNum
 1612              		.syntax unified
 1613              		.thumb
 1614              		.thumb_func
 1615              		.fpu fpv4-sp-d16
 1617              	LCD_ShowNum:
 1618              	.LVL169:
 1619              	.LFB304:
 523:d:/liteos/code/WIFI2/Hardware/LCD\lcd.c **** 
 524:d:/liteos/code/WIFI2/Hardware/LCD\lcd.c **** /**
ARM GAS  C:\Users\≤‹º“∫¿\AppData\Local\Temp\ccb8bRq8.s 			page 43


 525:d:/liteos/code/WIFI2/Hardware/LCD\lcd.c ****  * @brief	m^nÂáΩÊï∞
 526:d:/liteos/code/WIFI2/Hardware/LCD\lcd.c ****  *
 527:d:/liteos/code/WIFI2/Hardware/LCD\lcd.c ****  * @param   m,n		ËæìÂÖ•ÂèÇÊï∞
 528:d:/liteos/code/WIFI2/Hardware/LCD\lcd.c ****  *
 529:d:/liteos/code/WIFI2/Hardware/LCD\lcd.c ****  * @return  m^nÊ¨°Êñπ
 530:d:/liteos/code/WIFI2/Hardware/LCD\lcd.c ****  */
 531:d:/liteos/code/WIFI2/Hardware/LCD\lcd.c **** static uint32_t LCD_Pow(uint8_t m, uint8_t n)
 532:d:/liteos/code/WIFI2/Hardware/LCD\lcd.c **** {
 533:d:/liteos/code/WIFI2/Hardware/LCD\lcd.c ****     uint32_t result = 1;
 534:d:/liteos/code/WIFI2/Hardware/LCD\lcd.c **** 
 535:d:/liteos/code/WIFI2/Hardware/LCD\lcd.c ****     while(n--)result *= m;
 536:d:/liteos/code/WIFI2/Hardware/LCD\lcd.c **** 
 537:d:/liteos/code/WIFI2/Hardware/LCD\lcd.c ****     return result;
 538:d:/liteos/code/WIFI2/Hardware/LCD\lcd.c **** }
 539:d:/liteos/code/WIFI2/Hardware/LCD\lcd.c **** 
 540:d:/liteos/code/WIFI2/Hardware/LCD\lcd.c **** /**
 541:d:/liteos/code/WIFI2/Hardware/LCD\lcd.c ****  * @brief	ÊòæÁ§∫Êï∞Â≠ó,È´ò‰Ωç‰∏∫0‰∏çÊòæÁ§∫
 542:d:/liteos/code/WIFI2/Hardware/LCD\lcd.c ****  *
 543:d:/liteos/code/WIFI2/Hardware/LCD\lcd.c ****  * @param   x,y		Ëµ∑ÁÇπÂùêÊ†á
 544:d:/liteos/code/WIFI2/Hardware/LCD\lcd.c ****  * @param   num		ÈúÄË¶ÅÊòæÁ§∫ÁöÑÊï∞Â≠ó,Êï∞Â≠óËåÉÂõ¥(0~4294967295)
 545:d:/liteos/code/WIFI2/Hardware/LCD\lcd.c ****  * @param   len		ÈúÄË¶ÅÊòæÁ§∫ÁöÑ‰ΩçÊï∞
 546:d:/liteos/code/WIFI2/Hardware/LCD\lcd.c ****  * @param   size	Â≠ó‰ΩìÂ§ßÂ∞è
 547:d:/liteos/code/WIFI2/Hardware/LCD\lcd.c ****  *
 548:d:/liteos/code/WIFI2/Hardware/LCD\lcd.c ****  * @return  void
 549:d:/liteos/code/WIFI2/Hardware/LCD\lcd.c ****  */
 550:d:/liteos/code/WIFI2/Hardware/LCD\lcd.c **** void LCD_ShowNum(uint16_t x, uint16_t y, uint32_t num, uint8_t len, uint8_t size)
 551:d:/liteos/code/WIFI2/Hardware/LCD\lcd.c **** {
 1620              		.loc 1 551 1 is_stmt 1 view -0
 1621              		.cfi_startproc
 1622              		@ args = 4, pretend = 0, frame = 8
 1623              		@ frame_needed = 0, uses_anonymous_args = 0
 552:d:/liteos/code/WIFI2/Hardware/LCD\lcd.c ****     uint8_t t, temp;
 1624              		.loc 1 552 5 view .LVU450
 553:d:/liteos/code/WIFI2/Hardware/LCD\lcd.c ****     uint8_t enshow = 0;
 1625              		.loc 1 553 5 view .LVU451
 554:d:/liteos/code/WIFI2/Hardware/LCD\lcd.c **** 
 555:d:/liteos/code/WIFI2/Hardware/LCD\lcd.c ****     for(t = 0; t < len; t++)
 1626              		.loc 1 555 5 view .LVU452
 551:d:/liteos/code/WIFI2/Hardware/LCD\lcd.c ****     uint8_t t, temp;
 1627              		.loc 1 551 1 is_stmt 0 view .LVU453
 1628 0000 2DE9F74F 		push	{r0, r1, r2, r4, r5, r6, r7, r8, r9, r10, fp, lr}
 1629              	.LCFI27:
 1630              		.cfi_def_cfa_offset 48
 1631              		.cfi_offset 4, -36
 1632              		.cfi_offset 5, -32
 1633              		.cfi_offset 6, -28
 1634              		.cfi_offset 7, -24
 1635              		.cfi_offset 8, -20
 1636              		.cfi_offset 9, -16
 1637              		.cfi_offset 10, -12
 1638              		.cfi_offset 11, -8
 1639              		.cfi_offset 14, -4
 551:d:/liteos/code/WIFI2/Hardware/LCD\lcd.c ****     uint8_t t, temp;
 1640              		.loc 1 551 1 view .LVU454
 1641 0004 1F46     		mov	r7, r3
 1642 0006 9DF83030 		ldrb	r3, [sp, #48]	@ zero_extendqisi2
 1643              	.LVL170:
ARM GAS  C:\Users\≤‹º“∫¿\AppData\Local\Temp\ccb8bRq8.s 			page 44


 551:d:/liteos/code/WIFI2/Hardware/LCD\lcd.c ****     uint8_t t, temp;
 1644              		.loc 1 551 1 view .LVU455
 1645 000a 013F     		subs	r7, r7, #1
 1646              		.loc 1 555 5 view .LVU456
 1647 000c 0026     		movs	r6, #0
 551:d:/liteos/code/WIFI2/Hardware/LCD\lcd.c ****     uint8_t t, temp;
 1648              		.loc 1 551 1 view .LVU457
 1649 000e 0446     		mov	r4, r0
 1650 0010 9046     		mov	r8, r2
 556:d:/liteos/code/WIFI2/Hardware/LCD\lcd.c ****     {
 557:d:/liteos/code/WIFI2/Hardware/LCD\lcd.c ****         temp = (num / LCD_Pow(10, len - t - 1)) % 10;
 558:d:/liteos/code/WIFI2/Hardware/LCD\lcd.c **** 
 559:d:/liteos/code/WIFI2/Hardware/LCD\lcd.c ****         if(enshow == 0 && t < (len - 1))
 560:d:/liteos/code/WIFI2/Hardware/LCD\lcd.c ****         {
 561:d:/liteos/code/WIFI2/Hardware/LCD\lcd.c ****             if(temp == 0)
 562:d:/liteos/code/WIFI2/Hardware/LCD\lcd.c ****             {
 563:d:/liteos/code/WIFI2/Hardware/LCD\lcd.c ****                 LCD_ShowChar(x + (size / 2)*t, y, ' ', size);
 564:d:/liteos/code/WIFI2/Hardware/LCD\lcd.c ****                 continue;
 565:d:/liteos/code/WIFI2/Hardware/LCD\lcd.c ****             }
 566:d:/liteos/code/WIFI2/Hardware/LCD\lcd.c **** 
 567:d:/liteos/code/WIFI2/Hardware/LCD\lcd.c ****             else enshow = 1;
 568:d:/liteos/code/WIFI2/Hardware/LCD\lcd.c ****         }
 569:d:/liteos/code/WIFI2/Hardware/LCD\lcd.c **** 
 570:d:/liteos/code/WIFI2/Hardware/LCD\lcd.c ****         LCD_ShowChar(x + (size / 2)*t, y, temp + '0', size);
 1651              		.loc 1 570 36 view .LVU458
 1652 0012 4FEA530B 		lsr	fp, r3, #1
 1653 0016 FDB2     		uxtb	r5, r7
 553:d:/liteos/code/WIFI2/Hardware/LCD\lcd.c **** 
 1654              		.loc 1 553 13 view .LVU459
 1655 0018 B246     		mov	r10, r6
 1656 001a 4FF00A09 		mov	r9, #10
 1657              	.LVL171:
 1658              	.L94:
 555:d:/liteos/code/WIFI2/Hardware/LCD\lcd.c ****     {
 1659              		.loc 1 555 16 is_stmt 1 discriminator 1 view .LVU460
 555:d:/liteos/code/WIFI2/Hardware/LCD\lcd.c ****     {
 1660              		.loc 1 555 5 is_stmt 0 discriminator 1 view .LVU461
 1661 001e FF2D     		cmp	r5, #255
 1662 0020 23D1     		bne	.L100
 571:d:/liteos/code/WIFI2/Hardware/LCD\lcd.c ****     }
 572:d:/liteos/code/WIFI2/Hardware/LCD\lcd.c **** }
 1663              		.loc 1 572 1 view .LVU462
 1664 0022 03B0     		add	sp, sp, #12
 1665              	.LCFI28:
 1666              		.cfi_remember_state
 1667              		.cfi_def_cfa_offset 36
 1668              		@ sp needed
 1669 0024 BDE8F08F 		pop	{r4, r5, r6, r7, r8, r9, r10, fp, pc}
 1670              	.LVL172:
 1671              	.L95:
 1672              	.LCFI29:
 1673              		.cfi_restore_state
 1674              	.LBB52:
 1675              	.LBB53:
 535:d:/liteos/code/WIFI2/Hardware/LCD\lcd.c **** 
 1676              		.loc 1 535 15 is_stmt 1 view .LVU463
 535:d:/liteos/code/WIFI2/Hardware/LCD\lcd.c **** 
ARM GAS  C:\Users\≤‹º“∫¿\AppData\Local\Temp\ccb8bRq8.s 			page 45


 1677              		.loc 1 535 22 is_stmt 0 view .LVU464
 1678 0028 09FB02F2 		mul	r2, r9, r2
 1679              	.LVL173:
 1680              	.L98:
 535:d:/liteos/code/WIFI2/Hardware/LCD\lcd.c **** 
 1681              		.loc 1 535 10 is_stmt 1 view .LVU465
 535:d:/liteos/code/WIFI2/Hardware/LCD\lcd.c **** 
 1682              		.loc 1 535 12 is_stmt 0 view .LVU466
 1683 002c 0138     		subs	r0, r0, #1
 1684              	.LVL174:
 535:d:/liteos/code/WIFI2/Hardware/LCD\lcd.c **** 
 1685              		.loc 1 535 12 view .LVU467
 1686 002e C0B2     		uxtb	r0, r0
 1687              	.LVL175:
 535:d:/liteos/code/WIFI2/Hardware/LCD\lcd.c **** 
 1688              		.loc 1 535 10 view .LVU468
 1689 0030 FF28     		cmp	r0, #255
 1690 0032 F9D1     		bne	.L95
 537:d:/liteos/code/WIFI2/Hardware/LCD\lcd.c **** }
 1691              		.loc 1 537 5 is_stmt 1 view .LVU469
 1692              	.LVL176:
 537:d:/liteos/code/WIFI2/Hardware/LCD\lcd.c **** }
 1693              		.loc 1 537 5 is_stmt 0 view .LVU470
 1694              	.LBE53:
 1695              	.LBE52:
 557:d:/liteos/code/WIFI2/Hardware/LCD\lcd.c **** 
 1696              		.loc 1 557 21 view .LVU471
 1697 0034 B8FBF2F2 		udiv	r2, r8, r2
 557:d:/liteos/code/WIFI2/Hardware/LCD\lcd.c **** 
 1698              		.loc 1 557 49 view .LVU472
 1699 0038 B2FBF9F0 		udiv	r0, r2, r9
 1700 003c 09FB1022 		mls	r2, r9, r0, r2
 557:d:/liteos/code/WIFI2/Hardware/LCD\lcd.c **** 
 1701              		.loc 1 557 14 view .LVU473
 1702 0040 D0B2     		uxtb	r0, r2
 1703              	.LVL177:
 559:d:/liteos/code/WIFI2/Hardware/LCD\lcd.c ****         {
 1704              		.loc 1 559 9 is_stmt 1 view .LVU474
 559:d:/liteos/code/WIFI2/Hardware/LCD\lcd.c ****         {
 1705              		.loc 1 559 11 is_stmt 0 view .LVU475
 1706 0042 BAF1000F 		cmp	r10, #0
 1707 0046 15D1     		bne	.L96
 559:d:/liteos/code/WIFI2/Hardware/LCD\lcd.c ****         {
 1708              		.loc 1 559 24 discriminator 1 view .LVU476
 1709 0048 B742     		cmp	r7, r6
 1710 004a 13DD     		ble	.L96
 561:d:/liteos/code/WIFI2/Hardware/LCD\lcd.c ****             {
 1711              		.loc 1 561 13 is_stmt 1 view .LVU477
 561:d:/liteos/code/WIFI2/Hardware/LCD\lcd.c ****             {
 1712              		.loc 1 561 15 is_stmt 0 view .LVU478
 1713 004c 82B9     		cbnz	r2, .L99
 563:d:/liteos/code/WIFI2/Hardware/LCD\lcd.c ****                 continue;
 1714              		.loc 1 563 17 is_stmt 1 view .LVU479
 1715 004e 2022     		movs	r2, #32
 1716 0050 2046     		mov	r0, r4
 1717              	.LVL178:
 563:d:/liteos/code/WIFI2/Hardware/LCD\lcd.c ****                 continue;
ARM GAS  C:\Users\≤‹º“∫¿\AppData\Local\Temp\ccb8bRq8.s 			page 46


 1718              		.loc 1 563 17 is_stmt 0 view .LVU480
 1719 0052 0193     		str	r3, [sp, #4]
 1720 0054 0091     		str	r1, [sp]
 1721 0056 FFF7FEFF 		bl	LCD_ShowChar
 1722              	.LVL179:
 564:d:/liteos/code/WIFI2/Hardware/LCD\lcd.c ****             }
 1723              		.loc 1 564 17 is_stmt 1 view .LVU481
 1724 005a DDE90013 		ldrd	r1, r3, [sp]
 1725              	.L97:
 555:d:/liteos/code/WIFI2/Hardware/LCD\lcd.c ****     {
 1726              		.loc 1 555 25 discriminator 2 view .LVU482
 1727              	.LVL180:
 555:d:/liteos/code/WIFI2/Hardware/LCD\lcd.c ****     {
 1728              		.loc 1 555 25 is_stmt 0 discriminator 2 view .LVU483
 1729 005e 5C44     		add	r4, r4, fp
 1730 0060 013D     		subs	r5, r5, #1
 1731 0062 0136     		adds	r6, r6, #1
 1732              	.LVL181:
 555:d:/liteos/code/WIFI2/Hardware/LCD\lcd.c ****     {
 1733              		.loc 1 555 25 discriminator 2 view .LVU484
 1734 0064 A4B2     		uxth	r4, r4
 1735 0066 EDB2     		uxtb	r5, r5
 1736 0068 D9E7     		b	.L94
 1737              	.LVL182:
 1738              	.L100:
 555:d:/liteos/code/WIFI2/Hardware/LCD\lcd.c ****     {
 1739              		.loc 1 555 25 discriminator 2 view .LVU485
 1740 006a 2846     		mov	r0, r5
 1741              	.LBB55:
 1742              	.LBB54:
 533:d:/liteos/code/WIFI2/Hardware/LCD\lcd.c **** 
 1743              		.loc 1 533 14 view .LVU486
 1744 006c 0122     		movs	r2, #1
 1745 006e DDE7     		b	.L98
 1746              	.LVL183:
 1747              	.L99:
 533:d:/liteos/code/WIFI2/Hardware/LCD\lcd.c **** 
 1748              		.loc 1 533 14 view .LVU487
 1749              	.LBE54:
 1750              	.LBE55:
 1751 0070 4FF0010A 		mov	r10, #1
 1752              	.LVL184:
 1753              	.L96:
 570:d:/liteos/code/WIFI2/Hardware/LCD\lcd.c ****     }
 1754              		.loc 1 570 9 is_stmt 1 view .LVU488
 1755 0074 00F13002 		add	r2, r0, #48
 1756 0078 D2B2     		uxtb	r2, r2
 1757 007a 2046     		mov	r0, r4
 1758              	.LVL185:
 570:d:/liteos/code/WIFI2/Hardware/LCD\lcd.c ****     }
 1759              		.loc 1 570 9 is_stmt 0 view .LVU489
 1760 007c 0193     		str	r3, [sp, #4]
 1761 007e 0091     		str	r1, [sp]
 1762 0080 FFF7FEFF 		bl	LCD_ShowChar
 1763              	.LVL186:
 1764 0084 DDE90013 		ldrd	r1, r3, [sp]
 1765 0088 E9E7     		b	.L97
ARM GAS  C:\Users\≤‹º“∫¿\AppData\Local\Temp\ccb8bRq8.s 			page 47


 1766              		.cfi_endproc
 1767              	.LFE304:
 1769              		.section	.text.LCD_ShowxNum,"ax",%progbits
 1770              		.align	1
 1771              		.global	LCD_ShowxNum
 1772              		.syntax unified
 1773              		.thumb
 1774              		.thumb_func
 1775              		.fpu fpv4-sp-d16
 1777              	LCD_ShowxNum:
 1778              	.LVL187:
 1779              	.LFB305:
 573:d:/liteos/code/WIFI2/Hardware/LCD\lcd.c **** 
 574:d:/liteos/code/WIFI2/Hardware/LCD\lcd.c **** 
 575:d:/liteos/code/WIFI2/Hardware/LCD\lcd.c **** 
 576:d:/liteos/code/WIFI2/Hardware/LCD\lcd.c **** /**
 577:d:/liteos/code/WIFI2/Hardware/LCD\lcd.c ****  * @brief	ÊòæÁ§∫Êï∞Â≠ó,È´ò‰Ωç‰∏∫0,ÂèØ‰ª•ÊéßÂà∂ÊòæÁ§∫‰∏∫0ËøòÊòØ‰∏çÊòæÁ§∫
 578:d:/liteos/code/WIFI2/Hardware/LCD\lcd.c ****  *
 579:d:/liteos/code/WIFI2/Hardware/LCD\lcd.c ****  * @param   x,y		Ëµ∑ÁÇπÂùêÊ†á
 580:d:/liteos/code/WIFI2/Hardware/LCD\lcd.c ****  * @param   num		ÈúÄË¶ÅÊòæÁ§∫ÁöÑÊï∞Â≠ó,Êï∞Â≠óËåÉÂõ¥(0~999999999)
 581:d:/liteos/code/WIFI2/Hardware/LCD\lcd.c ****  * @param   len		ÈúÄË¶ÅÊòæÁ§∫ÁöÑ‰ΩçÊï∞
 582:d:/liteos/code/WIFI2/Hardware/LCD\lcd.c ****  * @param   size	Â≠ó‰ΩìÂ§ßÂ∞è
 583:d:/liteos/code/WIFI2/Hardware/LCD\lcd.c ****  * @param   mode	1:È´ò‰ΩçÊòæÁ§∫0		0:È´ò‰Ωç‰∏çÊòæÁ§∫
 584:d:/liteos/code/WIFI2/Hardware/LCD\lcd.c ****  *
 585:d:/liteos/code/WIFI2/Hardware/LCD\lcd.c ****  * @return  void
 586:d:/liteos/code/WIFI2/Hardware/LCD\lcd.c ****  */
 587:d:/liteos/code/WIFI2/Hardware/LCD\lcd.c **** void LCD_ShowxNum(uint16_t x, uint16_t y, uint32_t num, uint8_t len, uint8_t size, uint8_t mode)
 588:d:/liteos/code/WIFI2/Hardware/LCD\lcd.c **** {
 1780              		.loc 1 588 1 is_stmt 1 view -0
 1781              		.cfi_startproc
 1782              		@ args = 8, pretend = 0, frame = 16
 1783              		@ frame_needed = 0, uses_anonymous_args = 0
 589:d:/liteos/code/WIFI2/Hardware/LCD\lcd.c ****     uint8_t t, temp;
 1784              		.loc 1 589 5 view .LVU491
 590:d:/liteos/code/WIFI2/Hardware/LCD\lcd.c ****     uint8_t enshow = 0;
 1785              		.loc 1 590 5 view .LVU492
 591:d:/liteos/code/WIFI2/Hardware/LCD\lcd.c **** 
 592:d:/liteos/code/WIFI2/Hardware/LCD\lcd.c ****     for(t = 0; t < len; t++)
 1786              		.loc 1 592 5 view .LVU493
 588:d:/liteos/code/WIFI2/Hardware/LCD\lcd.c ****     uint8_t t, temp;
 1787              		.loc 1 588 1 is_stmt 0 view .LVU494
 1788 0000 2DE9F04F 		push	{r4, r5, r6, r7, r8, r9, r10, fp, lr}
 1789              	.LCFI30:
 1790              		.cfi_def_cfa_offset 36
 1791              		.cfi_offset 4, -36
 1792              		.cfi_offset 5, -32
 1793              		.cfi_offset 6, -28
 1794              		.cfi_offset 7, -24
 1795              		.cfi_offset 8, -20
 1796              		.cfi_offset 9, -16
 1797              		.cfi_offset 10, -12
 1798              		.cfi_offset 11, -8
 1799              		.cfi_offset 14, -4
 1800 0004 85B0     		sub	sp, sp, #20
 1801              	.LCFI31:
 1802              		.cfi_def_cfa_offset 56
 588:d:/liteos/code/WIFI2/Hardware/LCD\lcd.c ****     uint8_t t, temp;
ARM GAS  C:\Users\≤‹º“∫¿\AppData\Local\Temp\ccb8bRq8.s 			page 48


 1803              		.loc 1 588 1 view .LVU495
 1804 0006 1D46     		mov	r5, r3
 1805 0008 9DF83830 		ldrb	r3, [sp, #56]	@ zero_extendqisi2
 1806              	.LVL188:
 588:d:/liteos/code/WIFI2/Hardware/LCD\lcd.c ****     uint8_t t, temp;
 1807              		.loc 1 588 1 view .LVU496
 1808 000c 9DF83CA0 		ldrb	r10, [sp, #60]	@ zero_extendqisi2
 1809 0010 013D     		subs	r5, r5, #1
 1810              		.loc 1 592 5 view .LVU497
 1811 0012 0026     		movs	r6, #0
 588:d:/liteos/code/WIFI2/Hardware/LCD\lcd.c ****     uint8_t t, temp;
 1812              		.loc 1 588 1 view .LVU498
 1813 0014 9046     		mov	r8, r2
 593:d:/liteos/code/WIFI2/Hardware/LCD\lcd.c ****     {
 594:d:/liteos/code/WIFI2/Hardware/LCD\lcd.c ****         temp = (num / LCD_Pow(10, len - t - 1)) % 10;
 595:d:/liteos/code/WIFI2/Hardware/LCD\lcd.c **** 
 596:d:/liteos/code/WIFI2/Hardware/LCD\lcd.c ****         if(enshow == 0 && t < (len - 1))
 597:d:/liteos/code/WIFI2/Hardware/LCD\lcd.c ****         {
 598:d:/liteos/code/WIFI2/Hardware/LCD\lcd.c ****             if(temp == 0)
 599:d:/liteos/code/WIFI2/Hardware/LCD\lcd.c ****             {
 600:d:/liteos/code/WIFI2/Hardware/LCD\lcd.c ****                 if(mode)LCD_ShowChar(x + (size / 2)*t, y, '0', size);
 601:d:/liteos/code/WIFI2/Hardware/LCD\lcd.c **** 
 602:d:/liteos/code/WIFI2/Hardware/LCD\lcd.c ****                 else
 603:d:/liteos/code/WIFI2/Hardware/LCD\lcd.c ****                     LCD_ShowChar(x + (size / 2)*t, y, ' ', size);
 604:d:/liteos/code/WIFI2/Hardware/LCD\lcd.c **** 
 605:d:/liteos/code/WIFI2/Hardware/LCD\lcd.c ****                 continue;
 606:d:/liteos/code/WIFI2/Hardware/LCD\lcd.c ****             }
 607:d:/liteos/code/WIFI2/Hardware/LCD\lcd.c **** 
 608:d:/liteos/code/WIFI2/Hardware/LCD\lcd.c ****             else enshow = 1;
 609:d:/liteos/code/WIFI2/Hardware/LCD\lcd.c ****         }
 610:d:/liteos/code/WIFI2/Hardware/LCD\lcd.c **** 
 611:d:/liteos/code/WIFI2/Hardware/LCD\lcd.c ****         LCD_ShowChar(x + (size / 2)*t, y, temp + '0', size);
 1814              		.loc 1 611 36 view .LVU499
 1815 0016 4FEA530B 		lsr	fp, r3, #1
 1816 001a ECB2     		uxtb	r4, r5
 590:d:/liteos/code/WIFI2/Hardware/LCD\lcd.c **** 
 1817              		.loc 1 590 13 view .LVU500
 1818 001c 3746     		mov	r7, r6
 1819 001e 4FF00A09 		mov	r9, #10
 1820              	.LVL189:
 1821              	.L102:
 592:d:/liteos/code/WIFI2/Hardware/LCD\lcd.c ****     {
 1822              		.loc 1 592 16 is_stmt 1 discriminator 1 view .LVU501
 592:d:/liteos/code/WIFI2/Hardware/LCD\lcd.c ****     {
 1823              		.loc 1 592 5 is_stmt 0 discriminator 1 view .LVU502
 1824 0022 FF2C     		cmp	r4, #255
 1825 0024 29D1     		bne	.L109
 612:d:/liteos/code/WIFI2/Hardware/LCD\lcd.c ****     }
 613:d:/liteos/code/WIFI2/Hardware/LCD\lcd.c **** }
 1826              		.loc 1 613 1 view .LVU503
 1827 0026 05B0     		add	sp, sp, #20
 1828              	.LCFI32:
 1829              		.cfi_remember_state
 1830              		.cfi_def_cfa_offset 36
 1831              		@ sp needed
 1832 0028 BDE8F08F 		pop	{r4, r5, r6, r7, r8, r9, r10, fp, pc}
 1833              	.LVL190:
ARM GAS  C:\Users\≤‹º“∫¿\AppData\Local\Temp\ccb8bRq8.s 			page 49


 1834              	.L103:
 1835              	.LCFI33:
 1836              		.cfi_restore_state
 1837              	.LBB56:
 1838              	.LBB57:
 535:d:/liteos/code/WIFI2/Hardware/LCD\lcd.c **** 
 1839              		.loc 1 535 15 is_stmt 1 view .LVU504
 535:d:/liteos/code/WIFI2/Hardware/LCD\lcd.c **** 
 1840              		.loc 1 535 22 is_stmt 0 view .LVU505
 1841 002c 09FB02F2 		mul	r2, r9, r2
 1842              	.LVL191:
 1843              	.L107:
 535:d:/liteos/code/WIFI2/Hardware/LCD\lcd.c **** 
 1844              		.loc 1 535 10 is_stmt 1 view .LVU506
 535:d:/liteos/code/WIFI2/Hardware/LCD\lcd.c **** 
 1845              		.loc 1 535 12 is_stmt 0 view .LVU507
 1846 0030 0CF1FF3C 		add	ip, ip, #-1
 1847              	.LVL192:
 535:d:/liteos/code/WIFI2/Hardware/LCD\lcd.c **** 
 1848              		.loc 1 535 12 view .LVU508
 1849 0034 5FFA8CFC 		uxtb	ip, ip
 1850              	.LVL193:
 535:d:/liteos/code/WIFI2/Hardware/LCD\lcd.c **** 
 1851              		.loc 1 535 10 view .LVU509
 1852 0038 BCF1FF0F 		cmp	ip, #255
 1853 003c F6D1     		bne	.L103
 537:d:/liteos/code/WIFI2/Hardware/LCD\lcd.c **** }
 1854              		.loc 1 537 5 is_stmt 1 view .LVU510
 1855              	.LVL194:
 537:d:/liteos/code/WIFI2/Hardware/LCD\lcd.c **** }
 1856              		.loc 1 537 5 is_stmt 0 view .LVU511
 1857              	.LBE57:
 1858              	.LBE56:
 594:d:/liteos/code/WIFI2/Hardware/LCD\lcd.c **** 
 1859              		.loc 1 594 21 view .LVU512
 1860 003e B8FBF2F2 		udiv	r2, r8, r2
 594:d:/liteos/code/WIFI2/Hardware/LCD\lcd.c **** 
 1861              		.loc 1 594 49 view .LVU513
 1862 0042 B2FBF9FC 		udiv	ip, r2, r9
 1863 0046 09FB1C22 		mls	r2, r9, ip, r2
 594:d:/liteos/code/WIFI2/Hardware/LCD\lcd.c **** 
 1864              		.loc 1 594 14 view .LVU514
 1865 004a 5FFA82FC 		uxtb	ip, r2
 1866              	.LVL195:
 596:d:/liteos/code/WIFI2/Hardware/LCD\lcd.c ****         {
 1867              		.loc 1 596 9 is_stmt 1 view .LVU515
 596:d:/liteos/code/WIFI2/Hardware/LCD\lcd.c ****         {
 1868              		.loc 1 596 11 is_stmt 0 view .LVU516
 1869 004e FFB9     		cbnz	r7, .L104
 596:d:/liteos/code/WIFI2/Hardware/LCD\lcd.c ****         {
 1870              		.loc 1 596 24 discriminator 1 view .LVU517
 1871 0050 B542     		cmp	r5, r6
 1872 0052 1DDD     		ble	.L104
 598:d:/liteos/code/WIFI2/Hardware/LCD\lcd.c ****             {
 1873              		.loc 1 598 13 is_stmt 1 view .LVU518
 598:d:/liteos/code/WIFI2/Hardware/LCD\lcd.c ****             {
 1874              		.loc 1 598 15 is_stmt 0 view .LVU519
ARM GAS  C:\Users\≤‹º“∫¿\AppData\Local\Temp\ccb8bRq8.s 			page 50


 1875 0054 DAB9     		cbnz	r2, .L108
 600:d:/liteos/code/WIFI2/Hardware/LCD\lcd.c **** 
 1876              		.loc 1 600 17 is_stmt 1 view .LVU520
 600:d:/liteos/code/WIFI2/Hardware/LCD\lcd.c **** 
 1877              		.loc 1 600 25 is_stmt 0 view .LVU521
 1878 0056 0393     		str	r3, [sp, #12]
 600:d:/liteos/code/WIFI2/Hardware/LCD\lcd.c **** 
 1879              		.loc 1 600 19 view .LVU522
 1880 0058 BAF1000F 		cmp	r10, #0
 1881 005c 10D0     		beq	.L105
 600:d:/liteos/code/WIFI2/Hardware/LCD\lcd.c **** 
 1882              		.loc 1 600 25 is_stmt 1 discriminator 1 view .LVU523
 1883 005e 3022     		movs	r2, #48
 1884 0060 CDE90101 		strd	r0, r1, [sp, #4]
 1885 0064 FFF7FEFF 		bl	LCD_ShowChar
 1886              	.LVL196:
 1887              	.L110:
 600:d:/liteos/code/WIFI2/Hardware/LCD\lcd.c **** 
 1888              		.loc 1 600 25 is_stmt 0 discriminator 1 view .LVU524
 1889 0068 DDE90101 		ldrd	r0, r1, [sp, #4]
 1890 006c 039B     		ldr	r3, [sp, #12]
 1891              	.L106:
 1892              	.LVL197:
 592:d:/liteos/code/WIFI2/Hardware/LCD\lcd.c ****     {
 1893              		.loc 1 592 25 is_stmt 1 discriminator 2 view .LVU525
 592:d:/liteos/code/WIFI2/Hardware/LCD\lcd.c ****     {
 1894              		.loc 1 592 25 is_stmt 0 discriminator 2 view .LVU526
 1895 006e 5844     		add	r0, r0, fp
 1896 0070 013C     		subs	r4, r4, #1
 1897 0072 0136     		adds	r6, r6, #1
 1898              	.LVL198:
 592:d:/liteos/code/WIFI2/Hardware/LCD\lcd.c ****     {
 1899              		.loc 1 592 25 discriminator 2 view .LVU527
 1900 0074 80B2     		uxth	r0, r0
 1901 0076 E4B2     		uxtb	r4, r4
 1902 0078 D3E7     		b	.L102
 1903              	.LVL199:
 1904              	.L109:
 592:d:/liteos/code/WIFI2/Hardware/LCD\lcd.c ****     {
 1905              		.loc 1 592 25 discriminator 2 view .LVU528
 1906 007a A446     		mov	ip, r4
 1907              	.LBB59:
 1908              	.LBB58:
 533:d:/liteos/code/WIFI2/Hardware/LCD\lcd.c **** 
 1909              		.loc 1 533 14 view .LVU529
 1910 007c 0122     		movs	r2, #1
 1911 007e D7E7     		b	.L107
 1912              	.LVL200:
 1913              	.L105:
 533:d:/liteos/code/WIFI2/Hardware/LCD\lcd.c **** 
 1914              		.loc 1 533 14 view .LVU530
 1915              	.LBE58:
 1916              	.LBE59:
 603:d:/liteos/code/WIFI2/Hardware/LCD\lcd.c **** 
 1917              		.loc 1 603 21 is_stmt 1 view .LVU531
 1918 0080 2022     		movs	r2, #32
 1919 0082 CDE90101 		strd	r0, r1, [sp, #4]
ARM GAS  C:\Users\≤‹º“∫¿\AppData\Local\Temp\ccb8bRq8.s 			page 51


 1920 0086 5746     		mov	r7, r10
 1921              	.LVL201:
 603:d:/liteos/code/WIFI2/Hardware/LCD\lcd.c **** 
 1922              		.loc 1 603 21 is_stmt 0 view .LVU532
 1923 0088 FFF7FEFF 		bl	LCD_ShowChar
 1924              	.LVL202:
 603:d:/liteos/code/WIFI2/Hardware/LCD\lcd.c **** 
 1925              		.loc 1 603 21 view .LVU533
 1926 008c ECE7     		b	.L110
 1927              	.LVL203:
 1928              	.L108:
 603:d:/liteos/code/WIFI2/Hardware/LCD\lcd.c **** 
 1929              		.loc 1 603 21 view .LVU534
 1930 008e 0127     		movs	r7, #1
 1931              	.LVL204:
 1932              	.L104:
 611:d:/liteos/code/WIFI2/Hardware/LCD\lcd.c ****     }
 1933              		.loc 1 611 9 is_stmt 1 view .LVU535
 1934 0090 0CF13002 		add	r2, ip, #48
 1935 0094 D2B2     		uxtb	r2, r2
 1936 0096 CDE90101 		strd	r0, r1, [sp, #4]
 1937 009a 0393     		str	r3, [sp, #12]
 1938 009c FFF7FEFF 		bl	LCD_ShowChar
 1939              	.LVL205:
 611:d:/liteos/code/WIFI2/Hardware/LCD\lcd.c ****     }
 1940              		.loc 1 611 9 is_stmt 0 view .LVU536
 1941 00a0 DDE90213 		ldrd	r1, r3, [sp, #8]
 1942 00a4 0198     		ldr	r0, [sp, #4]
 1943 00a6 E2E7     		b	.L106
 1944              		.cfi_endproc
 1945              	.LFE305:
 1947              		.section	.text.LCD_ShowString,"ax",%progbits
 1948              		.align	1
 1949              		.global	LCD_ShowString
 1950              		.syntax unified
 1951              		.thumb
 1952              		.thumb_func
 1953              		.fpu fpv4-sp-d16
 1955              	LCD_ShowString:
 1956              	.LVL206:
 1957              	.LFB306:
 614:d:/liteos/code/WIFI2/Hardware/LCD\lcd.c **** 
 615:d:/liteos/code/WIFI2/Hardware/LCD\lcd.c **** 
 616:d:/liteos/code/WIFI2/Hardware/LCD\lcd.c **** /**
 617:d:/liteos/code/WIFI2/Hardware/LCD\lcd.c ****  * @brief	ÊòæÁ§∫Â≠óÁ¨¶‰∏≤
 618:d:/liteos/code/WIFI2/Hardware/LCD\lcd.c ****  *
 619:d:/liteos/code/WIFI2/Hardware/LCD\lcd.c ****  * @param   x,y		Ëµ∑ÁÇπÂùêÊ†á
 620:d:/liteos/code/WIFI2/Hardware/LCD\lcd.c ****  * @param   width	Â≠óÁ¨¶ÊòæÁ§∫Âå∫ÂüüÂÆΩÂ∫¶
 621:d:/liteos/code/WIFI2/Hardware/LCD\lcd.c ****  * @param   height	Â≠óÁ¨¶ÊòæÁ§∫Âå∫ÂüüÈ´òÂ∫¶
 622:d:/liteos/code/WIFI2/Hardware/LCD\lcd.c ****  * @param   size	Â≠ó‰ΩìÂ§ßÂ∞è
 623:d:/liteos/code/WIFI2/Hardware/LCD\lcd.c ****  * @param   p		Â≠óÁ¨¶‰∏≤Ëµ∑ÂßãÂú∞ÂùÄ
 624:d:/liteos/code/WIFI2/Hardware/LCD\lcd.c ****  *
 625:d:/liteos/code/WIFI2/Hardware/LCD\lcd.c ****  * @return  void
 626:d:/liteos/code/WIFI2/Hardware/LCD\lcd.c ****  */
 627:d:/liteos/code/WIFI2/Hardware/LCD\lcd.c **** void LCD_ShowString(uint16_t x, uint16_t y, uint16_t width, uint16_t height, uint8_t size, char *p)
 628:d:/liteos/code/WIFI2/Hardware/LCD\lcd.c **** {
 1958              		.loc 1 628 1 is_stmt 1 view -0
ARM GAS  C:\Users\≤‹º“∫¿\AppData\Local\Temp\ccb8bRq8.s 			page 52


 1959              		.cfi_startproc
 1960              		@ args = 8, pretend = 0, frame = 0
 1961              		@ frame_needed = 0, uses_anonymous_args = 0
 629:d:/liteos/code/WIFI2/Hardware/LCD\lcd.c ****     uint8_t x0 = x;
 1962              		.loc 1 629 5 view .LVU538
 630:d:/liteos/code/WIFI2/Hardware/LCD\lcd.c ****     width += x;
 1963              		.loc 1 630 5 view .LVU539
 628:d:/liteos/code/WIFI2/Hardware/LCD\lcd.c ****     uint8_t x0 = x;
 1964              		.loc 1 628 1 is_stmt 0 view .LVU540
 1965 0000 2DE9F84F 		push	{r3, r4, r5, r6, r7, r8, r9, r10, fp, lr}
 1966              	.LCFI34:
 1967              		.cfi_def_cfa_offset 40
 1968              		.cfi_offset 3, -40
 1969              		.cfi_offset 4, -36
 1970              		.cfi_offset 5, -32
 1971              		.cfi_offset 6, -28
 1972              		.cfi_offset 7, -24
 1973              		.cfi_offset 8, -20
 1974              		.cfi_offset 9, -16
 1975              		.cfi_offset 10, -12
 1976              		.cfi_offset 11, -8
 1977              		.cfi_offset 14, -4
 631:d:/liteos/code/WIFI2/Hardware/LCD\lcd.c ****     height += y;
 1978              		.loc 1 631 12 view .LVU541
 1979 0004 5F18     		adds	r7, r3, r1
 628:d:/liteos/code/WIFI2/Hardware/LCD\lcd.c ****     uint8_t x0 = x;
 1980              		.loc 1 628 1 view .LVU542
 1981 0006 9DF82890 		ldrb	r9, [sp, #40]	@ zero_extendqisi2
 1982 000a 0B9B     		ldr	r3, [sp, #44]
 1983              	.LVL207:
 630:d:/liteos/code/WIFI2/Hardware/LCD\lcd.c ****     width += x;
 1984              		.loc 1 630 11 view .LVU543
 1985 000c 0244     		add	r2, r2, r0
 1986              	.LVL208:
 628:d:/liteos/code/WIFI2/Hardware/LCD\lcd.c ****     uint8_t x0 = x;
 1987              		.loc 1 628 1 view .LVU544
 1988 000e 0D46     		mov	r5, r1
 630:d:/liteos/code/WIFI2/Hardware/LCD\lcd.c ****     width += x;
 1989              		.loc 1 630 11 view .LVU545
 1990 0010 96B2     		uxth	r6, r2
 1991              	.LVL209:
 1992              		.loc 1 631 5 is_stmt 1 view .LVU546
 1993              		.loc 1 631 12 is_stmt 0 view .LVU547
 1994 0012 BFB2     		uxth	r7, r7
 1995              	.LVL210:
 632:d:/liteos/code/WIFI2/Hardware/LCD\lcd.c **** 
 633:d:/liteos/code/WIFI2/Hardware/LCD\lcd.c ****     while((*p <= '~') && (*p >= ' ')) //Âà§Êñ≠ÊòØ‰∏çÊòØÈùûÊ≥ïÂ≠óÁ¨¶!
 1996              		.loc 1 633 5 is_stmt 1 view .LVU548
 634:d:/liteos/code/WIFI2/Hardware/LCD\lcd.c ****     {
 635:d:/liteos/code/WIFI2/Hardware/LCD\lcd.c ****         if(x >= width)
 636:d:/liteos/code/WIFI2/Hardware/LCD\lcd.c ****         {
 637:d:/liteos/code/WIFI2/Hardware/LCD\lcd.c ****             x = x0;
 638:d:/liteos/code/WIFI2/Hardware/LCD\lcd.c ****             y += size;
 639:d:/liteos/code/WIFI2/Hardware/LCD\lcd.c ****         }
 640:d:/liteos/code/WIFI2/Hardware/LCD\lcd.c **** 
 641:d:/liteos/code/WIFI2/Hardware/LCD\lcd.c ****         if(y >= height)break; //ÈÄÄÂá∫
 642:d:/liteos/code/WIFI2/Hardware/LCD\lcd.c **** 
ARM GAS  C:\Users\≤‹º“∫¿\AppData\Local\Temp\ccb8bRq8.s 			page 53


 643:d:/liteos/code/WIFI2/Hardware/LCD\lcd.c ****         LCD_ShowChar(x, y, *p, size);
 644:d:/liteos/code/WIFI2/Hardware/LCD\lcd.c ****         x += size / 2;
 1997              		.loc 1 644 11 is_stmt 0 view .LVU549
 1998 0014 4FEA590A 		lsr	r10, r9, #1
 1999 0018 03F1FF38 		add	r8, r3, #-1
 633:d:/liteos/code/WIFI2/Hardware/LCD\lcd.c ****     {
 2000              		.loc 1 633 10 view .LVU550
 2001 001c 0446     		mov	r4, r0
 2002 001e 5FFA80FB 		uxtb	fp, r0
 2003              	.LVL211:
 2004              	.L112:
 633:d:/liteos/code/WIFI2/Hardware/LCD\lcd.c ****     {
 2005              		.loc 1 633 10 is_stmt 1 view .LVU551
 633:d:/liteos/code/WIFI2/Hardware/LCD\lcd.c ****     {
 2006              		.loc 1 633 12 is_stmt 0 view .LVU552
 2007 0022 18F8012F 		ldrb	r2, [r8, #1]!	@ zero_extendqisi2
 2008              	.LVL212:
 633:d:/liteos/code/WIFI2/Hardware/LCD\lcd.c ****     {
 2009              		.loc 1 633 10 view .LVU553
 2010 0026 A2F12003 		sub	r3, r2, #32
 2011 002a 5E2B     		cmp	r3, #94
 2012 002c 01D9     		bls	.L115
 2013              	.L111:
 645:d:/liteos/code/WIFI2/Hardware/LCD\lcd.c ****         p++;
 646:d:/liteos/code/WIFI2/Hardware/LCD\lcd.c ****     }
 647:d:/liteos/code/WIFI2/Hardware/LCD\lcd.c **** }
 2014              		.loc 1 647 1 view .LVU554
 2015 002e BDE8F88F 		pop	{r3, r4, r5, r6, r7, r8, r9, r10, fp, pc}
 2016              	.LVL213:
 2017              	.L115:
 635:d:/liteos/code/WIFI2/Hardware/LCD\lcd.c ****         {
 2018              		.loc 1 635 9 is_stmt 1 view .LVU555
 635:d:/liteos/code/WIFI2/Hardware/LCD\lcd.c ****         {
 2019              		.loc 1 635 11 is_stmt 0 view .LVU556
 2020 0032 B442     		cmp	r4, r6
 637:d:/liteos/code/WIFI2/Hardware/LCD\lcd.c ****             y += size;
 2021              		.loc 1 637 13 is_stmt 1 view .LVU557
 638:d:/liteos/code/WIFI2/Hardware/LCD\lcd.c ****         }
 2022              		.loc 1 638 15 is_stmt 0 view .LVU558
 2023 0034 22BF     		ittt	cs
 2024 0036 4D44     		addcs	r5, r5, r9
 2025              	.LVL214:
 638:d:/liteos/code/WIFI2/Hardware/LCD\lcd.c ****         }
 2026              		.loc 1 638 15 view .LVU559
 2027 0038 ADB2     		uxthcs	r5, r5
 2028 003a 5C46     		movcs	r4, fp
 2029              	.LVL215:
 638:d:/liteos/code/WIFI2/Hardware/LCD\lcd.c ****         }
 2030              		.loc 1 638 13 is_stmt 1 view .LVU560
 641:d:/liteos/code/WIFI2/Hardware/LCD\lcd.c **** 
 2031              		.loc 1 641 9 view .LVU561
 641:d:/liteos/code/WIFI2/Hardware/LCD\lcd.c **** 
 2032              		.loc 1 641 11 is_stmt 0 view .LVU562
 2033 003c BD42     		cmp	r5, r7
 2034 003e F6D2     		bcs	.L111
 643:d:/liteos/code/WIFI2/Hardware/LCD\lcd.c ****         x += size / 2;
 2035              		.loc 1 643 9 is_stmt 1 view .LVU563
ARM GAS  C:\Users\≤‹º“∫¿\AppData\Local\Temp\ccb8bRq8.s 			page 54


 2036 0040 2046     		mov	r0, r4
 2037 0042 4B46     		mov	r3, r9
 2038 0044 2946     		mov	r1, r5
 644:d:/liteos/code/WIFI2/Hardware/LCD\lcd.c ****         p++;
 2039              		.loc 1 644 11 is_stmt 0 view .LVU564
 2040 0046 5444     		add	r4, r4, r10
 2041              	.LVL216:
 643:d:/liteos/code/WIFI2/Hardware/LCD\lcd.c ****         x += size / 2;
 2042              		.loc 1 643 9 view .LVU565
 2043 0048 FFF7FEFF 		bl	LCD_ShowChar
 2044              	.LVL217:
 644:d:/liteos/code/WIFI2/Hardware/LCD\lcd.c ****         p++;
 2045              		.loc 1 644 9 is_stmt 1 view .LVU566
 644:d:/liteos/code/WIFI2/Hardware/LCD\lcd.c ****         p++;
 2046              		.loc 1 644 11 is_stmt 0 view .LVU567
 2047 004c A4B2     		uxth	r4, r4
 2048              	.LVL218:
 645:d:/liteos/code/WIFI2/Hardware/LCD\lcd.c ****     }
 2049              		.loc 1 645 9 is_stmt 1 view .LVU568
 645:d:/liteos/code/WIFI2/Hardware/LCD\lcd.c ****     }
 2050              		.loc 1 645 9 is_stmt 0 view .LVU569
 2051 004e E8E7     		b	.L112
 2052              		.cfi_endproc
 2053              	.LFE306:
 2055              		.section	.text.LCD_Show_Image,"ax",%progbits
 2056              		.align	1
 2057              		.global	LCD_Show_Image
 2058              		.syntax unified
 2059              		.thumb
 2060              		.thumb_func
 2061              		.fpu fpv4-sp-d16
 2063              	LCD_Show_Image:
 2064              	.LVL219:
 2065              	.LFB307:
 648:d:/liteos/code/WIFI2/Hardware/LCD\lcd.c **** 
 649:d:/liteos/code/WIFI2/Hardware/LCD\lcd.c **** 
 650:d:/liteos/code/WIFI2/Hardware/LCD\lcd.c **** /**
 651:d:/liteos/code/WIFI2/Hardware/LCD\lcd.c ****  * @brief	ÊòæÁ§∫ÂõæÁâá
 652:d:/liteos/code/WIFI2/Hardware/LCD\lcd.c ****  *
 653:d:/liteos/code/WIFI2/Hardware/LCD\lcd.c ****  * @remark	Image2LcdÂèñÊ®°ÊñπÂºèÔºö	CËØ≠Ë®ÄÊï∞ÊçÆ/Ê∞¥Âπ≥Êâ´Êèè/16‰ΩçÁúüÂΩ©Ëâ≤(RGB565)/È´ò‰ΩçÂú®Ââç	
 654:d:/liteos/code/WIFI2/Hardware/LCD\lcd.c ****  *
 655:d:/liteos/code/WIFI2/Hardware/LCD\lcd.c ****  * @param   x,y		Ëµ∑ÁÇπÂùêÊ†á
 656:d:/liteos/code/WIFI2/Hardware/LCD\lcd.c ****  * @param   width	ÂõæÁâáÂÆΩÂ∫¶
 657:d:/liteos/code/WIFI2/Hardware/LCD\lcd.c ****  * @param   height	ÂõæÁâáÈ´òÂ∫¶
 658:d:/liteos/code/WIFI2/Hardware/LCD\lcd.c ****  * @param   p		ÂõæÁâáÁºìÂ≠òÊï∞ÊçÆËµ∑ÂßãÂú∞ÂùÄ
 659:d:/liteos/code/WIFI2/Hardware/LCD\lcd.c ****  *
 660:d:/liteos/code/WIFI2/Hardware/LCD\lcd.c ****  * @return  void
 661:d:/liteos/code/WIFI2/Hardware/LCD\lcd.c ****  */
 662:d:/liteos/code/WIFI2/Hardware/LCD\lcd.c **** void LCD_Show_Image(uint16_t x, uint16_t y, uint16_t width, uint16_t height, const uint8_t *p)
 663:d:/liteos/code/WIFI2/Hardware/LCD\lcd.c **** {
 2066              		.loc 1 663 1 is_stmt 1 view -0
 2067              		.cfi_startproc
 2068              		@ args = 4, pretend = 0, frame = 0
 2069              		@ frame_needed = 0, uses_anonymous_args = 0
 2070              		.loc 1 663 1 is_stmt 0 view .LVU571
 2071 0000 F8B5     		push	{r3, r4, r5, r6, r7, lr}
 2072              	.LCFI35:
ARM GAS  C:\Users\≤‹º“∫¿\AppData\Local\Temp\ccb8bRq8.s 			page 55


 2073              		.cfi_def_cfa_offset 24
 2074              		.cfi_offset 3, -24
 2075              		.cfi_offset 4, -20
 2076              		.cfi_offset 5, -16
 2077              		.cfi_offset 6, -12
 2078              		.cfi_offset 7, -8
 2079              		.cfi_offset 14, -4
 2080              		.loc 1 663 1 view .LVU572
 2081 0002 1C46     		mov	r4, r3
 664:d:/liteos/code/WIFI2/Hardware/LCD\lcd.c ****     if(x + width > LCD_Width || y + height > LCD_Height)
 2082              		.loc 1 664 10 view .LVU573
 2083 0004 8318     		adds	r3, r0, r2
 2084              	.LVL220:
 2085              		.loc 1 664 7 view .LVU574
 2086 0006 F02B     		cmp	r3, #240
 663:d:/liteos/code/WIFI2/Hardware/LCD\lcd.c ****     if(x + width > LCD_Width || y + height > LCD_Height)
 2087              		.loc 1 663 1 view .LVU575
 2088 0008 069E     		ldr	r6, [sp, #24]
 2089 000a 1746     		mov	r7, r2
 2090              		.loc 1 664 5 is_stmt 1 view .LVU576
 2091              		.loc 1 664 7 is_stmt 0 view .LVU577
 2092 000c 29DC     		bgt	.L116
 2093              		.loc 1 664 35 discriminator 1 view .LVU578
 2094 000e 0B19     		adds	r3, r1, r4
 2095              		.loc 1 664 30 discriminator 1 view .LVU579
 2096 0010 F02B     		cmp	r3, #240
 2097 0012 26DC     		bgt	.L116
 665:d:/liteos/code/WIFI2/Hardware/LCD\lcd.c ****     {
 666:d:/liteos/code/WIFI2/Hardware/LCD\lcd.c ****         return;
 667:d:/liteos/code/WIFI2/Hardware/LCD\lcd.c ****     }
 668:d:/liteos/code/WIFI2/Hardware/LCD\lcd.c **** 
 669:d:/liteos/code/WIFI2/Hardware/LCD\lcd.c ****     LCD_Address_Set(x, y, x + width - 1, y + height - 1);
 2098              		.loc 1 669 5 is_stmt 1 view .LVU580
 2099 0014 631E     		subs	r3, r4, #1
 2100 0016 013A     		subs	r2, r2, #1
 2101              	.LVL221:
 2102              		.loc 1 669 5 is_stmt 0 view .LVU581
 2103 0018 0B44     		add	r3, r3, r1
 2104 001a 0244     		add	r2, r2, r0
 2105 001c 9BB2     		uxth	r3, r3
 2106 001e 92B2     		uxth	r2, r2
 2107 0020 17FB04F5 		smulbb	r5, r7, r4
 670:d:/liteos/code/WIFI2/Hardware/LCD\lcd.c **** 
 671:d:/liteos/code/WIFI2/Hardware/LCD\lcd.c ****     LCD_DC(1);
 672:d:/liteos/code/WIFI2/Hardware/LCD\lcd.c **** 
 673:d:/liteos/code/WIFI2/Hardware/LCD\lcd.c **** 	if(width * height*2>65535)
 2108              		.loc 1 673 11 view .LVU582
 2109 0024 7C43     		muls	r4, r7, r4
 669:d:/liteos/code/WIFI2/Hardware/LCD\lcd.c **** 
 2110              		.loc 1 669 5 view .LVU583
 2111 0026 FFF7FEFF 		bl	LCD_Address_Set
 2112              	.LVL222:
 671:d:/liteos/code/WIFI2/Hardware/LCD\lcd.c **** 
 2113              		.loc 1 671 5 is_stmt 1 view .LVU584
 2114              		.loc 1 673 19 is_stmt 0 view .LVU585
 2115 002a 6400     		lsls	r4, r4, #1
 671:d:/liteos/code/WIFI2/Hardware/LCD\lcd.c **** 
ARM GAS  C:\Users\≤‹º“∫¿\AppData\Local\Temp\ccb8bRq8.s 			page 56


 2116              		.loc 1 671 5 view .LVU586
 2117 002c 0D48     		ldr	r0, .L120
 2118 002e 0122     		movs	r2, #1
 2119 0030 4021     		movs	r1, #64
 2120 0032 FFF7FEFF 		bl	HAL_GPIO_WritePin
 2121              	.LVL223:
 2122              		.loc 1 673 2 is_stmt 1 view .LVU587
 2123 0036 6D00     		lsls	r5, r5, #1
 2124              		.loc 1 673 4 is_stmt 0 view .LVU588
 2125 0038 B4F5803F 		cmp	r4, #65536
 2126 003c ADB2     		uxth	r5, r5
 2127 003e 0DDB     		blt	.L118
 674:d:/liteos/code/WIFI2/Hardware/LCD\lcd.c **** 	{
 675:d:/liteos/code/WIFI2/Hardware/LCD\lcd.c **** 		LCD_SPI_Send((uint8_t *)p, 65535);
 2128              		.loc 1 675 3 is_stmt 1 view .LVU589
 2129              	.LVL224:
 2130              	.LBB60:
 2131              	.LBI60:
  82:d:/liteos/code/WIFI2/Hardware/LCD\lcd.c **** {
 2132              		.loc 1 82 13 view .LVU590
 2133              	.LBB61:
  84:d:/liteos/code/WIFI2/Hardware/LCD\lcd.c **** }
 2134              		.loc 1 84 5 view .LVU591
 2135 0040 4FF6FF71 		movw	r1, #65535
 2136 0044 3046     		mov	r0, r6
 2137 0046 FFF7FEFF 		bl	SPI2_WriteByte
 2138              	.LVL225:
  84:d:/liteos/code/WIFI2/Hardware/LCD\lcd.c **** }
 2139              		.loc 1 84 5 is_stmt 0 view .LVU592
 2140              	.LBE61:
 2141              	.LBE60:
 676:d:/liteos/code/WIFI2/Hardware/LCD\lcd.c **** 		LCD_SPI_Send((uint8_t *)(p+65535), width*height*2-65535);
 2142              		.loc 1 676 3 is_stmt 1 view .LVU593
 2143              	.LBB62:
 2144              	.LBI62:
  82:d:/liteos/code/WIFI2/Hardware/LCD\lcd.c **** {
 2145              		.loc 1 82 13 view .LVU594
 2146              	.LBB63:
  84:d:/liteos/code/WIFI2/Hardware/LCD\lcd.c **** }
 2147              		.loc 1 84 5 view .LVU595
 2148              	.LBE63:
 2149              	.LBE62:
 2150              		.loc 1 676 3 is_stmt 0 view .LVU596
 2151 004a 691C     		adds	r1, r5, #1
 2152              	.LBB65:
 2153              	.LBB64:
  84:d:/liteos/code/WIFI2/Hardware/LCD\lcd.c **** }
 2154              		.loc 1 84 5 view .LVU597
 2155 004c 06F57F40 		add	r0, r6, #65280
 2156 0050 89B2     		uxth	r1, r1
 2157 0052 FF30     		adds	r0, r0, #255
 2158              	.LVL226:
 2159              	.L119:
  84:d:/liteos/code/WIFI2/Hardware/LCD\lcd.c **** }
 2160              		.loc 1 84 5 view .LVU598
 2161              	.LBE64:
 2162              	.LBE65:
ARM GAS  C:\Users\≤‹º“∫¿\AppData\Local\Temp\ccb8bRq8.s 			page 57


 677:d:/liteos/code/WIFI2/Hardware/LCD\lcd.c **** 	}
 678:d:/liteos/code/WIFI2/Hardware/LCD\lcd.c **** 	else
 679:d:/liteos/code/WIFI2/Hardware/LCD\lcd.c **** 	{
 680:d:/liteos/code/WIFI2/Hardware/LCD\lcd.c **** 		LCD_SPI_Send((uint8_t *)p, width * height * 2);
 681:d:/liteos/code/WIFI2/Hardware/LCD\lcd.c **** 	}
 682:d:/liteos/code/WIFI2/Hardware/LCD\lcd.c **** }
 2163              		.loc 1 682 1 view .LVU599
 2164 0054 BDE8F840 		pop	{r3, r4, r5, r6, r7, lr}
 2165              	.LCFI36:
 2166              		.cfi_remember_state
 2167              		.cfi_restore 14
 2168              		.cfi_restore 7
 2169              		.cfi_restore 6
 2170              		.cfi_restore 5
 2171              		.cfi_restore 4
 2172              		.cfi_restore 3
 2173              		.cfi_def_cfa_offset 0
 2174              	.LVL227:
 2175              	.LBB66:
 2176              	.LBB67:
  84:d:/liteos/code/WIFI2/Hardware/LCD\lcd.c **** }
 2177              		.loc 1 84 5 view .LVU600
 2178 0058 FFF7FEBF 		b	SPI2_WriteByte
 2179              	.LVL228:
 2180              	.L118:
 2181              	.LCFI37:
 2182              		.cfi_restore_state
  84:d:/liteos/code/WIFI2/Hardware/LCD\lcd.c **** }
 2183              		.loc 1 84 5 view .LVU601
 2184              	.LBE67:
 2185              	.LBE66:
 680:d:/liteos/code/WIFI2/Hardware/LCD\lcd.c **** 	}
 2186              		.loc 1 680 3 is_stmt 1 view .LVU602
 2187              	.LBB69:
 2188              	.LBI66:
  82:d:/liteos/code/WIFI2/Hardware/LCD\lcd.c **** {
 2189              		.loc 1 82 13 view .LVU603
 2190              	.LBB68:
  84:d:/liteos/code/WIFI2/Hardware/LCD\lcd.c **** }
 2191              		.loc 1 84 5 view .LVU604
 2192 005c 2946     		mov	r1, r5
 2193 005e 3046     		mov	r0, r6
 2194 0060 F8E7     		b	.L119
 2195              	.LVL229:
 2196              	.L116:
  84:d:/liteos/code/WIFI2/Hardware/LCD\lcd.c **** }
 2197              		.loc 1 84 5 is_stmt 0 view .LVU605
 2198              	.LBE68:
 2199              	.LBE69:
 2200              		.loc 1 682 1 view .LVU606
 2201 0062 F8BD     		pop	{r3, r4, r5, r6, r7, pc}
 2202              	.LVL230:
 2203              	.L121:
 2204              		.loc 1 682 1 view .LVU607
 2205              		.align	2
 2206              	.L120:
 2207 0064 00080048 		.word	1207961600
ARM GAS  C:\Users\≤‹º“∫¿\AppData\Local\Temp\ccb8bRq8.s 			page 58


 2208              		.cfi_endproc
 2209              	.LFE307:
 2211              		.section	.text.LCD_Init,"ax",%progbits
 2212              		.align	1
 2213              		.global	LCD_Init
 2214              		.syntax unified
 2215              		.thumb
 2216              		.thumb_func
 2217              		.fpu fpv4-sp-d16
 2219              	LCD_Init:
 2220              	.LFB308:
 683:d:/liteos/code/WIFI2/Hardware/LCD\lcd.c **** 
 684:d:/liteos/code/WIFI2/Hardware/LCD\lcd.c **** 
 685:d:/liteos/code/WIFI2/Hardware/LCD\lcd.c **** /**
 686:d:/liteos/code/WIFI2/Hardware/LCD\lcd.c ****  * @brief	LCDÂàùÂßãÂåñ
 687:d:/liteos/code/WIFI2/Hardware/LCD\lcd.c ****  *
 688:d:/liteos/code/WIFI2/Hardware/LCD\lcd.c ****  * @param   void
 689:d:/liteos/code/WIFI2/Hardware/LCD\lcd.c ****  *
 690:d:/liteos/code/WIFI2/Hardware/LCD\lcd.c ****  * @return  void
 691:d:/liteos/code/WIFI2/Hardware/LCD\lcd.c ****  */
 692:d:/liteos/code/WIFI2/Hardware/LCD\lcd.c **** void LCD_Init(void)
 693:d:/liteos/code/WIFI2/Hardware/LCD\lcd.c **** {
 2221              		.loc 1 693 1 is_stmt 1 view -0
 2222              		.cfi_startproc
 2223              		@ args = 0, pretend = 0, frame = 32
 2224              		@ frame_needed = 0, uses_anonymous_args = 0
 694:d:/liteos/code/WIFI2/Hardware/LCD\lcd.c ****     LCD_Gpio_Init();	//Á°¨‰ª∂Êé•Âè£ÂàùÂßãÂåñ
 2225              		.loc 1 694 5 view .LVU609
 2226              	.LBB74:
 2227              	.LBI74:
  36:d:/liteos/code/WIFI2/Hardware/LCD\lcd.c **** {
 2228              		.loc 1 36 13 view .LVU610
 2229              	.LBB75:
  38:d:/liteos/code/WIFI2/Hardware/LCD\lcd.c **** 
 2230              		.loc 1 38 5 view .LVU611
  40:d:/liteos/code/WIFI2/Hardware/LCD\lcd.c ****     __HAL_RCC_GPIOC_CLK_ENABLE();
 2231              		.loc 1 40 5 view .LVU612
 2232              	.LBB76:
  40:d:/liteos/code/WIFI2/Hardware/LCD\lcd.c ****     __HAL_RCC_GPIOC_CLK_ENABLE();
 2233              		.loc 1 40 5 view .LVU613
  40:d:/liteos/code/WIFI2/Hardware/LCD\lcd.c ****     __HAL_RCC_GPIOC_CLK_ENABLE();
 2234              		.loc 1 40 5 view .LVU614
 2235 0000 8A4B     		ldr	r3, .L123
 2236              	.LBE76:
 2237              	.LBE75:
 2238              	.LBE74:
 693:d:/liteos/code/WIFI2/Hardware/LCD\lcd.c ****     LCD_Gpio_Init();	//Á°¨‰ª∂Êé•Âè£ÂàùÂßãÂåñ
 2239              		.loc 1 693 1 is_stmt 0 view .LVU615
 2240 0002 2DE9F041 		push	{r4, r5, r6, r7, r8, lr}
 2241              	.LCFI38:
 2242              		.cfi_def_cfa_offset 24
 2243              		.cfi_offset 4, -24
 2244              		.cfi_offset 5, -20
 2245              		.cfi_offset 6, -16
 2246              		.cfi_offset 7, -12
 2247              		.cfi_offset 8, -8
 2248              		.cfi_offset 14, -4
ARM GAS  C:\Users\≤‹º“∫¿\AppData\Local\Temp\ccb8bRq8.s 			page 59


 2249              	.LBB85:
 2250              	.LBB83:
 2251              	.LBB77:
  40:d:/liteos/code/WIFI2/Hardware/LCD\lcd.c ****     __HAL_RCC_GPIOC_CLK_ENABLE();
 2252              		.loc 1 40 5 view .LVU616
 2253 0006 DA6C     		ldr	r2, [r3, #76]
 2254              	.LBE77:
  52:d:/liteos/code/WIFI2/Hardware/LCD\lcd.c ****     HAL_GPIO_WritePin(GPIOB, GPIO_PIN_15, GPIO_PIN_RESET);
 2255              		.loc 1 52 5 view .LVU617
 2256 0008 894D     		ldr	r5, .L123+4
 2257              	.LBB78:
  40:d:/liteos/code/WIFI2/Hardware/LCD\lcd.c ****     __HAL_RCC_GPIOC_CLK_ENABLE();
 2258              		.loc 1 40 5 view .LVU618
 2259 000a 42F00202 		orr	r2, r2, #2
 2260 000e DA64     		str	r2, [r3, #76]
  40:d:/liteos/code/WIFI2/Hardware/LCD\lcd.c ****     __HAL_RCC_GPIOC_CLK_ENABLE();
 2261              		.loc 1 40 5 is_stmt 1 view .LVU619
 2262 0010 DA6C     		ldr	r2, [r3, #76]
 2263              	.LBE78:
 2264              	.LBE83:
 2265              	.LBE85:
 693:d:/liteos/code/WIFI2/Hardware/LCD\lcd.c ****     LCD_Gpio_Init();	//Á°¨‰ª∂Êé•Âè£ÂàùÂßãÂåñ
 2266              		.loc 1 693 1 is_stmt 0 view .LVU620
 2267 0012 88B0     		sub	sp, sp, #32
 2268              	.LCFI39:
 2269              		.cfi_def_cfa_offset 56
 2270              	.LBB86:
 2271              	.LBB84:
 2272              	.LBB79:
  40:d:/liteos/code/WIFI2/Hardware/LCD\lcd.c ****     __HAL_RCC_GPIOC_CLK_ENABLE();
 2273              		.loc 1 40 5 view .LVU621
 2274 0014 02F00202 		and	r2, r2, #2
 2275 0018 0192     		str	r2, [sp, #4]
  40:d:/liteos/code/WIFI2/Hardware/LCD\lcd.c ****     __HAL_RCC_GPIOC_CLK_ENABLE();
 2276              		.loc 1 40 5 is_stmt 1 view .LVU622
 2277 001a 019A     		ldr	r2, [sp, #4]
 2278              	.LBE79:
  40:d:/liteos/code/WIFI2/Hardware/LCD\lcd.c ****     __HAL_RCC_GPIOC_CLK_ENABLE();
 2279              		.loc 1 40 5 view .LVU623
  41:d:/liteos/code/WIFI2/Hardware/LCD\lcd.c **** 
 2280              		.loc 1 41 5 view .LVU624
 2281              	.LBB80:
  41:d:/liteos/code/WIFI2/Hardware/LCD\lcd.c **** 
 2282              		.loc 1 41 5 view .LVU625
  41:d:/liteos/code/WIFI2/Hardware/LCD\lcd.c **** 
 2283              		.loc 1 41 5 view .LVU626
 2284 001c DA6C     		ldr	r2, [r3, #76]
 2285 001e 42F00402 		orr	r2, r2, #4
 2286 0022 DA64     		str	r2, [r3, #76]
  41:d:/liteos/code/WIFI2/Hardware/LCD\lcd.c **** 
 2287              		.loc 1 41 5 view .LVU627
 2288 0024 DB6C     		ldr	r3, [r3, #76]
 2289 0026 03F00403 		and	r3, r3, #4
 2290              	.LBE80:
  49:d:/liteos/code/WIFI2/Hardware/LCD\lcd.c ****     GPIO_InitStruct.Pull = GPIO_PULLUP;
 2291              		.loc 1 49 26 is_stmt 0 view .LVU628
 2292 002a 0124     		movs	r4, #1
ARM GAS  C:\Users\≤‹º“∫¿\AppData\Local\Temp\ccb8bRq8.s 			page 60


 2293 002c 4FF40046 		mov	r6, #32768
 2294              	.LBB81:
  41:d:/liteos/code/WIFI2/Hardware/LCD\lcd.c **** 
 2295              		.loc 1 41 5 view .LVU629
 2296 0030 0293     		str	r3, [sp, #8]
  41:d:/liteos/code/WIFI2/Hardware/LCD\lcd.c **** 
 2297              		.loc 1 41 5 is_stmt 1 view .LVU630
 2298              	.LBE81:
  51:d:/liteos/code/WIFI2/Hardware/LCD\lcd.c ****     HAL_GPIO_Init(GPIOB, &GPIO_InitStruct);
 2299              		.loc 1 51 27 is_stmt 0 view .LVU631
 2300 0032 0227     		movs	r7, #2
  52:d:/liteos/code/WIFI2/Hardware/LCD\lcd.c ****     HAL_GPIO_WritePin(GPIOB, GPIO_PIN_15, GPIO_PIN_RESET);
 2301              		.loc 1 52 5 view .LVU632
 2302 0034 03A9     		add	r1, sp, #12
 2303 0036 2846     		mov	r0, r5
 2304              	.LBB82:
  41:d:/liteos/code/WIFI2/Hardware/LCD\lcd.c **** 
 2305              		.loc 1 41 5 view .LVU633
 2306 0038 029B     		ldr	r3, [sp, #8]
 2307              	.LBE82:
  41:d:/liteos/code/WIFI2/Hardware/LCD\lcd.c **** 
 2308              		.loc 1 41 5 is_stmt 1 view .LVU634
  48:d:/liteos/code/WIFI2/Hardware/LCD\lcd.c ****     GPIO_InitStruct.Mode = GPIO_MODE_OUTPUT_PP;
 2309              		.loc 1 48 5 view .LVU635
  51:d:/liteos/code/WIFI2/Hardware/LCD\lcd.c ****     HAL_GPIO_Init(GPIOB, &GPIO_InitStruct);
 2310              		.loc 1 51 27 is_stmt 0 view .LVU636
 2311 003a 0697     		str	r7, [sp, #24]
  49:d:/liteos/code/WIFI2/Hardware/LCD\lcd.c ****     GPIO_InitStruct.Pull = GPIO_PULLUP;
 2312              		.loc 1 49 26 view .LVU637
 2313 003c CDE90364 		strd	r6, r4, [sp, #12]
  50:d:/liteos/code/WIFI2/Hardware/LCD\lcd.c ****     GPIO_InitStruct.Speed = GPIO_SPEED_FREQ_HIGH;
 2314              		.loc 1 50 5 is_stmt 1 view .LVU638
  50:d:/liteos/code/WIFI2/Hardware/LCD\lcd.c ****     GPIO_InitStruct.Speed = GPIO_SPEED_FREQ_HIGH;
 2315              		.loc 1 50 26 is_stmt 0 view .LVU639
 2316 0040 0594     		str	r4, [sp, #20]
  51:d:/liteos/code/WIFI2/Hardware/LCD\lcd.c ****     HAL_GPIO_Init(GPIOB, &GPIO_InitStruct);
 2317              		.loc 1 51 5 is_stmt 1 view .LVU640
  52:d:/liteos/code/WIFI2/Hardware/LCD\lcd.c ****     HAL_GPIO_WritePin(GPIOB, GPIO_PIN_15, GPIO_PIN_RESET);
 2318              		.loc 1 52 5 view .LVU641
 2319 0042 FFF7FEFF 		bl	HAL_GPIO_Init
 2320              	.LVL231:
  53:d:/liteos/code/WIFI2/Hardware/LCD\lcd.c **** 	
 2321              		.loc 1 53 5 view .LVU642
 2322 0046 0022     		movs	r2, #0
 2323 0048 3146     		mov	r1, r6
 2324 004a 2846     		mov	r0, r5
 2325 004c FFF7FEFF 		bl	HAL_GPIO_WritePin
 2326              	.LVL232:
  55:d:/liteos/code/WIFI2/Hardware/LCD\lcd.c ****     GPIO_InitStruct.Mode = GPIO_MODE_OUTPUT_PP;
 2327              		.loc 1 55 2 view .LVU643
  58:d:/liteos/code/WIFI2/Hardware/LCD\lcd.c ****     HAL_GPIO_Init(GPIOC, &GPIO_InitStruct);
 2328              		.loc 1 58 27 is_stmt 0 view .LVU644
 2329 0050 CDE90547 		strd	r4, r7, [sp, #20]
  59:d:/liteos/code/WIFI2/Hardware/LCD\lcd.c ****     HAL_GPIO_WritePin(GPIOC ,GPIO_PIN_6 | GPIO_PIN_7, GPIO_PIN_RESET);
 2330              		.loc 1 59 5 view .LVU645
 2331 0054 774F     		ldr	r7, .L123+8
  55:d:/liteos/code/WIFI2/Hardware/LCD\lcd.c ****     GPIO_InitStruct.Mode = GPIO_MODE_OUTPUT_PP;
ARM GAS  C:\Users\≤‹º“∫¿\AppData\Local\Temp\ccb8bRq8.s 			page 61


 2332              		.loc 1 55 22 view .LVU646
 2333 0056 4FF0C008 		mov	r8, #192
  59:d:/liteos/code/WIFI2/Hardware/LCD\lcd.c ****     HAL_GPIO_WritePin(GPIOC ,GPIO_PIN_6 | GPIO_PIN_7, GPIO_PIN_RESET);
 2334              		.loc 1 59 5 view .LVU647
 2335 005a 03A9     		add	r1, sp, #12
 2336 005c 3846     		mov	r0, r7
  56:d:/liteos/code/WIFI2/Hardware/LCD\lcd.c ****     GPIO_InitStruct.Pull = GPIO_PULLUP;
 2337              		.loc 1 56 26 view .LVU648
 2338 005e CDE90384 		strd	r8, r4, [sp, #12]
  57:d:/liteos/code/WIFI2/Hardware/LCD\lcd.c ****     GPIO_InitStruct.Speed = GPIO_SPEED_FREQ_HIGH;
 2339              		.loc 1 57 5 is_stmt 1 view .LVU649
  59:d:/liteos/code/WIFI2/Hardware/LCD\lcd.c ****     HAL_GPIO_WritePin(GPIOC ,GPIO_PIN_6 | GPIO_PIN_7, GPIO_PIN_RESET);
 2340              		.loc 1 59 5 view .LVU650
 2341 0062 FFF7FEFF 		bl	HAL_GPIO_Init
 2342              	.LVL233:
  60:d:/liteos/code/WIFI2/Hardware/LCD\lcd.c **** 
 2343              		.loc 1 60 5 view .LVU651
 2344 0066 4146     		mov	r1, r8
 2345 0068 3846     		mov	r0, r7
 2346 006a 0022     		movs	r2, #0
 2347 006c FFF7FEFF 		bl	HAL_GPIO_WritePin
 2348              	.LVL234:
  63:d:/liteos/code/WIFI2/Hardware/LCD\lcd.c **** 
 2349              		.loc 1 63 5 view .LVU652
 2350 0070 3146     		mov	r1, r6
 2351 0072 2846     		mov	r0, r5
 2352 0074 0022     		movs	r2, #0
 2353 0076 FFF7FEFF 		bl	HAL_GPIO_WritePin
 2354              	.LVL235:
  65:d:/liteos/code/WIFI2/Hardware/LCD\lcd.c ****     delay10ms(12);
 2355              		.loc 1 65 5 view .LVU653
 2356 007a 0022     		movs	r2, #0
 2357 007c 8021     		movs	r1, #128
 2358 007e 3846     		mov	r0, r7
 2359 0080 FFF7FEFF 		bl	HAL_GPIO_WritePin
 2360              	.LVL236:
  66:d:/liteos/code/WIFI2/Hardware/LCD\lcd.c ****     LCD_RST(1);
 2361              		.loc 1 66 5 view .LVU654
 2362 0084 0C20     		movs	r0, #12
 2363 0086 FFF7FEFF 		bl	delay10ms
 2364              	.LVL237:
  67:d:/liteos/code/WIFI2/Hardware/LCD\lcd.c **** 
 2365              		.loc 1 67 5 view .LVU655
 2366 008a 2246     		mov	r2, r4
 2367 008c 8021     		movs	r1, #128
 2368 008e 3846     		mov	r0, r7
 2369 0090 FFF7FEFF 		bl	HAL_GPIO_WritePin
 2370              	.LVL238:
 2371              	.LBE84:
 2372              	.LBE86:
 695:d:/liteos/code/WIFI2/Hardware/LCD\lcd.c **** 
 696:d:/liteos/code/WIFI2/Hardware/LCD\lcd.c ****     delay10ms(12);
 2373              		.loc 1 696 5 view .LVU656
 2374 0094 0C20     		movs	r0, #12
 2375 0096 FFF7FEFF 		bl	delay10ms
 2376              	.LVL239:
 697:d:/liteos/code/WIFI2/Hardware/LCD\lcd.c **** 
ARM GAS  C:\Users\≤‹º“∫¿\AppData\Local\Temp\ccb8bRq8.s 			page 62


 698:d:/liteos/code/WIFI2/Hardware/LCD\lcd.c ****     /* Memory Data Access Control */
 699:d:/liteos/code/WIFI2/Hardware/LCD\lcd.c ****     LCD_Write_Cmd(0x36);
 2377              		.loc 1 699 5 view .LVU657
 2378 009a 3620     		movs	r0, #54
 2379 009c FFF7FEFF 		bl	LCD_Write_Cmd
 2380              	.LVL240:
 700:d:/liteos/code/WIFI2/Hardware/LCD\lcd.c ****     LCD_Write_Data(0x00);
 2381              		.loc 1 700 5 view .LVU658
 2382 00a0 0020     		movs	r0, #0
 2383 00a2 FFF7FEFF 		bl	LCD_Write_Data
 2384              	.LVL241:
 701:d:/liteos/code/WIFI2/Hardware/LCD\lcd.c **** 
 702:d:/liteos/code/WIFI2/Hardware/LCD\lcd.c ****     /* RGB 5-6-5-bit  */
 703:d:/liteos/code/WIFI2/Hardware/LCD\lcd.c ****     LCD_Write_Cmd(0x3A);
 2385              		.loc 1 703 5 view .LVU659
 2386 00a6 3A20     		movs	r0, #58
 2387 00a8 FFF7FEFF 		bl	LCD_Write_Cmd
 2388              	.LVL242:
 704:d:/liteos/code/WIFI2/Hardware/LCD\lcd.c ****     LCD_Write_Data(0x65);
 2389              		.loc 1 704 5 view .LVU660
 2390 00ac 6520     		movs	r0, #101
 2391 00ae FFF7FEFF 		bl	LCD_Write_Data
 2392              	.LVL243:
 705:d:/liteos/code/WIFI2/Hardware/LCD\lcd.c **** 
 706:d:/liteos/code/WIFI2/Hardware/LCD\lcd.c ****     /* Porch Setting */
 707:d:/liteos/code/WIFI2/Hardware/LCD\lcd.c ****     LCD_Write_Cmd(0xB2);
 2393              		.loc 1 707 5 view .LVU661
 2394 00b2 B220     		movs	r0, #178
 2395 00b4 FFF7FEFF 		bl	LCD_Write_Cmd
 2396              	.LVL244:
 708:d:/liteos/code/WIFI2/Hardware/LCD\lcd.c ****     LCD_Write_Data(0x0C);
 2397              		.loc 1 708 5 view .LVU662
 2398 00b8 0C20     		movs	r0, #12
 2399 00ba FFF7FEFF 		bl	LCD_Write_Data
 2400              	.LVL245:
 709:d:/liteos/code/WIFI2/Hardware/LCD\lcd.c ****     LCD_Write_Data(0x0C);
 2401              		.loc 1 709 5 view .LVU663
 2402 00be 0C20     		movs	r0, #12
 2403 00c0 FFF7FEFF 		bl	LCD_Write_Data
 2404              	.LVL246:
 710:d:/liteos/code/WIFI2/Hardware/LCD\lcd.c ****     LCD_Write_Data(0x00);
 2405              		.loc 1 710 5 view .LVU664
 2406 00c4 0020     		movs	r0, #0
 2407 00c6 FFF7FEFF 		bl	LCD_Write_Data
 2408              	.LVL247:
 711:d:/liteos/code/WIFI2/Hardware/LCD\lcd.c ****     LCD_Write_Data(0x33);
 2409              		.loc 1 711 5 view .LVU665
 2410 00ca 3320     		movs	r0, #51
 2411 00cc FFF7FEFF 		bl	LCD_Write_Data
 2412              	.LVL248:
 712:d:/liteos/code/WIFI2/Hardware/LCD\lcd.c ****     LCD_Write_Data(0x33);
 2413              		.loc 1 712 5 view .LVU666
 2414 00d0 3320     		movs	r0, #51
 2415 00d2 FFF7FEFF 		bl	LCD_Write_Data
 2416              	.LVL249:
 713:d:/liteos/code/WIFI2/Hardware/LCD\lcd.c **** 
 714:d:/liteos/code/WIFI2/Hardware/LCD\lcd.c **** 
ARM GAS  C:\Users\≤‹º“∫¿\AppData\Local\Temp\ccb8bRq8.s 			page 63


 715:d:/liteos/code/WIFI2/Hardware/LCD\lcd.c ****     /*  Gate Control */
 716:d:/liteos/code/WIFI2/Hardware/LCD\lcd.c ****     LCD_Write_Cmd(0xB7);
 2417              		.loc 1 716 5 view .LVU667
 2418 00d6 B720     		movs	r0, #183
 2419 00d8 FFF7FEFF 		bl	LCD_Write_Cmd
 2420              	.LVL250:
 717:d:/liteos/code/WIFI2/Hardware/LCD\lcd.c ****     LCD_Write_Data(0x35);
 2421              		.loc 1 717 5 view .LVU668
 2422 00dc 3520     		movs	r0, #53
 2423 00de FFF7FEFF 		bl	LCD_Write_Data
 2424              	.LVL251:
 718:d:/liteos/code/WIFI2/Hardware/LCD\lcd.c **** 
 719:d:/liteos/code/WIFI2/Hardware/LCD\lcd.c ****     /* VCOM Setting */
 720:d:/liteos/code/WIFI2/Hardware/LCD\lcd.c ****     LCD_Write_Cmd(0xBB);
 2425              		.loc 1 720 5 view .LVU669
 2426 00e2 BB20     		movs	r0, #187
 2427 00e4 FFF7FEFF 		bl	LCD_Write_Cmd
 2428              	.LVL252:
 721:d:/liteos/code/WIFI2/Hardware/LCD\lcd.c ****     LCD_Write_Data(0x19);
 2429              		.loc 1 721 5 view .LVU670
 2430 00e8 1920     		movs	r0, #25
 2431 00ea FFF7FEFF 		bl	LCD_Write_Data
 2432              	.LVL253:
 722:d:/liteos/code/WIFI2/Hardware/LCD\lcd.c **** 
 723:d:/liteos/code/WIFI2/Hardware/LCD\lcd.c ****     /* LCM Control */
 724:d:/liteos/code/WIFI2/Hardware/LCD\lcd.c ****     LCD_Write_Cmd(0xC0);
 2433              		.loc 1 724 5 view .LVU671
 2434 00ee 4046     		mov	r0, r8
 2435 00f0 FFF7FEFF 		bl	LCD_Write_Cmd
 2436              	.LVL254:
 725:d:/liteos/code/WIFI2/Hardware/LCD\lcd.c ****     LCD_Write_Data(0x2C);
 2437              		.loc 1 725 5 view .LVU672
 2438 00f4 2C20     		movs	r0, #44
 2439 00f6 FFF7FEFF 		bl	LCD_Write_Data
 2440              	.LVL255:
 726:d:/liteos/code/WIFI2/Hardware/LCD\lcd.c **** 
 727:d:/liteos/code/WIFI2/Hardware/LCD\lcd.c ****     /* VDV and VRH Command Enable */
 728:d:/liteos/code/WIFI2/Hardware/LCD\lcd.c ****     LCD_Write_Cmd(0xC2);
 2441              		.loc 1 728 5 view .LVU673
 2442 00fa C220     		movs	r0, #194
 2443 00fc FFF7FEFF 		bl	LCD_Write_Cmd
 2444              	.LVL256:
 729:d:/liteos/code/WIFI2/Hardware/LCD\lcd.c ****     LCD_Write_Data(0x01);
 2445              		.loc 1 729 5 view .LVU674
 2446 0100 2046     		mov	r0, r4
 2447 0102 FFF7FEFF 		bl	LCD_Write_Data
 2448              	.LVL257:
 730:d:/liteos/code/WIFI2/Hardware/LCD\lcd.c **** 
 731:d:/liteos/code/WIFI2/Hardware/LCD\lcd.c ****     /* VRH Set */
 732:d:/liteos/code/WIFI2/Hardware/LCD\lcd.c ****     LCD_Write_Cmd(0xC3);
 2449              		.loc 1 732 5 view .LVU675
 2450 0106 C320     		movs	r0, #195
 2451 0108 FFF7FEFF 		bl	LCD_Write_Cmd
 2452              	.LVL258:
 733:d:/liteos/code/WIFI2/Hardware/LCD\lcd.c ****     LCD_Write_Data(0x12);
 2453              		.loc 1 733 5 view .LVU676
 2454 010c 1220     		movs	r0, #18
ARM GAS  C:\Users\≤‹º“∫¿\AppData\Local\Temp\ccb8bRq8.s 			page 64


 2455 010e FFF7FEFF 		bl	LCD_Write_Data
 2456              	.LVL259:
 734:d:/liteos/code/WIFI2/Hardware/LCD\lcd.c **** 
 735:d:/liteos/code/WIFI2/Hardware/LCD\lcd.c ****     /* VDV Set */
 736:d:/liteos/code/WIFI2/Hardware/LCD\lcd.c ****     LCD_Write_Cmd(0xC4);
 2457              		.loc 1 736 5 view .LVU677
 2458 0112 C420     		movs	r0, #196
 2459 0114 FFF7FEFF 		bl	LCD_Write_Cmd
 2460              	.LVL260:
 737:d:/liteos/code/WIFI2/Hardware/LCD\lcd.c ****     LCD_Write_Data(0x20);
 2461              		.loc 1 737 5 view .LVU678
 2462 0118 2020     		movs	r0, #32
 2463 011a FFF7FEFF 		bl	LCD_Write_Data
 2464              	.LVL261:
 738:d:/liteos/code/WIFI2/Hardware/LCD\lcd.c **** 
 739:d:/liteos/code/WIFI2/Hardware/LCD\lcd.c ****     /* Frame Rate Control in Normal Mode */
 740:d:/liteos/code/WIFI2/Hardware/LCD\lcd.c ****     LCD_Write_Cmd(0xC6);
 2465              		.loc 1 740 5 view .LVU679
 2466 011e C620     		movs	r0, #198
 2467 0120 FFF7FEFF 		bl	LCD_Write_Cmd
 2468              	.LVL262:
 741:d:/liteos/code/WIFI2/Hardware/LCD\lcd.c ****     LCD_Write_Data(0x0F);	//60MHZ
 2469              		.loc 1 741 5 view .LVU680
 2470 0124 0F20     		movs	r0, #15
 2471 0126 FFF7FEFF 		bl	LCD_Write_Data
 2472              	.LVL263:
 742:d:/liteos/code/WIFI2/Hardware/LCD\lcd.c **** 
 743:d:/liteos/code/WIFI2/Hardware/LCD\lcd.c ****     /* Power Control 1 */
 744:d:/liteos/code/WIFI2/Hardware/LCD\lcd.c ****     LCD_Write_Cmd(0xD0);
 2473              		.loc 1 744 5 view .LVU681
 2474 012a D020     		movs	r0, #208
 2475 012c FFF7FEFF 		bl	LCD_Write_Cmd
 2476              	.LVL264:
 745:d:/liteos/code/WIFI2/Hardware/LCD\lcd.c ****     LCD_Write_Data(0xA4);
 2477              		.loc 1 745 5 view .LVU682
 2478 0130 A420     		movs	r0, #164
 2479 0132 FFF7FEFF 		bl	LCD_Write_Data
 2480              	.LVL265:
 746:d:/liteos/code/WIFI2/Hardware/LCD\lcd.c ****     LCD_Write_Data(0xA1);
 2481              		.loc 1 746 5 view .LVU683
 2482 0136 A120     		movs	r0, #161
 2483 0138 FFF7FEFF 		bl	LCD_Write_Data
 2484              	.LVL266:
 747:d:/liteos/code/WIFI2/Hardware/LCD\lcd.c **** 
 748:d:/liteos/code/WIFI2/Hardware/LCD\lcd.c ****     /* Positive Voltage Gamma Control */
 749:d:/liteos/code/WIFI2/Hardware/LCD\lcd.c ****     LCD_Write_Cmd(0xE0);
 2485              		.loc 1 749 5 view .LVU684
 2486 013c E020     		movs	r0, #224
 2487 013e FFF7FEFF 		bl	LCD_Write_Cmd
 2488              	.LVL267:
 750:d:/liteos/code/WIFI2/Hardware/LCD\lcd.c ****     LCD_Write_Data(0xD0);
 2489              		.loc 1 750 5 view .LVU685
 2490 0142 D020     		movs	r0, #208
 2491 0144 FFF7FEFF 		bl	LCD_Write_Data
 2492              	.LVL268:
 751:d:/liteos/code/WIFI2/Hardware/LCD\lcd.c ****     LCD_Write_Data(0x04);
 2493              		.loc 1 751 5 view .LVU686
ARM GAS  C:\Users\≤‹º“∫¿\AppData\Local\Temp\ccb8bRq8.s 			page 65


 2494 0148 0420     		movs	r0, #4
 2495 014a FFF7FEFF 		bl	LCD_Write_Data
 2496              	.LVL269:
 752:d:/liteos/code/WIFI2/Hardware/LCD\lcd.c ****     LCD_Write_Data(0x0D);
 2497              		.loc 1 752 5 view .LVU687
 2498 014e 0D20     		movs	r0, #13
 2499 0150 FFF7FEFF 		bl	LCD_Write_Data
 2500              	.LVL270:
 753:d:/liteos/code/WIFI2/Hardware/LCD\lcd.c ****     LCD_Write_Data(0x11);
 2501              		.loc 1 753 5 view .LVU688
 2502 0154 1120     		movs	r0, #17
 2503 0156 FFF7FEFF 		bl	LCD_Write_Data
 2504              	.LVL271:
 754:d:/liteos/code/WIFI2/Hardware/LCD\lcd.c ****     LCD_Write_Data(0x13);
 2505              		.loc 1 754 5 view .LVU689
 2506 015a 1320     		movs	r0, #19
 2507 015c FFF7FEFF 		bl	LCD_Write_Data
 2508              	.LVL272:
 755:d:/liteos/code/WIFI2/Hardware/LCD\lcd.c ****     LCD_Write_Data(0x2B);
 2509              		.loc 1 755 5 view .LVU690
 2510 0160 2B20     		movs	r0, #43
 2511 0162 FFF7FEFF 		bl	LCD_Write_Data
 2512              	.LVL273:
 756:d:/liteos/code/WIFI2/Hardware/LCD\lcd.c ****     LCD_Write_Data(0x3F);
 2513              		.loc 1 756 5 view .LVU691
 2514 0166 3F20     		movs	r0, #63
 2515 0168 FFF7FEFF 		bl	LCD_Write_Data
 2516              	.LVL274:
 757:d:/liteos/code/WIFI2/Hardware/LCD\lcd.c ****     LCD_Write_Data(0x54);
 2517              		.loc 1 757 5 view .LVU692
 2518 016c 5420     		movs	r0, #84
 2519 016e FFF7FEFF 		bl	LCD_Write_Data
 2520              	.LVL275:
 758:d:/liteos/code/WIFI2/Hardware/LCD\lcd.c ****     LCD_Write_Data(0x4C);
 2521              		.loc 1 758 5 view .LVU693
 2522 0172 4C20     		movs	r0, #76
 2523 0174 FFF7FEFF 		bl	LCD_Write_Data
 2524              	.LVL276:
 759:d:/liteos/code/WIFI2/Hardware/LCD\lcd.c ****     LCD_Write_Data(0x18);
 2525              		.loc 1 759 5 view .LVU694
 2526 0178 1820     		movs	r0, #24
 2527 017a FFF7FEFF 		bl	LCD_Write_Data
 2528              	.LVL277:
 760:d:/liteos/code/WIFI2/Hardware/LCD\lcd.c ****     LCD_Write_Data(0x0D);
 2529              		.loc 1 760 5 view .LVU695
 2530 017e 0D20     		movs	r0, #13
 2531 0180 FFF7FEFF 		bl	LCD_Write_Data
 2532              	.LVL278:
 761:d:/liteos/code/WIFI2/Hardware/LCD\lcd.c ****     LCD_Write_Data(0x0B);
 2533              		.loc 1 761 5 view .LVU696
 2534 0184 0B20     		movs	r0, #11
 2535 0186 FFF7FEFF 		bl	LCD_Write_Data
 2536              	.LVL279:
 762:d:/liteos/code/WIFI2/Hardware/LCD\lcd.c ****     LCD_Write_Data(0x1F);
 2537              		.loc 1 762 5 view .LVU697
 2538 018a 1F20     		movs	r0, #31
 2539 018c FFF7FEFF 		bl	LCD_Write_Data
ARM GAS  C:\Users\≤‹º“∫¿\AppData\Local\Temp\ccb8bRq8.s 			page 66


 2540              	.LVL280:
 763:d:/liteos/code/WIFI2/Hardware/LCD\lcd.c ****     LCD_Write_Data(0x23);
 2541              		.loc 1 763 5 view .LVU698
 2542 0190 2320     		movs	r0, #35
 2543 0192 FFF7FEFF 		bl	LCD_Write_Data
 2544              	.LVL281:
 764:d:/liteos/code/WIFI2/Hardware/LCD\lcd.c **** 
 765:d:/liteos/code/WIFI2/Hardware/LCD\lcd.c ****     /* Negative Voltage Gamma Control */
 766:d:/liteos/code/WIFI2/Hardware/LCD\lcd.c ****     LCD_Write_Cmd(0xE1);
 2545              		.loc 1 766 5 view .LVU699
 2546 0196 E120     		movs	r0, #225
 2547 0198 FFF7FEFF 		bl	LCD_Write_Cmd
 2548              	.LVL282:
 767:d:/liteos/code/WIFI2/Hardware/LCD\lcd.c ****     LCD_Write_Data(0xD0);
 2549              		.loc 1 767 5 view .LVU700
 2550 019c D020     		movs	r0, #208
 2551 019e FFF7FEFF 		bl	LCD_Write_Data
 2552              	.LVL283:
 768:d:/liteos/code/WIFI2/Hardware/LCD\lcd.c ****     LCD_Write_Data(0x04);
 2553              		.loc 1 768 5 view .LVU701
 2554 01a2 0420     		movs	r0, #4
 2555 01a4 FFF7FEFF 		bl	LCD_Write_Data
 2556              	.LVL284:
 769:d:/liteos/code/WIFI2/Hardware/LCD\lcd.c ****     LCD_Write_Data(0x0C);
 2557              		.loc 1 769 5 view .LVU702
 2558 01a8 0C20     		movs	r0, #12
 2559 01aa FFF7FEFF 		bl	LCD_Write_Data
 2560              	.LVL285:
 770:d:/liteos/code/WIFI2/Hardware/LCD\lcd.c ****     LCD_Write_Data(0x11);
 2561              		.loc 1 770 5 view .LVU703
 2562 01ae 1120     		movs	r0, #17
 2563 01b0 FFF7FEFF 		bl	LCD_Write_Data
 2564              	.LVL286:
 771:d:/liteos/code/WIFI2/Hardware/LCD\lcd.c ****     LCD_Write_Data(0x13);
 2565              		.loc 1 771 5 view .LVU704
 2566 01b4 1320     		movs	r0, #19
 2567 01b6 FFF7FEFF 		bl	LCD_Write_Data
 2568              	.LVL287:
 772:d:/liteos/code/WIFI2/Hardware/LCD\lcd.c ****     LCD_Write_Data(0x2C);
 2569              		.loc 1 772 5 view .LVU705
 2570 01ba 2C20     		movs	r0, #44
 2571 01bc FFF7FEFF 		bl	LCD_Write_Data
 2572              	.LVL288:
 773:d:/liteos/code/WIFI2/Hardware/LCD\lcd.c ****     LCD_Write_Data(0x3F);
 2573              		.loc 1 773 5 view .LVU706
 2574 01c0 3F20     		movs	r0, #63
 2575 01c2 FFF7FEFF 		bl	LCD_Write_Data
 2576              	.LVL289:
 774:d:/liteos/code/WIFI2/Hardware/LCD\lcd.c ****     LCD_Write_Data(0x44);
 2577              		.loc 1 774 5 view .LVU707
 2578 01c6 4420     		movs	r0, #68
 2579 01c8 FFF7FEFF 		bl	LCD_Write_Data
 2580              	.LVL290:
 775:d:/liteos/code/WIFI2/Hardware/LCD\lcd.c ****     LCD_Write_Data(0x51);
 2581              		.loc 1 775 5 view .LVU708
 2582 01cc 5120     		movs	r0, #81
 2583 01ce FFF7FEFF 		bl	LCD_Write_Data
ARM GAS  C:\Users\≤‹º“∫¿\AppData\Local\Temp\ccb8bRq8.s 			page 67


 2584              	.LVL291:
 776:d:/liteos/code/WIFI2/Hardware/LCD\lcd.c ****     LCD_Write_Data(0x2F);
 2585              		.loc 1 776 5 view .LVU709
 2586 01d2 2F20     		movs	r0, #47
 2587 01d4 FFF7FEFF 		bl	LCD_Write_Data
 2588              	.LVL292:
 777:d:/liteos/code/WIFI2/Hardware/LCD\lcd.c ****     LCD_Write_Data(0x1F);
 2589              		.loc 1 777 5 view .LVU710
 2590 01d8 1F20     		movs	r0, #31
 2591 01da FFF7FEFF 		bl	LCD_Write_Data
 2592              	.LVL293:
 778:d:/liteos/code/WIFI2/Hardware/LCD\lcd.c ****     LCD_Write_Data(0x1F);
 2593              		.loc 1 778 5 view .LVU711
 2594 01de 1F20     		movs	r0, #31
 2595 01e0 FFF7FEFF 		bl	LCD_Write_Data
 2596              	.LVL294:
 779:d:/liteos/code/WIFI2/Hardware/LCD\lcd.c ****     LCD_Write_Data(0x20);
 2597              		.loc 1 779 5 view .LVU712
 2598 01e4 2020     		movs	r0, #32
 2599 01e6 FFF7FEFF 		bl	LCD_Write_Data
 2600              	.LVL295:
 780:d:/liteos/code/WIFI2/Hardware/LCD\lcd.c ****     LCD_Write_Data(0x23);
 2601              		.loc 1 780 5 view .LVU713
 2602 01ea 2320     		movs	r0, #35
 2603 01ec FFF7FEFF 		bl	LCD_Write_Data
 2604              	.LVL296:
 781:d:/liteos/code/WIFI2/Hardware/LCD\lcd.c **** 
 782:d:/liteos/code/WIFI2/Hardware/LCD\lcd.c ****     /* Display Inversion On */
 783:d:/liteos/code/WIFI2/Hardware/LCD\lcd.c ****     LCD_Write_Cmd(0x21);
 2605              		.loc 1 783 5 view .LVU714
 2606 01f0 2120     		movs	r0, #33
 2607 01f2 FFF7FEFF 		bl	LCD_Write_Cmd
 2608              	.LVL297:
 784:d:/liteos/code/WIFI2/Hardware/LCD\lcd.c ****     /* Sleep Out */
 785:d:/liteos/code/WIFI2/Hardware/LCD\lcd.c ****     LCD_Write_Cmd(0x11);
 2609              		.loc 1 785 5 view .LVU715
 2610 01f6 1120     		movs	r0, #17
 2611 01f8 FFF7FEFF 		bl	LCD_Write_Cmd
 2612              	.LVL298:
 786:d:/liteos/code/WIFI2/Hardware/LCD\lcd.c ****     /* wait for power stability */
 787:d:/liteos/code/WIFI2/Hardware/LCD\lcd.c ****     delay10ms(12);
 2613              		.loc 1 787 5 view .LVU716
 2614 01fc 0C20     		movs	r0, #12
 2615 01fe FFF7FEFF 		bl	delay10ms
 2616              	.LVL299:
 788:d:/liteos/code/WIFI2/Hardware/LCD\lcd.c **** 
 789:d:/liteos/code/WIFI2/Hardware/LCD\lcd.c ****     LCD_Write_Cmd(0x29);
 2617              		.loc 1 789 5 view .LVU717
 2618 0202 2920     		movs	r0, #41
 2619 0204 FFF7FEFF 		bl	LCD_Write_Cmd
 2620              	.LVL300:
 790:d:/liteos/code/WIFI2/Hardware/LCD\lcd.c **** 
 791:d:/liteos/code/WIFI2/Hardware/LCD\lcd.c ****     LCD_Address_Set(0, 0, LCD_Width - 1, LCD_Height - 1);
 2621              		.loc 1 791 5 view .LVU718
 2622 0208 EF23     		movs	r3, #239
 2623 020a 0021     		movs	r1, #0
 2624 020c 1A46     		mov	r2, r3
ARM GAS  C:\Users\≤‹º“∫¿\AppData\Local\Temp\ccb8bRq8.s 			page 68


 2625 020e 0846     		mov	r0, r1
 2626 0210 FFF7FEFF 		bl	LCD_Address_Set
 2627              	.LVL301:
 792:d:/liteos/code/WIFI2/Hardware/LCD\lcd.c **** 
 793:d:/liteos/code/WIFI2/Hardware/LCD\lcd.c ****     LCD_Clear(BLACK);
 2628              		.loc 1 793 5 view .LVU719
 2629 0214 0020     		movs	r0, #0
 2630 0216 FFF7FEFF 		bl	LCD_Clear
 2631              	.LVL302:
 794:d:/liteos/code/WIFI2/Hardware/LCD\lcd.c **** 
 795:d:/liteos/code/WIFI2/Hardware/LCD\lcd.c ****     /* Display on */
 796:d:/liteos/code/WIFI2/Hardware/LCD\lcd.c ****     LCD_PWR(1);
 2632              		.loc 1 796 5 view .LVU720
 2633 021a 2246     		mov	r2, r4
 2634 021c 3146     		mov	r1, r6
 2635 021e 2846     		mov	r0, r5
 2636 0220 FFF7FEFF 		bl	HAL_GPIO_WritePin
 2637              	.LVL303:
 797:d:/liteos/code/WIFI2/Hardware/LCD\lcd.c **** }
 2638              		.loc 1 797 1 is_stmt 0 view .LVU721
 2639 0224 08B0     		add	sp, sp, #32
 2640              	.LCFI40:
 2641              		.cfi_def_cfa_offset 24
 2642              		@ sp needed
 2643 0226 BDE8F081 		pop	{r4, r5, r6, r7, r8, pc}
 2644              	.L124:
 2645 022a 00BF     		.align	2
 2646              	.L123:
 2647 022c 00100240 		.word	1073876992
 2648 0230 00040048 		.word	1207960576
 2649 0234 00080048 		.word	1207961600
 2650              		.cfi_endproc
 2651              	.LFE308:
 2653              		.global	BACK_COLOR
 2654              		.global	POINT_COLOR
 2655              		.global	asc2_3216
 2656              		.global	asc2_2412
 2657              		.global	asc2_1608
 2658              		.global	asc2_1206
 2659              		.section	.bss.BACK_COLOR,"aw",%nobits
 2660              		.align	1
 2661              		.set	.LANCHOR3,. + 0
 2664              	BACK_COLOR:
 2665 0000 0000     		.space	2
 2666              		.section	.bss.lcd_buf,"aw",%nobits
 2667              		.set	.LANCHOR0,. + 0
 2670              	lcd_buf:
 2671 0000 00000000 		.space	1152
 2671      00000000 
 2671      00000000 
 2671      00000000 
 2671      00000000 
 2672              		.section	.data.POINT_COLOR,"aw"
 2673              		.align	1
 2674              		.set	.LANCHOR1,. + 0
 2677              	POINT_COLOR:
 2678 0000 E007     		.short	2016
ARM GAS  C:\Users\≤‹º“∫¿\AppData\Local\Temp\ccb8bRq8.s 			page 69


 2679              		.section	.rodata.asc2_1206,"a"
 2680              		.set	.LANCHOR4,. + 0
 2683              	asc2_1206:
 2684 0000 00000000 		.ascii	"\000\000\000\000\000\000\000\000\000\000\000\000"
 2684      00000000 
 2684      00000000 
 2685 000c 00002020 		.ascii	"\000\000     \000\000 \000\000"
 2685      20202000 
 2685      00200000 
 2686 0018 28285000 		.ascii	"((P\000\000\000\000\000\000\000\000\000"
 2686      00000000 
 2686      00000000 
 2687 0024 00005050 		.ascii	"\000\000PP\370PP\370PP\000\000"
 2687      F85050F8 
 2687      50500000 
 2688 0030 002070A8 		.ascii	"\000 p\250\240`0(\250p \000"
 2688      A0603028 
 2688      A8702000 
 2689 003c 000048A8 		.ascii	"\000\000H\250\260\250t4TH\000\000"
 2689      B0A87434 
 2689      54480000 
 2690 0048 00002050 		.ascii	"\000\000 PPl\250\250\224h\000\000"
 2690      506CA8A8 
 2690      94680000 
 2691 0054 40408000 		.ascii	"@@\200\000\000\000\000\000\000\000\000\000"
 2691      00000000 
 2691      00000000 
 2692 0060 08101020 		.ascii	"\010\020\020     \020\020\010\000"
 2692      20202020 
 2692      10100800 
 2693 006c 40202010 		.ascii	"@  \020\020\020\020\020  @\000"
 2693      10101010 
 2693      20204000 
 2694 0078 00000020 		.ascii	"\000\000\000 \250pp\250 \000\000\000"
 2694      A87070A8 
 2694      20000000 
 2695 0084 00000010 		.ascii	"\000\000\000\020\020|\020\020\000\000\000\000"
 2695      107C1010 
 2695      00000000 
 2696 0090 00000000 		.ascii	"\000\000\000\000\000\000\000\000@@\200\000"
 2696      00000000 
 2696      40408000 
 2697 009c 00000000 		.ascii	"\000\000\000\000\000\374\000\000\000\000\000\000"
 2697      00FC0000 
 2697      00000000 
 2698 00a8 00000000 		.ascii	"\000\000\000\000\000\000\000\000\000@\000\000"
 2698      00000000 
 2698      00400000 
 2699 00b4 00040808 		.ascii	"\000\004\010\010\020\020  @@\200\000"
 2699      10102020 
 2699      40408000 
 2700 00c0 00007088 		.ascii	"\000\000p\210\210\210\210\210\210p\000\000"
 2700      88888888 
 2700      88700000 
 2701 00cc 00002060 		.ascii	"\000\000 `     p\000\000"
 2701      20202020 
 2701      20700000 
ARM GAS  C:\Users\≤‹º“∫¿\AppData\Local\Temp\ccb8bRq8.s 			page 70


 2702 00d8 00007088 		.ascii	"\000\000p\210\210\020 @\200\370\000\000"
 2702      88102040 
 2702      80F80000 
 2703 00e4 00007088 		.ascii	"\000\000p\210\0100\010\010\210p\000\000"
 2703      08300808 
 2703      88700000 
 2704 00f0 00001030 		.ascii	"\000\000\02000P\220\370\0208\000\000"
 2704      305090F8 
 2704      10380000 
 2705 00fc 0000F880 		.ascii	"\000\000\370\200\200\360\210\010\210p\000\000"
 2705      80F08808 
 2705      88700000 
 2706 0108 00003048 		.ascii	"\000\0000H\200\260\310\210\210p\000\000"
 2706      80B0C888 
 2706      88700000 
 2707 0114 00007808 		.ascii	"\000\000x\010\020\020    \000\000"
 2707      10102020 
 2707      20200000 
 2708 0120 00007088 		.ascii	"\000\000p\210\210p\210\210\210p\000\000"
 2708      88708888 
 2708      88700000 
 2709 012c 00007088 		.ascii	"\000\000p\210\210\230h\010\220`\000\000"
 2709      88986808 
 2709      90600000 
 2710 0138 00000000 		.ascii	"\000\000\000\000 \000\000\000\000 \000\000"
 2710      20000000 
 2710      00200000 
 2711 0144 00000000 		.ascii	"\000\000\000\000\000 \000\000\000  \000"
 2711      00200000 
 2711      00202000 
 2712 0150 00000810 		.ascii	"\000\000\010\020 @@ \020\010\000\000"
 2712      20404020 
 2712      10080000 
 2713 015c 00000000 		.ascii	"\000\000\000\000\374\000\374\000\000\000\000\000"
 2713      FC00FC00 
 2713      00000000 
 2714 0168 00004020 		.ascii	"\000\000@ \020\010\010\020 @\000\000"
 2714      10080810 
 2714      20400000 
 2715 0174 00007088 		.ascii	"\000\000p\210\210\020  \000 \000\000"
 2715      88102020 
 2715      00200000 
 2716 0180 00003844 		.ascii	"\000\0008D\224\264\264\270D8\000\000"
 2716      94B4B4B8 
 2716      44380000 
 2717 018c 00002020 		.ascii	"\000\000  0PPxH\314\000\000"
 2717      30505078 
 2717      48CC0000 
 2718 0198 0000F048 		.ascii	"\000\000\360HHpHHH\360\000\000"
 2718      48704848 
 2718      48F00000 
 2719 01a4 00007888 		.ascii	"\000\000x\210\200\200\200\200\210p\000\000"
 2719      80808080 
 2719      88700000 
 2720 01b0 0000F048 		.ascii	"\000\000\360HHHHHH\360\000\000"
 2720      48484848 
 2720      48F00000 
ARM GAS  C:\Users\≤‹º“∫¿\AppData\Local\Temp\ccb8bRq8.s 			page 71


 2721 01bc 0000F848 		.ascii	"\000\000\370HPpP@H\370\000\000"
 2721      50705040 
 2721      48F80000 
 2722 01c8 0000F848 		.ascii	"\000\000\370HPpP@@\340\000\000"
 2722      50705040 
 2722      40E00000 
 2723 01d4 00003848 		.ascii	"\000\0008H\200\200\234\210H0\000\000"
 2723      80809C88 
 2723      48300000 
 2724 01e0 0000CC48 		.ascii	"\000\000\314HHxHHH\314\000\000"
 2724      48784848 
 2724      48CC0000 
 2725 01ec 0000F820 		.ascii	"\000\000\370      \370\000\000"
 2725      20202020 
 2725      20F80000 
 2726 01f8 00007C10 		.ascii	"\000\000|\020\020\020\020\020\020\020\220\340"
 2726      10101010 
 2726      101090E0 
 2727 0204 0000EC48 		.ascii	"\000\000\354HP`PHH\354\000\000"
 2727      50605048 
 2727      48EC0000 
 2728 0210 0000E040 		.ascii	"\000\000\340@@@@@D\374\000\000"
 2728      40404040 
 2728      44FC0000 
 2729 021c 0000DCD8 		.ascii	"\000\000\334\330\330\330\250\250\250\254\000\000"
 2729      D8D8A8A8 
 2729      A8AC0000 
 2730 0228 0000DC48 		.ascii	"\000\000\334HhhXXH\350\000\000"
 2730      68685858 
 2730      48E80000 
 2731 0234 00007088 		.ascii	"\000\000p\210\210\210\210\210\210p\000\000"
 2731      88888888 
 2731      88700000 
 2732 0240 0000F048 		.ascii	"\000\000\360HHp@@@\340\000\000"
 2732      48704040 
 2732      40E00000 
 2733 024c 00007088 		.ascii	"\000\000p\210\210\210\210\350\230p\030\000"
 2733      888888E8 
 2733      98701800 
 2734 0258 0000F048 		.ascii	"\000\000\360HHpPHH\354\000\000"
 2734      48705048 
 2734      48EC0000 
 2735 0264 00007888 		.ascii	"\000\000x\210\200`\020\010\210\360\000\000"
 2735      80601008 
 2735      88F00000 
 2736 0270 0000F8A8 		.ascii	"\000\000\370\250     p\000\000"
 2736      20202020 
 2736      20700000 
 2737 027c 0000CC48 		.ascii	"\000\000\314HHHHHH0\000\000"
 2737      48484848 
 2737      48300000 
 2738 0288 0000CC48 		.ascii	"\000\000\314HHPP0  \000\000"
 2738      48505030 
 2738      20200000 
 2739 0294 0000A8A8 		.ascii	"\000\000\250\250\250\250pPPP\000\000"
 2739      A8A87050 
 2739      50500000 
ARM GAS  C:\Users\≤‹º“∫¿\AppData\Local\Temp\ccb8bRq8.s 			page 72


 2740 02a0 0000D850 		.ascii	"\000\000\330PP  PP\330\000\000"
 2740      50202050 
 2740      50D80000 
 2741 02ac 0000D850 		.ascii	"\000\000\330PPP   p\000\000"
 2741      50502020 
 2741      20700000 
 2742 02b8 0000F890 		.ascii	"\000\000\370\220\020  @H\370\000\000"
 2742      10202040 
 2742      48F80000 
 2743 02c4 38202020 		.ascii	"8         8\000"
 2743      20202020 
 2743      20203800 
 2744 02d0 00404020 		.ascii	"\000@@   \020\020\020\010\010\000"
 2744      20201010 
 2744      10080800 
 2745 02dc 70101010 		.ascii	"p\020\020\020\020\020\020\020\020\020p\000"
 2745      10101010 
 2745      10107000 
 2746 02e8 20500000 		.ascii	" P\000\000\000\000\000\000\000\000\000\000"
 2746      00000000 
 2746      00000000 
 2747 02f4 00000000 		.ascii	"\000\000\000\000\000\000\000\000\000\000\000\374"
 2747      00000000 
 2747      000000FC 
 2748 0300 40200000 		.ascii	"@ \000\000\000\000\000\000\000\000\000\000"
 2748      00000000 
 2748      00000000 
 2749 030c 00000000 		.ascii	"\000\000\000\000\0000H8H<\000\000"
 2749      00304838 
 2749      483C0000 
 2750 0318 00C04040 		.ascii	"\000\300@@@pHHHp\000\000"
 2750      40704848 
 2750      48700000 
 2751 0324 00000000 		.ascii	"\000\000\000\000\0008H@H0\000\000"
 2751      00384840 
 2751      48300000 
 2752 0330 00180808 		.ascii	"\000\030\010\010\0108HHH<\000\000"
 2752      08384848 
 2752      483C0000 
 2753 033c 00000000 		.ascii	"\000\000\000\000\0000Hx@8\000\000"
 2753      00304878 
 2753      40380000 
 2754 0348 00182420 		.ascii	"\000\030$  x   x\000\000"
 2754      20782020 
 2754      20780000 
 2755 0354 00000000 		.ascii	"\000\000\000\000\000<H0@8D8"
 2755      003C4830 
 2755      40384438 
 2756 0360 00C04040 		.ascii	"\000\300@@@pHHH\354\000\000"
 2756      40704848 
 2756      48EC0000 
 2757 036c 00202000 		.ascii	"\000  \000\000`   p\000\000"
 2757      00602020 
 2757      20700000 
 2758 0378 00101000 		.ascii	"\000\020\020\000\0000\020\020\020\020\020\340"
 2758      00301010 
 2758      101010E0 
ARM GAS  C:\Users\≤‹º“∫¿\AppData\Local\Temp\ccb8bRq8.s 			page 73


 2759 0384 00C04040 		.ascii	"\000\300@@@XP`P\310\000\000"
 2759      40585060 
 2759      50C80000 
 2760 0390 00E02020 		.ascii	"\000\340       \370\000\000"
 2760      20202020 
 2760      20F80000 
 2761 039c 00000000 		.ascii	"\000\000\000\000\000\360\250\250\250\250\000\000"
 2761      00F0A8A8 
 2761      A8A80000 
 2762 03a8 00000000 		.ascii	"\000\000\000\000\000\360HHH\354\000\000"
 2762      00F04848 
 2762      48EC0000 
 2763 03b4 00000000 		.ascii	"\000\000\000\000\0000HHH0\000\000"
 2763      00304848 
 2763      48300000 
 2764 03c0 00000000 		.ascii	"\000\000\000\000\000\360HHHp@\340"
 2764      00F04848 
 2764      487040E0 
 2765 03cc 00000000 		.ascii	"\000\000\000\000\0008HHH8\010\034"
 2765      00384848 
 2765      4838081C 
 2766 03d8 00000000 		.ascii	"\000\000\000\000\000\330`@@\340\000\000"
 2766      00D86040 
 2766      40E00000 
 2767 03e4 00000000 		.ascii	"\000\000\000\000\000x@0\010x\000\000"
 2767      00784030 
 2767      08780000 
 2768 03f0 00000020 		.ascii	"\000\000\000  x   8\000\000"
 2768      20782020 
 2768      20380000 
 2769 03fc 00000000 		.ascii	"\000\000\000\000\000\330HHH<\000\000"
 2769      00D84848 
 2769      483C0000 
 2770 0408 00000000 		.ascii	"\000\000\000\000\000\330PP  \000\000"
 2770      00D85050 
 2770      20200000 
 2771 0414 00000000 		.ascii	"\000\000\000\000\000\250\250pPP\000\000"
 2771      00A8A870 
 2771      50500000 
 2772 0420 00000000 		.ascii	"\000\000\000\000\000\330P P\330\000\000"
 2772      00D85020 
 2772      50D80000 
 2773 042c 00000000 		.ascii	"\000\000\000\000\000\314HH0\020 \300"
 2773      00CC4848 
 2773      301020C0 
 2774 0438 00000000 		.ascii	"\000\000\000\000\000x\020  x\000\000"
 2774      00781020 
 2774      20780000 
 2775 0444 18101010 		.ascii	"\030\020\020\020\0200\020\020\020\020\030\000"
 2775      10301010 
 2775      10101800 
 2776 0450 10101010 		.ascii	"\020\020\020\020\020\020\020\020\020\020\020\020"
 2776      10101010 
 2776      10101010 
 2777 045c 60202020 		.ascii	"`    \020    `\000"
 2777      20102020 
 2777      20206000 
ARM GAS  C:\Users\≤‹º“∫¿\AppData\Local\Temp\ccb8bRq8.s 			page 74


 2778 0468 68900000 		.ascii	"h\220\000\000\000\000\000\000\000\000\000\000"
 2778      00000000 
 2778      00000000 
 2779              		.section	.rodata.asc2_1608,"a"
 2780              		.set	.LANCHOR2,. + 0
 2783              	asc2_1608:
 2784 0000 00000000 		.ascii	"\000\000\000\000\000\000\000\000\000\000\000\000\000"
 2784      00000000 
 2784      00000000 
 2784      00
 2785 000d 000000   		.ascii	"\000\000\000"
 2786 0010 00000010 		.ascii	"\000\000\000\020\020\020\020\020\020\020\000\000\020"
 2786      10101010 
 2786      10100000 
 2786      10
 2787 001d 100000   		.ascii	"\020\000\000"
 2788 0020 00122424 		.ascii	"\000\022$$H\000\000\000\000\000\000\000\000\000\000"
 2788      48000000 
 2788      00000000 
 2788      000000
 2789 002f 00       		.ascii	"\000"
 2790 0030 00000012 		.ascii	"\000\000\000\022\022\022~$$$~$$$\000\000"
 2790      12127E24 
 2790      24247E24 
 2790      24240000 
 2791 0040 0000083C 		.ascii	"\000\000\010<JJH8\014\012\012JJ<\010\010"
 2791      4A4A4838 
 2791      0C0A0A4A 
 2791      4A3C0808 
 2792 0050 00000044 		.ascii	"\000\000\000D\244\250\250\260T\032**JD\000\000"
 2792      A4A8A8B0 
 2792      541A2A2A 
 2792      4A440000 
 2793 0060 00000030 		.ascii	"\000\000\0000HHHPn\244\224\230\211v\000\000"
 2793      48484850 
 2793      6EA49498 
 2793      89760000 
 2794 0070 00602020 		.ascii	"\000`  @\000\000\000\000\000\000\000\000\000\000\000"
 2794      40000000 
 2794      00000000 
 2794      00000000 
 2795 0080 00020408 		.ascii	"\000\002\004\010\010\020\020\020\020\020\020\010\010"
 2795      08101010 
 2795      10101008 
 2795      08
 2796 008d 040200   		.ascii	"\004\002\000"
 2797 0090 00402010 		.ascii	"\000@ \020\020\010\010\010\010\010\010\020\020 @\000"
 2797      10080808 
 2797      08080810 
 2797      10204000 
 2798 00a0 00000000 		.ascii	"\000\000\000\000\020\020\32688\326\020\020\000\000\000"
 2798      1010D638 
 2798      38D61010 
 2798      000000
 2799 00af 00       		.ascii	"\000"
 2800 00b0 00000000 		.ascii	"\000\000\000\000\000\010\010\010\177\010\010\010\000"
 2800      00080808 
ARM GAS  C:\Users\≤‹º“∫¿\AppData\Local\Temp\ccb8bRq8.s 			page 75


 2800      7F080808 
 2800      00
 2801 00bd 000000   		.ascii	"\000\000\000"
 2802 00c0 00000000 		.ascii	"\000\000\000\000\000\000\000\000\000\000\000\000`  "
 2802      00000000 
 2802      00000000 
 2802      602020
 2803 00cf 40       		.ascii	"@"
 2804 00d0 00000000 		.ascii	"\000\000\000\000\000\000\000\000~\000\000\000\000\000"
 2804      00000000 
 2804      7E000000 
 2804      0000
 2805 00de 0000     		.ascii	"\000\000"
 2806 00e0 00000000 		.ascii	"\000\000\000\000\000\000\000\000\000\000\000\000``\000"
 2806      00000000 
 2806      00000000 
 2806      606000
 2807 00ef 00       		.ascii	"\000"
 2808 00f0 00000204 		.ascii	"\000\000\002\004\004\004\010\010\020\020\020  @@\000"
 2808      04040808 
 2808      10101020 
 2808      20404000 
 2809 0100 00000018 		.ascii	"\000\000\000\030$BBBBBBB$\030\000\000"
 2809      24424242 
 2809      42424242 
 2809      24180000 
 2810 0110 00000008 		.ascii	"\000\000\000\0108\010\010\010\010\010\010\010\010>\000"
 2810      38080808 
 2810      08080808 
 2810      083E00
 2811 011f 00       		.ascii	"\000"
 2812 0120 0000003C 		.ascii	"\000\000\000<BBB\002\004\010\020 B~\000\000"
 2812      42424202 
 2812      04081020 
 2812      427E0000 
 2813 0130 0000003C 		.ascii	"\000\000\000<BB\002\004\030\004\002BB<\000\000"
 2813      42420204 
 2813      18040242 
 2813      423C0000 
 2814 0140 00000004 		.ascii	"\000\000\000\004\014\014\024$$D\177\004\004\037\000"
 2814      0C0C1424 
 2814      24447F04 
 2814      041F00
 2815 014f 00       		.ascii	"\000"
 2816 0150 0000007E 		.ascii	"\000\000\000~@@@xD\002\002BD8\000\000"
 2816      40404078 
 2816      44020242 
 2816      44380000 
 2817 0160 00000018 		.ascii	"\000\000\000\030$@@\\bBBB\"\034\000\000"
 2817      2440405C 
 2817      62424242 
 2817      221C0000 
 2818 0170 0000007E 		.ascii	"\000\000\000~B\004\004\010\010\020\020\020\020\020\000"
 2818      42040408 
 2818      08101010 
 2818      101000
 2819 017f 00       		.ascii	"\000"
ARM GAS  C:\Users\≤‹º“∫¿\AppData\Local\Temp\ccb8bRq8.s 			page 76


 2820 0180 0000003C 		.ascii	"\000\000\000<BBB$\030$BBB<\000\000"
 2820      42424224 
 2820      18244242 
 2820      423C0000 
 2821 0190 00000038 		.ascii	"\000\000\0008DBBBF:\002\002$\030\000\000"
 2821      44424242 
 2821      463A0202 
 2821      24180000 
 2822 01a0 00000000 		.ascii	"\000\000\000\000\000\000\030\030\000\000\000\000\030"
 2822      00001818 
 2822      00000000 
 2822      18
 2823 01ad 180000   		.ascii	"\030\000\000"
 2824 01b0 00000000 		.ascii	"\000\000\000\000\000\000\000\020\000\000\000\000\000"
 2824      00000010 
 2824      00000000 
 2824      00
 2825 01bd 101010   		.ascii	"\020\020\020"
 2826 01c0 00000002 		.ascii	"\000\000\000\002\004\010\020 @ \020\010\004\002\000"
 2826      04081020 
 2826      40201008 
 2826      040200
 2827 01cf 00       		.ascii	"\000"
 2828 01d0 00000000 		.ascii	"\000\000\000\000\000\000~\000\000~\000\000\000\000\000"
 2828      00007E00 
 2828      007E0000 
 2828      000000
 2829 01df 00       		.ascii	"\000"
 2830 01e0 00000040 		.ascii	"\000\000\000@ \020\010\004\002\004\010\020 @\000\000"
 2830      20100804 
 2830      02040810 
 2830      20400000 
 2831 01f0 0000003C 		.ascii	"\000\000\000<BBb\004\010\010\010\000\030\030\000\000"
 2831      42426204 
 2831      08080800 
 2831      18180000 
 2832 0200 00000038 		.ascii	"\000\000\0008DZ\252\252\252\252\252\\B<\000\000"
 2832      445AAAAA 
 2832      AAAAAA5C 
 2832      423C0000 
 2833 0210 00000010 		.ascii	"\000\000\000\020\020\030(($<DBB\347\000\000"
 2833      10182828 
 2833      243C4442 
 2833      42E70000 
 2834 0220 000000F8 		.ascii	"\000\000\000\370DDDxDBBBD\370\000\000"
 2834      44444478 
 2834      44424242 
 2834      44F80000 
 2835 0230 0000003E 		.ascii	"\000\000\000>BB\200\200\200\200\200BD8\000\000"
 2835      42428080 
 2835      80808042 
 2835      44380000 
 2836 0240 000000F8 		.ascii	"\000\000\000\370DBBBBBBBD\370\000\000"
 2836      44424242 
 2836      42424242 
 2836      44F80000 
 2837 0250 000000FC 		.ascii	"\000\000\000\374BHHxHH@BB\374\000\000"
ARM GAS  C:\Users\≤‹º“∫¿\AppData\Local\Temp\ccb8bRq8.s 			page 77


 2837      42484878 
 2837      48484042 
 2837      42FC0000 
 2838 0260 000000FC 		.ascii	"\000\000\000\374BHHxHH@@@\340\000\000"
 2838      42484878 
 2838      48484040 
 2838      40E00000 
 2839 0270 0000003C 		.ascii	"\000\000\000<DD\200\200\200\216\204DD8\000\000"
 2839      44448080 
 2839      808E8444 
 2839      44380000 
 2840 0280 000000E7 		.ascii	"\000\000\000\347BBBB~BBBB\347\000\000"
 2840      42424242 
 2840      7E424242 
 2840      42E70000 
 2841 0290 0000007C 		.ascii	"\000\000\000|\020\020\020\020\020\020\020\020\020|\000"
 2841      10101010 
 2841      10101010 
 2841      107C00
 2842 029f 00       		.ascii	"\000"
 2843 02a0 0000003E 		.ascii	"\000\000\000>\010\010\010\010\010\010\010\010\010\010"
 2843      08080808 
 2843      08080808 
 2843      0808
 2844 02ae 88F0     		.ascii	"\210\360"
 2845 02b0 000000EE 		.ascii	"\000\000\000\356DHPpPHHDD\356\000\000"
 2845      44485070 
 2845      50484844 
 2845      44EE0000 
 2846 02c0 000000E0 		.ascii	"\000\000\000\340@@@@@@@@B\376\000\000"
 2846      40404040 
 2846      40404040 
 2846      42FE0000 
 2847 02d0 000000EE 		.ascii	"\000\000\000\356lllllTTTT\326\000\000"
 2847      6C6C6C6C 
 2847      6C545454 
 2847      54D60000 
 2848 02e0 000000C7 		.ascii	"\000\000\000\307bbRRJJJFF\342\000\000"
 2848      62625252 
 2848      4A4A4A46 
 2848      46E20000 
 2849 02f0 00000038 		.ascii	"\000\000\0008D\202\202\202\202\202\202\202D8\000\000"
 2849      44828282 
 2849      82828282 
 2849      44380000 
 2850 0300 000000FC 		.ascii	"\000\000\000\374BBBB|@@@@\340\000\000"
 2850      42424242 
 2850      7C404040 
 2850      40E00000 
 2851 0310 00000038 		.ascii	"\000\000\0008D\202\202\202\202\202\202\262L8\006\000"
 2851      44828282 
 2851      828282B2 
 2851      4C380600 
 2852 0320 000000FC 		.ascii	"\000\000\000\374BBB|HHDDB\343\000\000"
 2852      4242427C 
 2852      48484444 
 2852      42E30000 
ARM GAS  C:\Users\≤‹º“∫¿\AppData\Local\Temp\ccb8bRq8.s 			page 78


 2853 0330 0000003E 		.ascii	"\000\000\000>BB@ \030\004\002BB|\000\000"
 2853      42424020 
 2853      18040242 
 2853      427C0000 
 2854 0340 000000FE 		.ascii	"\000\000\000\376\222\020\020\020\020\020\020\020\020"
 2854      92101010 
 2854      10101010 
 2854      10
 2855 034d 380000   		.ascii	"8\000\000"
 2856 0350 000000E7 		.ascii	"\000\000\000\347BBBBBBBBB<\000\000"
 2856      42424242 
 2856      42424242 
 2856      423C0000 
 2857 0360 000000E7 		.ascii	"\000\000\000\347BBD$$((\030\020\020\000\000"
 2857      42424424 
 2857      24282818 
 2857      10100000 
 2858 0370 000000D6 		.ascii	"\000\000\000\326TTTTTl((((\000\000"
 2858      54545454 
 2858      546C2828 
 2858      28280000 
 2859 0380 000000E7 		.ascii	"\000\000\000\347B$$\030\030\030$$B\347\000\000"
 2859      42242418 
 2859      18182424 
 2859      42E70000 
 2860 0390 000000EE 		.ascii	"\000\000\000\356DD((\020\020\020\020\0208\000\000"
 2860      44442828 
 2860      10101010 
 2860      10380000 
 2861 03a0 0000007E 		.ascii	"\000\000\000~\204\004\010\010\020  BB\374\000\000"
 2861      84040808 
 2861      10202042 
 2861      42FC0000 
 2862 03b0 001E1010 		.ascii	"\000\036\020\020\020\020\020\020\020\020\020\020\020"
 2862      10101010 
 2862      10101010 
 2862      10
 2863 03bd 101E00   		.ascii	"\020\036\000"
 2864 03c0 00004020 		.ascii	"\000\000@   \020\020\020\010\010\004\004\004\002\002"
 2864      20201010 
 2864      10080804 
 2864      04040202 
 2865 03d0 00780808 		.ascii	"\000x\010\010\010\010\010\010\010\010\010\010\010\010"
 2865      08080808 
 2865      08080808 
 2865      0808
 2866 03de 7800     		.ascii	"x\000"
 2867 03e0 00182400 		.ascii	"\000\030$\000\000\000\000\000\000\000\000\000\000\000"
 2867      00000000 
 2867      00000000 
 2867      0000
 2868 03ee 0000     		.ascii	"\000\000"
 2869 03f0 00000000 		.ascii	"\000\000\000\000\000\000\000\000\000\000\000\000\000"
 2869      00000000 
 2869      00000000 
 2869      00
 2870 03fd 0000FF   		.ascii	"\000\000\377"
ARM GAS  C:\Users\≤‹º“∫¿\AppData\Local\Temp\ccb8bRq8.s 			page 79


 2871 0400 00601000 		.ascii	"\000`\020\000\000\000\000\000\000\000\000\000\000\000"
 2871      00000000 
 2871      00000000 
 2871      0000
 2872 040e 0000     		.ascii	"\000\000"
 2873 0410 00000000 		.ascii	"\000\000\000\000\000\000\0008D\0144DL6\000\000"
 2873      00000038 
 2873      440C3444 
 2873      4C360000 
 2874 0420 00000000 		.ascii	"\000\000\000\000\300@@XdBBBdX\000\000"
 2874      C0404058 
 2874      64424242 
 2874      64580000 
 2875 0430 00000000 		.ascii	"\000\000\000\000\000\000\000\034\"@@@\"\034\000\000"
 2875      0000001C 
 2875      22404040 
 2875      221C0000 
 2876 0440 00000000 		.ascii	"\000\000\000\000\006\002\002>BBBBF;\000\000"
 2876      0602023E 
 2876      42424242 
 2876      463B0000 
 2877 0450 00000000 		.ascii	"\000\000\000\000\000\000\000<BB~@B<\000\000"
 2877      0000003C 
 2877      42427E40 
 2877      423C0000 
 2878 0460 00000000 		.ascii	"\000\000\000\000\014\022\020|\020\020\020\020\020|\000"
 2878      0C12107C 
 2878      10101010 
 2878      107C00
 2879 046f 00       		.ascii	"\000"
 2880 0470 00000000 		.ascii	"\000\000\000\000\000\000\000>DD8@<BB<"
 2880      0000003E 
 2880      44443840 
 2880      3C42423C 
 2881 0480 00000000 		.ascii	"\000\000\000\000\300@@\\bBBBB\347\000\000"
 2881      C040405C 
 2881      62424242 
 2881      42E70000 
 2882 0490 00000030 		.ascii	"\000\000\00000\000\000p\020\020\020\020\020|\000\000"
 2882      30000070 
 2882      10101010 
 2882      107C0000 
 2883 04a0 0000000C 		.ascii	"\000\000\000\014\014\000\000\034\004\004\004\004\004"
 2883      0C00001C 
 2883      04040404 
 2883      04
 2884 04ad 044478   		.ascii	"\004Dx"
 2885 04b0 00000000 		.ascii	"\000\000\000\000\300@@NHPpHD\356\000\000"
 2885      C040404E 
 2885      48507048 
 2885      44EE0000 
 2886 04c0 00000010 		.ascii	"\000\000\000\020p\020\020\020\020\020\020\020\020|\000"
 2886      70101010 
 2886      10101010 
 2886      107C00
 2887 04cf 00       		.ascii	"\000"
 2888 04d0 00000000 		.ascii	"\000\000\000\000\000\000\000\376IIIII\355\000\000"
ARM GAS  C:\Users\≤‹º“∫¿\AppData\Local\Temp\ccb8bRq8.s 			page 80


 2888      000000FE 
 2888      49494949 
 2888      49ED0000 
 2889 04e0 00000000 		.ascii	"\000\000\000\000\000\000\000\334bBBBB\347\000\000"
 2889      000000DC 
 2889      62424242 
 2889      42E70000 
 2890 04f0 00000000 		.ascii	"\000\000\000\000\000\000\000<BBBBB<\000\000"
 2890      0000003C 
 2890      42424242 
 2890      423C0000 
 2891 0500 00000000 		.ascii	"\000\000\000\000\000\000\000\330dBBBdX@\340"
 2891      000000D8 
 2891      64424242 
 2891      645840E0 
 2892 0510 00000000 		.ascii	"\000\000\000\000\000\000\000\032&BBB&\032\002\007"
 2892      0000001A 
 2892      26424242 
 2892      261A0207 
 2893 0520 00000000 		.ascii	"\000\000\000\000\000\000\000\3562    \370\000\000"
 2893      000000EE 
 2893      32202020 
 2893      20F80000 
 2894 0530 00000000 		.ascii	"\000\000\000\000\000\000\000>B@<\002B|\000\000"
 2894      0000003E 
 2894      42403C02 
 2894      427C0000 
 2895 0540 00000000 		.ascii	"\000\000\000\000\000\020\020|\020\020\020\020\022\014"
 2895      0010107C 
 2895      10101010 
 2895      120C
 2896 054e 0000     		.ascii	"\000\000"
 2897 0550 00000000 		.ascii	"\000\000\000\000\000\000\000\306BBBBF;\000\000"
 2897      000000C6 
 2897      42424242 
 2897      463B0000 
 2898 0560 00000000 		.ascii	"\000\000\000\000\000\000\000\356DD((\020\020\000\000"
 2898      000000EE 
 2898      44442828 
 2898      10100000 
 2899 0570 00000000 		.ascii	"\000\000\000\000\000\000\000\333\211JZT$$\000\000"
 2899      000000DB 
 2899      894A5A54 
 2899      24240000 
 2900 0580 00000000 		.ascii	"\000\000\000\000\000\000\000v$\030\030\030$n\000\000"
 2900      00000076 
 2900      24181818 
 2900      246E0000 
 2901 0590 00000000 		.ascii	"\000\000\000\000\000\000\000\347B$$\030\030\020\020"
 2901      000000E7 
 2901      42242418 
 2901      181010
 2902 059f 60       		.ascii	"`"
 2903 05a0 00000000 		.ascii	"\000\000\000\000\000\000\000~D\010\020\020\"~\000\000"
 2903      0000007E 
 2903      44081010 
 2903      227E0000 
ARM GAS  C:\Users\≤‹º“∫¿\AppData\Local\Temp\ccb8bRq8.s 			page 81


 2904 05b0 00030404 		.ascii	"\000\003\004\004\004\004\004\004\010\004\004\004\004"
 2904      04040404 
 2904      08040404 
 2904      04
 2905 05bd 040300   		.ascii	"\004\003\000"
 2906 05c0 08080808 		.ascii	"\010\010\010\010\010\010\010\010\010\010\010\010\010"
 2906      08080808 
 2906      08080808 
 2906      08
 2907 05cd 080808   		.ascii	"\010\010\010"
 2908 05d0 00C02020 		.ascii	"\000\300      \020     \300\000"
 2908      20202020 
 2908      10202020 
 2908      2020C000 
 2909 05e0 205A0400 		.ascii	" Z\004\000\000\000\000\000\000\000\000\000\000\000\000"
 2909      00000000 
 2909      00000000 
 2909      000000
 2910 05ef 00       		.ascii	"\000"
 2911              		.section	.rodata.asc2_2412,"a"
 2914              	asc2_2412:
 2915 0000 00000000 		.ascii	"\000\000\000\000\000\000\000\000\000\000\000\000\000"
 2915      00000000 
 2915      00000000 
 2915      00
 2916 000d 00000000 		.ascii	"\000\000\000\000\000\000\000\000\000\000\000\000\000"
 2916      00000000 
 2916      00000000 
 2916      00
 2917 001a 00000000 		.ascii	"\000\000\000\000\000\000\000\000\000\000\000\000\000"
 2917      00000000 
 2917      00000000 
 2917      00
 2918 0027 00000000 		.ascii	"\000\000\000\000\000\000\000\000\000"
 2918      00000000 
 2918      00
 2919 0030 00000000 		.ascii	"\000\000\000\000\000\000\000\000\006\000\006\000\006"
 2919      00000000 
 2919      06000600 
 2919      06
 2920 003d 00060006 		.ascii	"\000\006\000\006\000\006\000\006\000\002\000\004\000"
 2920      00060006 
 2920      00020004 
 2920      00
 2921 004a 04000400 		.ascii	"\004\000\004\000\000\000\000\000\000\000\006\000\006"
 2921      00000000 
 2921      00000600 
 2921      06
 2922 0057 00060000 		.ascii	"\000\006\000\000\000\000\000\000\000"
 2922      00000000 
 2922      00
 2923 0060 00000000 		.ascii	"\000\000\000\000\006`\006`\014\300\031\200\021\000\""
 2923      06600660 
 2923      0CC01980 
 2923      110022
 2924 006f 00000000 		.ascii	"\000\000\000\000\000\000\000\000\000\000\000\000\000"
 2924      00000000 
ARM GAS  C:\Users\≤‹º“∫¿\AppData\Local\Temp\ccb8bRq8.s 			page 82


 2924      00000000 
 2924      00
 2925 007c 00000000 		.ascii	"\000\000\000\000\000\000\000\000\000\000\000\000\000"
 2925      00000000 
 2925      00000000 
 2925      00
 2926 0089 00000000 		.ascii	"\000\000\000\000\000\000\000"
 2926      000000
 2927 0090 00000000 		.ascii	"\000\000\000\000\000\000\000\000\010@\010@\010@\010"
 2927      00000000 
 2927      08400840 
 2927      084008
 2928 009f 407FE07F 		.ascii	"@\177\340\177\340\020@\020\200\020\200\020\200\020\200"
 2928      E0104010 
 2928      80108010 
 2928      801080
 2929 00ae 7FE07FE0 		.ascii	"\177\340\177\340 \200 \200 \200 \200\000\000\000\000"
 2929      20802080 
 2929      20802080 
 2929      00000000 
 2930 00be 0000     		.ascii	"\000\000"
 2931 00c0 00000000 		.ascii	"\000\000\000\000\000\000\002\000\002\000\017\200\032"
 2931      00000200 
 2931      02000F80 
 2931      1A
 2932 00cd C032C033 		.ascii	"\3002\3003\3002\000\032\000\016\000\007\000\003\200"
 2932      C032001A 
 2932      000E0007 
 2932      000380
 2933 00dc 038002C0 		.ascii	"\003\200\002\3002\300:\3002\300\022\200\017\000\002"
 2933      32C03AC0 
 2933      32C01280 
 2933      0F0002
 2934 00eb 00020000 		.ascii	"\000\002\000\000\000"
 2934      00
 2935 00f0 00000000 		.ascii	"\000\000\000\000\000\000\000\000p\200P\200\211\000\211"
 2935      00000000 
 2935      70805080 
 2935      890089
 2936 00ff 0089008A 		.ascii	"\000\211\000\212\000\212\000\\\000u\300\005@\012 \012"
 2936      008A005C 
 2936      0075C005 
 2936      400A200A 
 2937 010f 20122012 		.ascii	" \022 \022 \022 !@!\300\000\000\000\000\000\000"
 2937      20122021 
 2937      4021C000 
 2937      00000000 
 2937      00
 2938 0120 00000000 		.ascii	"\000\000\000\000\000\000\000\000\034\0006\0006\0006"
 2938      00000000 
 2938      1C003600 
 2938      360036
 2939 012f 00360036 		.ascii	"\0006\0006\0004\000\031\3408\200X\200\314\200\314\200"
 2939      00340019 
 2939      E0388058 
 2939      80CC80CC 
 2939      80
ARM GAS  C:\Users\≤‹º“∫¿\AppData\Local\Temp\ccb8bRq8.s 			page 83


 2940 0140 C680C700 		.ascii	"\306\200\307\000\303\020c\220<\340\000\000\000\000\000"
 2940      C3106390 
 2940      3CE00000 
 2940      000000
 2941 014f 00       		.ascii	"\000"
 2942 0150 00000000 		.ascii	"\000\000\000\0000\0008\000\010\000\010\000\020\000 "
 2942      30003800 
 2942      08000800 
 2942      100020
 2943 015f 00000000 		.ascii	"\000\000\000\000\000\000\000\000\000\000\000\000\000"
 2943      00000000 
 2943      00000000 
 2943      00
 2944 016c 00000000 		.ascii	"\000\000\000\000\000\000\000\000\000\000\000\000\000"
 2944      00000000 
 2944      00000000 
 2944      00
 2945 0179 00000000 		.ascii	"\000\000\000\000\000\000\000"
 2945      000000
 2946 0180 00000000 		.ascii	"\000\000\000\000\000 \000@\000\200\001\000\001\000\002"
 2946      00200040 
 2946      00800100 
 2946      010002
 2947 018f 00020004 		.ascii	"\000\002\000\004\000\004\000\004\000\004\000\004\000"
 2947      00040004 
 2947      00040004 
 2947      00
 2948 019c 04000400 		.ascii	"\004\000\004\000\002\000\002\000\001\000\001\000\000"
 2948      02000200 
 2948      01000100 
 2948      00
 2949 01a9 80004000 		.ascii	"\200\000@\000 \000\000"
 2949      200000
 2950 01b0 00000000 		.ascii	"\000\000\000\000@\000 \000\020\000\010\000\010\000\004"
 2950      40002000 
 2950      10000800 
 2950      080004
 2951 01bf 00040002 		.ascii	"\000\004\000\002\000\002\000\002\000\002\000\002\000"
 2951      00020002 
 2951      00020002 
 2951      00
 2952 01cc 02000200 		.ascii	"\002\000\002\000\004\000\004\000\010\000\010\000\020"
 2952      04000400 
 2952      08000800 
 2952      10
 2953 01d9 00200040 		.ascii	"\000 \000@\000\000\000"
 2953      000000
 2954 01e0 00000000 		.ascii	"\000\000\000\000\000\000\000\000\000\000\000\000\002"
 2954      00000000 
 2954      00000000 
 2954      02
 2955 01ed 00030002 		.ascii	"\000\003\000\002\000b0r\360\013\200\017\200z\360b0\002"
 2955      00623072 
 2955      F00B800F 
 2955      807AF062 
 2955      3002
 2956 01ff 00020002 		.ascii	"\000\002\000\002\000\000\000\000\000\000\000\000\000"
ARM GAS  C:\Users\≤‹º“∫¿\AppData\Local\Temp\ccb8bRq8.s 			page 84


 2956      00000000 
 2956      00000000 
 2956      00
 2957 020c 00000000 		.ascii	"\000\000\000\000"
 2958 0210 00000000 		.ascii	"\000\000\000\000\000\000\000\000\000\000\000\000\000"
 2958      00000000 
 2958      00000000 
 2958      00
 2959 021d 00020002 		.ascii	"\000\002\000\002\000\002\000\002\000\002\000\177\360"
 2959      00020002 
 2959      0002007F 
 2959      F0
 2960 022a 02000200 		.ascii	"\002\000\002\000\002\000\002\000\002\000\000\000\000"
 2960      02000200 
 2960      02000000 
 2960      00
 2961 0237 00000000 		.ascii	"\000\000\000\000\000\000\000\000\000"
 2961      00000000 
 2961      00
 2962 0240 00000000 		.ascii	"\000\000\000\000\000\000\000\000\000\000\000\000\000"
 2962      00000000 
 2962      00000000 
 2962      00
 2963 024d 00000000 		.ascii	"\000\000\000\000\000\000\000\000\000\000\000\000\000"
 2963      00000000 
 2963      00000000 
 2963      00
 2964 025a 00000000 		.ascii	"\000\000\000\000\000\000\000\000\000\0000\0008\000\010"
 2964      00000000 
 2964      00003000 
 2964      380008
 2965 0269 00080010 		.ascii	"\000\010\000\020\000 \000"
 2965      002000
 2966 0270 00000000 		.ascii	"\000\000\000\000\000\000\000\000\000\000\000\000\000"
 2966      00000000 
 2966      00000000 
 2966      00
 2967 027d 00000000 		.ascii	"\000\000\000\000\000\000\000\000\000\000\000\177\340"
 2967      00000000 
 2967      0000007F 
 2967      E0
 2968 028a 00000000 		.ascii	"\000\000\000\000\000\000\000\000\000\000\000\000\000"
 2968      00000000 
 2968      00000000 
 2968      00
 2969 0297 00000000 		.ascii	"\000\000\000\000\000\000\000\000\000"
 2969      00000000 
 2969      00
 2970 02a0 00000000 		.ascii	"\000\000\000\000\000\000\000\000\000\000\000\000\000"
 2970      00000000 
 2970      00000000 
 2970      00
 2971 02ad 00000000 		.ascii	"\000\000\000\000\000\000\000\000\000\000\000\000\000"
 2971      00000000 
 2971      00000000 
 2971      00
 2972 02ba 00000000 		.ascii	"\000\000\000\000\000\000\000\000\000\0008\0008\0008"
ARM GAS  C:\Users\≤‹º“∫¿\AppData\Local\Temp\ccb8bRq8.s 			page 85


 2972      00000000 
 2972      00003800 
 2972      380038
 2973 02c9 00000000 		.ascii	"\000\000\000\000\000\000\000"
 2973      000000
 2974 02d0 00000000 		.ascii	"\000\000\000\000\000 \000`\000@\000\300\000\200\000"
 2974      00200060 
 2974      004000C0 
 2974      008000
 2975 02df 80010001 		.ascii	"\200\001\000\001\000\002\000\002\000\006\000\004\000"
 2975      00020002 
 2975      00060004 
 2975      00
 2976 02ec 04000800 		.ascii	"\004\000\010\000\010\000\020\000\020\0000\000 \000`"
 2976      08001000 
 2976      10003000 
 2976      200060
 2977 02fb 00400000 		.ascii	"\000@\000\000\000"
 2977      00
 2978 0300 00000000 		.ascii	"\000\000\000\000\000\000\000\000\000\000\017\000\031"
 2978      00000000 
 2978      00000F00 
 2978      19
 2979 030d 8030C030 		.ascii	"\2000\3000\300````````````````0\3000\300\031\200\017"
 2979      C0606060 
 2979      60606060 
 2979      60606060 
 2979      60606060 
 2980 0329 00000000 		.ascii	"\000\000\000\000\000\000\000"
 2980      000000
 2981 0330 00000000 		.ascii	"\000\000\000\000\000\000\000\000\000\000\002\000>\000"
 2981      00000000 
 2981      00000200 
 2981      3E00
 2982 033e 06000600 		.ascii	"\006\000\006\000\006\000\006\000\006\000\006\000\006"
 2982      06000600 
 2982      06000600 
 2982      06
 2983 034b 00060006 		.ascii	"\000\006\000\006\000\006\000\006\000\006\000\006\000"
 2983      00060006 
 2983      00060006 
 2983      00
 2984 0358 3FC00000 		.ascii	"?\300\000\000\000\000\000\000"
 2984      00000000 
 2985 0360 00000000 		.ascii	"\000\000\000\000\000\000\000\000\000\000\037\000!\200"
 2985      00000000 
 2985      00001F00 
 2985      2180
 2986 036e 40C060C0 		.ascii	"@\300`\300`\300\000\300\000\200\001\200\003\000\006"
 2986      60C000C0 
 2986      00800180 
 2986      030006
 2987 037d 00040008 		.ascii	"\000\004\000\010\000\020@ @`@\177\300\000\000\000\000"
 2987      00104020 
 2987      4060407F 
 2987      C0000000 
 2987      00
ARM GAS  C:\Users\≤‹º“∫¿\AppData\Local\Temp\ccb8bRq8.s 			page 86


 2988 038e 0000     		.ascii	"\000\000"
 2989 0390 00000000 		.ascii	"\000\000\000\000\000\000\000\000\000\000\036\000c\000"
 2989      00000000 
 2989      00001E00 
 2989      6300
 2990 039e 61806180 		.ascii	"a\200a\200\001\200\001\200\003\000\016\000\001\200\000"
 2990      01800180 
 2990      03000E00 
 2990      018000
 2991 03ad 8000C000 		.ascii	"\200\000\300\000\300`\300`\300a\200\037\000\000\000"
 2991      C060C060 
 2991      C061801F 
 2991      000000
 2992 03bc 00000000 		.ascii	"\000\000\000\000"
 2993 03c0 00000000 		.ascii	"\000\000\000\000\000\000\000\000\000\000\001\200\001"
 2993      00000000 
 2993      00000180 
 2993      01
 2994 03cd 80038005 		.ascii	"\200\003\200\005\200\005\200\011\200\021\200\021\200"
 2994      80058009 
 2994      80118011 
 2994      80
 2995 03da 21804180 		.ascii	"!\200A\200\177\360\001\200\001\200\001\200\001\200\007"
 2995      7FF00180 
 2995      01800180 
 2995      018007
 2996 03e9 E0000000 		.ascii	"\340\000\000\000\000\000\000"
 2996      000000
 2997 03f0 00000000 		.ascii	"\000\000\000\000\000\000\000\000\000\000?\300 \000 "
 2997      00000000 
 2997      00003FC0 
 2997      200020
 2998 03ff 00200020 		.ascii	"\000 \000 \000 \000/\0001\200 \300\000\300\000\300`"
 2998      0020002F 
 2998      00318020 
 2998      C000C000 
 2998      C060
 2999 0411 C060C041 		.ascii	"\300`\300A\200!\200\037\000\000\000\000\000\000\000"
 2999      8021801F 
 2999      00000000 
 2999      000000
 3000 0420 00000000 		.ascii	"\000\000\000\000\000\000\000\000\000\000\007\200\030"
 3000      00000000 
 3000      00000780 
 3000      18
 3001 042d C030C030 		.ascii	"\3000\3000\000 \000`\000g\200h\300p``````` `0@\030\300"
 3001      00200060 
 3001      00678068 
 3001      C0706060 
 3001      60606060 
 3002 0448 0F000000 		.ascii	"\017\000\000\000\000\000\000\000"
 3002      00000000 
 3003 0450 00000000 		.ascii	"\000\000\000\000\000\000\000\000\000\000\037\3400` "
 3003      00000000 
 3003      00001FE0 
 3003      306020
 3004 045f 40208000 		.ascii	"@ \200\000\200\000\200\001\000\001\000\002\000\002\000"
ARM GAS  C:\Users\≤‹º“∫¿\AppData\Local\Temp\ccb8bRq8.s 			page 87


 3004      80008001 
 3004      00010002 
 3004      000200
 3005 046e 02000600 		.ascii	"\002\000\006\000\006\000\006\000\006\000\006\000\000"
 3005      06000600 
 3005      06000600 
 3005      00
 3006 047b 00000000 		.ascii	"\000\000\000\000\000"
 3006      00
 3007 0480 00000000 		.ascii	"\000\000\000\000\000\000\000\000\000\000\037\2000\300"
 3007      00000000 
 3007      00001F80 
 3007      30C0
 3008 048e 60606060 		.ascii	"``````0@8\300\017\000\023\2000\300````````0\300\017"
 3008      60603040 
 3008      38C00F00 
 3008      138030C0 
 3008      60606060 
 3009 04a9 80000000 		.ascii	"\200\000\000\000\000\000\000"
 3009      000000
 3010 04b0 00000000 		.ascii	"\000\000\000\000\000\000\000\000\000\000\017\0000\200"
 3010      00000000 
 3010      00000F00 
 3010      3080
 3011 04be 30C06040 		.ascii	"0\300`@```````\3401`\036`\000`\000\300\000\3000\200"
 3011      60606060 
 3011      606060E0 
 3011      31601E60 
 3011      006000C0 
 3012 04d6 31801E00 		.ascii	"1\200\036\000\000\000\000\000\000\000"
 3012      00000000 
 3012      0000
 3013 04e0 00000000 		.ascii	"\000\000\000\000\000\000\000\000\000\000\000\000\000"
 3013      00000000 
 3013      00000000 
 3013      00
 3014 04ed 00000000 		.ascii	"\000\000\000\000\000\000\000\007\000\007\000\007\000"
 3014      00000007 
 3014      00070007 
 3014      00
 3015 04fa 00000000 		.ascii	"\000\000\000\000\000\000\000\000\000\000\007\000\007"
 3015      00000000 
 3015      00000700 
 3015      07
 3016 0507 00070000 		.ascii	"\000\007\000\000\000\000\000\000\000"
 3016      00000000 
 3016      00
 3017 0510 00000000 		.ascii	"\000\000\000\000\000\000\000\000\000\000\000\000\000"
 3017      00000000 
 3017      00000000 
 3017      00
 3018 051d 00000000 		.ascii	"\000\000\000\000\000\000\000\006\000\006\000\000\000"
 3018      00000006 
 3018      00060000 
 3018      00
 3019 052a 00000000 		.ascii	"\000\000\000\000\000\000\000\000\000\000\000\000\006"
 3019      00000000 
ARM GAS  C:\Users\≤‹º“∫¿\AppData\Local\Temp\ccb8bRq8.s 			page 88


 3019      00000000 
 3019      06
 3020 0537 00060002 		.ascii	"\000\006\000\002\000\004\000\004\000"
 3020      00040004 
 3020      00
 3021 0540 00000000 		.ascii	"\000\000\000\000\000\000\000\000\000 \000@\000\200\001"
 3021      00000000 
 3021      00200040 
 3021      008001
 3022 054f 00020004 		.ascii	"\000\002\000\004\000\010\000\020\000 \000\020\000\010"
 3022      00080010 
 3022      00200010 
 3022      0008
 3023 055d 00040002 		.ascii	"\000\004\000\002\000\001\000\000\200\000@\000 \000\000"
 3023      00010000 
 3023      80004000 
 3023      200000
 3024 056c 00000000 		.ascii	"\000\000\000\000"
 3025 0570 00000000 		.ascii	"\000\000\000\000\000\000\000\000\000\000\000\000\000"
 3025      00000000 
 3025      00000000 
 3025      00
 3026 057d 00000000 		.ascii	"\000\000\000\000\000\000\000\177\340\000\000\000\000"
 3026      0000007F 
 3026      E0000000 
 3026      00
 3027 058a 00007FE0 		.ascii	"\000\000\177\340\000\000\000\000\000\000\000\000\000"
 3027      00000000 
 3027      00000000 
 3027      00
 3028 0597 00000000 		.ascii	"\000\000\000\000\000\000\000\000\000"
 3028      00000000 
 3028      00
 3029 05a0 00000000 		.ascii	"\000\000\000\000\000\000\000\000 \000\020\000\010\000"
 3029      00000000 
 3029      20001000 
 3029      0800
 3030 05ae 04000200 		.ascii	"\004\000\002\000\001\000\000\200\000@\000 \000@\000"
 3030      01000080 
 3030      00400020 
 3030      004000
 3031 05bd 80010002 		.ascii	"\200\001\000\002\000\004\000\010\000\020\000 \000\000"
 3031      00040008 
 3031      00100020 
 3031      0000
 3032 05cb 00000000 		.ascii	"\000\000\000\000\000"
 3032      00
 3033 05d0 00000000 		.ascii	"\000\000\000\000\000\000\000\000\000\000\007\300\030"
 3033      00000000 
 3033      000007C0 
 3033      18
 3034 05dd 60203020 		.ascii	"` 0 00000\000\340\001\200\002\000\002\000\002\000\000"
 3034      30303030 
 3034      3000E001 
 3034      80020002 
 3034      00020000 
 3035 05f1 00000007 		.ascii	"\000\000\000\007\000\007\000\007\000\000\000\000\000"
ARM GAS  C:\Users\≤‹º“∫¿\AppData\Local\Temp\ccb8bRq8.s 			page 89


 3035      00070007 
 3035      00000000 
 3035      00
 3036 05fe 0000     		.ascii	"\000\000"
 3037 0600 00000000 		.ascii	"\000\000\000\000\000\000\000\000\007\000\030\3000@3"
 3037      00000000 
 3037      070018C0 
 3037      304033
 3038 060f A026A066 		.ascii	"\240&\240f\240e\240m m m m m@'\2000 0@\030\300\017\000"
 3038      A065A06D 
 3038      206D206D 
 3038      206D206D 
 3038      40278030 
 3039 062a 00000000 		.ascii	"\000\000\000\000\000\000"
 3039      0000
 3040 0630 00000000 		.ascii	"\000\000\000\000\000\000\000\000\000\000\006\000\006"
 3040      00000000 
 3040      00000600 
 3040      06
 3041 063d 000A000B 		.ascii	"\000\012\000\013\000\011\000\011\000\021\000\021\200"
 3041      00090009 
 3041      00110011 
 3041      80
 3042 064a 10801F80 		.ascii	"\020\200\037\200 \300 \300 @@@@`\360\360\000\000\000"
 3042      20C020C0 
 3042      20404040 
 3042      4060F0F0 
 3042      000000
 3043 065d 000000   		.ascii	"\000\000\000"
 3044 0660 00000000 		.ascii	"\000\000\000\000\000\000\000\000\000\000\177\0001\300"
 3044      00000000 
 3044      00007F00 
 3044      31C0
 3045 066e 30C030C0 		.ascii	"0\3000\3000\3000\3001\200?\0000\3000@0`0`0`0`0\300\177"
 3045      30C030C0 
 3045      31803F00 
 3045      30C03040 
 3045      30603060 
 3046 0689 80000000 		.ascii	"\200\000\000\000\000\000\000"
 3046      000000
 3047 0690 00000000 		.ascii	"\000\000\000\000\000\000\000\000\000\000\007\300\030"
 3047      00000000 
 3047      000007C0 
 3047      18
 3048 069d C0306030 		.ascii	"\3000`0   `\000`\000`\000`\000`\000`\000` 0 0@\030\300"
 3048      20202060 
 3048      00600060 
 3048      00600060 
 3048      00600060 
 3049 06b8 0F000000 		.ascii	"\017\000\000\000\000\000\000\000"
 3049      00000000 
 3050 06c0 00000000 		.ascii	"\000\000\000\000\000\000\000\000\000\000\376\0001\200"
 3050      00000000 
 3050      0000FE00 
 3050      3180
 3051 06ce 30C030C0 		.ascii	"0\3000\3000`0`0`0`0`0`0`0`0\3000\3001\200\376\000\000"
 3051      30603060 
ARM GAS  C:\Users\≤‹º“∫¿\AppData\Local\Temp\ccb8bRq8.s 			page 90


 3051      30603060 
 3051      30603060 
 3051      30603060 
 3052 06eb 00000000 		.ascii	"\000\000\000\000\000"
 3052      00
 3053 06f0 00000000 		.ascii	"\000\000\000\000\000\000\000\000\000\000\377\300`\300"
 3053      00000000 
 3053      0000FFC0 
 3053      60C0
 3054 06fe 60206020 		.ascii	"` ` `\000a\000a\000\177\000a\000a\000a\000`\000` ` "
 3054      60006100 
 3054      61007F00 
 3054      61006100 
 3054      61006000 
 3055 0716 6040FFC0 		.ascii	"`@\377\300\000\000\000\000\000\000"
 3055      00000000 
 3055      0000
 3056 0720 00000000 		.ascii	"\000\000\000\000\000\000\000\000\000\000\377\300`\300"
 3056      00000000 
 3056      0000FFC0 
 3056      60C0
 3057 072e 60206020 		.ascii	"` ` `\000a\000a\000\177\000a\000a\000a\000`\000`\000"
 3057      60006100 
 3057      61007F00 
 3057      61006100 
 3057      61006000 
 3058 0744 60006000 		.ascii	"`\000`\000\370\000\000\000\000\000\000\000"
 3058      F8000000 
 3058      00000000 
 3059 0750 00000000 		.ascii	"\000\000\000\000\000\000\000\000\000\000\017\000\030"
 3059      00000000 
 3059      00000F00 
 3059      18
 3060 075d 80304030 		.ascii	"\2000@0@ @`\000`\000`\000`\000c\360`\300`\3000\3000"
 3060      40204060 
 3060      00600060 
 3060      00600063 
 3060      F060C060 
 3061 0775 C018C00F 		.ascii	"\300\030\300\017\000\000\000\000\000\000\000"
 3061      00000000 
 3061      000000
 3062 0780 00000000 		.ascii	"\000\000\000\000\000\000\000\000\000\000\360\360```"
 3062      00000000 
 3062      0000F0F0 
 3062      606060
 3063 078f 60606060 		.ascii	"`````````\177\340``````````````\360\360\000\000\000"
 3063      60606060 
 3063      607FE060 
 3063      60606060 
 3063      60606060 
 3064 07ad 000000   		.ascii	"\000\000\000"
 3065 07b0 00000000 		.ascii	"\000\000\000\000\000\000\000\000\000\000?\300\006\000"
 3065      00000000 
 3065      00003FC0 
 3065      0600
 3066 07be 06000600 		.ascii	"\006\000\006\000\006\000\006\000\006\000\006\000\006"
 3066      06000600 
ARM GAS  C:\Users\≤‹º“∫¿\AppData\Local\Temp\ccb8bRq8.s 			page 91


 3066      06000600 
 3066      06
 3067 07cb 00060006 		.ascii	"\000\006\000\006\000\006\000\006\000\006\000\006\000"
 3067      00060006 
 3067      00060006 
 3067      00
 3068 07d8 3FC00000 		.ascii	"?\300\000\000\000\000\000\000"
 3068      00000000 
 3069 07e0 00000000 		.ascii	"\000\000\000\000\000\000\000\000\000\000\037\340\003"
 3069      00000000 
 3069      00001FE0 
 3069      03
 3070 07ed 00030003 		.ascii	"\000\003\000\003\000\003\000\003\000\003\000\003\000"
 3070      00030003 
 3070      00030003 
 3070      00
 3071 07fa 03000300 		.ascii	"\003\000\003\000\003\000\003\000\003\000\003\000\003"
 3071      03000300 
 3071      03000300 
 3071      03
 3072 0807 00030063 		.ascii	"\000\003\000c\000f\000<\000"
 3072      0066003C 
 3072      00
 3073 0810 00000000 		.ascii	"\000\000\000\000\000\000\000\000\000\000\363\300a\200"
 3073      00000000 
 3073      0000F3C0 
 3073      6180
 3074 081e 63006200 		.ascii	"c\000b\000d\000h\000l\000t\000v\000b\000c\000a\000a"
 3074      64006800 
 3074      6C007400 
 3074      76006200 
 3074      63006100 
 3075 0833 80608060 		.ascii	"\200`\200`\300\361\340\000\000\000\000\000\000"
 3075      C0F1E000 
 3075      00000000 
 3075      00
 3076 0840 00000000 		.ascii	"\000\000\000\000\000\000\000\000\000\000\370\000`\000"
 3076      00000000 
 3076      0000F800 
 3076      6000
 3077 084e 60006000 		.ascii	"`\000`\000`\000`\000`\000`\000`\000`\000`\000`\000`"
 3077      60006000 
 3077      60006000 
 3077      60006000 
 3077      60006000 
 3078 0863 20602060 		.ascii	" ` `@\377\300\000\000\000\000\000\000"
 3078      40FFC000 
 3078      00000000 
 3078      00
 3079 0870 00000000 		.ascii	"\000\000\000\000\000\000\000\000\000\000\340\340a\300"
 3079      00000000 
 3079      0000E0E0 
 3079      61C0
 3080 087e 61C071C0 		.ascii	"a\300q\300q\300r\300r\300R\300Z\300Z\300\\\300L\300"
 3080      71C072C0 
 3080      72C052C0 
 3080      5AC05AC0 
ARM GAS  C:\Users\≤‹º“∫¿\AppData\Local\Temp\ccb8bRq8.s 			page 92


 3080      5CC04CC0 
 3081 0892 4CC04CC0 		.ascii	"L\300L\300H\300\341\340\000\000\000\000\000\000"
 3081      48C0E1E0 
 3081      00000000 
 3081      0000
 3082 08a0 00000000 		.ascii	"\000\000\000\000\000\000\000\000\000\000q\3600@8@8@"
 3082      00000000 
 3082      000071F0 
 3082      30403840 
 3082      3840
 3083 08b2 2C402C40 		.ascii	",@,@&@&@\"@#@!@!\300!\300 \300 \300\370@\000\000\000"
 3083      26402640 
 3083      22402340 
 3083      214021C0 
 3083      21C020C0 
 3084 08cd 000000   		.ascii	"\000\000\000"
 3085 08d0 00000000 		.ascii	"\000\000\000\000\000\000\000\000\000\000\017\000\031"
 3085      00000000 
 3085      00000F00 
 3085      19
 3086 08dd 8030C030 		.ascii	"\2000\3000@````````````````0@0\300\031\200\017\000\000"
 3086      40606060 
 3086      60606060 
 3086      60606060 
 3086      60606060 
 3087 08fb 00000000 		.ascii	"\000\000\000\000\000"
 3087      00
 3088 0900 00000000 		.ascii	"\000\000\000\000\000\000\000\000\000\000\377\000`\300"
 3088      00000000 
 3088      0000FF00 
 3088      60C0
 3089 090e 60606060 		.ascii	"``````````a\300\177\000`\000`\000`\000`\000`\000`\000"
 3089      60606060 
 3089      606061C0 
 3089      7F006000 
 3089      60006000 
 3090 0928 F8000000 		.ascii	"\370\000\000\000\000\000\000\000"
 3090      00000000 
 3091 0930 00000000 		.ascii	"\000\000\000\000\000\000\000\000\000\000\017\000\031"
 3091      00000000 
 3091      00000F00 
 3091      19
 3092 093d 8030C030 		.ascii	"\2000\3000@``````````````n`2@3\300\031\200\017\000\001"
 3092      40606060 
 3092      60606060 
 3092      60606060 
 3092      6060606E 
 3093 095b E000C000 		.ascii	"\340\000\300\000\000"
 3093      00
 3094 0960 00000000 		.ascii	"\000\000\000\000\000\000\000\000\000\000\377\200`\300"
 3094      00000000 
 3094      0000FF80 
 3094      60C0
 3095 096e 60606060 		.ascii	"`````````\300\177\000b\000c\000a\000a\200`\300`\300"
 3095      60606060 
 3095      60C07F00 
 3095      62006300 
ARM GAS  C:\Users\≤‹º“∫¿\AppData\Local\Temp\ccb8bRq8.s 			page 93


 3095      61006180 
 3096 0986 6060F070 		.ascii	"``\360p\000\000\000\000\000\000"
 3096      00000000 
 3096      0000
 3097 0990 00000000 		.ascii	"\000\000\000\000\000\000\000\000\000\000\037@0\300`"
 3097      00000000 
 3097      00001F40 
 3097      30C060
 3098 099f 40604060 		.ascii	"@`@`\000p\000<\000\037\000\007\300\001\300\000\340@"
 3098      0070003C 
 3098      001F0007 
 3098      C001C000 
 3098      E040
 3099 09b1 60406060 		.ascii	"`@```0\300\017\200\000\000\000\000\000\000"
 3099      6030C00F 
 3099      80000000 
 3099      000000
 3100 09c0 00000000 		.ascii	"\000\000\000\000\000\000\000\000\000\000\177\340F \206"
 3100      00000000 
 3100      00007FE0 
 3100      462086
 3101 09cf 10861006 		.ascii	"\020\206\020\006\000\006\000\006\000\006\000\006\000"
 3101      00060006 
 3101      00060006 
 3101      00
 3102 09dc 06000600 		.ascii	"\006\000\006\000\006\000\006\000\006\000\006\000\037"
 3102      06000600 
 3102      06000600 
 3102      1F
 3103 09e9 80000000 		.ascii	"\200\000\000\000\000\000\000"
 3103      000000
 3104 09f0 00000000 		.ascii	"\000\000\000\000\000\000\000\000\000\000x\3400@0@0@"
 3104      00000000 
 3104      000078E0 
 3104      30403040 
 3104      3040
 3105 0a02 30403040 		.ascii	"0@0@0@0@0@0@0@0@0@0@\030\200\017\000\000\000\000\000"
 3105      30403040 
 3105      30403040 
 3105      30403040 
 3105      30403040 
 3106 0a1e 0000     		.ascii	"\000\000"
 3107 0a20 00000000 		.ascii	"\000\000\000\000\000\000\000\000\000\000\360\340`@ "
 3107      00000000 
 3107      0000F0E0 
 3107      604020
 3108 0a2f 80208030 		.ascii	"\200 \2000\2000\200\021\000\021\000\031\000\031\000"
 3108      80308011 
 3108      00110019 
 3108      001900
 3109 0a3e 0A000A00 		.ascii	"\012\000\012\000\016\000\014\000\004\000\004\000\000"
 3109      0E000C00 
 3109      04000400 
 3109      00
 3110 0a4b 00000000 		.ascii	"\000\000\000\000\000"
 3110      00
 3111 0a50 00000000 		.ascii	"\000\000\000\000\000\000\000\000\000\000\357pF B b "
ARM GAS  C:\Users\≤‹º“∫¿\AppData\Local\Temp\ccb8bRq8.s 			page 94


 3111      00000000 
 3111      0000EF70 
 3111      46204220 
 3111      6220
 3112 0a62 62202640 		.ascii	"b &@&@'@'@9@9\200\031\200\031\200\021\200\021\000\021"
 3112      26402740 
 3112      27403940 
 3112      39801980 
 3112      19801180 
 3113 0a79 00000000 		.ascii	"\000\000\000\000\000\000\000"
 3113      000000
 3114 0a80 00000000 		.ascii	"\000\000\000\000\000\000\000\000\000\000y\3400\200\020"
 3114      00000000 
 3114      000079E0 
 3114      308010
 3115 0a8f 80188009 		.ascii	"\200\030\200\011\000\015\000\006\000\004\000\006\000"
 3115      000D0006 
 3115      00040006 
 3115      00
 3116 0a9c 06000B00 		.ascii	"\006\000\013\000\011\000\021\200\020\200 \300q\340\000"
 3116      09001180 
 3116      108020C0 
 3116      71E000
 3117 0aab 00000000 		.ascii	"\000\000\000\000\000"
 3117      00
 3118 0ab0 00000000 		.ascii	"\000\000\000\000\000\000\000\000\000\000\360\360`  "
 3118      00000000 
 3118      0000F0F0 
 3118      602020
 3119 0abf 40304010 		.ascii	"@0@\020\200\030\200\035\000\015\000\016\000\006\000"
 3119      8018801D 
 3119      000D000E 
 3119      000600
 3120 0ace 06000600 		.ascii	"\006\000\006\000\006\000\006\000\006\000\037\200\000"
 3120      06000600 
 3120      06001F80 
 3120      00
 3121 0adb 00000000 		.ascii	"\000\000\000\000\000"
 3121      00
 3122 0ae0 00000000 		.ascii	"\000\000\000\000\000\000\000\000\000\000?\3400@`\300"
 3122      00000000 
 3122      00003FE0 
 3122      304060C0 
 3123 0af0 40800180 		.ascii	"@\200\001\200\001\000\002\000\002\000\004\000\004\000"
 3123      01000200 
 3123      02000400 
 3123      0400
 3124 0afe 08001800 		.ascii	"\010\000\030\000\020 0  @\177\300\000\000\000\000\000"
 3124      10203020 
 3124      20407FC0 
 3124      00000000 
 3124      00
 3125 0b0f 00       		.ascii	"\000"
 3126 0b10 00000000 		.ascii	"\000\000\000\000\007\300\004\000\004\000\004\000\004"
 3126      07C00400 
 3126      04000400 
 3126      04
ARM GAS  C:\Users\≤‹º“∫¿\AppData\Local\Temp\ccb8bRq8.s 			page 95


 3127 0b1d 00040004 		.ascii	"\000\004\000\004\000\004\000\004\000\004\000\004\000"
 3127      00040004 
 3127      00040004 
 3127      00
 3128 0b2a 04000400 		.ascii	"\004\000\004\000\004\000\004\000\004\000\004\000\004"
 3128      04000400 
 3128      04000400 
 3128      04
 3129 0b37 00040004 		.ascii	"\000\004\000\004\000\007\300\000\000"
 3129      0007C000 
 3129      00
 3130 0b40 00000000 		.ascii	"\000\000\000\000\000\000\000\000 \000 \000\020\000\020"
 3130      00000000 
 3130      20002000 
 3130      100010
 3131 0b4f 00080008 		.ascii	"\000\010\000\010\000\010\000\004\000\004\000\002\000"
 3131      00080004 
 3131      00040002 
 3131      00
 3132 0b5c 02000300 		.ascii	"\002\000\003\000\001\000\001\000\000\200\000\200\000"
 3132      01000100 
 3132      00800080 
 3132      00
 3133 0b69 40004000 		.ascii	"@\000@\000@\000 "
 3133      400020
 3134 0b70 00000000 		.ascii	"\000\000\000\000>\000\002\000\002\000\002\000\002\000"
 3134      3E000200 
 3134      02000200 
 3134      0200
 3135 0b7e 02000200 		.ascii	"\002\000\002\000\002\000\002\000\002\000\002\000\002"
 3135      02000200 
 3135      02000200 
 3135      02
 3136 0b8b 00020002 		.ascii	"\000\002\000\002\000\002\000\002\000\002\000\002\000"
 3136      00020002 
 3136      00020002 
 3136      00
 3137 0b98 02000200 		.ascii	"\002\000\002\000>\000\000\000"
 3137      3E000000 
 3138 0ba0 00000600 		.ascii	"\000\000\006\000\011\000\020\200\000\000\000\000\000"
 3138      09001080 
 3138      00000000 
 3138      00
 3139 0bad 00000000 		.ascii	"\000\000\000\000\000\000\000\000\000\000\000\000\000"
 3139      00000000 
 3139      00000000 
 3139      00
 3140 0bba 00000000 		.ascii	"\000\000\000\000\000\000\000\000\000\000\000\000\000"
 3140      00000000 
 3140      00000000 
 3140      00
 3141 0bc7 00000000 		.ascii	"\000\000\000\000\000\000\000\000\000"
 3141      00000000 
 3141      00
 3142 0bd0 00000000 		.ascii	"\000\000\000\000\000\000\000\000\000\000\000\000\000"
 3142      00000000 
 3142      00000000 
ARM GAS  C:\Users\≤‹º“∫¿\AppData\Local\Temp\ccb8bRq8.s 			page 96


 3142      00
 3143 0bdd 00000000 		.ascii	"\000\000\000\000\000\000\000\000\000\000\000\000\000"
 3143      00000000 
 3143      00000000 
 3143      00
 3144 0bea 00000000 		.ascii	"\000\000\000\000\000\000\000\000\000\000\000\000\000"
 3144      00000000 
 3144      00000000 
 3144      00
 3145 0bf7 00000000 		.ascii	"\000\000\000\000\000\000\000\377\360"
 3145      000000FF 
 3145      F0
 3146 0c00 00000000 		.ascii	"\000\000\000\000\030\000\006\000\000\000\000\000\000"
 3146      18000600 
 3146      00000000 
 3146      00
 3147 0c0d 00000000 		.ascii	"\000\000\000\000\000\000\000\000\000\000\000\000\000"
 3147      00000000 
 3147      00000000 
 3147      00
