ARM GAS  C:\Users\²Ü¼ÒºÀ\AppData\Local\Temp\ccOngKk7.s 			page 1


   1              		.cpu cortex-m4
   2              		.eabi_attribute 27, 1
   3              		.eabi_attribute 28, 1
   4              		.eabi_attribute 20, 1
   5              		.eabi_attribute 21, 1
   6              		.eabi_attribute 23, 3
   7              		.eabi_attribute 24, 1
   8              		.eabi_attribute 25, 1
   9              		.eabi_attribute 26, 1
  10              		.eabi_attribute 30, 4
  11              		.eabi_attribute 34, 1
  12              		.eabi_attribute 18, 4
  13              		.file	"los_task.c"
  14              		.text
  15              	.Ltext0:
  16              		.cfi_sections	.debug_frame
  17              		.section	.text.LOS_ListDelete,"ax",%progbits
  18              		.align	1
  19              		.arch armv7e-m
  20              		.syntax unified
  21              		.thumb
  22              		.thumb_func
  23              		.fpu fpv4-sp-d16
  25              	LOS_ListDelete:
  26              	.LVL0:
  27              	.LFB126:
  28              		.file 1 "C:/Users/\262\334\274\322\272\300/.iotlink/sdk/IoT_LINK/iot_link/os/liteos/include/los_li
   1:C:/Users/²Ü¼ÒºÀ/.iotlink/sdk/IoT_LINK/iot_link/os/liteos/include\los_list.h **** /*----------------------------------------------------------------------------
   2:C:/Users/²Ü¼ÒºÀ/.iotlink/sdk/IoT_LINK/iot_link/os/liteos/include\los_list.h ****  * Copyright (c) <2013-2015>, <Huawei Technologies Co., Ltd>
   3:C:/Users/²Ü¼ÒºÀ/.iotlink/sdk/IoT_LINK/iot_link/os/liteos/include\los_list.h ****  * All rights reserved.
   4:C:/Users/²Ü¼ÒºÀ/.iotlink/sdk/IoT_LINK/iot_link/os/liteos/include\los_list.h ****  * Redistribution and use in source and binary forms, with or without modification,
   5:C:/Users/²Ü¼ÒºÀ/.iotlink/sdk/IoT_LINK/iot_link/os/liteos/include\los_list.h ****  * are permitted provided that the following conditions are met:
   6:C:/Users/²Ü¼ÒºÀ/.iotlink/sdk/IoT_LINK/iot_link/os/liteos/include\los_list.h ****  * 1. Redistributions of source code must retain the above copyright notice, this list of
   7:C:/Users/²Ü¼ÒºÀ/.iotlink/sdk/IoT_LINK/iot_link/os/liteos/include\los_list.h ****  * conditions and the following disclaimer.
   8:C:/Users/²Ü¼ÒºÀ/.iotlink/sdk/IoT_LINK/iot_link/os/liteos/include\los_list.h ****  * 2. Redistributions in binary form must reproduce the above copyright notice, this list
   9:C:/Users/²Ü¼ÒºÀ/.iotlink/sdk/IoT_LINK/iot_link/os/liteos/include\los_list.h ****  * of conditions and the following disclaimer in the documentation and/or other materials
  10:C:/Users/²Ü¼ÒºÀ/.iotlink/sdk/IoT_LINK/iot_link/os/liteos/include\los_list.h ****  * provided with the distribution.
  11:C:/Users/²Ü¼ÒºÀ/.iotlink/sdk/IoT_LINK/iot_link/os/liteos/include\los_list.h ****  * 3. Neither the name of the copyright holder nor the names of its contributors may be used
  12:C:/Users/²Ü¼ÒºÀ/.iotlink/sdk/IoT_LINK/iot_link/os/liteos/include\los_list.h ****  * to endorse or promote products derived from this software without specific prior written
  13:C:/Users/²Ü¼ÒºÀ/.iotlink/sdk/IoT_LINK/iot_link/os/liteos/include\los_list.h ****  * permission.
  14:C:/Users/²Ü¼ÒºÀ/.iotlink/sdk/IoT_LINK/iot_link/os/liteos/include\los_list.h ****  * THIS SOFTWARE IS PROVIDED BY THE COPYRIGHT HOLDERS AND CONTRIBUTORS
  15:C:/Users/²Ü¼ÒºÀ/.iotlink/sdk/IoT_LINK/iot_link/os/liteos/include\los_list.h ****  * "AS IS" AND ANY EXPRESS OR IMPLIED WARRANTIES, INCLUDING, BUT NOT LIMITED TO,
  16:C:/Users/²Ü¼ÒºÀ/.iotlink/sdk/IoT_LINK/iot_link/os/liteos/include\los_list.h ****  * THE IMPLIED WARRANTIES OF MERCHANTABILITY AND FITNESS FOR A PARTICULAR
  17:C:/Users/²Ü¼ÒºÀ/.iotlink/sdk/IoT_LINK/iot_link/os/liteos/include\los_list.h ****  * PURPOSE ARE DISCLAIMED. IN NO EVENT SHALL THE COPYRIGHT HOLDER OR
  18:C:/Users/²Ü¼ÒºÀ/.iotlink/sdk/IoT_LINK/iot_link/os/liteos/include\los_list.h ****  * CONTRIBUTORS BE LIABLE FOR ANY DIRECT, INDIRECT, INCIDENTAL, SPECIAL,
  19:C:/Users/²Ü¼ÒºÀ/.iotlink/sdk/IoT_LINK/iot_link/os/liteos/include\los_list.h ****  * EXEMPLARY, OR CONSEQUENTIAL DAMAGES (INCLUDING, BUT NOT LIMITED TO,
  20:C:/Users/²Ü¼ÒºÀ/.iotlink/sdk/IoT_LINK/iot_link/os/liteos/include\los_list.h ****  * PROCUREMENT OF SUBSTITUTE GOODS OR SERVICES; LOSS OF USE, DATA, OR PROFITS;
  21:C:/Users/²Ü¼ÒºÀ/.iotlink/sdk/IoT_LINK/iot_link/os/liteos/include\los_list.h ****  * OR BUSINESS INTERRUPTION) HOWEVER CAUSED AND ON ANY THEORY OF LIABILITY,
  22:C:/Users/²Ü¼ÒºÀ/.iotlink/sdk/IoT_LINK/iot_link/os/liteos/include\los_list.h ****  * WHETHER IN CONTRACT, STRICT LIABILITY, OR TORT (INCLUDING NEGLIGENCE OR
  23:C:/Users/²Ü¼ÒºÀ/.iotlink/sdk/IoT_LINK/iot_link/os/liteos/include\los_list.h ****  * OTHERWISE) ARISING IN ANY WAY OUT OF THE USE OF THIS SOFTWARE, EVEN IF
  24:C:/Users/²Ü¼ÒºÀ/.iotlink/sdk/IoT_LINK/iot_link/os/liteos/include\los_list.h ****  * ADVISED OF THE POSSIBILITY OF SUCH DAMAGE.
  25:C:/Users/²Ü¼ÒºÀ/.iotlink/sdk/IoT_LINK/iot_link/os/liteos/include\los_list.h ****  *---------------------------------------------------------------------------*/
  26:C:/Users/²Ü¼ÒºÀ/.iotlink/sdk/IoT_LINK/iot_link/os/liteos/include\los_list.h **** /*----------------------------------------------------------------------------
  27:C:/Users/²Ü¼ÒºÀ/.iotlink/sdk/IoT_LINK/iot_link/os/liteos/include\los_list.h ****  * Notice of Export Control Law
  28:C:/Users/²Ü¼ÒºÀ/.iotlink/sdk/IoT_LINK/iot_link/os/liteos/include\los_list.h ****  * ===============================================
  29:C:/Users/²Ü¼ÒºÀ/.iotlink/sdk/IoT_LINK/iot_link/os/liteos/include\los_list.h ****  * Huawei LiteOS may be subject to applicable export control laws and regulations, which might
  30:C:/Users/²Ü¼ÒºÀ/.iotlink/sdk/IoT_LINK/iot_link/os/liteos/include\los_list.h ****  * include those applicable to Huawei LiteOS of U.S. and the country in which you are located.
ARM GAS  C:\Users\²Ü¼ÒºÀ\AppData\Local\Temp\ccOngKk7.s 			page 2


  31:C:/Users/²Ü¼ÒºÀ/.iotlink/sdk/IoT_LINK/iot_link/os/liteos/include\los_list.h ****  * Import, export and usage of Huawei LiteOS in any manner by you shall be in compliance with such
  32:C:/Users/²Ü¼ÒºÀ/.iotlink/sdk/IoT_LINK/iot_link/os/liteos/include\los_list.h ****  * applicable export control laws and regulations.
  33:C:/Users/²Ü¼ÒºÀ/.iotlink/sdk/IoT_LINK/iot_link/os/liteos/include\los_list.h ****  *---------------------------------------------------------------------------*/
  34:C:/Users/²Ü¼ÒºÀ/.iotlink/sdk/IoT_LINK/iot_link/os/liteos/include\los_list.h **** 
  35:C:/Users/²Ü¼ÒºÀ/.iotlink/sdk/IoT_LINK/iot_link/os/liteos/include\los_list.h ****  /** @defgroup los_list Doubly linked list
  36:C:/Users/²Ü¼ÒºÀ/.iotlink/sdk/IoT_LINK/iot_link/os/liteos/include\los_list.h ****  * @ingroup kernel
  37:C:/Users/²Ü¼ÒºÀ/.iotlink/sdk/IoT_LINK/iot_link/os/liteos/include\los_list.h ****  */
  38:C:/Users/²Ü¼ÒºÀ/.iotlink/sdk/IoT_LINK/iot_link/os/liteos/include\los_list.h **** 
  39:C:/Users/²Ü¼ÒºÀ/.iotlink/sdk/IoT_LINK/iot_link/os/liteos/include\los_list.h **** #ifndef _LOS_LIST_H
  40:C:/Users/²Ü¼ÒºÀ/.iotlink/sdk/IoT_LINK/iot_link/os/liteos/include\los_list.h **** #define _LOS_LIST_H
  41:C:/Users/²Ü¼ÒºÀ/.iotlink/sdk/IoT_LINK/iot_link/os/liteos/include\los_list.h **** 
  42:C:/Users/²Ü¼ÒºÀ/.iotlink/sdk/IoT_LINK/iot_link/os/liteos/include\los_list.h **** #include "los_typedef.h"
  43:C:/Users/²Ü¼ÒºÀ/.iotlink/sdk/IoT_LINK/iot_link/os/liteos/include\los_list.h **** 
  44:C:/Users/²Ü¼ÒºÀ/.iotlink/sdk/IoT_LINK/iot_link/os/liteos/include\los_list.h **** #ifdef __cplusplus
  45:C:/Users/²Ü¼ÒºÀ/.iotlink/sdk/IoT_LINK/iot_link/os/liteos/include\los_list.h **** #if __cplusplus
  46:C:/Users/²Ü¼ÒºÀ/.iotlink/sdk/IoT_LINK/iot_link/os/liteos/include\los_list.h **** extern "C" {
  47:C:/Users/²Ü¼ÒºÀ/.iotlink/sdk/IoT_LINK/iot_link/os/liteos/include\los_list.h **** #endif /* __cplusplus */
  48:C:/Users/²Ü¼ÒºÀ/.iotlink/sdk/IoT_LINK/iot_link/os/liteos/include\los_list.h **** #endif /* __cplusplus */
  49:C:/Users/²Ü¼ÒºÀ/.iotlink/sdk/IoT_LINK/iot_link/os/liteos/include\los_list.h **** 
  50:C:/Users/²Ü¼ÒºÀ/.iotlink/sdk/IoT_LINK/iot_link/os/liteos/include\los_list.h **** 
  51:C:/Users/²Ü¼ÒºÀ/.iotlink/sdk/IoT_LINK/iot_link/os/liteos/include\los_list.h **** /**
  52:C:/Users/²Ü¼ÒºÀ/.iotlink/sdk/IoT_LINK/iot_link/os/liteos/include\los_list.h ****  *@ingroup los_list
  53:C:/Users/²Ü¼ÒºÀ/.iotlink/sdk/IoT_LINK/iot_link/os/liteos/include\los_list.h ****  *Structure of a node in a doubly linked list.
  54:C:/Users/²Ü¼ÒºÀ/.iotlink/sdk/IoT_LINK/iot_link/os/liteos/include\los_list.h ****  */
  55:C:/Users/²Ü¼ÒºÀ/.iotlink/sdk/IoT_LINK/iot_link/os/liteos/include\los_list.h **** typedef struct LOS_DL_LIST
  56:C:/Users/²Ü¼ÒºÀ/.iotlink/sdk/IoT_LINK/iot_link/os/liteos/include\los_list.h **** {
  57:C:/Users/²Ü¼ÒºÀ/.iotlink/sdk/IoT_LINK/iot_link/os/liteos/include\los_list.h ****     struct LOS_DL_LIST *pstPrev;            /**< Current node's pointer to the previous node*/
  58:C:/Users/²Ü¼ÒºÀ/.iotlink/sdk/IoT_LINK/iot_link/os/liteos/include\los_list.h ****     struct LOS_DL_LIST *pstNext;            /**< Current node's pointer to the next node*/
  59:C:/Users/²Ü¼ÒºÀ/.iotlink/sdk/IoT_LINK/iot_link/os/liteos/include\los_list.h **** } LOS_DL_LIST;
  60:C:/Users/²Ü¼ÒºÀ/.iotlink/sdk/IoT_LINK/iot_link/os/liteos/include\los_list.h **** 
  61:C:/Users/²Ü¼ÒºÀ/.iotlink/sdk/IoT_LINK/iot_link/os/liteos/include\los_list.h **** /**
  62:C:/Users/²Ü¼ÒºÀ/.iotlink/sdk/IoT_LINK/iot_link/os/liteos/include\los_list.h ****  *@ingroup los_list
  63:C:/Users/²Ü¼ÒºÀ/.iotlink/sdk/IoT_LINK/iot_link/os/liteos/include\los_list.h ****  *@brief Initialize a doubly linked list.
  64:C:/Users/²Ü¼ÒºÀ/.iotlink/sdk/IoT_LINK/iot_link/os/liteos/include\los_list.h ****  *
  65:C:/Users/²Ü¼ÒºÀ/.iotlink/sdk/IoT_LINK/iot_link/os/liteos/include\los_list.h ****  *@par Description:
  66:C:/Users/²Ü¼ÒºÀ/.iotlink/sdk/IoT_LINK/iot_link/os/liteos/include\los_list.h ****  *This API is used to initialize a doubly linked list.
  67:C:/Users/²Ü¼ÒºÀ/.iotlink/sdk/IoT_LINK/iot_link/os/liteos/include\los_list.h ****  *@attention
  68:C:/Users/²Ü¼ÒºÀ/.iotlink/sdk/IoT_LINK/iot_link/os/liteos/include\los_list.h ****  *<ul>
  69:C:/Users/²Ü¼ÒºÀ/.iotlink/sdk/IoT_LINK/iot_link/os/liteos/include\los_list.h ****  *<li>The parameter passed in should be ensured to be a legal pointer.</li>
  70:C:/Users/²Ü¼ÒºÀ/.iotlink/sdk/IoT_LINK/iot_link/os/liteos/include\los_list.h ****  *</ul>
  71:C:/Users/²Ü¼ÒºÀ/.iotlink/sdk/IoT_LINK/iot_link/os/liteos/include\los_list.h ****  *
  72:C:/Users/²Ü¼ÒºÀ/.iotlink/sdk/IoT_LINK/iot_link/os/liteos/include\los_list.h ****  *@param pstList    [IN] Node in a doubly linked list.
  73:C:/Users/²Ü¼ÒºÀ/.iotlink/sdk/IoT_LINK/iot_link/os/liteos/include\los_list.h ****  *
  74:C:/Users/²Ü¼ÒºÀ/.iotlink/sdk/IoT_LINK/iot_link/os/liteos/include\los_list.h ****  *@retval None.
  75:C:/Users/²Ü¼ÒºÀ/.iotlink/sdk/IoT_LINK/iot_link/os/liteos/include\los_list.h ****  *@par Dependency:
  76:C:/Users/²Ü¼ÒºÀ/.iotlink/sdk/IoT_LINK/iot_link/os/liteos/include\los_list.h ****  *<ul><li>los_list.h: the header file that contains the API declaration.</li></ul>
  77:C:/Users/²Ü¼ÒºÀ/.iotlink/sdk/IoT_LINK/iot_link/os/liteos/include\los_list.h ****  *@see
  78:C:/Users/²Ü¼ÒºÀ/.iotlink/sdk/IoT_LINK/iot_link/os/liteos/include\los_list.h ****  *@since Huawei LiteOS V100R001C00
  79:C:/Users/²Ü¼ÒºÀ/.iotlink/sdk/IoT_LINK/iot_link/os/liteos/include\los_list.h ****  */
  80:C:/Users/²Ü¼ÒºÀ/.iotlink/sdk/IoT_LINK/iot_link/os/liteos/include\los_list.h **** LITE_OS_SEC_ALW_INLINE STATIC_INLINE VOID LOS_ListInit(LOS_DL_LIST *pstList)
  81:C:/Users/²Ü¼ÒºÀ/.iotlink/sdk/IoT_LINK/iot_link/os/liteos/include\los_list.h **** {
  82:C:/Users/²Ü¼ÒºÀ/.iotlink/sdk/IoT_LINK/iot_link/os/liteos/include\los_list.h ****     pstList->pstNext = pstList;
  83:C:/Users/²Ü¼ÒºÀ/.iotlink/sdk/IoT_LINK/iot_link/os/liteos/include\los_list.h ****     pstList->pstPrev = pstList;
  84:C:/Users/²Ü¼ÒºÀ/.iotlink/sdk/IoT_LINK/iot_link/os/liteos/include\los_list.h **** }
  85:C:/Users/²Ü¼ÒºÀ/.iotlink/sdk/IoT_LINK/iot_link/os/liteos/include\los_list.h **** 
  86:C:/Users/²Ü¼ÒºÀ/.iotlink/sdk/IoT_LINK/iot_link/os/liteos/include\los_list.h **** /**
  87:C:/Users/²Ü¼ÒºÀ/.iotlink/sdk/IoT_LINK/iot_link/os/liteos/include\los_list.h ****  *@ingroup los_list
ARM GAS  C:\Users\²Ü¼ÒºÀ\AppData\Local\Temp\ccOngKk7.s 			page 3


  88:C:/Users/²Ü¼ÒºÀ/.iotlink/sdk/IoT_LINK/iot_link/os/liteos/include\los_list.h ****  *@brief Point to the next node pointed to by the current node.
  89:C:/Users/²Ü¼ÒºÀ/.iotlink/sdk/IoT_LINK/iot_link/os/liteos/include\los_list.h ****  *
  90:C:/Users/²Ü¼ÒºÀ/.iotlink/sdk/IoT_LINK/iot_link/os/liteos/include\los_list.h ****  *@par Description:
  91:C:/Users/²Ü¼ÒºÀ/.iotlink/sdk/IoT_LINK/iot_link/os/liteos/include\los_list.h ****  *<ul>
  92:C:/Users/²Ü¼ÒºÀ/.iotlink/sdk/IoT_LINK/iot_link/os/liteos/include\los_list.h ****  *<li>This API is used to point to the next node pointed to by the current node.</li>
  93:C:/Users/²Ü¼ÒºÀ/.iotlink/sdk/IoT_LINK/iot_link/os/liteos/include\los_list.h ****  *</ul>
  94:C:/Users/²Ü¼ÒºÀ/.iotlink/sdk/IoT_LINK/iot_link/os/liteos/include\los_list.h ****  *@attention
  95:C:/Users/²Ü¼ÒºÀ/.iotlink/sdk/IoT_LINK/iot_link/os/liteos/include\los_list.h ****  *<ul>
  96:C:/Users/²Ü¼ÒºÀ/.iotlink/sdk/IoT_LINK/iot_link/os/liteos/include\los_list.h ****  *<li>None.</li>
  97:C:/Users/²Ü¼ÒºÀ/.iotlink/sdk/IoT_LINK/iot_link/os/liteos/include\los_list.h ****  *</ul>
  98:C:/Users/²Ü¼ÒºÀ/.iotlink/sdk/IoT_LINK/iot_link/os/liteos/include\los_list.h ****  *
  99:C:/Users/²Ü¼ÒºÀ/.iotlink/sdk/IoT_LINK/iot_link/os/liteos/include\los_list.h ****  *@param pstObject  [IN] Node in the doubly linked list.
 100:C:/Users/²Ü¼ÒºÀ/.iotlink/sdk/IoT_LINK/iot_link/os/liteos/include\los_list.h ****  *
 101:C:/Users/²Ü¼ÒºÀ/.iotlink/sdk/IoT_LINK/iot_link/os/liteos/include\los_list.h ****  *@retval None.
 102:C:/Users/²Ü¼ÒºÀ/.iotlink/sdk/IoT_LINK/iot_link/os/liteos/include\los_list.h ****  *@par Dependency:
 103:C:/Users/²Ü¼ÒºÀ/.iotlink/sdk/IoT_LINK/iot_link/os/liteos/include\los_list.h ****  *<ul><li>los_list.h: the header file that contains the API declaration.</li></ul>
 104:C:/Users/²Ü¼ÒºÀ/.iotlink/sdk/IoT_LINK/iot_link/os/liteos/include\los_list.h ****  *@see
 105:C:/Users/²Ü¼ÒºÀ/.iotlink/sdk/IoT_LINK/iot_link/os/liteos/include\los_list.h ****  *@since Huawei LiteOS V100R001C00
 106:C:/Users/²Ü¼ÒºÀ/.iotlink/sdk/IoT_LINK/iot_link/os/liteos/include\los_list.h ****  */
 107:C:/Users/²Ü¼ÒºÀ/.iotlink/sdk/IoT_LINK/iot_link/os/liteos/include\los_list.h **** #define LOS_DL_LIST_FIRST(pstObject) ((pstObject)->pstNext)
 108:C:/Users/²Ü¼ÒºÀ/.iotlink/sdk/IoT_LINK/iot_link/os/liteos/include\los_list.h **** 
 109:C:/Users/²Ü¼ÒºÀ/.iotlink/sdk/IoT_LINK/iot_link/os/liteos/include\los_list.h **** /**
 110:C:/Users/²Ü¼ÒºÀ/.iotlink/sdk/IoT_LINK/iot_link/os/liteos/include\los_list.h ****  *@ingroup los_list
 111:C:/Users/²Ü¼ÒºÀ/.iotlink/sdk/IoT_LINK/iot_link/os/liteos/include\los_list.h ****  *@brief Insert a new node to a doubly linked list.
 112:C:/Users/²Ü¼ÒºÀ/.iotlink/sdk/IoT_LINK/iot_link/os/liteos/include\los_list.h ****  *
 113:C:/Users/²Ü¼ÒºÀ/.iotlink/sdk/IoT_LINK/iot_link/os/liteos/include\los_list.h ****  *@par Description:
 114:C:/Users/²Ü¼ÒºÀ/.iotlink/sdk/IoT_LINK/iot_link/os/liteos/include\los_list.h ****  *This API is used to insert a new node to a doubly linked list.
 115:C:/Users/²Ü¼ÒºÀ/.iotlink/sdk/IoT_LINK/iot_link/os/liteos/include\los_list.h ****  *@attention
 116:C:/Users/²Ü¼ÒºÀ/.iotlink/sdk/IoT_LINK/iot_link/os/liteos/include\los_list.h ****  *<ul>
 117:C:/Users/²Ü¼ÒºÀ/.iotlink/sdk/IoT_LINK/iot_link/os/liteos/include\los_list.h ****  *<li>The parameters passed in should be ensured to be legal pointers.</li>
 118:C:/Users/²Ü¼ÒºÀ/.iotlink/sdk/IoT_LINK/iot_link/os/liteos/include\los_list.h ****  *</ul>
 119:C:/Users/²Ü¼ÒºÀ/.iotlink/sdk/IoT_LINK/iot_link/os/liteos/include\los_list.h ****  *
 120:C:/Users/²Ü¼ÒºÀ/.iotlink/sdk/IoT_LINK/iot_link/os/liteos/include\los_list.h ****  *@param pstList    [IN]   Doubly linked list where the new node is inserted.
 121:C:/Users/²Ü¼ÒºÀ/.iotlink/sdk/IoT_LINK/iot_link/os/liteos/include\los_list.h ****  *@param pstNode    [IN]   New node to be inserted.
 122:C:/Users/²Ü¼ÒºÀ/.iotlink/sdk/IoT_LINK/iot_link/os/liteos/include\los_list.h ****  *
 123:C:/Users/²Ü¼ÒºÀ/.iotlink/sdk/IoT_LINK/iot_link/os/liteos/include\los_list.h ****  *@retval None
 124:C:/Users/²Ü¼ÒºÀ/.iotlink/sdk/IoT_LINK/iot_link/os/liteos/include\los_list.h ****  *@par Dependency:
 125:C:/Users/²Ü¼ÒºÀ/.iotlink/sdk/IoT_LINK/iot_link/os/liteos/include\los_list.h ****  *<ul><li>los_list.h: the header file that contains the API declaration.</li></ul>
 126:C:/Users/²Ü¼ÒºÀ/.iotlink/sdk/IoT_LINK/iot_link/os/liteos/include\los_list.h ****  *@see LOS_ListDelete
 127:C:/Users/²Ü¼ÒºÀ/.iotlink/sdk/IoT_LINK/iot_link/os/liteos/include\los_list.h ****  *@since Huawei LiteOS V100R001C00
 128:C:/Users/²Ü¼ÒºÀ/.iotlink/sdk/IoT_LINK/iot_link/os/liteos/include\los_list.h ****  */
 129:C:/Users/²Ü¼ÒºÀ/.iotlink/sdk/IoT_LINK/iot_link/os/liteos/include\los_list.h **** LITE_OS_SEC_ALW_INLINE STATIC_INLINE VOID LOS_ListAdd(LOS_DL_LIST *pstList, LOS_DL_LIST *pstNode)
 130:C:/Users/²Ü¼ÒºÀ/.iotlink/sdk/IoT_LINK/iot_link/os/liteos/include\los_list.h **** {
 131:C:/Users/²Ü¼ÒºÀ/.iotlink/sdk/IoT_LINK/iot_link/os/liteos/include\los_list.h ****     pstNode->pstNext = pstList->pstNext;
 132:C:/Users/²Ü¼ÒºÀ/.iotlink/sdk/IoT_LINK/iot_link/os/liteos/include\los_list.h ****     pstNode->pstPrev = pstList;
 133:C:/Users/²Ü¼ÒºÀ/.iotlink/sdk/IoT_LINK/iot_link/os/liteos/include\los_list.h ****     pstList->pstNext->pstPrev = pstNode;
 134:C:/Users/²Ü¼ÒºÀ/.iotlink/sdk/IoT_LINK/iot_link/os/liteos/include\los_list.h ****     pstList->pstNext = pstNode;
 135:C:/Users/²Ü¼ÒºÀ/.iotlink/sdk/IoT_LINK/iot_link/os/liteos/include\los_list.h **** }
 136:C:/Users/²Ü¼ÒºÀ/.iotlink/sdk/IoT_LINK/iot_link/os/liteos/include\los_list.h **** 
 137:C:/Users/²Ü¼ÒºÀ/.iotlink/sdk/IoT_LINK/iot_link/os/liteos/include\los_list.h **** /**
 138:C:/Users/²Ü¼ÒºÀ/.iotlink/sdk/IoT_LINK/iot_link/os/liteos/include\los_list.h ****  *@ingroup los_list
 139:C:/Users/²Ü¼ÒºÀ/.iotlink/sdk/IoT_LINK/iot_link/os/liteos/include\los_list.h ****  *@brief Insert a node to the tail of a doubly linked list.
 140:C:/Users/²Ü¼ÒºÀ/.iotlink/sdk/IoT_LINK/iot_link/os/liteos/include\los_list.h ****  *
 141:C:/Users/²Ü¼ÒºÀ/.iotlink/sdk/IoT_LINK/iot_link/os/liteos/include\los_list.h ****  *@par Description:
 142:C:/Users/²Ü¼ÒºÀ/.iotlink/sdk/IoT_LINK/iot_link/os/liteos/include\los_list.h ****  *This API is used to insert a new node to the tail of a doubly linked list.
 143:C:/Users/²Ü¼ÒºÀ/.iotlink/sdk/IoT_LINK/iot_link/os/liteos/include\los_list.h ****  *@attention
 144:C:/Users/²Ü¼ÒºÀ/.iotlink/sdk/IoT_LINK/iot_link/os/liteos/include\los_list.h ****  *<ul>
ARM GAS  C:\Users\²Ü¼ÒºÀ\AppData\Local\Temp\ccOngKk7.s 			page 4


 145:C:/Users/²Ü¼ÒºÀ/.iotlink/sdk/IoT_LINK/iot_link/os/liteos/include\los_list.h ****  *<li>The parameters passed in should be ensured to be legal pointers.</li>
 146:C:/Users/²Ü¼ÒºÀ/.iotlink/sdk/IoT_LINK/iot_link/os/liteos/include\los_list.h ****  *</ul>
 147:C:/Users/²Ü¼ÒºÀ/.iotlink/sdk/IoT_LINK/iot_link/os/liteos/include\los_list.h ****  *
 148:C:/Users/²Ü¼ÒºÀ/.iotlink/sdk/IoT_LINK/iot_link/os/liteos/include\los_list.h ****  *@param pstList     [IN] Doubly linked list where the new node is inserted.
 149:C:/Users/²Ü¼ÒºÀ/.iotlink/sdk/IoT_LINK/iot_link/os/liteos/include\los_list.h ****  *@param pstNode     [IN] New node to be inserted.
 150:C:/Users/²Ü¼ÒºÀ/.iotlink/sdk/IoT_LINK/iot_link/os/liteos/include\los_list.h ****  *
 151:C:/Users/²Ü¼ÒºÀ/.iotlink/sdk/IoT_LINK/iot_link/os/liteos/include\los_list.h ****  *@retval None.
 152:C:/Users/²Ü¼ÒºÀ/.iotlink/sdk/IoT_LINK/iot_link/os/liteos/include\los_list.h ****  *@par Dependency:
 153:C:/Users/²Ü¼ÒºÀ/.iotlink/sdk/IoT_LINK/iot_link/os/liteos/include\los_list.h ****  *<ul><li>los_list.h: the header file that contains the API declaration.</li></ul>
 154:C:/Users/²Ü¼ÒºÀ/.iotlink/sdk/IoT_LINK/iot_link/os/liteos/include\los_list.h ****  *@see LOS_ListAdd | LOS_ListHeadInsert
 155:C:/Users/²Ü¼ÒºÀ/.iotlink/sdk/IoT_LINK/iot_link/os/liteos/include\los_list.h ****  *@since Huawei LiteOS V100R001C00
 156:C:/Users/²Ü¼ÒºÀ/.iotlink/sdk/IoT_LINK/iot_link/os/liteos/include\los_list.h ****  */
 157:C:/Users/²Ü¼ÒºÀ/.iotlink/sdk/IoT_LINK/iot_link/os/liteos/include\los_list.h **** LITE_OS_SEC_ALW_INLINE STATIC_INLINE VOID LOS_ListTailInsert(LOS_DL_LIST *pstList, LOS_DL_LIST *pst
 158:C:/Users/²Ü¼ÒºÀ/.iotlink/sdk/IoT_LINK/iot_link/os/liteos/include\los_list.h **** {
 159:C:/Users/²Ü¼ÒºÀ/.iotlink/sdk/IoT_LINK/iot_link/os/liteos/include\los_list.h ****     LOS_ListAdd(pstList->pstPrev, pstNode);
 160:C:/Users/²Ü¼ÒºÀ/.iotlink/sdk/IoT_LINK/iot_link/os/liteos/include\los_list.h **** }
 161:C:/Users/²Ü¼ÒºÀ/.iotlink/sdk/IoT_LINK/iot_link/os/liteos/include\los_list.h **** 
 162:C:/Users/²Ü¼ÒºÀ/.iotlink/sdk/IoT_LINK/iot_link/os/liteos/include\los_list.h **** /**
 163:C:/Users/²Ü¼ÒºÀ/.iotlink/sdk/IoT_LINK/iot_link/os/liteos/include\los_list.h ****  *@ingroup los_list
 164:C:/Users/²Ü¼ÒºÀ/.iotlink/sdk/IoT_LINK/iot_link/os/liteos/include\los_list.h ****  *@brief Delete a specified node from a doubly linked list.
 165:C:/Users/²Ü¼ÒºÀ/.iotlink/sdk/IoT_LINK/iot_link/os/liteos/include\los_list.h ****  *
 166:C:/Users/²Ü¼ÒºÀ/.iotlink/sdk/IoT_LINK/iot_link/os/liteos/include\los_list.h ****  *@par Description:
 167:C:/Users/²Ü¼ÒºÀ/.iotlink/sdk/IoT_LINK/iot_link/os/liteos/include\los_list.h ****  *<ul>
 168:C:/Users/²Ü¼ÒºÀ/.iotlink/sdk/IoT_LINK/iot_link/os/liteos/include\los_list.h ****  *<li>This API is used to delete a specified node from a doubly linked list.</li>
 169:C:/Users/²Ü¼ÒºÀ/.iotlink/sdk/IoT_LINK/iot_link/os/liteos/include\los_list.h ****  *</ul>
 170:C:/Users/²Ü¼ÒºÀ/.iotlink/sdk/IoT_LINK/iot_link/os/liteos/include\los_list.h ****  *@attention
 171:C:/Users/²Ü¼ÒºÀ/.iotlink/sdk/IoT_LINK/iot_link/os/liteos/include\los_list.h ****  *<ul>
 172:C:/Users/²Ü¼ÒºÀ/.iotlink/sdk/IoT_LINK/iot_link/os/liteos/include\los_list.h ****  *<li>The parameter passed in should be ensured to be a legal pointer.</li>
 173:C:/Users/²Ü¼ÒºÀ/.iotlink/sdk/IoT_LINK/iot_link/os/liteos/include\los_list.h ****  *</ul>
 174:C:/Users/²Ü¼ÒºÀ/.iotlink/sdk/IoT_LINK/iot_link/os/liteos/include\los_list.h ****  *
 175:C:/Users/²Ü¼ÒºÀ/.iotlink/sdk/IoT_LINK/iot_link/os/liteos/include\los_list.h ****  *@param pstNode    [IN] Node to be deleted.
 176:C:/Users/²Ü¼ÒºÀ/.iotlink/sdk/IoT_LINK/iot_link/os/liteos/include\los_list.h ****  *
 177:C:/Users/²Ü¼ÒºÀ/.iotlink/sdk/IoT_LINK/iot_link/os/liteos/include\los_list.h ****  *@retval None.
 178:C:/Users/²Ü¼ÒºÀ/.iotlink/sdk/IoT_LINK/iot_link/os/liteos/include\los_list.h ****  *@par Dependency:
 179:C:/Users/²Ü¼ÒºÀ/.iotlink/sdk/IoT_LINK/iot_link/os/liteos/include\los_list.h ****  *<ul><li>los_list.h: the header file that contains the API declaration.</li></ul>
 180:C:/Users/²Ü¼ÒºÀ/.iotlink/sdk/IoT_LINK/iot_link/os/liteos/include\los_list.h ****  *@see LOS_ListAdd
 181:C:/Users/²Ü¼ÒºÀ/.iotlink/sdk/IoT_LINK/iot_link/os/liteos/include\los_list.h ****  *@since Huawei LiteOS V100R001C00
 182:C:/Users/²Ü¼ÒºÀ/.iotlink/sdk/IoT_LINK/iot_link/os/liteos/include\los_list.h ****  */
 183:C:/Users/²Ü¼ÒºÀ/.iotlink/sdk/IoT_LINK/iot_link/os/liteos/include\los_list.h **** LITE_OS_SEC_ALW_INLINE STATIC_INLINE VOID LOS_ListDelete(LOS_DL_LIST *pstNode)
 184:C:/Users/²Ü¼ÒºÀ/.iotlink/sdk/IoT_LINK/iot_link/os/liteos/include\los_list.h **** {
  29              		.loc 1 184 1 view -0
  30              		.cfi_startproc
  31              		@ args = 0, pretend = 0, frame = 0
  32              		@ frame_needed = 0, uses_anonymous_args = 0
  33              		@ link register save eliminated.
 185:C:/Users/²Ü¼ÒºÀ/.iotlink/sdk/IoT_LINK/iot_link/os/liteos/include\los_list.h ****     pstNode->pstNext->pstPrev = pstNode->pstPrev;
  34              		.loc 1 185 5 view .LVU1
  35              		.loc 1 185 40 is_stmt 0 view .LVU2
  36 0000 D0E90032 		ldrd	r3, r2, [r0]
  37              		.loc 1 185 31 view .LVU3
  38 0004 1360     		str	r3, [r2]
 186:C:/Users/²Ü¼ÒºÀ/.iotlink/sdk/IoT_LINK/iot_link/os/liteos/include\los_list.h ****     pstNode->pstPrev->pstNext = pstNode->pstNext;
  39              		.loc 1 186 5 is_stmt 1 view .LVU4
  40              		.loc 1 186 31 is_stmt 0 view .LVU5
  41 0006 5A60     		str	r2, [r3, #4]
 187:C:/Users/²Ü¼ÒºÀ/.iotlink/sdk/IoT_LINK/iot_link/os/liteos/include\los_list.h ****     pstNode->pstNext = (LOS_DL_LIST *)NULL;
  42              		.loc 1 187 5 is_stmt 1 view .LVU6
ARM GAS  C:\Users\²Ü¼ÒºÀ\AppData\Local\Temp\ccOngKk7.s 			page 5


  43              		.loc 1 187 22 is_stmt 0 view .LVU7
  44 0008 0023     		movs	r3, #0
 188:C:/Users/²Ü¼ÒºÀ/.iotlink/sdk/IoT_LINK/iot_link/os/liteos/include\los_list.h ****     pstNode->pstPrev = (LOS_DL_LIST *)NULL;
  45              		.loc 1 188 22 view .LVU8
  46 000a C0E90033 		strd	r3, r3, [r0]
 189:C:/Users/²Ü¼ÒºÀ/.iotlink/sdk/IoT_LINK/iot_link/os/liteos/include\los_list.h **** }
  47              		.loc 1 189 1 view .LVU9
  48 000e 7047     		bx	lr
  49              		.cfi_endproc
  50              	.LFE126:
  52              		.section	.text.osIdleTask,"ax",%progbits
  53              		.align	1
  54              		.weak	osIdleTask
  55              		.syntax unified
  56              		.thumb
  57              		.thumb_func
  58              		.fpu fpv4-sp-d16
  60              	osIdleTask:
  61              	.LFB287:
  62              		.file 2 "C:/Users/\262\334\274\322\272\300/.iotlink/sdk/IoT_LINK/iot_link/os/liteos/base/core/los_
   1:C:/Users/²Ü¼ÒºÀ/.iotlink/sdk/IoT_LINK/iot_link/os/liteos/base/core\los_task.c **** /*----------------------------------------------------------------------------
   2:C:/Users/²Ü¼ÒºÀ/.iotlink/sdk/IoT_LINK/iot_link/os/liteos/base/core\los_task.c ****  * Copyright (c) <2013-2015>, <Huawei Technologies Co., Ltd>
   3:C:/Users/²Ü¼ÒºÀ/.iotlink/sdk/IoT_LINK/iot_link/os/liteos/base/core\los_task.c ****  * All rights reserved.
   4:C:/Users/²Ü¼ÒºÀ/.iotlink/sdk/IoT_LINK/iot_link/os/liteos/base/core\los_task.c ****  * Redistribution and use in source and binary forms, with or without modification,
   5:C:/Users/²Ü¼ÒºÀ/.iotlink/sdk/IoT_LINK/iot_link/os/liteos/base/core\los_task.c ****  * are permitted provided that the following conditions are met:
   6:C:/Users/²Ü¼ÒºÀ/.iotlink/sdk/IoT_LINK/iot_link/os/liteos/base/core\los_task.c ****  * 1. Redistributions of source code must retain the above copyright notice, this list of
   7:C:/Users/²Ü¼ÒºÀ/.iotlink/sdk/IoT_LINK/iot_link/os/liteos/base/core\los_task.c ****  * conditions and the following disclaimer.
   8:C:/Users/²Ü¼ÒºÀ/.iotlink/sdk/IoT_LINK/iot_link/os/liteos/base/core\los_task.c ****  * 2. Redistributions in binary form must reproduce the above copyright notice, this list
   9:C:/Users/²Ü¼ÒºÀ/.iotlink/sdk/IoT_LINK/iot_link/os/liteos/base/core\los_task.c ****  * of conditions and the following disclaimer in the documentation and/or other materials
  10:C:/Users/²Ü¼ÒºÀ/.iotlink/sdk/IoT_LINK/iot_link/os/liteos/base/core\los_task.c ****  * provided with the distribution.
  11:C:/Users/²Ü¼ÒºÀ/.iotlink/sdk/IoT_LINK/iot_link/os/liteos/base/core\los_task.c ****  * 3. Neither the name of the copyright holder nor the names of its contributors may be used
  12:C:/Users/²Ü¼ÒºÀ/.iotlink/sdk/IoT_LINK/iot_link/os/liteos/base/core\los_task.c ****  * to endorse or promote products derived from this software without specific prior written
  13:C:/Users/²Ü¼ÒºÀ/.iotlink/sdk/IoT_LINK/iot_link/os/liteos/base/core\los_task.c ****  * permission.
  14:C:/Users/²Ü¼ÒºÀ/.iotlink/sdk/IoT_LINK/iot_link/os/liteos/base/core\los_task.c ****  * THIS SOFTWARE IS PROVIDED BY THE COPYRIGHT HOLDERS AND CONTRIBUTORS
  15:C:/Users/²Ü¼ÒºÀ/.iotlink/sdk/IoT_LINK/iot_link/os/liteos/base/core\los_task.c ****  * "AS IS" AND ANY EXPRESS OR IMPLIED WARRANTIES, INCLUDING, BUT NOT LIMITED TO,
  16:C:/Users/²Ü¼ÒºÀ/.iotlink/sdk/IoT_LINK/iot_link/os/liteos/base/core\los_task.c ****  * THE IMPLIED WARRANTIES OF MERCHANTABILITY AND FITNESS FOR A PARTICULAR
  17:C:/Users/²Ü¼ÒºÀ/.iotlink/sdk/IoT_LINK/iot_link/os/liteos/base/core\los_task.c ****  * PURPOSE ARE DISCLAIMED. IN NO EVENT SHALL THE COPYRIGHT HOLDER OR
  18:C:/Users/²Ü¼ÒºÀ/.iotlink/sdk/IoT_LINK/iot_link/os/liteos/base/core\los_task.c ****  * CONTRIBUTORS BE LIABLE FOR ANY DIRECT, INDIRECT, INCIDENTAL, SPECIAL,
  19:C:/Users/²Ü¼ÒºÀ/.iotlink/sdk/IoT_LINK/iot_link/os/liteos/base/core\los_task.c ****  * EXEMPLARY, OR CONSEQUENTIAL DAMAGES (INCLUDING, BUT NOT LIMITED TO,
  20:C:/Users/²Ü¼ÒºÀ/.iotlink/sdk/IoT_LINK/iot_link/os/liteos/base/core\los_task.c ****  * PROCUREMENT OF SUBSTITUTE GOODS OR SERVICES; LOSS OF USE, DATA, OR PROFITS;
  21:C:/Users/²Ü¼ÒºÀ/.iotlink/sdk/IoT_LINK/iot_link/os/liteos/base/core\los_task.c ****  * OR BUSINESS INTERRUPTION) HOWEVER CAUSED AND ON ANY THEORY OF LIABILITY,
  22:C:/Users/²Ü¼ÒºÀ/.iotlink/sdk/IoT_LINK/iot_link/os/liteos/base/core\los_task.c ****  * WHETHER IN CONTRACT, STRICT LIABILITY, OR TORT (INCLUDING NEGLIGENCE OR
  23:C:/Users/²Ü¼ÒºÀ/.iotlink/sdk/IoT_LINK/iot_link/os/liteos/base/core\los_task.c ****  * OTHERWISE) ARISING IN ANY WAY OUT OF THE USE OF THIS SOFTWARE, EVEN IF
  24:C:/Users/²Ü¼ÒºÀ/.iotlink/sdk/IoT_LINK/iot_link/os/liteos/base/core\los_task.c ****  * ADVISED OF THE POSSIBILITY OF SUCH DAMAGE.
  25:C:/Users/²Ü¼ÒºÀ/.iotlink/sdk/IoT_LINK/iot_link/os/liteos/base/core\los_task.c ****  *---------------------------------------------------------------------------*/
  26:C:/Users/²Ü¼ÒºÀ/.iotlink/sdk/IoT_LINK/iot_link/os/liteos/base/core\los_task.c **** /*----------------------------------------------------------------------------
  27:C:/Users/²Ü¼ÒºÀ/.iotlink/sdk/IoT_LINK/iot_link/os/liteos/base/core\los_task.c ****  * Notice of Export Control Law
  28:C:/Users/²Ü¼ÒºÀ/.iotlink/sdk/IoT_LINK/iot_link/os/liteos/base/core\los_task.c ****  * ===============================================
  29:C:/Users/²Ü¼ÒºÀ/.iotlink/sdk/IoT_LINK/iot_link/os/liteos/base/core\los_task.c ****  * Huawei LiteOS may be subject to applicable export control laws and regulations, which might
  30:C:/Users/²Ü¼ÒºÀ/.iotlink/sdk/IoT_LINK/iot_link/os/liteos/base/core\los_task.c ****  * include those applicable to Huawei LiteOS of U.S. and the country in which you are located.
  31:C:/Users/²Ü¼ÒºÀ/.iotlink/sdk/IoT_LINK/iot_link/os/liteos/base/core\los_task.c ****  * Import, export and usage of Huawei LiteOS in any manner by you shall be in compliance with such
  32:C:/Users/²Ü¼ÒºÀ/.iotlink/sdk/IoT_LINK/iot_link/os/liteos/base/core\los_task.c ****  * applicable export control laws and regulations.
  33:C:/Users/²Ü¼ÒºÀ/.iotlink/sdk/IoT_LINK/iot_link/os/liteos/base/core\los_task.c ****  *---------------------------------------------------------------------------*/
  34:C:/Users/²Ü¼ÒºÀ/.iotlink/sdk/IoT_LINK/iot_link/os/liteos/base/core\los_task.c **** #include "string.h"
  35:C:/Users/²Ü¼ÒºÀ/.iotlink/sdk/IoT_LINK/iot_link/os/liteos/base/core\los_task.c **** #include "los_task.inc"
  36:C:/Users/²Ü¼ÒºÀ/.iotlink/sdk/IoT_LINK/iot_link/os/liteos/base/core\los_task.c **** #include "los_base.ph"
  37:C:/Users/²Ü¼ÒºÀ/.iotlink/sdk/IoT_LINK/iot_link/os/liteos/base/core\los_task.c **** #include "los_memory.ph"
ARM GAS  C:\Users\²Ü¼ÒºÀ\AppData\Local\Temp\ccOngKk7.s 			page 6


  38:C:/Users/²Ü¼ÒºÀ/.iotlink/sdk/IoT_LINK/iot_link/os/liteos/base/core\los_task.c **** #include "los_memstat.ph"
  39:C:/Users/²Ü¼ÒºÀ/.iotlink/sdk/IoT_LINK/iot_link/os/liteos/base/core\los_task.c **** #include "los_priqueue.ph"
  40:C:/Users/²Ü¼ÒºÀ/.iotlink/sdk/IoT_LINK/iot_link/os/liteos/base/core\los_task.c **** #include "los_sem.ph"
  41:C:/Users/²Ü¼ÒºÀ/.iotlink/sdk/IoT_LINK/iot_link/os/liteos/base/core\los_task.c **** #include "los_mux.ph"
  42:C:/Users/²Ü¼ÒºÀ/.iotlink/sdk/IoT_LINK/iot_link/os/liteos/base/core\los_task.c **** #if (LOSCFG_PLATFORM_EXC == YES)
  43:C:/Users/²Ü¼ÒºÀ/.iotlink/sdk/IoT_LINK/iot_link/os/liteos/base/core\los_task.c **** #include "los_exc.ph"
  44:C:/Users/²Ü¼ÒºÀ/.iotlink/sdk/IoT_LINK/iot_link/os/liteos/base/core\los_task.c **** #endif
  45:C:/Users/²Ü¼ÒºÀ/.iotlink/sdk/IoT_LINK/iot_link/os/liteos/base/core\los_task.c **** #if (LOSCFG_KERNEL_TICKLESS == YES)
  46:C:/Users/²Ü¼ÒºÀ/.iotlink/sdk/IoT_LINK/iot_link/os/liteos/base/core\los_task.c **** #include "los_tickless.ph"
  47:C:/Users/²Ü¼ÒºÀ/.iotlink/sdk/IoT_LINK/iot_link/os/liteos/base/core\los_task.c **** #endif
  48:C:/Users/²Ü¼ÒºÀ/.iotlink/sdk/IoT_LINK/iot_link/os/liteos/base/core\los_task.c **** #if (LOSCFG_BASE_CORE_CPUP == YES)
  49:C:/Users/²Ü¼ÒºÀ/.iotlink/sdk/IoT_LINK/iot_link/os/liteos/base/core\los_task.c **** #include "los_cpup.ph"
  50:C:/Users/²Ü¼ÒºÀ/.iotlink/sdk/IoT_LINK/iot_link/os/liteos/base/core\los_task.c **** #endif
  51:C:/Users/²Ü¼ÒºÀ/.iotlink/sdk/IoT_LINK/iot_link/os/liteos/base/core\los_task.c **** #include "los_hw.h"
  52:C:/Users/²Ü¼ÒºÀ/.iotlink/sdk/IoT_LINK/iot_link/os/liteos/base/core\los_task.c **** #if (LOSCFG_ENABLE_MPU == YES)
  53:C:/Users/²Ü¼ÒºÀ/.iotlink/sdk/IoT_LINK/iot_link/os/liteos/base/core\los_task.c **** #include "los_mpu.h"
  54:C:/Users/²Ü¼ÒºÀ/.iotlink/sdk/IoT_LINK/iot_link/os/liteos/base/core\los_task.c **** #endif
  55:C:/Users/²Ü¼ÒºÀ/.iotlink/sdk/IoT_LINK/iot_link/os/liteos/base/core\los_task.c **** 
  56:C:/Users/²Ü¼ÒºÀ/.iotlink/sdk/IoT_LINK/iot_link/os/liteos/base/core\los_task.c **** #ifdef __cplusplus
  57:C:/Users/²Ü¼ÒºÀ/.iotlink/sdk/IoT_LINK/iot_link/os/liteos/base/core\los_task.c **** #if __cplusplus
  58:C:/Users/²Ü¼ÒºÀ/.iotlink/sdk/IoT_LINK/iot_link/os/liteos/base/core\los_task.c **** extern "C" {
  59:C:/Users/²Ü¼ÒºÀ/.iotlink/sdk/IoT_LINK/iot_link/os/liteos/base/core\los_task.c **** #endif /* __cplusplus */
  60:C:/Users/²Ü¼ÒºÀ/.iotlink/sdk/IoT_LINK/iot_link/os/liteos/base/core\los_task.c **** #endif /* __cplusplus */
  61:C:/Users/²Ü¼ÒºÀ/.iotlink/sdk/IoT_LINK/iot_link/os/liteos/base/core\los_task.c **** 
  62:C:/Users/²Ü¼ÒºÀ/.iotlink/sdk/IoT_LINK/iot_link/os/liteos/base/core\los_task.c **** 
  63:C:/Users/²Ü¼ÒºÀ/.iotlink/sdk/IoT_LINK/iot_link/os/liteos/base/core\los_task.c **** #if (LOSCFG_STATIC_TASK == YES)
  64:C:/Users/²Ü¼ÒºÀ/.iotlink/sdk/IoT_LINK/iot_link/os/liteos/base/core\los_task.c **** LITE_OS_SEC_BSS LOS_TASK_CB                          *g_apstTaskCBArray[LOSCFG_BASE_CORE_TSK_LIMIT 
  65:C:/Users/²Ü¼ÒºÀ/.iotlink/sdk/IoT_LINK/iot_link/os/liteos/base/core\los_task.c **** #else
  66:C:/Users/²Ü¼ÒºÀ/.iotlink/sdk/IoT_LINK/iot_link/os/liteos/base/core\los_task.c **** LITE_OS_SEC_BSS  LOS_TASK_CB                         *g_pstTaskCBArray;
  67:C:/Users/²Ü¼ÒºÀ/.iotlink/sdk/IoT_LINK/iot_link/os/liteos/base/core\los_task.c **** LITE_OS_SEC_BSS  LOS_DL_LIST                         g_stLosFreeTask;
  68:C:/Users/²Ü¼ÒºÀ/.iotlink/sdk/IoT_LINK/iot_link/os/liteos/base/core\los_task.c **** LITE_OS_SEC_BSS  LOS_DL_LIST                         g_stTskRecyleList;
  69:C:/Users/²Ü¼ÒºÀ/.iotlink/sdk/IoT_LINK/iot_link/os/liteos/base/core\los_task.c **** 
  70:C:/Users/²Ü¼ÒºÀ/.iotlink/sdk/IoT_LINK/iot_link/os/liteos/base/core\los_task.c **** #endif
  71:C:/Users/²Ü¼ÒºÀ/.iotlink/sdk/IoT_LINK/iot_link/os/liteos/base/core\los_task.c **** 
  72:C:/Users/²Ü¼ÒºÀ/.iotlink/sdk/IoT_LINK/iot_link/os/liteos/base/core\los_task.c **** 
  73:C:/Users/²Ü¼ÒºÀ/.iotlink/sdk/IoT_LINK/iot_link/os/liteos/base/core\los_task.c **** LITE_OS_SEC_BSS  ST_LOS_TASK                         g_stLosTask;
  74:C:/Users/²Ü¼ÒºÀ/.iotlink/sdk/IoT_LINK/iot_link/os/liteos/base/core\los_task.c **** LITE_OS_SEC_BSS  UINT16                              g_usLosTaskLock;
  75:C:/Users/²Ü¼ÒºÀ/.iotlink/sdk/IoT_LINK/iot_link/os/liteos/base/core\los_task.c **** 
  76:C:/Users/²Ü¼ÒºÀ/.iotlink/sdk/IoT_LINK/iot_link/os/liteos/base/core\los_task.c **** 
  77:C:/Users/²Ü¼ÒºÀ/.iotlink/sdk/IoT_LINK/iot_link/os/liteos/base/core\los_task.c **** LITE_OS_SEC_BSS  UINT32                              g_uwTskMaxNum;
  78:C:/Users/²Ü¼ÒºÀ/.iotlink/sdk/IoT_LINK/iot_link/os/liteos/base/core\los_task.c **** LITE_OS_SEC_BSS  UINT32                              g_uwIdleTaskID;
  79:C:/Users/²Ü¼ÒºÀ/.iotlink/sdk/IoT_LINK/iot_link/os/liteos/base/core\los_task.c **** LITE_OS_SEC_BSS  UINT32                              g_uwSwtmrTaskID;
  80:C:/Users/²Ü¼ÒºÀ/.iotlink/sdk/IoT_LINK/iot_link/os/liteos/base/core\los_task.c **** LITE_OS_SEC_BSS  LOS_DL_LIST                         g_stTaskTimerList;
  81:C:/Users/²Ü¼ÒºÀ/.iotlink/sdk/IoT_LINK/iot_link/os/liteos/base/core\los_task.c **** LITE_OS_SEC_BSS  TSK_SORTLINK_ATTRIBUTE_S            g_stTskSortLink;
  82:C:/Users/²Ü¼ÒºÀ/.iotlink/sdk/IoT_LINK/iot_link/os/liteos/base/core\los_task.c **** LITE_OS_SEC_BSS  BOOL                                g_bTaskScheduled;
  83:C:/Users/²Ü¼ÒºÀ/.iotlink/sdk/IoT_LINK/iot_link/os/liteos/base/core\los_task.c **** 
  84:C:/Users/²Ü¼ÒºÀ/.iotlink/sdk/IoT_LINK/iot_link/os/liteos/base/core\los_task.c **** LITE_OS_SEC_DATA_INIT TSKSWITCHHOOK g_pfnTskSwitchHook = (TSKSWITCHHOOK)NULL; /*lint !e611*/
  85:C:/Users/²Ü¼ÒºÀ/.iotlink/sdk/IoT_LINK/iot_link/os/liteos/base/core\los_task.c **** #if (LOSCFG_LIB_LIBC_NEWLIB_REENT == YES)
  86:C:/Users/²Ü¼ÒºÀ/.iotlink/sdk/IoT_LINK/iot_link/os/liteos/base/core\los_task.c **** LITE_OS_SEC_DATA_INIT TSKSWITCHHOOK g_pfnTskSwitchImpurePtrHook = (TSKSWITCHHOOK)NULL; /*lint !e611
  87:C:/Users/²Ü¼ÒºÀ/.iotlink/sdk/IoT_LINK/iot_link/os/liteos/base/core\los_task.c **** #endif
  88:C:/Users/²Ü¼ÒºÀ/.iotlink/sdk/IoT_LINK/iot_link/os/liteos/base/core\los_task.c **** #if (LOSCFG_BASE_CORE_TSK_MONITOR == YES)
  89:C:/Users/²Ü¼ÒºÀ/.iotlink/sdk/IoT_LINK/iot_link/os/liteos/base/core\los_task.c **** LITE_OS_SEC_DATA_INIT TSKSWITCHHOOK g_pfnUsrTskSwitchHook = (TSKSWITCHHOOK)NULL; /*lint !e611*/
  90:C:/Users/²Ü¼ÒºÀ/.iotlink/sdk/IoT_LINK/iot_link/os/liteos/base/core\los_task.c **** #endif /* LOSCFG_BASE_CORE_TSK_MONITOR == YES */
  91:C:/Users/²Ü¼ÒºÀ/.iotlink/sdk/IoT_LINK/iot_link/os/liteos/base/core\los_task.c **** 
  92:C:/Users/²Ü¼ÒºÀ/.iotlink/sdk/IoT_LINK/iot_link/os/liteos/base/core\los_task.c **** #if (LOSCFG_BASE_CORE_EXC_TSK_SWITCH == YES)
  93:C:/Users/²Ü¼ÒºÀ/.iotlink/sdk/IoT_LINK/iot_link/os/liteos/base/core\los_task.c **** LITE_OS_SEC_BSS OS_TASK_SWITCH_INFO g_astTskSwitchInfo;
  94:C:/Users/²Ü¼ÒºÀ/.iotlink/sdk/IoT_LINK/iot_link/os/liteos/base/core\los_task.c **** #endif
ARM GAS  C:\Users\²Ü¼ÒºÀ\AppData\Local\Temp\ccOngKk7.s 			page 7


  95:C:/Users/²Ü¼ÒºÀ/.iotlink/sdk/IoT_LINK/iot_link/os/liteos/base/core\los_task.c **** 
  96:C:/Users/²Ü¼ÒºÀ/.iotlink/sdk/IoT_LINK/iot_link/os/liteos/base/core\los_task.c **** #define CHECK_TASKID(uwTaskID)\
  97:C:/Users/²Ü¼ÒºÀ/.iotlink/sdk/IoT_LINK/iot_link/os/liteos/base/core\los_task.c **** {\
  98:C:/Users/²Ü¼ÒºÀ/.iotlink/sdk/IoT_LINK/iot_link/os/liteos/base/core\los_task.c ****    if (uwTaskID == g_uwIdleTaskID)\
  99:C:/Users/²Ü¼ÒºÀ/.iotlink/sdk/IoT_LINK/iot_link/os/liteos/base/core\los_task.c ****    {\
 100:C:/Users/²Ü¼ÒºÀ/.iotlink/sdk/IoT_LINK/iot_link/os/liteos/base/core\los_task.c ****        return LOS_ERRNO_TSK_OPERATE_IDLE;\
 101:C:/Users/²Ü¼ÒºÀ/.iotlink/sdk/IoT_LINK/iot_link/os/liteos/base/core\los_task.c ****    }\
 102:C:/Users/²Ü¼ÒºÀ/.iotlink/sdk/IoT_LINK/iot_link/os/liteos/base/core\los_task.c ****    else if (uwTaskID == g_uwSwtmrTaskID)\
 103:C:/Users/²Ü¼ÒºÀ/.iotlink/sdk/IoT_LINK/iot_link/os/liteos/base/core\los_task.c ****    {\
 104:C:/Users/²Ü¼ÒºÀ/.iotlink/sdk/IoT_LINK/iot_link/os/liteos/base/core\los_task.c ****        return LOS_ERRNO_TSK_SUSPEND_SWTMR_NOT_ALLOWED;\
 105:C:/Users/²Ü¼ÒºÀ/.iotlink/sdk/IoT_LINK/iot_link/os/liteos/base/core\los_task.c ****    }\
 106:C:/Users/²Ü¼ÒºÀ/.iotlink/sdk/IoT_LINK/iot_link/os/liteos/base/core\los_task.c ****    else if (OS_TSK_GET_INDEX(uwTaskID) >= g_uwTskMaxNum)\
 107:C:/Users/²Ü¼ÒºÀ/.iotlink/sdk/IoT_LINK/iot_link/os/liteos/base/core\los_task.c ****    {\
 108:C:/Users/²Ü¼ÒºÀ/.iotlink/sdk/IoT_LINK/iot_link/os/liteos/base/core\los_task.c ****        return LOS_ERRNO_TSK_ID_INVALID;\
 109:C:/Users/²Ü¼ÒºÀ/.iotlink/sdk/IoT_LINK/iot_link/os/liteos/base/core\los_task.c ****    }\
 110:C:/Users/²Ü¼ÒºÀ/.iotlink/sdk/IoT_LINK/iot_link/os/liteos/base/core\los_task.c **** }
 111:C:/Users/²Ü¼ÒºÀ/.iotlink/sdk/IoT_LINK/iot_link/os/liteos/base/core\los_task.c **** 
 112:C:/Users/²Ü¼ÒºÀ/.iotlink/sdk/IoT_LINK/iot_link/os/liteos/base/core\los_task.c **** #if (LOSCFG_KERNEL_TICKLESS == YES)
 113:C:/Users/²Ü¼ÒºÀ/.iotlink/sdk/IoT_LINK/iot_link/os/liteos/base/core\los_task.c **** LITE_OS_SEC_TEXT_MINOR UINT32 osTaskNextSwitchTimeGet(VOID)
 114:C:/Users/²Ü¼ÒºÀ/.iotlink/sdk/IoT_LINK/iot_link/os/liteos/base/core\los_task.c **** {
 115:C:/Users/²Ü¼ÒºÀ/.iotlink/sdk/IoT_LINK/iot_link/os/liteos/base/core\los_task.c ****     LOS_TASK_CB *pstTaskCB;
 116:C:/Users/²Ü¼ÒºÀ/.iotlink/sdk/IoT_LINK/iot_link/os/liteos/base/core\los_task.c ****     UINT32 uwTaskSortLinkTick = 0;
 117:C:/Users/²Ü¼ÒºÀ/.iotlink/sdk/IoT_LINK/iot_link/os/liteos/base/core\los_task.c ****     LOS_DL_LIST *pstListObject;
 118:C:/Users/²Ü¼ÒºÀ/.iotlink/sdk/IoT_LINK/iot_link/os/liteos/base/core\los_task.c ****     UINT32 uwTempTicks = 0;
 119:C:/Users/²Ü¼ÒºÀ/.iotlink/sdk/IoT_LINK/iot_link/os/liteos/base/core\los_task.c ****     UINT32 uwIndex =0;
 120:C:/Users/²Ü¼ÒºÀ/.iotlink/sdk/IoT_LINK/iot_link/os/liteos/base/core\los_task.c **** 
 121:C:/Users/²Ü¼ÒºÀ/.iotlink/sdk/IoT_LINK/iot_link/os/liteos/base/core\los_task.c ****     for (uwIndex = 0; uwIndex < OS_TSK_SORTLINK_LEN; uwIndex++)
 122:C:/Users/²Ü¼ÒºÀ/.iotlink/sdk/IoT_LINK/iot_link/os/liteos/base/core\los_task.c ****     {
 123:C:/Users/²Ü¼ÒºÀ/.iotlink/sdk/IoT_LINK/iot_link/os/liteos/base/core\los_task.c ****         pstListObject = g_stTskSortLink.pstSortLink + (g_stTskSortLink.usCursor + uwIndex)%OS_TSK_S
 124:C:/Users/²Ü¼ÒºÀ/.iotlink/sdk/IoT_LINK/iot_link/os/liteos/base/core\los_task.c ****         if (pstListObject->pstNext != pstListObject)
 125:C:/Users/²Ü¼ÒºÀ/.iotlink/sdk/IoT_LINK/iot_link/os/liteos/base/core\los_task.c ****         {
 126:C:/Users/²Ü¼ÒºÀ/.iotlink/sdk/IoT_LINK/iot_link/os/liteos/base/core\los_task.c ****             pstTaskCB = LOS_DL_LIST_ENTRY((pstListObject)->pstNext, LOS_TASK_CB, stTimerList);
 127:C:/Users/²Ü¼ÒºÀ/.iotlink/sdk/IoT_LINK/iot_link/os/liteos/base/core\los_task.c ****             uwTempTicks = (uwIndex == 0) ? OS_TSK_SORTLINK_LEN : uwIndex;
 128:C:/Users/²Ü¼ÒºÀ/.iotlink/sdk/IoT_LINK/iot_link/os/liteos/base/core\los_task.c ****             uwTempTicks += (UINT32)(UWROLLNUM(pstTaskCB->uwIdxRollNum) * OS_TSK_SORTLINK_LEN);
 129:C:/Users/²Ü¼ÒºÀ/.iotlink/sdk/IoT_LINK/iot_link/os/liteos/base/core\los_task.c ****             if(uwTaskSortLinkTick == 0 || uwTaskSortLinkTick > uwTempTicks)
 130:C:/Users/²Ü¼ÒºÀ/.iotlink/sdk/IoT_LINK/iot_link/os/liteos/base/core\los_task.c ****             {
 131:C:/Users/²Ü¼ÒºÀ/.iotlink/sdk/IoT_LINK/iot_link/os/liteos/base/core\los_task.c ****                uwTaskSortLinkTick = uwTempTicks;
 132:C:/Users/²Ü¼ÒºÀ/.iotlink/sdk/IoT_LINK/iot_link/os/liteos/base/core\los_task.c ****             }
 133:C:/Users/²Ü¼ÒºÀ/.iotlink/sdk/IoT_LINK/iot_link/os/liteos/base/core\los_task.c ****         }
 134:C:/Users/²Ü¼ÒºÀ/.iotlink/sdk/IoT_LINK/iot_link/os/liteos/base/core\los_task.c ****     }
 135:C:/Users/²Ü¼ÒºÀ/.iotlink/sdk/IoT_LINK/iot_link/os/liteos/base/core\los_task.c **** 
 136:C:/Users/²Ü¼ÒºÀ/.iotlink/sdk/IoT_LINK/iot_link/os/liteos/base/core\los_task.c ****     return uwTaskSortLinkTick;
 137:C:/Users/²Ü¼ÒºÀ/.iotlink/sdk/IoT_LINK/iot_link/os/liteos/base/core\los_task.c **** }
 138:C:/Users/²Ü¼ÒºÀ/.iotlink/sdk/IoT_LINK/iot_link/os/liteos/base/core\los_task.c **** #endif
 139:C:/Users/²Ü¼ÒºÀ/.iotlink/sdk/IoT_LINK/iot_link/os/liteos/base/core\los_task.c **** 
 140:C:/Users/²Ü¼ÒºÀ/.iotlink/sdk/IoT_LINK/iot_link/os/liteos/base/core\los_task.c **** /*****************************************************************************
 141:C:/Users/²Ü¼ÒºÀ/.iotlink/sdk/IoT_LINK/iot_link/os/liteos/base/core\los_task.c ****  Function : osTskIdleBGD
 142:C:/Users/²Ü¼ÒºÀ/.iotlink/sdk/IoT_LINK/iot_link/os/liteos/base/core\los_task.c ****  Description : Idle background.
 143:C:/Users/²Ü¼ÒºÀ/.iotlink/sdk/IoT_LINK/iot_link/os/liteos/base/core\los_task.c ****  Input       : None
 144:C:/Users/²Ü¼ÒºÀ/.iotlink/sdk/IoT_LINK/iot_link/os/liteos/base/core\los_task.c ****  Output      : None
 145:C:/Users/²Ü¼ÒºÀ/.iotlink/sdk/IoT_LINK/iot_link/os/liteos/base/core\los_task.c ****  Return      : None
 146:C:/Users/²Ü¼ÒºÀ/.iotlink/sdk/IoT_LINK/iot_link/os/liteos/base/core\los_task.c ****  *****************************************************************************/
 147:C:/Users/²Ü¼ÒºÀ/.iotlink/sdk/IoT_LINK/iot_link/os/liteos/base/core\los_task.c **** LITE_OS_SEC_TEXT WEAK VOID osIdleTask(VOID)
 148:C:/Users/²Ü¼ÒºÀ/.iotlink/sdk/IoT_LINK/iot_link/os/liteos/base/core\los_task.c **** {
  63              		.loc 2 148 1 is_stmt 1 view -0
  64              		.cfi_startproc
  65              		@ args = 0, pretend = 0, frame = 0
ARM GAS  C:\Users\²Ü¼ÒºÀ\AppData\Local\Temp\ccOngKk7.s 			page 8


  66              		@ frame_needed = 0, uses_anonymous_args = 0
  67              		@ link register save eliminated.
  68              	.L3:
 149:C:/Users/²Ü¼ÒºÀ/.iotlink/sdk/IoT_LINK/iot_link/os/liteos/base/core\los_task.c ****     while (1)
  69              		.loc 2 149 5 discriminator 1 view .LVU11
 150:C:/Users/²Ü¼ÒºÀ/.iotlink/sdk/IoT_LINK/iot_link/os/liteos/base/core\los_task.c ****     {
 151:C:/Users/²Ü¼ÒºÀ/.iotlink/sdk/IoT_LINK/iot_link/os/liteos/base/core\los_task.c **** #if (LOSCFG_KERNEL_TICKLESS == YES)
 152:C:/Users/²Ü¼ÒºÀ/.iotlink/sdk/IoT_LINK/iot_link/os/liteos/base/core\los_task.c ****         osTicklessHandler();
 153:C:/Users/²Ü¼ÒºÀ/.iotlink/sdk/IoT_LINK/iot_link/os/liteos/base/core\los_task.c **** #else
 154:C:/Users/²Ü¼ÒºÀ/.iotlink/sdk/IoT_LINK/iot_link/os/liteos/base/core\los_task.c ****     #if (LOSCFG_KERNEL_RUNSTOP == YES)
 155:C:/Users/²Ü¼ÒºÀ/.iotlink/sdk/IoT_LINK/iot_link/os/liteos/base/core\los_task.c ****         osEnterSleep();
 156:C:/Users/²Ü¼ÒºÀ/.iotlink/sdk/IoT_LINK/iot_link/os/liteos/base/core\los_task.c ****     #endif
 157:C:/Users/²Ü¼ÒºÀ/.iotlink/sdk/IoT_LINK/iot_link/os/liteos/base/core\los_task.c **** #endif
 158:C:/Users/²Ü¼ÒºÀ/.iotlink/sdk/IoT_LINK/iot_link/os/liteos/base/core\los_task.c ****     }
  70              		.loc 2 158 5 discriminator 1 view .LVU12
 149:C:/Users/²Ü¼ÒºÀ/.iotlink/sdk/IoT_LINK/iot_link/os/liteos/base/core\los_task.c ****     while (1)
  71              		.loc 2 149 11 discriminator 1 view .LVU13
  72 0000 FEE7     		b	.L3
  73              		.cfi_endproc
  74              	.LFE287:
  76              		.section	.rodata.osTaskSwitchCheck.str1.1,"aMS",%progbits,1
  77              	.LC0:
  78 0000 5B455252 		.ascii	"[ERR] \000"
  78      5D2000
  79              	.LC1:
  80 0007 43555252 		.ascii	"CURRENT task ID: %s:%d stack overflow!\012\000"
  80      454E5420 
  80      7461736B 
  80      2049443A 
  80      2025733A 
  81              	.LC2:
  82 002f 48494748 		.ascii	"HIGHEST task ID: %s:%d SP error!\012\000"
  82      45535420 
  82      7461736B 
  82      2049443A 
  82      2025733A 
  83              	.LC3:
  84 0051 48494748 		.ascii	"HIGHEST task StackPointer: 0x%x TopOfStack: 0x%x\012"
  84      45535420 
  84      7461736B 
  84      20537461 
  84      636B506F 
  85 0082 00       		.ascii	"\000"
  86              		.section	.text.osTaskSwitchCheck,"ax",%progbits
  87              		.align	1
  88              		.global	osTaskSwitchCheck
  89              		.syntax unified
  90              		.thumb
  91              		.thumb_func
  92              		.fpu fpv4-sp-d16
  94              	osTaskSwitchCheck:
  95              	.LFB300:
 159:C:/Users/²Ü¼ÒºÀ/.iotlink/sdk/IoT_LINK/iot_link/os/liteos/base/core\los_task.c **** }
 160:C:/Users/²Ü¼ÒºÀ/.iotlink/sdk/IoT_LINK/iot_link/os/liteos/base/core\los_task.c **** 
 161:C:/Users/²Ü¼ÒºÀ/.iotlink/sdk/IoT_LINK/iot_link/os/liteos/base/core\los_task.c **** /*****************************************************************************
 162:C:/Users/²Ü¼ÒºÀ/.iotlink/sdk/IoT_LINK/iot_link/os/liteos/base/core\los_task.c ****  Function : osTaskPriModify
 163:C:/Users/²Ü¼ÒºÀ/.iotlink/sdk/IoT_LINK/iot_link/os/liteos/base/core\los_task.c ****  Description : Change task priority.
ARM GAS  C:\Users\²Ü¼ÒºÀ\AppData\Local\Temp\ccOngKk7.s 			page 9


 164:C:/Users/²Ü¼ÒºÀ/.iotlink/sdk/IoT_LINK/iot_link/os/liteos/base/core\los_task.c ****  Input       : pstTaskCB    --- task control block
 165:C:/Users/²Ü¼ÒºÀ/.iotlink/sdk/IoT_LINK/iot_link/os/liteos/base/core\los_task.c ****                  usPriority      --- priority
 166:C:/Users/²Ü¼ÒºÀ/.iotlink/sdk/IoT_LINK/iot_link/os/liteos/base/core\los_task.c ****  Output      : None
 167:C:/Users/²Ü¼ÒºÀ/.iotlink/sdk/IoT_LINK/iot_link/os/liteos/base/core\los_task.c ****  Return      : None
 168:C:/Users/²Ü¼ÒºÀ/.iotlink/sdk/IoT_LINK/iot_link/os/liteos/base/core\los_task.c ****  *****************************************************************************/
 169:C:/Users/²Ü¼ÒºÀ/.iotlink/sdk/IoT_LINK/iot_link/os/liteos/base/core\los_task.c **** LITE_OS_SEC_TEXT_MINOR VOID osTaskPriModify(LOS_TASK_CB *pstTaskCB, UINT16 usPriority)
 170:C:/Users/²Ü¼ÒºÀ/.iotlink/sdk/IoT_LINK/iot_link/os/liteos/base/core\los_task.c **** {
 171:C:/Users/²Ü¼ÒºÀ/.iotlink/sdk/IoT_LINK/iot_link/os/liteos/base/core\los_task.c ****     if (pstTaskCB->usTaskStatus & OS_TASK_STATUS_READY)
 172:C:/Users/²Ü¼ÒºÀ/.iotlink/sdk/IoT_LINK/iot_link/os/liteos/base/core\los_task.c ****     {
 173:C:/Users/²Ü¼ÒºÀ/.iotlink/sdk/IoT_LINK/iot_link/os/liteos/base/core\los_task.c ****         osPriqueueDequeue(&pstTaskCB->stPendList);
 174:C:/Users/²Ü¼ÒºÀ/.iotlink/sdk/IoT_LINK/iot_link/os/liteos/base/core\los_task.c ****         pstTaskCB->usTaskStatus &= (~OS_TASK_STATUS_READY);
 175:C:/Users/²Ü¼ÒºÀ/.iotlink/sdk/IoT_LINK/iot_link/os/liteos/base/core\los_task.c ****         pstTaskCB->usPriority = usPriority;
 176:C:/Users/²Ü¼ÒºÀ/.iotlink/sdk/IoT_LINK/iot_link/os/liteos/base/core\los_task.c ****         pstTaskCB->usTaskStatus |= OS_TASK_STATUS_READY;
 177:C:/Users/²Ü¼ÒºÀ/.iotlink/sdk/IoT_LINK/iot_link/os/liteos/base/core\los_task.c ****         osPriqueueEnqueue(&pstTaskCB->stPendList, pstTaskCB->usPriority);
 178:C:/Users/²Ü¼ÒºÀ/.iotlink/sdk/IoT_LINK/iot_link/os/liteos/base/core\los_task.c ****     }
 179:C:/Users/²Ü¼ÒºÀ/.iotlink/sdk/IoT_LINK/iot_link/os/liteos/base/core\los_task.c ****     else
 180:C:/Users/²Ü¼ÒºÀ/.iotlink/sdk/IoT_LINK/iot_link/os/liteos/base/core\los_task.c ****     {
 181:C:/Users/²Ü¼ÒºÀ/.iotlink/sdk/IoT_LINK/iot_link/os/liteos/base/core\los_task.c ****         pstTaskCB->usPriority = usPriority;
 182:C:/Users/²Ü¼ÒºÀ/.iotlink/sdk/IoT_LINK/iot_link/os/liteos/base/core\los_task.c ****     }
 183:C:/Users/²Ü¼ÒºÀ/.iotlink/sdk/IoT_LINK/iot_link/os/liteos/base/core\los_task.c **** }
 184:C:/Users/²Ü¼ÒºÀ/.iotlink/sdk/IoT_LINK/iot_link/os/liteos/base/core\los_task.c **** 
 185:C:/Users/²Ü¼ÒºÀ/.iotlink/sdk/IoT_LINK/iot_link/os/liteos/base/core\los_task.c **** /*****************************************************************************
 186:C:/Users/²Ü¼ÒºÀ/.iotlink/sdk/IoT_LINK/iot_link/os/liteos/base/core\los_task.c ****  Function : osTaskAdd2TimerList
 187:C:/Users/²Ü¼ÒºÀ/.iotlink/sdk/IoT_LINK/iot_link/os/liteos/base/core\los_task.c ****  Description : Add task to sorted delay list.
 188:C:/Users/²Ü¼ÒºÀ/.iotlink/sdk/IoT_LINK/iot_link/os/liteos/base/core\los_task.c ****  Input       : pstTaskCB    --- task control block
 189:C:/Users/²Ü¼ÒºÀ/.iotlink/sdk/IoT_LINK/iot_link/os/liteos/base/core\los_task.c ****                uwTimeout    --- wait time, ticks
 190:C:/Users/²Ü¼ÒºÀ/.iotlink/sdk/IoT_LINK/iot_link/os/liteos/base/core\los_task.c ****  Output      : None
 191:C:/Users/²Ü¼ÒºÀ/.iotlink/sdk/IoT_LINK/iot_link/os/liteos/base/core\los_task.c ****  Return      : None
 192:C:/Users/²Ü¼ÒºÀ/.iotlink/sdk/IoT_LINK/iot_link/os/liteos/base/core\los_task.c ****  *****************************************************************************/
 193:C:/Users/²Ü¼ÒºÀ/.iotlink/sdk/IoT_LINK/iot_link/os/liteos/base/core\los_task.c **** LITE_OS_SEC_TEXT VOID osTaskAdd2TimerList(LOS_TASK_CB *pstTaskCB, UINT32 uwTimeout)
 194:C:/Users/²Ü¼ÒºÀ/.iotlink/sdk/IoT_LINK/iot_link/os/liteos/base/core\los_task.c **** {
 195:C:/Users/²Ü¼ÒºÀ/.iotlink/sdk/IoT_LINK/iot_link/os/liteos/base/core\los_task.c ****     LOS_TASK_CB *pstTskDelay;
 196:C:/Users/²Ü¼ÒºÀ/.iotlink/sdk/IoT_LINK/iot_link/os/liteos/base/core\los_task.c ****     LOS_DL_LIST *pstListObject;
 197:C:/Users/²Ü¼ÒºÀ/.iotlink/sdk/IoT_LINK/iot_link/os/liteos/base/core\los_task.c ****     UINT32 uwSortIndex;
 198:C:/Users/²Ü¼ÒºÀ/.iotlink/sdk/IoT_LINK/iot_link/os/liteos/base/core\los_task.c ****     UINT32 uwRollNum;
 199:C:/Users/²Ü¼ÒºÀ/.iotlink/sdk/IoT_LINK/iot_link/os/liteos/base/core\los_task.c **** 
 200:C:/Users/²Ü¼ÒºÀ/.iotlink/sdk/IoT_LINK/iot_link/os/liteos/base/core\los_task.c ****     uwSortIndex = uwTimeout & OS_TSK_SORTLINK_MASK;
 201:C:/Users/²Ü¼ÒºÀ/.iotlink/sdk/IoT_LINK/iot_link/os/liteos/base/core\los_task.c ****     uwRollNum = (uwTimeout >> OS_TSK_SORTLINK_LOGLEN);
 202:C:/Users/²Ü¼ÒºÀ/.iotlink/sdk/IoT_LINK/iot_link/os/liteos/base/core\los_task.c ****     (uwSortIndex > 0) ? 0 : (uwRollNum--);
 203:C:/Users/²Ü¼ÒºÀ/.iotlink/sdk/IoT_LINK/iot_link/os/liteos/base/core\los_task.c ****     EVALUATE_L(pstTaskCB->uwIdxRollNum, uwRollNum);
 204:C:/Users/²Ü¼ÒºÀ/.iotlink/sdk/IoT_LINK/iot_link/os/liteos/base/core\los_task.c ****     uwSortIndex = (uwSortIndex + g_stTskSortLink.usCursor);
 205:C:/Users/²Ü¼ÒºÀ/.iotlink/sdk/IoT_LINK/iot_link/os/liteos/base/core\los_task.c ****     uwSortIndex = uwSortIndex & OS_TSK_SORTLINK_MASK;
 206:C:/Users/²Ü¼ÒºÀ/.iotlink/sdk/IoT_LINK/iot_link/os/liteos/base/core\los_task.c ****     EVALUATE_H(pstTaskCB->uwIdxRollNum, uwSortIndex);
 207:C:/Users/²Ü¼ÒºÀ/.iotlink/sdk/IoT_LINK/iot_link/os/liteos/base/core\los_task.c ****     pstListObject = g_stTskSortLink.pstSortLink + uwSortIndex;
 208:C:/Users/²Ü¼ÒºÀ/.iotlink/sdk/IoT_LINK/iot_link/os/liteos/base/core\los_task.c ****     if (pstListObject->pstNext == pstListObject)
 209:C:/Users/²Ü¼ÒºÀ/.iotlink/sdk/IoT_LINK/iot_link/os/liteos/base/core\los_task.c ****     {
 210:C:/Users/²Ü¼ÒºÀ/.iotlink/sdk/IoT_LINK/iot_link/os/liteos/base/core\los_task.c ****         LOS_ListTailInsert(pstListObject, &pstTaskCB->stTimerList);
 211:C:/Users/²Ü¼ÒºÀ/.iotlink/sdk/IoT_LINK/iot_link/os/liteos/base/core\los_task.c ****     }
 212:C:/Users/²Ü¼ÒºÀ/.iotlink/sdk/IoT_LINK/iot_link/os/liteos/base/core\los_task.c ****     else
 213:C:/Users/²Ü¼ÒºÀ/.iotlink/sdk/IoT_LINK/iot_link/os/liteos/base/core\los_task.c ****     {
 214:C:/Users/²Ü¼ÒºÀ/.iotlink/sdk/IoT_LINK/iot_link/os/liteos/base/core\los_task.c ****         pstTskDelay = LOS_DL_LIST_ENTRY((pstListObject)->pstNext, LOS_TASK_CB, stTimerList); /*lint
 215:C:/Users/²Ü¼ÒºÀ/.iotlink/sdk/IoT_LINK/iot_link/os/liteos/base/core\los_task.c ****         do
 216:C:/Users/²Ü¼ÒºÀ/.iotlink/sdk/IoT_LINK/iot_link/os/liteos/base/core\los_task.c ****         {
 217:C:/Users/²Ü¼ÒºÀ/.iotlink/sdk/IoT_LINK/iot_link/os/liteos/base/core\los_task.c ****             if (UWROLLNUM(pstTskDelay->uwIdxRollNum) <= UWROLLNUM(pstTaskCB->uwIdxRollNum))
 218:C:/Users/²Ü¼ÒºÀ/.iotlink/sdk/IoT_LINK/iot_link/os/liteos/base/core\los_task.c ****             {
 219:C:/Users/²Ü¼ÒºÀ/.iotlink/sdk/IoT_LINK/iot_link/os/liteos/base/core\los_task.c ****                 UWROLLNUMSUB(pstTaskCB->uwIdxRollNum, pstTskDelay->uwIdxRollNum);
 220:C:/Users/²Ü¼ÒºÀ/.iotlink/sdk/IoT_LINK/iot_link/os/liteos/base/core\los_task.c ****             }
ARM GAS  C:\Users\²Ü¼ÒºÀ\AppData\Local\Temp\ccOngKk7.s 			page 10


 221:C:/Users/²Ü¼ÒºÀ/.iotlink/sdk/IoT_LINK/iot_link/os/liteos/base/core\los_task.c ****             else
 222:C:/Users/²Ü¼ÒºÀ/.iotlink/sdk/IoT_LINK/iot_link/os/liteos/base/core\los_task.c ****             {
 223:C:/Users/²Ü¼ÒºÀ/.iotlink/sdk/IoT_LINK/iot_link/os/liteos/base/core\los_task.c ****                 UWROLLNUMSUB(pstTskDelay->uwIdxRollNum, pstTaskCB->uwIdxRollNum);
 224:C:/Users/²Ü¼ÒºÀ/.iotlink/sdk/IoT_LINK/iot_link/os/liteos/base/core\los_task.c ****                 break;
 225:C:/Users/²Ü¼ÒºÀ/.iotlink/sdk/IoT_LINK/iot_link/os/liteos/base/core\los_task.c ****             }
 226:C:/Users/²Ü¼ÒºÀ/.iotlink/sdk/IoT_LINK/iot_link/os/liteos/base/core\los_task.c **** 
 227:C:/Users/²Ü¼ÒºÀ/.iotlink/sdk/IoT_LINK/iot_link/os/liteos/base/core\los_task.c ****             pstTskDelay = LOS_DL_LIST_ENTRY(pstTskDelay->stTimerList.pstNext, LOS_TASK_CB, stTimerL
 228:C:/Users/²Ü¼ÒºÀ/.iotlink/sdk/IoT_LINK/iot_link/os/liteos/base/core\los_task.c ****         } while (&pstTskDelay->stTimerList != (pstListObject));
 229:C:/Users/²Ü¼ÒºÀ/.iotlink/sdk/IoT_LINK/iot_link/os/liteos/base/core\los_task.c **** 
 230:C:/Users/²Ü¼ÒºÀ/.iotlink/sdk/IoT_LINK/iot_link/os/liteos/base/core\los_task.c ****         LOS_ListTailInsert(&pstTskDelay->stTimerList, &pstTaskCB->stTimerList);
 231:C:/Users/²Ü¼ÒºÀ/.iotlink/sdk/IoT_LINK/iot_link/os/liteos/base/core\los_task.c ****     }
 232:C:/Users/²Ü¼ÒºÀ/.iotlink/sdk/IoT_LINK/iot_link/os/liteos/base/core\los_task.c **** }
 233:C:/Users/²Ü¼ÒºÀ/.iotlink/sdk/IoT_LINK/iot_link/os/liteos/base/core\los_task.c **** 
 234:C:/Users/²Ü¼ÒºÀ/.iotlink/sdk/IoT_LINK/iot_link/os/liteos/base/core\los_task.c **** 
 235:C:/Users/²Ü¼ÒºÀ/.iotlink/sdk/IoT_LINK/iot_link/os/liteos/base/core\los_task.c **** LITE_OS_SEC_TEXT VOID osTimerListDelete(LOS_TASK_CB *pstTaskCB)
 236:C:/Users/²Ü¼ÒºÀ/.iotlink/sdk/IoT_LINK/iot_link/os/liteos/base/core\los_task.c **** {
 237:C:/Users/²Ü¼ÒºÀ/.iotlink/sdk/IoT_LINK/iot_link/os/liteos/base/core\los_task.c ****     LOS_DL_LIST  *pstListObject;
 238:C:/Users/²Ü¼ÒºÀ/.iotlink/sdk/IoT_LINK/iot_link/os/liteos/base/core\los_task.c ****     LOS_TASK_CB  *pstNextTask;
 239:C:/Users/²Ü¼ÒºÀ/.iotlink/sdk/IoT_LINK/iot_link/os/liteos/base/core\los_task.c ****     UINT32 uwSortIndex;
 240:C:/Users/²Ü¼ÒºÀ/.iotlink/sdk/IoT_LINK/iot_link/os/liteos/base/core\los_task.c **** 
 241:C:/Users/²Ü¼ÒºÀ/.iotlink/sdk/IoT_LINK/iot_link/os/liteos/base/core\los_task.c ****     uwSortIndex = UWSORTINDEX(pstTaskCB->uwIdxRollNum);
 242:C:/Users/²Ü¼ÒºÀ/.iotlink/sdk/IoT_LINK/iot_link/os/liteos/base/core\los_task.c ****     pstListObject = g_stTskSortLink.pstSortLink + uwSortIndex;
 243:C:/Users/²Ü¼ÒºÀ/.iotlink/sdk/IoT_LINK/iot_link/os/liteos/base/core\los_task.c **** 
 244:C:/Users/²Ü¼ÒºÀ/.iotlink/sdk/IoT_LINK/iot_link/os/liteos/base/core\los_task.c ****     if (pstListObject != pstTaskCB->stTimerList.pstNext)
 245:C:/Users/²Ü¼ÒºÀ/.iotlink/sdk/IoT_LINK/iot_link/os/liteos/base/core\los_task.c ****     {
 246:C:/Users/²Ü¼ÒºÀ/.iotlink/sdk/IoT_LINK/iot_link/os/liteos/base/core\los_task.c ****         pstNextTask = LOS_DL_LIST_ENTRY(pstTaskCB->stTimerList.pstNext, LOS_TASK_CB, stTimerList); 
 247:C:/Users/²Ü¼ÒºÀ/.iotlink/sdk/IoT_LINK/iot_link/os/liteos/base/core\los_task.c ****         UWROLLNUMADD(pstNextTask->uwIdxRollNum, pstTaskCB->uwIdxRollNum);
 248:C:/Users/²Ü¼ÒºÀ/.iotlink/sdk/IoT_LINK/iot_link/os/liteos/base/core\los_task.c ****     }
 249:C:/Users/²Ü¼ÒºÀ/.iotlink/sdk/IoT_LINK/iot_link/os/liteos/base/core\los_task.c **** 
 250:C:/Users/²Ü¼ÒºÀ/.iotlink/sdk/IoT_LINK/iot_link/os/liteos/base/core\los_task.c ****     LOS_ListDelete(&pstTaskCB->stTimerList);
 251:C:/Users/²Ü¼ÒºÀ/.iotlink/sdk/IoT_LINK/iot_link/os/liteos/base/core\los_task.c **** }
 252:C:/Users/²Ü¼ÒºÀ/.iotlink/sdk/IoT_LINK/iot_link/os/liteos/base/core\los_task.c **** 
 253:C:/Users/²Ü¼ÒºÀ/.iotlink/sdk/IoT_LINK/iot_link/os/liteos/base/core\los_task.c **** LITE_OS_SEC_TEXT VOID osTaskScan(VOID)
 254:C:/Users/²Ü¼ÒºÀ/.iotlink/sdk/IoT_LINK/iot_link/os/liteos/base/core\los_task.c **** {
 255:C:/Users/²Ü¼ÒºÀ/.iotlink/sdk/IoT_LINK/iot_link/os/liteos/base/core\los_task.c ****     LOS_TASK_CB *pstTaskCB;
 256:C:/Users/²Ü¼ÒºÀ/.iotlink/sdk/IoT_LINK/iot_link/os/liteos/base/core\los_task.c ****     BOOL bNeedSchedule = FALSE;
 257:C:/Users/²Ü¼ÒºÀ/.iotlink/sdk/IoT_LINK/iot_link/os/liteos/base/core\los_task.c ****     LOS_DL_LIST *pstListObject;
 258:C:/Users/²Ü¼ÒºÀ/.iotlink/sdk/IoT_LINK/iot_link/os/liteos/base/core\los_task.c ****     UINT16 usTempStatus;
 259:C:/Users/²Ü¼ÒºÀ/.iotlink/sdk/IoT_LINK/iot_link/os/liteos/base/core\los_task.c **** 
 260:C:/Users/²Ü¼ÒºÀ/.iotlink/sdk/IoT_LINK/iot_link/os/liteos/base/core\los_task.c ****     g_stTskSortLink.usCursor = (g_stTskSortLink.usCursor + 1) % OS_TSK_SORTLINK_LEN;
 261:C:/Users/²Ü¼ÒºÀ/.iotlink/sdk/IoT_LINK/iot_link/os/liteos/base/core\los_task.c ****     pstListObject = g_stTskSortLink.pstSortLink + g_stTskSortLink.usCursor;
 262:C:/Users/²Ü¼ÒºÀ/.iotlink/sdk/IoT_LINK/iot_link/os/liteos/base/core\los_task.c ****     if (pstListObject->pstNext == pstListObject)
 263:C:/Users/²Ü¼ÒºÀ/.iotlink/sdk/IoT_LINK/iot_link/os/liteos/base/core\los_task.c ****     {
 264:C:/Users/²Ü¼ÒºÀ/.iotlink/sdk/IoT_LINK/iot_link/os/liteos/base/core\los_task.c ****         return;
 265:C:/Users/²Ü¼ÒºÀ/.iotlink/sdk/IoT_LINK/iot_link/os/liteos/base/core\los_task.c ****     }
 266:C:/Users/²Ü¼ÒºÀ/.iotlink/sdk/IoT_LINK/iot_link/os/liteos/base/core\los_task.c **** 
 267:C:/Users/²Ü¼ÒºÀ/.iotlink/sdk/IoT_LINK/iot_link/os/liteos/base/core\los_task.c ****     for (pstTaskCB = LOS_DL_LIST_ENTRY((pstListObject)->pstNext, LOS_TASK_CB, stTimerList);&pstTask
 268:C:/Users/²Ü¼ÒºÀ/.iotlink/sdk/IoT_LINK/iot_link/os/liteos/base/core\los_task.c ****     {
 269:C:/Users/²Ü¼ÒºÀ/.iotlink/sdk/IoT_LINK/iot_link/os/liteos/base/core\los_task.c ****         usTempStatus = pstTaskCB->usTaskStatus;
 270:C:/Users/²Ü¼ÒºÀ/.iotlink/sdk/IoT_LINK/iot_link/os/liteos/base/core\los_task.c ****         if (UWROLLNUM(pstTaskCB->uwIdxRollNum) > 0)
 271:C:/Users/²Ü¼ÒºÀ/.iotlink/sdk/IoT_LINK/iot_link/os/liteos/base/core\los_task.c ****         {
 272:C:/Users/²Ü¼ÒºÀ/.iotlink/sdk/IoT_LINK/iot_link/os/liteos/base/core\los_task.c ****             UWROLLNUMDEC(pstTaskCB->uwIdxRollNum);
 273:C:/Users/²Ü¼ÒºÀ/.iotlink/sdk/IoT_LINK/iot_link/os/liteos/base/core\los_task.c ****             break;
 274:C:/Users/²Ü¼ÒºÀ/.iotlink/sdk/IoT_LINK/iot_link/os/liteos/base/core\los_task.c ****         }
 275:C:/Users/²Ü¼ÒºÀ/.iotlink/sdk/IoT_LINK/iot_link/os/liteos/base/core\los_task.c **** 
 276:C:/Users/²Ü¼ÒºÀ/.iotlink/sdk/IoT_LINK/iot_link/os/liteos/base/core\los_task.c ****         LOS_ListDelete(&pstTaskCB->stTimerList);
 277:C:/Users/²Ü¼ÒºÀ/.iotlink/sdk/IoT_LINK/iot_link/os/liteos/base/core\los_task.c ****         if (OS_TASK_STATUS_PEND & usTempStatus)
ARM GAS  C:\Users\²Ü¼ÒºÀ\AppData\Local\Temp\ccOngKk7.s 			page 11


 278:C:/Users/²Ü¼ÒºÀ/.iotlink/sdk/IoT_LINK/iot_link/os/liteos/base/core\los_task.c ****         {
 279:C:/Users/²Ü¼ÒºÀ/.iotlink/sdk/IoT_LINK/iot_link/os/liteos/base/core\los_task.c ****             pstTaskCB->usTaskStatus &= ~(OS_TASK_STATUS_PEND);
 280:C:/Users/²Ü¼ÒºÀ/.iotlink/sdk/IoT_LINK/iot_link/os/liteos/base/core\los_task.c ****             LOS_ListDelete(&pstTaskCB->stPendList);
 281:C:/Users/²Ü¼ÒºÀ/.iotlink/sdk/IoT_LINK/iot_link/os/liteos/base/core\los_task.c ****             pstTaskCB->pTaskSem = NULL;
 282:C:/Users/²Ü¼ÒºÀ/.iotlink/sdk/IoT_LINK/iot_link/os/liteos/base/core\los_task.c ****             pstTaskCB->pTaskMux = NULL;
 283:C:/Users/²Ü¼ÒºÀ/.iotlink/sdk/IoT_LINK/iot_link/os/liteos/base/core\los_task.c ****         }
 284:C:/Users/²Ü¼ÒºÀ/.iotlink/sdk/IoT_LINK/iot_link/os/liteos/base/core\los_task.c ****         else if (OS_TASK_STATUS_EVENT & usTempStatus)
 285:C:/Users/²Ü¼ÒºÀ/.iotlink/sdk/IoT_LINK/iot_link/os/liteos/base/core\los_task.c ****         {
 286:C:/Users/²Ü¼ÒºÀ/.iotlink/sdk/IoT_LINK/iot_link/os/liteos/base/core\los_task.c ****             pstTaskCB->usTaskStatus &= ~(OS_TASK_STATUS_EVENT);
 287:C:/Users/²Ü¼ÒºÀ/.iotlink/sdk/IoT_LINK/iot_link/os/liteos/base/core\los_task.c ****         }
 288:C:/Users/²Ü¼ÒºÀ/.iotlink/sdk/IoT_LINK/iot_link/os/liteos/base/core\los_task.c ****         else if (OS_TASK_STATUS_PEND_QUEUE & usTempStatus)
 289:C:/Users/²Ü¼ÒºÀ/.iotlink/sdk/IoT_LINK/iot_link/os/liteos/base/core\los_task.c ****         {
 290:C:/Users/²Ü¼ÒºÀ/.iotlink/sdk/IoT_LINK/iot_link/os/liteos/base/core\los_task.c ****             LOS_ListDelete(&pstTaskCB->stPendList);
 291:C:/Users/²Ü¼ÒºÀ/.iotlink/sdk/IoT_LINK/iot_link/os/liteos/base/core\los_task.c ****             pstTaskCB->usTaskStatus &= ~(OS_TASK_STATUS_PEND_QUEUE);
 292:C:/Users/²Ü¼ÒºÀ/.iotlink/sdk/IoT_LINK/iot_link/os/liteos/base/core\los_task.c ****         }
 293:C:/Users/²Ü¼ÒºÀ/.iotlink/sdk/IoT_LINK/iot_link/os/liteos/base/core\los_task.c ****         else
 294:C:/Users/²Ü¼ÒºÀ/.iotlink/sdk/IoT_LINK/iot_link/os/liteos/base/core\los_task.c ****         {
 295:C:/Users/²Ü¼ÒºÀ/.iotlink/sdk/IoT_LINK/iot_link/os/liteos/base/core\los_task.c ****             pstTaskCB->usTaskStatus &= ~(OS_TASK_STATUS_DELAY);
 296:C:/Users/²Ü¼ÒºÀ/.iotlink/sdk/IoT_LINK/iot_link/os/liteos/base/core\los_task.c ****         }
 297:C:/Users/²Ü¼ÒºÀ/.iotlink/sdk/IoT_LINK/iot_link/os/liteos/base/core\los_task.c **** 
 298:C:/Users/²Ü¼ÒºÀ/.iotlink/sdk/IoT_LINK/iot_link/os/liteos/base/core\los_task.c ****         if (!((OS_TASK_STATUS_SUSPEND) & usTempStatus))
 299:C:/Users/²Ü¼ÒºÀ/.iotlink/sdk/IoT_LINK/iot_link/os/liteos/base/core\los_task.c ****         {
 300:C:/Users/²Ü¼ÒºÀ/.iotlink/sdk/IoT_LINK/iot_link/os/liteos/base/core\los_task.c ****             pstTaskCB->usTaskStatus |= OS_TASK_STATUS_READY;
 301:C:/Users/²Ü¼ÒºÀ/.iotlink/sdk/IoT_LINK/iot_link/os/liteos/base/core\los_task.c ****             osPriqueueEnqueue(&pstTaskCB->stPendList, pstTaskCB->usPriority);
 302:C:/Users/²Ü¼ÒºÀ/.iotlink/sdk/IoT_LINK/iot_link/os/liteos/base/core\los_task.c ****             bNeedSchedule = TRUE;
 303:C:/Users/²Ü¼ÒºÀ/.iotlink/sdk/IoT_LINK/iot_link/os/liteos/base/core\los_task.c ****         }
 304:C:/Users/²Ü¼ÒºÀ/.iotlink/sdk/IoT_LINK/iot_link/os/liteos/base/core\los_task.c **** 
 305:C:/Users/²Ü¼ÒºÀ/.iotlink/sdk/IoT_LINK/iot_link/os/liteos/base/core\los_task.c ****         pstTaskCB = LOS_DL_LIST_ENTRY(pstListObject->pstNext, LOS_TASK_CB, stTimerList); /*lint !e4
 306:C:/Users/²Ü¼ÒºÀ/.iotlink/sdk/IoT_LINK/iot_link/os/liteos/base/core\los_task.c ****     }
 307:C:/Users/²Ü¼ÒºÀ/.iotlink/sdk/IoT_LINK/iot_link/os/liteos/base/core\los_task.c **** 
 308:C:/Users/²Ü¼ÒºÀ/.iotlink/sdk/IoT_LINK/iot_link/os/liteos/base/core\los_task.c ****     if (bNeedSchedule)
 309:C:/Users/²Ü¼ÒºÀ/.iotlink/sdk/IoT_LINK/iot_link/os/liteos/base/core\los_task.c ****     {
 310:C:/Users/²Ü¼ÒºÀ/.iotlink/sdk/IoT_LINK/iot_link/os/liteos/base/core\los_task.c ****         LOS_Schedule();
 311:C:/Users/²Ü¼ÒºÀ/.iotlink/sdk/IoT_LINK/iot_link/os/liteos/base/core\los_task.c ****     }
 312:C:/Users/²Ü¼ÒºÀ/.iotlink/sdk/IoT_LINK/iot_link/os/liteos/base/core\los_task.c **** }
 313:C:/Users/²Ü¼ÒºÀ/.iotlink/sdk/IoT_LINK/iot_link/os/liteos/base/core\los_task.c **** 
 314:C:/Users/²Ü¼ÒºÀ/.iotlink/sdk/IoT_LINK/iot_link/os/liteos/base/core\los_task.c **** /*****************************************************************************
 315:C:/Users/²Ü¼ÒºÀ/.iotlink/sdk/IoT_LINK/iot_link/os/liteos/base/core\los_task.c ****  Function : osConvertTskStatus
 316:C:/Users/²Ü¼ÒºÀ/.iotlink/sdk/IoT_LINK/iot_link/os/liteos/base/core\los_task.c ****  Description : Convert task status to string.
 317:C:/Users/²Ü¼ÒºÀ/.iotlink/sdk/IoT_LINK/iot_link/os/liteos/base/core\los_task.c ****  Input       : usTaskStatus    --- task status
 318:C:/Users/²Ü¼ÒºÀ/.iotlink/sdk/IoT_LINK/iot_link/os/liteos/base/core\los_task.c ****  Output      : None
 319:C:/Users/²Ü¼ÒºÀ/.iotlink/sdk/IoT_LINK/iot_link/os/liteos/base/core\los_task.c ****  Return      : string
 320:C:/Users/²Ü¼ÒºÀ/.iotlink/sdk/IoT_LINK/iot_link/os/liteos/base/core\los_task.c ****  *****************************************************************************/
 321:C:/Users/²Ü¼ÒºÀ/.iotlink/sdk/IoT_LINK/iot_link/os/liteos/base/core\los_task.c **** LITE_OS_SEC_TEXT_MINOR UINT8 *osConvertTskStatus(UINT16 usTaskStatus)
 322:C:/Users/²Ü¼ÒºÀ/.iotlink/sdk/IoT_LINK/iot_link/os/liteos/base/core\los_task.c **** {
 323:C:/Users/²Ü¼ÒºÀ/.iotlink/sdk/IoT_LINK/iot_link/os/liteos/base/core\los_task.c ****     if (OS_TASK_STATUS_RUNNING & usTaskStatus)
 324:C:/Users/²Ü¼ÒºÀ/.iotlink/sdk/IoT_LINK/iot_link/os/liteos/base/core\los_task.c ****     {
 325:C:/Users/²Ü¼ÒºÀ/.iotlink/sdk/IoT_LINK/iot_link/os/liteos/base/core\los_task.c ****         return (UINT8 *)"Running";
 326:C:/Users/²Ü¼ÒºÀ/.iotlink/sdk/IoT_LINK/iot_link/os/liteos/base/core\los_task.c ****     }
 327:C:/Users/²Ü¼ÒºÀ/.iotlink/sdk/IoT_LINK/iot_link/os/liteos/base/core\los_task.c ****     else if (OS_TASK_STATUS_READY &  usTaskStatus)
 328:C:/Users/²Ü¼ÒºÀ/.iotlink/sdk/IoT_LINK/iot_link/os/liteos/base/core\los_task.c ****     {
 329:C:/Users/²Ü¼ÒºÀ/.iotlink/sdk/IoT_LINK/iot_link/os/liteos/base/core\los_task.c ****         return (UINT8 *)"Ready";
 330:C:/Users/²Ü¼ÒºÀ/.iotlink/sdk/IoT_LINK/iot_link/os/liteos/base/core\los_task.c ****     }
 331:C:/Users/²Ü¼ÒºÀ/.iotlink/sdk/IoT_LINK/iot_link/os/liteos/base/core\los_task.c ****     else if (OS_TASK_STATUS_DELAY &  usTaskStatus)
 332:C:/Users/²Ü¼ÒºÀ/.iotlink/sdk/IoT_LINK/iot_link/os/liteos/base/core\los_task.c ****     {
 333:C:/Users/²Ü¼ÒºÀ/.iotlink/sdk/IoT_LINK/iot_link/os/liteos/base/core\los_task.c ****         return (UINT8 *)"Delay";
 334:C:/Users/²Ü¼ÒºÀ/.iotlink/sdk/IoT_LINK/iot_link/os/liteos/base/core\los_task.c ****     }
ARM GAS  C:\Users\²Ü¼ÒºÀ\AppData\Local\Temp\ccOngKk7.s 			page 12


 335:C:/Users/²Ü¼ÒºÀ/.iotlink/sdk/IoT_LINK/iot_link/os/liteos/base/core\los_task.c ****     else if (OS_TASK_STATUS_PEND & usTaskStatus)
 336:C:/Users/²Ü¼ÒºÀ/.iotlink/sdk/IoT_LINK/iot_link/os/liteos/base/core\los_task.c ****     {
 337:C:/Users/²Ü¼ÒºÀ/.iotlink/sdk/IoT_LINK/iot_link/os/liteos/base/core\los_task.c ****         if (OS_TASK_STATUS_TIMEOUT & usTaskStatus)
 338:C:/Users/²Ü¼ÒºÀ/.iotlink/sdk/IoT_LINK/iot_link/os/liteos/base/core\los_task.c ****         {
 339:C:/Users/²Ü¼ÒºÀ/.iotlink/sdk/IoT_LINK/iot_link/os/liteos/base/core\los_task.c ****             return (UINT8 *)"PendTimeOut";
 340:C:/Users/²Ü¼ÒºÀ/.iotlink/sdk/IoT_LINK/iot_link/os/liteos/base/core\los_task.c ****         }
 341:C:/Users/²Ü¼ÒºÀ/.iotlink/sdk/IoT_LINK/iot_link/os/liteos/base/core\los_task.c **** 
 342:C:/Users/²Ü¼ÒºÀ/.iotlink/sdk/IoT_LINK/iot_link/os/liteos/base/core\los_task.c ****         return (UINT8 *)"Pend";
 343:C:/Users/²Ü¼ÒºÀ/.iotlink/sdk/IoT_LINK/iot_link/os/liteos/base/core\los_task.c ****     }
 344:C:/Users/²Ü¼ÒºÀ/.iotlink/sdk/IoT_LINK/iot_link/os/liteos/base/core\los_task.c ****     else if (OS_TASK_STATUS_SUSPEND & usTaskStatus)
 345:C:/Users/²Ü¼ÒºÀ/.iotlink/sdk/IoT_LINK/iot_link/os/liteos/base/core\los_task.c ****     {
 346:C:/Users/²Ü¼ÒºÀ/.iotlink/sdk/IoT_LINK/iot_link/os/liteos/base/core\los_task.c ****         return (UINT8 *)"Suspend";
 347:C:/Users/²Ü¼ÒºÀ/.iotlink/sdk/IoT_LINK/iot_link/os/liteos/base/core\los_task.c ****     }
 348:C:/Users/²Ü¼ÒºÀ/.iotlink/sdk/IoT_LINK/iot_link/os/liteos/base/core\los_task.c ****     else if (OS_TASK_STATUS_PEND_QUEUE& usTaskStatus)
 349:C:/Users/²Ü¼ÒºÀ/.iotlink/sdk/IoT_LINK/iot_link/os/liteos/base/core\los_task.c ****     {
 350:C:/Users/²Ü¼ÒºÀ/.iotlink/sdk/IoT_LINK/iot_link/os/liteos/base/core\los_task.c ****         if (OS_TASK_STATUS_TIMEOUT & usTaskStatus)
 351:C:/Users/²Ü¼ÒºÀ/.iotlink/sdk/IoT_LINK/iot_link/os/liteos/base/core\los_task.c ****         {
 352:C:/Users/²Ü¼ÒºÀ/.iotlink/sdk/IoT_LINK/iot_link/os/liteos/base/core\los_task.c ****             return (UINT8 *)"QueuePendTimeOut";
 353:C:/Users/²Ü¼ÒºÀ/.iotlink/sdk/IoT_LINK/iot_link/os/liteos/base/core\los_task.c ****         }
 354:C:/Users/²Ü¼ÒºÀ/.iotlink/sdk/IoT_LINK/iot_link/os/liteos/base/core\los_task.c **** 
 355:C:/Users/²Ü¼ÒºÀ/.iotlink/sdk/IoT_LINK/iot_link/os/liteos/base/core\los_task.c ****         return (UINT8 *)"QueuePend";
 356:C:/Users/²Ü¼ÒºÀ/.iotlink/sdk/IoT_LINK/iot_link/os/liteos/base/core\los_task.c ****     }
 357:C:/Users/²Ü¼ÒºÀ/.iotlink/sdk/IoT_LINK/iot_link/os/liteos/base/core\los_task.c **** 
 358:C:/Users/²Ü¼ÒºÀ/.iotlink/sdk/IoT_LINK/iot_link/os/liteos/base/core\los_task.c ****     return (UINT8 *)"Impossible";
 359:C:/Users/²Ü¼ÒºÀ/.iotlink/sdk/IoT_LINK/iot_link/os/liteos/base/core\los_task.c **** }
 360:C:/Users/²Ü¼ÒºÀ/.iotlink/sdk/IoT_LINK/iot_link/os/liteos/base/core\los_task.c **** 
 361:C:/Users/²Ü¼ÒºÀ/.iotlink/sdk/IoT_LINK/iot_link/os/liteos/base/core\los_task.c **** LITE_OS_SEC_TEXT_MINOR UINT32 osGetTaskWaterLine(UINT32 uwTaskID)
 362:C:/Users/²Ü¼ÒºÀ/.iotlink/sdk/IoT_LINK/iot_link/os/liteos/base/core\los_task.c **** {
 363:C:/Users/²Ü¼ÒºÀ/.iotlink/sdk/IoT_LINK/iot_link/os/liteos/base/core\los_task.c ****     UINT32 *puwStack;
 364:C:/Users/²Ü¼ÒºÀ/.iotlink/sdk/IoT_LINK/iot_link/os/liteos/base/core\los_task.c ****     UINT32 uwPeakUsed;
 365:C:/Users/²Ü¼ÒºÀ/.iotlink/sdk/IoT_LINK/iot_link/os/liteos/base/core\los_task.c ****     LOS_TASK_CB * pstTaskCB = OS_TCB_FROM_TID(uwTaskID);
 366:C:/Users/²Ü¼ÒºÀ/.iotlink/sdk/IoT_LINK/iot_link/os/liteos/base/core\los_task.c **** 
 367:C:/Users/²Ü¼ÒºÀ/.iotlink/sdk/IoT_LINK/iot_link/os/liteos/base/core\los_task.c ****     if (OS_TASK_MAGIC_WORD == *(UINT32 *)pstTaskCB->uwTopOfStack)
 368:C:/Users/²Ü¼ÒºÀ/.iotlink/sdk/IoT_LINK/iot_link/os/liteos/base/core\los_task.c ****     {
 369:C:/Users/²Ü¼ÒºÀ/.iotlink/sdk/IoT_LINK/iot_link/os/liteos/base/core\los_task.c ****         puwStack = (UINT32 *)(pstTaskCB->uwTopOfStack + 4);
 370:C:/Users/²Ü¼ÒºÀ/.iotlink/sdk/IoT_LINK/iot_link/os/liteos/base/core\los_task.c ****         while ((puwStack < (UINT32 *)pstTaskCB->pStackPointer) && (*puwStack == 0xCACACACA))
 371:C:/Users/²Ü¼ÒºÀ/.iotlink/sdk/IoT_LINK/iot_link/os/liteos/base/core\los_task.c ****         {
 372:C:/Users/²Ü¼ÒºÀ/.iotlink/sdk/IoT_LINK/iot_link/os/liteos/base/core\los_task.c ****             puwStack += 1;
 373:C:/Users/²Ü¼ÒºÀ/.iotlink/sdk/IoT_LINK/iot_link/os/liteos/base/core\los_task.c ****         }
 374:C:/Users/²Ü¼ÒºÀ/.iotlink/sdk/IoT_LINK/iot_link/os/liteos/base/core\los_task.c ****         uwPeakUsed = (pstTaskCB->uwStackSize - ((UINT32)puwStack - pstTaskCB->uwTopOfStack));
 375:C:/Users/²Ü¼ÒºÀ/.iotlink/sdk/IoT_LINK/iot_link/os/liteos/base/core\los_task.c ****     }
 376:C:/Users/²Ü¼ÒºÀ/.iotlink/sdk/IoT_LINK/iot_link/os/liteos/base/core\los_task.c ****     else
 377:C:/Users/²Ü¼ÒºÀ/.iotlink/sdk/IoT_LINK/iot_link/os/liteos/base/core\los_task.c ****     {
 378:C:/Users/²Ü¼ÒºÀ/.iotlink/sdk/IoT_LINK/iot_link/os/liteos/base/core\los_task.c ****         PRINT_ERR("CURRENT task %s stack overflow!\n", pstTaskCB->pcTaskName);
 379:C:/Users/²Ü¼ÒºÀ/.iotlink/sdk/IoT_LINK/iot_link/os/liteos/base/core\los_task.c ****         uwPeakUsed = 0xFFFFFFFF;
 380:C:/Users/²Ü¼ÒºÀ/.iotlink/sdk/IoT_LINK/iot_link/os/liteos/base/core\los_task.c ****     }
 381:C:/Users/²Ü¼ÒºÀ/.iotlink/sdk/IoT_LINK/iot_link/os/liteos/base/core\los_task.c ****     return uwPeakUsed;
 382:C:/Users/²Ü¼ÒºÀ/.iotlink/sdk/IoT_LINK/iot_link/os/liteos/base/core\los_task.c **** }
 383:C:/Users/²Ü¼ÒºÀ/.iotlink/sdk/IoT_LINK/iot_link/os/liteos/base/core\los_task.c **** 
 384:C:/Users/²Ü¼ÒºÀ/.iotlink/sdk/IoT_LINK/iot_link/os/liteos/base/core\los_task.c **** /*****************************************************************************
 385:C:/Users/²Ü¼ÒºÀ/.iotlink/sdk/IoT_LINK/iot_link/os/liteos/base/core\los_task.c ****  Function : osGetAllTskInfo
 386:C:/Users/²Ü¼ÒºÀ/.iotlink/sdk/IoT_LINK/iot_link/os/liteos/base/core\los_task.c ****  Description : Get all task info.
 387:C:/Users/²Ü¼ÒºÀ/.iotlink/sdk/IoT_LINK/iot_link/os/liteos/base/core\los_task.c ****  Input       : None
 388:C:/Users/²Ü¼ÒºÀ/.iotlink/sdk/IoT_LINK/iot_link/os/liteos/base/core\los_task.c ****  Output      : None
 389:C:/Users/²Ü¼ÒºÀ/.iotlink/sdk/IoT_LINK/iot_link/os/liteos/base/core\los_task.c ****  Return      : None
 390:C:/Users/²Ü¼ÒºÀ/.iotlink/sdk/IoT_LINK/iot_link/os/liteos/base/core\los_task.c ****  *****************************************************************************/
 391:C:/Users/²Ü¼ÒºÀ/.iotlink/sdk/IoT_LINK/iot_link/os/liteos/base/core\los_task.c **** LITE_OS_SEC_TEXT_MINOR UINT32 osGetAllTskInfo(VOID)
ARM GAS  C:\Users\²Ü¼ÒºÀ\AppData\Local\Temp\ccOngKk7.s 			page 13


 392:C:/Users/²Ü¼ÒºÀ/.iotlink/sdk/IoT_LINK/iot_link/os/liteos/base/core\los_task.c **** {
 393:C:/Users/²Ü¼ÒºÀ/.iotlink/sdk/IoT_LINK/iot_link/os/liteos/base/core\los_task.c ****     LOS_TASK_CB *pstTaskCB;
 394:C:/Users/²Ü¼ÒºÀ/.iotlink/sdk/IoT_LINK/iot_link/os/liteos/base/core\los_task.c ****     UINT32       uwLoop;
 395:C:/Users/²Ü¼ÒºÀ/.iotlink/sdk/IoT_LINK/iot_link/os/liteos/base/core\los_task.c **** #if (LOSCFG_BASE_CORE_CPUP == YES)
 396:C:/Users/²Ü¼ÒºÀ/.iotlink/sdk/IoT_LINK/iot_link/os/liteos/base/core\los_task.c ****     CPUP_INFO_S *pstCpu = (CPUP_INFO_S *)NULL;
 397:C:/Users/²Ü¼ÒºÀ/.iotlink/sdk/IoT_LINK/iot_link/os/liteos/base/core\los_task.c ****     CPUP_INFO_S *pstCpu10s = (CPUP_INFO_S *)NULL;
 398:C:/Users/²Ü¼ÒºÀ/.iotlink/sdk/IoT_LINK/iot_link/os/liteos/base/core\los_task.c ****     CPUP_INFO_S *pstCpu1s = (CPUP_INFO_S *)NULL;
 399:C:/Users/²Ü¼ÒºÀ/.iotlink/sdk/IoT_LINK/iot_link/os/liteos/base/core\los_task.c **** #endif
 400:C:/Users/²Ü¼ÒºÀ/.iotlink/sdk/IoT_LINK/iot_link/os/liteos/base/core\los_task.c **** 
 401:C:/Users/²Ü¼ÒºÀ/.iotlink/sdk/IoT_LINK/iot_link/os/liteos/base/core\los_task.c **** #if (LOSCFG_BASE_CORE_CPUP == YES)
 402:C:/Users/²Ü¼ÒºÀ/.iotlink/sdk/IoT_LINK/iot_link/os/liteos/base/core\los_task.c ****     pstCpu = (CPUP_INFO_S *)LOS_MemAlloc((VOID *)OS_SYS_MEM_ADDR, sizeof(CPUP_INFO_S) * g_uwTskMaxN
 403:C:/Users/²Ü¼ÒºÀ/.iotlink/sdk/IoT_LINK/iot_link/os/liteos/base/core\los_task.c ****     if (pstCpu == NULL)
 404:C:/Users/²Ü¼ÒºÀ/.iotlink/sdk/IoT_LINK/iot_link/os/liteos/base/core\los_task.c ****     {
 405:C:/Users/²Ü¼ÒºÀ/.iotlink/sdk/IoT_LINK/iot_link/os/liteos/base/core\los_task.c ****         PRINT_ERR("%s[%d] malloc failure!\n", __FUNCTION__, __LINE__);/*lint !e515*/
 406:C:/Users/²Ü¼ÒºÀ/.iotlink/sdk/IoT_LINK/iot_link/os/liteos/base/core\los_task.c ****         return OS_ERROR;
 407:C:/Users/²Ü¼ÒºÀ/.iotlink/sdk/IoT_LINK/iot_link/os/liteos/base/core\los_task.c ****     }
 408:C:/Users/²Ü¼ÒºÀ/.iotlink/sdk/IoT_LINK/iot_link/os/liteos/base/core\los_task.c ****     (VOID)memset((VOID *)pstCpu, (int)0, sizeof(CPUP_INFO_S) * g_uwTskMaxNum);
 409:C:/Users/²Ü¼ÒºÀ/.iotlink/sdk/IoT_LINK/iot_link/os/liteos/base/core\los_task.c **** 
 410:C:/Users/²Ü¼ÒºÀ/.iotlink/sdk/IoT_LINK/iot_link/os/liteos/base/core\los_task.c ****     pstCpu10s = (CPUP_INFO_S *)LOS_MemAlloc((VOID *)OS_SYS_MEM_ADDR, sizeof(CPUP_INFO_S) * g_uwTskM
 411:C:/Users/²Ü¼ÒºÀ/.iotlink/sdk/IoT_LINK/iot_link/os/liteos/base/core\los_task.c ****     if (pstCpu10s == NULL)
 412:C:/Users/²Ü¼ÒºÀ/.iotlink/sdk/IoT_LINK/iot_link/os/liteos/base/core\los_task.c ****     {
 413:C:/Users/²Ü¼ÒºÀ/.iotlink/sdk/IoT_LINK/iot_link/os/liteos/base/core\los_task.c ****         PRINT_ERR("%s[%d] malloc failure!\n", __FUNCTION__, __LINE__);/*lint !e515*/
 414:C:/Users/²Ü¼ÒºÀ/.iotlink/sdk/IoT_LINK/iot_link/os/liteos/base/core\los_task.c ****         (VOID)LOS_MemFree((VOID *)OS_SYS_MEM_ADDR, pstCpu);
 415:C:/Users/²Ü¼ÒºÀ/.iotlink/sdk/IoT_LINK/iot_link/os/liteos/base/core\los_task.c ****         return OS_ERROR;
 416:C:/Users/²Ü¼ÒºÀ/.iotlink/sdk/IoT_LINK/iot_link/os/liteos/base/core\los_task.c ****     }
 417:C:/Users/²Ü¼ÒºÀ/.iotlink/sdk/IoT_LINK/iot_link/os/liteos/base/core\los_task.c ****     (VOID)memset((VOID *)pstCpu10s, (int)0, sizeof(CPUP_INFO_S) * g_uwTskMaxNum);
 418:C:/Users/²Ü¼ÒºÀ/.iotlink/sdk/IoT_LINK/iot_link/os/liteos/base/core\los_task.c **** 
 419:C:/Users/²Ü¼ÒºÀ/.iotlink/sdk/IoT_LINK/iot_link/os/liteos/base/core\los_task.c ****     pstCpu1s = (CPUP_INFO_S *)LOS_MemAlloc((VOID *)OS_SYS_MEM_ADDR, sizeof(CPUP_INFO_S) * g_uwTskMa
 420:C:/Users/²Ü¼ÒºÀ/.iotlink/sdk/IoT_LINK/iot_link/os/liteos/base/core\los_task.c ****     if (pstCpu1s == NULL)
 421:C:/Users/²Ü¼ÒºÀ/.iotlink/sdk/IoT_LINK/iot_link/os/liteos/base/core\los_task.c ****     {
 422:C:/Users/²Ü¼ÒºÀ/.iotlink/sdk/IoT_LINK/iot_link/os/liteos/base/core\los_task.c ****         PRINT_ERR("%s[%d] malloc failure!\n", __FUNCTION__, __LINE__);/*lint !e515*/
 423:C:/Users/²Ü¼ÒºÀ/.iotlink/sdk/IoT_LINK/iot_link/os/liteos/base/core\los_task.c ****         (VOID)LOS_MemFree((VOID *)OS_SYS_MEM_ADDR, pstCpu);
 424:C:/Users/²Ü¼ÒºÀ/.iotlink/sdk/IoT_LINK/iot_link/os/liteos/base/core\los_task.c ****         (VOID)LOS_MemFree((VOID *)OS_SYS_MEM_ADDR, pstCpu10s);
 425:C:/Users/²Ü¼ÒºÀ/.iotlink/sdk/IoT_LINK/iot_link/os/liteos/base/core\los_task.c ****         return OS_ERROR;
 426:C:/Users/²Ü¼ÒºÀ/.iotlink/sdk/IoT_LINK/iot_link/os/liteos/base/core\los_task.c ****     }
 427:C:/Users/²Ü¼ÒºÀ/.iotlink/sdk/IoT_LINK/iot_link/os/liteos/base/core\los_task.c ****     (VOID)memset((VOID *)pstCpu1s, (int)0, sizeof(CPUP_INFO_S) * g_uwTskMaxNum);
 428:C:/Users/²Ü¼ÒºÀ/.iotlink/sdk/IoT_LINK/iot_link/os/liteos/base/core\los_task.c **** 
 429:C:/Users/²Ü¼ÒºÀ/.iotlink/sdk/IoT_LINK/iot_link/os/liteos/base/core\los_task.c ****     LOS_TaskLock();
 430:C:/Users/²Ü¼ÒºÀ/.iotlink/sdk/IoT_LINK/iot_link/os/liteos/base/core\los_task.c ****     (VOID)LOS_AllTaskCpuUsage(g_uwTskMaxNum, pstCpu, 0xffff);
 431:C:/Users/²Ü¼ÒºÀ/.iotlink/sdk/IoT_LINK/iot_link/os/liteos/base/core\los_task.c ****     (VOID)LOS_AllTaskCpuUsage(g_uwTskMaxNum, pstCpu10s, 0);
 432:C:/Users/²Ü¼ÒºÀ/.iotlink/sdk/IoT_LINK/iot_link/os/liteos/base/core\los_task.c ****     (VOID)LOS_AllTaskCpuUsage(g_uwTskMaxNum, pstCpu1s, 1);
 433:C:/Users/²Ü¼ÒºÀ/.iotlink/sdk/IoT_LINK/iot_link/os/liteos/base/core\los_task.c ****     LOS_TaskUnlock();
 434:C:/Users/²Ü¼ÒºÀ/.iotlink/sdk/IoT_LINK/iot_link/os/liteos/base/core\los_task.c **** #endif
 435:C:/Users/²Ü¼ÒºÀ/.iotlink/sdk/IoT_LINK/iot_link/os/liteos/base/core\los_task.c **** 
 436:C:/Users/²Ü¼ÒºÀ/.iotlink/sdk/IoT_LINK/iot_link/os/liteos/base/core\los_task.c ****     PRINTK("\r\nName            TID    Priority   Status       StackSize    WaterLine    StackPoint
 437:C:/Users/²Ü¼ÒºÀ/.iotlink/sdk/IoT_LINK/iot_link/os/liteos/base/core\los_task.c **** #if (LOSCFG_BASE_CORE_CPUP == YES)
 438:C:/Users/²Ü¼ÒºÀ/.iotlink/sdk/IoT_LINK/iot_link/os/liteos/base/core\los_task.c ****     PRINT_ERR(" CPUUSE   CPUUSE10s  CPUUSE1s  ");/*lint !e515*/
 439:C:/Users/²Ü¼ÒºÀ/.iotlink/sdk/IoT_LINK/iot_link/os/liteos/base/core\los_task.c **** #endif /* LOSCFG_BASE_CORE_CPUP */
 440:C:/Users/²Ü¼ÒºÀ/.iotlink/sdk/IoT_LINK/iot_link/os/liteos/base/core\los_task.c ****     PRINTK("\n\r");/*lint !e515*/
 441:C:/Users/²Ü¼ÒºÀ/.iotlink/sdk/IoT_LINK/iot_link/os/liteos/base/core\los_task.c ****     PRINTK("----            ---    --------   --------     ---------    ----------   ----------  --
 442:C:/Users/²Ü¼ÒºÀ/.iotlink/sdk/IoT_LINK/iot_link/os/liteos/base/core\los_task.c **** #if (LOSCFG_BASE_CORE_CPUP == YES)
 443:C:/Users/²Ü¼ÒºÀ/.iotlink/sdk/IoT_LINK/iot_link/os/liteos/base/core\los_task.c ****     PRINT_ERR("  ------- ---------  ---------");/*lint !e515*/
 444:C:/Users/²Ü¼ÒºÀ/.iotlink/sdk/IoT_LINK/iot_link/os/liteos/base/core\los_task.c **** #endif /* LOSCFG_BASE_CORE_CPUP */
 445:C:/Users/²Ü¼ÒºÀ/.iotlink/sdk/IoT_LINK/iot_link/os/liteos/base/core\los_task.c ****     PRINTK("\n\r");/*lint !e515*/
 446:C:/Users/²Ü¼ÒºÀ/.iotlink/sdk/IoT_LINK/iot_link/os/liteos/base/core\los_task.c **** 
 447:C:/Users/²Ü¼ÒºÀ/.iotlink/sdk/IoT_LINK/iot_link/os/liteos/base/core\los_task.c ****     for (uwLoop = 0; uwLoop < g_uwTskMaxNum; uwLoop++)
 448:C:/Users/²Ü¼ÒºÀ/.iotlink/sdk/IoT_LINK/iot_link/os/liteos/base/core\los_task.c ****     {
ARM GAS  C:\Users\²Ü¼ÒºÀ\AppData\Local\Temp\ccOngKk7.s 			page 14


 449:C:/Users/²Ü¼ÒºÀ/.iotlink/sdk/IoT_LINK/iot_link/os/liteos/base/core\los_task.c ****         //uvIntSave = LOS_IntLock();
 450:C:/Users/²Ü¼ÒºÀ/.iotlink/sdk/IoT_LINK/iot_link/os/liteos/base/core\los_task.c ****         pstTaskCB = OS_TCB_FROM_TID(uwLoop);
 451:C:/Users/²Ü¼ÒºÀ/.iotlink/sdk/IoT_LINK/iot_link/os/liteos/base/core\los_task.c ****         if (pstTaskCB->usTaskStatus & OS_TASK_STATUS_UNUSED)
 452:C:/Users/²Ü¼ÒºÀ/.iotlink/sdk/IoT_LINK/iot_link/os/liteos/base/core\los_task.c ****         {
 453:C:/Users/²Ü¼ÒºÀ/.iotlink/sdk/IoT_LINK/iot_link/os/liteos/base/core\los_task.c ****             //LOS_IntRestore(uvIntSave);
 454:C:/Users/²Ü¼ÒºÀ/.iotlink/sdk/IoT_LINK/iot_link/os/liteos/base/core\los_task.c ****             continue;
 455:C:/Users/²Ü¼ÒºÀ/.iotlink/sdk/IoT_LINK/iot_link/os/liteos/base/core\los_task.c ****         }
 456:C:/Users/²Ü¼ÒºÀ/.iotlink/sdk/IoT_LINK/iot_link/os/liteos/base/core\los_task.c **** 
 457:C:/Users/²Ü¼ÒºÀ/.iotlink/sdk/IoT_LINK/iot_link/os/liteos/base/core\los_task.c ****         PRINTK("%-16s0x%-5x%-11d%-13s0x%-11x0x%-11x0x%-10x0x%-11x0x%-9x",
 458:C:/Users/²Ü¼ÒºÀ/.iotlink/sdk/IoT_LINK/iot_link/os/liteos/base/core\los_task.c ****                           pstTaskCB->pcTaskName,
 459:C:/Users/²Ü¼ÒºÀ/.iotlink/sdk/IoT_LINK/iot_link/os/liteos/base/core\los_task.c ****                           pstTaskCB->uwTaskID,
 460:C:/Users/²Ü¼ÒºÀ/.iotlink/sdk/IoT_LINK/iot_link/os/liteos/base/core\los_task.c ****                           pstTaskCB->usPriority,
 461:C:/Users/²Ü¼ÒºÀ/.iotlink/sdk/IoT_LINK/iot_link/os/liteos/base/core\los_task.c ****                           osConvertTskStatus(pstTaskCB->usTaskStatus),
 462:C:/Users/²Ü¼ÒºÀ/.iotlink/sdk/IoT_LINK/iot_link/os/liteos/base/core\los_task.c ****                           pstTaskCB->uwStackSize,
 463:C:/Users/²Ü¼ÒºÀ/.iotlink/sdk/IoT_LINK/iot_link/os/liteos/base/core\los_task.c ****                           osGetTaskWaterLine(pstTaskCB->uwTaskID),
 464:C:/Users/²Ü¼ÒºÀ/.iotlink/sdk/IoT_LINK/iot_link/os/liteos/base/core\los_task.c ****                           (UINT32)pstTaskCB->pStackPointer,
 465:C:/Users/²Ü¼ÒºÀ/.iotlink/sdk/IoT_LINK/iot_link/os/liteos/base/core\los_task.c ****                           pstTaskCB->uwTopOfStack,
 466:C:/Users/²Ü¼ÒºÀ/.iotlink/sdk/IoT_LINK/iot_link/os/liteos/base/core\los_task.c ****                           pstTaskCB->uwEventMask);/*lint !e515*/
 467:C:/Users/²Ü¼ÒºÀ/.iotlink/sdk/IoT_LINK/iot_link/os/liteos/base/core\los_task.c **** 
 468:C:/Users/²Ü¼ÒºÀ/.iotlink/sdk/IoT_LINK/iot_link/os/liteos/base/core\los_task.c ****         if (pstTaskCB->pTaskSem != NULL)
 469:C:/Users/²Ü¼ÒºÀ/.iotlink/sdk/IoT_LINK/iot_link/os/liteos/base/core\los_task.c ****         {
 470:C:/Users/²Ü¼ÒºÀ/.iotlink/sdk/IoT_LINK/iot_link/os/liteos/base/core\los_task.c ****             PRINTK("0x%-7x", ((SEM_CB_S *)pstTaskCB->pTaskSem)->usSemID);/*lint !e516*/
 471:C:/Users/²Ü¼ÒºÀ/.iotlink/sdk/IoT_LINK/iot_link/os/liteos/base/core\los_task.c ****         }
 472:C:/Users/²Ü¼ÒºÀ/.iotlink/sdk/IoT_LINK/iot_link/os/liteos/base/core\los_task.c ****         else
 473:C:/Users/²Ü¼ÒºÀ/.iotlink/sdk/IoT_LINK/iot_link/os/liteos/base/core\los_task.c ****         {
 474:C:/Users/²Ü¼ÒºÀ/.iotlink/sdk/IoT_LINK/iot_link/os/liteos/base/core\los_task.c ****             PRINTK("0x%-7x", 0xFFFF);
 475:C:/Users/²Ü¼ÒºÀ/.iotlink/sdk/IoT_LINK/iot_link/os/liteos/base/core\los_task.c ****         }
 476:C:/Users/²Ü¼ÒºÀ/.iotlink/sdk/IoT_LINK/iot_link/os/liteos/base/core\los_task.c **** 
 477:C:/Users/²Ü¼ÒºÀ/.iotlink/sdk/IoT_LINK/iot_link/os/liteos/base/core\los_task.c **** #if (LOSCFG_BASE_CORE_CPUP == YES)
 478:C:/Users/²Ü¼ÒºÀ/.iotlink/sdk/IoT_LINK/iot_link/os/liteos/base/core\los_task.c ****         PRINT_ERR("%2d.%-7d"
 479:C:/Users/²Ü¼ÒºÀ/.iotlink/sdk/IoT_LINK/iot_link/os/liteos/base/core\los_task.c ****                           "%2d.%-9d"
 480:C:/Users/²Ü¼ÒºÀ/.iotlink/sdk/IoT_LINK/iot_link/os/liteos/base/core\los_task.c ****                           "%2d.%-6d",
 481:C:/Users/²Ü¼ÒºÀ/.iotlink/sdk/IoT_LINK/iot_link/os/liteos/base/core\los_task.c ****                           pstCpu[pstTaskCB->uwTaskID].uwUsage / LOS_CPUP_PRECISION_MULT,
 482:C:/Users/²Ü¼ÒºÀ/.iotlink/sdk/IoT_LINK/iot_link/os/liteos/base/core\los_task.c ****                           pstCpu[pstTaskCB->uwTaskID].uwUsage % LOS_CPUP_PRECISION_MULT,
 483:C:/Users/²Ü¼ÒºÀ/.iotlink/sdk/IoT_LINK/iot_link/os/liteos/base/core\los_task.c ****                           pstCpu10s[pstTaskCB->uwTaskID].uwUsage / LOS_CPUP_PRECISION_MULT,
 484:C:/Users/²Ü¼ÒºÀ/.iotlink/sdk/IoT_LINK/iot_link/os/liteos/base/core\los_task.c ****                           pstCpu10s[pstTaskCB->uwTaskID].uwUsage % LOS_CPUP_PRECISION_MULT,
 485:C:/Users/²Ü¼ÒºÀ/.iotlink/sdk/IoT_LINK/iot_link/os/liteos/base/core\los_task.c ****                           pstCpu1s[pstTaskCB->uwTaskID].uwUsage / LOS_CPUP_PRECISION_MULT,
 486:C:/Users/²Ü¼ÒºÀ/.iotlink/sdk/IoT_LINK/iot_link/os/liteos/base/core\los_task.c ****                           pstCpu1s[pstTaskCB->uwTaskID].uwUsage % LOS_CPUP_PRECISION_MULT);/*lint !
 487:C:/Users/²Ü¼ÒºÀ/.iotlink/sdk/IoT_LINK/iot_link/os/liteos/base/core\los_task.c **** #endif /* LOSCFG_BASE_CORE_CPUP */
 488:C:/Users/²Ü¼ÒºÀ/.iotlink/sdk/IoT_LINK/iot_link/os/liteos/base/core\los_task.c ****         PRINTK("\r\n");/*lint !e515*/
 489:C:/Users/²Ü¼ÒºÀ/.iotlink/sdk/IoT_LINK/iot_link/os/liteos/base/core\los_task.c ****     }
 490:C:/Users/²Ü¼ÒºÀ/.iotlink/sdk/IoT_LINK/iot_link/os/liteos/base/core\los_task.c **** 
 491:C:/Users/²Ü¼ÒºÀ/.iotlink/sdk/IoT_LINK/iot_link/os/liteos/base/core\los_task.c **** #if (LOSCFG_BASE_CORE_CPUP == YES)
 492:C:/Users/²Ü¼ÒºÀ/.iotlink/sdk/IoT_LINK/iot_link/os/liteos/base/core\los_task.c ****     (VOID)LOS_MemFree((VOID *)OS_SYS_MEM_ADDR, pstCpu);
 493:C:/Users/²Ü¼ÒºÀ/.iotlink/sdk/IoT_LINK/iot_link/os/liteos/base/core\los_task.c ****     (VOID)LOS_MemFree((VOID *)OS_SYS_MEM_ADDR, pstCpu10s);
 494:C:/Users/²Ü¼ÒºÀ/.iotlink/sdk/IoT_LINK/iot_link/os/liteos/base/core\los_task.c ****     (VOID)LOS_MemFree((VOID *)OS_SYS_MEM_ADDR, pstCpu1s);
 495:C:/Users/²Ü¼ÒºÀ/.iotlink/sdk/IoT_LINK/iot_link/os/liteos/base/core\los_task.c **** #endif
 496:C:/Users/²Ü¼ÒºÀ/.iotlink/sdk/IoT_LINK/iot_link/os/liteos/base/core\los_task.c **** 
 497:C:/Users/²Ü¼ÒºÀ/.iotlink/sdk/IoT_LINK/iot_link/os/liteos/base/core\los_task.c ****     return LOS_OK;
 498:C:/Users/²Ü¼ÒºÀ/.iotlink/sdk/IoT_LINK/iot_link/os/liteos/base/core\los_task.c **** }
 499:C:/Users/²Ü¼ÒºÀ/.iotlink/sdk/IoT_LINK/iot_link/os/liteos/base/core\los_task.c **** 
 500:C:/Users/²Ü¼ÒºÀ/.iotlink/sdk/IoT_LINK/iot_link/os/liteos/base/core\los_task.c **** /*****************************************************************************
 501:C:/Users/²Ü¼ÒºÀ/.iotlink/sdk/IoT_LINK/iot_link/os/liteos/base/core\los_task.c ****  Function : osTaskInit
 502:C:/Users/²Ü¼ÒºÀ/.iotlink/sdk/IoT_LINK/iot_link/os/liteos/base/core\los_task.c ****  Description : Task init function.
 503:C:/Users/²Ü¼ÒºÀ/.iotlink/sdk/IoT_LINK/iot_link/os/liteos/base/core\los_task.c ****  Input       : None
 504:C:/Users/²Ü¼ÒºÀ/.iotlink/sdk/IoT_LINK/iot_link/os/liteos/base/core\los_task.c ****  Output      : None
 505:C:/Users/²Ü¼ÒºÀ/.iotlink/sdk/IoT_LINK/iot_link/os/liteos/base/core\los_task.c ****  Return      : LOS_OK on success or error code on failure
ARM GAS  C:\Users\²Ü¼ÒºÀ\AppData\Local\Temp\ccOngKk7.s 			page 15


 506:C:/Users/²Ü¼ÒºÀ/.iotlink/sdk/IoT_LINK/iot_link/os/liteos/base/core\los_task.c ****  *****************************************************************************/
 507:C:/Users/²Ü¼ÒºÀ/.iotlink/sdk/IoT_LINK/iot_link/os/liteos/base/core\los_task.c **** LITE_OS_SEC_TEXT_INIT UINT32 osTaskInit(VOID)
 508:C:/Users/²Ü¼ÒºÀ/.iotlink/sdk/IoT_LINK/iot_link/os/liteos/base/core\los_task.c **** {
 509:C:/Users/²Ü¼ÒºÀ/.iotlink/sdk/IoT_LINK/iot_link/os/liteos/base/core\los_task.c ****     UINT32 uwSize;
 510:C:/Users/²Ü¼ÒºÀ/.iotlink/sdk/IoT_LINK/iot_link/os/liteos/base/core\los_task.c ****     UINT32 uwIndex;
 511:C:/Users/²Ü¼ÒºÀ/.iotlink/sdk/IoT_LINK/iot_link/os/liteos/base/core\los_task.c ****     LOS_DL_LIST *pstListObject;
 512:C:/Users/²Ü¼ÒºÀ/.iotlink/sdk/IoT_LINK/iot_link/os/liteos/base/core\los_task.c **** 
 513:C:/Users/²Ü¼ÒºÀ/.iotlink/sdk/IoT_LINK/iot_link/os/liteos/base/core\los_task.c **** #if (LOSCFG_STATIC_TASK == NO)
 514:C:/Users/²Ü¼ÒºÀ/.iotlink/sdk/IoT_LINK/iot_link/os/liteos/base/core\los_task.c **** 
 515:C:/Users/²Ü¼ÒºÀ/.iotlink/sdk/IoT_LINK/iot_link/os/liteos/base/core\los_task.c ****     /*
 516:C:/Users/²Ü¼ÒºÀ/.iotlink/sdk/IoT_LINK/iot_link/os/liteos/base/core\los_task.c ****      * allocate (g_uwTskMaxNum + 1) tcbs because, LOS_TaskDelete will use g_pstTaskCBArray [g_uwTsk
 517:C:/Users/²Ü¼ÒºÀ/.iotlink/sdk/IoT_LINK/iot_link/os/liteos/base/core\los_task.c ****      */
 518:C:/Users/²Ü¼ÒºÀ/.iotlink/sdk/IoT_LINK/iot_link/os/liteos/base/core\los_task.c **** 
 519:C:/Users/²Ü¼ÒºÀ/.iotlink/sdk/IoT_LINK/iot_link/os/liteos/base/core\los_task.c ****     uwSize = (g_uwTskMaxNum + 1) * sizeof(LOS_TASK_CB);
 520:C:/Users/²Ü¼ÒºÀ/.iotlink/sdk/IoT_LINK/iot_link/os/liteos/base/core\los_task.c ****     g_pstTaskCBArray = (LOS_TASK_CB *)LOS_MemAlloc(m_aucSysMem0, uwSize);
 521:C:/Users/²Ü¼ÒºÀ/.iotlink/sdk/IoT_LINK/iot_link/os/liteos/base/core\los_task.c ****     if (NULL == g_pstTaskCBArray)
 522:C:/Users/²Ü¼ÒºÀ/.iotlink/sdk/IoT_LINK/iot_link/os/liteos/base/core\los_task.c ****     {
 523:C:/Users/²Ü¼ÒºÀ/.iotlink/sdk/IoT_LINK/iot_link/os/liteos/base/core\los_task.c ****         return LOS_ERRNO_TSK_NO_MEMORY;
 524:C:/Users/²Ü¼ÒºÀ/.iotlink/sdk/IoT_LINK/iot_link/os/liteos/base/core\los_task.c ****     }
 525:C:/Users/²Ü¼ÒºÀ/.iotlink/sdk/IoT_LINK/iot_link/os/liteos/base/core\los_task.c **** 
 526:C:/Users/²Ü¼ÒºÀ/.iotlink/sdk/IoT_LINK/iot_link/os/liteos/base/core\los_task.c ****     (VOID)memset(g_pstTaskCBArray, 0, uwSize);
 527:C:/Users/²Ü¼ÒºÀ/.iotlink/sdk/IoT_LINK/iot_link/os/liteos/base/core\los_task.c ****     LOS_ListInit(&g_stTaskTimerList);
 528:C:/Users/²Ü¼ÒºÀ/.iotlink/sdk/IoT_LINK/iot_link/os/liteos/base/core\los_task.c ****     LOS_ListInit(&g_stLosFreeTask);
 529:C:/Users/²Ü¼ÒºÀ/.iotlink/sdk/IoT_LINK/iot_link/os/liteos/base/core\los_task.c ****     LOS_ListInit(&g_stTskRecyleList);
 530:C:/Users/²Ü¼ÒºÀ/.iotlink/sdk/IoT_LINK/iot_link/os/liteos/base/core\los_task.c ****     for (uwIndex = 0; uwIndex <= LOSCFG_BASE_CORE_TSK_LIMIT; uwIndex++)
 531:C:/Users/²Ü¼ÒºÀ/.iotlink/sdk/IoT_LINK/iot_link/os/liteos/base/core\los_task.c ****     {
 532:C:/Users/²Ü¼ÒºÀ/.iotlink/sdk/IoT_LINK/iot_link/os/liteos/base/core\los_task.c ****         g_pstTaskCBArray[uwIndex].usTaskStatus = OS_TASK_STATUS_UNUSED;
 533:C:/Users/²Ü¼ÒºÀ/.iotlink/sdk/IoT_LINK/iot_link/os/liteos/base/core\los_task.c ****         g_pstTaskCBArray[uwIndex].uwTaskID = uwIndex;
 534:C:/Users/²Ü¼ÒºÀ/.iotlink/sdk/IoT_LINK/iot_link/os/liteos/base/core\los_task.c ****         LOS_ListTailInsert(&g_stLosFreeTask, &g_pstTaskCBArray[uwIndex].stPendList);
 535:C:/Users/²Ü¼ÒºÀ/.iotlink/sdk/IoT_LINK/iot_link/os/liteos/base/core\los_task.c ****     }
 536:C:/Users/²Ü¼ÒºÀ/.iotlink/sdk/IoT_LINK/iot_link/os/liteos/base/core\los_task.c **** 
 537:C:/Users/²Ü¼ÒºÀ/.iotlink/sdk/IoT_LINK/iot_link/os/liteos/base/core\los_task.c ****     (VOID)memset((VOID *)(&g_stLosTask), 0, sizeof(g_stLosTask));
 538:C:/Users/²Ü¼ÒºÀ/.iotlink/sdk/IoT_LINK/iot_link/os/liteos/base/core\los_task.c **** 
 539:C:/Users/²Ü¼ÒºÀ/.iotlink/sdk/IoT_LINK/iot_link/os/liteos/base/core\los_task.c ****     /*
 540:C:/Users/²Ü¼ÒºÀ/.iotlink/sdk/IoT_LINK/iot_link/os/liteos/base/core\los_task.c ****      * g_stLosTask->pstRunTask will be overided by pstRunTask->pstNewTask
 541:C:/Users/²Ü¼ÒºÀ/.iotlink/sdk/IoT_LINK/iot_link/os/liteos/base/core\los_task.c ****      * in LOS_StartToRun, needless give pstRunTask a initialize value
 542:C:/Users/²Ü¼ÒºÀ/.iotlink/sdk/IoT_LINK/iot_link/os/liteos/base/core\los_task.c ****      */
 543:C:/Users/²Ü¼ÒºÀ/.iotlink/sdk/IoT_LINK/iot_link/os/liteos/base/core\los_task.c **** #endif
 544:C:/Users/²Ü¼ÒºÀ/.iotlink/sdk/IoT_LINK/iot_link/os/liteos/base/core\los_task.c **** 
 545:C:/Users/²Ü¼ÒºÀ/.iotlink/sdk/IoT_LINK/iot_link/os/liteos/base/core\los_task.c ****     osPriqueueInit();
 546:C:/Users/²Ü¼ÒºÀ/.iotlink/sdk/IoT_LINK/iot_link/os/liteos/base/core\los_task.c ****     uwSize = sizeof(LOS_DL_LIST) * OS_TSK_SORTLINK_LEN;
 547:C:/Users/²Ü¼ÒºÀ/.iotlink/sdk/IoT_LINK/iot_link/os/liteos/base/core\los_task.c ****     pstListObject = (LOS_DL_LIST *)LOS_MemAlloc(m_aucSysMem0, uwSize);
 548:C:/Users/²Ü¼ÒºÀ/.iotlink/sdk/IoT_LINK/iot_link/os/liteos/base/core\los_task.c ****     if (NULL == pstListObject)
 549:C:/Users/²Ü¼ÒºÀ/.iotlink/sdk/IoT_LINK/iot_link/os/liteos/base/core\los_task.c ****     {
 550:C:/Users/²Ü¼ÒºÀ/.iotlink/sdk/IoT_LINK/iot_link/os/liteos/base/core\los_task.c ****         return LOS_ERRNO_TSK_NO_MEMORY;
 551:C:/Users/²Ü¼ÒºÀ/.iotlink/sdk/IoT_LINK/iot_link/os/liteos/base/core\los_task.c ****     }
 552:C:/Users/²Ü¼ÒºÀ/.iotlink/sdk/IoT_LINK/iot_link/os/liteos/base/core\los_task.c **** 
 553:C:/Users/²Ü¼ÒºÀ/.iotlink/sdk/IoT_LINK/iot_link/os/liteos/base/core\los_task.c ****     (VOID)memset((VOID *)pstListObject, 0, uwSize);
 554:C:/Users/²Ü¼ÒºÀ/.iotlink/sdk/IoT_LINK/iot_link/os/liteos/base/core\los_task.c ****     g_stTskSortLink.pstSortLink = pstListObject;
 555:C:/Users/²Ü¼ÒºÀ/.iotlink/sdk/IoT_LINK/iot_link/os/liteos/base/core\los_task.c ****     g_stTskSortLink.usCursor = 0;
 556:C:/Users/²Ü¼ÒºÀ/.iotlink/sdk/IoT_LINK/iot_link/os/liteos/base/core\los_task.c ****     for (uwIndex = 0; uwIndex < OS_TSK_SORTLINK_LEN; uwIndex++, pstListObject++)
 557:C:/Users/²Ü¼ÒºÀ/.iotlink/sdk/IoT_LINK/iot_link/os/liteos/base/core\los_task.c ****     {
 558:C:/Users/²Ü¼ÒºÀ/.iotlink/sdk/IoT_LINK/iot_link/os/liteos/base/core\los_task.c ****         LOS_ListInit(pstListObject);
 559:C:/Users/²Ü¼ÒºÀ/.iotlink/sdk/IoT_LINK/iot_link/os/liteos/base/core\los_task.c ****     }
 560:C:/Users/²Ü¼ÒºÀ/.iotlink/sdk/IoT_LINK/iot_link/os/liteos/base/core\los_task.c **** 
 561:C:/Users/²Ü¼ÒºÀ/.iotlink/sdk/IoT_LINK/iot_link/os/liteos/base/core\los_task.c **** #if ((LOSCFG_PLATFORM_EXC == YES) && (LOSCFG_SAVE_EXC_INFO == YES))
 562:C:/Users/²Ü¼ÒºÀ/.iotlink/sdk/IoT_LINK/iot_link/os/liteos/base/core\los_task.c ****     osExcRegister((EXC_INFO_TYPE)OS_EXC_TYPE_TSK, (EXC_INFO_SAVE_CALLBACK)LOS_TaskInfoGet, &g_uwTsk
ARM GAS  C:\Users\²Ü¼ÒºÀ\AppData\Local\Temp\ccOngKk7.s 			page 16


 563:C:/Users/²Ü¼ÒºÀ/.iotlink/sdk/IoT_LINK/iot_link/os/liteos/base/core\los_task.c **** #endif
 564:C:/Users/²Ü¼ÒºÀ/.iotlink/sdk/IoT_LINK/iot_link/os/liteos/base/core\los_task.c **** 
 565:C:/Users/²Ü¼ÒºÀ/.iotlink/sdk/IoT_LINK/iot_link/os/liteos/base/core\los_task.c **** #if (LOSCFG_LIB_LIBC_NEWLIB_REENT == YES)
 566:C:/Users/²Ü¼ÒºÀ/.iotlink/sdk/IoT_LINK/iot_link/os/liteos/base/core\los_task.c ****     extern LITE_OS_SEC_TEXT VOID osTaskSwitchImpurePtr(VOID);
 567:C:/Users/²Ü¼ÒºÀ/.iotlink/sdk/IoT_LINK/iot_link/os/liteos/base/core\los_task.c ****     g_pfnTskSwitchImpurePtrHook = osTaskSwitchImpurePtr;
 568:C:/Users/²Ü¼ÒºÀ/.iotlink/sdk/IoT_LINK/iot_link/os/liteos/base/core\los_task.c **** #endif
 569:C:/Users/²Ü¼ÒºÀ/.iotlink/sdk/IoT_LINK/iot_link/os/liteos/base/core\los_task.c ****     return LOS_OK;
 570:C:/Users/²Ü¼ÒºÀ/.iotlink/sdk/IoT_LINK/iot_link/os/liteos/base/core\los_task.c **** }
 571:C:/Users/²Ü¼ÒºÀ/.iotlink/sdk/IoT_LINK/iot_link/os/liteos/base/core\los_task.c **** 
 572:C:/Users/²Ü¼ÒºÀ/.iotlink/sdk/IoT_LINK/iot_link/os/liteos/base/core\los_task.c **** 
 573:C:/Users/²Ü¼ÒºÀ/.iotlink/sdk/IoT_LINK/iot_link/os/liteos/base/core\los_task.c **** #if (LOSCFG_STATIC_TASK == YES)
 574:C:/Users/²Ü¼ÒºÀ/.iotlink/sdk/IoT_LINK/iot_link/os/liteos/base/core\los_task.c **** LOS_TASK_DEF(idleTask, "IdleCore000", osIdleTask,
 575:C:/Users/²Ü¼ÒºÀ/.iotlink/sdk/IoT_LINK/iot_link/os/liteos/base/core\los_task.c ****     OS_TASK_PRIORITY_LOWEST, 0, LOSCFG_BASE_CORE_TSK_IDLE_STACK_SIZE, 0, NULL);
 576:C:/Users/²Ü¼ÒºÀ/.iotlink/sdk/IoT_LINK/iot_link/os/liteos/base/core\los_task.c **** #endif
 577:C:/Users/²Ü¼ÒºÀ/.iotlink/sdk/IoT_LINK/iot_link/os/liteos/base/core\los_task.c **** 
 578:C:/Users/²Ü¼ÒºÀ/.iotlink/sdk/IoT_LINK/iot_link/os/liteos/base/core\los_task.c **** 
 579:C:/Users/²Ü¼ÒºÀ/.iotlink/sdk/IoT_LINK/iot_link/os/liteos/base/core\los_task.c **** /*****************************************************************************
 580:C:/Users/²Ü¼ÒºÀ/.iotlink/sdk/IoT_LINK/iot_link/os/liteos/base/core\los_task.c ****  Function : osIdleTaskCreate
 581:C:/Users/²Ü¼ÒºÀ/.iotlink/sdk/IoT_LINK/iot_link/os/liteos/base/core\los_task.c ****  Description : Create idle task.
 582:C:/Users/²Ü¼ÒºÀ/.iotlink/sdk/IoT_LINK/iot_link/os/liteos/base/core\los_task.c ****  Input       : None
 583:C:/Users/²Ü¼ÒºÀ/.iotlink/sdk/IoT_LINK/iot_link/os/liteos/base/core\los_task.c ****  Output      : None
 584:C:/Users/²Ü¼ÒºÀ/.iotlink/sdk/IoT_LINK/iot_link/os/liteos/base/core\los_task.c ****  Return      : LOS_OK on success or error code on failure
 585:C:/Users/²Ü¼ÒºÀ/.iotlink/sdk/IoT_LINK/iot_link/os/liteos/base/core\los_task.c ****  *****************************************************************************/
 586:C:/Users/²Ü¼ÒºÀ/.iotlink/sdk/IoT_LINK/iot_link/os/liteos/base/core\los_task.c **** LITE_OS_SEC_TEXT_INIT UINT32 osIdleTaskCreate(VOID)
 587:C:/Users/²Ü¼ÒºÀ/.iotlink/sdk/IoT_LINK/iot_link/os/liteos/base/core\los_task.c **** {
 588:C:/Users/²Ü¼ÒºÀ/.iotlink/sdk/IoT_LINK/iot_link/os/liteos/base/core\los_task.c **** #if (LOSCFG_STATIC_TASK == NO)
 589:C:/Users/²Ü¼ÒºÀ/.iotlink/sdk/IoT_LINK/iot_link/os/liteos/base/core\los_task.c ****     UINT32 uwRet;
 590:C:/Users/²Ü¼ÒºÀ/.iotlink/sdk/IoT_LINK/iot_link/os/liteos/base/core\los_task.c ****     TSK_INIT_PARAM_S stTaskInitParam;
 591:C:/Users/²Ü¼ÒºÀ/.iotlink/sdk/IoT_LINK/iot_link/os/liteos/base/core\los_task.c **** 
 592:C:/Users/²Ü¼ÒºÀ/.iotlink/sdk/IoT_LINK/iot_link/os/liteos/base/core\los_task.c ****     (VOID)memset((VOID *)(&stTaskInitParam), 0, sizeof(TSK_INIT_PARAM_S));
 593:C:/Users/²Ü¼ÒºÀ/.iotlink/sdk/IoT_LINK/iot_link/os/liteos/base/core\los_task.c ****     stTaskInitParam.pfnTaskEntry = (TSK_ENTRY_FUNC)osIdleTask;
 594:C:/Users/²Ü¼ÒºÀ/.iotlink/sdk/IoT_LINK/iot_link/os/liteos/base/core\los_task.c ****     stTaskInitParam.uwStackSize = LOSCFG_BASE_CORE_TSK_IDLE_STACK_SIZE;
 595:C:/Users/²Ü¼ÒºÀ/.iotlink/sdk/IoT_LINK/iot_link/os/liteos/base/core\los_task.c ****     stTaskInitParam.pcName = "IdleCore000";
 596:C:/Users/²Ü¼ÒºÀ/.iotlink/sdk/IoT_LINK/iot_link/os/liteos/base/core\los_task.c ****     stTaskInitParam.usTaskPrio = OS_TASK_PRIORITY_LOWEST;
 597:C:/Users/²Ü¼ÒºÀ/.iotlink/sdk/IoT_LINK/iot_link/os/liteos/base/core\los_task.c ****     uwRet = LOS_TaskCreate(&g_uwIdleTaskID, &stTaskInitParam);
 598:C:/Users/²Ü¼ÒºÀ/.iotlink/sdk/IoT_LINK/iot_link/os/liteos/base/core\los_task.c **** 
 599:C:/Users/²Ü¼ÒºÀ/.iotlink/sdk/IoT_LINK/iot_link/os/liteos/base/core\los_task.c ****     if (uwRet != LOS_OK)
 600:C:/Users/²Ü¼ÒºÀ/.iotlink/sdk/IoT_LINK/iot_link/os/liteos/base/core\los_task.c ****     {
 601:C:/Users/²Ü¼ÒºÀ/.iotlink/sdk/IoT_LINK/iot_link/os/liteos/base/core\los_task.c ****         return uwRet;
 602:C:/Users/²Ü¼ÒºÀ/.iotlink/sdk/IoT_LINK/iot_link/os/liteos/base/core\los_task.c ****     }
 603:C:/Users/²Ü¼ÒºÀ/.iotlink/sdk/IoT_LINK/iot_link/os/liteos/base/core\los_task.c **** 
 604:C:/Users/²Ü¼ÒºÀ/.iotlink/sdk/IoT_LINK/iot_link/os/liteos/base/core\los_task.c ****     return LOS_OK;
 605:C:/Users/²Ü¼ÒºÀ/.iotlink/sdk/IoT_LINK/iot_link/os/liteos/base/core\los_task.c **** #else
 606:C:/Users/²Ü¼ÒºÀ/.iotlink/sdk/IoT_LINK/iot_link/os/liteos/base/core\los_task.c ****     return LOS_TASK_INIT(idleTask, &g_uwIdleTaskID);
 607:C:/Users/²Ü¼ÒºÀ/.iotlink/sdk/IoT_LINK/iot_link/os/liteos/base/core\los_task.c **** #endif
 608:C:/Users/²Ü¼ÒºÀ/.iotlink/sdk/IoT_LINK/iot_link/os/liteos/base/core\los_task.c **** }
 609:C:/Users/²Ü¼ÒºÀ/.iotlink/sdk/IoT_LINK/iot_link/os/liteos/base/core\los_task.c **** 
 610:C:/Users/²Ü¼ÒºÀ/.iotlink/sdk/IoT_LINK/iot_link/os/liteos/base/core\los_task.c **** /*****************************************************************************
 611:C:/Users/²Ü¼ÒºÀ/.iotlink/sdk/IoT_LINK/iot_link/os/liteos/base/core\los_task.c ****  Function : LOS_CurTaskIDGet
 612:C:/Users/²Ü¼ÒºÀ/.iotlink/sdk/IoT_LINK/iot_link/os/liteos/base/core\los_task.c ****  Description : get id of current running task.
 613:C:/Users/²Ü¼ÒºÀ/.iotlink/sdk/IoT_LINK/iot_link/os/liteos/base/core\los_task.c ****  Input       : None
 614:C:/Users/²Ü¼ÒºÀ/.iotlink/sdk/IoT_LINK/iot_link/os/liteos/base/core\los_task.c ****  Output      : None
 615:C:/Users/²Ü¼ÒºÀ/.iotlink/sdk/IoT_LINK/iot_link/os/liteos/base/core\los_task.c ****  Return      : task id
 616:C:/Users/²Ü¼ÒºÀ/.iotlink/sdk/IoT_LINK/iot_link/os/liteos/base/core\los_task.c ****  *****************************************************************************/
 617:C:/Users/²Ü¼ÒºÀ/.iotlink/sdk/IoT_LINK/iot_link/os/liteos/base/core\los_task.c **** LITE_OS_SEC_TEXT UINT32 LOS_CurTaskIDGet(VOID)
 618:C:/Users/²Ü¼ÒºÀ/.iotlink/sdk/IoT_LINK/iot_link/os/liteos/base/core\los_task.c **** {
 619:C:/Users/²Ü¼ÒºÀ/.iotlink/sdk/IoT_LINK/iot_link/os/liteos/base/core\los_task.c ****     if (NULL == g_stLosTask.pstRunTask)
ARM GAS  C:\Users\²Ü¼ÒºÀ\AppData\Local\Temp\ccOngKk7.s 			page 17


 620:C:/Users/²Ü¼ÒºÀ/.iotlink/sdk/IoT_LINK/iot_link/os/liteos/base/core\los_task.c ****     {
 621:C:/Users/²Ü¼ÒºÀ/.iotlink/sdk/IoT_LINK/iot_link/os/liteos/base/core\los_task.c ****         return LOS_ERRNO_TSK_ID_INVALID;
 622:C:/Users/²Ü¼ÒºÀ/.iotlink/sdk/IoT_LINK/iot_link/os/liteos/base/core\los_task.c ****     }
 623:C:/Users/²Ü¼ÒºÀ/.iotlink/sdk/IoT_LINK/iot_link/os/liteos/base/core\los_task.c ****     return g_stLosTask.pstRunTask->uwTaskID;
 624:C:/Users/²Ü¼ÒºÀ/.iotlink/sdk/IoT_LINK/iot_link/os/liteos/base/core\los_task.c **** }
 625:C:/Users/²Ü¼ÒºÀ/.iotlink/sdk/IoT_LINK/iot_link/os/liteos/base/core\los_task.c **** 
 626:C:/Users/²Ü¼ÒºÀ/.iotlink/sdk/IoT_LINK/iot_link/os/liteos/base/core\los_task.c **** /*****************************************************************************
 627:C:/Users/²Ü¼ÒºÀ/.iotlink/sdk/IoT_LINK/iot_link/os/liteos/base/core\los_task.c ****  Function : LOS_NextTaskIDGet
 628:C:/Users/²Ü¼ÒºÀ/.iotlink/sdk/IoT_LINK/iot_link/os/liteos/base/core\los_task.c ****  Description : get id of next running task.
 629:C:/Users/²Ü¼ÒºÀ/.iotlink/sdk/IoT_LINK/iot_link/os/liteos/base/core\los_task.c ****  Input       : None
 630:C:/Users/²Ü¼ÒºÀ/.iotlink/sdk/IoT_LINK/iot_link/os/liteos/base/core\los_task.c ****  Output      : None
 631:C:/Users/²Ü¼ÒºÀ/.iotlink/sdk/IoT_LINK/iot_link/os/liteos/base/core\los_task.c ****  Return      : task id
 632:C:/Users/²Ü¼ÒºÀ/.iotlink/sdk/IoT_LINK/iot_link/os/liteos/base/core\los_task.c ****  *****************************************************************************/
 633:C:/Users/²Ü¼ÒºÀ/.iotlink/sdk/IoT_LINK/iot_link/os/liteos/base/core\los_task.c **** LITE_OS_SEC_TEXT UINT32 LOS_NextTaskIDGet(VOID)
 634:C:/Users/²Ü¼ÒºÀ/.iotlink/sdk/IoT_LINK/iot_link/os/liteos/base/core\los_task.c **** {
 635:C:/Users/²Ü¼ÒºÀ/.iotlink/sdk/IoT_LINK/iot_link/os/liteos/base/core\los_task.c ****     if (NULL == g_stLosTask.pstNewTask)
 636:C:/Users/²Ü¼ÒºÀ/.iotlink/sdk/IoT_LINK/iot_link/os/liteos/base/core\los_task.c ****     {
 637:C:/Users/²Ü¼ÒºÀ/.iotlink/sdk/IoT_LINK/iot_link/os/liteos/base/core\los_task.c ****         return LOS_ERRNO_TSK_ID_INVALID;
 638:C:/Users/²Ü¼ÒºÀ/.iotlink/sdk/IoT_LINK/iot_link/os/liteos/base/core\los_task.c ****     }
 639:C:/Users/²Ü¼ÒºÀ/.iotlink/sdk/IoT_LINK/iot_link/os/liteos/base/core\los_task.c ****     return g_stLosTask.pstNewTask->uwTaskID;
 640:C:/Users/²Ü¼ÒºÀ/.iotlink/sdk/IoT_LINK/iot_link/os/liteos/base/core\los_task.c **** }
 641:C:/Users/²Ü¼ÒºÀ/.iotlink/sdk/IoT_LINK/iot_link/os/liteos/base/core\los_task.c **** 
 642:C:/Users/²Ü¼ÒºÀ/.iotlink/sdk/IoT_LINK/iot_link/os/liteos/base/core\los_task.c **** /*****************************************************************************
 643:C:/Users/²Ü¼ÒºÀ/.iotlink/sdk/IoT_LINK/iot_link/os/liteos/base/core\los_task.c ****  Function : LOS_CurTaskNameGet
 644:C:/Users/²Ü¼ÒºÀ/.iotlink/sdk/IoT_LINK/iot_link/os/liteos/base/core\los_task.c ****  Description : get name of current running task.
 645:C:/Users/²Ü¼ÒºÀ/.iotlink/sdk/IoT_LINK/iot_link/os/liteos/base/core\los_task.c ****  Input       : None
 646:C:/Users/²Ü¼ÒºÀ/.iotlink/sdk/IoT_LINK/iot_link/os/liteos/base/core\los_task.c ****  Output      : None
 647:C:/Users/²Ü¼ÒºÀ/.iotlink/sdk/IoT_LINK/iot_link/os/liteos/base/core\los_task.c ****  Return      : task name
 648:C:/Users/²Ü¼ÒºÀ/.iotlink/sdk/IoT_LINK/iot_link/os/liteos/base/core\los_task.c ****  *****************************************************************************/
 649:C:/Users/²Ü¼ÒºÀ/.iotlink/sdk/IoT_LINK/iot_link/os/liteos/base/core\los_task.c **** LITE_OS_SEC_TEXT CHAR *LOS_CurTaskNameGet(VOID)
 650:C:/Users/²Ü¼ÒºÀ/.iotlink/sdk/IoT_LINK/iot_link/os/liteos/base/core\los_task.c **** {
 651:C:/Users/²Ü¼ÒºÀ/.iotlink/sdk/IoT_LINK/iot_link/os/liteos/base/core\los_task.c ****     CHAR *pcTaskName = NULL;
 652:C:/Users/²Ü¼ÒºÀ/.iotlink/sdk/IoT_LINK/iot_link/os/liteos/base/core\los_task.c **** 
 653:C:/Users/²Ü¼ÒºÀ/.iotlink/sdk/IoT_LINK/iot_link/os/liteos/base/core\los_task.c ****     if (NULL != g_stLosTask.pstRunTask)
 654:C:/Users/²Ü¼ÒºÀ/.iotlink/sdk/IoT_LINK/iot_link/os/liteos/base/core\los_task.c ****     {
 655:C:/Users/²Ü¼ÒºÀ/.iotlink/sdk/IoT_LINK/iot_link/os/liteos/base/core\los_task.c ****         pcTaskName = g_stLosTask.pstRunTask->pcTaskName;
 656:C:/Users/²Ü¼ÒºÀ/.iotlink/sdk/IoT_LINK/iot_link/os/liteos/base/core\los_task.c ****     }
 657:C:/Users/²Ü¼ÒºÀ/.iotlink/sdk/IoT_LINK/iot_link/os/liteos/base/core\los_task.c **** 
 658:C:/Users/²Ü¼ÒºÀ/.iotlink/sdk/IoT_LINK/iot_link/os/liteos/base/core\los_task.c ****     return pcTaskName;
 659:C:/Users/²Ü¼ÒºÀ/.iotlink/sdk/IoT_LINK/iot_link/os/liteos/base/core\los_task.c **** }
 660:C:/Users/²Ü¼ÒºÀ/.iotlink/sdk/IoT_LINK/iot_link/os/liteos/base/core\los_task.c **** 
 661:C:/Users/²Ü¼ÒºÀ/.iotlink/sdk/IoT_LINK/iot_link/os/liteos/base/core\los_task.c **** /*****************************************************************************
 662:C:/Users/²Ü¼ÒºÀ/.iotlink/sdk/IoT_LINK/iot_link/os/liteos/base/core\los_task.c ****  Function : osTaskSwitchCheck
 663:C:/Users/²Ü¼ÒºÀ/.iotlink/sdk/IoT_LINK/iot_link/os/liteos/base/core\los_task.c ****  Description : Check task switch
 664:C:/Users/²Ü¼ÒºÀ/.iotlink/sdk/IoT_LINK/iot_link/os/liteos/base/core\los_task.c ****  Input       : Node
 665:C:/Users/²Ü¼ÒºÀ/.iotlink/sdk/IoT_LINK/iot_link/os/liteos/base/core\los_task.c ****  Output      : None
 666:C:/Users/²Ü¼ÒºÀ/.iotlink/sdk/IoT_LINK/iot_link/os/liteos/base/core\los_task.c ****  Return      : None
 667:C:/Users/²Ü¼ÒºÀ/.iotlink/sdk/IoT_LINK/iot_link/os/liteos/base/core\los_task.c ****  *****************************************************************************/
 668:C:/Users/²Ü¼ÒºÀ/.iotlink/sdk/IoT_LINK/iot_link/os/liteos/base/core\los_task.c **** #if (LOSCFG_BASE_CORE_TSK_MONITOR == YES)
 669:C:/Users/²Ü¼ÒºÀ/.iotlink/sdk/IoT_LINK/iot_link/os/liteos/base/core\los_task.c **** LITE_OS_SEC_TEXT VOID osTaskSwitchCheck(VOID)
 670:C:/Users/²Ü¼ÒºÀ/.iotlink/sdk/IoT_LINK/iot_link/os/liteos/base/core\los_task.c **** {
  96              		.loc 2 670 1 view -0
  97              		.cfi_startproc
  98              		@ args = 0, pretend = 0, frame = 0
  99              		@ frame_needed = 0, uses_anonymous_args = 0
 671:C:/Users/²Ü¼ÒºÀ/.iotlink/sdk/IoT_LINK/iot_link/os/liteos/base/core\los_task.c ****     if ((*(UINT32 *)(g_stLosTask.pstRunTask->uwTopOfStack)) != OS_TASK_MAGIC_WORD)
 100              		.loc 2 671 5 view .LVU15
ARM GAS  C:\Users\²Ü¼ÒºÀ\AppData\Local\Temp\ccOngKk7.s 			page 18


 670:C:/Users/²Ü¼ÒºÀ/.iotlink/sdk/IoT_LINK/iot_link/os/liteos/base/core\los_task.c ****     if ((*(UINT32 *)(g_stLosTask.pstRunTask->uwTopOfStack)) != OS_TASK_MAGIC_WORD)
 101              		.loc 2 670 1 is_stmt 0 view .LVU16
 102 0000 10B5     		push	{r4, lr}
 103              	.LCFI0:
 104              		.cfi_def_cfa_offset 8
 105              		.cfi_offset 4, -8
 106              		.cfi_offset 14, -4
 107              		.loc 2 671 33 view .LVU17
 108 0002 2B4C     		ldr	r4, .L16
 109              		.loc 2 671 44 view .LVU18
 110 0004 2368     		ldr	r3, [r4]
 111              		.loc 2 671 10 view .LVU19
 112 0006 DB68     		ldr	r3, [r3, #12]
 113              		.loc 2 671 8 view .LVU20
 114 0008 1B68     		ldr	r3, [r3]
 115 000a B3F1CC3F 		cmp	r3, #-858993460
 116 000e 08D0     		beq	.L5
 672:C:/Users/²Ü¼ÒºÀ/.iotlink/sdk/IoT_LINK/iot_link/os/liteos/base/core\los_task.c ****     {
 673:C:/Users/²Ü¼ÒºÀ/.iotlink/sdk/IoT_LINK/iot_link/os/liteos/base/core\los_task.c ****         PRINT_ERR("CURRENT task ID: %s:%d stack overflow!\n", g_stLosTask.pstRunTask->pcTaskName, g
 117              		.loc 2 673 9 is_stmt 1 view .LVU21
 118              		.loc 2 673 9 view .LVU22
 119 0010 2848     		ldr	r0, .L16+4
 120 0012 FFF7FEFF 		bl	printf
 121              	.LVL1:
 122 0016 2368     		ldr	r3, [r4]
 123 0018 2748     		ldr	r0, .L16+8
 124 001a 1A69     		ldr	r2, [r3, #16]
 125 001c 596A     		ldr	r1, [r3, #36]
 126 001e FFF7FEFF 		bl	printf
 127              	.LVL2:
 128              	.L5:
 129              		.loc 2 673 9 discriminator 1 view .LVU23
 674:C:/Users/²Ü¼ÒºÀ/.iotlink/sdk/IoT_LINK/iot_link/os/liteos/base/core\los_task.c ****     }
 675:C:/Users/²Ü¼ÒºÀ/.iotlink/sdk/IoT_LINK/iot_link/os/liteos/base/core\los_task.c ****     if (((UINT32)(g_stLosTask.pstNewTask->pStackPointer) <= g_stLosTask.pstNewTask->uwTopOfStack) |
 130              		.loc 2 675 5 discriminator 1 view .LVU24
 131              		.loc 2 675 30 is_stmt 0 discriminator 1 view .LVU25
 132 0022 6268     		ldr	r2, [r4, #4]
 133              		.loc 2 675 10 discriminator 1 view .LVU26
 134 0024 1168     		ldr	r1, [r2]
 135              		.loc 2 675 83 discriminator 1 view .LVU27
 136 0026 D368     		ldr	r3, [r2, #12]
 137              		.loc 2 675 8 discriminator 1 view .LVU28
 138 0028 9942     		cmp	r1, r3
 139 002a 03D9     		bls	.L6
 676:C:/Users/²Ü¼ÒºÀ/.iotlink/sdk/IoT_LINK/iot_link/os/liteos/base/core\los_task.c ****         ((UINT32)(g_stLosTask.pstNewTask->pStackPointer) > g_stLosTask.pstNewTask->uwTopOfStack + g
 140              		.loc 2 676 97 discriminator 1 view .LVU29
 141 002c 9268     		ldr	r2, [r2, #8]
 142 002e 1344     		add	r3, r3, r2
 675:C:/Users/²Ü¼ÒºÀ/.iotlink/sdk/IoT_LINK/iot_link/os/liteos/base/core\los_task.c ****         ((UINT32)(g_stLosTask.pstNewTask->pStackPointer) > g_stLosTask.pstNewTask->uwTopOfStack + g
 143              		.loc 2 675 99 discriminator 1 view .LVU30
 144 0030 9942     		cmp	r1, r3
 145 0032 11D9     		bls	.L7
 146              	.L6:
 677:C:/Users/²Ü¼ÒºÀ/.iotlink/sdk/IoT_LINK/iot_link/os/liteos/base/core\los_task.c ****     {
 678:C:/Users/²Ü¼ÒºÀ/.iotlink/sdk/IoT_LINK/iot_link/os/liteos/base/core\los_task.c ****         PRINT_ERR("HIGHEST task ID: %s:%d SP error!\n", g_stLosTask.pstNewTask->pcTaskName, g_stLos
 147              		.loc 2 678 9 is_stmt 1 view .LVU31
 148              		.loc 2 678 9 view .LVU32
ARM GAS  C:\Users\²Ü¼ÒºÀ\AppData\Local\Temp\ccOngKk7.s 			page 19


 149 0034 1F48     		ldr	r0, .L16+4
 150 0036 FFF7FEFF 		bl	printf
 151              	.LVL3:
 152 003a 6368     		ldr	r3, [r4, #4]
 153 003c 1F48     		ldr	r0, .L16+12
 154 003e 1A69     		ldr	r2, [r3, #16]
 155 0040 596A     		ldr	r1, [r3, #36]
 156 0042 FFF7FEFF 		bl	printf
 157              	.LVL4:
 158              		.loc 2 678 9 view .LVU33
 679:C:/Users/²Ü¼ÒºÀ/.iotlink/sdk/IoT_LINK/iot_link/os/liteos/base/core\los_task.c ****         PRINT_ERR("HIGHEST task StackPointer: 0x%x TopOfStack: 0x%x\n", (UINT32)(g_stLosTask.pstNew
 159              		.loc 2 679 9 view .LVU34
 160              		.loc 2 679 9 view .LVU35
 161 0046 1B48     		ldr	r0, .L16+4
 162 0048 FFF7FEFF 		bl	printf
 163              	.LVL5:
 164 004c 6368     		ldr	r3, [r4, #4]
 165 004e 1C48     		ldr	r0, .L16+16
 166 0050 DA68     		ldr	r2, [r3, #12]
 167 0052 1968     		ldr	r1, [r3]
 168 0054 FFF7FEFF 		bl	printf
 169              	.LVL6:
 170              	.L7:
 171              		.loc 2 679 9 discriminator 1 view .LVU36
 680:C:/Users/²Ü¼ÒºÀ/.iotlink/sdk/IoT_LINK/iot_link/os/liteos/base/core\los_task.c ****     }
 681:C:/Users/²Ü¼ÒºÀ/.iotlink/sdk/IoT_LINK/iot_link/os/liteos/base/core\los_task.c **** 
 682:C:/Users/²Ü¼ÒºÀ/.iotlink/sdk/IoT_LINK/iot_link/os/liteos/base/core\los_task.c **** #if (LOSCFG_BASE_CORE_EXC_TSK_SWITCH == YES)
 683:C:/Users/²Ü¼ÒºÀ/.iotlink/sdk/IoT_LINK/iot_link/os/liteos/base/core\los_task.c ****     /* record task switch info */
 684:C:/Users/²Ü¼ÒºÀ/.iotlink/sdk/IoT_LINK/iot_link/os/liteos/base/core\los_task.c ****     g_astTskSwitchInfo.auwPID[g_astTskSwitchInfo.ucIdx] = (UINT16)(g_stLosTask.pstNewTask->uwTaskID
 172              		.loc 2 684 5 discriminator 1 view .LVU37
 173              		.loc 2 684 49 is_stmt 0 discriminator 1 view .LVU38
 174 0058 1A4B     		ldr	r3, .L16+20
 175              		.loc 2 684 79 discriminator 1 view .LVU39
 176 005a 6168     		ldr	r1, [r4, #4]
 177              		.loc 2 684 49 discriminator 1 view .LVU40
 178 005c 1A78     		ldrb	r2, [r3]	@ zero_extendqisi2
 179              		.loc 2 684 59 discriminator 1 view .LVU41
 180 005e 0C69     		ldr	r4, [r1, #16]
 685:C:/Users/²Ü¼ÒºÀ/.iotlink/sdk/IoT_LINK/iot_link/os/liteos/base/core\los_task.c ****     memcpy(g_astTskSwitchInfo.acName[g_astTskSwitchInfo.ucIdx], g_stLosTask.pstNewTask->pcTaskName,
 181              		.loc 2 685 5 discriminator 1 view .LVU42
 182 0060 496A     		ldr	r1, [r1, #36]
 684:C:/Users/²Ü¼ÒºÀ/.iotlink/sdk/IoT_LINK/iot_link/os/liteos/base/core\los_task.c ****     memcpy(g_astTskSwitchInfo.acName[g_astTskSwitchInfo.ucIdx], g_stLosTask.pstNewTask->pcTaskName,
 183              		.loc 2 684 57 discriminator 1 view .LVU43
 184 0062 03EB4200 		add	r0, r3, r2, lsl #1
 185              		.loc 2 685 37 discriminator 1 view .LVU44
 186 0066 03EB4212 		add	r2, r3, r2, lsl #5
 684:C:/Users/²Ü¼ÒºÀ/.iotlink/sdk/IoT_LINK/iot_link/os/liteos/base/core\los_task.c ****     memcpy(g_astTskSwitchInfo.acName[g_astTskSwitchInfo.ucIdx], g_stLosTask.pstNewTask->pcTaskName,
 187              		.loc 2 684 59 discriminator 1 view .LVU45
 188 006a 4480     		strh	r4, [r0, #2]	@ movhi
 189              		.loc 2 685 5 is_stmt 1 discriminator 1 view .LVU46
 190 006c 1632     		adds	r2, r2, #22
 191 006e 01F12000 		add	r0, r1, #32
 192              	.L8:
 193 0072 51F8044B 		ldr	r4, [r1], #4	@ unaligned
 194 0076 42F8044B 		str	r4, [r2], #4	@ unaligned
 195 007a 8142     		cmp	r1, r0
 196 007c F9D1     		bne	.L8
ARM GAS  C:\Users\²Ü¼ÒºÀ\AppData\Local\Temp\ccOngKk7.s 			page 20


 686:C:/Users/²Ü¼ÒºÀ/.iotlink/sdk/IoT_LINK/iot_link/os/liteos/base/core\los_task.c ****     g_astTskSwitchInfo.acName[g_astTskSwitchInfo.ucIdx][LOS_TASK_NAMELEN -1] = '\0';
 197              		.loc 2 686 5 discriminator 1 view .LVU47
 198              		.loc 2 686 49 is_stmt 0 discriminator 1 view .LVU48
 199 007e 1A78     		ldrb	r2, [r3]	@ zero_extendqisi2
 200              		.loc 2 686 78 discriminator 1 view .LVU49
 201 0080 03EB4210 		add	r0, r3, r2, lsl #5
 687:C:/Users/²Ü¼ÒºÀ/.iotlink/sdk/IoT_LINK/iot_link/os/liteos/base/core\los_task.c **** 
 688:C:/Users/²Ü¼ÒºÀ/.iotlink/sdk/IoT_LINK/iot_link/os/liteos/base/core\los_task.c ****     if (++g_astTskSwitchInfo.ucIdx == OS_TASK_SWITCH_INFO_COUNT)
 202              		.loc 2 688 9 discriminator 1 view .LVU50
 203 0084 0132     		adds	r2, r2, #1
 204 0086 D2B2     		uxtb	r2, r2
 205              		.loc 2 688 8 discriminator 1 view .LVU51
 206 0088 0A2A     		cmp	r2, #10
 689:C:/Users/²Ü¼ÒºÀ/.iotlink/sdk/IoT_LINK/iot_link/os/liteos/base/core\los_task.c ****     {
 690:C:/Users/²Ü¼ÒºÀ/.iotlink/sdk/IoT_LINK/iot_link/os/liteos/base/core\los_task.c ****         g_astTskSwitchInfo.ucIdx = 0;
 691:C:/Users/²Ü¼ÒºÀ/.iotlink/sdk/IoT_LINK/iot_link/os/liteos/base/core\los_task.c ****         g_astTskSwitchInfo.ucIsFull |= 0x80;
 207              		.loc 2 691 37 discriminator 1 view .LVU52
 208 008a 0CBF     		ite	eq
 209 008c 5A78     		ldrbeq	r2, [r3, #1]	@ zero_extendqisi2
 688:C:/Users/²Ü¼ÒºÀ/.iotlink/sdk/IoT_LINK/iot_link/os/liteos/base/core\los_task.c ****     {
 210              		.loc 2 688 8 discriminator 1 view .LVU53
 211 008e 1A70     		strbne	r2, [r3]
 686:C:/Users/²Ü¼ÒºÀ/.iotlink/sdk/IoT_LINK/iot_link/os/liteos/base/core\los_task.c **** 
 212              		.loc 2 686 78 discriminator 1 view .LVU54
 213 0090 4FF00001 		mov	r1, #0
 214              		.loc 2 691 37 discriminator 1 view .LVU55
 215 0094 02BF     		ittt	eq
 216 0096 62F07F02 		orneq	r2, r2, #127
 690:C:/Users/²Ü¼ÒºÀ/.iotlink/sdk/IoT_LINK/iot_link/os/liteos/base/core\los_task.c ****         g_astTskSwitchInfo.ucIsFull |= 0x80;
 217              		.loc 2 690 34 discriminator 1 view .LVU56
 218 009a 1970     		strbeq	r1, [r3]
 219              		.loc 2 691 37 discriminator 1 view .LVU57
 220 009c 5A70     		strbeq	r2, [r3, #1]
 692:C:/Users/²Ü¼ÒºÀ/.iotlink/sdk/IoT_LINK/iot_link/os/liteos/base/core\los_task.c ****     }
 693:C:/Users/²Ü¼ÒºÀ/.iotlink/sdk/IoT_LINK/iot_link/os/liteos/base/core\los_task.c **** #endif
 694:C:/Users/²Ü¼ÒºÀ/.iotlink/sdk/IoT_LINK/iot_link/os/liteos/base/core\los_task.c **** 
 695:C:/Users/²Ü¼ÒºÀ/.iotlink/sdk/IoT_LINK/iot_link/os/liteos/base/core\los_task.c ****     if (g_pfnUsrTskSwitchHook != NULL)
 221              		.loc 2 695 31 discriminator 1 view .LVU58
 222 009e 0A4B     		ldr	r3, .L16+24
 686:C:/Users/²Ü¼ÒºÀ/.iotlink/sdk/IoT_LINK/iot_link/os/liteos/base/core\los_task.c **** 
 223              		.loc 2 686 78 discriminator 1 view .LVU59
 224 00a0 80F83510 		strb	r1, [r0, #53]
 688:C:/Users/²Ü¼ÒºÀ/.iotlink/sdk/IoT_LINK/iot_link/os/liteos/base/core\los_task.c ****     {
 225              		.loc 2 688 5 is_stmt 1 discriminator 1 view .LVU60
 690:C:/Users/²Ü¼ÒºÀ/.iotlink/sdk/IoT_LINK/iot_link/os/liteos/base/core\los_task.c ****         g_astTskSwitchInfo.ucIsFull |= 0x80;
 226              		.loc 2 690 9 discriminator 1 view .LVU61
 691:C:/Users/²Ü¼ÒºÀ/.iotlink/sdk/IoT_LINK/iot_link/os/liteos/base/core\los_task.c ****     }
 227              		.loc 2 691 9 discriminator 1 view .LVU62
 228              		.loc 2 695 5 discriminator 1 view .LVU63
 229              		.loc 2 695 31 is_stmt 0 discriminator 1 view .LVU64
 230 00a4 1B68     		ldr	r3, [r3]
 231              		.loc 2 695 8 discriminator 1 view .LVU65
 232 00a6 13B1     		cbz	r3, .L4
 696:C:/Users/²Ü¼ÒºÀ/.iotlink/sdk/IoT_LINK/iot_link/os/liteos/base/core\los_task.c ****     {
 697:C:/Users/²Ü¼ÒºÀ/.iotlink/sdk/IoT_LINK/iot_link/os/liteos/base/core\los_task.c ****         g_pfnUsrTskSwitchHook();
 233              		.loc 2 697 9 is_stmt 1 view .LVU66
 698:C:/Users/²Ü¼ÒºÀ/.iotlink/sdk/IoT_LINK/iot_link/os/liteos/base/core\los_task.c ****     }
ARM GAS  C:\Users\²Ü¼ÒºÀ\AppData\Local\Temp\ccOngKk7.s 			page 21


 699:C:/Users/²Ü¼ÒºÀ/.iotlink/sdk/IoT_LINK/iot_link/os/liteos/base/core\los_task.c **** 
 700:C:/Users/²Ü¼ÒºÀ/.iotlink/sdk/IoT_LINK/iot_link/os/liteos/base/core\los_task.c **** #if (LOSCFG_BASE_CORE_CPUP == YES)
 701:C:/Users/²Ü¼ÒºÀ/.iotlink/sdk/IoT_LINK/iot_link/os/liteos/base/core\los_task.c ****     osTskCycleEndStart();
 702:C:/Users/²Ü¼ÒºÀ/.iotlink/sdk/IoT_LINK/iot_link/os/liteos/base/core\los_task.c **** #endif /* LOSCFG_BASE_CORE_CPUP */
 703:C:/Users/²Ü¼ÒºÀ/.iotlink/sdk/IoT_LINK/iot_link/os/liteos/base/core\los_task.c **** }
 234              		.loc 2 703 1 is_stmt 0 view .LVU67
 235 00a8 BDE81040 		pop	{r4, lr}
 236              	.LCFI1:
 237              		.cfi_remember_state
 238              		.cfi_restore 14
 239              		.cfi_restore 4
 240              		.cfi_def_cfa_offset 0
 697:C:/Users/²Ü¼ÒºÀ/.iotlink/sdk/IoT_LINK/iot_link/os/liteos/base/core\los_task.c ****     }
 241              		.loc 2 697 9 view .LVU68
 242 00ac 1847     		bx	r3	@ indirect register sibling call
 243              	.LVL7:
 244              	.L4:
 245              	.LCFI2:
 246              		.cfi_restore_state
 247              		.loc 2 703 1 view .LVU69
 248 00ae 10BD     		pop	{r4, pc}
 249              	.L17:
 250              		.align	2
 251              	.L16:
 252 00b0 00000000 		.word	g_stLosTask
 253 00b4 00000000 		.word	.LC0
 254 00b8 07000000 		.word	.LC1
 255 00bc 2F000000 		.word	.LC2
 256 00c0 51000000 		.word	.LC3
 257 00c4 00000000 		.word	g_astTskSwitchInfo
 258 00c8 00000000 		.word	.LANCHOR0
 259              		.cfi_endproc
 260              	.LFE300:
 262              		.section	.text.osTaskPriModify,"ax",%progbits
 263              		.align	1
 264              		.global	osTaskPriModify
 265              		.syntax unified
 266              		.thumb
 267              		.thumb_func
 268              		.fpu fpv4-sp-d16
 270              	osTaskPriModify:
 271              	.LVL8:
 272              	.LFB288:
 170:C:/Users/²Ü¼ÒºÀ/.iotlink/sdk/IoT_LINK/iot_link/os/liteos/base/core\los_task.c ****     if (pstTaskCB->usTaskStatus & OS_TASK_STATUS_READY)
 273              		.loc 2 170 1 is_stmt 1 view -0
 274              		.cfi_startproc
 275              		@ args = 0, pretend = 0, frame = 8
 276              		@ frame_needed = 0, uses_anonymous_args = 0
 171:C:/Users/²Ü¼ÒºÀ/.iotlink/sdk/IoT_LINK/iot_link/os/liteos/base/core\los_task.c ****     {
 277              		.loc 2 171 5 view .LVU71
 171:C:/Users/²Ü¼ÒºÀ/.iotlink/sdk/IoT_LINK/iot_link/os/liteos/base/core\los_task.c ****     {
 278              		.loc 2 171 8 is_stmt 0 view .LVU72
 279 0000 8388     		ldrh	r3, [r0, #4]
 280 0002 5B07     		lsls	r3, r3, #29
 170:C:/Users/²Ü¼ÒºÀ/.iotlink/sdk/IoT_LINK/iot_link/os/liteos/base/core\los_task.c ****     if (pstTaskCB->usTaskStatus & OS_TASK_STATUS_READY)
 281              		.loc 2 170 1 view .LVU73
 282 0004 37B5     		push	{r0, r1, r2, r4, r5, lr}
ARM GAS  C:\Users\²Ü¼ÒºÀ\AppData\Local\Temp\ccOngKk7.s 			page 22


 283              	.LCFI3:
 284              		.cfi_def_cfa_offset 24
 285              		.cfi_offset 4, -12
 286              		.cfi_offset 5, -8
 287              		.cfi_offset 14, -4
 170:C:/Users/²Ü¼ÒºÀ/.iotlink/sdk/IoT_LINK/iot_link/os/liteos/base/core\los_task.c ****     if (pstTaskCB->usTaskStatus & OS_TASK_STATUS_READY)
 288              		.loc 2 170 1 view .LVU74
 289 0006 0446     		mov	r4, r0
 290 0008 0D46     		mov	r5, r1
 171:C:/Users/²Ü¼ÒºÀ/.iotlink/sdk/IoT_LINK/iot_link/os/liteos/base/core\los_task.c ****     {
 291              		.loc 2 171 8 view .LVU75
 292 000a 0FD5     		bpl	.L19
 173:C:/Users/²Ü¼ÒºÀ/.iotlink/sdk/IoT_LINK/iot_link/os/liteos/base/core\los_task.c ****         pstTaskCB->usTaskStatus &= (~OS_TASK_STATUS_READY);
 293              		.loc 2 173 9 is_stmt 1 view .LVU76
 294 000c 2830     		adds	r0, r0, #40
 295              	.LVL9:
 173:C:/Users/²Ü¼ÒºÀ/.iotlink/sdk/IoT_LINK/iot_link/os/liteos/base/core\los_task.c ****         pstTaskCB->usTaskStatus &= (~OS_TASK_STATUS_READY);
 296              		.loc 2 173 9 is_stmt 0 view .LVU77
 297 000e 0190     		str	r0, [sp, #4]
 298 0010 FFF7FEFF 		bl	osPriqueueDequeue
 299              	.LVL10:
 174:C:/Users/²Ü¼ÒºÀ/.iotlink/sdk/IoT_LINK/iot_link/os/liteos/base/core\los_task.c ****         pstTaskCB->usPriority = usPriority;
 300              		.loc 2 174 9 is_stmt 1 view .LVU78
 175:C:/Users/²Ü¼ÒºÀ/.iotlink/sdk/IoT_LINK/iot_link/os/liteos/base/core\los_task.c ****         pstTaskCB->usTaskStatus |= OS_TASK_STATUS_READY;
 301              		.loc 2 175 9 view .LVU79
 174:C:/Users/²Ü¼ÒºÀ/.iotlink/sdk/IoT_LINK/iot_link/os/liteos/base/core\los_task.c ****         pstTaskCB->usPriority = usPriority;
 302              		.loc 2 174 33 is_stmt 0 view .LVU80
 303 0014 A388     		ldrh	r3, [r4, #4]
 177:C:/Users/²Ü¼ÒºÀ/.iotlink/sdk/IoT_LINK/iot_link/os/liteos/base/core\los_task.c ****     }
 304              		.loc 2 177 9 view .LVU81
 305 0016 0198     		ldr	r0, [sp, #4]
 175:C:/Users/²Ü¼ÒºÀ/.iotlink/sdk/IoT_LINK/iot_link/os/liteos/base/core\los_task.c ****         pstTaskCB->usTaskStatus |= OS_TASK_STATUS_READY;
 306              		.loc 2 175 31 view .LVU82
 307 0018 E580     		strh	r5, [r4, #6]	@ movhi
 176:C:/Users/²Ü¼ÒºÀ/.iotlink/sdk/IoT_LINK/iot_link/os/liteos/base/core\los_task.c ****         osPriqueueEnqueue(&pstTaskCB->stPendList, pstTaskCB->usPriority);
 308              		.loc 2 176 9 is_stmt 1 view .LVU83
 176:C:/Users/²Ü¼ÒºÀ/.iotlink/sdk/IoT_LINK/iot_link/os/liteos/base/core\los_task.c ****         osPriqueueEnqueue(&pstTaskCB->stPendList, pstTaskCB->usPriority);
 309              		.loc 2 176 33 is_stmt 0 view .LVU84
 310 001a 43F00403 		orr	r3, r3, #4
 177:C:/Users/²Ü¼ÒºÀ/.iotlink/sdk/IoT_LINK/iot_link/os/liteos/base/core\los_task.c ****     }
 311              		.loc 2 177 9 view .LVU85
 312 001e 2946     		mov	r1, r5
 176:C:/Users/²Ü¼ÒºÀ/.iotlink/sdk/IoT_LINK/iot_link/os/liteos/base/core\los_task.c ****         osPriqueueEnqueue(&pstTaskCB->stPendList, pstTaskCB->usPriority);
 313              		.loc 2 176 33 view .LVU86
 314 0020 A380     		strh	r3, [r4, #4]	@ movhi
 177:C:/Users/²Ü¼ÒºÀ/.iotlink/sdk/IoT_LINK/iot_link/os/liteos/base/core\los_task.c ****     }
 315              		.loc 2 177 9 is_stmt 1 view .LVU87
 183:C:/Users/²Ü¼ÒºÀ/.iotlink/sdk/IoT_LINK/iot_link/os/liteos/base/core\los_task.c **** 
 316              		.loc 2 183 1 is_stmt 0 view .LVU88
 317 0022 03B0     		add	sp, sp, #12
 318              	.LCFI4:
 319              		.cfi_remember_state
 320              		.cfi_def_cfa_offset 12
 321              		@ sp needed
 322 0024 BDE83040 		pop	{r4, r5, lr}
 323              	.LCFI5:
 324              		.cfi_restore 14
ARM GAS  C:\Users\²Ü¼ÒºÀ\AppData\Local\Temp\ccOngKk7.s 			page 23


 325              		.cfi_restore 5
 326              		.cfi_restore 4
 327              		.cfi_def_cfa_offset 0
 328              	.LVL11:
 177:C:/Users/²Ü¼ÒºÀ/.iotlink/sdk/IoT_LINK/iot_link/os/liteos/base/core\los_task.c ****     }
 329              		.loc 2 177 9 view .LVU89
 330 0028 FFF7FEBF 		b	osPriqueueEnqueue
 331              	.LVL12:
 332              	.L19:
 333              	.LCFI6:
 334              		.cfi_restore_state
 181:C:/Users/²Ü¼ÒºÀ/.iotlink/sdk/IoT_LINK/iot_link/os/liteos/base/core\los_task.c ****     }
 335              		.loc 2 181 9 is_stmt 1 view .LVU90
 181:C:/Users/²Ü¼ÒºÀ/.iotlink/sdk/IoT_LINK/iot_link/os/liteos/base/core\los_task.c ****     }
 336              		.loc 2 181 31 is_stmt 0 view .LVU91
 337 002c C180     		strh	r1, [r0, #6]	@ movhi
 183:C:/Users/²Ü¼ÒºÀ/.iotlink/sdk/IoT_LINK/iot_link/os/liteos/base/core\los_task.c **** 
 338              		.loc 2 183 1 view .LVU92
 339 002e 03B0     		add	sp, sp, #12
 340              	.LCFI7:
 341              		.cfi_def_cfa_offset 12
 342              		@ sp needed
 343 0030 30BD     		pop	{r4, r5, pc}
 344              		.cfi_endproc
 345              	.LFE288:
 347              		.section	.text.osTaskAdd2TimerList,"ax",%progbits
 348              		.align	1
 349              		.global	osTaskAdd2TimerList
 350              		.syntax unified
 351              		.thumb
 352              		.thumb_func
 353              		.fpu fpv4-sp-d16
 355              	osTaskAdd2TimerList:
 356              	.LVL13:
 357              	.LFB289:
 194:C:/Users/²Ü¼ÒºÀ/.iotlink/sdk/IoT_LINK/iot_link/os/liteos/base/core\los_task.c ****     LOS_TASK_CB *pstTskDelay;
 358              		.loc 2 194 1 is_stmt 1 view -0
 359              		.cfi_startproc
 360              		@ args = 0, pretend = 0, frame = 0
 361              		@ frame_needed = 0, uses_anonymous_args = 0
 195:C:/Users/²Ü¼ÒºÀ/.iotlink/sdk/IoT_LINK/iot_link/os/liteos/base/core\los_task.c ****     LOS_DL_LIST *pstListObject;
 362              		.loc 2 195 5 view .LVU94
 196:C:/Users/²Ü¼ÒºÀ/.iotlink/sdk/IoT_LINK/iot_link/os/liteos/base/core\los_task.c ****     UINT32 uwSortIndex;
 363              		.loc 2 196 5 view .LVU95
 197:C:/Users/²Ü¼ÒºÀ/.iotlink/sdk/IoT_LINK/iot_link/os/liteos/base/core\los_task.c ****     UINT32 uwRollNum;
 364              		.loc 2 197 5 view .LVU96
 198:C:/Users/²Ü¼ÒºÀ/.iotlink/sdk/IoT_LINK/iot_link/os/liteos/base/core\los_task.c **** 
 365              		.loc 2 198 5 view .LVU97
 200:C:/Users/²Ü¼ÒºÀ/.iotlink/sdk/IoT_LINK/iot_link/os/liteos/base/core\los_task.c ****     uwRollNum = (uwTimeout >> OS_TSK_SORTLINK_LOGLEN);
 366              		.loc 2 200 5 view .LVU98
 201:C:/Users/²Ü¼ÒºÀ/.iotlink/sdk/IoT_LINK/iot_link/os/liteos/base/core\los_task.c ****     (uwSortIndex > 0) ? 0 : (uwRollNum--);
 367              		.loc 2 201 5 view .LVU99
 194:C:/Users/²Ü¼ÒºÀ/.iotlink/sdk/IoT_LINK/iot_link/os/liteos/base/core\los_task.c ****     LOS_TASK_CB *pstTskDelay;
 368              		.loc 2 194 1 is_stmt 0 view .LVU100
 369 0000 F0B5     		push	{r4, r5, r6, r7, lr}
 370              	.LCFI8:
 371              		.cfi_def_cfa_offset 20
ARM GAS  C:\Users\²Ü¼ÒºÀ\AppData\Local\Temp\ccOngKk7.s 			page 24


 372              		.cfi_offset 4, -20
 373              		.cfi_offset 5, -16
 374              		.cfi_offset 6, -12
 375              		.cfi_offset 7, -8
 376              		.cfi_offset 14, -4
 204:C:/Users/²Ü¼ÒºÀ/.iotlink/sdk/IoT_LINK/iot_link/os/liteos/base/core\los_task.c ****     uwSortIndex = uwSortIndex & OS_TSK_SORTLINK_MASK;
 377              		.loc 2 204 49 view .LVU101
 378 0002 1D4C     		ldr	r4, .L29
 379 0004 A288     		ldrh	r2, [r4, #4]
 207:C:/Users/²Ü¼ÒºÀ/.iotlink/sdk/IoT_LINK/iot_link/os/liteos/base/core\los_task.c ****     if (pstListObject->pstNext == pstListObject)
 380              		.loc 2 207 19 view .LVU102
 381 0006 2668     		ldr	r6, [r4]
 201:C:/Users/²Ü¼ÒºÀ/.iotlink/sdk/IoT_LINK/iot_link/os/liteos/base/core\los_task.c ****     (uwSortIndex > 0) ? 0 : (uwRollNum--);
 382              		.loc 2 201 15 view .LVU103
 383 0008 4B09     		lsrs	r3, r1, #5
 384              	.LVL14:
 202:C:/Users/²Ü¼ÒºÀ/.iotlink/sdk/IoT_LINK/iot_link/os/liteos/base/core\los_task.c ****     EVALUATE_L(pstTaskCB->uwIdxRollNum, uwRollNum);
 385              		.loc 2 202 5 is_stmt 1 view .LVU104
 202:C:/Users/²Ü¼ÒºÀ/.iotlink/sdk/IoT_LINK/iot_link/os/liteos/base/core\los_task.c ****     EVALUATE_L(pstTaskCB->uwIdxRollNum, uwRollNum);
 386              		.loc 2 202 27 is_stmt 0 view .LVU105
 387 000a 11F01F01 		ands	r1, r1, #31
 388              	.LVL15:
 204:C:/Users/²Ü¼ÒºÀ/.iotlink/sdk/IoT_LINK/iot_link/os/liteos/base/core\los_task.c ****     uwSortIndex = uwSortIndex & OS_TSK_SORTLINK_MASK;
 389              		.loc 2 204 17 view .LVU106
 390 000e 1144     		add	r1, r1, r2
 391              	.LVL16:
 202:C:/Users/²Ü¼ÒºÀ/.iotlink/sdk/IoT_LINK/iot_link/os/liteos/base/core\los_task.c ****     EVALUATE_L(pstTaskCB->uwIdxRollNum, uwRollNum);
 392              		.loc 2 202 39 view .LVU107
 393 0010 08BF     		it	eq
 394 0012 03F1FF33 		addeq	r3, r3, #-1
 395              	.LVL17:
 203:C:/Users/²Ü¼ÒºÀ/.iotlink/sdk/IoT_LINK/iot_link/os/liteos/base/core\los_task.c ****     uwSortIndex = (uwSortIndex + g_stTskSortLink.usCursor);
 396              		.loc 2 203 5 is_stmt 1 view .LVU108
 204:C:/Users/²Ü¼ÒºÀ/.iotlink/sdk/IoT_LINK/iot_link/os/liteos/base/core\los_task.c ****     uwSortIndex = uwSortIndex & OS_TSK_SORTLINK_MASK;
 397              		.loc 2 204 5 view .LVU109
 205:C:/Users/²Ü¼ÒºÀ/.iotlink/sdk/IoT_LINK/iot_link/os/liteos/base/core\los_task.c ****     EVALUATE_H(pstTaskCB->uwIdxRollNum, uwSortIndex);
 398              		.loc 2 205 5 view .LVU110
 205:C:/Users/²Ü¼ÒºÀ/.iotlink/sdk/IoT_LINK/iot_link/os/liteos/base/core\los_task.c ****     EVALUATE_H(pstTaskCB->uwIdxRollNum, uwSortIndex);
 399              		.loc 2 205 17 is_stmt 0 view .LVU111
 400 0016 01F01F02 		and	r2, r1, #31
 401              	.LVL18:
 206:C:/Users/²Ü¼ÒºÀ/.iotlink/sdk/IoT_LINK/iot_link/os/liteos/base/core\los_task.c ****     pstListObject = g_stTskSortLink.pstSortLink + uwSortIndex;
 402              		.loc 2 206 5 is_stmt 1 view .LVU112
 207:C:/Users/²Ü¼ÒºÀ/.iotlink/sdk/IoT_LINK/iot_link/os/liteos/base/core\los_task.c ****     if (pstListObject->pstNext == pstListObject)
 403              		.loc 2 207 19 is_stmt 0 view .LVU113
 404 001a 06EBC206 		add	r6, r6, r2, lsl #3
 206:C:/Users/²Ü¼ÒºÀ/.iotlink/sdk/IoT_LINK/iot_link/os/liteos/base/core\los_task.c ****     pstListObject = g_stTskSortLink.pstSortLink + uwSortIndex;
 405              		.loc 2 206 5 view .LVU114
 406 001e 23F07843 		bic	r3, r3, #-134217728
 407              	.LVL19:
 206:C:/Users/²Ü¼ÒºÀ/.iotlink/sdk/IoT_LINK/iot_link/os/liteos/base/core\los_task.c ****     pstListObject = g_stTskSortLink.pstSortLink + uwSortIndex;
 408              		.loc 2 206 5 view .LVU115
 409 0022 43EAC163 		orr	r3, r3, r1, lsl #27
 410 0026 8363     		str	r3, [r0, #56]
 207:C:/Users/²Ü¼ÒºÀ/.iotlink/sdk/IoT_LINK/iot_link/os/liteos/base/core\los_task.c ****     if (pstListObject->pstNext == pstListObject)
 411              		.loc 2 207 5 is_stmt 1 view .LVU116
 412              	.LVL20:
ARM GAS  C:\Users\²Ü¼ÒºÀ\AppData\Local\Temp\ccOngKk7.s 			page 25


 208:C:/Users/²Ü¼ÒºÀ/.iotlink/sdk/IoT_LINK/iot_link/os/liteos/base/core\los_task.c ****     {
 413              		.loc 2 208 5 view .LVU117
 208:C:/Users/²Ü¼ÒºÀ/.iotlink/sdk/IoT_LINK/iot_link/os/liteos/base/core\los_task.c ****     {
 414              		.loc 2 208 22 is_stmt 0 view .LVU118
 415 0028 7368     		ldr	r3, [r6, #4]
 208:C:/Users/²Ü¼ÒºÀ/.iotlink/sdk/IoT_LINK/iot_link/os/liteos/base/core\los_task.c ****     {
 416              		.loc 2 208 8 view .LVU119
 417 002a B342     		cmp	r3, r6
 418              	.LVL21:
 208:C:/Users/²Ü¼ÒºÀ/.iotlink/sdk/IoT_LINK/iot_link/os/liteos/base/core\los_task.c ****     {
 419              		.loc 2 208 8 view .LVU120
 420 002c 00F13007 		add	r7, r0, #48
 421 0030 06D1     		bne	.L22
 210:C:/Users/²Ü¼ÒºÀ/.iotlink/sdk/IoT_LINK/iot_link/os/liteos/base/core\los_task.c ****     }
 422              		.loc 2 210 9 is_stmt 1 view .LVU121
 423 0032 1B68     		ldr	r3, [r3]
 424              	.LVL22:
 425              	.LBB58:
 426              	.LBI58:
 157:C:/Users/²Ü¼ÒºÀ/.iotlink/sdk/IoT_LINK/iot_link/os/liteos/include\los_list.h **** {
 427              		.loc 1 157 43 view .LVU122
 428              	.LBB59:
 159:C:/Users/²Ü¼ÒºÀ/.iotlink/sdk/IoT_LINK/iot_link/os/liteos/include\los_list.h **** }
 429              		.loc 1 159 5 view .LVU123
 430              	.LBB60:
 431              	.LBI60:
 129:C:/Users/²Ü¼ÒºÀ/.iotlink/sdk/IoT_LINK/iot_link/os/liteos/include\los_list.h **** {
 432              		.loc 1 129 43 view .LVU124
 433              	.LBB61:
 131:C:/Users/²Ü¼ÒºÀ/.iotlink/sdk/IoT_LINK/iot_link/os/liteos/include\los_list.h ****     pstNode->pstPrev = pstList;
 434              		.loc 1 131 5 view .LVU125
 435              	.L28:
 131:C:/Users/²Ü¼ÒºÀ/.iotlink/sdk/IoT_LINK/iot_link/os/liteos/include\los_list.h ****     pstNode->pstPrev = pstList;
 436              		.loc 1 131 5 is_stmt 0 view .LVU126
 437              	.LBE61:
 438              	.LBE60:
 439              	.LBE59:
 440              	.LBE58:
 441              	.LBB62:
 442              	.LBI62:
 157:C:/Users/²Ü¼ÒºÀ/.iotlink/sdk/IoT_LINK/iot_link/os/liteos/include\los_list.h **** {
 443              		.loc 1 157 43 is_stmt 1 view .LVU127
 444              	.LBB63:
 159:C:/Users/²Ü¼ÒºÀ/.iotlink/sdk/IoT_LINK/iot_link/os/liteos/include\los_list.h **** }
 445              		.loc 1 159 5 view .LVU128
 446              	.LBB64:
 447              	.LBI64:
 129:C:/Users/²Ü¼ÒºÀ/.iotlink/sdk/IoT_LINK/iot_link/os/liteos/include\los_list.h **** {
 448              		.loc 1 129 43 view .LVU129
 449              	.LBB65:
 131:C:/Users/²Ü¼ÒºÀ/.iotlink/sdk/IoT_LINK/iot_link/os/liteos/include\los_list.h ****     pstNode->pstPrev = pstList;
 450              		.loc 1 131 5 view .LVU130
 131:C:/Users/²Ü¼ÒºÀ/.iotlink/sdk/IoT_LINK/iot_link/os/liteos/include\los_list.h ****     pstNode->pstPrev = pstList;
 451              		.loc 1 131 31 is_stmt 0 view .LVU131
 452 0034 5A68     		ldr	r2, [r3, #4]
 132:C:/Users/²Ü¼ÒºÀ/.iotlink/sdk/IoT_LINK/iot_link/os/liteos/include\los_list.h ****     pstList->pstNext->pstPrev = pstNode;
 453              		.loc 1 132 22 view .LVU132
ARM GAS  C:\Users\²Ü¼ÒºÀ\AppData\Local\Temp\ccOngKk7.s 			page 26


 454 0036 C0E90C32 		strd	r3, r2, [r0, #48]
 133:C:/Users/²Ü¼ÒºÀ/.iotlink/sdk/IoT_LINK/iot_link/os/liteos/include\los_list.h ****     pstList->pstNext = pstNode;
 455              		.loc 1 133 5 is_stmt 1 view .LVU133
 133:C:/Users/²Ü¼ÒºÀ/.iotlink/sdk/IoT_LINK/iot_link/os/liteos/include\los_list.h ****     pstList->pstNext = pstNode;
 456              		.loc 1 133 31 is_stmt 0 view .LVU134
 457 003a 1760     		str	r7, [r2]
 458              	.LVL23:
 134:C:/Users/²Ü¼ÒºÀ/.iotlink/sdk/IoT_LINK/iot_link/os/liteos/include\los_list.h **** }
 459              		.loc 1 134 5 is_stmt 1 view .LVU135
 134:C:/Users/²Ü¼ÒºÀ/.iotlink/sdk/IoT_LINK/iot_link/os/liteos/include\los_list.h **** }
 460              		.loc 1 134 22 is_stmt 0 view .LVU136
 461 003c 5F60     		str	r7, [r3, #4]
 462              	.LVL24:
 134:C:/Users/²Ü¼ÒºÀ/.iotlink/sdk/IoT_LINK/iot_link/os/liteos/include\los_list.h **** }
 463              		.loc 1 134 22 view .LVU137
 464              	.LBE65:
 465              	.LBE64:
 466              	.LBE63:
 467              	.LBE62:
 232:C:/Users/²Ü¼ÒºÀ/.iotlink/sdk/IoT_LINK/iot_link/os/liteos/base/core\los_task.c **** 
 468              		.loc 2 232 1 view .LVU138
 469 003e F0BD     		pop	{r4, r5, r6, r7, pc}
 470              	.LVL25:
 471              	.L22:
 214:C:/Users/²Ü¼ÒºÀ/.iotlink/sdk/IoT_LINK/iot_link/os/liteos/base/core\los_task.c ****         do
 472              		.loc 2 214 9 is_stmt 1 view .LVU139
 214:C:/Users/²Ü¼ÒºÀ/.iotlink/sdk/IoT_LINK/iot_link/os/liteos/base/core\los_task.c ****         do
 473              		.loc 2 214 21 is_stmt 0 view .LVU140
 474 0040 303B     		subs	r3, r3, #48
 475              	.LVL26:
 476              	.L25:
 215:C:/Users/²Ü¼ÒºÀ/.iotlink/sdk/IoT_LINK/iot_link/os/liteos/base/core\los_task.c ****         {
 477              		.loc 2 215 9 is_stmt 1 view .LVU141
 217:C:/Users/²Ü¼ÒºÀ/.iotlink/sdk/IoT_LINK/iot_link/os/liteos/base/core\los_task.c ****             {
 478              		.loc 2 217 13 view .LVU142
 217:C:/Users/²Ü¼ÒºÀ/.iotlink/sdk/IoT_LINK/iot_link/os/liteos/base/core\los_task.c ****             {
 479              		.loc 2 217 17 is_stmt 0 view .LVU143
 480 0042 9A6B     		ldr	r2, [r3, #56]
 217:C:/Users/²Ü¼ÒºÀ/.iotlink/sdk/IoT_LINK/iot_link/os/liteos/base/core\los_task.c ****             {
 481              		.loc 2 217 57 view .LVU144
 482 0044 816B     		ldr	r1, [r0, #56]
 217:C:/Users/²Ü¼ÒºÀ/.iotlink/sdk/IoT_LINK/iot_link/os/liteos/base/core\los_task.c ****             {
 483              		.loc 2 217 17 view .LVU145
 484 0046 22F07844 		bic	r4, r2, #-134217728
 217:C:/Users/²Ü¼ÒºÀ/.iotlink/sdk/IoT_LINK/iot_link/os/liteos/base/core\los_task.c ****             {
 485              		.loc 2 217 57 view .LVU146
 486 004a 21F07845 		bic	r5, r1, #-134217728
 217:C:/Users/²Ü¼ÒºÀ/.iotlink/sdk/IoT_LINK/iot_link/os/liteos/base/core\los_task.c ****             {
 487              		.loc 2 217 16 view .LVU147
 488 004e AC42     		cmp	r4, r5
 489 0050 0BD8     		bhi	.L24
 219:C:/Users/²Ü¼ÒºÀ/.iotlink/sdk/IoT_LINK/iot_link/os/liteos/base/core\los_task.c ****             }
 490              		.loc 2 219 17 is_stmt 1 view .LVU148
 227:C:/Users/²Ü¼ÒºÀ/.iotlink/sdk/IoT_LINK/iot_link/os/liteos/base/core\los_task.c ****         } while (&pstTskDelay->stTimerList != (pstListObject));
 491              		.loc 2 227 27 is_stmt 0 view .LVU149
 492 0052 5A6B     		ldr	r2, [r3, #52]
 219:C:/Users/²Ü¼ÒºÀ/.iotlink/sdk/IoT_LINK/iot_link/os/liteos/base/core\los_task.c ****             }
ARM GAS  C:\Users\²Ü¼ÒºÀ\AppData\Local\Temp\ccOngKk7.s 			page 27


 493              		.loc 2 219 17 view .LVU150
 494 0054 01F07841 		and	r1, r1, #-134217728
 495 0058 2C1B     		subs	r4, r5, r4
 496 005a 2143     		orrs	r1, r1, r4
 228:C:/Users/²Ü¼ÒºÀ/.iotlink/sdk/IoT_LINK/iot_link/os/liteos/base/core\los_task.c **** 
 497              		.loc 2 228 9 view .LVU151
 498 005c 9642     		cmp	r6, r2
 219:C:/Users/²Ü¼ÒºÀ/.iotlink/sdk/IoT_LINK/iot_link/os/liteos/base/core\los_task.c ****             }
 499              		.loc 2 219 17 view .LVU152
 500 005e 8163     		str	r1, [r0, #56]
 227:C:/Users/²Ü¼ÒºÀ/.iotlink/sdk/IoT_LINK/iot_link/os/liteos/base/core\los_task.c ****         } while (&pstTskDelay->stTimerList != (pstListObject));
 501              		.loc 2 227 13 is_stmt 1 view .LVU153
 227:C:/Users/²Ü¼ÒºÀ/.iotlink/sdk/IoT_LINK/iot_link/os/liteos/base/core\los_task.c ****         } while (&pstTskDelay->stTimerList != (pstListObject));
 502              		.loc 2 227 25 is_stmt 0 view .LVU154
 503 0060 A2F13003 		sub	r3, r2, #48
 504              	.LVL27:
 228:C:/Users/²Ü¼ÒºÀ/.iotlink/sdk/IoT_LINK/iot_link/os/liteos/base/core\los_task.c **** 
 505              		.loc 2 228 17 is_stmt 1 view .LVU155
 228:C:/Users/²Ü¼ÒºÀ/.iotlink/sdk/IoT_LINK/iot_link/os/liteos/base/core\los_task.c **** 
 506              		.loc 2 228 9 is_stmt 0 view .LVU156
 507 0064 EDD1     		bne	.L25
 508              	.L26:
 230:C:/Users/²Ü¼ÒºÀ/.iotlink/sdk/IoT_LINK/iot_link/os/liteos/base/core\los_task.c ****     }
 509              		.loc 2 230 9 is_stmt 1 view .LVU157
 510 0066 1B6B     		ldr	r3, [r3, #48]
 511              	.LVL28:
 230:C:/Users/²Ü¼ÒºÀ/.iotlink/sdk/IoT_LINK/iot_link/os/liteos/base/core\los_task.c ****     }
 512              		.loc 2 230 9 is_stmt 0 view .LVU158
 513 0068 E4E7     		b	.L28
 514              	.LVL29:
 515              	.L24:
 223:C:/Users/²Ü¼ÒºÀ/.iotlink/sdk/IoT_LINK/iot_link/os/liteos/base/core\los_task.c ****                 break;
 516              		.loc 2 223 17 is_stmt 1 view .LVU159
 517 006a 02F07842 		and	r2, r2, #-134217728
 518 006e 641B     		subs	r4, r4, r5
 519 0070 2243     		orrs	r2, r2, r4
 520 0072 9A63     		str	r2, [r3, #56]
 224:C:/Users/²Ü¼ÒºÀ/.iotlink/sdk/IoT_LINK/iot_link/os/liteos/base/core\los_task.c ****             }
 521              		.loc 2 224 17 view .LVU160
 522 0074 F7E7     		b	.L26
 523              	.L30:
 524 0076 00BF     		.align	2
 525              	.L29:
 526 0078 00000000 		.word	g_stTskSortLink
 527              		.cfi_endproc
 528              	.LFE289:
 530              		.section	.text.osTimerListDelete,"ax",%progbits
 531              		.align	1
 532              		.global	osTimerListDelete
 533              		.syntax unified
 534              		.thumb
 535              		.thumb_func
 536              		.fpu fpv4-sp-d16
 538              	osTimerListDelete:
 539              	.LVL30:
 540              	.LFB290:
 236:C:/Users/²Ü¼ÒºÀ/.iotlink/sdk/IoT_LINK/iot_link/os/liteos/base/core\los_task.c ****     LOS_DL_LIST  *pstListObject;
ARM GAS  C:\Users\²Ü¼ÒºÀ\AppData\Local\Temp\ccOngKk7.s 			page 28


 541              		.loc 2 236 1 view -0
 542              		.cfi_startproc
 543              		@ args = 0, pretend = 0, frame = 0
 544              		@ frame_needed = 0, uses_anonymous_args = 0
 545              		@ link register save eliminated.
 237:C:/Users/²Ü¼ÒºÀ/.iotlink/sdk/IoT_LINK/iot_link/os/liteos/base/core\los_task.c ****     LOS_TASK_CB  *pstNextTask;
 546              		.loc 2 237 5 view .LVU162
 238:C:/Users/²Ü¼ÒºÀ/.iotlink/sdk/IoT_LINK/iot_link/os/liteos/base/core\los_task.c ****     UINT32 uwSortIndex;
 547              		.loc 2 238 5 view .LVU163
 239:C:/Users/²Ü¼ÒºÀ/.iotlink/sdk/IoT_LINK/iot_link/os/liteos/base/core\los_task.c **** 
 548              		.loc 2 239 5 view .LVU164
 241:C:/Users/²Ü¼ÒºÀ/.iotlink/sdk/IoT_LINK/iot_link/os/liteos/base/core\los_task.c ****     pstListObject = g_stTskSortLink.pstSortLink + uwSortIndex;
 549              		.loc 2 241 5 view .LVU165
 236:C:/Users/²Ü¼ÒºÀ/.iotlink/sdk/IoT_LINK/iot_link/os/liteos/base/core\los_task.c ****     LOS_DL_LIST  *pstListObject;
 550              		.loc 2 236 1 is_stmt 0 view .LVU166
 551 0000 10B4     		push	{r4}
 552              	.LCFI9:
 553              		.cfi_def_cfa_offset 4
 554              		.cfi_offset 4, -4
 242:C:/Users/²Ü¼ÒºÀ/.iotlink/sdk/IoT_LINK/iot_link/os/liteos/base/core\los_task.c **** 
 555              		.loc 2 242 19 view .LVU167
 556 0002 0C4B     		ldr	r3, .L33
 244:C:/Users/²Ü¼ÒºÀ/.iotlink/sdk/IoT_LINK/iot_link/os/liteos/base/core\los_task.c ****     {
 557              		.loc 2 244 48 view .LVU168
 558 0004 D0E90D41 		ldrd	r4, r1, [r0, #52]
 242:C:/Users/²Ü¼ÒºÀ/.iotlink/sdk/IoT_LINK/iot_link/os/liteos/base/core\los_task.c **** 
 559              		.loc 2 242 19 view .LVU169
 560 0008 1B68     		ldr	r3, [r3]
 241:C:/Users/²Ü¼ÒºÀ/.iotlink/sdk/IoT_LINK/iot_link/os/liteos/base/core\los_task.c ****     pstListObject = g_stTskSortLink.pstSortLink + uwSortIndex;
 561              		.loc 2 241 17 view .LVU170
 562 000a CA0E     		lsrs	r2, r1, #27
 242:C:/Users/²Ü¼ÒºÀ/.iotlink/sdk/IoT_LINK/iot_link/os/liteos/base/core\los_task.c **** 
 563              		.loc 2 242 19 view .LVU171
 564 000c 03EBC203 		add	r3, r3, r2, lsl #3
 244:C:/Users/²Ü¼ÒºÀ/.iotlink/sdk/IoT_LINK/iot_link/os/liteos/base/core\los_task.c ****     {
 565              		.loc 2 244 8 view .LVU172
 566 0010 9C42     		cmp	r4, r3
 567 0012 09D0     		beq	.L32
 246:C:/Users/²Ü¼ÒºÀ/.iotlink/sdk/IoT_LINK/iot_link/os/liteos/base/core\los_task.c ****         UWROLLNUMADD(pstNextTask->uwIdxRollNum, pstTaskCB->uwIdxRollNum);
 568              		.loc 2 246 9 is_stmt 1 view .LVU173
 569              	.LVL31:
 247:C:/Users/²Ü¼ÒºÀ/.iotlink/sdk/IoT_LINK/iot_link/os/liteos/base/core\los_task.c ****     }
 570              		.loc 2 247 9 view .LVU174
 571 0014 A268     		ldr	r2, [r4, #8]
 572 0016 21F07841 		bic	r1, r1, #-134217728
 573 001a 22F07843 		bic	r3, r2, #-134217728
 574 001e 0B44     		add	r3, r3, r1
 575 0020 02F07842 		and	r2, r2, #-134217728
 576 0024 1343     		orrs	r3, r3, r2
 577 0026 A360     		str	r3, [r4, #8]
 578              	.LVL32:
 579              	.L32:
 250:C:/Users/²Ü¼ÒºÀ/.iotlink/sdk/IoT_LINK/iot_link/os/liteos/base/core\los_task.c **** }
 580              		.loc 2 250 5 view .LVU175
 251:C:/Users/²Ü¼ÒºÀ/.iotlink/sdk/IoT_LINK/iot_link/os/liteos/base/core\los_task.c **** 
 581              		.loc 2 251 1 is_stmt 0 view .LVU176
 582 0028 5DF8044B 		ldr	r4, [sp], #4
ARM GAS  C:\Users\²Ü¼ÒºÀ\AppData\Local\Temp\ccOngKk7.s 			page 29


 583              	.LCFI10:
 584              		.cfi_restore 4
 585              		.cfi_def_cfa_offset 0
 250:C:/Users/²Ü¼ÒºÀ/.iotlink/sdk/IoT_LINK/iot_link/os/liteos/base/core\los_task.c **** }
 586              		.loc 2 250 5 view .LVU177
 587 002c 3030     		adds	r0, r0, #48
 588              	.LVL33:
 250:C:/Users/²Ü¼ÒºÀ/.iotlink/sdk/IoT_LINK/iot_link/os/liteos/base/core\los_task.c **** }
 589              		.loc 2 250 5 view .LVU178
 590 002e FFF7FEBF 		b	LOS_ListDelete
 591              	.LVL34:
 592              	.L34:
 593 0032 00BF     		.align	2
 594              	.L33:
 595 0034 00000000 		.word	g_stTskSortLink
 596              		.cfi_endproc
 597              	.LFE290:
 599              		.section	.text.osTaskScan,"ax",%progbits
 600              		.align	1
 601              		.global	osTaskScan
 602              		.syntax unified
 603              		.thumb
 604              		.thumb_func
 605              		.fpu fpv4-sp-d16
 607              	osTaskScan:
 608              	.LFB291:
 254:C:/Users/²Ü¼ÒºÀ/.iotlink/sdk/IoT_LINK/iot_link/os/liteos/base/core\los_task.c ****     LOS_TASK_CB *pstTaskCB;
 609              		.loc 2 254 1 is_stmt 1 view -0
 610              		.cfi_startproc
 611              		@ args = 0, pretend = 0, frame = 0
 612              		@ frame_needed = 0, uses_anonymous_args = 0
 255:C:/Users/²Ü¼ÒºÀ/.iotlink/sdk/IoT_LINK/iot_link/os/liteos/base/core\los_task.c ****     BOOL bNeedSchedule = FALSE;
 613              		.loc 2 255 5 view .LVU180
 256:C:/Users/²Ü¼ÒºÀ/.iotlink/sdk/IoT_LINK/iot_link/os/liteos/base/core\los_task.c ****     LOS_DL_LIST *pstListObject;
 614              		.loc 2 256 5 view .LVU181
 615              	.LVL35:
 257:C:/Users/²Ü¼ÒºÀ/.iotlink/sdk/IoT_LINK/iot_link/os/liteos/base/core\los_task.c ****     UINT16 usTempStatus;
 616              		.loc 2 257 5 view .LVU182
 258:C:/Users/²Ü¼ÒºÀ/.iotlink/sdk/IoT_LINK/iot_link/os/liteos/base/core\los_task.c **** 
 617              		.loc 2 258 5 view .LVU183
 260:C:/Users/²Ü¼ÒºÀ/.iotlink/sdk/IoT_LINK/iot_link/os/liteos/base/core\los_task.c ****     pstListObject = g_stTskSortLink.pstSortLink + g_stTskSortLink.usCursor;
 618              		.loc 2 260 5 view .LVU184
 260:C:/Users/²Ü¼ÒºÀ/.iotlink/sdk/IoT_LINK/iot_link/os/liteos/base/core\los_task.c ****     pstListObject = g_stTskSortLink.pstSortLink + g_stTskSortLink.usCursor;
 619              		.loc 2 260 48 is_stmt 0 view .LVU185
 620 0000 294A     		ldr	r2, .L52
 254:C:/Users/²Ü¼ÒºÀ/.iotlink/sdk/IoT_LINK/iot_link/os/liteos/base/core\los_task.c ****     LOS_TASK_CB *pstTaskCB;
 621              		.loc 2 254 1 view .LVU186
 622 0002 F8B5     		push	{r3, r4, r5, r6, r7, lr}
 623              	.LCFI11:
 624              		.cfi_def_cfa_offset 24
 625              		.cfi_offset 3, -24
 626              		.cfi_offset 4, -20
 627              		.cfi_offset 5, -16
 628              		.cfi_offset 6, -12
 629              		.cfi_offset 7, -8
 630              		.cfi_offset 14, -4
 260:C:/Users/²Ü¼ÒºÀ/.iotlink/sdk/IoT_LINK/iot_link/os/liteos/base/core\los_task.c ****     pstListObject = g_stTskSortLink.pstSortLink + g_stTskSortLink.usCursor;
ARM GAS  C:\Users\²Ü¼ÒºÀ\AppData\Local\Temp\ccOngKk7.s 			page 30


 631              		.loc 2 260 48 view .LVU187
 632 0004 9588     		ldrh	r5, [r2, #4]
 260:C:/Users/²Ü¼ÒºÀ/.iotlink/sdk/IoT_LINK/iot_link/os/liteos/base/core\los_task.c ****     pstListObject = g_stTskSortLink.pstSortLink + g_stTskSortLink.usCursor;
 633              		.loc 2 260 58 view .LVU188
 634 0006 0135     		adds	r5, r5, #1
 260:C:/Users/²Ü¼ÒºÀ/.iotlink/sdk/IoT_LINK/iot_link/os/liteos/base/core\los_task.c ****     pstListObject = g_stTskSortLink.pstSortLink + g_stTskSortLink.usCursor;
 635              		.loc 2 260 63 view .LVU189
 636 0008 05F01F03 		and	r3, r5, #31
 261:C:/Users/²Ü¼ÒºÀ/.iotlink/sdk/IoT_LINK/iot_link/os/liteos/base/core\los_task.c ****     if (pstListObject->pstNext == pstListObject)
 637              		.loc 2 261 19 view .LVU190
 638 000c 1568     		ldr	r5, [r2]
 260:C:/Users/²Ü¼ÒºÀ/.iotlink/sdk/IoT_LINK/iot_link/os/liteos/base/core\los_task.c ****     pstListObject = g_stTskSortLink.pstSortLink + g_stTskSortLink.usCursor;
 639              		.loc 2 260 30 view .LVU191
 640 000e 9380     		strh	r3, [r2, #4]	@ movhi
 261:C:/Users/²Ü¼ÒºÀ/.iotlink/sdk/IoT_LINK/iot_link/os/liteos/base/core\los_task.c ****     if (pstListObject->pstNext == pstListObject)
 641              		.loc 2 261 5 is_stmt 1 view .LVU192
 261:C:/Users/²Ü¼ÒºÀ/.iotlink/sdk/IoT_LINK/iot_link/os/liteos/base/core\los_task.c ****     if (pstListObject->pstNext == pstListObject)
 642              		.loc 2 261 19 is_stmt 0 view .LVU193
 643 0010 05EBC305 		add	r5, r5, r3, lsl #3
 644              	.LVL36:
 262:C:/Users/²Ü¼ÒºÀ/.iotlink/sdk/IoT_LINK/iot_link/os/liteos/base/core\los_task.c ****     {
 645              		.loc 2 262 5 is_stmt 1 view .LVU194
 262:C:/Users/²Ü¼ÒºÀ/.iotlink/sdk/IoT_LINK/iot_link/os/liteos/base/core\los_task.c ****     {
 646              		.loc 2 262 22 is_stmt 0 view .LVU195
 647 0014 6C68     		ldr	r4, [r5, #4]
 262:C:/Users/²Ü¼ÒºÀ/.iotlink/sdk/IoT_LINK/iot_link/os/liteos/base/core\los_task.c ****     {
 648              		.loc 2 262 8 view .LVU196
 649 0016 AC42     		cmp	r4, r5
 650 0018 44D0     		beq	.L35
 267:C:/Users/²Ü¼ÒºÀ/.iotlink/sdk/IoT_LINK/iot_link/os/liteos/base/core\los_task.c ****     {
 651              		.loc 2 267 5 is_stmt 1 view .LVU197
 267:C:/Users/²Ü¼ÒºÀ/.iotlink/sdk/IoT_LINK/iot_link/os/liteos/base/core\los_task.c ****     {
 652              		.loc 2 267 20 is_stmt 0 view .LVU198
 653 001a 303C     		subs	r4, r4, #48
 654              	.LVL37:
 256:C:/Users/²Ü¼ÒºÀ/.iotlink/sdk/IoT_LINK/iot_link/os/liteos/base/core\los_task.c ****     LOS_DL_LIST *pstListObject;
 655              		.loc 2 256 10 view .LVU199
 656 001c 0026     		movs	r6, #0
 657              	.LVL38:
 658              	.L38:
 267:C:/Users/²Ü¼ÒºÀ/.iotlink/sdk/IoT_LINK/iot_link/os/liteos/base/core\los_task.c ****     {
 659              		.loc 2 267 92 is_stmt 1 discriminator 1 view .LVU200
 660 001e 04F13000 		add	r0, r4, #48
 267:C:/Users/²Ü¼ÒºÀ/.iotlink/sdk/IoT_LINK/iot_link/os/liteos/base/core\los_task.c ****     {
 661              		.loc 2 267 5 is_stmt 0 discriminator 1 view .LVU201
 662 0022 A842     		cmp	r0, r5
 663 0024 06D0     		beq	.L40
 269:C:/Users/²Ü¼ÒºÀ/.iotlink/sdk/IoT_LINK/iot_link/os/liteos/base/core\los_task.c ****         if (UWROLLNUM(pstTaskCB->uwIdxRollNum) > 0)
 664              		.loc 2 269 9 is_stmt 1 view .LVU202
 270:C:/Users/²Ü¼ÒºÀ/.iotlink/sdk/IoT_LINK/iot_link/os/liteos/base/core\los_task.c ****         {
 665              		.loc 2 270 13 is_stmt 0 view .LVU203
 666 0026 A36B     		ldr	r3, [r4, #56]
 269:C:/Users/²Ü¼ÒºÀ/.iotlink/sdk/IoT_LINK/iot_link/os/liteos/base/core\los_task.c ****         if (UWROLLNUM(pstTaskCB->uwIdxRollNum) > 0)
 667              		.loc 2 269 22 view .LVU204
 668 0028 A188     		ldrh	r1, [r4, #4]
 669              	.LVL39:
 270:C:/Users/²Ü¼ÒºÀ/.iotlink/sdk/IoT_LINK/iot_link/os/liteos/base/core\los_task.c ****         {
ARM GAS  C:\Users\²Ü¼ÒºÀ\AppData\Local\Temp\ccOngKk7.s 			page 31


 670              		.loc 2 270 9 is_stmt 1 view .LVU205
 270:C:/Users/²Ü¼ÒºÀ/.iotlink/sdk/IoT_LINK/iot_link/os/liteos/base/core\los_task.c ****         {
 671              		.loc 2 270 12 is_stmt 0 view .LVU206
 672 002a 33F07847 		bics	r7, r3, #-134217728
 673 002e 07D0     		beq	.L39
 272:C:/Users/²Ü¼ÒºÀ/.iotlink/sdk/IoT_LINK/iot_link/os/liteos/base/core\los_task.c ****             break;
 674              		.loc 2 272 13 is_stmt 1 view .LVU207
 675 0030 013B     		subs	r3, r3, #1
 676 0032 A363     		str	r3, [r4, #56]
 273:C:/Users/²Ü¼ÒºÀ/.iotlink/sdk/IoT_LINK/iot_link/os/liteos/base/core\los_task.c ****         }
 677              		.loc 2 273 13 view .LVU208
 678              	.LVL40:
 679              	.L40:
 308:C:/Users/²Ü¼ÒºÀ/.iotlink/sdk/IoT_LINK/iot_link/os/liteos/base/core\los_task.c ****     {
 680              		.loc 2 308 5 view .LVU209
 308:C:/Users/²Ü¼ÒºÀ/.iotlink/sdk/IoT_LINK/iot_link/os/liteos/base/core\los_task.c ****     {
 681              		.loc 2 308 8 is_stmt 0 view .LVU210
 682 0034 002E     		cmp	r6, #0
 683 0036 35D0     		beq	.L35
 310:C:/Users/²Ü¼ÒºÀ/.iotlink/sdk/IoT_LINK/iot_link/os/liteos/base/core\los_task.c ****     }
 684              		.loc 2 310 9 is_stmt 1 view .LVU211
 312:C:/Users/²Ü¼ÒºÀ/.iotlink/sdk/IoT_LINK/iot_link/os/liteos/base/core\los_task.c **** 
 685              		.loc 2 312 1 is_stmt 0 view .LVU212
 686 0038 BDE8F840 		pop	{r3, r4, r5, r6, r7, lr}
 687              	.LCFI12:
 688              		.cfi_remember_state
 689              		.cfi_restore 14
 690              		.cfi_restore 7
 691              		.cfi_restore 6
 692              		.cfi_restore 5
 693              		.cfi_restore 4
 694              		.cfi_restore 3
 695              		.cfi_def_cfa_offset 0
 696              	.LVL41:
 310:C:/Users/²Ü¼ÒºÀ/.iotlink/sdk/IoT_LINK/iot_link/os/liteos/base/core\los_task.c ****     }
 697              		.loc 2 310 9 view .LVU213
 698 003c FFF7FEBF 		b	LOS_Schedule
 699              	.LVL42:
 700              	.L39:
 701              	.LCFI13:
 702              		.cfi_restore_state
 276:C:/Users/²Ü¼ÒºÀ/.iotlink/sdk/IoT_LINK/iot_link/os/liteos/base/core\los_task.c ****         if (OS_TASK_STATUS_PEND & usTempStatus)
 703              		.loc 2 276 9 is_stmt 1 view .LVU214
 704 0040 FFF7FEFF 		bl	LOS_ListDelete
 705              	.LVL43:
 277:C:/Users/²Ü¼ÒºÀ/.iotlink/sdk/IoT_LINK/iot_link/os/liteos/base/core\los_task.c ****         {
 706              		.loc 2 277 9 view .LVU215
 277:C:/Users/²Ü¼ÒºÀ/.iotlink/sdk/IoT_LINK/iot_link/os/liteos/base/core\los_task.c ****         {
 707              		.loc 2 277 12 is_stmt 0 view .LVU216
 708 0044 0B07     		lsls	r3, r1, #28
 709 0046 18D5     		bpl	.L41
 279:C:/Users/²Ü¼ÒºÀ/.iotlink/sdk/IoT_LINK/iot_link/os/liteos/base/core\los_task.c ****             LOS_ListDelete(&pstTaskCB->stPendList);
 710              		.loc 2 279 13 is_stmt 1 view .LVU217
 279:C:/Users/²Ü¼ÒºÀ/.iotlink/sdk/IoT_LINK/iot_link/os/liteos/base/core\los_task.c ****             LOS_ListDelete(&pstTaskCB->stPendList);
 711              		.loc 2 279 37 is_stmt 0 view .LVU218
 712 0048 A388     		ldrh	r3, [r4, #4]
 713 004a 23F00803 		bic	r3, r3, #8
ARM GAS  C:\Users\²Ü¼ÒºÀ\AppData\Local\Temp\ccOngKk7.s 			page 32


 714 004e A380     		strh	r3, [r4, #4]	@ movhi
 280:C:/Users/²Ü¼ÒºÀ/.iotlink/sdk/IoT_LINK/iot_link/os/liteos/base/core\los_task.c ****             pstTaskCB->pTaskSem = NULL;
 715              		.loc 2 280 13 is_stmt 1 view .LVU219
 716 0050 04F12800 		add	r0, r4, #40
 717 0054 FFF7FEFF 		bl	LOS_ListDelete
 718              	.LVL44:
 281:C:/Users/²Ü¼ÒºÀ/.iotlink/sdk/IoT_LINK/iot_link/os/liteos/base/core\los_task.c ****             pstTaskCB->pTaskMux = NULL;
 719              		.loc 2 281 13 view .LVU220
 282:C:/Users/²Ü¼ÒºÀ/.iotlink/sdk/IoT_LINK/iot_link/os/liteos/base/core\los_task.c ****         }
 720              		.loc 2 282 33 is_stmt 0 view .LVU221
 721 0058 C4E90677 		strd	r7, r7, [r4, #24]
 722              	.L42:
 298:C:/Users/²Ü¼ÒºÀ/.iotlink/sdk/IoT_LINK/iot_link/os/liteos/base/core\los_task.c ****         {
 723              		.loc 2 298 9 is_stmt 1 view .LVU222
 298:C:/Users/²Ü¼ÒºÀ/.iotlink/sdk/IoT_LINK/iot_link/os/liteos/base/core\los_task.c ****         {
 724              		.loc 2 298 12 is_stmt 0 view .LVU223
 725 005c 8B07     		lsls	r3, r1, #30
 726 005e 09D4     		bmi	.L45
 300:C:/Users/²Ü¼ÒºÀ/.iotlink/sdk/IoT_LINK/iot_link/os/liteos/base/core\los_task.c ****             osPriqueueEnqueue(&pstTaskCB->stPendList, pstTaskCB->usPriority);
 727              		.loc 2 300 13 is_stmt 1 view .LVU224
 300:C:/Users/²Ü¼ÒºÀ/.iotlink/sdk/IoT_LINK/iot_link/os/liteos/base/core\los_task.c ****             osPriqueueEnqueue(&pstTaskCB->stPendList, pstTaskCB->usPriority);
 728              		.loc 2 300 37 is_stmt 0 view .LVU225
 729 0060 A388     		ldrh	r3, [r4, #4]
 301:C:/Users/²Ü¼ÒºÀ/.iotlink/sdk/IoT_LINK/iot_link/os/liteos/base/core\los_task.c ****             bNeedSchedule = TRUE;
 730              		.loc 2 301 13 view .LVU226
 731 0062 E188     		ldrh	r1, [r4, #6]
 732              	.LVL45:
 300:C:/Users/²Ü¼ÒºÀ/.iotlink/sdk/IoT_LINK/iot_link/os/liteos/base/core\los_task.c ****             osPriqueueEnqueue(&pstTaskCB->stPendList, pstTaskCB->usPriority);
 733              		.loc 2 300 37 view .LVU227
 734 0064 43F00403 		orr	r3, r3, #4
 735 0068 A380     		strh	r3, [r4, #4]	@ movhi
 301:C:/Users/²Ü¼ÒºÀ/.iotlink/sdk/IoT_LINK/iot_link/os/liteos/base/core\los_task.c ****             bNeedSchedule = TRUE;
 736              		.loc 2 301 13 is_stmt 1 view .LVU228
 737 006a 04F12800 		add	r0, r4, #40
 738 006e FFF7FEFF 		bl	osPriqueueEnqueue
 739              	.LVL46:
 302:C:/Users/²Ü¼ÒºÀ/.iotlink/sdk/IoT_LINK/iot_link/os/liteos/base/core\los_task.c ****         }
 740              		.loc 2 302 13 view .LVU229
 302:C:/Users/²Ü¼ÒºÀ/.iotlink/sdk/IoT_LINK/iot_link/os/liteos/base/core\los_task.c ****         }
 741              		.loc 2 302 27 is_stmt 0 view .LVU230
 742 0072 0126     		movs	r6, #1
 743              	.LVL47:
 744              	.L45:
 305:C:/Users/²Ü¼ÒºÀ/.iotlink/sdk/IoT_LINK/iot_link/os/liteos/base/core\los_task.c ****     }
 745              		.loc 2 305 9 is_stmt 1 view .LVU231
 305:C:/Users/²Ü¼ÒºÀ/.iotlink/sdk/IoT_LINK/iot_link/os/liteos/base/core\los_task.c ****     }
 746              		.loc 2 305 19 is_stmt 0 view .LVU232
 747 0074 6C68     		ldr	r4, [r5, #4]
 748              	.LVL48:
 305:C:/Users/²Ü¼ÒºÀ/.iotlink/sdk/IoT_LINK/iot_link/os/liteos/base/core\los_task.c ****     }
 749              		.loc 2 305 19 view .LVU233
 750 0076 303C     		subs	r4, r4, #48
 751              	.LVL49:
 305:C:/Users/²Ü¼ÒºÀ/.iotlink/sdk/IoT_LINK/iot_link/os/liteos/base/core\los_task.c ****     }
 752              		.loc 2 305 19 view .LVU234
 753 0078 D1E7     		b	.L38
 754              	.LVL50:
ARM GAS  C:\Users\²Ü¼ÒºÀ\AppData\Local\Temp\ccOngKk7.s 			page 33


 755              	.L41:
 284:C:/Users/²Ü¼ÒºÀ/.iotlink/sdk/IoT_LINK/iot_link/os/liteos/base/core\los_task.c ****         {
 756              		.loc 2 284 14 is_stmt 1 view .LVU235
 284:C:/Users/²Ü¼ÒºÀ/.iotlink/sdk/IoT_LINK/iot_link/os/liteos/base/core\los_task.c ****         {
 757              		.loc 2 284 17 is_stmt 0 view .LVU236
 758 007a 4805     		lsls	r0, r1, #21
 759 007c 04D5     		bpl	.L43
 286:C:/Users/²Ü¼ÒºÀ/.iotlink/sdk/IoT_LINK/iot_link/os/liteos/base/core\los_task.c ****         }
 760              		.loc 2 286 13 is_stmt 1 view .LVU237
 286:C:/Users/²Ü¼ÒºÀ/.iotlink/sdk/IoT_LINK/iot_link/os/liteos/base/core\los_task.c ****         }
 761              		.loc 2 286 37 is_stmt 0 view .LVU238
 762 007e A388     		ldrh	r3, [r4, #4]
 763 0080 23F48063 		bic	r3, r3, #1024
 764              	.L51:
 295:C:/Users/²Ü¼ÒºÀ/.iotlink/sdk/IoT_LINK/iot_link/os/liteos/base/core\los_task.c ****         }
 765              		.loc 2 295 37 view .LVU239
 766 0084 A380     		strh	r3, [r4, #4]	@ movhi
 767 0086 E9E7     		b	.L42
 768              	.L43:
 288:C:/Users/²Ü¼ÒºÀ/.iotlink/sdk/IoT_LINK/iot_link/os/liteos/base/core\los_task.c ****         {
 769              		.loc 2 288 14 is_stmt 1 view .LVU240
 288:C:/Users/²Ü¼ÒºÀ/.iotlink/sdk/IoT_LINK/iot_link/os/liteos/base/core\los_task.c ****         {
 770              		.loc 2 288 17 is_stmt 0 view .LVU241
 771 0088 8A04     		lsls	r2, r1, #18
 772 008a 07D5     		bpl	.L44
 290:C:/Users/²Ü¼ÒºÀ/.iotlink/sdk/IoT_LINK/iot_link/os/liteos/base/core\los_task.c ****             pstTaskCB->usTaskStatus &= ~(OS_TASK_STATUS_PEND_QUEUE);
 773              		.loc 2 290 13 is_stmt 1 view .LVU242
 774 008c 04F12800 		add	r0, r4, #40
 775 0090 FFF7FEFF 		bl	LOS_ListDelete
 776              	.LVL51:
 291:C:/Users/²Ü¼ÒºÀ/.iotlink/sdk/IoT_LINK/iot_link/os/liteos/base/core\los_task.c ****         }
 777              		.loc 2 291 13 view .LVU243
 291:C:/Users/²Ü¼ÒºÀ/.iotlink/sdk/IoT_LINK/iot_link/os/liteos/base/core\los_task.c ****         }
 778              		.loc 2 291 37 is_stmt 0 view .LVU244
 779 0094 A388     		ldrh	r3, [r4, #4]
 780 0096 23F40053 		bic	r3, r3, #8192
 781 009a F3E7     		b	.L51
 782              	.L44:
 295:C:/Users/²Ü¼ÒºÀ/.iotlink/sdk/IoT_LINK/iot_link/os/liteos/base/core\los_task.c ****         }
 783              		.loc 2 295 13 is_stmt 1 view .LVU245
 295:C:/Users/²Ü¼ÒºÀ/.iotlink/sdk/IoT_LINK/iot_link/os/liteos/base/core\los_task.c ****         }
 784              		.loc 2 295 37 is_stmt 0 view .LVU246
 785 009c A388     		ldrh	r3, [r4, #4]
 786 009e 23F02003 		bic	r3, r3, #32
 787 00a2 EFE7     		b	.L51
 788              	.LVL52:
 789              	.L35:
 312:C:/Users/²Ü¼ÒºÀ/.iotlink/sdk/IoT_LINK/iot_link/os/liteos/base/core\los_task.c **** 
 790              		.loc 2 312 1 view .LVU247
 791 00a4 F8BD     		pop	{r3, r4, r5, r6, r7, pc}
 792              	.LVL53:
 793              	.L53:
 312:C:/Users/²Ü¼ÒºÀ/.iotlink/sdk/IoT_LINK/iot_link/os/liteos/base/core\los_task.c **** 
 794              		.loc 2 312 1 view .LVU248
 795 00a6 00BF     		.align	2
 796              	.L52:
 797 00a8 00000000 		.word	g_stTskSortLink
ARM GAS  C:\Users\²Ü¼ÒºÀ\AppData\Local\Temp\ccOngKk7.s 			page 34


 798              		.cfi_endproc
 799              	.LFE291:
 801              		.section	.rodata.osConvertTskStatus.str1.1,"aMS",%progbits,1
 802              	.LC4:
 803 0000 496D706F 		.ascii	"Impossible\000"
 803      73736962 
 803      6C6500
 804              	.LC5:
 805 000b 51756575 		.ascii	"QueuePendTimeOut\000"
 805      6550656E 
 805      6454696D 
 805      654F7574 
 805      00
 806              	.LC6:
 807 001c 52756E6E 		.ascii	"Running\000"
 807      696E6700 
 808              	.LC7:
 809 0024 52656164 		.ascii	"Ready\000"
 809      7900
 810              	.LC8:
 811 002a 44656C61 		.ascii	"Delay\000"
 811      7900
 812              	.LC9:
 813 0030 50656E64 		.ascii	"PendTimeOut\000"
 813      54696D65 
 813      4F757400 
 814              	.LC10:
 815 003c 53757370 		.ascii	"Suspend\000"
 815      656E6400 
 816              	.LC11:
 817 0044 50656E64 		.ascii	"Pend\000"
 817      00
 818              	.LC12:
 819 0049 51756575 		.ascii	"QueuePend\000"
 819      6550656E 
 819      6400
 820              		.section	.text.osConvertTskStatus,"ax",%progbits
 821              		.align	1
 822              		.global	osConvertTskStatus
 823              		.syntax unified
 824              		.thumb
 825              		.thumb_func
 826              		.fpu fpv4-sp-d16
 828              	osConvertTskStatus:
 829              	.LVL54:
 830              	.LFB292:
 322:C:/Users/²Ü¼ÒºÀ/.iotlink/sdk/IoT_LINK/iot_link/os/liteos/base/core\los_task.c ****     if (OS_TASK_STATUS_RUNNING & usTaskStatus)
 831              		.loc 2 322 1 is_stmt 1 view -0
 832              		.cfi_startproc
 833              		@ args = 0, pretend = 0, frame = 0
 834              		@ frame_needed = 0, uses_anonymous_args = 0
 835              		@ link register save eliminated.
 323:C:/Users/²Ü¼ÒºÀ/.iotlink/sdk/IoT_LINK/iot_link/os/liteos/base/core\los_task.c ****     {
 836              		.loc 2 323 5 view .LVU250
 323:C:/Users/²Ü¼ÒºÀ/.iotlink/sdk/IoT_LINK/iot_link/os/liteos/base/core\los_task.c ****     {
 837              		.loc 2 323 8 is_stmt 0 view .LVU251
 838 0000 C106     		lsls	r1, r0, #27
ARM GAS  C:\Users\²Ü¼ÒºÀ\AppData\Local\Temp\ccOngKk7.s 			page 35


 839 0002 15D4     		bmi	.L57
 327:C:/Users/²Ü¼ÒºÀ/.iotlink/sdk/IoT_LINK/iot_link/os/liteos/base/core\los_task.c ****     {
 840              		.loc 2 327 10 is_stmt 1 view .LVU252
 327:C:/Users/²Ü¼ÒºÀ/.iotlink/sdk/IoT_LINK/iot_link/os/liteos/base/core\los_task.c ****     {
 841              		.loc 2 327 13 is_stmt 0 view .LVU253
 842 0004 4207     		lsls	r2, r0, #29
 843 0006 15D4     		bmi	.L58
 331:C:/Users/²Ü¼ÒºÀ/.iotlink/sdk/IoT_LINK/iot_link/os/liteos/base/core\los_task.c ****     {
 844              		.loc 2 331 10 is_stmt 1 view .LVU254
 331:C:/Users/²Ü¼ÒºÀ/.iotlink/sdk/IoT_LINK/iot_link/os/liteos/base/core\los_task.c ****     {
 845              		.loc 2 331 13 is_stmt 0 view .LVU255
 846 0008 8306     		lsls	r3, r0, #26
 847 000a 15D4     		bmi	.L59
 335:C:/Users/²Ü¼ÒºÀ/.iotlink/sdk/IoT_LINK/iot_link/os/liteos/base/core\los_task.c ****     {
 848              		.loc 2 335 10 is_stmt 1 view .LVU256
 335:C:/Users/²Ü¼ÒºÀ/.iotlink/sdk/IoT_LINK/iot_link/os/liteos/base/core\los_task.c ****     {
 849              		.loc 2 335 13 is_stmt 0 view .LVU257
 850 000c 0107     		lsls	r1, r0, #28
 851 000e 06D5     		bpl	.L56
 337:C:/Users/²Ü¼ÒºÀ/.iotlink/sdk/IoT_LINK/iot_link/os/liteos/base/core\los_task.c ****         {
 852              		.loc 2 337 9 is_stmt 1 view .LVU258
 337:C:/Users/²Ü¼ÒºÀ/.iotlink/sdk/IoT_LINK/iot_link/os/liteos/base/core\los_task.c ****         {
 853              		.loc 2 337 12 is_stmt 0 view .LVU259
 854 0010 10F0400F 		tst	r0, #64
 342:C:/Users/²Ü¼ÒºÀ/.iotlink/sdk/IoT_LINK/iot_link/os/liteos/base/core\los_task.c ****     }
 855              		.loc 2 342 16 view .LVU260
 856 0014 0B4B     		ldr	r3, .L65
 857 0016 0C48     		ldr	r0, .L65+4
 858              	.LVL55:
 859              	.L64:
 860              	.LBB68:
 861              	.LBB69:
 355:C:/Users/²Ü¼ÒºÀ/.iotlink/sdk/IoT_LINK/iot_link/os/liteos/base/core\los_task.c ****     }
 862              		.loc 2 355 16 view .LVU261
 863 0018 08BF     		it	eq
 864 001a 1846     		moveq	r0, r3
 865 001c 7047     		bx	lr
 866              	.LVL56:
 867              	.L56:
 355:C:/Users/²Ü¼ÒºÀ/.iotlink/sdk/IoT_LINK/iot_link/os/liteos/base/core\los_task.c ****     }
 868              		.loc 2 355 16 view .LVU262
 869              	.LBE69:
 870              	.LBE68:
 344:C:/Users/²Ü¼ÒºÀ/.iotlink/sdk/IoT_LINK/iot_link/os/liteos/base/core\los_task.c ****     {
 871              		.loc 2 344 10 is_stmt 1 view .LVU263
 344:C:/Users/²Ü¼ÒºÀ/.iotlink/sdk/IoT_LINK/iot_link/os/liteos/base/core\los_task.c ****     {
 872              		.loc 2 344 13 is_stmt 0 view .LVU264
 873 001e 8207     		lsls	r2, r0, #30
 874 0020 0CD4     		bmi	.L61
 875              	.LVL57:
 876              	.LBB72:
 877              	.LBI68:
 321:C:/Users/²Ü¼ÒºÀ/.iotlink/sdk/IoT_LINK/iot_link/os/liteos/base/core\los_task.c **** {
 878              		.loc 2 321 31 is_stmt 1 view .LVU265
 879              	.LBB70:
 348:C:/Users/²Ü¼ÒºÀ/.iotlink/sdk/IoT_LINK/iot_link/os/liteos/base/core\los_task.c ****     {
 880              		.loc 2 348 10 view .LVU266
ARM GAS  C:\Users\²Ü¼ÒºÀ\AppData\Local\Temp\ccOngKk7.s 			page 36


 348:C:/Users/²Ü¼ÒºÀ/.iotlink/sdk/IoT_LINK/iot_link/os/liteos/base/core\los_task.c ****     {
 881              		.loc 2 348 13 is_stmt 0 view .LVU267
 882 0022 8304     		lsls	r3, r0, #18
 883 0024 0CD5     		bpl	.L62
 350:C:/Users/²Ü¼ÒºÀ/.iotlink/sdk/IoT_LINK/iot_link/os/liteos/base/core\los_task.c ****         {
 884              		.loc 2 350 9 is_stmt 1 view .LVU268
 350:C:/Users/²Ü¼ÒºÀ/.iotlink/sdk/IoT_LINK/iot_link/os/liteos/base/core\los_task.c ****         {
 885              		.loc 2 350 12 is_stmt 0 view .LVU269
 886 0026 10F0400F 		tst	r0, #64
 355:C:/Users/²Ü¼ÒºÀ/.iotlink/sdk/IoT_LINK/iot_link/os/liteos/base/core\los_task.c ****     }
 887              		.loc 2 355 16 view .LVU270
 888 002a 084B     		ldr	r3, .L65+8
 889 002c 0848     		ldr	r0, .L65+12
 890              	.LVL58:
 355:C:/Users/²Ü¼ÒºÀ/.iotlink/sdk/IoT_LINK/iot_link/os/liteos/base/core\los_task.c ****     }
 891              		.loc 2 355 16 view .LVU271
 892 002e F3E7     		b	.L64
 893              	.LVL59:
 894              	.L57:
 355:C:/Users/²Ü¼ÒºÀ/.iotlink/sdk/IoT_LINK/iot_link/os/liteos/base/core\los_task.c ****     }
 895              		.loc 2 355 16 view .LVU272
 896              	.LBE70:
 897              	.LBE72:
 325:C:/Users/²Ü¼ÒºÀ/.iotlink/sdk/IoT_LINK/iot_link/os/liteos/base/core\los_task.c ****     }
 898              		.loc 2 325 16 view .LVU273
 899 0030 0848     		ldr	r0, .L65+16
 900              	.LVL60:
 325:C:/Users/²Ü¼ÒºÀ/.iotlink/sdk/IoT_LINK/iot_link/os/liteos/base/core\los_task.c ****     }
 901              		.loc 2 325 16 view .LVU274
 902 0032 7047     		bx	lr
 903              	.LVL61:
 904              	.L58:
 329:C:/Users/²Ü¼ÒºÀ/.iotlink/sdk/IoT_LINK/iot_link/os/liteos/base/core\los_task.c ****     }
 905              		.loc 2 329 16 view .LVU275
 906 0034 0848     		ldr	r0, .L65+20
 907              	.LVL62:
 329:C:/Users/²Ü¼ÒºÀ/.iotlink/sdk/IoT_LINK/iot_link/os/liteos/base/core\los_task.c ****     }
 908              		.loc 2 329 16 view .LVU276
 909 0036 7047     		bx	lr
 910              	.LVL63:
 911              	.L59:
 333:C:/Users/²Ü¼ÒºÀ/.iotlink/sdk/IoT_LINK/iot_link/os/liteos/base/core\los_task.c ****     }
 912              		.loc 2 333 16 view .LVU277
 913 0038 0848     		ldr	r0, .L65+24
 914              	.LVL64:
 333:C:/Users/²Ü¼ÒºÀ/.iotlink/sdk/IoT_LINK/iot_link/os/liteos/base/core\los_task.c ****     }
 915              		.loc 2 333 16 view .LVU278
 916 003a 7047     		bx	lr
 917              	.LVL65:
 918              	.L61:
 346:C:/Users/²Ü¼ÒºÀ/.iotlink/sdk/IoT_LINK/iot_link/os/liteos/base/core\los_task.c ****     }
 919              		.loc 2 346 16 view .LVU279
 920 003c 0848     		ldr	r0, .L65+28
 921              	.LVL66:
 346:C:/Users/²Ü¼ÒºÀ/.iotlink/sdk/IoT_LINK/iot_link/os/liteos/base/core\los_task.c ****     }
 922              		.loc 2 346 16 view .LVU280
 923 003e 7047     		bx	lr
ARM GAS  C:\Users\²Ü¼ÒºÀ\AppData\Local\Temp\ccOngKk7.s 			page 37


 924              	.LVL67:
 925              	.L62:
 926              	.LBB73:
 927              	.LBB71:
 358:C:/Users/²Ü¼ÒºÀ/.iotlink/sdk/IoT_LINK/iot_link/os/liteos/base/core\los_task.c **** }
 928              		.loc 2 358 12 view .LVU281
 929 0040 0848     		ldr	r0, .L65+32
 930              	.LVL68:
 358:C:/Users/²Ü¼ÒºÀ/.iotlink/sdk/IoT_LINK/iot_link/os/liteos/base/core\los_task.c **** }
 931              		.loc 2 358 12 view .LVU282
 932              	.LBE71:
 933              	.LBE73:
 359:C:/Users/²Ü¼ÒºÀ/.iotlink/sdk/IoT_LINK/iot_link/os/liteos/base/core\los_task.c **** 
 934              		.loc 2 359 1 view .LVU283
 935 0042 7047     		bx	lr
 936              	.L66:
 937              		.align	2
 938              	.L65:
 939 0044 44000000 		.word	.LC11
 940 0048 30000000 		.word	.LC9
 941 004c 49000000 		.word	.LC12
 942 0050 0B000000 		.word	.LC5
 943 0054 1C000000 		.word	.LC6
 944 0058 24000000 		.word	.LC7
 945 005c 2A000000 		.word	.LC8
 946 0060 3C000000 		.word	.LC10
 947 0064 00000000 		.word	.LC4
 948              		.cfi_endproc
 949              	.LFE292:
 951              		.section	.rodata.osGetTaskWaterLine.str1.1,"aMS",%progbits,1
 952              	.LC13:
 953 0000 43555252 		.ascii	"CURRENT task %s stack overflow!\012\000"
 953      454E5420 
 953      7461736B 
 953      20257320 
 953      73746163 
 954              		.section	.text.osGetTaskWaterLine,"ax",%progbits
 955              		.align	1
 956              		.global	osGetTaskWaterLine
 957              		.syntax unified
 958              		.thumb
 959              		.thumb_func
 960              		.fpu fpv4-sp-d16
 962              	osGetTaskWaterLine:
 963              	.LVL69:
 964              	.LFB293:
 362:C:/Users/²Ü¼ÒºÀ/.iotlink/sdk/IoT_LINK/iot_link/os/liteos/base/core\los_task.c ****     UINT32 *puwStack;
 965              		.loc 2 362 1 is_stmt 1 view -0
 966              		.cfi_startproc
 967              		@ args = 0, pretend = 0, frame = 0
 968              		@ frame_needed = 0, uses_anonymous_args = 0
 363:C:/Users/²Ü¼ÒºÀ/.iotlink/sdk/IoT_LINK/iot_link/os/liteos/base/core\los_task.c ****     UINT32 uwPeakUsed;
 969              		.loc 2 363 5 view .LVU285
 364:C:/Users/²Ü¼ÒºÀ/.iotlink/sdk/IoT_LINK/iot_link/os/liteos/base/core\los_task.c ****     LOS_TASK_CB * pstTaskCB = OS_TCB_FROM_TID(uwTaskID);
 970              		.loc 2 364 5 view .LVU286
 365:C:/Users/²Ü¼ÒºÀ/.iotlink/sdk/IoT_LINK/iot_link/os/liteos/base/core\los_task.c **** 
 971              		.loc 2 365 5 view .LVU287
ARM GAS  C:\Users\²Ü¼ÒºÀ\AppData\Local\Temp\ccOngKk7.s 			page 38


 365:C:/Users/²Ü¼ÒºÀ/.iotlink/sdk/IoT_LINK/iot_link/os/liteos/base/core\los_task.c **** 
 972              		.loc 2 365 31 is_stmt 0 view .LVU288
 973 0000 5423     		movs	r3, #84
 974 0002 5843     		muls	r0, r3, r0
 975              	.LVL70:
 365:C:/Users/²Ü¼ÒºÀ/.iotlink/sdk/IoT_LINK/iot_link/os/liteos/base/core\los_task.c **** 
 976              		.loc 2 365 19 view .LVU289
 977 0004 104B     		ldr	r3, .L74
 978 0006 1968     		ldr	r1, [r3]
 362:C:/Users/²Ü¼ÒºÀ/.iotlink/sdk/IoT_LINK/iot_link/os/liteos/base/core\los_task.c ****     UINT32 *puwStack;
 979              		.loc 2 362 1 view .LVU290
 980 0008 10B5     		push	{r4, lr}
 981              	.LCFI14:
 982              		.cfi_def_cfa_offset 8
 983              		.cfi_offset 4, -8
 984              		.cfi_offset 14, -4
 365:C:/Users/²Ü¼ÒºÀ/.iotlink/sdk/IoT_LINK/iot_link/os/liteos/base/core\los_task.c **** 
 985              		.loc 2 365 19 view .LVU291
 986 000a 0C18     		adds	r4, r1, r0
 987              	.LVL71:
 367:C:/Users/²Ü¼ÒºÀ/.iotlink/sdk/IoT_LINK/iot_link/os/liteos/base/core\los_task.c ****     {
 988              		.loc 2 367 5 is_stmt 1 view .LVU292
 367:C:/Users/²Ü¼ÒºÀ/.iotlink/sdk/IoT_LINK/iot_link/os/liteos/base/core\los_task.c ****     {
 989              		.loc 2 367 51 is_stmt 0 view .LVU293
 990 000c E368     		ldr	r3, [r4, #12]
 367:C:/Users/²Ü¼ÒºÀ/.iotlink/sdk/IoT_LINK/iot_link/os/liteos/base/core\los_task.c ****     {
 991              		.loc 2 367 8 view .LVU294
 992 000e 1A68     		ldr	r2, [r3]
 993 0010 B2F1CC3F 		cmp	r2, #-858993460
 994 0014 0DD1     		bne	.L68
 369:C:/Users/²Ü¼ÒºÀ/.iotlink/sdk/IoT_LINK/iot_link/os/liteos/base/core\los_task.c ****         while ((puwStack < (UINT32 *)pstTaskCB->pStackPointer) && (*puwStack == 0xCACACACA))
 995              		.loc 2 369 9 is_stmt 1 view .LVU295
 370:C:/Users/²Ü¼ÒºÀ/.iotlink/sdk/IoT_LINK/iot_link/os/liteos/base/core\los_task.c ****         {
 996              		.loc 2 370 47 is_stmt 0 view .LVU296
 997 0016 0858     		ldr	r0, [r1, r0]
 369:C:/Users/²Ü¼ÒºÀ/.iotlink/sdk/IoT_LINK/iot_link/os/liteos/base/core\los_task.c ****         while ((puwStack < (UINT32 *)pstTaskCB->pStackPointer) && (*puwStack == 0xCACACACA))
 998              		.loc 2 369 55 view .LVU297
 999 0018 1A1D     		adds	r2, r3, #4
 1000              	.LVL72:
 370:C:/Users/²Ü¼ÒºÀ/.iotlink/sdk/IoT_LINK/iot_link/os/liteos/base/core\los_task.c ****         {
 1001              		.loc 2 370 9 is_stmt 1 view .LVU298
 1002              	.L69:
 370:C:/Users/²Ü¼ÒºÀ/.iotlink/sdk/IoT_LINK/iot_link/os/liteos/base/core\los_task.c ****         {
 1003              		.loc 2 370 15 view .LVU299
 1004 001a 9042     		cmp	r0, r2
 1005 001c 03D8     		bhi	.L70
 1006              	.L73:
 374:C:/Users/²Ü¼ÒºÀ/.iotlink/sdk/IoT_LINK/iot_link/os/liteos/base/core\los_task.c ****     }
 1007              		.loc 2 374 9 view .LVU300
 374:C:/Users/²Ü¼ÒºÀ/.iotlink/sdk/IoT_LINK/iot_link/os/liteos/base/core\los_task.c ****     }
 1008              		.loc 2 374 20 is_stmt 0 view .LVU301
 1009 001e A068     		ldr	r0, [r4, #8]
 1010 0020 0344     		add	r3, r3, r0
 1011 0022 981A     		subs	r0, r3, r2
 1012              	.LVL73:
 1013              	.L67:
 382:C:/Users/²Ü¼ÒºÀ/.iotlink/sdk/IoT_LINK/iot_link/os/liteos/base/core\los_task.c **** 
ARM GAS  C:\Users\²Ü¼ÒºÀ\AppData\Local\Temp\ccOngKk7.s 			page 39


 1014              		.loc 2 382 1 view .LVU302
 1015 0024 10BD     		pop	{r4, pc}
 1016              	.LVL74:
 1017              	.L70:
 370:C:/Users/²Ü¼ÒºÀ/.iotlink/sdk/IoT_LINK/iot_link/os/liteos/base/core\los_task.c ****         {
 1018              		.loc 2 370 64 discriminator 1 view .LVU303
 1019 0026 1168     		ldr	r1, [r2]
 1020 0028 B1F1CA3F 		cmp	r1, #-892679478
 1021 002c F7D1     		bne	.L73
 372:C:/Users/²Ü¼ÒºÀ/.iotlink/sdk/IoT_LINK/iot_link/os/liteos/base/core\los_task.c ****         }
 1022              		.loc 2 372 13 is_stmt 1 view .LVU304
 372:C:/Users/²Ü¼ÒºÀ/.iotlink/sdk/IoT_LINK/iot_link/os/liteos/base/core\los_task.c ****         }
 1023              		.loc 2 372 22 is_stmt 0 view .LVU305
 1024 002e 0432     		adds	r2, r2, #4
 1025              	.LVL75:
 372:C:/Users/²Ü¼ÒºÀ/.iotlink/sdk/IoT_LINK/iot_link/os/liteos/base/core\los_task.c ****         }
 1026              		.loc 2 372 22 view .LVU306
 1027 0030 F3E7     		b	.L69
 1028              	.LVL76:
 1029              	.L68:
 378:C:/Users/²Ü¼ÒºÀ/.iotlink/sdk/IoT_LINK/iot_link/os/liteos/base/core\los_task.c ****         uwPeakUsed = 0xFFFFFFFF;
 1030              		.loc 2 378 9 is_stmt 1 view .LVU307
 378:C:/Users/²Ü¼ÒºÀ/.iotlink/sdk/IoT_LINK/iot_link/os/liteos/base/core\los_task.c ****         uwPeakUsed = 0xFFFFFFFF;
 1031              		.loc 2 378 9 view .LVU308
 1032 0032 0648     		ldr	r0, .L74+4
 1033 0034 FFF7FEFF 		bl	printf
 1034              	.LVL77:
 1035 0038 616A     		ldr	r1, [r4, #36]
 1036 003a 0548     		ldr	r0, .L74+8
 1037 003c FFF7FEFF 		bl	printf
 1038              	.LVL78:
 378:C:/Users/²Ü¼ÒºÀ/.iotlink/sdk/IoT_LINK/iot_link/os/liteos/base/core\los_task.c ****         uwPeakUsed = 0xFFFFFFFF;
 1039              		.loc 2 378 9 view .LVU309
 379:C:/Users/²Ü¼ÒºÀ/.iotlink/sdk/IoT_LINK/iot_link/os/liteos/base/core\los_task.c ****     }
 1040              		.loc 2 379 9 view .LVU310
 379:C:/Users/²Ü¼ÒºÀ/.iotlink/sdk/IoT_LINK/iot_link/os/liteos/base/core\los_task.c ****     }
 1041              		.loc 2 379 20 is_stmt 0 view .LVU311
 1042 0040 4FF0FF30 		mov	r0, #-1
 381:C:/Users/²Ü¼ÒºÀ/.iotlink/sdk/IoT_LINK/iot_link/os/liteos/base/core\los_task.c **** }
 1043              		.loc 2 381 5 is_stmt 1 view .LVU312
 381:C:/Users/²Ü¼ÒºÀ/.iotlink/sdk/IoT_LINK/iot_link/os/liteos/base/core\los_task.c **** }
 1044              		.loc 2 381 12 is_stmt 0 view .LVU313
 1045 0044 EEE7     		b	.L67
 1046              	.L75:
 1047 0046 00BF     		.align	2
 1048              	.L74:
 1049 0048 00000000 		.word	g_pstTaskCBArray
 1050 004c 00000000 		.word	.LC0
 1051 0050 00000000 		.word	.LC13
 1052              		.cfi_endproc
 1053              	.LFE293:
 1055              		.section	.rodata.osGetAllTskInfo.str1.1,"aMS",%progbits,1
 1056              	.LC14:
 1057 0000 0D0A4E61 		.ascii	"\015\012Name            TID    Priority   Status   "
 1057      6D652020 
 1057      20202020 
 1057      20202020 
ARM GAS  C:\Users\²Ü¼ÒºÀ\AppData\Local\Temp\ccOngKk7.s 			page 40


 1057      20205449 
 1058 002d 20202020 		.ascii	"    StackSize    WaterLine    StackPoint  TopOfStac"
 1058      53746163 
 1058      6B53697A 
 1058      65202020 
 1058      20576174 
 1059 0060 6B202020 		.ascii	"k   EventMask  SemID\000"
 1059      4576656E 
 1059      744D6173 
 1059      6B202053 
 1059      656D4944 
 1060              	.LC15:
 1061 0075 0A0D00   		.ascii	"\012\015\000"
 1062              	.LC16:
 1063 0078 2D2D2D2D 		.ascii	"----            ---    --------   --------     ----"
 1063      20202020 
 1063      20202020 
 1063      20202020 
 1063      2D2D2D20 
 1064 00ab 2D2D2D2D 		.ascii	"-----    ----------   ----------  ----------   ----"
 1064      2D202020 
 1064      202D2D2D 
 1064      2D2D2D2D 
 1064      2D2D2D20 
 1065 00de 2D2D2D2D 		.ascii	"-----  -----\000"
 1065      2D20202D 
 1065      2D2D2D2D 
 1065      00
 1066              	.LC17:
 1067 00eb 252D3136 		.ascii	"%-16s0x%-5x%-11d%-13s0x%-11x0x%-11x0x%-10x0x%-11x0x"
 1067      73307825 
 1067      2D357825 
 1067      2D313164 
 1067      252D3133 
 1068 011e 252D3978 		.ascii	"%-9x\000"
 1068      00
 1069              	.LC18:
 1070 0123 3078252D 		.ascii	"0x%-7x\000"
 1070      377800
 1071              	.LC19:
 1072 012a 0D00     		.ascii	"\015\000"
 1073              		.section	.text.osGetAllTskInfo,"ax",%progbits
 1074              		.align	1
 1075              		.global	osGetAllTskInfo
 1076              		.syntax unified
 1077              		.thumb
 1078              		.thumb_func
 1079              		.fpu fpv4-sp-d16
 1081              	osGetAllTskInfo:
 1082              	.LFB294:
 392:C:/Users/²Ü¼ÒºÀ/.iotlink/sdk/IoT_LINK/iot_link/os/liteos/base/core\los_task.c ****     LOS_TASK_CB *pstTaskCB;
 1083              		.loc 2 392 1 is_stmt 1 view -0
 1084              		.cfi_startproc
 1085              		@ args = 0, pretend = 0, frame = 16
 1086              		@ frame_needed = 0, uses_anonymous_args = 0
 393:C:/Users/²Ü¼ÒºÀ/.iotlink/sdk/IoT_LINK/iot_link/os/liteos/base/core\los_task.c ****     UINT32       uwLoop;
 1087              		.loc 2 393 5 view .LVU315
ARM GAS  C:\Users\²Ü¼ÒºÀ\AppData\Local\Temp\ccOngKk7.s 			page 41


 394:C:/Users/²Ü¼ÒºÀ/.iotlink/sdk/IoT_LINK/iot_link/os/liteos/base/core\los_task.c **** #if (LOSCFG_BASE_CORE_CPUP == YES)
 1088              		.loc 2 394 5 view .LVU316
 436:C:/Users/²Ü¼ÒºÀ/.iotlink/sdk/IoT_LINK/iot_link/os/liteos/base/core\los_task.c **** #if (LOSCFG_BASE_CORE_CPUP == YES)
 1089              		.loc 2 436 5 view .LVU317
 392:C:/Users/²Ü¼ÒºÀ/.iotlink/sdk/IoT_LINK/iot_link/os/liteos/base/core\los_task.c ****     LOS_TASK_CB *pstTaskCB;
 1090              		.loc 2 392 1 is_stmt 0 view .LVU318
 1091 0000 2DE9F04F 		push	{r4, r5, r6, r7, r8, r9, r10, fp, lr}
 1092              	.LCFI15:
 1093              		.cfi_def_cfa_offset 36
 1094              		.cfi_offset 4, -36
 1095              		.cfi_offset 5, -32
 1096              		.cfi_offset 6, -28
 1097              		.cfi_offset 7, -24
 1098              		.cfi_offset 8, -20
 1099              		.cfi_offset 9, -16
 1100              		.cfi_offset 10, -12
 1101              		.cfi_offset 11, -8
 1102              		.cfi_offset 14, -4
 436:C:/Users/²Ü¼ÒºÀ/.iotlink/sdk/IoT_LINK/iot_link/os/liteos/base/core\los_task.c **** #if (LOSCFG_BASE_CORE_CPUP == YES)
 1103              		.loc 2 436 5 view .LVU319
 1104 0004 2848     		ldr	r0, .L83
 447:C:/Users/²Ü¼ÒºÀ/.iotlink/sdk/IoT_LINK/iot_link/os/liteos/base/core\los_task.c ****     {
 1105              		.loc 2 447 29 view .LVU320
 1106 0006 DFF8B8A0 		ldr	r10, .L83+24
 457:C:/Users/²Ü¼ÒºÀ/.iotlink/sdk/IoT_LINK/iot_link/os/liteos/base/core\los_task.c ****                           pstTaskCB->pcTaskName,
 1107              		.loc 2 457 9 view .LVU321
 1108 000a DFF8B8B0 		ldr	fp, .L83+28
 392:C:/Users/²Ü¼ÒºÀ/.iotlink/sdk/IoT_LINK/iot_link/os/liteos/base/core\los_task.c ****     LOS_TASK_CB *pstTaskCB;
 1109              		.loc 2 392 1 view .LVU322
 1110 000e 8BB0     		sub	sp, sp, #44
 1111              	.LCFI16:
 1112              		.cfi_def_cfa_offset 80
 436:C:/Users/²Ü¼ÒºÀ/.iotlink/sdk/IoT_LINK/iot_link/os/liteos/base/core\los_task.c **** #if (LOSCFG_BASE_CORE_CPUP == YES)
 1113              		.loc 2 436 5 view .LVU323
 1114 0010 FFF7FEFF 		bl	printf
 1115              	.LVL79:
 440:C:/Users/²Ü¼ÒºÀ/.iotlink/sdk/IoT_LINK/iot_link/os/liteos/base/core\los_task.c ****     PRINTK("----            ---    --------   --------     ---------    ----------   ----------  --
 1116              		.loc 2 440 5 is_stmt 1 view .LVU324
 1117 0014 2548     		ldr	r0, .L83+4
 1118 0016 FFF7FEFF 		bl	printf
 1119              	.LVL80:
 441:C:/Users/²Ü¼ÒºÀ/.iotlink/sdk/IoT_LINK/iot_link/os/liteos/base/core\los_task.c **** #if (LOSCFG_BASE_CORE_CPUP == YES)
 1120              		.loc 2 441 5 view .LVU325
 1121 001a 2548     		ldr	r0, .L83+8
 1122 001c FFF7FEFF 		bl	printf
 1123              	.LVL81:
 445:C:/Users/²Ü¼ÒºÀ/.iotlink/sdk/IoT_LINK/iot_link/os/liteos/base/core\los_task.c **** 
 1124              		.loc 2 445 5 view .LVU326
 1125 0020 2248     		ldr	r0, .L83+4
 1126 0022 FFF7FEFF 		bl	printf
 1127              	.LVL82:
 447:C:/Users/²Ü¼ÒºÀ/.iotlink/sdk/IoT_LINK/iot_link/os/liteos/base/core\los_task.c ****     {
 1128              		.loc 2 447 5 view .LVU327
 447:C:/Users/²Ü¼ÒºÀ/.iotlink/sdk/IoT_LINK/iot_link/os/liteos/base/core\los_task.c ****     {
 1129              		.loc 2 447 17 is_stmt 0 view .LVU328
 1130 0026 0025     		movs	r5, #0
 1131              	.LVL83:
ARM GAS  C:\Users\²Ü¼ÒºÀ\AppData\Local\Temp\ccOngKk7.s 			page 42


 1132              	.L77:
 447:C:/Users/²Ü¼ÒºÀ/.iotlink/sdk/IoT_LINK/iot_link/os/liteos/base/core\los_task.c ****     {
 1133              		.loc 2 447 22 is_stmt 1 discriminator 1 view .LVU329
 447:C:/Users/²Ü¼ÒºÀ/.iotlink/sdk/IoT_LINK/iot_link/os/liteos/base/core\los_task.c ****     {
 1134              		.loc 2 447 5 is_stmt 0 discriminator 1 view .LVU330
 1135 0028 DAF80030 		ldr	r3, [r10]
 1136 002c AB42     		cmp	r3, r5
 1137 002e 03D8     		bhi	.L81
 497:C:/Users/²Ü¼ÒºÀ/.iotlink/sdk/IoT_LINK/iot_link/os/liteos/base/core\los_task.c **** }
 1138              		.loc 2 497 5 is_stmt 1 view .LVU331
 498:C:/Users/²Ü¼ÒºÀ/.iotlink/sdk/IoT_LINK/iot_link/os/liteos/base/core\los_task.c **** 
 1139              		.loc 2 498 1 is_stmt 0 view .LVU332
 1140 0030 0020     		movs	r0, #0
 1141 0032 0BB0     		add	sp, sp, #44
 1142              	.LCFI17:
 1143              		.cfi_remember_state
 1144              		.cfi_def_cfa_offset 36
 1145              		@ sp needed
 1146 0034 BDE8F08F 		pop	{r4, r5, r6, r7, r8, r9, r10, fp, pc}
 1147              	.LVL84:
 1148              	.L81:
 1149              	.LCFI18:
 1150              		.cfi_restore_state
 450:C:/Users/²Ü¼ÒºÀ/.iotlink/sdk/IoT_LINK/iot_link/os/liteos/base/core\los_task.c ****         if (pstTaskCB->usTaskStatus & OS_TASK_STATUS_UNUSED)
 1151              		.loc 2 450 9 is_stmt 1 view .LVU333
 450:C:/Users/²Ü¼ÒºÀ/.iotlink/sdk/IoT_LINK/iot_link/os/liteos/base/core\los_task.c ****         if (pstTaskCB->usTaskStatus & OS_TASK_STATUS_UNUSED)
 1152              		.loc 2 450 19 is_stmt 0 view .LVU334
 1153 0038 1E4B     		ldr	r3, .L83+12
 1154 003a 5426     		movs	r6, #84
 1155 003c D3F80090 		ldr	r9, [r3]
 1156 0040 6E43     		muls	r6, r5, r6
 1157 0042 09EB0604 		add	r4, r9, r6
 1158              	.LVL85:
 451:C:/Users/²Ü¼ÒºÀ/.iotlink/sdk/IoT_LINK/iot_link/os/liteos/base/core\los_task.c ****         {
 1159              		.loc 2 451 9 is_stmt 1 view .LVU335
 451:C:/Users/²Ü¼ÒºÀ/.iotlink/sdk/IoT_LINK/iot_link/os/liteos/base/core\los_task.c ****         {
 1160              		.loc 2 451 22 is_stmt 0 view .LVU336
 1161 0046 A088     		ldrh	r0, [r4, #4]
 451:C:/Users/²Ü¼ÒºÀ/.iotlink/sdk/IoT_LINK/iot_link/os/liteos/base/core\los_task.c ****         {
 1162              		.loc 2 451 12 view .LVU337
 1163 0048 C307     		lsls	r3, r0, #31
 1164 004a 27D4     		bmi	.L78
 457:C:/Users/²Ü¼ÒºÀ/.iotlink/sdk/IoT_LINK/iot_link/os/liteos/base/core\los_task.c ****                           pstTaskCB->pcTaskName,
 1165              		.loc 2 457 9 is_stmt 1 view .LVU338
 1166 004c 616A     		ldr	r1, [r4, #36]
 1167 004e E388     		ldrh	r3, [r4, #6]
 1168 0050 0991     		str	r1, [sp, #36]
 1169 0052 0893     		str	r3, [sp, #32]
 1170 0054 FFF7FEFF 		bl	osConvertTskStatus
 1171              	.LVL86:
 1172 0058 D4F81080 		ldr	r8, [r4, #16]
 1173 005c A268     		ldr	r2, [r4, #8]
 1174 005e 0792     		str	r2, [sp, #28]
 1175 0060 0746     		mov	r7, r0
 1176 0062 4046     		mov	r0, r8
 1177 0064 FFF7FEFF 		bl	osGetTaskWaterLine
 1178              	.LVL87:
ARM GAS  C:\Users\²Ü¼ÒºÀ\AppData\Local\Temp\ccOngKk7.s 			page 43


 1179 0068 A36C     		ldr	r3, [r4, #72]
 1180 006a 0593     		str	r3, [sp, #20]
 1181 006c E368     		ldr	r3, [r4, #12]
 1182 006e 0493     		str	r3, [sp, #16]
 1183 0070 59F80660 		ldr	r6, [r9, r6]
 1184 0074 079A     		ldr	r2, [sp, #28]
 1185 0076 089B     		ldr	r3, [sp, #32]
 1186 0078 0999     		ldr	r1, [sp, #36]
 1187 007a CDE90206 		strd	r0, r6, [sp, #8]
 1188 007e CDE90072 		strd	r7, r2, [sp]
 1189 0082 5846     		mov	r0, fp
 1190 0084 4246     		mov	r2, r8
 1191 0086 FFF7FEFF 		bl	printf
 1192              	.LVL88:
 468:C:/Users/²Ü¼ÒºÀ/.iotlink/sdk/IoT_LINK/iot_link/os/liteos/base/core\los_task.c ****         {
 1193              		.loc 2 468 9 view .LVU339
 468:C:/Users/²Ü¼ÒºÀ/.iotlink/sdk/IoT_LINK/iot_link/os/liteos/base/core\los_task.c ****         {
 1194              		.loc 2 468 22 is_stmt 0 view .LVU340
 1195 008a A369     		ldr	r3, [r4, #24]
 468:C:/Users/²Ü¼ÒºÀ/.iotlink/sdk/IoT_LINK/iot_link/os/liteos/base/core\los_task.c ****         {
 1196              		.loc 2 468 12 view .LVU341
 1197 008c 43B1     		cbz	r3, .L79
 470:C:/Users/²Ü¼ÒºÀ/.iotlink/sdk/IoT_LINK/iot_link/os/liteos/base/core\los_task.c ****         }
 1198              		.loc 2 470 13 is_stmt 1 view .LVU342
 1199 008e D988     		ldrh	r1, [r3, #6]
 1200              	.L82:
 474:C:/Users/²Ü¼ÒºÀ/.iotlink/sdk/IoT_LINK/iot_link/os/liteos/base/core\los_task.c ****         }
 1201              		.loc 2 474 13 is_stmt 0 view .LVU343
 1202 0090 0948     		ldr	r0, .L83+16
 1203 0092 FFF7FEFF 		bl	printf
 1204              	.LVL89:
 488:C:/Users/²Ü¼ÒºÀ/.iotlink/sdk/IoT_LINK/iot_link/os/liteos/base/core\los_task.c ****     }
 1205              		.loc 2 488 9 is_stmt 1 view .LVU344
 1206 0096 0948     		ldr	r0, .L83+20
 1207 0098 FFF7FEFF 		bl	puts
 1208              	.LVL90:
 1209              	.L78:
 447:C:/Users/²Ü¼ÒºÀ/.iotlink/sdk/IoT_LINK/iot_link/os/liteos/base/core\los_task.c ****     {
 1210              		.loc 2 447 46 discriminator 2 view .LVU345
 447:C:/Users/²Ü¼ÒºÀ/.iotlink/sdk/IoT_LINK/iot_link/os/liteos/base/core\los_task.c ****     {
 1211              		.loc 2 447 52 is_stmt 0 discriminator 2 view .LVU346
 1212 009c 0135     		adds	r5, r5, #1
 1213              	.LVL91:
 447:C:/Users/²Ü¼ÒºÀ/.iotlink/sdk/IoT_LINK/iot_link/os/liteos/base/core\los_task.c ****     {
 1214              		.loc 2 447 52 discriminator 2 view .LVU347
 1215 009e C3E7     		b	.L77
 1216              	.L79:
 474:C:/Users/²Ü¼ÒºÀ/.iotlink/sdk/IoT_LINK/iot_link/os/liteos/base/core\los_task.c ****         }
 1217              		.loc 2 474 13 is_stmt 1 view .LVU348
 1218 00a0 4FF6FF71 		movw	r1, #65535
 1219 00a4 F4E7     		b	.L82
 1220              	.L84:
 1221 00a6 00BF     		.align	2
 1222              	.L83:
 1223 00a8 00000000 		.word	.LC14
 1224 00ac 75000000 		.word	.LC15
 1225 00b0 78000000 		.word	.LC16
ARM GAS  C:\Users\²Ü¼ÒºÀ\AppData\Local\Temp\ccOngKk7.s 			page 44


 1226 00b4 00000000 		.word	g_pstTaskCBArray
 1227 00b8 23010000 		.word	.LC18
 1228 00bc 2A010000 		.word	.LC19
 1229 00c0 00000000 		.word	g_uwTskMaxNum
 1230 00c4 EB000000 		.word	.LC17
 1231              		.cfi_endproc
 1232              	.LFE294:
 1234              		.section	.text.osTaskInit,"ax",%progbits
 1235              		.align	1
 1236              		.global	osTaskInit
 1237              		.syntax unified
 1238              		.thumb
 1239              		.thumb_func
 1240              		.fpu fpv4-sp-d16
 1242              	osTaskInit:
 1243              	.LFB295:
 508:C:/Users/²Ü¼ÒºÀ/.iotlink/sdk/IoT_LINK/iot_link/os/liteos/base/core\los_task.c ****     UINT32 uwSize;
 1244              		.loc 2 508 1 view -0
 1245              		.cfi_startproc
 1246              		@ args = 0, pretend = 0, frame = 8
 1247              		@ frame_needed = 0, uses_anonymous_args = 0
 509:C:/Users/²Ü¼ÒºÀ/.iotlink/sdk/IoT_LINK/iot_link/os/liteos/base/core\los_task.c ****     UINT32 uwIndex;
 1248              		.loc 2 509 5 view .LVU350
 510:C:/Users/²Ü¼ÒºÀ/.iotlink/sdk/IoT_LINK/iot_link/os/liteos/base/core\los_task.c ****     LOS_DL_LIST *pstListObject;
 1249              		.loc 2 510 5 view .LVU351
 511:C:/Users/²Ü¼ÒºÀ/.iotlink/sdk/IoT_LINK/iot_link/os/liteos/base/core\los_task.c **** 
 1250              		.loc 2 511 5 view .LVU352
 519:C:/Users/²Ü¼ÒºÀ/.iotlink/sdk/IoT_LINK/iot_link/os/liteos/base/core\los_task.c ****     g_pstTaskCBArray = (LOS_TASK_CB *)LOS_MemAlloc(m_aucSysMem0, uwSize);
 1251              		.loc 2 519 5 view .LVU353
 519:C:/Users/²Ü¼ÒºÀ/.iotlink/sdk/IoT_LINK/iot_link/os/liteos/base/core\los_task.c ****     g_pstTaskCBArray = (LOS_TASK_CB *)LOS_MemAlloc(m_aucSysMem0, uwSize);
 1252              		.loc 2 519 34 is_stmt 0 view .LVU354
 1253 0000 284B     		ldr	r3, .L98
 508:C:/Users/²Ü¼ÒºÀ/.iotlink/sdk/IoT_LINK/iot_link/os/liteos/base/core\los_task.c ****     UINT32 uwSize;
 1254              		.loc 2 508 1 view .LVU355
 1255 0002 73B5     		push	{r0, r1, r4, r5, r6, lr}
 1256              	.LCFI19:
 1257              		.cfi_def_cfa_offset 24
 1258              		.cfi_offset 4, -16
 1259              		.cfi_offset 5, -12
 1260              		.cfi_offset 6, -8
 1261              		.cfi_offset 14, -4
 519:C:/Users/²Ü¼ÒºÀ/.iotlink/sdk/IoT_LINK/iot_link/os/liteos/base/core\los_task.c ****     g_pstTaskCBArray = (LOS_TASK_CB *)LOS_MemAlloc(m_aucSysMem0, uwSize);
 1262              		.loc 2 519 34 view .LVU356
 1263 0004 1968     		ldr	r1, [r3]
 520:C:/Users/²Ü¼ÒºÀ/.iotlink/sdk/IoT_LINK/iot_link/os/liteos/base/core\los_task.c ****     if (NULL == g_pstTaskCBArray)
 1264              		.loc 2 520 39 view .LVU357
 1265 0006 284C     		ldr	r4, .L98+4
 520:C:/Users/²Ü¼ÒºÀ/.iotlink/sdk/IoT_LINK/iot_link/os/liteos/base/core\los_task.c ****     if (NULL == g_pstTaskCBArray)
 1266              		.loc 2 520 22 view .LVU358
 1267 0008 284D     		ldr	r5, .L98+8
 520:C:/Users/²Ü¼ÒºÀ/.iotlink/sdk/IoT_LINK/iot_link/os/liteos/base/core\los_task.c ****     if (NULL == g_pstTaskCBArray)
 1268              		.loc 2 520 39 view .LVU359
 1269 000a 2068     		ldr	r0, [r4]
 519:C:/Users/²Ü¼ÒºÀ/.iotlink/sdk/IoT_LINK/iot_link/os/liteos/base/core\los_task.c ****     g_pstTaskCBArray = (LOS_TASK_CB *)LOS_MemAlloc(m_aucSysMem0, uwSize);
 1270              		.loc 2 519 12 view .LVU360
 1271 000c 5422     		movs	r2, #84
 1272 000e 01FB0222 		mla	r2, r1, r2, r2
ARM GAS  C:\Users\²Ü¼ÒºÀ\AppData\Local\Temp\ccOngKk7.s 			page 45


 1273              	.LVL92:
 520:C:/Users/²Ü¼ÒºÀ/.iotlink/sdk/IoT_LINK/iot_link/os/liteos/base/core\los_task.c ****     if (NULL == g_pstTaskCBArray)
 1274              		.loc 2 520 5 is_stmt 1 view .LVU361
 520:C:/Users/²Ü¼ÒºÀ/.iotlink/sdk/IoT_LINK/iot_link/os/liteos/base/core\los_task.c ****     if (NULL == g_pstTaskCBArray)
 1275              		.loc 2 520 39 is_stmt 0 view .LVU362
 1276 0012 1146     		mov	r1, r2
 1277 0014 0192     		str	r2, [sp, #4]
 1278 0016 FFF7FEFF 		bl	LOS_MemAlloc
 1279              	.LVL93:
 520:C:/Users/²Ü¼ÒºÀ/.iotlink/sdk/IoT_LINK/iot_link/os/liteos/base/core\los_task.c ****     if (NULL == g_pstTaskCBArray)
 1280              		.loc 2 520 22 view .LVU363
 1281 001a 2860     		str	r0, [r5]
 521:C:/Users/²Ü¼ÒºÀ/.iotlink/sdk/IoT_LINK/iot_link/os/liteos/base/core\los_task.c ****     {
 1282              		.loc 2 521 5 is_stmt 1 view .LVU364
 521:C:/Users/²Ü¼ÒºÀ/.iotlink/sdk/IoT_LINK/iot_link/os/liteos/base/core\los_task.c ****     {
 1283              		.loc 2 521 8 is_stmt 0 view .LVU365
 1284 001c 0028     		cmp	r0, #0
 1285 001e 3ED0     		beq	.L86
 526:C:/Users/²Ü¼ÒºÀ/.iotlink/sdk/IoT_LINK/iot_link/os/liteos/base/core\los_task.c ****     LOS_ListInit(&g_stTaskTimerList);
 1286              		.loc 2 526 5 is_stmt 1 view .LVU366
 526:C:/Users/²Ü¼ÒºÀ/.iotlink/sdk/IoT_LINK/iot_link/os/liteos/base/core\los_task.c ****     LOS_ListInit(&g_stTaskTimerList);
 1287              		.loc 2 526 11 is_stmt 0 view .LVU367
 1288 0020 019A     		ldr	r2, [sp, #4]
 1289 0022 0021     		movs	r1, #0
 1290 0024 FFF7FEFF 		bl	memset
 1291              	.LVL94:
 527:C:/Users/²Ü¼ÒºÀ/.iotlink/sdk/IoT_LINK/iot_link/os/liteos/base/core\los_task.c ****     LOS_ListInit(&g_stLosFreeTask);
 1292              		.loc 2 527 5 is_stmt 1 view .LVU368
 1293              	.LBB74:
 1294              	.LBI74:
  80:C:/Users/²Ü¼ÒºÀ/.iotlink/sdk/IoT_LINK/iot_link/os/liteos/include\los_list.h **** {
 1295              		.loc 1 80 43 view .LVU369
 1296              	.LBB75:
  82:C:/Users/²Ü¼ÒºÀ/.iotlink/sdk/IoT_LINK/iot_link/os/liteos/include\los_list.h ****     pstList->pstPrev = pstList;
 1297              		.loc 1 82 5 view .LVU370
  82:C:/Users/²Ü¼ÒºÀ/.iotlink/sdk/IoT_LINK/iot_link/os/liteos/include\los_list.h ****     pstList->pstPrev = pstList;
 1298              		.loc 1 82 22 is_stmt 0 view .LVU371
 1299 0028 214B     		ldr	r3, .L98+12
 1300              	.LBE75:
 1301              	.LBE74:
 1302              	.LBB77:
 1303              	.LBB78:
 1304 002a 224A     		ldr	r2, .L98+16
 1305              	.LBE78:
 1306              	.LBE77:
 1307              	.LBB81:
 1308              	.LBB76:
  83:C:/Users/²Ü¼ÒºÀ/.iotlink/sdk/IoT_LINK/iot_link/os/liteos/include\los_list.h **** }
 1309              		.loc 1 83 22 view .LVU372
 1310 002c C3E90033 		strd	r3, r3, [r3]
 1311              	.LVL95:
  83:C:/Users/²Ü¼ÒºÀ/.iotlink/sdk/IoT_LINK/iot_link/os/liteos/include\los_list.h **** }
 1312              		.loc 1 83 22 view .LVU373
 1313              	.LBE76:
 1314              	.LBE81:
 528:C:/Users/²Ü¼ÒºÀ/.iotlink/sdk/IoT_LINK/iot_link/os/liteos/base/core\los_task.c ****     LOS_ListInit(&g_stTskRecyleList);
 1315              		.loc 2 528 5 is_stmt 1 view .LVU374
ARM GAS  C:\Users\²Ü¼ÒºÀ\AppData\Local\Temp\ccOngKk7.s 			page 46


 1316              	.LBB82:
 1317              	.LBI77:
  80:C:/Users/²Ü¼ÒºÀ/.iotlink/sdk/IoT_LINK/iot_link/os/liteos/include\los_list.h **** {
 1318              		.loc 1 80 43 view .LVU375
 1319              	.LBB79:
  82:C:/Users/²Ü¼ÒºÀ/.iotlink/sdk/IoT_LINK/iot_link/os/liteos/include\los_list.h ****     pstList->pstPrev = pstList;
 1320              		.loc 1 82 5 view .LVU376
 1321              	.LBE79:
 1322              	.LBE82:
 1323              	.LBB83:
 1324              	.LBB84:
  82:C:/Users/²Ü¼ÒºÀ/.iotlink/sdk/IoT_LINK/iot_link/os/liteos/include\los_list.h ****     pstList->pstPrev = pstList;
 1325              		.loc 1 82 22 is_stmt 0 view .LVU377
 1326 0030 214B     		ldr	r3, .L98+20
 1327              	.LBE84:
 1328              	.LBE83:
 1329              	.LBB86:
 1330              	.LBB80:
  83:C:/Users/²Ü¼ÒºÀ/.iotlink/sdk/IoT_LINK/iot_link/os/liteos/include\los_list.h **** }
 1331              		.loc 1 83 22 view .LVU378
 1332 0032 C2E90022 		strd	r2, r2, [r2]
 1333              	.LVL96:
  83:C:/Users/²Ü¼ÒºÀ/.iotlink/sdk/IoT_LINK/iot_link/os/liteos/include\los_list.h **** }
 1334              		.loc 1 83 22 view .LVU379
 1335              	.LBE80:
 1336              	.LBE86:
 529:C:/Users/²Ü¼ÒºÀ/.iotlink/sdk/IoT_LINK/iot_link/os/liteos/base/core\los_task.c ****     for (uwIndex = 0; uwIndex <= LOSCFG_BASE_CORE_TSK_LIMIT; uwIndex++)
 1337              		.loc 2 529 5 is_stmt 1 view .LVU380
 1338              	.LBB87:
 1339              	.LBI83:
  80:C:/Users/²Ü¼ÒºÀ/.iotlink/sdk/IoT_LINK/iot_link/os/liteos/include\los_list.h **** {
 1340              		.loc 1 80 43 view .LVU381
 1341              	.LBB85:
  82:C:/Users/²Ü¼ÒºÀ/.iotlink/sdk/IoT_LINK/iot_link/os/liteos/include\los_list.h ****     pstList->pstPrev = pstList;
 1342              		.loc 1 82 5 view .LVU382
  83:C:/Users/²Ü¼ÒºÀ/.iotlink/sdk/IoT_LINK/iot_link/os/liteos/include\los_list.h **** }
 1343              		.loc 1 83 22 is_stmt 0 view .LVU383
 1344 0036 C3E90033 		strd	r3, r3, [r3]
 1345              	.LVL97:
  83:C:/Users/²Ü¼ÒºÀ/.iotlink/sdk/IoT_LINK/iot_link/os/liteos/include\los_list.h **** }
 1346              		.loc 1 83 22 view .LVU384
 1347              	.LBE85:
 1348              	.LBE87:
 530:C:/Users/²Ü¼ÒºÀ/.iotlink/sdk/IoT_LINK/iot_link/os/liteos/base/core\los_task.c ****     {
 1349              		.loc 2 530 5 is_stmt 1 view .LVU385
 530:C:/Users/²Ü¼ÒºÀ/.iotlink/sdk/IoT_LINK/iot_link/os/liteos/base/core\los_task.c ****     {
 1350              		.loc 2 530 23 view .LVU386
 1351 003a 2B68     		ldr	r3, [r5]
 530:C:/Users/²Ü¼ÒºÀ/.iotlink/sdk/IoT_LINK/iot_link/os/liteos/base/core\los_task.c ****     {
 1352              		.loc 2 530 18 is_stmt 0 view .LVU387
 1353 003c 0021     		movs	r1, #0
 1354 003e 2833     		adds	r3, r3, #40
 532:C:/Users/²Ü¼ÒºÀ/.iotlink/sdk/IoT_LINK/iot_link/os/liteos/base/core\los_task.c ****         g_pstTaskCBArray[uwIndex].uwTaskID = uwIndex;
 1355              		.loc 2 532 48 view .LVU388
 1356 0040 0126     		movs	r6, #1
 1357              	.LVL98:
 1358              	.L87:
ARM GAS  C:\Users\²Ü¼ÒºÀ\AppData\Local\Temp\ccOngKk7.s 			page 47


 532:C:/Users/²Ü¼ÒºÀ/.iotlink/sdk/IoT_LINK/iot_link/os/liteos/base/core\los_task.c ****         g_pstTaskCBArray[uwIndex].uwTaskID = uwIndex;
 1359              		.loc 2 532 9 is_stmt 1 discriminator 3 view .LVU389
 534:C:/Users/²Ü¼ÒºÀ/.iotlink/sdk/IoT_LINK/iot_link/os/liteos/base/core\los_task.c ****     }
 1360              		.loc 2 534 9 is_stmt 0 discriminator 3 view .LVU390
 1361 0042 1068     		ldr	r0, [r2]
 533:C:/Users/²Ü¼ÒºÀ/.iotlink/sdk/IoT_LINK/iot_link/os/liteos/base/core\los_task.c ****         LOS_ListTailInsert(&g_stLosFreeTask, &g_pstTaskCBArray[uwIndex].stPendList);
 1362              		.loc 2 533 44 discriminator 3 view .LVU391
 1363 0044 43F8181C 		str	r1, [r3, #-24]
 1364              	.LBB88:
 1365              	.LBB89:
 1366              	.LBB90:
 131:C:/Users/²Ü¼ÒºÀ/.iotlink/sdk/IoT_LINK/iot_link/os/liteos/include\los_list.h ****     pstNode->pstPrev = pstList;
 1367              		.loc 1 131 31 discriminator 3 view .LVU392
 1368 0048 4568     		ldr	r5, [r0, #4]
 1369              	.LBE90:
 1370              	.LBE89:
 1371              	.LBE88:
 532:C:/Users/²Ü¼ÒºÀ/.iotlink/sdk/IoT_LINK/iot_link/os/liteos/base/core\los_task.c ****         g_pstTaskCBArray[uwIndex].uwTaskID = uwIndex;
 1372              		.loc 2 532 48 discriminator 3 view .LVU393
 1373 004a 23F8246C 		strh	r6, [r3, #-36]	@ movhi
 533:C:/Users/²Ü¼ÒºÀ/.iotlink/sdk/IoT_LINK/iot_link/os/liteos/base/core\los_task.c ****         LOS_ListTailInsert(&g_stLosFreeTask, &g_pstTaskCBArray[uwIndex].stPendList);
 1374              		.loc 2 533 9 is_stmt 1 discriminator 3 view .LVU394
 534:C:/Users/²Ü¼ÒºÀ/.iotlink/sdk/IoT_LINK/iot_link/os/liteos/base/core\los_task.c ****     }
 1375              		.loc 2 534 9 discriminator 3 view .LVU395
 1376              	.LVL99:
 1377              	.LBB95:
 1378              	.LBI88:
 157:C:/Users/²Ü¼ÒºÀ/.iotlink/sdk/IoT_LINK/iot_link/os/liteos/include\los_list.h **** {
 1379              		.loc 1 157 43 discriminator 3 view .LVU396
 157:C:/Users/²Ü¼ÒºÀ/.iotlink/sdk/IoT_LINK/iot_link/os/liteos/include\los_list.h **** {
 1380              		.loc 1 157 43 is_stmt 0 discriminator 3 view .LVU397
 1381              	.LBE95:
 159:C:/Users/²Ü¼ÒºÀ/.iotlink/sdk/IoT_LINK/iot_link/os/liteos/include\los_list.h **** }
 1382              		.loc 1 159 5 is_stmt 1 discriminator 3 view .LVU398
 1383              	.LBB96:
 1384              	.LBB93:
 1385              	.LBI89:
 129:C:/Users/²Ü¼ÒºÀ/.iotlink/sdk/IoT_LINK/iot_link/os/liteos/include\los_list.h **** {
 1386              		.loc 1 129 43 discriminator 3 view .LVU399
 1387              	.LBB91:
 131:C:/Users/²Ü¼ÒºÀ/.iotlink/sdk/IoT_LINK/iot_link/os/liteos/include\los_list.h ****     pstNode->pstPrev = pstList;
 1388              		.loc 1 131 5 discriminator 3 view .LVU400
 1389              	.LBE91:
 1390              	.LBE93:
 1391              	.LBE96:
 530:C:/Users/²Ü¼ÒºÀ/.iotlink/sdk/IoT_LINK/iot_link/os/liteos/base/core\los_task.c ****     {
 1392              		.loc 2 530 69 is_stmt 0 discriminator 3 view .LVU401
 1393 004e 0131     		adds	r1, r1, #1
 1394              	.LVL100:
 530:C:/Users/²Ü¼ÒºÀ/.iotlink/sdk/IoT_LINK/iot_link/os/liteos/base/core\los_task.c ****     {
 1395              		.loc 2 530 5 discriminator 3 view .LVU402
 1396 0050 1029     		cmp	r1, #16
 1397              	.LBB97:
 1398              	.LBB94:
 1399              	.LBB92:
 132:C:/Users/²Ü¼ÒºÀ/.iotlink/sdk/IoT_LINK/iot_link/os/liteos/include\los_list.h ****     pstList->pstNext->pstPrev = pstNode;
 1400              		.loc 1 132 22 discriminator 3 view .LVU403
ARM GAS  C:\Users\²Ü¼ÒºÀ\AppData\Local\Temp\ccOngKk7.s 			page 48


 1401 0052 C3E90005 		strd	r0, r5, [r3]
 133:C:/Users/²Ü¼ÒºÀ/.iotlink/sdk/IoT_LINK/iot_link/os/liteos/include\los_list.h ****     pstList->pstNext = pstNode;
 1402              		.loc 1 133 5 is_stmt 1 discriminator 3 view .LVU404
 133:C:/Users/²Ü¼ÒºÀ/.iotlink/sdk/IoT_LINK/iot_link/os/liteos/include\los_list.h ****     pstList->pstNext = pstNode;
 1403              		.loc 1 133 31 is_stmt 0 discriminator 3 view .LVU405
 1404 0056 2B60     		str	r3, [r5]
 134:C:/Users/²Ü¼ÒºÀ/.iotlink/sdk/IoT_LINK/iot_link/os/liteos/include\los_list.h **** }
 1405              		.loc 1 134 5 is_stmt 1 discriminator 3 view .LVU406
 134:C:/Users/²Ü¼ÒºÀ/.iotlink/sdk/IoT_LINK/iot_link/os/liteos/include\los_list.h **** }
 1406              		.loc 1 134 22 is_stmt 0 discriminator 3 view .LVU407
 1407 0058 4360     		str	r3, [r0, #4]
 1408              	.LVL101:
 134:C:/Users/²Ü¼ÒºÀ/.iotlink/sdk/IoT_LINK/iot_link/os/liteos/include\los_list.h **** }
 1409              		.loc 1 134 22 discriminator 3 view .LVU408
 1410              	.LBE92:
 1411              	.LBE94:
 1412              	.LBE97:
 530:C:/Users/²Ü¼ÒºÀ/.iotlink/sdk/IoT_LINK/iot_link/os/liteos/base/core\los_task.c ****     {
 1413              		.loc 2 530 62 is_stmt 1 discriminator 3 view .LVU409
 530:C:/Users/²Ü¼ÒºÀ/.iotlink/sdk/IoT_LINK/iot_link/os/liteos/base/core\los_task.c ****     {
 1414              		.loc 2 530 23 discriminator 3 view .LVU410
 1415 005a 03F15403 		add	r3, r3, #84
 530:C:/Users/²Ü¼ÒºÀ/.iotlink/sdk/IoT_LINK/iot_link/os/liteos/base/core\los_task.c ****     {
 1416              		.loc 2 530 5 is_stmt 0 discriminator 3 view .LVU411
 1417 005e F0D1     		bne	.L87
 537:C:/Users/²Ü¼ÒºÀ/.iotlink/sdk/IoT_LINK/iot_link/os/liteos/base/core\los_task.c **** 
 1418              		.loc 2 537 5 is_stmt 1 view .LVU412
 537:C:/Users/²Ü¼ÒºÀ/.iotlink/sdk/IoT_LINK/iot_link/os/liteos/base/core\los_task.c **** 
 1419              		.loc 2 537 11 is_stmt 0 view .LVU413
 1420 0060 164B     		ldr	r3, .L98+24
 1421 0062 0025     		movs	r5, #0
 1422 0064 C3E90055 		strd	r5, r5, [r3]
 545:C:/Users/²Ü¼ÒºÀ/.iotlink/sdk/IoT_LINK/iot_link/os/liteos/base/core\los_task.c ****     uwSize = sizeof(LOS_DL_LIST) * OS_TSK_SORTLINK_LEN;
 1423              		.loc 2 545 5 is_stmt 1 view .LVU414
 1424 0068 FFF7FEFF 		bl	osPriqueueInit
 1425              	.LVL102:
 546:C:/Users/²Ü¼ÒºÀ/.iotlink/sdk/IoT_LINK/iot_link/os/liteos/base/core\los_task.c ****     pstListObject = (LOS_DL_LIST *)LOS_MemAlloc(m_aucSysMem0, uwSize);
 1426              		.loc 2 546 5 view .LVU415
 547:C:/Users/²Ü¼ÒºÀ/.iotlink/sdk/IoT_LINK/iot_link/os/liteos/base/core\los_task.c ****     if (NULL == pstListObject)
 1427              		.loc 2 547 5 view .LVU416
 547:C:/Users/²Ü¼ÒºÀ/.iotlink/sdk/IoT_LINK/iot_link/os/liteos/base/core\los_task.c ****     if (NULL == pstListObject)
 1428              		.loc 2 547 36 is_stmt 0 view .LVU417
 1429 006c 2068     		ldr	r0, [r4]
 1430 006e 4FF48071 		mov	r1, #256
 1431 0072 FFF7FEFF 		bl	LOS_MemAlloc
 1432              	.LVL103:
 548:C:/Users/²Ü¼ÒºÀ/.iotlink/sdk/IoT_LINK/iot_link/os/liteos/base/core\los_task.c ****     {
 1433              		.loc 2 548 5 is_stmt 1 view .LVU418
 548:C:/Users/²Ü¼ÒºÀ/.iotlink/sdk/IoT_LINK/iot_link/os/liteos/base/core\los_task.c ****     {
 1434              		.loc 2 548 8 is_stmt 0 view .LVU419
 1435 0076 0446     		mov	r4, r0
 1436 0078 88B1     		cbz	r0, .L86
 553:C:/Users/²Ü¼ÒºÀ/.iotlink/sdk/IoT_LINK/iot_link/os/liteos/base/core\los_task.c ****     g_stTskSortLink.pstSortLink = pstListObject;
 1437              		.loc 2 553 5 is_stmt 1 view .LVU420
 553:C:/Users/²Ü¼ÒºÀ/.iotlink/sdk/IoT_LINK/iot_link/os/liteos/base/core\los_task.c ****     g_stTskSortLink.pstSortLink = pstListObject;
 1438              		.loc 2 553 11 is_stmt 0 view .LVU421
 1439 007a 4FF48072 		mov	r2, #256
ARM GAS  C:\Users\²Ü¼ÒºÀ\AppData\Local\Temp\ccOngKk7.s 			page 49


 1440 007e 2946     		mov	r1, r5
 1441 0080 FFF7FEFF 		bl	memset
 1442              	.LVL104:
 554:C:/Users/²Ü¼ÒºÀ/.iotlink/sdk/IoT_LINK/iot_link/os/liteos/base/core\los_task.c ****     g_stTskSortLink.usCursor = 0;
 1443              		.loc 2 554 5 is_stmt 1 view .LVU422
 554:C:/Users/²Ü¼ÒºÀ/.iotlink/sdk/IoT_LINK/iot_link/os/liteos/base/core\los_task.c ****     g_stTskSortLink.usCursor = 0;
 1444              		.loc 2 554 33 is_stmt 0 view .LVU423
 1445 0084 0E4B     		ldr	r3, .L98+28
 1446 0086 1C60     		str	r4, [r3]
 555:C:/Users/²Ü¼ÒºÀ/.iotlink/sdk/IoT_LINK/iot_link/os/liteos/base/core\los_task.c ****     for (uwIndex = 0; uwIndex < OS_TSK_SORTLINK_LEN; uwIndex++, pstListObject++)
 1447              		.loc 2 555 5 is_stmt 1 view .LVU424
 555:C:/Users/²Ü¼ÒºÀ/.iotlink/sdk/IoT_LINK/iot_link/os/liteos/base/core\los_task.c ****     for (uwIndex = 0; uwIndex < OS_TSK_SORTLINK_LEN; uwIndex++, pstListObject++)
 1448              		.loc 2 555 30 is_stmt 0 view .LVU425
 1449 0088 9D80     		strh	r5, [r3, #4]	@ movhi
 556:C:/Users/²Ü¼ÒºÀ/.iotlink/sdk/IoT_LINK/iot_link/os/liteos/base/core\los_task.c ****     {
 1450              		.loc 2 556 5 is_stmt 1 view .LVU426
 1451              	.LVL105:
 556:C:/Users/²Ü¼ÒºÀ/.iotlink/sdk/IoT_LINK/iot_link/os/liteos/base/core\los_task.c ****     {
 1452              		.loc 2 556 23 view .LVU427
 1453 008a 04F58073 		add	r3, r4, #256
 1454              	.LVL106:
 1455              	.L88:
 558:C:/Users/²Ü¼ÒºÀ/.iotlink/sdk/IoT_LINK/iot_link/os/liteos/base/core\los_task.c ****     }
 1456              		.loc 2 558 9 view .LVU428
 1457              	.LBB98:
 1458              	.LBI98:
  80:C:/Users/²Ü¼ÒºÀ/.iotlink/sdk/IoT_LINK/iot_link/os/liteos/include\los_list.h **** {
 1459              		.loc 1 80 43 view .LVU429
 1460              	.LBB99:
  82:C:/Users/²Ü¼ÒºÀ/.iotlink/sdk/IoT_LINK/iot_link/os/liteos/include\los_list.h ****     pstList->pstPrev = pstList;
 1461              		.loc 1 82 5 view .LVU430
  83:C:/Users/²Ü¼ÒºÀ/.iotlink/sdk/IoT_LINK/iot_link/os/liteos/include\los_list.h **** }
 1462              		.loc 1 83 22 is_stmt 0 view .LVU431
 1463 008e C4E90044 		strd	r4, r4, [r4]
 1464              	.LVL107:
  83:C:/Users/²Ü¼ÒºÀ/.iotlink/sdk/IoT_LINK/iot_link/os/liteos/include\los_list.h **** }
 1465              		.loc 1 83 22 view .LVU432
 1466              	.LBE99:
 1467              	.LBE98:
 556:C:/Users/²Ü¼ÒºÀ/.iotlink/sdk/IoT_LINK/iot_link/os/liteos/base/core\los_task.c ****     {
 1468              		.loc 2 556 54 is_stmt 1 view .LVU433
 556:C:/Users/²Ü¼ÒºÀ/.iotlink/sdk/IoT_LINK/iot_link/os/liteos/base/core\los_task.c ****     {
 1469              		.loc 2 556 78 is_stmt 0 view .LVU434
 1470 0092 0834     		adds	r4, r4, #8
 1471              	.LVL108:
 556:C:/Users/²Ü¼ÒºÀ/.iotlink/sdk/IoT_LINK/iot_link/os/liteos/base/core\los_task.c ****     {
 1472              		.loc 2 556 23 is_stmt 1 view .LVU435
 556:C:/Users/²Ü¼ÒºÀ/.iotlink/sdk/IoT_LINK/iot_link/os/liteos/base/core\los_task.c ****     {
 1473              		.loc 2 556 5 is_stmt 0 view .LVU436
 1474 0094 9C42     		cmp	r4, r3
 1475 0096 FAD1     		bne	.L88
 569:C:/Users/²Ü¼ÒºÀ/.iotlink/sdk/IoT_LINK/iot_link/os/liteos/base/core\los_task.c **** }
 1476              		.loc 2 569 12 view .LVU437
 1477 0098 0020     		movs	r0, #0
 1478              	.LVL109:
 1479              	.L85:
 570:C:/Users/²Ü¼ÒºÀ/.iotlink/sdk/IoT_LINK/iot_link/os/liteos/base/core\los_task.c **** 
ARM GAS  C:\Users\²Ü¼ÒºÀ\AppData\Local\Temp\ccOngKk7.s 			page 50


 1480              		.loc 2 570 1 view .LVU438
 1481 009a 02B0     		add	sp, sp, #8
 1482              	.LCFI20:
 1483              		.cfi_remember_state
 1484              		.cfi_def_cfa_offset 16
 1485              		@ sp needed
 1486 009c 70BD     		pop	{r4, r5, r6, pc}
 1487              	.L86:
 1488              	.LCFI21:
 1489              		.cfi_restore_state
 523:C:/Users/²Ü¼ÒºÀ/.iotlink/sdk/IoT_LINK/iot_link/os/liteos/base/core\los_task.c ****     }
 1490              		.loc 2 523 16 view .LVU439
 1491 009e 0948     		ldr	r0, .L98+32
 1492 00a0 FBE7     		b	.L85
 1493              	.L99:
 1494 00a2 00BF     		.align	2
 1495              	.L98:
 1496 00a4 00000000 		.word	g_uwTskMaxNum
 1497 00a8 00000000 		.word	m_aucSysMem0
 1498 00ac 00000000 		.word	g_pstTaskCBArray
 1499 00b0 00000000 		.word	g_stTaskTimerList
 1500 00b4 00000000 		.word	g_stLosFreeTask
 1501 00b8 00000000 		.word	g_stTskRecyleList
 1502 00bc 00000000 		.word	g_stLosTask
 1503 00c0 00000000 		.word	g_stTskSortLink
 1504 00c4 00020003 		.word	50332160
 1505              		.cfi_endproc
 1506              	.LFE295:
 1508              		.section	.text.LOS_CurTaskIDGet,"ax",%progbits
 1509              		.align	1
 1510              		.global	LOS_CurTaskIDGet
 1511              		.syntax unified
 1512              		.thumb
 1513              		.thumb_func
 1514              		.fpu fpv4-sp-d16
 1516              	LOS_CurTaskIDGet:
 1517              	.LFB297:
 618:C:/Users/²Ü¼ÒºÀ/.iotlink/sdk/IoT_LINK/iot_link/os/liteos/base/core\los_task.c ****     if (NULL == g_stLosTask.pstRunTask)
 1518              		.loc 2 618 1 is_stmt 1 view -0
 1519              		.cfi_startproc
 1520              		@ args = 0, pretend = 0, frame = 0
 1521              		@ frame_needed = 0, uses_anonymous_args = 0
 1522              		@ link register save eliminated.
 619:C:/Users/²Ü¼ÒºÀ/.iotlink/sdk/IoT_LINK/iot_link/os/liteos/base/core\los_task.c ****     {
 1523              		.loc 2 619 5 view .LVU441
 619:C:/Users/²Ü¼ÒºÀ/.iotlink/sdk/IoT_LINK/iot_link/os/liteos/base/core\los_task.c ****     {
 1524              		.loc 2 619 28 is_stmt 0 view .LVU442
 1525 0000 034B     		ldr	r3, .L103
 1526 0002 1B68     		ldr	r3, [r3]
 619:C:/Users/²Ü¼ÒºÀ/.iotlink/sdk/IoT_LINK/iot_link/os/liteos/base/core\los_task.c ****     {
 1527              		.loc 2 619 8 view .LVU443
 1528 0004 0BB1     		cbz	r3, .L102
 623:C:/Users/²Ü¼ÒºÀ/.iotlink/sdk/IoT_LINK/iot_link/os/liteos/base/core\los_task.c **** }
 1529              		.loc 2 623 5 is_stmt 1 view .LVU444
 623:C:/Users/²Ü¼ÒºÀ/.iotlink/sdk/IoT_LINK/iot_link/os/liteos/base/core\los_task.c **** }
 1530              		.loc 2 623 34 is_stmt 0 view .LVU445
 1531 0006 1869     		ldr	r0, [r3, #16]
ARM GAS  C:\Users\²Ü¼ÒºÀ\AppData\Local\Temp\ccOngKk7.s 			page 51


 1532 0008 7047     		bx	lr
 1533              	.L102:
 621:C:/Users/²Ü¼ÒºÀ/.iotlink/sdk/IoT_LINK/iot_link/os/liteos/base/core\los_task.c ****     }
 1534              		.loc 2 621 16 view .LVU446
 1535 000a 0248     		ldr	r0, .L103+4
 624:C:/Users/²Ü¼ÒºÀ/.iotlink/sdk/IoT_LINK/iot_link/os/liteos/base/core\los_task.c **** 
 1536              		.loc 2 624 1 view .LVU447
 1537 000c 7047     		bx	lr
 1538              	.L104:
 1539 000e 00BF     		.align	2
 1540              	.L103:
 1541 0010 00000000 		.word	g_stLosTask
 1542 0014 07020002 		.word	33554951
 1543              		.cfi_endproc
 1544              	.LFE297:
 1546              		.section	.text.LOS_NextTaskIDGet,"ax",%progbits
 1547              		.align	1
 1548              		.global	LOS_NextTaskIDGet
 1549              		.syntax unified
 1550              		.thumb
 1551              		.thumb_func
 1552              		.fpu fpv4-sp-d16
 1554              	LOS_NextTaskIDGet:
 1555              	.LFB298:
 634:C:/Users/²Ü¼ÒºÀ/.iotlink/sdk/IoT_LINK/iot_link/os/liteos/base/core\los_task.c ****     if (NULL == g_stLosTask.pstNewTask)
 1556              		.loc 2 634 1 is_stmt 1 view -0
 1557              		.cfi_startproc
 1558              		@ args = 0, pretend = 0, frame = 0
 1559              		@ frame_needed = 0, uses_anonymous_args = 0
 1560              		@ link register save eliminated.
 635:C:/Users/²Ü¼ÒºÀ/.iotlink/sdk/IoT_LINK/iot_link/os/liteos/base/core\los_task.c ****     {
 1561              		.loc 2 635 5 view .LVU449
 635:C:/Users/²Ü¼ÒºÀ/.iotlink/sdk/IoT_LINK/iot_link/os/liteos/base/core\los_task.c ****     {
 1562              		.loc 2 635 28 is_stmt 0 view .LVU450
 1563 0000 034B     		ldr	r3, .L108
 1564 0002 5B68     		ldr	r3, [r3, #4]
 635:C:/Users/²Ü¼ÒºÀ/.iotlink/sdk/IoT_LINK/iot_link/os/liteos/base/core\los_task.c ****     {
 1565              		.loc 2 635 8 view .LVU451
 1566 0004 0BB1     		cbz	r3, .L107
 639:C:/Users/²Ü¼ÒºÀ/.iotlink/sdk/IoT_LINK/iot_link/os/liteos/base/core\los_task.c **** }
 1567              		.loc 2 639 5 is_stmt 1 view .LVU452
 639:C:/Users/²Ü¼ÒºÀ/.iotlink/sdk/IoT_LINK/iot_link/os/liteos/base/core\los_task.c **** }
 1568              		.loc 2 639 34 is_stmt 0 view .LVU453
 1569 0006 1869     		ldr	r0, [r3, #16]
 1570 0008 7047     		bx	lr
 1571              	.L107:
 637:C:/Users/²Ü¼ÒºÀ/.iotlink/sdk/IoT_LINK/iot_link/os/liteos/base/core\los_task.c ****     }
 1572              		.loc 2 637 16 view .LVU454
 1573 000a 0248     		ldr	r0, .L108+4
 640:C:/Users/²Ü¼ÒºÀ/.iotlink/sdk/IoT_LINK/iot_link/os/liteos/base/core\los_task.c **** 
 1574              		.loc 2 640 1 view .LVU455
 1575 000c 7047     		bx	lr
 1576              	.L109:
 1577 000e 00BF     		.align	2
 1578              	.L108:
 1579 0010 00000000 		.word	g_stLosTask
 1580 0014 07020002 		.word	33554951
ARM GAS  C:\Users\²Ü¼ÒºÀ\AppData\Local\Temp\ccOngKk7.s 			page 52


 1581              		.cfi_endproc
 1582              	.LFE298:
 1584              		.section	.text.LOS_CurTaskNameGet,"ax",%progbits
 1585              		.align	1
 1586              		.global	LOS_CurTaskNameGet
 1587              		.syntax unified
 1588              		.thumb
 1589              		.thumb_func
 1590              		.fpu fpv4-sp-d16
 1592              	LOS_CurTaskNameGet:
 1593              	.LFB299:
 650:C:/Users/²Ü¼ÒºÀ/.iotlink/sdk/IoT_LINK/iot_link/os/liteos/base/core\los_task.c ****     CHAR *pcTaskName = NULL;
 1594              		.loc 2 650 1 is_stmt 1 view -0
 1595              		.cfi_startproc
 1596              		@ args = 0, pretend = 0, frame = 0
 1597              		@ frame_needed = 0, uses_anonymous_args = 0
 1598              		@ link register save eliminated.
 651:C:/Users/²Ü¼ÒºÀ/.iotlink/sdk/IoT_LINK/iot_link/os/liteos/base/core\los_task.c **** 
 1599              		.loc 2 651 5 view .LVU457
 1600              	.LVL110:
 653:C:/Users/²Ü¼ÒºÀ/.iotlink/sdk/IoT_LINK/iot_link/os/liteos/base/core\los_task.c ****     {
 1601              		.loc 2 653 5 view .LVU458
 653:C:/Users/²Ü¼ÒºÀ/.iotlink/sdk/IoT_LINK/iot_link/os/liteos/base/core\los_task.c ****     {
 1602              		.loc 2 653 28 is_stmt 0 view .LVU459
 1603 0000 024B     		ldr	r3, .L115
 1604 0002 1868     		ldr	r0, [r3]
 653:C:/Users/²Ü¼ÒºÀ/.iotlink/sdk/IoT_LINK/iot_link/os/liteos/base/core\los_task.c ****     {
 1605              		.loc 2 653 8 view .LVU460
 1606 0004 00B1     		cbz	r0, .L110
 655:C:/Users/²Ü¼ÒºÀ/.iotlink/sdk/IoT_LINK/iot_link/os/liteos/base/core\los_task.c ****     }
 1607              		.loc 2 655 9 is_stmt 1 view .LVU461
 655:C:/Users/²Ü¼ÒºÀ/.iotlink/sdk/IoT_LINK/iot_link/os/liteos/base/core\los_task.c ****     }
 1608              		.loc 2 655 20 is_stmt 0 view .LVU462
 1609 0006 406A     		ldr	r0, [r0, #36]
 1610              	.LVL111:
 658:C:/Users/²Ü¼ÒºÀ/.iotlink/sdk/IoT_LINK/iot_link/os/liteos/base/core\los_task.c **** }
 1611              		.loc 2 658 5 is_stmt 1 view .LVU463
 1612              	.L110:
 659:C:/Users/²Ü¼ÒºÀ/.iotlink/sdk/IoT_LINK/iot_link/os/liteos/base/core\los_task.c **** 
 1613              		.loc 2 659 1 is_stmt 0 view .LVU464
 1614 0008 7047     		bx	lr
 1615              	.L116:
 1616 000a 00BF     		.align	2
 1617              	.L115:
 1618 000c 00000000 		.word	g_stLosTask
 1619              		.cfi_endproc
 1620              	.LFE299:
 1622              		.section	.text.osTaskMonInit,"ax",%progbits
 1623              		.align	1
 1624              		.global	osTaskMonInit
 1625              		.syntax unified
 1626              		.thumb
 1627              		.thumb_func
 1628              		.fpu fpv4-sp-d16
 1630              	osTaskMonInit:
 1631              	.LFB301:
 704:C:/Users/²Ü¼ÒºÀ/.iotlink/sdk/IoT_LINK/iot_link/os/liteos/base/core\los_task.c **** 
ARM GAS  C:\Users\²Ü¼ÒºÀ\AppData\Local\Temp\ccOngKk7.s 			page 53


 705:C:/Users/²Ü¼ÒºÀ/.iotlink/sdk/IoT_LINK/iot_link/os/liteos/base/core\los_task.c **** LITE_OS_SEC_TEXT_MINOR VOID osTaskMonInit(VOID)
 706:C:/Users/²Ü¼ÒºÀ/.iotlink/sdk/IoT_LINK/iot_link/os/liteos/base/core\los_task.c **** {
 1632              		.loc 2 706 1 is_stmt 1 view -0
 1633              		.cfi_startproc
 1634              		@ args = 0, pretend = 0, frame = 0
 1635              		@ frame_needed = 0, uses_anonymous_args = 0
 707:C:/Users/²Ü¼ÒºÀ/.iotlink/sdk/IoT_LINK/iot_link/os/liteos/base/core\los_task.c **** #if (LOSCFG_BASE_CORE_EXC_TSK_SWITCH == YES)
 708:C:/Users/²Ü¼ÒºÀ/.iotlink/sdk/IoT_LINK/iot_link/os/liteos/base/core\los_task.c ****     (VOID)memset(&g_astTskSwitchInfo, 0, sizeof(OS_TASK_SWITCH_INFO));
 1636              		.loc 2 708 5 view .LVU466
 706:C:/Users/²Ü¼ÒºÀ/.iotlink/sdk/IoT_LINK/iot_link/os/liteos/base/core\los_task.c **** #if (LOSCFG_BASE_CORE_EXC_TSK_SWITCH == YES)
 1637              		.loc 2 706 1 is_stmt 0 view .LVU467
 1638 0000 08B5     		push	{r3, lr}
 1639              	.LCFI22:
 1640              		.cfi_def_cfa_offset 8
 1641              		.cfi_offset 3, -8
 1642              		.cfi_offset 14, -4
 1643              		.loc 2 708 11 view .LVU468
 1644 0002 084B     		ldr	r3, .L118
 1645 0004 4FF4AB72 		mov	r2, #342
 1646 0008 1846     		mov	r0, r3
 1647 000a 0021     		movs	r1, #0
 1648 000c FFF7FEFF 		bl	memset
 1649              	.LVL112:
 709:C:/Users/²Ü¼ÒºÀ/.iotlink/sdk/IoT_LINK/iot_link/os/liteos/base/core\los_task.c ****     g_astTskSwitchInfo.ucIsFull = 0x7F & OS_TASK_SWITCH_INFO_COUNT;
 1650              		.loc 2 709 5 is_stmt 1 view .LVU469
 710:C:/Users/²Ü¼ÒºÀ/.iotlink/sdk/IoT_LINK/iot_link/os/liteos/base/core\los_task.c **** #if ((LOSCFG_PLATFORM_EXC == YES) && (LOSCFG_SAVE_EXC_INFO == YES))
 711:C:/Users/²Ü¼ÒºÀ/.iotlink/sdk/IoT_LINK/iot_link/os/liteos/base/core\los_task.c ****     osExcRegister((EXC_INFO_TYPE)OS_EXC_TYPE_TSK_SWITCH, (EXC_INFO_SAVE_CALLBACK)LOS_TaskSwitchInfo
 712:C:/Users/²Ü¼ÒºÀ/.iotlink/sdk/IoT_LINK/iot_link/os/liteos/base/core\los_task.c **** #endif
 713:C:/Users/²Ü¼ÒºÀ/.iotlink/sdk/IoT_LINK/iot_link/os/liteos/base/core\los_task.c **** #endif
 714:C:/Users/²Ü¼ÒºÀ/.iotlink/sdk/IoT_LINK/iot_link/os/liteos/base/core\los_task.c ****     g_pfnTskSwitchHook = osTaskSwitchCheck;
 1651              		.loc 2 714 24 is_stmt 0 view .LVU470
 1652 0010 054B     		ldr	r3, .L118+4
 709:C:/Users/²Ü¼ÒºÀ/.iotlink/sdk/IoT_LINK/iot_link/os/liteos/base/core\los_task.c ****     g_astTskSwitchInfo.ucIsFull = 0x7F & OS_TASK_SWITCH_INFO_COUNT;
 1653              		.loc 2 709 33 view .LVU471
 1654 0012 0A22     		movs	r2, #10
 1655 0014 4270     		strb	r2, [r0, #1]
 1656              		.loc 2 714 5 is_stmt 1 view .LVU472
 1657              		.loc 2 714 24 is_stmt 0 view .LVU473
 1658 0016 054A     		ldr	r2, .L118+8
 1659 0018 1A60     		str	r2, [r3]
 715:C:/Users/²Ü¼ÒºÀ/.iotlink/sdk/IoT_LINK/iot_link/os/liteos/base/core\los_task.c ****     g_pfnUsrTskSwitchHook = (TSKSWITCHHOOK)NULL; /*lint !e611*/
 1660              		.loc 2 715 5 is_stmt 1 view .LVU474
 1661              		.loc 2 715 27 is_stmt 0 view .LVU475
 1662 001a 054B     		ldr	r3, .L118+12
 1663 001c 0022     		movs	r2, #0
 1664 001e 1A60     		str	r2, [r3]
 716:C:/Users/²Ü¼ÒºÀ/.iotlink/sdk/IoT_LINK/iot_link/os/liteos/base/core\los_task.c ****     return ;
 1665              		.loc 2 716 5 is_stmt 1 view .LVU476
 717:C:/Users/²Ü¼ÒºÀ/.iotlink/sdk/IoT_LINK/iot_link/os/liteos/base/core\los_task.c **** }
 1666              		.loc 2 717 1 is_stmt 0 view .LVU477
 1667 0020 08BD     		pop	{r3, pc}
 1668              	.L119:
 1669 0022 00BF     		.align	2
 1670              	.L118:
 1671 0024 00000000 		.word	g_astTskSwitchInfo
 1672 0028 00000000 		.word	.LANCHOR1
 1673 002c 00000000 		.word	osTaskSwitchCheck
ARM GAS  C:\Users\²Ü¼ÒºÀ\AppData\Local\Temp\ccOngKk7.s 			page 54


 1674 0030 00000000 		.word	.LANCHOR0
 1675              		.cfi_endproc
 1676              	.LFE301:
 1678              		.section	.text.LOS_TaskCreateOnly,"ax",%progbits
 1679              		.align	1
 1680              		.global	LOS_TaskCreateOnly
 1681              		.syntax unified
 1682              		.thumb
 1683              		.thumb_func
 1684              		.fpu fpv4-sp-d16
 1686              	LOS_TaskCreateOnly:
 1687              	.LVL113:
 1688              	.LFB303:
 718:C:/Users/²Ü¼ÒºÀ/.iotlink/sdk/IoT_LINK/iot_link/os/liteos/base/core\los_task.c **** #endif
 719:C:/Users/²Ü¼ÒºÀ/.iotlink/sdk/IoT_LINK/iot_link/os/liteos/base/core\los_task.c **** 
 720:C:/Users/²Ü¼ÒºÀ/.iotlink/sdk/IoT_LINK/iot_link/os/liteos/base/core\los_task.c **** /*****************************************************************************
 721:C:/Users/²Ü¼ÒºÀ/.iotlink/sdk/IoT_LINK/iot_link/os/liteos/base/core\los_task.c ****  Function : osTaskEntry
 722:C:/Users/²Ü¼ÒºÀ/.iotlink/sdk/IoT_LINK/iot_link/os/liteos/base/core\los_task.c ****  Description : All task entry
 723:C:/Users/²Ü¼ÒºÀ/.iotlink/sdk/IoT_LINK/iot_link/os/liteos/base/core\los_task.c ****  Input       : uwTaskID     --- The ID of the task to be run
 724:C:/Users/²Ü¼ÒºÀ/.iotlink/sdk/IoT_LINK/iot_link/os/liteos/base/core\los_task.c ****  Output      : None
 725:C:/Users/²Ü¼ÒºÀ/.iotlink/sdk/IoT_LINK/iot_link/os/liteos/base/core\los_task.c ****  Return      : None
 726:C:/Users/²Ü¼ÒºÀ/.iotlink/sdk/IoT_LINK/iot_link/os/liteos/base/core\los_task.c ****  *****************************************************************************/
 727:C:/Users/²Ü¼ÒºÀ/.iotlink/sdk/IoT_LINK/iot_link/os/liteos/base/core\los_task.c **** LITE_OS_SEC_TEXT_INIT VOID osTaskEntry(UINT32 uwTaskID)
 728:C:/Users/²Ü¼ÒºÀ/.iotlink/sdk/IoT_LINK/iot_link/os/liteos/base/core\los_task.c **** {
 729:C:/Users/²Ü¼ÒºÀ/.iotlink/sdk/IoT_LINK/iot_link/os/liteos/base/core\los_task.c ****     LOS_TASK_CB *pstTaskCB;
 730:C:/Users/²Ü¼ÒºÀ/.iotlink/sdk/IoT_LINK/iot_link/os/liteos/base/core\los_task.c **** 
 731:C:/Users/²Ü¼ÒºÀ/.iotlink/sdk/IoT_LINK/iot_link/os/liteos/base/core\los_task.c ****     OS_TASK_ID_CHECK(uwTaskID);
 732:C:/Users/²Ü¼ÒºÀ/.iotlink/sdk/IoT_LINK/iot_link/os/liteos/base/core\los_task.c **** 
 733:C:/Users/²Ü¼ÒºÀ/.iotlink/sdk/IoT_LINK/iot_link/os/liteos/base/core\los_task.c ****     pstTaskCB = OS_TCB_FROM_TID(uwTaskID);
 734:C:/Users/²Ü¼ÒºÀ/.iotlink/sdk/IoT_LINK/iot_link/os/liteos/base/core\los_task.c **** 
 735:C:/Users/²Ü¼ÒºÀ/.iotlink/sdk/IoT_LINK/iot_link/os/liteos/base/core\los_task.c ****     (VOID)pstTaskCB->pfnTaskEntry(pstTaskCB->uwArg);
 736:C:/Users/²Ü¼ÒºÀ/.iotlink/sdk/IoT_LINK/iot_link/os/liteos/base/core\los_task.c **** 
 737:C:/Users/²Ü¼ÒºÀ/.iotlink/sdk/IoT_LINK/iot_link/os/liteos/base/core\los_task.c ****     (VOID)LOS_TaskDelete(pstTaskCB->uwTaskID);
 738:C:/Users/²Ü¼ÒºÀ/.iotlink/sdk/IoT_LINK/iot_link/os/liteos/base/core\los_task.c **** }
 739:C:/Users/²Ü¼ÒºÀ/.iotlink/sdk/IoT_LINK/iot_link/os/liteos/base/core\los_task.c **** 
 740:C:/Users/²Ü¼ÒºÀ/.iotlink/sdk/IoT_LINK/iot_link/os/liteos/base/core\los_task.c **** #if (LOSCFG_STATIC_TASK == YES)
 741:C:/Users/²Ü¼ÒºÀ/.iotlink/sdk/IoT_LINK/iot_link/os/liteos/base/core\los_task.c **** 
 742:C:/Users/²Ü¼ÒºÀ/.iotlink/sdk/IoT_LINK/iot_link/os/liteos/base/core\los_task.c **** /*****************************************************************************
 743:C:/Users/²Ü¼ÒºÀ/.iotlink/sdk/IoT_LINK/iot_link/os/liteos/base/core\los_task.c ****  Function    : LOS_StaticTaskInit
 744:C:/Users/²Ü¼ÒºÀ/.iotlink/sdk/IoT_LINK/iot_link/os/liteos/base/core\los_task.c ****  Description : Initialize a task defined statically.
 745:C:/Users/²Ü¼ÒºÀ/.iotlink/sdk/IoT_LINK/iot_link/os/liteos/base/core\los_task.c ****  Input       : pvTaskCB  --- task control block to be initialized
 746:C:/Users/²Ü¼ÒºÀ/.iotlink/sdk/IoT_LINK/iot_link/os/liteos/base/core\los_task.c ****  Output      : puwTaskID --- task ID allocated for this task
 747:C:/Users/²Ü¼ÒºÀ/.iotlink/sdk/IoT_LINK/iot_link/os/liteos/base/core\los_task.c ****  Return      : LOS_OK on success or error code on failure
 748:C:/Users/²Ü¼ÒºÀ/.iotlink/sdk/IoT_LINK/iot_link/os/liteos/base/core\los_task.c ****  *****************************************************************************/
 749:C:/Users/²Ü¼ÒºÀ/.iotlink/sdk/IoT_LINK/iot_link/os/liteos/base/core\los_task.c **** UINT32 LOS_StaticTaskInit(void *pvTaskCB, UINT32 *puwTaskID)
 750:C:/Users/²Ü¼ÒºÀ/.iotlink/sdk/IoT_LINK/iot_link/os/liteos/base/core\los_task.c **** {
 751:C:/Users/²Ü¼ÒºÀ/.iotlink/sdk/IoT_LINK/iot_link/os/liteos/base/core\los_task.c ****     static UINT32 uwTaskID = 0;
 752:C:/Users/²Ü¼ÒºÀ/.iotlink/sdk/IoT_LINK/iot_link/os/liteos/base/core\los_task.c ****     UINTPTR uvIntSave;
 753:C:/Users/²Ü¼ÒºÀ/.iotlink/sdk/IoT_LINK/iot_link/os/liteos/base/core\los_task.c ****     LOS_TASK_CB *pstTaskCB = (LOS_TASK_CB *)pvTaskCB;
 754:C:/Users/²Ü¼ÒºÀ/.iotlink/sdk/IoT_LINK/iot_link/os/liteos/base/core\los_task.c **** 
 755:C:/Users/²Ü¼ÒºÀ/.iotlink/sdk/IoT_LINK/iot_link/os/liteos/base/core\los_task.c ****     uvIntSave = LOS_IntLock();
 756:C:/Users/²Ü¼ÒºÀ/.iotlink/sdk/IoT_LINK/iot_link/os/liteos/base/core\los_task.c **** 
 757:C:/Users/²Ü¼ÒºÀ/.iotlink/sdk/IoT_LINK/iot_link/os/liteos/base/core\los_task.c ****     if (uwTaskID >= g_uwTskMaxNum)
 758:C:/Users/²Ü¼ÒºÀ/.iotlink/sdk/IoT_LINK/iot_link/os/liteos/base/core\los_task.c ****         {
 759:C:/Users/²Ü¼ÒºÀ/.iotlink/sdk/IoT_LINK/iot_link/os/liteos/base/core\los_task.c ****         LOS_IntRestore (uvIntSave);
 760:C:/Users/²Ü¼ÒºÀ/.iotlink/sdk/IoT_LINK/iot_link/os/liteos/base/core\los_task.c ****         return LOS_ERRNO_TSK_NO_MEMORY;
 761:C:/Users/²Ü¼ÒºÀ/.iotlink/sdk/IoT_LINK/iot_link/os/liteos/base/core\los_task.c ****         }
ARM GAS  C:\Users\²Ü¼ÒºÀ\AppData\Local\Temp\ccOngKk7.s 			page 55


 762:C:/Users/²Ü¼ÒºÀ/.iotlink/sdk/IoT_LINK/iot_link/os/liteos/base/core\los_task.c **** 
 763:C:/Users/²Ü¼ÒºÀ/.iotlink/sdk/IoT_LINK/iot_link/os/liteos/base/core\los_task.c ****     pstTaskCB->uwTaskID = uwTaskID++;
 764:C:/Users/²Ü¼ÒºÀ/.iotlink/sdk/IoT_LINK/iot_link/os/liteos/base/core\los_task.c ****     LOS_IntRestore (uvIntSave);
 765:C:/Users/²Ü¼ÒºÀ/.iotlink/sdk/IoT_LINK/iot_link/os/liteos/base/core\los_task.c **** 
 766:C:/Users/²Ü¼ÒºÀ/.iotlink/sdk/IoT_LINK/iot_link/os/liteos/base/core\los_task.c ****     g_apstTaskCBArray[pstTaskCB->uwTaskID] = pstTaskCB;
 767:C:/Users/²Ü¼ÒºÀ/.iotlink/sdk/IoT_LINK/iot_link/os/liteos/base/core\los_task.c **** 
 768:C:/Users/²Ü¼ÒºÀ/.iotlink/sdk/IoT_LINK/iot_link/os/liteos/base/core\los_task.c ****     pstTaskCB->usTaskStatus = OS_TASK_STATUS_READY;
 769:C:/Users/²Ü¼ÒºÀ/.iotlink/sdk/IoT_LINK/iot_link/os/liteos/base/core\los_task.c **** 
 770:C:/Users/²Ü¼ÒºÀ/.iotlink/sdk/IoT_LINK/iot_link/os/liteos/base/core\los_task.c ****     pstTaskCB->uwTopOfStack = (UINT32) pstTaskCB->pStackPointer;
 771:C:/Users/²Ü¼ÒºÀ/.iotlink/sdk/IoT_LINK/iot_link/os/liteos/base/core\los_task.c **** 
 772:C:/Users/²Ü¼ÒºÀ/.iotlink/sdk/IoT_LINK/iot_link/os/liteos/base/core\los_task.c ****     osTskStackInit(pstTaskCB, NULL);
 773:C:/Users/²Ü¼ÒºÀ/.iotlink/sdk/IoT_LINK/iot_link/os/liteos/base/core\los_task.c **** 
 774:C:/Users/²Ü¼ÒºÀ/.iotlink/sdk/IoT_LINK/iot_link/os/liteos/base/core\los_task.c ****     osPriqueueEnqueue(&pstTaskCB->stPendList, pstTaskCB->usPriority);
 775:C:/Users/²Ü¼ÒºÀ/.iotlink/sdk/IoT_LINK/iot_link/os/liteos/base/core\los_task.c ****     g_stLosTask.pstNewTask = LOS_DL_LIST_ENTRY(osPriqueueTop(), LOS_TASK_CB, stPendList); /*lint !e
 776:C:/Users/²Ü¼ÒºÀ/.iotlink/sdk/IoT_LINK/iot_link/os/liteos/base/core\los_task.c **** 
 777:C:/Users/²Ü¼ÒºÀ/.iotlink/sdk/IoT_LINK/iot_link/os/liteos/base/core\los_task.c ****     *puwTaskID = pstTaskCB->uwTaskID;
 778:C:/Users/²Ü¼ÒºÀ/.iotlink/sdk/IoT_LINK/iot_link/os/liteos/base/core\los_task.c **** 
 779:C:/Users/²Ü¼ÒºÀ/.iotlink/sdk/IoT_LINK/iot_link/os/liteos/base/core\los_task.c ****     return LOS_OK;
 780:C:/Users/²Ü¼ÒºÀ/.iotlink/sdk/IoT_LINK/iot_link/os/liteos/base/core\los_task.c **** }
 781:C:/Users/²Ü¼ÒºÀ/.iotlink/sdk/IoT_LINK/iot_link/os/liteos/base/core\los_task.c **** 
 782:C:/Users/²Ü¼ÒºÀ/.iotlink/sdk/IoT_LINK/iot_link/os/liteos/base/core\los_task.c **** #else
 783:C:/Users/²Ü¼ÒºÀ/.iotlink/sdk/IoT_LINK/iot_link/os/liteos/base/core\los_task.c **** 
 784:C:/Users/²Ü¼ÒºÀ/.iotlink/sdk/IoT_LINK/iot_link/os/liteos/base/core\los_task.c **** /*****************************************************************************
 785:C:/Users/²Ü¼ÒºÀ/.iotlink/sdk/IoT_LINK/iot_link/os/liteos/base/core\los_task.c ****  Function : LOS_TaskCreateOnly
 786:C:/Users/²Ü¼ÒºÀ/.iotlink/sdk/IoT_LINK/iot_link/os/liteos/base/core\los_task.c ****  Description : Create a task and suspend
 787:C:/Users/²Ü¼ÒºÀ/.iotlink/sdk/IoT_LINK/iot_link/os/liteos/base/core\los_task.c ****  Input       : pstInitParam --- Task init parameters
 788:C:/Users/²Ü¼ÒºÀ/.iotlink/sdk/IoT_LINK/iot_link/os/liteos/base/core\los_task.c ****  Output      : puwTaskID    --- Save task ID
 789:C:/Users/²Ü¼ÒºÀ/.iotlink/sdk/IoT_LINK/iot_link/os/liteos/base/core\los_task.c ****  Return      : LOS_OK on success or error code on failure
 790:C:/Users/²Ü¼ÒºÀ/.iotlink/sdk/IoT_LINK/iot_link/os/liteos/base/core\los_task.c ****  *****************************************************************************/
 791:C:/Users/²Ü¼ÒºÀ/.iotlink/sdk/IoT_LINK/iot_link/os/liteos/base/core\los_task.c **** LITE_OS_SEC_TEXT_INIT UINT32 LOS_TaskCreateOnly(UINT32 *puwTaskID, TSK_INIT_PARAM_S *pstInitParam)
 792:C:/Users/²Ü¼ÒºÀ/.iotlink/sdk/IoT_LINK/iot_link/os/liteos/base/core\los_task.c **** {
 1689              		.loc 2 792 1 is_stmt 1 view -0
 1690              		.cfi_startproc
 1691              		@ args = 0, pretend = 0, frame = 0
 1692              		@ frame_needed = 0, uses_anonymous_args = 0
 793:C:/Users/²Ü¼ÒºÀ/.iotlink/sdk/IoT_LINK/iot_link/os/liteos/base/core\los_task.c ****     UINT32 uwTaskID = 0;
 1693              		.loc 2 793 5 view .LVU479
 794:C:/Users/²Ü¼ÒºÀ/.iotlink/sdk/IoT_LINK/iot_link/os/liteos/base/core\los_task.c ****     UINTPTR uvIntSave;
 1694              		.loc 2 794 5 view .LVU480
 795:C:/Users/²Ü¼ÒºÀ/.iotlink/sdk/IoT_LINK/iot_link/os/liteos/base/core\los_task.c ****     VOID  *pTopStack;
 1695              		.loc 2 795 5 view .LVU481
 796:C:/Users/²Ü¼ÒºÀ/.iotlink/sdk/IoT_LINK/iot_link/os/liteos/base/core\los_task.c ****     LOS_TASK_CB *pstTaskCB;
 1696              		.loc 2 796 5 view .LVU482
 797:C:/Users/²Ü¼ÒºÀ/.iotlink/sdk/IoT_LINK/iot_link/os/liteos/base/core\los_task.c ****     UINT32 uwErrRet = OS_ERROR;
 1697              		.loc 2 797 5 view .LVU483
 798:C:/Users/²Ü¼ÒºÀ/.iotlink/sdk/IoT_LINK/iot_link/os/liteos/base/core\los_task.c **** 
 799:C:/Users/²Ü¼ÒºÀ/.iotlink/sdk/IoT_LINK/iot_link/os/liteos/base/core\los_task.c ****     if (NULL == puwTaskID)
 1698              		.loc 2 799 5 view .LVU484
 792:C:/Users/²Ü¼ÒºÀ/.iotlink/sdk/IoT_LINK/iot_link/os/liteos/base/core\los_task.c ****     UINT32 uwTaskID = 0;
 1699              		.loc 2 792 1 is_stmt 0 view .LVU485
 1700 0000 2DE9F047 		push	{r4, r5, r6, r7, r8, r9, r10, lr}
 1701              	.LCFI23:
 1702              		.cfi_def_cfa_offset 32
 1703              		.cfi_offset 4, -32
 1704              		.cfi_offset 5, -28
 1705              		.cfi_offset 6, -24
 1706              		.cfi_offset 7, -20
ARM GAS  C:\Users\²Ü¼ÒºÀ\AppData\Local\Temp\ccOngKk7.s 			page 56


 1707              		.cfi_offset 8, -16
 1708              		.cfi_offset 9, -12
 1709              		.cfi_offset 10, -8
 1710              		.cfi_offset 14, -4
 792:C:/Users/²Ü¼ÒºÀ/.iotlink/sdk/IoT_LINK/iot_link/os/liteos/base/core\los_task.c ****     UINT32 uwTaskID = 0;
 1711              		.loc 2 792 1 view .LVU486
 1712 0004 0D46     		mov	r5, r1
 1713              		.loc 2 799 8 view .LVU487
 1714 0006 8046     		mov	r8, r0
 1715 0008 0028     		cmp	r0, #0
 1716 000a 7ED0     		beq	.L128
 800:C:/Users/²Ü¼ÒºÀ/.iotlink/sdk/IoT_LINK/iot_link/os/liteos/base/core\los_task.c ****     {
 801:C:/Users/²Ü¼ÒºÀ/.iotlink/sdk/IoT_LINK/iot_link/os/liteos/base/core\los_task.c ****         return LOS_ERRNO_TSK_ID_INVALID;
 802:C:/Users/²Ü¼ÒºÀ/.iotlink/sdk/IoT_LINK/iot_link/os/liteos/base/core\los_task.c ****     }
 803:C:/Users/²Ü¼ÒºÀ/.iotlink/sdk/IoT_LINK/iot_link/os/liteos/base/core\los_task.c **** 
 804:C:/Users/²Ü¼ÒºÀ/.iotlink/sdk/IoT_LINK/iot_link/os/liteos/base/core\los_task.c ****     if (NULL == pstInitParam)
 1717              		.loc 2 804 5 is_stmt 1 view .LVU488
 1718              		.loc 2 804 8 is_stmt 0 view .LVU489
 1719 000c 0029     		cmp	r1, #0
 1720 000e 7ED0     		beq	.L129
 805:C:/Users/²Ü¼ÒºÀ/.iotlink/sdk/IoT_LINK/iot_link/os/liteos/base/core\los_task.c ****     {
 806:C:/Users/²Ü¼ÒºÀ/.iotlink/sdk/IoT_LINK/iot_link/os/liteos/base/core\los_task.c ****         return LOS_ERRNO_TSK_PTR_NULL;
 807:C:/Users/²Ü¼ÒºÀ/.iotlink/sdk/IoT_LINK/iot_link/os/liteos/base/core\los_task.c ****     }
 808:C:/Users/²Ü¼ÒºÀ/.iotlink/sdk/IoT_LINK/iot_link/os/liteos/base/core\los_task.c **** 
 809:C:/Users/²Ü¼ÒºÀ/.iotlink/sdk/IoT_LINK/iot_link/os/liteos/base/core\los_task.c ****     if (NULL == pstInitParam->pcName)
 1721              		.loc 2 809 5 is_stmt 1 view .LVU490
 1722              		.loc 2 809 8 is_stmt 0 view .LVU491
 1723 0010 0B69     		ldr	r3, [r1, #16]
 1724 0012 002B     		cmp	r3, #0
 1725 0014 7DD0     		beq	.L130
 810:C:/Users/²Ü¼ÒºÀ/.iotlink/sdk/IoT_LINK/iot_link/os/liteos/base/core\los_task.c ****     {
 811:C:/Users/²Ü¼ÒºÀ/.iotlink/sdk/IoT_LINK/iot_link/os/liteos/base/core\los_task.c ****         return LOS_ERRNO_TSK_NAME_EMPTY;
 812:C:/Users/²Ü¼ÒºÀ/.iotlink/sdk/IoT_LINK/iot_link/os/liteos/base/core\los_task.c ****     }
 813:C:/Users/²Ü¼ÒºÀ/.iotlink/sdk/IoT_LINK/iot_link/os/liteos/base/core\los_task.c **** 
 814:C:/Users/²Ü¼ÒºÀ/.iotlink/sdk/IoT_LINK/iot_link/os/liteos/base/core\los_task.c ****     if (NULL == pstInitParam->pfnTaskEntry)
 1726              		.loc 2 814 5 is_stmt 1 view .LVU492
 1727              		.loc 2 814 29 is_stmt 0 view .LVU493
 1728 0016 0B68     		ldr	r3, [r1]
 1729              		.loc 2 814 8 view .LVU494
 1730 0018 002B     		cmp	r3, #0
 1731 001a 7CD0     		beq	.L131
 815:C:/Users/²Ü¼ÒºÀ/.iotlink/sdk/IoT_LINK/iot_link/os/liteos/base/core\los_task.c ****     {
 816:C:/Users/²Ü¼ÒºÀ/.iotlink/sdk/IoT_LINK/iot_link/os/liteos/base/core\los_task.c ****         return LOS_ERRNO_TSK_ENTRY_NULL;
 817:C:/Users/²Ü¼ÒºÀ/.iotlink/sdk/IoT_LINK/iot_link/os/liteos/base/core\los_task.c ****     }
 818:C:/Users/²Ü¼ÒºÀ/.iotlink/sdk/IoT_LINK/iot_link/os/liteos/base/core\los_task.c **** 
 819:C:/Users/²Ü¼ÒºÀ/.iotlink/sdk/IoT_LINK/iot_link/os/liteos/base/core\los_task.c ****     if ((pstInitParam->usTaskPrio) > OS_TASK_PRIORITY_LOWEST)
 1732              		.loc 2 819 5 is_stmt 1 view .LVU495
 1733              		.loc 2 819 22 is_stmt 0 view .LVU496
 1734 001c 8A88     		ldrh	r2, [r1, #4]
 1735              		.loc 2 819 8 view .LVU497
 1736 001e 1F2A     		cmp	r2, #31
 1737 0020 7BD8     		bhi	.L133
 820:C:/Users/²Ü¼ÒºÀ/.iotlink/sdk/IoT_LINK/iot_link/os/liteos/base/core\los_task.c ****     {
 821:C:/Users/²Ü¼ÒºÀ/.iotlink/sdk/IoT_LINK/iot_link/os/liteos/base/core\los_task.c ****         return LOS_ERRNO_TSK_PRIOR_ERROR;
 822:C:/Users/²Ü¼ÒºÀ/.iotlink/sdk/IoT_LINK/iot_link/os/liteos/base/core\los_task.c ****     }
 823:C:/Users/²Ü¼ÒºÀ/.iotlink/sdk/IoT_LINK/iot_link/os/liteos/base/core\los_task.c **** 
 824:C:/Users/²Ü¼ÒºÀ/.iotlink/sdk/IoT_LINK/iot_link/os/liteos/base/core\los_task.c ****     if (((pstInitParam->usTaskPrio) == OS_TASK_PRIORITY_LOWEST)
ARM GAS  C:\Users\²Ü¼ÒºÀ\AppData\Local\Temp\ccOngKk7.s 			page 57


 1738              		.loc 2 824 5 is_stmt 1 view .LVU498
 1739              		.loc 2 824 8 is_stmt 0 view .LVU499
 1740 0022 02D1     		bne	.L122
 825:C:/Users/²Ü¼ÒºÀ/.iotlink/sdk/IoT_LINK/iot_link/os/liteos/base/core\los_task.c ****         && (pstInitParam->pfnTaskEntry != OS_IDLE_TASK_ENTRY))
 1741              		.loc 2 825 9 view .LVU500
 1742 0024 3F4A     		ldr	r2, .L136
 1743 0026 9342     		cmp	r3, r2
 1744 0028 77D1     		bne	.L133
 1745              	.L122:
 826:C:/Users/²Ü¼ÒºÀ/.iotlink/sdk/IoT_LINK/iot_link/os/liteos/base/core\los_task.c ****     {
 827:C:/Users/²Ü¼ÒºÀ/.iotlink/sdk/IoT_LINK/iot_link/os/liteos/base/core\los_task.c ****         return LOS_ERRNO_TSK_PRIOR_ERROR;
 828:C:/Users/²Ü¼ÒºÀ/.iotlink/sdk/IoT_LINK/iot_link/os/liteos/base/core\los_task.c ****     }
 829:C:/Users/²Ü¼ÒºÀ/.iotlink/sdk/IoT_LINK/iot_link/os/liteos/base/core\los_task.c **** 
 830:C:/Users/²Ü¼ÒºÀ/.iotlink/sdk/IoT_LINK/iot_link/os/liteos/base/core\los_task.c ****     if (0 == pstInitParam->uwStackSize)
 1746              		.loc 2 830 5 is_stmt 1 view .LVU501
 1747              		.loc 2 830 8 is_stmt 0 view .LVU502
 1748 002a EB68     		ldr	r3, [r5, #12]
 1749 002c 13B9     		cbnz	r3, .L123
 831:C:/Users/²Ü¼ÒºÀ/.iotlink/sdk/IoT_LINK/iot_link/os/liteos/base/core\los_task.c ****     {
 832:C:/Users/²Ü¼ÒºÀ/.iotlink/sdk/IoT_LINK/iot_link/os/liteos/base/core\los_task.c ****         pstInitParam->uwStackSize = LOSCFG_BASE_CORE_TSK_DEFAULT_STACK_SIZE;
 1750              		.loc 2 832 9 is_stmt 1 view .LVU503
 1751              		.loc 2 832 35 is_stmt 0 view .LVU504
 1752 002e 4FF43473 		mov	r3, #720
 1753 0032 EB60     		str	r3, [r5, #12]
 1754              	.L123:
 833:C:/Users/²Ü¼ÒºÀ/.iotlink/sdk/IoT_LINK/iot_link/os/liteos/base/core\los_task.c ****     }
 834:C:/Users/²Ü¼ÒºÀ/.iotlink/sdk/IoT_LINK/iot_link/os/liteos/base/core\los_task.c ****     pstInitParam->uwStackSize = ALIGN(pstInitParam->uwStackSize , LOSCFG_STACK_POINT_ALIGN_SIZE);
 1755              		.loc 2 834 5 is_stmt 1 view .LVU505
 1756              		.loc 2 834 33 is_stmt 0 view .LVU506
 1757 0034 E868     		ldr	r0, [r5, #12]
 1758              	.LVL114:
 1759              		.loc 2 834 33 view .LVU507
 1760 0036 0821     		movs	r1, #8
 1761              	.LVL115:
 1762              		.loc 2 834 33 view .LVU508
 1763 0038 FFF7FEFF 		bl	LOS_Align
 1764              	.LVL116:
 835:C:/Users/²Ü¼ÒºÀ/.iotlink/sdk/IoT_LINK/iot_link/os/liteos/base/core\los_task.c **** 
 836:C:/Users/²Ü¼ÒºÀ/.iotlink/sdk/IoT_LINK/iot_link/os/liteos/base/core\los_task.c ****     if (pstInitParam->uwStackSize < LOSCFG_BASE_CORE_TSK_MIN_STACK_SIZE)
 1765              		.loc 2 836 8 view .LVU509
 1766 003c B0F5987F 		cmp	r0, #304
 834:C:/Users/²Ü¼ÒºÀ/.iotlink/sdk/IoT_LINK/iot_link/os/liteos/base/core\los_task.c **** 
 1767              		.loc 2 834 31 view .LVU510
 1768 0040 E860     		str	r0, [r5, #12]
 1769              		.loc 2 836 5 is_stmt 1 view .LVU511
 1770              		.loc 2 836 8 is_stmt 0 view .LVU512
 1771 0042 6CD3     		bcc	.L134
 1772              	.LVL117:
 1773              	.LBB110:
 1774              	.LBI110:
 791:C:/Users/²Ü¼ÒºÀ/.iotlink/sdk/IoT_LINK/iot_link/os/liteos/base/core\los_task.c **** {
 1775              		.loc 2 791 30 is_stmt 1 view .LVU513
 1776              	.LBB111:
 837:C:/Users/²Ü¼ÒºÀ/.iotlink/sdk/IoT_LINK/iot_link/os/liteos/base/core\los_task.c ****     {
 838:C:/Users/²Ü¼ÒºÀ/.iotlink/sdk/IoT_LINK/iot_link/os/liteos/base/core\los_task.c ****         return LOS_ERRNO_TSK_STKSZ_TOO_SMALL;
 839:C:/Users/²Ü¼ÒºÀ/.iotlink/sdk/IoT_LINK/iot_link/os/liteos/base/core\los_task.c ****     }
 840:C:/Users/²Ü¼ÒºÀ/.iotlink/sdk/IoT_LINK/iot_link/os/liteos/base/core\los_task.c **** 
ARM GAS  C:\Users\²Ü¼ÒºÀ\AppData\Local\Temp\ccOngKk7.s 			page 58


 841:C:/Users/²Ü¼ÒºÀ/.iotlink/sdk/IoT_LINK/iot_link/os/liteos/base/core\los_task.c ****     uvIntSave = LOS_IntLock();
 1777              		.loc 2 841 5 view .LVU514
 1778              		.loc 2 841 17 is_stmt 0 view .LVU515
 1779 0044 FFF7FEFF 		bl	LOS_IntLock
 1780              	.LVL118:
 1781              	.LBB112:
 1782              	.LBB113:
 190:C:/Users/²Ü¼ÒºÀ/.iotlink/sdk/IoT_LINK/iot_link/os/liteos/include\los_list.h **** 
 191:C:/Users/²Ü¼ÒºÀ/.iotlink/sdk/IoT_LINK/iot_link/os/liteos/include\los_list.h **** /**
 192:C:/Users/²Ü¼ÒºÀ/.iotlink/sdk/IoT_LINK/iot_link/os/liteos/include\los_list.h ****  *@ingroup los_list
 193:C:/Users/²Ü¼ÒºÀ/.iotlink/sdk/IoT_LINK/iot_link/os/liteos/include\los_list.h ****  *@brief Identify whether a specified doubly linked list is empty.
 194:C:/Users/²Ü¼ÒºÀ/.iotlink/sdk/IoT_LINK/iot_link/os/liteos/include\los_list.h ****  *
 195:C:/Users/²Ü¼ÒºÀ/.iotlink/sdk/IoT_LINK/iot_link/os/liteos/include\los_list.h ****  *@par Description:
 196:C:/Users/²Ü¼ÒºÀ/.iotlink/sdk/IoT_LINK/iot_link/os/liteos/include\los_list.h ****  *<ul>
 197:C:/Users/²Ü¼ÒºÀ/.iotlink/sdk/IoT_LINK/iot_link/os/liteos/include\los_list.h ****  *<li>This API is used to return whether a doubly linked list is empty.</li>
 198:C:/Users/²Ü¼ÒºÀ/.iotlink/sdk/IoT_LINK/iot_link/os/liteos/include\los_list.h ****  *</ul>
 199:C:/Users/²Ü¼ÒºÀ/.iotlink/sdk/IoT_LINK/iot_link/os/liteos/include\los_list.h ****  *@attention
 200:C:/Users/²Ü¼ÒºÀ/.iotlink/sdk/IoT_LINK/iot_link/os/liteos/include\los_list.h ****  *<ul>
 201:C:/Users/²Ü¼ÒºÀ/.iotlink/sdk/IoT_LINK/iot_link/os/liteos/include\los_list.h ****  *<li>The parameter passed in should be ensured to be a legal pointer.</li>
 202:C:/Users/²Ü¼ÒºÀ/.iotlink/sdk/IoT_LINK/iot_link/os/liteos/include\los_list.h ****  *</ul>
 203:C:/Users/²Ü¼ÒºÀ/.iotlink/sdk/IoT_LINK/iot_link/os/liteos/include\los_list.h ****  *
 204:C:/Users/²Ü¼ÒºÀ/.iotlink/sdk/IoT_LINK/iot_link/os/liteos/include\los_list.h ****  *@param pstList  [IN] Doubly linked list.
 205:C:/Users/²Ü¼ÒºÀ/.iotlink/sdk/IoT_LINK/iot_link/os/liteos/include\los_list.h ****  *
 206:C:/Users/²Ü¼ÒºÀ/.iotlink/sdk/IoT_LINK/iot_link/os/liteos/include\los_list.h ****  *@retval TRUE The doubly linked list is empty.
 207:C:/Users/²Ü¼ÒºÀ/.iotlink/sdk/IoT_LINK/iot_link/os/liteos/include\los_list.h ****  *@retval FALSE The doubly linked list is not empty.
 208:C:/Users/²Ü¼ÒºÀ/.iotlink/sdk/IoT_LINK/iot_link/os/liteos/include\los_list.h ****  *@par Dependency:
 209:C:/Users/²Ü¼ÒºÀ/.iotlink/sdk/IoT_LINK/iot_link/os/liteos/include\los_list.h ****  *<ul><li>los_list.h: the header file that contains the API declaration.</li></ul>
 210:C:/Users/²Ü¼ÒºÀ/.iotlink/sdk/IoT_LINK/iot_link/os/liteos/include\los_list.h ****  *@see
 211:C:/Users/²Ü¼ÒºÀ/.iotlink/sdk/IoT_LINK/iot_link/os/liteos/include\los_list.h ****  *@since Huawei LiteOS V100R001C00
 212:C:/Users/²Ü¼ÒºÀ/.iotlink/sdk/IoT_LINK/iot_link/os/liteos/include\los_list.h ****  */
 213:C:/Users/²Ü¼ÒºÀ/.iotlink/sdk/IoT_LINK/iot_link/os/liteos/include\los_list.h **** LITE_OS_SEC_ALW_INLINE STATIC_INLINE BOOL LOS_ListEmpty(LOS_DL_LIST *pstNode)
 214:C:/Users/²Ü¼ÒºÀ/.iotlink/sdk/IoT_LINK/iot_link/os/liteos/include\los_list.h **** {
 215:C:/Users/²Ü¼ÒºÀ/.iotlink/sdk/IoT_LINK/iot_link/os/liteos/include\los_list.h ****     return (BOOL)(pstNode->pstNext == pstNode);
 1783              		.loc 1 215 26 view .LVU516
 1784 0048 DFF80091 		ldr	r9, .L136+40
 1785 004c 364E     		ldr	r6, .L136+4
 1786              	.LBE113:
 1787              	.LBE112:
 842:C:/Users/²Ü¼ÒºÀ/.iotlink/sdk/IoT_LINK/iot_link/os/liteos/base/core\los_task.c ****     while (!LOS_ListEmpty(&g_stTskRecyleList))
 843:C:/Users/²Ü¼ÒºÀ/.iotlink/sdk/IoT_LINK/iot_link/os/liteos/base/core\los_task.c ****     {
 844:C:/Users/²Ü¼ÒºÀ/.iotlink/sdk/IoT_LINK/iot_link/os/liteos/base/core\los_task.c ****         pstTaskCB = OS_TCB_FROM_PENDLIST(LOS_DL_LIST_FIRST(&g_stTskRecyleList)); /*lint !e413*/
 845:C:/Users/²Ü¼ÒºÀ/.iotlink/sdk/IoT_LINK/iot_link/os/liteos/base/core\los_task.c ****         LOS_ListDelete(LOS_DL_LIST_FIRST(&g_stTskRecyleList));
 846:C:/Users/²Ü¼ÒºÀ/.iotlink/sdk/IoT_LINK/iot_link/os/liteos/base/core\los_task.c ****         LOS_ListAdd(&g_stLosFreeTask, &pstTaskCB->stPendList);
 847:C:/Users/²Ü¼ÒºÀ/.iotlink/sdk/IoT_LINK/iot_link/os/liteos/base/core\los_task.c ****         (VOID)LOS_MemFree(OS_TASK_STACK_ADDR, (VOID *)pstTaskCB->uwTopOfStack);
 1788              		.loc 2 847 15 view .LVU517
 1789 004e DFF800A1 		ldr	r10, .L136+44
 841:C:/Users/²Ü¼ÒºÀ/.iotlink/sdk/IoT_LINK/iot_link/os/liteos/base/core\los_task.c ****     while (!LOS_ListEmpty(&g_stTskRecyleList))
 1790              		.loc 2 841 17 view .LVU518
 1791 0052 0746     		mov	r7, r0
 1792              	.LVL119:
 842:C:/Users/²Ü¼ÒºÀ/.iotlink/sdk/IoT_LINK/iot_link/os/liteos/base/core\los_task.c ****     while (!LOS_ListEmpty(&g_stTskRecyleList))
 1793              		.loc 2 842 5 is_stmt 1 view .LVU519
 1794              	.L124:
 842:C:/Users/²Ü¼ÒºÀ/.iotlink/sdk/IoT_LINK/iot_link/os/liteos/base/core\los_task.c ****     while (!LOS_ListEmpty(&g_stTskRecyleList))
 1795              		.loc 2 842 11 view .LVU520
 1796              	.LBB115:
 1797              	.LBI112:
ARM GAS  C:\Users\²Ü¼ÒºÀ\AppData\Local\Temp\ccOngKk7.s 			page 59


 213:C:/Users/²Ü¼ÒºÀ/.iotlink/sdk/IoT_LINK/iot_link/os/liteos/include\los_list.h **** {
 1798              		.loc 1 213 43 view .LVU521
 1799              	.LBB114:
 1800              		.loc 1 215 5 view .LVU522
 1801              		.loc 1 215 26 is_stmt 0 view .LVU523
 1802 0054 D9F80440 		ldr	r4, [r9, #4]
 1803              	.LVL120:
 1804              		.loc 1 215 26 view .LVU524
 1805              	.LBE114:
 1806              	.LBE115:
 842:C:/Users/²Ü¼ÒºÀ/.iotlink/sdk/IoT_LINK/iot_link/os/liteos/base/core\los_task.c ****     while (!LOS_ListEmpty(&g_stTskRecyleList))
 1807              		.loc 2 842 11 view .LVU525
 1808 0058 4C45     		cmp	r4, r9
 1809 005a 1DD1     		bne	.L125
 848:C:/Users/²Ü¼ÒºÀ/.iotlink/sdk/IoT_LINK/iot_link/os/liteos/base/core\los_task.c ****         pstTaskCB->uwTopOfStack = (UINT32)NULL;
 849:C:/Users/²Ü¼ÒºÀ/.iotlink/sdk/IoT_LINK/iot_link/os/liteos/base/core\los_task.c ****     }
 850:C:/Users/²Ü¼ÒºÀ/.iotlink/sdk/IoT_LINK/iot_link/os/liteos/base/core\los_task.c **** 
 851:C:/Users/²Ü¼ÒºÀ/.iotlink/sdk/IoT_LINK/iot_link/os/liteos/base/core\los_task.c ****     if (LOS_ListEmpty(&g_stLosFreeTask))
 1810              		.loc 2 851 5 is_stmt 1 view .LVU526
 1811              	.LVL121:
 1812              	.LBB116:
 1813              	.LBI116:
 213:C:/Users/²Ü¼ÒºÀ/.iotlink/sdk/IoT_LINK/iot_link/os/liteos/include\los_list.h **** {
 1814              		.loc 1 213 43 view .LVU527
 1815              	.LBB117:
 1816              		.loc 1 215 5 view .LVU528
 1817              		.loc 1 215 26 is_stmt 0 view .LVU529
 1818 005c 7468     		ldr	r4, [r6, #4]
 1819              	.LVL122:
 1820              		.loc 1 215 26 view .LVU530
 1821              	.LBE117:
 1822              	.LBE116:
 1823              		.loc 2 851 8 view .LVU531
 1824 005e B442     		cmp	r4, r6
 1825 0060 51D0     		beq	.L135
 852:C:/Users/²Ü¼ÒºÀ/.iotlink/sdk/IoT_LINK/iot_link/os/liteos/base/core\los_task.c ****     {
 853:C:/Users/²Ü¼ÒºÀ/.iotlink/sdk/IoT_LINK/iot_link/os/liteos/base/core\los_task.c ****         uwErrRet = LOS_ERRNO_TSK_TCB_UNAVAILABLE;
 854:C:/Users/²Ü¼ÒºÀ/.iotlink/sdk/IoT_LINK/iot_link/os/liteos/base/core\los_task.c ****         OS_GOTO_ERREND();
 1826              		.loc 2 854 9 is_stmt 1 view .LVU532
 855:C:/Users/²Ü¼ÒºÀ/.iotlink/sdk/IoT_LINK/iot_link/os/liteos/base/core\los_task.c ****     }
 856:C:/Users/²Ü¼ÒºÀ/.iotlink/sdk/IoT_LINK/iot_link/os/liteos/base/core\los_task.c **** 
 857:C:/Users/²Ü¼ÒºÀ/.iotlink/sdk/IoT_LINK/iot_link/os/liteos/base/core\los_task.c ****     pstTaskCB = OS_TCB_FROM_PENDLIST(LOS_DL_LIST_FIRST(&g_stLosFreeTask)); /*lint !e413*/
 1827              		.loc 2 857 5 view .LVU533
 858:C:/Users/²Ü¼ÒºÀ/.iotlink/sdk/IoT_LINK/iot_link/os/liteos/base/core\los_task.c ****     LOS_ListDelete(LOS_DL_LIST_FIRST(&g_stLosFreeTask));
 1828              		.loc 2 858 5 is_stmt 0 view .LVU534
 1829 0062 2046     		mov	r0, r4
 1830 0064 FFF7FEFF 		bl	LOS_ListDelete
 1831              	.LVL123:
 859:C:/Users/²Ü¼ÒºÀ/.iotlink/sdk/IoT_LINK/iot_link/os/liteos/base/core\los_task.c ****     (VOID)LOS_IntRestore(uvIntSave);
 1832              		.loc 2 859 5 view .LVU535
 1833 0068 3846     		mov	r0, r7
 1834 006a FFF7FEFF 		bl	LOS_IntRestore
 1835              	.LVL124:
 860:C:/Users/²Ü¼ÒºÀ/.iotlink/sdk/IoT_LINK/iot_link/os/liteos/base/core\los_task.c ****     uwTaskID = pstTaskCB->uwTaskID;
 861:C:/Users/²Ü¼ÒºÀ/.iotlink/sdk/IoT_LINK/iot_link/os/liteos/base/core\los_task.c **** 
 862:C:/Users/²Ü¼ÒºÀ/.iotlink/sdk/IoT_LINK/iot_link/os/liteos/base/core\los_task.c ****     extern VOID *osTskStackAlloc (TSK_INIT_PARAM_S *pstInitParam);
 863:C:/Users/²Ü¼ÒºÀ/.iotlink/sdk/IoT_LINK/iot_link/os/liteos/base/core\los_task.c ****     pTopStack = (VOID *)osTskStackAlloc(pstInitParam);
ARM GAS  C:\Users\²Ü¼ÒºÀ\AppData\Local\Temp\ccOngKk7.s 			page 60


 1836              		.loc 2 863 17 view .LVU536
 1837 006e 2846     		mov	r0, r5
 860:C:/Users/²Ü¼ÒºÀ/.iotlink/sdk/IoT_LINK/iot_link/os/liteos/base/core\los_task.c ****     uwTaskID = pstTaskCB->uwTaskID;
 1838              		.loc 2 860 14 view .LVU537
 1839 0070 54F8187C 		ldr	r7, [r4, #-24]
 1840              	.LVL125:
 857:C:/Users/²Ü¼ÒºÀ/.iotlink/sdk/IoT_LINK/iot_link/os/liteos/base/core\los_task.c ****     LOS_ListDelete(LOS_DL_LIST_FIRST(&g_stLosFreeTask));
 1841              		.loc 2 857 15 view .LVU538
 1842 0074 A4F12809 		sub	r9, r4, #40
 1843              	.LVL126:
 858:C:/Users/²Ü¼ÒºÀ/.iotlink/sdk/IoT_LINK/iot_link/os/liteos/base/core\los_task.c ****     (VOID)LOS_IntRestore(uvIntSave);
 1844              		.loc 2 858 5 is_stmt 1 view .LVU539
 859:C:/Users/²Ü¼ÒºÀ/.iotlink/sdk/IoT_LINK/iot_link/os/liteos/base/core\los_task.c ****     uwTaskID = pstTaskCB->uwTaskID;
 1845              		.loc 2 859 5 view .LVU540
 860:C:/Users/²Ü¼ÒºÀ/.iotlink/sdk/IoT_LINK/iot_link/os/liteos/base/core\los_task.c **** 
 1846              		.loc 2 860 5 view .LVU541
 862:C:/Users/²Ü¼ÒºÀ/.iotlink/sdk/IoT_LINK/iot_link/os/liteos/base/core\los_task.c ****     pTopStack = (VOID *)osTskStackAlloc(pstInitParam);
 1847              		.loc 2 862 5 view .LVU542
 1848              		.loc 2 863 5 view .LVU543
 1849              		.loc 2 863 17 is_stmt 0 view .LVU544
 1850 0078 FFF7FEFF 		bl	osTskStackAlloc
 1851              	.LVL127:
 864:C:/Users/²Ü¼ÒºÀ/.iotlink/sdk/IoT_LINK/iot_link/os/liteos/base/core\los_task.c **** 
 865:C:/Users/²Ü¼ÒºÀ/.iotlink/sdk/IoT_LINK/iot_link/os/liteos/base/core\los_task.c ****     if (NULL == pTopStack)
 1852              		.loc 2 865 5 is_stmt 1 view .LVU545
 1853              		.loc 2 865 8 is_stmt 0 view .LVU546
 1854 007c F0B9     		cbnz	r0, .L127
 866:C:/Users/²Ü¼ÒºÀ/.iotlink/sdk/IoT_LINK/iot_link/os/liteos/base/core\los_task.c ****     {
 867:C:/Users/²Ü¼ÒºÀ/.iotlink/sdk/IoT_LINK/iot_link/os/liteos/base/core\los_task.c ****         uvIntSave = LOS_IntLock();
 1855              		.loc 2 867 9 is_stmt 1 view .LVU547
 1856              		.loc 2 867 21 is_stmt 0 view .LVU548
 1857 007e FFF7FEFF 		bl	LOS_IntLock
 1858              	.LVL128:
 1859              	.LBB118:
 1860              	.LBB119:
 131:C:/Users/²Ü¼ÒºÀ/.iotlink/sdk/IoT_LINK/iot_link/os/liteos/include\los_list.h ****     pstNode->pstPrev = pstList;
 1861              		.loc 1 131 31 view .LVU549
 1862 0082 7368     		ldr	r3, [r6, #4]
 132:C:/Users/²Ü¼ÒºÀ/.iotlink/sdk/IoT_LINK/iot_link/os/liteos/include\los_list.h ****     pstList->pstNext->pstPrev = pstNode;
 1863              		.loc 1 132 22 view .LVU550
 1864 0084 C4E90063 		strd	r6, r3, [r4]
 133:C:/Users/²Ü¼ÒºÀ/.iotlink/sdk/IoT_LINK/iot_link/os/liteos/include\los_list.h ****     pstList->pstNext = pstNode;
 1865              		.loc 1 133 31 view .LVU551
 1866 0088 1C60     		str	r4, [r3]
 134:C:/Users/²Ü¼ÒºÀ/.iotlink/sdk/IoT_LINK/iot_link/os/liteos/include\los_list.h **** }
 1867              		.loc 1 134 22 view .LVU552
 1868 008a 7460     		str	r4, [r6, #4]
 1869              	.LBE119:
 1870              	.LBE118:
 868:C:/Users/²Ü¼ÒºÀ/.iotlink/sdk/IoT_LINK/iot_link/os/liteos/base/core\los_task.c ****         LOS_ListAdd(&g_stLosFreeTask, &pstTaskCB->stPendList);
 869:C:/Users/²Ü¼ÒºÀ/.iotlink/sdk/IoT_LINK/iot_link/os/liteos/base/core\los_task.c ****         uwErrRet = LOS_ERRNO_TSK_NO_MEMORY;
 1871              		.loc 2 869 18 view .LVU553
 1872 008c 274E     		ldr	r6, .L136+8
 867:C:/Users/²Ü¼ÒºÀ/.iotlink/sdk/IoT_LINK/iot_link/os/liteos/base/core\los_task.c ****         LOS_ListAdd(&g_stLosFreeTask, &pstTaskCB->stPendList);
 1873              		.loc 2 867 21 view .LVU554
 1874 008e 0746     		mov	r7, r0
 1875              	.LVL129:
ARM GAS  C:\Users\²Ü¼ÒºÀ\AppData\Local\Temp\ccOngKk7.s 			page 61


 868:C:/Users/²Ü¼ÒºÀ/.iotlink/sdk/IoT_LINK/iot_link/os/liteos/base/core\los_task.c ****         LOS_ListAdd(&g_stLosFreeTask, &pstTaskCB->stPendList);
 1876              		.loc 2 868 9 is_stmt 1 view .LVU555
 1877              	.LBB121:
 1878              	.LBI118:
 129:C:/Users/²Ü¼ÒºÀ/.iotlink/sdk/IoT_LINK/iot_link/os/liteos/include\los_list.h **** {
 1879              		.loc 1 129 43 view .LVU556
 1880              	.LBB120:
 131:C:/Users/²Ü¼ÒºÀ/.iotlink/sdk/IoT_LINK/iot_link/os/liteos/include\los_list.h ****     pstNode->pstPrev = pstList;
 1881              		.loc 1 131 5 view .LVU557
 133:C:/Users/²Ü¼ÒºÀ/.iotlink/sdk/IoT_LINK/iot_link/os/liteos/include\los_list.h ****     pstList->pstNext = pstNode;
 1882              		.loc 1 133 5 view .LVU558
 134:C:/Users/²Ü¼ÒºÀ/.iotlink/sdk/IoT_LINK/iot_link/os/liteos/include\los_list.h **** }
 1883              		.loc 1 134 5 view .LVU559
 134:C:/Users/²Ü¼ÒºÀ/.iotlink/sdk/IoT_LINK/iot_link/os/liteos/include\los_list.h **** }
 1884              		.loc 1 134 5 is_stmt 0 view .LVU560
 1885              	.LBE120:
 1886              	.LBE121:
 1887              		.loc 2 869 9 is_stmt 1 view .LVU561
 870:C:/Users/²Ü¼ÒºÀ/.iotlink/sdk/IoT_LINK/iot_link/os/liteos/base/core\los_task.c ****         OS_GOTO_ERREND();
 1888              		.loc 2 870 9 view .LVU562
 1889              		.loc 2 870 9 view .LVU563
 1890              	.L126:
 871:C:/Users/²Ü¼ÒºÀ/.iotlink/sdk/IoT_LINK/iot_link/os/liteos/base/core\los_task.c ****     }
 872:C:/Users/²Ü¼ÒºÀ/.iotlink/sdk/IoT_LINK/iot_link/os/liteos/base/core\los_task.c **** 
 873:C:/Users/²Ü¼ÒºÀ/.iotlink/sdk/IoT_LINK/iot_link/os/liteos/base/core\los_task.c ****     pstTaskCB->uwArg             = pstInitParam->uwArg;
 874:C:/Users/²Ü¼ÒºÀ/.iotlink/sdk/IoT_LINK/iot_link/os/liteos/base/core\los_task.c ****     pstTaskCB->uwTopOfStack      = (UINT32)pTopStack;
 875:C:/Users/²Ü¼ÒºÀ/.iotlink/sdk/IoT_LINK/iot_link/os/liteos/base/core\los_task.c ****     pstTaskCB->uwStackSize       = pstInitParam->uwStackSize;
 876:C:/Users/²Ü¼ÒºÀ/.iotlink/sdk/IoT_LINK/iot_link/os/liteos/base/core\los_task.c ****     pstTaskCB->pTaskSem          = NULL;
 877:C:/Users/²Ü¼ÒºÀ/.iotlink/sdk/IoT_LINK/iot_link/os/liteos/base/core\los_task.c ****     pstTaskCB->pTaskMux          = NULL;
 878:C:/Users/²Ü¼ÒºÀ/.iotlink/sdk/IoT_LINK/iot_link/os/liteos/base/core\los_task.c ****     pstTaskCB->usTaskStatus      = OS_TASK_STATUS_SUSPEND;
 879:C:/Users/²Ü¼ÒºÀ/.iotlink/sdk/IoT_LINK/iot_link/os/liteos/base/core\los_task.c ****     pstTaskCB->usPriority        = pstInitParam->usTaskPrio;
 880:C:/Users/²Ü¼ÒºÀ/.iotlink/sdk/IoT_LINK/iot_link/os/liteos/base/core\los_task.c ****     pstTaskCB->pfnTaskEntry      = pstInitParam->pfnTaskEntry;
 881:C:/Users/²Ü¼ÒºÀ/.iotlink/sdk/IoT_LINK/iot_link/os/liteos/base/core\los_task.c ****     pstTaskCB->uwEvent.uwEventID = 0xFFFFFFFF;
 882:C:/Users/²Ü¼ÒºÀ/.iotlink/sdk/IoT_LINK/iot_link/os/liteos/base/core\los_task.c ****     pstTaskCB->uwEventMask       = 0;
 883:C:/Users/²Ü¼ÒºÀ/.iotlink/sdk/IoT_LINK/iot_link/os/liteos/base/core\los_task.c ****     pstTaskCB->pcTaskName        = pstInitParam->pcName;
 884:C:/Users/²Ü¼ÒºÀ/.iotlink/sdk/IoT_LINK/iot_link/os/liteos/base/core\los_task.c ****     pstTaskCB->puwMsg = NULL;
 885:C:/Users/²Ü¼ÒºÀ/.iotlink/sdk/IoT_LINK/iot_link/os/liteos/base/core\los_task.c **** 
 886:C:/Users/²Ü¼ÒºÀ/.iotlink/sdk/IoT_LINK/iot_link/os/liteos/base/core\los_task.c ****     osTskStackInit(pstTaskCB, pstInitParam);
 887:C:/Users/²Ü¼ÒºÀ/.iotlink/sdk/IoT_LINK/iot_link/os/liteos/base/core\los_task.c **** 
 888:C:/Users/²Ü¼ÒºÀ/.iotlink/sdk/IoT_LINK/iot_link/os/liteos/base/core\los_task.c **** #if (LOSCFG_LIB_LIBC_NEWLIB_REENT == YES)
 889:C:/Users/²Ü¼ÒºÀ/.iotlink/sdk/IoT_LINK/iot_link/os/liteos/base/core\los_task.c ****     /* Initialise this task's Newlib reent structure. */
 890:C:/Users/²Ü¼ÒºÀ/.iotlink/sdk/IoT_LINK/iot_link/os/liteos/base/core\los_task.c ****     _REENT_INIT_PTR(&(pstTaskCB->stNewLibReent));
 891:C:/Users/²Ü¼ÒºÀ/.iotlink/sdk/IoT_LINK/iot_link/os/liteos/base/core\los_task.c **** #endif
 892:C:/Users/²Ü¼ÒºÀ/.iotlink/sdk/IoT_LINK/iot_link/os/liteos/base/core\los_task.c **** 
 893:C:/Users/²Ü¼ÒºÀ/.iotlink/sdk/IoT_LINK/iot_link/os/liteos/base/core\los_task.c ****     *puwTaskID = uwTaskID;
 894:C:/Users/²Ü¼ÒºÀ/.iotlink/sdk/IoT_LINK/iot_link/os/liteos/base/core\los_task.c ****     return LOS_OK;
 895:C:/Users/²Ü¼ÒºÀ/.iotlink/sdk/IoT_LINK/iot_link/os/liteos/base/core\los_task.c **** 
 896:C:/Users/²Ü¼ÒºÀ/.iotlink/sdk/IoT_LINK/iot_link/os/liteos/base/core\los_task.c **** LOS_ERREND:
 897:C:/Users/²Ü¼ÒºÀ/.iotlink/sdk/IoT_LINK/iot_link/os/liteos/base/core\los_task.c ****     (VOID)LOS_IntRestore(uvIntSave);
 1891              		.loc 2 897 5 view .LVU564
 1892 0090 3846     		mov	r0, r7
 1893 0092 FFF7FEFF 		bl	LOS_IntRestore
 1894              	.LVL130:
 898:C:/Users/²Ü¼ÒºÀ/.iotlink/sdk/IoT_LINK/iot_link/os/liteos/base/core\los_task.c ****     return uwErrRet;
 1895              		.loc 2 898 5 view .LVU565
 1896              		.loc 2 898 12 is_stmt 0 view .LVU566
 1897 0096 33E0     		b	.L120
ARM GAS  C:\Users\²Ü¼ÒºÀ\AppData\Local\Temp\ccOngKk7.s 			page 62


 1898              	.LVL131:
 1899              	.L125:
 844:C:/Users/²Ü¼ÒºÀ/.iotlink/sdk/IoT_LINK/iot_link/os/liteos/base/core\los_task.c ****         LOS_ListDelete(LOS_DL_LIST_FIRST(&g_stTskRecyleList));
 1900              		.loc 2 844 9 is_stmt 1 view .LVU567
 845:C:/Users/²Ü¼ÒºÀ/.iotlink/sdk/IoT_LINK/iot_link/os/liteos/base/core\los_task.c ****         LOS_ListAdd(&g_stLosFreeTask, &pstTaskCB->stPendList);
 1901              		.loc 2 845 9 view .LVU568
 1902 0098 2046     		mov	r0, r4
 1903 009a FFF7FEFF 		bl	LOS_ListDelete
 1904              	.LVL132:
 846:C:/Users/²Ü¼ÒºÀ/.iotlink/sdk/IoT_LINK/iot_link/os/liteos/base/core\los_task.c ****         (VOID)LOS_MemFree(OS_TASK_STACK_ADDR, (VOID *)pstTaskCB->uwTopOfStack);
 1905              		.loc 2 846 9 view .LVU569
 1906              	.LBB122:
 1907              	.LBI122:
 129:C:/Users/²Ü¼ÒºÀ/.iotlink/sdk/IoT_LINK/iot_link/os/liteos/include\los_list.h **** {
 1908              		.loc 1 129 43 view .LVU570
 1909              	.LBB123:
 131:C:/Users/²Ü¼ÒºÀ/.iotlink/sdk/IoT_LINK/iot_link/os/liteos/include\los_list.h ****     pstNode->pstPrev = pstList;
 1910              		.loc 1 131 5 view .LVU571
 131:C:/Users/²Ü¼ÒºÀ/.iotlink/sdk/IoT_LINK/iot_link/os/liteos/include\los_list.h ****     pstNode->pstPrev = pstList;
 1911              		.loc 1 131 31 is_stmt 0 view .LVU572
 1912 009e 7368     		ldr	r3, [r6, #4]
 1913              	.LBE123:
 1914              	.LBE122:
 847:C:/Users/²Ü¼ÒºÀ/.iotlink/sdk/IoT_LINK/iot_link/os/liteos/base/core\los_task.c ****         pstTaskCB->uwTopOfStack = (UINT32)NULL;
 1915              		.loc 2 847 15 view .LVU573
 1916 00a0 54F81C1C 		ldr	r1, [r4, #-28]
 1917 00a4 DAF80000 		ldr	r0, [r10]
 1918              	.LBB125:
 1919              	.LBB124:
 132:C:/Users/²Ü¼ÒºÀ/.iotlink/sdk/IoT_LINK/iot_link/os/liteos/include\los_list.h ****     pstList->pstNext->pstPrev = pstNode;
 1920              		.loc 1 132 22 view .LVU574
 1921 00a8 C4E90063 		strd	r6, r3, [r4]
 133:C:/Users/²Ü¼ÒºÀ/.iotlink/sdk/IoT_LINK/iot_link/os/liteos/include\los_list.h ****     pstList->pstNext = pstNode;
 1922              		.loc 1 133 5 is_stmt 1 view .LVU575
 133:C:/Users/²Ü¼ÒºÀ/.iotlink/sdk/IoT_LINK/iot_link/os/liteos/include\los_list.h ****     pstList->pstNext = pstNode;
 1923              		.loc 1 133 31 is_stmt 0 view .LVU576
 1924 00ac 1C60     		str	r4, [r3]
 134:C:/Users/²Ü¼ÒºÀ/.iotlink/sdk/IoT_LINK/iot_link/os/liteos/include\los_list.h **** }
 1925              		.loc 1 134 5 is_stmt 1 view .LVU577
 134:C:/Users/²Ü¼ÒºÀ/.iotlink/sdk/IoT_LINK/iot_link/os/liteos/include\los_list.h **** }
 1926              		.loc 1 134 22 is_stmt 0 view .LVU578
 1927 00ae 7460     		str	r4, [r6, #4]
 1928              	.LVL133:
 134:C:/Users/²Ü¼ÒºÀ/.iotlink/sdk/IoT_LINK/iot_link/os/liteos/include\los_list.h **** }
 1929              		.loc 1 134 22 view .LVU579
 1930              	.LBE124:
 1931              	.LBE125:
 847:C:/Users/²Ü¼ÒºÀ/.iotlink/sdk/IoT_LINK/iot_link/os/liteos/base/core\los_task.c ****         pstTaskCB->uwTopOfStack = (UINT32)NULL;
 1932              		.loc 2 847 9 is_stmt 1 view .LVU580
 847:C:/Users/²Ü¼ÒºÀ/.iotlink/sdk/IoT_LINK/iot_link/os/liteos/base/core\los_task.c ****         pstTaskCB->uwTopOfStack = (UINT32)NULL;
 1933              		.loc 2 847 15 is_stmt 0 view .LVU581
 1934 00b0 FFF7FEFF 		bl	LOS_MemFree
 1935              	.LVL134:
 848:C:/Users/²Ü¼ÒºÀ/.iotlink/sdk/IoT_LINK/iot_link/os/liteos/base/core\los_task.c ****     }
 1936              		.loc 2 848 9 is_stmt 1 view .LVU582
 848:C:/Users/²Ü¼ÒºÀ/.iotlink/sdk/IoT_LINK/iot_link/os/liteos/base/core\los_task.c ****     }
 1937              		.loc 2 848 33 is_stmt 0 view .LVU583
ARM GAS  C:\Users\²Ü¼ÒºÀ\AppData\Local\Temp\ccOngKk7.s 			page 63


 1938 00b4 0023     		movs	r3, #0
 1939 00b6 44F81C3C 		str	r3, [r4, #-28]
 1940 00ba CBE7     		b	.L124
 1941              	.LVL135:
 1942              	.L127:
 870:C:/Users/²Ü¼ÒºÀ/.iotlink/sdk/IoT_LINK/iot_link/os/liteos/base/core\los_task.c ****     }
 1943              		.loc 2 870 9 is_stmt 1 view .LVU584
 873:C:/Users/²Ü¼ÒºÀ/.iotlink/sdk/IoT_LINK/iot_link/os/liteos/base/core\los_task.c ****     pstTaskCB->uwTopOfStack      = (UINT32)pTopStack;
 1944              		.loc 2 873 5 view .LVU585
 873:C:/Users/²Ü¼ÒºÀ/.iotlink/sdk/IoT_LINK/iot_link/os/liteos/base/core\los_task.c ****     pstTaskCB->uwTopOfStack      = (UINT32)pTopStack;
 1945              		.loc 2 873 34 is_stmt 0 view .LVU586
 1946 00bc AB68     		ldr	r3, [r5, #8]
 1947 00be 44F8083C 		str	r3, [r4, #-8]
 874:C:/Users/²Ü¼ÒºÀ/.iotlink/sdk/IoT_LINK/iot_link/os/liteos/base/core\los_task.c ****     pstTaskCB->uwStackSize       = pstInitParam->uwStackSize;
 1948              		.loc 2 874 5 is_stmt 1 view .LVU587
 875:C:/Users/²Ü¼ÒºÀ/.iotlink/sdk/IoT_LINK/iot_link/os/liteos/base/core\los_task.c ****     pstTaskCB->pTaskSem          = NULL;
 1949              		.loc 2 875 34 is_stmt 0 view .LVU588
 1950 00c2 EB68     		ldr	r3, [r5, #12]
 1951 00c4 44F8203C 		str	r3, [r4, #-32]
 878:C:/Users/²Ü¼ÒºÀ/.iotlink/sdk/IoT_LINK/iot_link/os/liteos/base/core\los_task.c ****     pstTaskCB->usPriority        = pstInitParam->usTaskPrio;
 1952              		.loc 2 878 34 view .LVU589
 1953 00c8 0223     		movs	r3, #2
 1954 00ca 24F8243C 		strh	r3, [r4, #-36]	@ movhi
 879:C:/Users/²Ü¼ÒºÀ/.iotlink/sdk/IoT_LINK/iot_link/os/liteos/base/core\los_task.c ****     pstTaskCB->pfnTaskEntry      = pstInitParam->pfnTaskEntry;
 1955              		.loc 2 879 34 view .LVU590
 1956 00ce AB88     		ldrh	r3, [r5, #4]
 1957 00d0 24F8223C 		strh	r3, [r4, #-34]	@ movhi
 880:C:/Users/²Ü¼ÒºÀ/.iotlink/sdk/IoT_LINK/iot_link/os/liteos/base/core\los_task.c ****     pstTaskCB->uwEvent.uwEventID = 0xFFFFFFFF;
 1958              		.loc 2 880 34 view .LVU591
 1959 00d4 2B68     		ldr	r3, [r5]
 1960 00d6 44F8143C 		str	r3, [r4, #-20]
 881:C:/Users/²Ü¼ÒºÀ/.iotlink/sdk/IoT_LINK/iot_link/os/liteos/base/core\los_task.c ****     pstTaskCB->uwEventMask       = 0;
 1961              		.loc 2 881 34 view .LVU592
 1962 00da 4FF0FF33 		mov	r3, #-1
 876:C:/Users/²Ü¼ÒºÀ/.iotlink/sdk/IoT_LINK/iot_link/os/liteos/base/core\los_task.c ****     pstTaskCB->pTaskMux          = NULL;
 1963              		.loc 2 876 34 view .LVU593
 1964 00de 0026     		movs	r6, #0
 881:C:/Users/²Ü¼ÒºÀ/.iotlink/sdk/IoT_LINK/iot_link/os/liteos/base/core\los_task.c ****     pstTaskCB->uwEventMask       = 0;
 1965              		.loc 2 881 34 view .LVU594
 1966 00e0 6361     		str	r3, [r4, #20]
 883:C:/Users/²Ü¼ÒºÀ/.iotlink/sdk/IoT_LINK/iot_link/os/liteos/base/core\los_task.c ****     pstTaskCB->puwMsg = NULL;
 1967              		.loc 2 883 34 view .LVU595
 1968 00e2 2B69     		ldr	r3, [r5, #16]
 874:C:/Users/²Ü¼ÒºÀ/.iotlink/sdk/IoT_LINK/iot_link/os/liteos/base/core\los_task.c ****     pstTaskCB->uwStackSize       = pstInitParam->uwStackSize;
 1969              		.loc 2 874 34 view .LVU596
 1970 00e4 44F81C0C 		str	r0, [r4, #-28]
 875:C:/Users/²Ü¼ÒºÀ/.iotlink/sdk/IoT_LINK/iot_link/os/liteos/base/core\los_task.c ****     pstTaskCB->pTaskSem          = NULL;
 1971              		.loc 2 875 5 is_stmt 1 view .LVU597
 876:C:/Users/²Ü¼ÒºÀ/.iotlink/sdk/IoT_LINK/iot_link/os/liteos/base/core\los_task.c ****     pstTaskCB->pTaskMux          = NULL;
 1972              		.loc 2 876 5 view .LVU598
 877:C:/Users/²Ü¼ÒºÀ/.iotlink/sdk/IoT_LINK/iot_link/os/liteos/base/core\los_task.c ****     pstTaskCB->usTaskStatus      = OS_TASK_STATUS_SUSPEND;
 1973              		.loc 2 877 34 is_stmt 0 view .LVU599
 1974 00e8 44E90466 		strd	r6, r6, [r4, #-16]
 878:C:/Users/²Ü¼ÒºÀ/.iotlink/sdk/IoT_LINK/iot_link/os/liteos/base/core\los_task.c ****     pstTaskCB->usPriority        = pstInitParam->usTaskPrio;
 1975              		.loc 2 878 5 is_stmt 1 view .LVU600
 879:C:/Users/²Ü¼ÒºÀ/.iotlink/sdk/IoT_LINK/iot_link/os/liteos/base/core\los_task.c ****     pstTaskCB->pfnTaskEntry      = pstInitParam->pfnTaskEntry;
 1976              		.loc 2 879 5 view .LVU601
ARM GAS  C:\Users\²Ü¼ÒºÀ\AppData\Local\Temp\ccOngKk7.s 			page 64


 880:C:/Users/²Ü¼ÒºÀ/.iotlink/sdk/IoT_LINK/iot_link/os/liteos/base/core\los_task.c ****     pstTaskCB->uwEvent.uwEventID = 0xFFFFFFFF;
 1977              		.loc 2 880 5 view .LVU602
 881:C:/Users/²Ü¼ÒºÀ/.iotlink/sdk/IoT_LINK/iot_link/os/liteos/base/core\los_task.c ****     pstTaskCB->uwEventMask       = 0;
 1978              		.loc 2 881 5 view .LVU603
 882:C:/Users/²Ü¼ÒºÀ/.iotlink/sdk/IoT_LINK/iot_link/os/liteos/base/core\los_task.c ****     pstTaskCB->pcTaskName        = pstInitParam->pcName;
 1979              		.loc 2 882 5 view .LVU604
 882:C:/Users/²Ü¼ÒºÀ/.iotlink/sdk/IoT_LINK/iot_link/os/liteos/base/core\los_task.c ****     pstTaskCB->pcTaskName        = pstInitParam->pcName;
 1980              		.loc 2 882 34 is_stmt 0 view .LVU605
 1981 00ec 2662     		str	r6, [r4, #32]
 883:C:/Users/²Ü¼ÒºÀ/.iotlink/sdk/IoT_LINK/iot_link/os/liteos/base/core\los_task.c ****     pstTaskCB->puwMsg = NULL;
 1982              		.loc 2 883 5 is_stmt 1 view .LVU606
 883:C:/Users/²Ü¼ÒºÀ/.iotlink/sdk/IoT_LINK/iot_link/os/liteos/base/core\los_task.c ****     pstTaskCB->puwMsg = NULL;
 1983              		.loc 2 883 34 is_stmt 0 view .LVU607
 1984 00ee 44F8043C 		str	r3, [r4, #-4]
 884:C:/Users/²Ü¼ÒºÀ/.iotlink/sdk/IoT_LINK/iot_link/os/liteos/base/core\los_task.c **** 
 1985              		.loc 2 884 5 is_stmt 1 view .LVU608
 884:C:/Users/²Ü¼ÒºÀ/.iotlink/sdk/IoT_LINK/iot_link/os/liteos/base/core\los_task.c **** 
 1986              		.loc 2 884 23 is_stmt 0 view .LVU609
 1987 00f2 A662     		str	r6, [r4, #40]
 886:C:/Users/²Ü¼ÒºÀ/.iotlink/sdk/IoT_LINK/iot_link/os/liteos/base/core\los_task.c **** 
 1988              		.loc 2 886 5 is_stmt 1 view .LVU610
 1989 00f4 2946     		mov	r1, r5
 1990 00f6 4846     		mov	r0, r9
 1991              	.LVL136:
 886:C:/Users/²Ü¼ÒºÀ/.iotlink/sdk/IoT_LINK/iot_link/os/liteos/base/core\los_task.c **** 
 1992              		.loc 2 886 5 is_stmt 0 view .LVU611
 1993 00f8 FFF7FEFF 		bl	osTskStackInit
 1994              	.LVL137:
 893:C:/Users/²Ü¼ÒºÀ/.iotlink/sdk/IoT_LINK/iot_link/os/liteos/base/core\los_task.c ****     return LOS_OK;
 1995              		.loc 2 893 5 is_stmt 1 view .LVU612
 893:C:/Users/²Ü¼ÒºÀ/.iotlink/sdk/IoT_LINK/iot_link/os/liteos/base/core\los_task.c ****     return LOS_OK;
 1996              		.loc 2 893 16 is_stmt 0 view .LVU613
 1997 00fc C8F80070 		str	r7, [r8]
 894:C:/Users/²Ü¼ÒºÀ/.iotlink/sdk/IoT_LINK/iot_link/os/liteos/base/core\los_task.c **** 
 1998              		.loc 2 894 5 is_stmt 1 view .LVU614
 1999              	.LVL138:
 2000              	.L120:
 894:C:/Users/²Ü¼ÒºÀ/.iotlink/sdk/IoT_LINK/iot_link/os/liteos/base/core\los_task.c **** 
 2001              		.loc 2 894 5 is_stmt 0 view .LVU615
 2002              	.LBE111:
 2003              	.LBE110:
 899:C:/Users/²Ü¼ÒºÀ/.iotlink/sdk/IoT_LINK/iot_link/os/liteos/base/core\los_task.c **** }
 2004              		.loc 2 899 1 view .LVU616
 2005 0100 3046     		mov	r0, r6
 2006 0102 BDE8F087 		pop	{r4, r5, r6, r7, r8, r9, r10, pc}
 2007              	.LVL139:
 2008              	.L135:
 2009              	.LBB127:
 2010              	.LBB126:
 853:C:/Users/²Ü¼ÒºÀ/.iotlink/sdk/IoT_LINK/iot_link/os/liteos/base/core\los_task.c ****         OS_GOTO_ERREND();
 2011              		.loc 2 853 18 view .LVU617
 2012 0106 0A4E     		ldr	r6, .L136+12
 2013 0108 C2E7     		b	.L126
 2014              	.LVL140:
 2015              	.L128:
 853:C:/Users/²Ü¼ÒºÀ/.iotlink/sdk/IoT_LINK/iot_link/os/liteos/base/core\los_task.c ****         OS_GOTO_ERREND();
 2016              		.loc 2 853 18 view .LVU618
ARM GAS  C:\Users\²Ü¼ÒºÀ\AppData\Local\Temp\ccOngKk7.s 			page 65


 2017              	.LBE126:
 2018              	.LBE127:
 801:C:/Users/²Ü¼ÒºÀ/.iotlink/sdk/IoT_LINK/iot_link/os/liteos/base/core\los_task.c ****     }
 2019              		.loc 2 801 16 view .LVU619
 2020 010a 0A4E     		ldr	r6, .L136+16
 2021 010c F8E7     		b	.L120
 2022              	.L129:
 806:C:/Users/²Ü¼ÒºÀ/.iotlink/sdk/IoT_LINK/iot_link/os/liteos/base/core\los_task.c ****     }
 2023              		.loc 2 806 16 view .LVU620
 2024 010e 0A4E     		ldr	r6, .L136+20
 2025 0110 F6E7     		b	.L120
 2026              	.L130:
 811:C:/Users/²Ü¼ÒºÀ/.iotlink/sdk/IoT_LINK/iot_link/os/liteos/base/core\los_task.c ****     }
 2027              		.loc 2 811 16 view .LVU621
 2028 0112 0A4E     		ldr	r6, .L136+24
 2029 0114 F4E7     		b	.L120
 2030              	.L131:
 816:C:/Users/²Ü¼ÒºÀ/.iotlink/sdk/IoT_LINK/iot_link/os/liteos/base/core\los_task.c ****     }
 2031              		.loc 2 816 16 view .LVU622
 2032 0116 0A4E     		ldr	r6, .L136+28
 2033 0118 F2E7     		b	.L120
 2034              	.L133:
 821:C:/Users/²Ü¼ÒºÀ/.iotlink/sdk/IoT_LINK/iot_link/os/liteos/base/core\los_task.c ****     }
 2035              		.loc 2 821 16 view .LVU623
 2036 011a 0A4E     		ldr	r6, .L136+32
 2037 011c F0E7     		b	.L120
 2038              	.LVL141:
 2039              	.L134:
 838:C:/Users/²Ü¼ÒºÀ/.iotlink/sdk/IoT_LINK/iot_link/os/liteos/base/core\los_task.c ****     }
 2040              		.loc 2 838 16 view .LVU624
 2041 011e 0A4E     		ldr	r6, .L136+36
 2042 0120 EEE7     		b	.L120
 2043              	.L137:
 2044 0122 00BF     		.align	2
 2045              	.L136:
 2046 0124 00000000 		.word	osIdleTask
 2047 0128 00000000 		.word	g_stLosFreeTask
 2048 012c 00020003 		.word	50332160
 2049 0130 11020002 		.word	33554961
 2050 0134 07020002 		.word	33554951
 2051 0138 01020002 		.word	33554945
 2052 013c 05020002 		.word	33554949
 2053 0140 04020002 		.word	33554948
 2054 0144 03020002 		.word	33554947
 2055 0148 06020002 		.word	33554950
 2056 014c 00000000 		.word	g_stTskRecyleList
 2057 0150 00000000 		.word	m_aucSysMem0
 2058              		.cfi_endproc
 2059              	.LFE303:
 2061              		.section	.text.LOS_TaskCreate,"ax",%progbits
 2062              		.align	1
 2063              		.global	LOS_TaskCreate
 2064              		.syntax unified
 2065              		.thumb
 2066              		.thumb_func
 2067              		.fpu fpv4-sp-d16
 2069              	LOS_TaskCreate:
ARM GAS  C:\Users\²Ü¼ÒºÀ\AppData\Local\Temp\ccOngKk7.s 			page 66


 2070              	.LVL142:
 2071              	.LFB304:
 900:C:/Users/²Ü¼ÒºÀ/.iotlink/sdk/IoT_LINK/iot_link/os/liteos/base/core\los_task.c **** 
 901:C:/Users/²Ü¼ÒºÀ/.iotlink/sdk/IoT_LINK/iot_link/os/liteos/base/core\los_task.c **** 
 902:C:/Users/²Ü¼ÒºÀ/.iotlink/sdk/IoT_LINK/iot_link/os/liteos/base/core\los_task.c **** /*****************************************************************************
 903:C:/Users/²Ü¼ÒºÀ/.iotlink/sdk/IoT_LINK/iot_link/os/liteos/base/core\los_task.c ****  Function : LOS_TaskCreate
 904:C:/Users/²Ü¼ÒºÀ/.iotlink/sdk/IoT_LINK/iot_link/os/liteos/base/core\los_task.c ****  Description : Create a task
 905:C:/Users/²Ü¼ÒºÀ/.iotlink/sdk/IoT_LINK/iot_link/os/liteos/base/core\los_task.c ****  Input       : pstInitParam --- Task init parameters
 906:C:/Users/²Ü¼ÒºÀ/.iotlink/sdk/IoT_LINK/iot_link/os/liteos/base/core\los_task.c ****  Output      : puwTaskID    --- Save task ID
 907:C:/Users/²Ü¼ÒºÀ/.iotlink/sdk/IoT_LINK/iot_link/os/liteos/base/core\los_task.c ****  Return      : LOS_OK on success or error code on failure
 908:C:/Users/²Ü¼ÒºÀ/.iotlink/sdk/IoT_LINK/iot_link/os/liteos/base/core\los_task.c ****  *****************************************************************************/
 909:C:/Users/²Ü¼ÒºÀ/.iotlink/sdk/IoT_LINK/iot_link/os/liteos/base/core\los_task.c **** LITE_OS_SEC_TEXT_INIT UINT32 LOS_TaskCreate(UINT32 *puwTaskID, TSK_INIT_PARAM_S *pstInitParam)
 910:C:/Users/²Ü¼ÒºÀ/.iotlink/sdk/IoT_LINK/iot_link/os/liteos/base/core\los_task.c **** {
 2072              		.loc 2 910 1 is_stmt 1 view -0
 2073              		.cfi_startproc
 2074              		@ args = 0, pretend = 0, frame = 24
 2075              		@ frame_needed = 0, uses_anonymous_args = 0
 2076              		.loc 2 910 1 is_stmt 0 view .LVU626
 2077 0000 70B5     		push	{r4, r5, r6, lr}
 2078              	.LCFI24:
 2079              		.cfi_def_cfa_offset 16
 2080              		.cfi_offset 4, -16
 2081              		.cfi_offset 5, -12
 2082              		.cfi_offset 6, -8
 2083              		.cfi_offset 14, -4
 2084 0002 0646     		mov	r6, r0
 911:C:/Users/²Ü¼ÒºÀ/.iotlink/sdk/IoT_LINK/iot_link/os/liteos/base/core\los_task.c ****     UINT32 uwRet = LOS_OK;
 2085              		.loc 2 911 5 is_stmt 1 view .LVU627
 2086              	.LVL143:
 912:C:/Users/²Ü¼ÒºÀ/.iotlink/sdk/IoT_LINK/iot_link/os/liteos/base/core\los_task.c ****     UINTPTR uvIntSave;
 2087              		.loc 2 912 5 view .LVU628
 913:C:/Users/²Ü¼ÒºÀ/.iotlink/sdk/IoT_LINK/iot_link/os/liteos/base/core\los_task.c ****     LOS_TASK_CB *pstTaskCB;
 2088              		.loc 2 913 5 view .LVU629
 914:C:/Users/²Ü¼ÒºÀ/.iotlink/sdk/IoT_LINK/iot_link/os/liteos/base/core\los_task.c ****     TSK_INIT_PARAM_S stInitParam;
 2089              		.loc 2 914 5 view .LVU630
 915:C:/Users/²Ü¼ÒºÀ/.iotlink/sdk/IoT_LINK/iot_link/os/liteos/base/core\los_task.c **** 
 916:C:/Users/²Ü¼ÒºÀ/.iotlink/sdk/IoT_LINK/iot_link/os/liteos/base/core\los_task.c ****     if (NULL == pstInitParam)
 2090              		.loc 2 916 5 view .LVU631
 910:C:/Users/²Ü¼ÒºÀ/.iotlink/sdk/IoT_LINK/iot_link/os/liteos/base/core\los_task.c ****     UINT32 uwRet = LOS_OK;
 2091              		.loc 2 910 1 is_stmt 0 view .LVU632
 2092 0004 86B0     		sub	sp, sp, #24
 2093              	.LCFI25:
 2094              		.cfi_def_cfa_offset 40
 2095              		.loc 2 916 8 view .LVU633
 2096 0006 0029     		cmp	r1, #0
 2097 0008 3BD0     		beq	.L141
 917:C:/Users/²Ü¼ÒºÀ/.iotlink/sdk/IoT_LINK/iot_link/os/liteos/base/core\los_task.c ****     {
 918:C:/Users/²Ü¼ÒºÀ/.iotlink/sdk/IoT_LINK/iot_link/os/liteos/base/core\los_task.c ****         return LOS_ERRNO_TSK_PTR_NULL;
 919:C:/Users/²Ü¼ÒºÀ/.iotlink/sdk/IoT_LINK/iot_link/os/liteos/base/core\los_task.c ****     }
 920:C:/Users/²Ü¼ÒºÀ/.iotlink/sdk/IoT_LINK/iot_link/os/liteos/base/core\los_task.c **** 
 921:C:/Users/²Ü¼ÒºÀ/.iotlink/sdk/IoT_LINK/iot_link/os/liteos/base/core\los_task.c ****     stInitParam = *pstInitParam;
 2098              		.loc 2 921 5 is_stmt 1 view .LVU634
 2099              		.loc 2 921 17 is_stmt 0 view .LVU635
 2100 000a 0C46     		mov	r4, r1
 2101 000c 0FCC     		ldmia	r4!, {r0, r1, r2, r3}
 2102              	.LVL144:
 2103              		.loc 2 921 17 view .LVU636
ARM GAS  C:\Users\²Ü¼ÒºÀ\AppData\Local\Temp\ccOngKk7.s 			page 67


 2104 000e 6D46     		mov	r5, sp
 2105 0010 0FC5     		stmia	r5!, {r0, r1, r2, r3}
 2106 0012 94E80300 		ldm	r4, {r0, r1}
 2107 0016 85E80300 		stm	r5, {r0, r1}
 922:C:/Users/²Ü¼ÒºÀ/.iotlink/sdk/IoT_LINK/iot_link/os/liteos/base/core\los_task.c **** 
 923:C:/Users/²Ü¼ÒºÀ/.iotlink/sdk/IoT_LINK/iot_link/os/liteos/base/core\los_task.c ****     uwRet = LOS_TaskCreateOnly(puwTaskID, &stInitParam);
 2108              		.loc 2 923 5 is_stmt 1 view .LVU637
 2109              		.loc 2 923 13 is_stmt 0 view .LVU638
 2110 001a 6946     		mov	r1, sp
 2111 001c 3046     		mov	r0, r6
 2112 001e FFF7FEFF 		bl	LOS_TaskCreateOnly
 2113              	.LVL145:
 924:C:/Users/²Ü¼ÒºÀ/.iotlink/sdk/IoT_LINK/iot_link/os/liteos/base/core\los_task.c ****     if (LOS_OK != uwRet)
 2114              		.loc 2 924 5 is_stmt 1 view .LVU639
 2115              		.loc 2 924 8 is_stmt 0 view .LVU640
 2116 0022 0546     		mov	r5, r0
 2117 0024 30BB     		cbnz	r0, .L138
 2118              	.LVL146:
 2119              	.LBB130:
 2120              	.LBI130:
 909:C:/Users/²Ü¼ÒºÀ/.iotlink/sdk/IoT_LINK/iot_link/os/liteos/base/core\los_task.c **** {
 2121              		.loc 2 909 30 is_stmt 1 view .LVU641
 2122              	.LBB131:
 925:C:/Users/²Ü¼ÒºÀ/.iotlink/sdk/IoT_LINK/iot_link/os/liteos/base/core\los_task.c ****     {
 926:C:/Users/²Ü¼ÒºÀ/.iotlink/sdk/IoT_LINK/iot_link/os/liteos/base/core\los_task.c ****         return uwRet;
 927:C:/Users/²Ü¼ÒºÀ/.iotlink/sdk/IoT_LINK/iot_link/os/liteos/base/core\los_task.c ****     }
 928:C:/Users/²Ü¼ÒºÀ/.iotlink/sdk/IoT_LINK/iot_link/os/liteos/base/core\los_task.c ****     pstTaskCB = OS_TCB_FROM_TID(*puwTaskID);
 2123              		.loc 2 928 5 view .LVU642
 2124              		.loc 2 928 15 is_stmt 0 view .LVU643
 2125 0026 184B     		ldr	r3, .L145
 2126              		.loc 2 928 17 view .LVU644
 2127 0028 3468     		ldr	r4, [r6]
 2128              	.LVL147:
 2129              		.loc 2 928 15 view .LVU645
 2130 002a 1B68     		ldr	r3, [r3]
 2131 002c 5422     		movs	r2, #84
 2132 002e 02FB0434 		mla	r4, r2, r4, r3
 2133              	.LVL148:
 929:C:/Users/²Ü¼ÒºÀ/.iotlink/sdk/IoT_LINK/iot_link/os/liteos/base/core\los_task.c **** 
 930:C:/Users/²Ü¼ÒºÀ/.iotlink/sdk/IoT_LINK/iot_link/os/liteos/base/core\los_task.c ****     uvIntSave = LOS_IntLock();
 2134              		.loc 2 930 5 is_stmt 1 view .LVU646
 2135              		.loc 2 930 17 is_stmt 0 view .LVU647
 2136 0032 FFF7FEFF 		bl	LOS_IntLock
 2137              	.LVL149:
 931:C:/Users/²Ü¼ÒºÀ/.iotlink/sdk/IoT_LINK/iot_link/os/liteos/base/core\los_task.c ****     pstTaskCB->usTaskStatus &= (~OS_TASK_STATUS_SUSPEND);
 2138              		.loc 2 931 29 view .LVU648
 2139 0036 A388     		ldrh	r3, [r4, #4]
 932:C:/Users/²Ü¼ÒºÀ/.iotlink/sdk/IoT_LINK/iot_link/os/liteos/base/core\los_task.c ****     pstTaskCB->usTaskStatus |= OS_TASK_STATUS_READY;
 933:C:/Users/²Ü¼ÒºÀ/.iotlink/sdk/IoT_LINK/iot_link/os/liteos/base/core\los_task.c **** 
 934:C:/Users/²Ü¼ÒºÀ/.iotlink/sdk/IoT_LINK/iot_link/os/liteos/base/core\los_task.c **** #if (LOSCFG_BASE_CORE_CPUP == YES)
 935:C:/Users/²Ü¼ÒºÀ/.iotlink/sdk/IoT_LINK/iot_link/os/liteos/base/core\los_task.c ****     g_pstCpup[pstTaskCB->uwTaskID].uwID = pstTaskCB->uwTaskID;
 936:C:/Users/²Ü¼ÒºÀ/.iotlink/sdk/IoT_LINK/iot_link/os/liteos/base/core\los_task.c ****     g_pstCpup[pstTaskCB->uwTaskID].usStatus = pstTaskCB->usTaskStatus;
 937:C:/Users/²Ü¼ÒºÀ/.iotlink/sdk/IoT_LINK/iot_link/os/liteos/base/core\los_task.c **** #endif
 938:C:/Users/²Ü¼ÒºÀ/.iotlink/sdk/IoT_LINK/iot_link/os/liteos/base/core\los_task.c **** 
 939:C:/Users/²Ü¼ÒºÀ/.iotlink/sdk/IoT_LINK/iot_link/os/liteos/base/core\los_task.c ****     osPriqueueEnqueue(&pstTaskCB->stPendList, pstTaskCB->usPriority);
 2140              		.loc 2 939 5 view .LVU649
 2141 0038 E188     		ldrh	r1, [r4, #6]
ARM GAS  C:\Users\²Ü¼ÒºÀ\AppData\Local\Temp\ccOngKk7.s 			page 68


 931:C:/Users/²Ü¼ÒºÀ/.iotlink/sdk/IoT_LINK/iot_link/os/liteos/base/core\los_task.c ****     pstTaskCB->usTaskStatus &= (~OS_TASK_STATUS_SUSPEND);
 2142              		.loc 2 931 29 view .LVU650
 2143 003a 23F00203 		bic	r3, r3, #2
 932:C:/Users/²Ü¼ÒºÀ/.iotlink/sdk/IoT_LINK/iot_link/os/liteos/base/core\los_task.c ****     pstTaskCB->usTaskStatus |= OS_TASK_STATUS_READY;
 2144              		.loc 2 932 29 view .LVU651
 2145 003e 43F00403 		orr	r3, r3, #4
 2146 0042 A380     		strh	r3, [r4, #4]	@ movhi
 930:C:/Users/²Ü¼ÒºÀ/.iotlink/sdk/IoT_LINK/iot_link/os/liteos/base/core\los_task.c ****     pstTaskCB->usTaskStatus &= (~OS_TASK_STATUS_SUSPEND);
 2147              		.loc 2 930 17 view .LVU652
 2148 0044 0646     		mov	r6, r0
 2149              	.LVL150:
 931:C:/Users/²Ü¼ÒºÀ/.iotlink/sdk/IoT_LINK/iot_link/os/liteos/base/core\los_task.c ****     pstTaskCB->usTaskStatus &= (~OS_TASK_STATUS_SUSPEND);
 2150              		.loc 2 931 5 is_stmt 1 view .LVU653
 932:C:/Users/²Ü¼ÒºÀ/.iotlink/sdk/IoT_LINK/iot_link/os/liteos/base/core\los_task.c ****     pstTaskCB->usTaskStatus |= OS_TASK_STATUS_READY;
 2151              		.loc 2 932 5 view .LVU654
 2152              		.loc 2 939 5 view .LVU655
 2153 0046 04F12800 		add	r0, r4, #40
 2154              	.LVL151:
 2155              		.loc 2 939 5 is_stmt 0 view .LVU656
 2156 004a FFF7FEFF 		bl	osPriqueueEnqueue
 2157              	.LVL152:
 940:C:/Users/²Ü¼ÒºÀ/.iotlink/sdk/IoT_LINK/iot_link/os/liteos/base/core\los_task.c ****     g_stLosTask.pstNewTask = LOS_DL_LIST_ENTRY(osPriqueueTop(), LOS_TASK_CB, stPendList); /*lint !e
 2158              		.loc 2 940 5 is_stmt 1 view .LVU657
 2159              		.loc 2 940 30 is_stmt 0 view .LVU658
 2160 004e FFF7FEFF 		bl	osPriqueueTop
 2161              	.LVL153:
 941:C:/Users/²Ü¼ÒºÀ/.iotlink/sdk/IoT_LINK/iot_link/os/liteos/base/core\los_task.c **** 
 942:C:/Users/²Ü¼ÒºÀ/.iotlink/sdk/IoT_LINK/iot_link/os/liteos/base/core\los_task.c ****     if ((g_bTaskScheduled) && (g_usLosTaskLock == 0))
 2162              		.loc 2 942 9 view .LVU659
 2163 0052 0E4A     		ldr	r2, .L145+4
 940:C:/Users/²Ü¼ÒºÀ/.iotlink/sdk/IoT_LINK/iot_link/os/liteos/base/core\los_task.c ****     g_stLosTask.pstNewTask = LOS_DL_LIST_ENTRY(osPriqueueTop(), LOS_TASK_CB, stPendList); /*lint !e
 2164              		.loc 2 940 28 view .LVU660
 2165 0054 0E4B     		ldr	r3, .L145+8
 2166              		.loc 2 942 8 view .LVU661
 2167 0056 1268     		ldr	r2, [r2]
 940:C:/Users/²Ü¼ÒºÀ/.iotlink/sdk/IoT_LINK/iot_link/os/liteos/base/core\los_task.c ****     g_stLosTask.pstNewTask = LOS_DL_LIST_ENTRY(osPriqueueTop(), LOS_TASK_CB, stPendList); /*lint !e
 2168              		.loc 2 940 30 view .LVU662
 2169 0058 2838     		subs	r0, r0, #40
 940:C:/Users/²Ü¼ÒºÀ/.iotlink/sdk/IoT_LINK/iot_link/os/liteos/base/core\los_task.c ****     g_stLosTask.pstNewTask = LOS_DL_LIST_ENTRY(osPriqueueTop(), LOS_TASK_CB, stPendList); /*lint !e
 2170              		.loc 2 940 28 view .LVU663
 2171 005a 5860     		str	r0, [r3, #4]
 2172              		.loc 2 942 5 is_stmt 1 view .LVU664
 2173              		.loc 2 942 8 is_stmt 0 view .LVU665
 2174 005c 6AB1     		cbz	r2, .L140
 2175              		.loc 2 942 48 view .LVU666
 2176 005e 0D4A     		ldr	r2, .L145+12
 2177              		.loc 2 942 28 view .LVU667
 2178 0060 1288     		ldrh	r2, [r2]
 2179 0062 52B9     		cbnz	r2, .L140
 943:C:/Users/²Ü¼ÒºÀ/.iotlink/sdk/IoT_LINK/iot_link/os/liteos/base/core\los_task.c ****     {
 944:C:/Users/²Ü¼ÒºÀ/.iotlink/sdk/IoT_LINK/iot_link/os/liteos/base/core\los_task.c ****         if (g_stLosTask.pstRunTask != g_stLosTask.pstNewTask)
 2180              		.loc 2 944 9 is_stmt 1 view .LVU668
 2181              		.loc 2 944 12 is_stmt 0 view .LVU669
 2182 0064 1B68     		ldr	r3, [r3]
 2183 0066 9842     		cmp	r0, r3
 2184 0068 07D0     		beq	.L140
 945:C:/Users/²Ü¼ÒºÀ/.iotlink/sdk/IoT_LINK/iot_link/os/liteos/base/core\los_task.c ****         {
ARM GAS  C:\Users\²Ü¼ÒºÀ\AppData\Local\Temp\ccOngKk7.s 			page 69


 946:C:/Users/²Ü¼ÒºÀ/.iotlink/sdk/IoT_LINK/iot_link/os/liteos/base/core\los_task.c ****             if (LOS_CHECK_SCHEDULE)
 2185              		.loc 2 946 13 is_stmt 1 view .LVU670
 947:C:/Users/²Ü¼ÒºÀ/.iotlink/sdk/IoT_LINK/iot_link/os/liteos/base/core\los_task.c ****             {
 948:C:/Users/²Ü¼ÒºÀ/.iotlink/sdk/IoT_LINK/iot_link/os/liteos/base/core\los_task.c ****                 (VOID)LOS_IntRestore(uvIntSave);
 2186              		.loc 2 948 17 view .LVU671
 2187 006a 3046     		mov	r0, r6
 2188 006c FFF7FEFF 		bl	LOS_IntRestore
 2189              	.LVL154:
 949:C:/Users/²Ü¼ÒºÀ/.iotlink/sdk/IoT_LINK/iot_link/os/liteos/base/core\los_task.c ****                 osSchedule();
 2190              		.loc 2 949 17 view .LVU672
 2191 0070 FFF7FEFF 		bl	osSchedule
 2192              	.LVL155:
 950:C:/Users/²Ü¼ÒºÀ/.iotlink/sdk/IoT_LINK/iot_link/os/liteos/base/core\los_task.c ****                 return LOS_OK;
 2193              		.loc 2 950 17 view .LVU673
 2194              	.L138:
 2195              		.loc 2 950 17 is_stmt 0 view .LVU674
 2196              	.LBE131:
 2197              	.LBE130:
 951:C:/Users/²Ü¼ÒºÀ/.iotlink/sdk/IoT_LINK/iot_link/os/liteos/base/core\los_task.c ****             }
 952:C:/Users/²Ü¼ÒºÀ/.iotlink/sdk/IoT_LINK/iot_link/os/liteos/base/core\los_task.c ****         }
 953:C:/Users/²Ü¼ÒºÀ/.iotlink/sdk/IoT_LINK/iot_link/os/liteos/base/core\los_task.c ****     }
 954:C:/Users/²Ü¼ÒºÀ/.iotlink/sdk/IoT_LINK/iot_link/os/liteos/base/core\los_task.c **** 
 955:C:/Users/²Ü¼ÒºÀ/.iotlink/sdk/IoT_LINK/iot_link/os/liteos/base/core\los_task.c ****     (VOID)LOS_IntRestore(uvIntSave);
 956:C:/Users/²Ü¼ÒºÀ/.iotlink/sdk/IoT_LINK/iot_link/os/liteos/base/core\los_task.c ****     return LOS_OK;
 957:C:/Users/²Ü¼ÒºÀ/.iotlink/sdk/IoT_LINK/iot_link/os/liteos/base/core\los_task.c **** }
 2198              		.loc 2 957 1 view .LVU675
 2199 0074 2846     		mov	r0, r5
 2200 0076 06B0     		add	sp, sp, #24
 2201              	.LCFI26:
 2202              		.cfi_remember_state
 2203              		.cfi_def_cfa_offset 16
 2204              		@ sp needed
 2205 0078 70BD     		pop	{r4, r5, r6, pc}
 2206              	.LVL156:
 2207              	.L140:
 2208              	.LCFI27:
 2209              		.cfi_restore_state
 2210              	.LBB133:
 2211              	.LBB132:
 955:C:/Users/²Ü¼ÒºÀ/.iotlink/sdk/IoT_LINK/iot_link/os/liteos/base/core\los_task.c ****     return LOS_OK;
 2212              		.loc 2 955 5 is_stmt 1 view .LVU676
 2213 007a 3046     		mov	r0, r6
 2214 007c FFF7FEFF 		bl	LOS_IntRestore
 2215              	.LVL157:
 956:C:/Users/²Ü¼ÒºÀ/.iotlink/sdk/IoT_LINK/iot_link/os/liteos/base/core\los_task.c **** }
 2216              		.loc 2 956 5 view .LVU677
 956:C:/Users/²Ü¼ÒºÀ/.iotlink/sdk/IoT_LINK/iot_link/os/liteos/base/core\los_task.c **** }
 2217              		.loc 2 956 12 is_stmt 0 view .LVU678
 2218 0080 F8E7     		b	.L138
 2219              	.LVL158:
 2220              	.L141:
 956:C:/Users/²Ü¼ÒºÀ/.iotlink/sdk/IoT_LINK/iot_link/os/liteos/base/core\los_task.c **** }
 2221              		.loc 2 956 12 view .LVU679
 2222              	.LBE132:
 2223              	.LBE133:
 918:C:/Users/²Ü¼ÒºÀ/.iotlink/sdk/IoT_LINK/iot_link/os/liteos/base/core\los_task.c ****     }
 2224              		.loc 2 918 16 view .LVU680
ARM GAS  C:\Users\²Ü¼ÒºÀ\AppData\Local\Temp\ccOngKk7.s 			page 70


 2225 0082 054D     		ldr	r5, .L145+16
 2226 0084 F6E7     		b	.L138
 2227              	.L146:
 2228 0086 00BF     		.align	2
 2229              	.L145:
 2230 0088 00000000 		.word	g_pstTaskCBArray
 2231 008c 00000000 		.word	g_bTaskScheduled
 2232 0090 00000000 		.word	g_stLosTask
 2233 0094 00000000 		.word	g_usLosTaskLock
 2234 0098 01020002 		.word	33554945
 2235              		.cfi_endproc
 2236              	.LFE304:
 2238              		.section	.rodata.osIdleTaskCreate.str1.1,"aMS",%progbits,1
 2239              	.LC20:
 2240 0000 49646C65 		.ascii	"IdleCore000\000"
 2240      436F7265 
 2240      30303000 
 2241              		.section	.text.osIdleTaskCreate,"ax",%progbits
 2242              		.align	1
 2243              		.global	osIdleTaskCreate
 2244              		.syntax unified
 2245              		.thumb
 2246              		.thumb_func
 2247              		.fpu fpv4-sp-d16
 2249              	osIdleTaskCreate:
 2250              	.LFB296:
 587:C:/Users/²Ü¼ÒºÀ/.iotlink/sdk/IoT_LINK/iot_link/os/liteos/base/core\los_task.c **** #if (LOSCFG_STATIC_TASK == NO)
 2251              		.loc 2 587 1 is_stmt 1 view -0
 2252              		.cfi_startproc
 2253              		@ args = 0, pretend = 0, frame = 24
 2254              		@ frame_needed = 0, uses_anonymous_args = 0
 589:C:/Users/²Ü¼ÒºÀ/.iotlink/sdk/IoT_LINK/iot_link/os/liteos/base/core\los_task.c ****     TSK_INIT_PARAM_S stTaskInitParam;
 2255              		.loc 2 589 5 view .LVU682
 590:C:/Users/²Ü¼ÒºÀ/.iotlink/sdk/IoT_LINK/iot_link/os/liteos/base/core\los_task.c **** 
 2256              		.loc 2 590 5 view .LVU683
 592:C:/Users/²Ü¼ÒºÀ/.iotlink/sdk/IoT_LINK/iot_link/os/liteos/base/core\los_task.c ****     stTaskInitParam.pfnTaskEntry = (TSK_ENTRY_FUNC)osIdleTask;
 2257              		.loc 2 592 5 view .LVU684
 587:C:/Users/²Ü¼ÒºÀ/.iotlink/sdk/IoT_LINK/iot_link/os/liteos/base/core\los_task.c **** #if (LOSCFG_STATIC_TASK == NO)
 2258              		.loc 2 587 1 is_stmt 0 view .LVU685
 2259 0000 7FB5     		push	{r0, r1, r2, r3, r4, r5, r6, lr}
 2260              	.LCFI28:
 2261              		.cfi_def_cfa_offset 32
 2262              		.cfi_offset 14, -4
 592:C:/Users/²Ü¼ÒºÀ/.iotlink/sdk/IoT_LINK/iot_link/os/liteos/base/core\los_task.c ****     stTaskInitParam.pfnTaskEntry = (TSK_ENTRY_FUNC)osIdleTask;
 2263              		.loc 2 592 11 view .LVU686
 2264 0002 1422     		movs	r2, #20
 2265 0004 0021     		movs	r1, #0
 2266 0006 01A8     		add	r0, sp, #4
 2267 0008 FFF7FEFF 		bl	memset
 2268              	.LVL159:
 593:C:/Users/²Ü¼ÒºÀ/.iotlink/sdk/IoT_LINK/iot_link/os/liteos/base/core\los_task.c ****     stTaskInitParam.uwStackSize = LOSCFG_BASE_CORE_TSK_IDLE_STACK_SIZE;
 2269              		.loc 2 593 5 is_stmt 1 view .LVU687
 593:C:/Users/²Ü¼ÒºÀ/.iotlink/sdk/IoT_LINK/iot_link/os/liteos/base/core\los_task.c ****     stTaskInitParam.uwStackSize = LOSCFG_BASE_CORE_TSK_IDLE_STACK_SIZE;
 2270              		.loc 2 593 34 is_stmt 0 view .LVU688
 2271 000c 084B     		ldr	r3, .L148
 2272 000e 0093     		str	r3, [sp]
 594:C:/Users/²Ü¼ÒºÀ/.iotlink/sdk/IoT_LINK/iot_link/os/liteos/base/core\los_task.c ****     stTaskInitParam.pcName = "IdleCore000";
ARM GAS  C:\Users\²Ü¼ÒºÀ\AppData\Local\Temp\ccOngKk7.s 			page 71


 2273              		.loc 2 594 5 is_stmt 1 view .LVU689
 594:C:/Users/²Ü¼ÒºÀ/.iotlink/sdk/IoT_LINK/iot_link/os/liteos/base/core\los_task.c ****     stTaskInitParam.pcName = "IdleCore000";
 2274              		.loc 2 594 33 is_stmt 0 view .LVU690
 2275 0010 4FF40073 		mov	r3, #512
 2276 0014 0393     		str	r3, [sp, #12]
 595:C:/Users/²Ü¼ÒºÀ/.iotlink/sdk/IoT_LINK/iot_link/os/liteos/base/core\los_task.c ****     stTaskInitParam.usTaskPrio = OS_TASK_PRIORITY_LOWEST;
 2277              		.loc 2 595 5 is_stmt 1 view .LVU691
 595:C:/Users/²Ü¼ÒºÀ/.iotlink/sdk/IoT_LINK/iot_link/os/liteos/base/core\los_task.c ****     stTaskInitParam.usTaskPrio = OS_TASK_PRIORITY_LOWEST;
 2278              		.loc 2 595 28 is_stmt 0 view .LVU692
 2279 0016 074B     		ldr	r3, .L148+4
 2280 0018 0493     		str	r3, [sp, #16]
 596:C:/Users/²Ü¼ÒºÀ/.iotlink/sdk/IoT_LINK/iot_link/os/liteos/base/core\los_task.c ****     uwRet = LOS_TaskCreate(&g_uwIdleTaskID, &stTaskInitParam);
 2281              		.loc 2 596 5 is_stmt 1 view .LVU693
 597:C:/Users/²Ü¼ÒºÀ/.iotlink/sdk/IoT_LINK/iot_link/os/liteos/base/core\los_task.c **** 
 2282              		.loc 2 597 13 is_stmt 0 view .LVU694
 2283 001a 6946     		mov	r1, sp
 596:C:/Users/²Ü¼ÒºÀ/.iotlink/sdk/IoT_LINK/iot_link/os/liteos/base/core\los_task.c ****     uwRet = LOS_TaskCreate(&g_uwIdleTaskID, &stTaskInitParam);
 2284              		.loc 2 596 32 view .LVU695
 2285 001c 1F23     		movs	r3, #31
 597:C:/Users/²Ü¼ÒºÀ/.iotlink/sdk/IoT_LINK/iot_link/os/liteos/base/core\los_task.c **** 
 2286              		.loc 2 597 13 view .LVU696
 2287 001e 0648     		ldr	r0, .L148+8
 596:C:/Users/²Ü¼ÒºÀ/.iotlink/sdk/IoT_LINK/iot_link/os/liteos/base/core\los_task.c ****     uwRet = LOS_TaskCreate(&g_uwIdleTaskID, &stTaskInitParam);
 2288              		.loc 2 596 32 view .LVU697
 2289 0020 ADF80430 		strh	r3, [sp, #4]	@ movhi
 597:C:/Users/²Ü¼ÒºÀ/.iotlink/sdk/IoT_LINK/iot_link/os/liteos/base/core\los_task.c **** 
 2290              		.loc 2 597 5 is_stmt 1 view .LVU698
 597:C:/Users/²Ü¼ÒºÀ/.iotlink/sdk/IoT_LINK/iot_link/os/liteos/base/core\los_task.c **** 
 2291              		.loc 2 597 13 is_stmt 0 view .LVU699
 2292 0024 FFF7FEFF 		bl	LOS_TaskCreate
 2293              	.LVL160:
 599:C:/Users/²Ü¼ÒºÀ/.iotlink/sdk/IoT_LINK/iot_link/os/liteos/base/core\los_task.c ****     {
 2294              		.loc 2 599 5 is_stmt 1 view .LVU700
 608:C:/Users/²Ü¼ÒºÀ/.iotlink/sdk/IoT_LINK/iot_link/os/liteos/base/core\los_task.c **** 
 2295              		.loc 2 608 1 is_stmt 0 view .LVU701
 2296 0028 07B0     		add	sp, sp, #28
 2297              	.LCFI29:
 2298              		.cfi_def_cfa_offset 4
 2299              		@ sp needed
 2300 002a 5DF804FB 		ldr	pc, [sp], #4
 2301              	.L149:
 2302 002e 00BF     		.align	2
 2303              	.L148:
 2304 0030 00000000 		.word	osIdleTask
 2305 0034 00000000 		.word	.LC20
 2306 0038 00000000 		.word	g_uwIdleTaskID
 2307              		.cfi_endproc
 2308              	.LFE296:
 2310              		.section	.text.LOS_TaskResume,"ax",%progbits
 2311              		.align	1
 2312              		.global	LOS_TaskResume
 2313              		.syntax unified
 2314              		.thumb
 2315              		.thumb_func
 2316              		.fpu fpv4-sp-d16
 2318              	LOS_TaskResume:
 2319              	.LVL161:
ARM GAS  C:\Users\²Ü¼ÒºÀ\AppData\Local\Temp\ccOngKk7.s 			page 72


 2320              	.LFB305:
 958:C:/Users/²Ü¼ÒºÀ/.iotlink/sdk/IoT_LINK/iot_link/os/liteos/base/core\los_task.c **** #endif
 959:C:/Users/²Ü¼ÒºÀ/.iotlink/sdk/IoT_LINK/iot_link/os/liteos/base/core\los_task.c **** 
 960:C:/Users/²Ü¼ÒºÀ/.iotlink/sdk/IoT_LINK/iot_link/os/liteos/base/core\los_task.c **** /*****************************************************************************
 961:C:/Users/²Ü¼ÒºÀ/.iotlink/sdk/IoT_LINK/iot_link/os/liteos/base/core\los_task.c ****  Function : LOS_TaskResume
 962:C:/Users/²Ü¼ÒºÀ/.iotlink/sdk/IoT_LINK/iot_link/os/liteos/base/core\los_task.c ****  Description : Resume suspend task
 963:C:/Users/²Ü¼ÒºÀ/.iotlink/sdk/IoT_LINK/iot_link/os/liteos/base/core\los_task.c ****  Input       : uwTaskID --- Task ID
 964:C:/Users/²Ü¼ÒºÀ/.iotlink/sdk/IoT_LINK/iot_link/os/liteos/base/core\los_task.c ****  Output      : None
 965:C:/Users/²Ü¼ÒºÀ/.iotlink/sdk/IoT_LINK/iot_link/os/liteos/base/core\los_task.c ****  Return      : LOS_OK on success or error code on failure
 966:C:/Users/²Ü¼ÒºÀ/.iotlink/sdk/IoT_LINK/iot_link/os/liteos/base/core\los_task.c ****  *****************************************************************************/
 967:C:/Users/²Ü¼ÒºÀ/.iotlink/sdk/IoT_LINK/iot_link/os/liteos/base/core\los_task.c **** LITE_OS_SEC_TEXT_INIT UINT32 LOS_TaskResume(UINT32 uwTaskID)
 968:C:/Users/²Ü¼ÒºÀ/.iotlink/sdk/IoT_LINK/iot_link/os/liteos/base/core\los_task.c **** {
 2321              		.loc 2 968 1 is_stmt 1 view -0
 2322              		.cfi_startproc
 2323              		@ args = 0, pretend = 0, frame = 0
 2324              		@ frame_needed = 0, uses_anonymous_args = 0
 969:C:/Users/²Ü¼ÒºÀ/.iotlink/sdk/IoT_LINK/iot_link/os/liteos/base/core\los_task.c ****     UINTPTR uvIntSave;
 2325              		.loc 2 969 5 view .LVU703
 970:C:/Users/²Ü¼ÒºÀ/.iotlink/sdk/IoT_LINK/iot_link/os/liteos/base/core\los_task.c ****     LOS_TASK_CB *pstTaskCB;
 2326              		.loc 2 970 5 view .LVU704
 971:C:/Users/²Ü¼ÒºÀ/.iotlink/sdk/IoT_LINK/iot_link/os/liteos/base/core\los_task.c ****     UINT16 usTempStatus;
 2327              		.loc 2 971 5 view .LVU705
 972:C:/Users/²Ü¼ÒºÀ/.iotlink/sdk/IoT_LINK/iot_link/os/liteos/base/core\los_task.c ****     UINT32 uwErrRet = OS_ERROR;
 2328              		.loc 2 972 5 view .LVU706
 973:C:/Users/²Ü¼ÒºÀ/.iotlink/sdk/IoT_LINK/iot_link/os/liteos/base/core\los_task.c **** 
 974:C:/Users/²Ü¼ÒºÀ/.iotlink/sdk/IoT_LINK/iot_link/os/liteos/base/core\los_task.c ****     if (uwTaskID > LOSCFG_BASE_CORE_TSK_LIMIT)
 2329              		.loc 2 974 5 view .LVU707
 2330              		.loc 2 974 8 is_stmt 0 view .LVU708
 2331 0000 0F28     		cmp	r0, #15
 968:C:/Users/²Ü¼ÒºÀ/.iotlink/sdk/IoT_LINK/iot_link/os/liteos/base/core\los_task.c ****     UINTPTR uvIntSave;
 2332              		.loc 2 968 1 view .LVU709
 2333 0002 70B5     		push	{r4, r5, r6, lr}
 2334              	.LCFI30:
 2335              		.cfi_def_cfa_offset 16
 2336              		.cfi_offset 4, -16
 2337              		.cfi_offset 5, -12
 2338              		.cfi_offset 6, -8
 2339              		.cfi_offset 14, -4
 2340              		.loc 2 974 8 view .LVU710
 2341 0004 38D8     		bhi	.L156
 975:C:/Users/²Ü¼ÒºÀ/.iotlink/sdk/IoT_LINK/iot_link/os/liteos/base/core\los_task.c ****     {
 976:C:/Users/²Ü¼ÒºÀ/.iotlink/sdk/IoT_LINK/iot_link/os/liteos/base/core\los_task.c ****         return LOS_ERRNO_TSK_ID_INVALID;
 977:C:/Users/²Ü¼ÒºÀ/.iotlink/sdk/IoT_LINK/iot_link/os/liteos/base/core\los_task.c ****     }
 978:C:/Users/²Ü¼ÒºÀ/.iotlink/sdk/IoT_LINK/iot_link/os/liteos/base/core\los_task.c **** 
 979:C:/Users/²Ü¼ÒºÀ/.iotlink/sdk/IoT_LINK/iot_link/os/liteos/base/core\los_task.c ****     pstTaskCB = OS_TCB_FROM_TID(uwTaskID);
 2342              		.loc 2 979 5 is_stmt 1 view .LVU711
 2343              		.loc 2 979 15 is_stmt 0 view .LVU712
 2344 0006 1D4B     		ldr	r3, .L159
 2345 0008 1D68     		ldr	r5, [r3]
 2346 000a 5423     		movs	r3, #84
 2347 000c 03FB0055 		mla	r5, r3, r0, r5
 2348              	.LVL162:
 980:C:/Users/²Ü¼ÒºÀ/.iotlink/sdk/IoT_LINK/iot_link/os/liteos/base/core\los_task.c ****     uvIntSave = LOS_IntLock();
 2349              		.loc 2 980 5 is_stmt 1 view .LVU713
 2350              		.loc 2 980 17 is_stmt 0 view .LVU714
 2351 0010 FFF7FEFF 		bl	LOS_IntLock
 2352              	.LVL163:
ARM GAS  C:\Users\²Ü¼ÒºÀ\AppData\Local\Temp\ccOngKk7.s 			page 73


 981:C:/Users/²Ü¼ÒºÀ/.iotlink/sdk/IoT_LINK/iot_link/os/liteos/base/core\los_task.c ****     usTempStatus = pstTaskCB->usTaskStatus;
 2353              		.loc 2 981 18 view .LVU715
 2354 0014 AC88     		ldrh	r4, [r5, #4]
 982:C:/Users/²Ü¼ÒºÀ/.iotlink/sdk/IoT_LINK/iot_link/os/liteos/base/core\los_task.c **** 
 983:C:/Users/²Ü¼ÒºÀ/.iotlink/sdk/IoT_LINK/iot_link/os/liteos/base/core\los_task.c ****     if (OS_TASK_STATUS_UNUSED & usTempStatus)
 2355              		.loc 2 983 8 view .LVU716
 2356 0016 E207     		lsls	r2, r4, #31
 980:C:/Users/²Ü¼ÒºÀ/.iotlink/sdk/IoT_LINK/iot_link/os/liteos/base/core\los_task.c ****     usTempStatus = pstTaskCB->usTaskStatus;
 2357              		.loc 2 980 17 view .LVU717
 2358 0018 0646     		mov	r6, r0
 2359              	.LVL164:
 981:C:/Users/²Ü¼ÒºÀ/.iotlink/sdk/IoT_LINK/iot_link/os/liteos/base/core\los_task.c ****     usTempStatus = pstTaskCB->usTaskStatus;
 2360              		.loc 2 981 5 is_stmt 1 view .LVU718
 2361              		.loc 2 983 5 view .LVU719
 2362              		.loc 2 983 8 is_stmt 0 view .LVU720
 2363 001a 26D4     		bmi	.L157
 984:C:/Users/²Ü¼ÒºÀ/.iotlink/sdk/IoT_LINK/iot_link/os/liteos/base/core\los_task.c ****     {
 985:C:/Users/²Ü¼ÒºÀ/.iotlink/sdk/IoT_LINK/iot_link/os/liteos/base/core\los_task.c ****         uwErrRet = LOS_ERRNO_TSK_NOT_CREATED;
 986:C:/Users/²Ü¼ÒºÀ/.iotlink/sdk/IoT_LINK/iot_link/os/liteos/base/core\los_task.c ****         OS_GOTO_ERREND();
 2364              		.loc 2 986 9 is_stmt 1 view .LVU721
 987:C:/Users/²Ü¼ÒºÀ/.iotlink/sdk/IoT_LINK/iot_link/os/liteos/base/core\los_task.c ****     }
 988:C:/Users/²Ü¼ÒºÀ/.iotlink/sdk/IoT_LINK/iot_link/os/liteos/base/core\los_task.c ****     else if (!(OS_TASK_STATUS_SUSPEND & usTempStatus))
 2365              		.loc 2 988 10 view .LVU722
 2366              		.loc 2 988 13 is_stmt 0 view .LVU723
 2367 001c A307     		lsls	r3, r4, #30
 2368 001e 29D5     		bpl	.L158
 989:C:/Users/²Ü¼ÒºÀ/.iotlink/sdk/IoT_LINK/iot_link/os/liteos/base/core\los_task.c ****     {
 990:C:/Users/²Ü¼ÒºÀ/.iotlink/sdk/IoT_LINK/iot_link/os/liteos/base/core\los_task.c ****         uwErrRet = LOS_ERRNO_TSK_NOT_SUSPENDED;
 991:C:/Users/²Ü¼ÒºÀ/.iotlink/sdk/IoT_LINK/iot_link/os/liteos/base/core\los_task.c ****         OS_GOTO_ERREND();
 2369              		.loc 2 991 9 is_stmt 1 view .LVU724
 992:C:/Users/²Ü¼ÒºÀ/.iotlink/sdk/IoT_LINK/iot_link/os/liteos/base/core\los_task.c ****     }
 993:C:/Users/²Ü¼ÒºÀ/.iotlink/sdk/IoT_LINK/iot_link/os/liteos/base/core\los_task.c **** 
 994:C:/Users/²Ü¼ÒºÀ/.iotlink/sdk/IoT_LINK/iot_link/os/liteos/base/core\los_task.c ****     pstTaskCB->usTaskStatus &= (~OS_TASK_STATUS_SUSPEND);
 2370              		.loc 2 994 5 view .LVU725
 995:C:/Users/²Ü¼ÒºÀ/.iotlink/sdk/IoT_LINK/iot_link/os/liteos/base/core\los_task.c ****     if (!(OS_CHECK_TASK_BLOCK & pstTaskCB->usTaskStatus) )
 2371              		.loc 2 995 9 is_stmt 0 view .LVU726
 2372 0020 42F22842 		movw	r2, #9256
 994:C:/Users/²Ü¼ÒºÀ/.iotlink/sdk/IoT_LINK/iot_link/os/liteos/base/core\los_task.c ****     if (!(OS_CHECK_TASK_BLOCK & pstTaskCB->usTaskStatus) )
 2373              		.loc 2 994 29 view .LVU727
 2374 0024 24F00203 		bic	r3, r4, #2
 2375              		.loc 2 995 8 view .LVU728
 2376 0028 1440     		ands	r4, r4, r2
 2377              	.LVL165:
 994:C:/Users/²Ü¼ÒºÀ/.iotlink/sdk/IoT_LINK/iot_link/os/liteos/base/core\los_task.c ****     if (!(OS_CHECK_TASK_BLOCK & pstTaskCB->usTaskStatus) )
 2378              		.loc 2 994 29 view .LVU729
 2379 002a 9BB2     		uxth	r3, r3
 2380              		.loc 2 995 5 is_stmt 1 view .LVU730
 2381              		.loc 2 995 8 is_stmt 0 view .LVU731
 2382 002c 05D0     		beq	.L153
 994:C:/Users/²Ü¼ÒºÀ/.iotlink/sdk/IoT_LINK/iot_link/os/liteos/base/core\los_task.c ****     if (!(OS_CHECK_TASK_BLOCK & pstTaskCB->usTaskStatus) )
 2383              		.loc 2 994 29 view .LVU732
 2384 002e AB80     		strh	r3, [r5, #4]	@ movhi
 2385              	.LVL166:
 2386              	.L154:
 996:C:/Users/²Ü¼ÒºÀ/.iotlink/sdk/IoT_LINK/iot_link/os/liteos/base/core\los_task.c ****     {
 997:C:/Users/²Ü¼ÒºÀ/.iotlink/sdk/IoT_LINK/iot_link/os/liteos/base/core\los_task.c ****         pstTaskCB->usTaskStatus |= OS_TASK_STATUS_READY;
 998:C:/Users/²Ü¼ÒºÀ/.iotlink/sdk/IoT_LINK/iot_link/os/liteos/base/core\los_task.c ****         osPriqueueEnqueue(&pstTaskCB->stPendList, pstTaskCB->usPriority);
ARM GAS  C:\Users\²Ü¼ÒºÀ\AppData\Local\Temp\ccOngKk7.s 			page 74


 999:C:/Users/²Ü¼ÒºÀ/.iotlink/sdk/IoT_LINK/iot_link/os/liteos/base/core\los_task.c ****         if (g_bTaskScheduled)
1000:C:/Users/²Ü¼ÒºÀ/.iotlink/sdk/IoT_LINK/iot_link/os/liteos/base/core\los_task.c ****         {
1001:C:/Users/²Ü¼ÒºÀ/.iotlink/sdk/IoT_LINK/iot_link/os/liteos/base/core\los_task.c ****             (VOID)LOS_IntRestore(uvIntSave);
1002:C:/Users/²Ü¼ÒºÀ/.iotlink/sdk/IoT_LINK/iot_link/os/liteos/base/core\los_task.c ****             LOS_Schedule();
1003:C:/Users/²Ü¼ÒºÀ/.iotlink/sdk/IoT_LINK/iot_link/os/liteos/base/core\los_task.c ****             return LOS_OK;
1004:C:/Users/²Ü¼ÒºÀ/.iotlink/sdk/IoT_LINK/iot_link/os/liteos/base/core\los_task.c ****         }
1005:C:/Users/²Ü¼ÒºÀ/.iotlink/sdk/IoT_LINK/iot_link/os/liteos/base/core\los_task.c ****         g_stLosTask.pstNewTask = LOS_DL_LIST_ENTRY(osPriqueueTop(), LOS_TASK_CB, stPendList); /*lin
1006:C:/Users/²Ü¼ÒºÀ/.iotlink/sdk/IoT_LINK/iot_link/os/liteos/base/core\los_task.c ****     }
1007:C:/Users/²Ü¼ÒºÀ/.iotlink/sdk/IoT_LINK/iot_link/os/liteos/base/core\los_task.c **** 
1008:C:/Users/²Ü¼ÒºÀ/.iotlink/sdk/IoT_LINK/iot_link/os/liteos/base/core\los_task.c ****     (VOID)LOS_IntRestore(uvIntSave);
 2387              		.loc 2 1008 5 is_stmt 1 view .LVU733
 2388 0030 3046     		mov	r0, r6
 2389 0032 FFF7FEFF 		bl	LOS_IntRestore
 2390              	.LVL167:
1009:C:/Users/²Ü¼ÒºÀ/.iotlink/sdk/IoT_LINK/iot_link/os/liteos/base/core\los_task.c ****     return LOS_OK;
 2391              		.loc 2 1009 5 view .LVU734
 2392              		.loc 2 1009 12 is_stmt 0 view .LVU735
 2393 0036 0024     		movs	r4, #0
 2394 0038 0FE0     		b	.L150
 2395              	.LVL168:
 2396              	.L153:
 997:C:/Users/²Ü¼ÒºÀ/.iotlink/sdk/IoT_LINK/iot_link/os/liteos/base/core\los_task.c ****         osPriqueueEnqueue(&pstTaskCB->stPendList, pstTaskCB->usPriority);
 2397              		.loc 2 997 9 is_stmt 1 view .LVU736
 997:C:/Users/²Ü¼ÒºÀ/.iotlink/sdk/IoT_LINK/iot_link/os/liteos/base/core\los_task.c ****         osPriqueueEnqueue(&pstTaskCB->stPendList, pstTaskCB->usPriority);
 2398              		.loc 2 997 33 is_stmt 0 view .LVU737
 2399 003a 43F00403 		orr	r3, r3, #4
 2400 003e AB80     		strh	r3, [r5, #4]	@ movhi
 2401              	.LVL169:
 998:C:/Users/²Ü¼ÒºÀ/.iotlink/sdk/IoT_LINK/iot_link/os/liteos/base/core\los_task.c ****         if (g_bTaskScheduled)
 2402              		.loc 2 998 9 is_stmt 1 view .LVU738
 2403 0040 E988     		ldrh	r1, [r5, #6]
 2404 0042 05F12800 		add	r0, r5, #40
 2405              	.LVL170:
 998:C:/Users/²Ü¼ÒºÀ/.iotlink/sdk/IoT_LINK/iot_link/os/liteos/base/core\los_task.c ****         if (g_bTaskScheduled)
 2406              		.loc 2 998 9 is_stmt 0 view .LVU739
 2407 0046 FFF7FEFF 		bl	osPriqueueEnqueue
 2408              	.LVL171:
 999:C:/Users/²Ü¼ÒºÀ/.iotlink/sdk/IoT_LINK/iot_link/os/liteos/base/core\los_task.c ****         {
 2409              		.loc 2 999 9 is_stmt 1 view .LVU740
 999:C:/Users/²Ü¼ÒºÀ/.iotlink/sdk/IoT_LINK/iot_link/os/liteos/base/core\los_task.c ****         {
 2410              		.loc 2 999 13 is_stmt 0 view .LVU741
 2411 004a 0D4B     		ldr	r3, .L159+4
 999:C:/Users/²Ü¼ÒºÀ/.iotlink/sdk/IoT_LINK/iot_link/os/liteos/base/core\los_task.c ****         {
 2412              		.loc 2 999 12 view .LVU742
 2413 004c 1B68     		ldr	r3, [r3]
 2414 004e 33B1     		cbz	r3, .L155
1001:C:/Users/²Ü¼ÒºÀ/.iotlink/sdk/IoT_LINK/iot_link/os/liteos/base/core\los_task.c ****             LOS_Schedule();
 2415              		.loc 2 1001 13 is_stmt 1 view .LVU743
 2416 0050 3046     		mov	r0, r6
 2417 0052 FFF7FEFF 		bl	LOS_IntRestore
 2418              	.LVL172:
1002:C:/Users/²Ü¼ÒºÀ/.iotlink/sdk/IoT_LINK/iot_link/os/liteos/base/core\los_task.c ****             return LOS_OK;
 2419              		.loc 2 1002 13 view .LVU744
 2420 0056 FFF7FEFF 		bl	LOS_Schedule
 2421              	.LVL173:
1003:C:/Users/²Ü¼ÒºÀ/.iotlink/sdk/IoT_LINK/iot_link/os/liteos/base/core\los_task.c ****         }
 2422              		.loc 2 1003 13 view .LVU745
ARM GAS  C:\Users\²Ü¼ÒºÀ\AppData\Local\Temp\ccOngKk7.s 			page 75


 2423              	.L150:
1010:C:/Users/²Ü¼ÒºÀ/.iotlink/sdk/IoT_LINK/iot_link/os/liteos/base/core\los_task.c **** 
1011:C:/Users/²Ü¼ÒºÀ/.iotlink/sdk/IoT_LINK/iot_link/os/liteos/base/core\los_task.c **** LOS_ERREND:
1012:C:/Users/²Ü¼ÒºÀ/.iotlink/sdk/IoT_LINK/iot_link/os/liteos/base/core\los_task.c ****     (VOID)LOS_IntRestore(uvIntSave);
1013:C:/Users/²Ü¼ÒºÀ/.iotlink/sdk/IoT_LINK/iot_link/os/liteos/base/core\los_task.c ****     return uwErrRet;
1014:C:/Users/²Ü¼ÒºÀ/.iotlink/sdk/IoT_LINK/iot_link/os/liteos/base/core\los_task.c **** }
 2424              		.loc 2 1014 1 is_stmt 0 view .LVU746
 2425 005a 2046     		mov	r0, r4
 2426 005c 70BD     		pop	{r4, r5, r6, pc}
 2427              	.LVL174:
 2428              	.L155:
1005:C:/Users/²Ü¼ÒºÀ/.iotlink/sdk/IoT_LINK/iot_link/os/liteos/base/core\los_task.c ****     }
 2429              		.loc 2 1005 9 is_stmt 1 view .LVU747
1005:C:/Users/²Ü¼ÒºÀ/.iotlink/sdk/IoT_LINK/iot_link/os/liteos/base/core\los_task.c ****     }
 2430              		.loc 2 1005 34 is_stmt 0 view .LVU748
 2431 005e FFF7FEFF 		bl	osPriqueueTop
 2432              	.LVL175:
1005:C:/Users/²Ü¼ÒºÀ/.iotlink/sdk/IoT_LINK/iot_link/os/liteos/base/core\los_task.c ****     }
 2433              		.loc 2 1005 32 view .LVU749
 2434 0062 084B     		ldr	r3, .L159+8
1005:C:/Users/²Ü¼ÒºÀ/.iotlink/sdk/IoT_LINK/iot_link/os/liteos/base/core\los_task.c ****     }
 2435              		.loc 2 1005 34 view .LVU750
 2436 0064 2838     		subs	r0, r0, #40
1005:C:/Users/²Ü¼ÒºÀ/.iotlink/sdk/IoT_LINK/iot_link/os/liteos/base/core\los_task.c ****     }
 2437              		.loc 2 1005 32 view .LVU751
 2438 0066 5860     		str	r0, [r3, #4]
 2439 0068 E2E7     		b	.L154
 2440              	.LVL176:
 2441              	.L157:
 985:C:/Users/²Ü¼ÒºÀ/.iotlink/sdk/IoT_LINK/iot_link/os/liteos/base/core\los_task.c ****         OS_GOTO_ERREND();
 2442              		.loc 2 985 18 view .LVU752
 2443 006a 074C     		ldr	r4, .L159+12
 2444              	.LVL177:
 2445              	.L152:
1012:C:/Users/²Ü¼ÒºÀ/.iotlink/sdk/IoT_LINK/iot_link/os/liteos/base/core\los_task.c ****     return uwErrRet;
 2446              		.loc 2 1012 5 is_stmt 1 view .LVU753
 2447 006c 3046     		mov	r0, r6
 2448              	.LVL178:
1012:C:/Users/²Ü¼ÒºÀ/.iotlink/sdk/IoT_LINK/iot_link/os/liteos/base/core\los_task.c ****     return uwErrRet;
 2449              		.loc 2 1012 5 is_stmt 0 view .LVU754
 2450 006e FFF7FEFF 		bl	LOS_IntRestore
 2451              	.LVL179:
1013:C:/Users/²Ü¼ÒºÀ/.iotlink/sdk/IoT_LINK/iot_link/os/liteos/base/core\los_task.c **** }
 2452              		.loc 2 1013 5 is_stmt 1 view .LVU755
1013:C:/Users/²Ü¼ÒºÀ/.iotlink/sdk/IoT_LINK/iot_link/os/liteos/base/core\los_task.c **** }
 2453              		.loc 2 1013 12 is_stmt 0 view .LVU756
 2454 0072 F2E7     		b	.L150
 2455              	.LVL180:
 2456              	.L158:
 990:C:/Users/²Ü¼ÒºÀ/.iotlink/sdk/IoT_LINK/iot_link/os/liteos/base/core\los_task.c ****         OS_GOTO_ERREND();
 2457              		.loc 2 990 18 view .LVU757
 2458 0074 054C     		ldr	r4, .L159+16
 2459              	.LVL181:
 990:C:/Users/²Ü¼ÒºÀ/.iotlink/sdk/IoT_LINK/iot_link/os/liteos/base/core\los_task.c ****         OS_GOTO_ERREND();
 2460              		.loc 2 990 18 view .LVU758
 2461 0076 F9E7     		b	.L152
 2462              	.LVL182:
ARM GAS  C:\Users\²Ü¼ÒºÀ\AppData\Local\Temp\ccOngKk7.s 			page 76


 2463              	.L156:
 976:C:/Users/²Ü¼ÒºÀ/.iotlink/sdk/IoT_LINK/iot_link/os/liteos/base/core\los_task.c ****     }
 2464              		.loc 2 976 16 view .LVU759
 2465 0078 054C     		ldr	r4, .L159+20
 2466 007a EEE7     		b	.L150
 2467              	.L160:
 2468              		.align	2
 2469              	.L159:
 2470 007c 00000000 		.word	g_pstTaskCBArray
 2471 0080 00000000 		.word	g_bTaskScheduled
 2472 0084 00000000 		.word	g_stLosTask
 2473 0088 0A020002 		.word	33554954
 2474 008c 09020002 		.word	33554953
 2475 0090 07020002 		.word	33554951
 2476              		.cfi_endproc
 2477              	.LFE305:
 2479              		.section	.text.LOS_TaskSuspend,"ax",%progbits
 2480              		.align	1
 2481              		.global	LOS_TaskSuspend
 2482              		.syntax unified
 2483              		.thumb
 2484              		.thumb_func
 2485              		.fpu fpv4-sp-d16
 2487              	LOS_TaskSuspend:
 2488              	.LVL183:
 2489              	.LFB306:
1015:C:/Users/²Ü¼ÒºÀ/.iotlink/sdk/IoT_LINK/iot_link/os/liteos/base/core\los_task.c **** 
1016:C:/Users/²Ü¼ÒºÀ/.iotlink/sdk/IoT_LINK/iot_link/os/liteos/base/core\los_task.c **** /*****************************************************************************
1017:C:/Users/²Ü¼ÒºÀ/.iotlink/sdk/IoT_LINK/iot_link/os/liteos/base/core\los_task.c ****  Function : LOS_TaskSuspend
1018:C:/Users/²Ü¼ÒºÀ/.iotlink/sdk/IoT_LINK/iot_link/os/liteos/base/core\los_task.c ****  Description : Suspend task
1019:C:/Users/²Ü¼ÒºÀ/.iotlink/sdk/IoT_LINK/iot_link/os/liteos/base/core\los_task.c ****  Input       : uwTaskID --- Task ID
1020:C:/Users/²Ü¼ÒºÀ/.iotlink/sdk/IoT_LINK/iot_link/os/liteos/base/core\los_task.c ****  Output      : None
1021:C:/Users/²Ü¼ÒºÀ/.iotlink/sdk/IoT_LINK/iot_link/os/liteos/base/core\los_task.c ****  Return      : LOS_OK on success or error code on failure
1022:C:/Users/²Ü¼ÒºÀ/.iotlink/sdk/IoT_LINK/iot_link/os/liteos/base/core\los_task.c ****  *****************************************************************************/
1023:C:/Users/²Ü¼ÒºÀ/.iotlink/sdk/IoT_LINK/iot_link/os/liteos/base/core\los_task.c **** LITE_OS_SEC_TEXT_INIT UINT32 LOS_TaskSuspend(UINT32 uwTaskID)
1024:C:/Users/²Ü¼ÒºÀ/.iotlink/sdk/IoT_LINK/iot_link/os/liteos/base/core\los_task.c **** {
 2490              		.loc 2 1024 1 is_stmt 1 view -0
 2491              		.cfi_startproc
 2492              		@ args = 0, pretend = 0, frame = 0
 2493              		@ frame_needed = 0, uses_anonymous_args = 0
1025:C:/Users/²Ü¼ÒºÀ/.iotlink/sdk/IoT_LINK/iot_link/os/liteos/base/core\los_task.c ****     UINTPTR uvIntSave;
 2494              		.loc 2 1025 5 view .LVU761
1026:C:/Users/²Ü¼ÒºÀ/.iotlink/sdk/IoT_LINK/iot_link/os/liteos/base/core\los_task.c ****     LOS_TASK_CB *pstTaskCB;
 2495              		.loc 2 1026 5 view .LVU762
1027:C:/Users/²Ü¼ÒºÀ/.iotlink/sdk/IoT_LINK/iot_link/os/liteos/base/core\los_task.c ****     UINT16 usTempStatus;
 2496              		.loc 2 1027 5 view .LVU763
1028:C:/Users/²Ü¼ÒºÀ/.iotlink/sdk/IoT_LINK/iot_link/os/liteos/base/core\los_task.c ****     UINT32 uwErrRet = OS_ERROR;
 2497              		.loc 2 1028 5 view .LVU764
1029:C:/Users/²Ü¼ÒºÀ/.iotlink/sdk/IoT_LINK/iot_link/os/liteos/base/core\los_task.c **** 
1030:C:/Users/²Ü¼ÒºÀ/.iotlink/sdk/IoT_LINK/iot_link/os/liteos/base/core\los_task.c ****     CHECK_TASKID(uwTaskID);
 2498              		.loc 2 1030 5 view .LVU765
 2499 0000 264B     		ldr	r3, .L180
 2500 0002 1B68     		ldr	r3, [r3]
 2501 0004 8342     		cmp	r3, r0
1024:C:/Users/²Ü¼ÒºÀ/.iotlink/sdk/IoT_LINK/iot_link/os/liteos/base/core\los_task.c ****     UINTPTR uvIntSave;
 2502              		.loc 2 1024 1 is_stmt 0 view .LVU766
 2503 0006 70B5     		push	{r4, r5, r6, lr}
ARM GAS  C:\Users\²Ü¼ÒºÀ\AppData\Local\Temp\ccOngKk7.s 			page 77


 2504              	.LCFI31:
 2505              		.cfi_def_cfa_offset 16
 2506              		.cfi_offset 4, -16
 2507              		.cfi_offset 5, -12
 2508              		.cfi_offset 6, -8
 2509              		.cfi_offset 14, -4
1024:C:/Users/²Ü¼ÒºÀ/.iotlink/sdk/IoT_LINK/iot_link/os/liteos/base/core\los_task.c ****     UINTPTR uvIntSave;
 2510              		.loc 2 1024 1 view .LVU767
 2511 0008 0546     		mov	r5, r0
 2512              		.loc 2 1030 5 view .LVU768
 2513 000a 40D0     		beq	.L167
 2514              		.loc 2 1030 5 is_stmt 1 discriminator 2 view .LVU769
 2515 000c 244B     		ldr	r3, .L180+4
 2516 000e 1B68     		ldr	r3, [r3]
 2517 0010 8342     		cmp	r3, r0
 2518 0012 3ED0     		beq	.L168
 2519              		.loc 2 1030 5 discriminator 4 view .LVU770
 2520 0014 234B     		ldr	r3, .L180+8
 2521 0016 1B68     		ldr	r3, [r3]
 2522 0018 8342     		cmp	r3, r0
 2523 001a 3CD9     		bls	.L169
 2524              		.loc 2 1030 27 discriminator 6 view .LVU771
1031:C:/Users/²Ü¼ÒºÀ/.iotlink/sdk/IoT_LINK/iot_link/os/liteos/base/core\los_task.c ****     pstTaskCB = OS_TCB_FROM_TID(uwTaskID);
 2525              		.loc 2 1031 5 discriminator 6 view .LVU772
 2526              		.loc 2 1031 15 is_stmt 0 discriminator 6 view .LVU773
 2527 001c 224B     		ldr	r3, .L180+12
 2528 001e 1B68     		ldr	r3, [r3]
 2529 0020 5424     		movs	r4, #84
 2530 0022 04FB0034 		mla	r4, r4, r0, r3
 2531              	.LVL184:
1032:C:/Users/²Ü¼ÒºÀ/.iotlink/sdk/IoT_LINK/iot_link/os/liteos/base/core\los_task.c ****     uvIntSave = LOS_IntLock();
 2532              		.loc 2 1032 5 is_stmt 1 discriminator 6 view .LVU774
 2533              		.loc 2 1032 17 is_stmt 0 discriminator 6 view .LVU775
 2534 0026 FFF7FEFF 		bl	LOS_IntLock
 2535              	.LVL185:
1033:C:/Users/²Ü¼ÒºÀ/.iotlink/sdk/IoT_LINK/iot_link/os/liteos/base/core\los_task.c ****     usTempStatus = pstTaskCB->usTaskStatus;
 2536              		.loc 2 1033 18 discriminator 6 view .LVU776
 2537 002a A388     		ldrh	r3, [r4, #4]
1032:C:/Users/²Ü¼ÒºÀ/.iotlink/sdk/IoT_LINK/iot_link/os/liteos/base/core\los_task.c ****     uvIntSave = LOS_IntLock();
 2538              		.loc 2 1032 17 discriminator 6 view .LVU777
 2539 002c 0646     		mov	r6, r0
 2540              	.LVL186:
 2541              		.loc 2 1033 5 is_stmt 1 discriminator 6 view .LVU778
1034:C:/Users/²Ü¼ÒºÀ/.iotlink/sdk/IoT_LINK/iot_link/os/liteos/base/core\los_task.c ****     if (OS_TASK_STATUS_UNUSED & usTempStatus)
 2542              		.loc 2 1034 5 discriminator 6 view .LVU779
 2543              		.loc 2 1034 8 is_stmt 0 discriminator 6 view .LVU780
 2544 002e D807     		lsls	r0, r3, #31
 2545              	.LVL187:
 2546              		.loc 2 1034 8 discriminator 6 view .LVU781
 2547 0030 24D4     		bmi	.L170
1035:C:/Users/²Ü¼ÒºÀ/.iotlink/sdk/IoT_LINK/iot_link/os/liteos/base/core\los_task.c ****     {
1036:C:/Users/²Ü¼ÒºÀ/.iotlink/sdk/IoT_LINK/iot_link/os/liteos/base/core\los_task.c ****         uwErrRet = LOS_ERRNO_TSK_NOT_CREATED;
1037:C:/Users/²Ü¼ÒºÀ/.iotlink/sdk/IoT_LINK/iot_link/os/liteos/base/core\los_task.c ****         OS_GOTO_ERREND();
 2548              		.loc 2 1037 9 is_stmt 1 view .LVU782
1038:C:/Users/²Ü¼ÒºÀ/.iotlink/sdk/IoT_LINK/iot_link/os/liteos/base/core\los_task.c ****     }
1039:C:/Users/²Ü¼ÒºÀ/.iotlink/sdk/IoT_LINK/iot_link/os/liteos/base/core\los_task.c **** 
1040:C:/Users/²Ü¼ÒºÀ/.iotlink/sdk/IoT_LINK/iot_link/os/liteos/base/core\los_task.c ****     if (OS_TASK_STATUS_SUSPEND & usTempStatus)
ARM GAS  C:\Users\²Ü¼ÒºÀ\AppData\Local\Temp\ccOngKk7.s 			page 78


 2549              		.loc 2 1040 5 view .LVU783
 2550              		.loc 2 1040 8 is_stmt 0 view .LVU784
 2551 0032 9907     		lsls	r1, r3, #30
 2552 0034 27D4     		bmi	.L171
1041:C:/Users/²Ü¼ÒºÀ/.iotlink/sdk/IoT_LINK/iot_link/os/liteos/base/core\los_task.c ****     {
1042:C:/Users/²Ü¼ÒºÀ/.iotlink/sdk/IoT_LINK/iot_link/os/liteos/base/core\los_task.c ****         uwErrRet = LOS_ERRNO_TSK_ALREADY_SUSPENDED;
1043:C:/Users/²Ü¼ÒºÀ/.iotlink/sdk/IoT_LINK/iot_link/os/liteos/base/core\los_task.c ****         OS_GOTO_ERREND();
 2553              		.loc 2 1043 9 is_stmt 1 view .LVU785
1044:C:/Users/²Ü¼ÒºÀ/.iotlink/sdk/IoT_LINK/iot_link/os/liteos/base/core\los_task.c ****     }
1045:C:/Users/²Ü¼ÒºÀ/.iotlink/sdk/IoT_LINK/iot_link/os/liteos/base/core\los_task.c **** 
1046:C:/Users/²Ü¼ÒºÀ/.iotlink/sdk/IoT_LINK/iot_link/os/liteos/base/core\los_task.c ****     if ((OS_TASK_STATUS_RUNNING & usTempStatus) && (g_usLosTaskLock != 0))
 2554              		.loc 2 1046 5 view .LVU786
 2555              		.loc 2 1046 8 is_stmt 0 view .LVU787
 2556 0036 DA06     		lsls	r2, r3, #27
 2557 0038 02D5     		bpl	.L164
 2558              		.loc 2 1046 69 discriminator 1 view .LVU788
 2559 003a 1C4A     		ldr	r2, .L180+16
 2560              		.loc 2 1046 49 discriminator 1 view .LVU789
 2561 003c 1288     		ldrh	r2, [r2]
 2562 003e 22BB     		cbnz	r2, .L172
 2563              	.L164:
1047:C:/Users/²Ü¼ÒºÀ/.iotlink/sdk/IoT_LINK/iot_link/os/liteos/base/core\los_task.c ****     {
1048:C:/Users/²Ü¼ÒºÀ/.iotlink/sdk/IoT_LINK/iot_link/os/liteos/base/core\los_task.c ****         uwErrRet = LOS_ERRNO_TSK_SUSPEND_LOCKED;
1049:C:/Users/²Ü¼ÒºÀ/.iotlink/sdk/IoT_LINK/iot_link/os/liteos/base/core\los_task.c ****         OS_GOTO_ERREND();
 2564              		.loc 2 1049 9 is_stmt 1 view .LVU790
1050:C:/Users/²Ü¼ÒºÀ/.iotlink/sdk/IoT_LINK/iot_link/os/liteos/base/core\los_task.c ****     }
1051:C:/Users/²Ü¼ÒºÀ/.iotlink/sdk/IoT_LINK/iot_link/os/liteos/base/core\los_task.c **** 
1052:C:/Users/²Ü¼ÒºÀ/.iotlink/sdk/IoT_LINK/iot_link/os/liteos/base/core\los_task.c ****     if (OS_TASK_STATUS_READY & usTempStatus)
 2565              		.loc 2 1052 5 view .LVU791
 2566              		.loc 2 1052 8 is_stmt 0 view .LVU792
 2567 0040 5B07     		lsls	r3, r3, #29
 2568              	.LVL188:
 2569              		.loc 2 1052 8 view .LVU793
 2570 0042 07D5     		bpl	.L165
1053:C:/Users/²Ü¼ÒºÀ/.iotlink/sdk/IoT_LINK/iot_link/os/liteos/base/core\los_task.c ****     {
1054:C:/Users/²Ü¼ÒºÀ/.iotlink/sdk/IoT_LINK/iot_link/os/liteos/base/core\los_task.c ****         osPriqueueDequeue(&pstTaskCB->stPendList);
 2571              		.loc 2 1054 9 is_stmt 1 view .LVU794
 2572 0044 04F12800 		add	r0, r4, #40
 2573 0048 FFF7FEFF 		bl	osPriqueueDequeue
 2574              	.LVL189:
1055:C:/Users/²Ü¼ÒºÀ/.iotlink/sdk/IoT_LINK/iot_link/os/liteos/base/core\los_task.c ****         pstTaskCB->usTaskStatus &= (~OS_TASK_STATUS_READY);
 2575              		.loc 2 1055 9 view .LVU795
 2576              		.loc 2 1055 33 is_stmt 0 view .LVU796
 2577 004c A388     		ldrh	r3, [r4, #4]
 2578 004e 23F00403 		bic	r3, r3, #4
 2579 0052 A380     		strh	r3, [r4, #4]	@ movhi
 2580              	.L165:
1056:C:/Users/²Ü¼ÒºÀ/.iotlink/sdk/IoT_LINK/iot_link/os/liteos/base/core\los_task.c ****     }
1057:C:/Users/²Ü¼ÒºÀ/.iotlink/sdk/IoT_LINK/iot_link/os/liteos/base/core\los_task.c **** 
1058:C:/Users/²Ü¼ÒºÀ/.iotlink/sdk/IoT_LINK/iot_link/os/liteos/base/core\los_task.c ****     pstTaskCB->usTaskStatus |= OS_TASK_STATUS_SUSPEND;
 2581              		.loc 2 1058 5 is_stmt 1 view .LVU797
 2582              		.loc 2 1058 29 is_stmt 0 view .LVU798
 2583 0054 A388     		ldrh	r3, [r4, #4]
 2584 0056 43F00203 		orr	r3, r3, #2
 2585 005a A380     		strh	r3, [r4, #4]	@ movhi
1059:C:/Users/²Ü¼ÒºÀ/.iotlink/sdk/IoT_LINK/iot_link/os/liteos/base/core\los_task.c ****     if (uwTaskID == g_stLosTask.pstRunTask->uwTaskID)
 2586              		.loc 2 1059 5 is_stmt 1 view .LVU799
ARM GAS  C:\Users\²Ü¼ÒºÀ\AppData\Local\Temp\ccOngKk7.s 			page 79


 2587              		.loc 2 1059 32 is_stmt 0 view .LVU800
 2588 005c 144B     		ldr	r3, .L180+20
 2589              		.loc 2 1059 43 view .LVU801
 2590 005e 1B68     		ldr	r3, [r3]
 2591              		.loc 2 1059 8 view .LVU802
 2592 0060 1B69     		ldr	r3, [r3, #16]
 2593 0062 AB42     		cmp	r3, r5
1060:C:/Users/²Ü¼ÒºÀ/.iotlink/sdk/IoT_LINK/iot_link/os/liteos/base/core\los_task.c ****     {
1061:C:/Users/²Ü¼ÒºÀ/.iotlink/sdk/IoT_LINK/iot_link/os/liteos/base/core\los_task.c ****         (VOID)LOS_IntRestore(uvIntSave);
 2594              		.loc 2 1061 9 view .LVU803
 2595 0064 3046     		mov	r0, r6
1059:C:/Users/²Ü¼ÒºÀ/.iotlink/sdk/IoT_LINK/iot_link/os/liteos/base/core\los_task.c ****     if (uwTaskID == g_stLosTask.pstRunTask->uwTaskID)
 2596              		.loc 2 1059 8 view .LVU804
 2597 0066 06D1     		bne	.L166
 2598              	.LVL190:
 2599              		.loc 2 1061 9 is_stmt 1 view .LVU805
 2600 0068 FFF7FEFF 		bl	LOS_IntRestore
 2601              	.LVL191:
1062:C:/Users/²Ü¼ÒºÀ/.iotlink/sdk/IoT_LINK/iot_link/os/liteos/base/core\los_task.c ****         LOS_Schedule();
 2602              		.loc 2 1062 9 view .LVU806
 2603 006c FFF7FEFF 		bl	LOS_Schedule
 2604              	.LVL192:
1063:C:/Users/²Ü¼ÒºÀ/.iotlink/sdk/IoT_LINK/iot_link/os/liteos/base/core\los_task.c ****         return LOS_OK;
 2605              		.loc 2 1063 9 view .LVU807
 2606              	.L179:
1064:C:/Users/²Ü¼ÒºÀ/.iotlink/sdk/IoT_LINK/iot_link/os/liteos/base/core\los_task.c ****     }
1065:C:/Users/²Ü¼ÒºÀ/.iotlink/sdk/IoT_LINK/iot_link/os/liteos/base/core\los_task.c **** 
1066:C:/Users/²Ü¼ÒºÀ/.iotlink/sdk/IoT_LINK/iot_link/os/liteos/base/core\los_task.c ****     (VOID)LOS_IntRestore(uvIntSave);
1067:C:/Users/²Ü¼ÒºÀ/.iotlink/sdk/IoT_LINK/iot_link/os/liteos/base/core\los_task.c ****     return LOS_OK;
 2607              		.loc 2 1067 5 view .LVU808
 2608              		.loc 2 1067 12 is_stmt 0 view .LVU809
 2609 0070 0024     		movs	r4, #0
 2610              	.LVL193:
 2611              	.L161:
1068:C:/Users/²Ü¼ÒºÀ/.iotlink/sdk/IoT_LINK/iot_link/os/liteos/base/core\los_task.c **** 
1069:C:/Users/²Ü¼ÒºÀ/.iotlink/sdk/IoT_LINK/iot_link/os/liteos/base/core\los_task.c **** LOS_ERREND:
1070:C:/Users/²Ü¼ÒºÀ/.iotlink/sdk/IoT_LINK/iot_link/os/liteos/base/core\los_task.c ****     (VOID)LOS_IntRestore(uvIntSave);
1071:C:/Users/²Ü¼ÒºÀ/.iotlink/sdk/IoT_LINK/iot_link/os/liteos/base/core\los_task.c ****     return uwErrRet;
1072:C:/Users/²Ü¼ÒºÀ/.iotlink/sdk/IoT_LINK/iot_link/os/liteos/base/core\los_task.c **** }
 2612              		.loc 2 1072 1 view .LVU810
 2613 0072 2046     		mov	r0, r4
 2614 0074 70BD     		pop	{r4, r5, r6, pc}
 2615              	.LVL194:
 2616              	.L166:
1066:C:/Users/²Ü¼ÒºÀ/.iotlink/sdk/IoT_LINK/iot_link/os/liteos/base/core\los_task.c ****     return LOS_OK;
 2617              		.loc 2 1066 5 is_stmt 1 view .LVU811
 2618 0076 FFF7FEFF 		bl	LOS_IntRestore
 2619              	.LVL195:
1066:C:/Users/²Ü¼ÒºÀ/.iotlink/sdk/IoT_LINK/iot_link/os/liteos/base/core\los_task.c ****     return LOS_OK;
 2620              		.loc 2 1066 5 is_stmt 0 view .LVU812
 2621 007a F9E7     		b	.L179
 2622              	.LVL196:
 2623              	.L170:
1036:C:/Users/²Ü¼ÒºÀ/.iotlink/sdk/IoT_LINK/iot_link/os/liteos/base/core\los_task.c ****         OS_GOTO_ERREND();
 2624              		.loc 2 1036 18 view .LVU813
 2625 007c 0D4C     		ldr	r4, .L180+24
 2626              	.LVL197:
ARM GAS  C:\Users\²Ü¼ÒºÀ\AppData\Local\Temp\ccOngKk7.s 			page 80


 2627              	.L163:
1070:C:/Users/²Ü¼ÒºÀ/.iotlink/sdk/IoT_LINK/iot_link/os/liteos/base/core\los_task.c ****     return uwErrRet;
 2628              		.loc 2 1070 5 is_stmt 1 view .LVU814
 2629 007e 3046     		mov	r0, r6
 2630 0080 FFF7FEFF 		bl	LOS_IntRestore
 2631              	.LVL198:
1071:C:/Users/²Ü¼ÒºÀ/.iotlink/sdk/IoT_LINK/iot_link/os/liteos/base/core\los_task.c **** }
 2632              		.loc 2 1071 5 view .LVU815
1071:C:/Users/²Ü¼ÒºÀ/.iotlink/sdk/IoT_LINK/iot_link/os/liteos/base/core\los_task.c **** }
 2633              		.loc 2 1071 12 is_stmt 0 view .LVU816
 2634 0084 F5E7     		b	.L161
 2635              	.LVL199:
 2636              	.L171:
1042:C:/Users/²Ü¼ÒºÀ/.iotlink/sdk/IoT_LINK/iot_link/os/liteos/base/core\los_task.c ****         OS_GOTO_ERREND();
 2637              		.loc 2 1042 18 view .LVU817
 2638 0086 0C4C     		ldr	r4, .L180+28
 2639              	.LVL200:
1042:C:/Users/²Ü¼ÒºÀ/.iotlink/sdk/IoT_LINK/iot_link/os/liteos/base/core\los_task.c ****         OS_GOTO_ERREND();
 2640              		.loc 2 1042 18 view .LVU818
 2641 0088 F9E7     		b	.L163
 2642              	.LVL201:
 2643              	.L172:
1048:C:/Users/²Ü¼ÒºÀ/.iotlink/sdk/IoT_LINK/iot_link/os/liteos/base/core\los_task.c ****         OS_GOTO_ERREND();
 2644              		.loc 2 1048 18 view .LVU819
 2645 008a 0C4C     		ldr	r4, .L180+32
 2646              	.LVL202:
1048:C:/Users/²Ü¼ÒºÀ/.iotlink/sdk/IoT_LINK/iot_link/os/liteos/base/core\los_task.c ****         OS_GOTO_ERREND();
 2647              		.loc 2 1048 18 view .LVU820
 2648 008c F7E7     		b	.L163
 2649              	.LVL203:
 2650              	.L167:
1030:C:/Users/²Ü¼ÒºÀ/.iotlink/sdk/IoT_LINK/iot_link/os/liteos/base/core\los_task.c ****     pstTaskCB = OS_TCB_FROM_TID(uwTaskID);
 2651              		.loc 2 1030 5 view .LVU821
 2652 008e 0C4C     		ldr	r4, .L180+36
 2653 0090 EFE7     		b	.L161
 2654              	.L168:
 2655 0092 0C4C     		ldr	r4, .L180+40
 2656 0094 EDE7     		b	.L161
 2657              	.L169:
 2658 0096 0C4C     		ldr	r4, .L180+44
 2659 0098 EBE7     		b	.L161
 2660              	.L181:
 2661 009a 00BF     		.align	2
 2662              	.L180:
 2663 009c 00000000 		.word	g_uwIdleTaskID
 2664 00a0 00000000 		.word	g_uwSwtmrTaskID
 2665 00a4 00000000 		.word	g_uwTskMaxNum
 2666 00a8 00000000 		.word	g_pstTaskCBArray
 2667 00ac 00000000 		.word	g_usLosTaskLock
 2668 00b0 00000000 		.word	g_stLosTask
 2669 00b4 0A020002 		.word	33554954
 2670 00b8 08020002 		.word	33554952
 2671 00bc 15020003 		.word	50332181
 2672 00c0 14020002 		.word	33554964
 2673 00c4 21020002 		.word	33554977
 2674 00c8 07020002 		.word	33554951
 2675              		.cfi_endproc
ARM GAS  C:\Users\²Ü¼ÒºÀ\AppData\Local\Temp\ccOngKk7.s 			page 81


 2676              	.LFE306:
 2678              		.section	.text.LOS_TaskDelete,"ax",%progbits
 2679              		.align	1
 2680              		.global	LOS_TaskDelete
 2681              		.syntax unified
 2682              		.thumb
 2683              		.thumb_func
 2684              		.fpu fpv4-sp-d16
 2686              	LOS_TaskDelete:
 2687              	.LVL204:
 2688              	.LFB307:
1073:C:/Users/²Ü¼ÒºÀ/.iotlink/sdk/IoT_LINK/iot_link/os/liteos/base/core\los_task.c **** 
1074:C:/Users/²Ü¼ÒºÀ/.iotlink/sdk/IoT_LINK/iot_link/os/liteos/base/core\los_task.c **** /*****************************************************************************
1075:C:/Users/²Ü¼ÒºÀ/.iotlink/sdk/IoT_LINK/iot_link/os/liteos/base/core\los_task.c ****  Function : LOS_TaskDelete
1076:C:/Users/²Ü¼ÒºÀ/.iotlink/sdk/IoT_LINK/iot_link/os/liteos/base/core\los_task.c ****  Description : Delete a task
1077:C:/Users/²Ü¼ÒºÀ/.iotlink/sdk/IoT_LINK/iot_link/os/liteos/base/core\los_task.c ****  Input       : uwTaskID --- Task ID
1078:C:/Users/²Ü¼ÒºÀ/.iotlink/sdk/IoT_LINK/iot_link/os/liteos/base/core\los_task.c ****  Output      : None
1079:C:/Users/²Ü¼ÒºÀ/.iotlink/sdk/IoT_LINK/iot_link/os/liteos/base/core\los_task.c ****  Return      : LOS_OK on success or error code on failure
1080:C:/Users/²Ü¼ÒºÀ/.iotlink/sdk/IoT_LINK/iot_link/os/liteos/base/core\los_task.c ****  *****************************************************************************/
1081:C:/Users/²Ü¼ÒºÀ/.iotlink/sdk/IoT_LINK/iot_link/os/liteos/base/core\los_task.c **** LITE_OS_SEC_TEXT_INIT UINT32 LOS_TaskDelete(UINT32 uwTaskID)
1082:C:/Users/²Ü¼ÒºÀ/.iotlink/sdk/IoT_LINK/iot_link/os/liteos/base/core\los_task.c **** {
 2689              		.loc 2 1082 1 is_stmt 1 view -0
 2690              		.cfi_startproc
 2691              		@ args = 0, pretend = 0, frame = 0
 2692              		@ frame_needed = 0, uses_anonymous_args = 0
1083:C:/Users/²Ü¼ÒºÀ/.iotlink/sdk/IoT_LINK/iot_link/os/liteos/base/core\los_task.c **** #if (LOSCFG_STATIC_TASK == NO)
1084:C:/Users/²Ü¼ÒºÀ/.iotlink/sdk/IoT_LINK/iot_link/os/liteos/base/core\los_task.c ****     UINTPTR uvIntSave;
 2693              		.loc 2 1084 5 view .LVU823
1085:C:/Users/²Ü¼ÒºÀ/.iotlink/sdk/IoT_LINK/iot_link/os/liteos/base/core\los_task.c ****     LOS_TASK_CB *pstTaskCB;
 2694              		.loc 2 1085 5 view .LVU824
1086:C:/Users/²Ü¼ÒºÀ/.iotlink/sdk/IoT_LINK/iot_link/os/liteos/base/core\los_task.c ****     UINT16 usTempStatus;
 2695              		.loc 2 1086 5 view .LVU825
1087:C:/Users/²Ü¼ÒºÀ/.iotlink/sdk/IoT_LINK/iot_link/os/liteos/base/core\los_task.c ****     UINT32 uwErrRet = OS_ERROR;
 2696              		.loc 2 1087 5 view .LVU826
1088:C:/Users/²Ü¼ÒºÀ/.iotlink/sdk/IoT_LINK/iot_link/os/liteos/base/core\los_task.c **** 
1089:C:/Users/²Ü¼ÒºÀ/.iotlink/sdk/IoT_LINK/iot_link/os/liteos/base/core\los_task.c ****     CHECK_TASKID(uwTaskID);
 2697              		.loc 2 1089 5 view .LVU827
1082:C:/Users/²Ü¼ÒºÀ/.iotlink/sdk/IoT_LINK/iot_link/os/liteos/base/core\los_task.c **** #if (LOSCFG_STATIC_TASK == NO)
 2698              		.loc 2 1082 1 is_stmt 0 view .LVU828
 2699 0000 2DE9F84F 		push	{r3, r4, r5, r6, r7, r8, r9, r10, fp, lr}
 2700              	.LCFI32:
 2701              		.cfi_def_cfa_offset 40
 2702              		.cfi_offset 3, -40
 2703              		.cfi_offset 4, -36
 2704              		.cfi_offset 5, -32
 2705              		.cfi_offset 6, -28
 2706              		.cfi_offset 7, -24
 2707              		.cfi_offset 8, -20
 2708              		.cfi_offset 9, -16
 2709              		.cfi_offset 10, -12
 2710              		.cfi_offset 11, -8
 2711              		.cfi_offset 14, -4
 2712              		.loc 2 1089 5 view .LVU829
 2713 0004 4B4B     		ldr	r3, .L206
 2714 0006 1B68     		ldr	r3, [r3]
 2715 0008 8342     		cmp	r3, r0
1082:C:/Users/²Ü¼ÒºÀ/.iotlink/sdk/IoT_LINK/iot_link/os/liteos/base/core\los_task.c **** #if (LOSCFG_STATIC_TASK == NO)
ARM GAS  C:\Users\²Ü¼ÒºÀ\AppData\Local\Temp\ccOngKk7.s 			page 82


 2716              		.loc 2 1082 1 view .LVU830
 2717 000a 0646     		mov	r6, r0
 2718              		.loc 2 1089 5 view .LVU831
 2719 000c 00F08B80 		beq	.L191
 2720              		.loc 2 1089 5 is_stmt 1 discriminator 2 view .LVU832
 2721 0010 494B     		ldr	r3, .L206+4
 2722 0012 1B68     		ldr	r3, [r3]
 2723 0014 8342     		cmp	r3, r0
 2724 0016 00F08880 		beq	.L192
 2725              		.loc 2 1089 5 discriminator 4 view .LVU833
 2726 001a 484B     		ldr	r3, .L206+8
 2727 001c 1A68     		ldr	r2, [r3]
 2728 001e 8242     		cmp	r2, r0
 2729 0020 9B46     		mov	fp, r3
 2730 0022 40F28480 		bls	.L193
 2731              	.LVL205:
 2732              	.LBB142:
 2733              	.LBI142:
1081:C:/Users/²Ü¼ÒºÀ/.iotlink/sdk/IoT_LINK/iot_link/os/liteos/base/core\los_task.c **** {
 2734              		.loc 2 1081 30 view .LVU834
 2735              	.LBB143:
 2736              		.loc 2 1089 27 view .LVU835
1090:C:/Users/²Ü¼ÒºÀ/.iotlink/sdk/IoT_LINK/iot_link/os/liteos/base/core\los_task.c ****     uvIntSave = LOS_IntLock();
 2737              		.loc 2 1090 5 view .LVU836
 2738              		.loc 2 1090 17 is_stmt 0 view .LVU837
 2739 0026 FFF7FEFF 		bl	LOS_IntLock
 2740              	.LVL206:
 2741              		.loc 2 1090 17 view .LVU838
 2742 002a 8046     		mov	r8, r0
 2743              	.LVL207:
1091:C:/Users/²Ü¼ÒºÀ/.iotlink/sdk/IoT_LINK/iot_link/os/liteos/base/core\los_task.c **** 
1092:C:/Users/²Ü¼ÒºÀ/.iotlink/sdk/IoT_LINK/iot_link/os/liteos/base/core\los_task.c ****     /* if self deleting, unlock the scheduler */
1093:C:/Users/²Ü¼ÒºÀ/.iotlink/sdk/IoT_LINK/iot_link/os/liteos/base/core\los_task.c **** 
1094:C:/Users/²Ü¼ÒºÀ/.iotlink/sdk/IoT_LINK/iot_link/os/liteos/base/core\los_task.c ****     if (uwTaskID == LOS_CurTaskIDGet())
 2744              		.loc 2 1094 5 is_stmt 1 view .LVU839
 2745              		.loc 2 1094 21 is_stmt 0 view .LVU840
 2746 002c FFF7FEFF 		bl	LOS_CurTaskIDGet
 2747              	.LVL208:
 2748              		.loc 2 1094 8 view .LVU841
 2749 0030 8642     		cmp	r6, r0
1095:C:/Users/²Ü¼ÒºÀ/.iotlink/sdk/IoT_LINK/iot_link/os/liteos/base/core\los_task.c ****     {
1096:C:/Users/²Ü¼ÒºÀ/.iotlink/sdk/IoT_LINK/iot_link/os/liteos/base/core\los_task.c ****         g_usLosTaskLock = 0;
 2750              		.loc 2 1096 9 is_stmt 1 view .LVU842
 2751              		.loc 2 1096 25 is_stmt 0 view .LVU843
 2752 0032 02BF     		ittt	eq
 2753 0034 424B     		ldreq	r3, .L206+12
 2754 0036 0022     		moveq	r2, #0
 2755 0038 1A80     		strheq	r2, [r3]	@ movhi
1097:C:/Users/²Ü¼ÒºÀ/.iotlink/sdk/IoT_LINK/iot_link/os/liteos/base/core\los_task.c ****     }
1098:C:/Users/²Ü¼ÒºÀ/.iotlink/sdk/IoT_LINK/iot_link/os/liteos/base/core\los_task.c **** 
1099:C:/Users/²Ü¼ÒºÀ/.iotlink/sdk/IoT_LINK/iot_link/os/liteos/base/core\los_task.c ****     pstTaskCB = OS_TCB_FROM_TID(uwTaskID);
 2756              		.loc 2 1099 5 is_stmt 1 view .LVU844
 2757              		.loc 2 1099 17 is_stmt 0 view .LVU845
 2758 003a 424B     		ldr	r3, .L206+16
 2759              		.loc 2 1099 15 view .LVU846
 2760 003c 1A68     		ldr	r2, [r3]
 2761 003e 5424     		movs	r4, #84
ARM GAS  C:\Users\²Ü¼ÒºÀ\AppData\Local\Temp\ccOngKk7.s 			page 83


 2762 0040 04FB0624 		mla	r4, r4, r6, r2
 2763              	.LVL209:
1100:C:/Users/²Ü¼ÒºÀ/.iotlink/sdk/IoT_LINK/iot_link/os/liteos/base/core\los_task.c **** 
1101:C:/Users/²Ü¼ÒºÀ/.iotlink/sdk/IoT_LINK/iot_link/os/liteos/base/core\los_task.c ****     usTempStatus = pstTaskCB->usTaskStatus;
 2764              		.loc 2 1101 5 is_stmt 1 view .LVU847
 2765 0044 9A46     		mov	r10, r3
 2766              		.loc 2 1101 18 is_stmt 0 view .LVU848
 2767 0046 A588     		ldrh	r5, [r4, #4]
 2768              	.LVL210:
1102:C:/Users/²Ü¼ÒºÀ/.iotlink/sdk/IoT_LINK/iot_link/os/liteos/base/core\los_task.c **** 
1103:C:/Users/²Ü¼ÒºÀ/.iotlink/sdk/IoT_LINK/iot_link/os/liteos/base/core\los_task.c ****     if (OS_TASK_STATUS_UNUSED & usTempStatus)
 2769              		.loc 2 1103 5 is_stmt 1 view .LVU849
 2770              		.loc 2 1103 8 is_stmt 0 view .LVU850
 2771 0048 15F00102 		ands	r2, r5, #1
 2772 004c 05D0     		beq	.L185
1104:C:/Users/²Ü¼ÒºÀ/.iotlink/sdk/IoT_LINK/iot_link/os/liteos/base/core\los_task.c ****     {
1105:C:/Users/²Ü¼ÒºÀ/.iotlink/sdk/IoT_LINK/iot_link/os/liteos/base/core\los_task.c ****         uwErrRet = LOS_ERRNO_TSK_NOT_CREATED;
 2773              		.loc 2 1105 9 is_stmt 1 view .LVU851
 2774              	.LVL211:
1106:C:/Users/²Ü¼ÒºÀ/.iotlink/sdk/IoT_LINK/iot_link/os/liteos/base/core\los_task.c ****         OS_GOTO_ERREND();
 2775              		.loc 2 1106 9 view .LVU852
 2776              		.loc 2 1106 9 view .LVU853
 2777              	.LDL1:
1107:C:/Users/²Ü¼ÒºÀ/.iotlink/sdk/IoT_LINK/iot_link/os/liteos/base/core\los_task.c ****     }
1108:C:/Users/²Ü¼ÒºÀ/.iotlink/sdk/IoT_LINK/iot_link/os/liteos/base/core\los_task.c **** 
1109:C:/Users/²Ü¼ÒºÀ/.iotlink/sdk/IoT_LINK/iot_link/os/liteos/base/core\los_task.c ****     /* If the task is running and scheduler is locked then you can not delete it */
1110:C:/Users/²Ü¼ÒºÀ/.iotlink/sdk/IoT_LINK/iot_link/os/liteos/base/core\los_task.c ****     if ((OS_TASK_STATUS_RUNNING & usTempStatus) && (g_usLosTaskLock != 0))
1111:C:/Users/²Ü¼ÒºÀ/.iotlink/sdk/IoT_LINK/iot_link/os/liteos/base/core\los_task.c ****     {
1112:C:/Users/²Ü¼ÒºÀ/.iotlink/sdk/IoT_LINK/iot_link/os/liteos/base/core\los_task.c ****         PRINT_INFO("In case of task lock, task deletion is not recommended\n");
1113:C:/Users/²Ü¼ÒºÀ/.iotlink/sdk/IoT_LINK/iot_link/os/liteos/base/core\los_task.c ****         g_usLosTaskLock = 0;
1114:C:/Users/²Ü¼ÒºÀ/.iotlink/sdk/IoT_LINK/iot_link/os/liteos/base/core\los_task.c ****     }
1115:C:/Users/²Ü¼ÒºÀ/.iotlink/sdk/IoT_LINK/iot_link/os/liteos/base/core\los_task.c **** 
1116:C:/Users/²Ü¼ÒºÀ/.iotlink/sdk/IoT_LINK/iot_link/os/liteos/base/core\los_task.c ****     if (OS_TASK_STATUS_READY & usTempStatus)
1117:C:/Users/²Ü¼ÒºÀ/.iotlink/sdk/IoT_LINK/iot_link/os/liteos/base/core\los_task.c ****     {
1118:C:/Users/²Ü¼ÒºÀ/.iotlink/sdk/IoT_LINK/iot_link/os/liteos/base/core\los_task.c ****         osPriqueueDequeue(&pstTaskCB->stPendList);
1119:C:/Users/²Ü¼ÒºÀ/.iotlink/sdk/IoT_LINK/iot_link/os/liteos/base/core\los_task.c ****         pstTaskCB->usTaskStatus &= (~OS_TASK_STATUS_READY);
1120:C:/Users/²Ü¼ÒºÀ/.iotlink/sdk/IoT_LINK/iot_link/os/liteos/base/core\los_task.c ****     }
1121:C:/Users/²Ü¼ÒºÀ/.iotlink/sdk/IoT_LINK/iot_link/os/liteos/base/core\los_task.c ****     else if ((OS_TASK_STATUS_PEND & usTempStatus) || (OS_TASK_STATUS_PEND_QUEUE & usTempStatus))
1122:C:/Users/²Ü¼ÒºÀ/.iotlink/sdk/IoT_LINK/iot_link/os/liteos/base/core\los_task.c ****     {
1123:C:/Users/²Ü¼ÒºÀ/.iotlink/sdk/IoT_LINK/iot_link/os/liteos/base/core\los_task.c ****         LOS_ListDelete(&pstTaskCB->stPendList);
1124:C:/Users/²Ü¼ÒºÀ/.iotlink/sdk/IoT_LINK/iot_link/os/liteos/base/core\los_task.c ****     }
1125:C:/Users/²Ü¼ÒºÀ/.iotlink/sdk/IoT_LINK/iot_link/os/liteos/base/core\los_task.c **** 
1126:C:/Users/²Ü¼ÒºÀ/.iotlink/sdk/IoT_LINK/iot_link/os/liteos/base/core\los_task.c ****     if ((OS_TASK_STATUS_DELAY | OS_TASK_STATUS_TIMEOUT) & usTempStatus)
1127:C:/Users/²Ü¼ÒºÀ/.iotlink/sdk/IoT_LINK/iot_link/os/liteos/base/core\los_task.c ****     {
1128:C:/Users/²Ü¼ÒºÀ/.iotlink/sdk/IoT_LINK/iot_link/os/liteos/base/core\los_task.c ****         osTimerListDelete(pstTaskCB);
1129:C:/Users/²Ü¼ÒºÀ/.iotlink/sdk/IoT_LINK/iot_link/os/liteos/base/core\los_task.c ****     }
1130:C:/Users/²Ü¼ÒºÀ/.iotlink/sdk/IoT_LINK/iot_link/os/liteos/base/core\los_task.c **** 
1131:C:/Users/²Ü¼ÒºÀ/.iotlink/sdk/IoT_LINK/iot_link/os/liteos/base/core\los_task.c ****     pstTaskCB->usTaskStatus &= (~(OS_TASK_STATUS_SUSPEND));
1132:C:/Users/²Ü¼ÒºÀ/.iotlink/sdk/IoT_LINK/iot_link/os/liteos/base/core\los_task.c ****     pstTaskCB->usTaskStatus |= OS_TASK_STATUS_UNUSED;
1133:C:/Users/²Ü¼ÒºÀ/.iotlink/sdk/IoT_LINK/iot_link/os/liteos/base/core\los_task.c ****     pstTaskCB->uwEvent.uwEventID = 0xFFFFFFFF;
1134:C:/Users/²Ü¼ÒºÀ/.iotlink/sdk/IoT_LINK/iot_link/os/liteos/base/core\los_task.c ****     pstTaskCB->uwEventMask = 0;
1135:C:/Users/²Ü¼ÒºÀ/.iotlink/sdk/IoT_LINK/iot_link/os/liteos/base/core\los_task.c **** #if (LOSCFG_BASE_CORE_CPUP == YES)
1136:C:/Users/²Ü¼ÒºÀ/.iotlink/sdk/IoT_LINK/iot_link/os/liteos/base/core\los_task.c ****     (VOID)memset((VOID *)&g_pstCpup[pstTaskCB->uwTaskID], 0, sizeof(OS_CPUP_S));
1137:C:/Users/²Ü¼ÒºÀ/.iotlink/sdk/IoT_LINK/iot_link/os/liteos/base/core\los_task.c **** #endif
1138:C:/Users/²Ü¼ÒºÀ/.iotlink/sdk/IoT_LINK/iot_link/os/liteos/base/core\los_task.c ****     g_stLosTask.pstNewTask = LOS_DL_LIST_ENTRY(osPriqueueTop(), LOS_TASK_CB, stPendList); /*lint !e
1139:C:/Users/²Ü¼ÒºÀ/.iotlink/sdk/IoT_LINK/iot_link/os/liteos/base/core\los_task.c ****     if (OS_TASK_STATUS_RUNNING & pstTaskCB->usTaskStatus)
1140:C:/Users/²Ü¼ÒºÀ/.iotlink/sdk/IoT_LINK/iot_link/os/liteos/base/core\los_task.c ****     {
ARM GAS  C:\Users\²Ü¼ÒºÀ\AppData\Local\Temp\ccOngKk7.s 			page 84


1141:C:/Users/²Ü¼ÒºÀ/.iotlink/sdk/IoT_LINK/iot_link/os/liteos/base/core\los_task.c ****         LOS_ListTailInsert(&g_stTskRecyleList, &pstTaskCB->stPendList);
1142:C:/Users/²Ü¼ÒºÀ/.iotlink/sdk/IoT_LINK/iot_link/os/liteos/base/core\los_task.c ****         g_stLosTask.pstRunTask = &g_pstTaskCBArray[g_uwTskMaxNum];
1143:C:/Users/²Ü¼ÒºÀ/.iotlink/sdk/IoT_LINK/iot_link/os/liteos/base/core\los_task.c ****         g_stLosTask.pstRunTask->uwTaskID = uwTaskID;
1144:C:/Users/²Ü¼ÒºÀ/.iotlink/sdk/IoT_LINK/iot_link/os/liteos/base/core\los_task.c ****         g_stLosTask.pstRunTask->usTaskStatus = pstTaskCB->usTaskStatus;
1145:C:/Users/²Ü¼ÒºÀ/.iotlink/sdk/IoT_LINK/iot_link/os/liteos/base/core\los_task.c ****         g_stLosTask.pstRunTask->uwTopOfStack = pstTaskCB->uwTopOfStack;
1146:C:/Users/²Ü¼ÒºÀ/.iotlink/sdk/IoT_LINK/iot_link/os/liteos/base/core\los_task.c ****         g_stLosTask.pstRunTask->pcTaskName = pstTaskCB->pcTaskName;
1147:C:/Users/²Ü¼ÒºÀ/.iotlink/sdk/IoT_LINK/iot_link/os/liteos/base/core\los_task.c ****         pstTaskCB->usTaskStatus = OS_TASK_STATUS_UNUSED;
1148:C:/Users/²Ü¼ÒºÀ/.iotlink/sdk/IoT_LINK/iot_link/os/liteos/base/core\los_task.c ****         (VOID)LOS_IntRestore(uvIntSave);
1149:C:/Users/²Ü¼ÒºÀ/.iotlink/sdk/IoT_LINK/iot_link/os/liteos/base/core\los_task.c ****         osSchedule();
1150:C:/Users/²Ü¼ÒºÀ/.iotlink/sdk/IoT_LINK/iot_link/os/liteos/base/core\los_task.c ****         return LOS_OK;
1151:C:/Users/²Ü¼ÒºÀ/.iotlink/sdk/IoT_LINK/iot_link/os/liteos/base/core\los_task.c ****     }
1152:C:/Users/²Ü¼ÒºÀ/.iotlink/sdk/IoT_LINK/iot_link/os/liteos/base/core\los_task.c ****     else
1153:C:/Users/²Ü¼ÒºÀ/.iotlink/sdk/IoT_LINK/iot_link/os/liteos/base/core\los_task.c ****     {
1154:C:/Users/²Ü¼ÒºÀ/.iotlink/sdk/IoT_LINK/iot_link/os/liteos/base/core\los_task.c ****         pstTaskCB->usTaskStatus = OS_TASK_STATUS_UNUSED;
1155:C:/Users/²Ü¼ÒºÀ/.iotlink/sdk/IoT_LINK/iot_link/os/liteos/base/core\los_task.c ****         LOS_ListAdd(&g_stLosFreeTask, &pstTaskCB->stPendList);
1156:C:/Users/²Ü¼ÒºÀ/.iotlink/sdk/IoT_LINK/iot_link/os/liteos/base/core\los_task.c ****         (VOID)LOS_MemFree(OS_TASK_STACK_ADDR, (VOID *)pstTaskCB->uwTopOfStack);
1157:C:/Users/²Ü¼ÒºÀ/.iotlink/sdk/IoT_LINK/iot_link/os/liteos/base/core\los_task.c ****         pstTaskCB->uwTopOfStack = (UINT32)NULL;
1158:C:/Users/²Ü¼ÒºÀ/.iotlink/sdk/IoT_LINK/iot_link/os/liteos/base/core\los_task.c ****     }
1159:C:/Users/²Ü¼ÒºÀ/.iotlink/sdk/IoT_LINK/iot_link/os/liteos/base/core\los_task.c **** 
1160:C:/Users/²Ü¼ÒºÀ/.iotlink/sdk/IoT_LINK/iot_link/os/liteos/base/core\los_task.c ****     (VOID)LOS_IntRestore(uvIntSave);
1161:C:/Users/²Ü¼ÒºÀ/.iotlink/sdk/IoT_LINK/iot_link/os/liteos/base/core\los_task.c ****     return LOS_OK;
1162:C:/Users/²Ü¼ÒºÀ/.iotlink/sdk/IoT_LINK/iot_link/os/liteos/base/core\los_task.c **** 
1163:C:/Users/²Ü¼ÒºÀ/.iotlink/sdk/IoT_LINK/iot_link/os/liteos/base/core\los_task.c **** LOS_ERREND:
1164:C:/Users/²Ü¼ÒºÀ/.iotlink/sdk/IoT_LINK/iot_link/os/liteos/base/core\los_task.c ****     (VOID)LOS_IntRestore(uvIntSave);
 2778              		.loc 2 1164 5 view .LVU854
 2779 004e 4046     		mov	r0, r8
 2780 0050 FFF7FEFF 		bl	LOS_IntRestore
 2781              	.LVL212:
1165:C:/Users/²Ü¼ÒºÀ/.iotlink/sdk/IoT_LINK/iot_link/os/liteos/base/core\los_task.c ****     return uwErrRet;
 2782              		.loc 2 1165 5 view .LVU855
 2783              		.loc 2 1165 12 is_stmt 0 view .LVU856
 2784 0054 3C48     		ldr	r0, .L206+20
 2785              	.LVL213:
 2786              	.L182:
 2787              		.loc 2 1165 12 view .LVU857
 2788              	.LBE143:
 2789              	.LBE142:
1166:C:/Users/²Ü¼ÒºÀ/.iotlink/sdk/IoT_LINK/iot_link/os/liteos/base/core\los_task.c **** #else
1167:C:/Users/²Ü¼ÒºÀ/.iotlink/sdk/IoT_LINK/iot_link/os/liteos/base/core\los_task.c ****     (VOID)LOS_TaskSuspend(uwTaskID);
1168:C:/Users/²Ü¼ÒºÀ/.iotlink/sdk/IoT_LINK/iot_link/os/liteos/base/core\los_task.c ****     return LOS_NOK;
1169:C:/Users/²Ü¼ÒºÀ/.iotlink/sdk/IoT_LINK/iot_link/os/liteos/base/core\los_task.c **** #endif
1170:C:/Users/²Ü¼ÒºÀ/.iotlink/sdk/IoT_LINK/iot_link/os/liteos/base/core\los_task.c **** }
 2790              		.loc 2 1170 1 view .LVU858
 2791 0056 BDE8F88F 		pop	{r3, r4, r5, r6, r7, r8, r9, r10, fp, pc}
 2792              	.LVL214:
 2793              	.L185:
 2794              	.LBB154:
 2795              	.LBB152:
1106:C:/Users/²Ü¼ÒºÀ/.iotlink/sdk/IoT_LINK/iot_link/os/liteos/base/core\los_task.c ****     }
 2796              		.loc 2 1106 9 is_stmt 1 view .LVU859
1110:C:/Users/²Ü¼ÒºÀ/.iotlink/sdk/IoT_LINK/iot_link/os/liteos/base/core\los_task.c ****     {
 2797              		.loc 2 1110 5 view .LVU860
1110:C:/Users/²Ü¼ÒºÀ/.iotlink/sdk/IoT_LINK/iot_link/os/liteos/base/core\los_task.c ****     {
 2798              		.loc 2 1110 8 is_stmt 0 view .LVU861
 2799 005a E906     		lsls	r1, r5, #27
 2800 005c 03D5     		bpl	.L186
1110:C:/Users/²Ü¼ÒºÀ/.iotlink/sdk/IoT_LINK/iot_link/os/liteos/base/core\los_task.c ****     {
ARM GAS  C:\Users\²Ü¼ÒºÀ\AppData\Local\Temp\ccOngKk7.s 			page 85


 2801              		.loc 2 1110 69 view .LVU862
 2802 005e 384B     		ldr	r3, .L206+12
1110:C:/Users/²Ü¼ÒºÀ/.iotlink/sdk/IoT_LINK/iot_link/os/liteos/base/core\los_task.c ****     {
 2803              		.loc 2 1110 49 view .LVU863
 2804 0060 1988     		ldrh	r1, [r3]
 2805 0062 01B1     		cbz	r1, .L186
1112:C:/Users/²Ü¼ÒºÀ/.iotlink/sdk/IoT_LINK/iot_link/os/liteos/base/core\los_task.c ****         g_usLosTaskLock = 0;
 2806              		.loc 2 1112 79 is_stmt 1 view .LVU864
1113:C:/Users/²Ü¼ÒºÀ/.iotlink/sdk/IoT_LINK/iot_link/os/liteos/base/core\los_task.c ****     }
 2807              		.loc 2 1113 9 view .LVU865
1113:C:/Users/²Ü¼ÒºÀ/.iotlink/sdk/IoT_LINK/iot_link/os/liteos/base/core\los_task.c ****     }
 2808              		.loc 2 1113 25 is_stmt 0 view .LVU866
 2809 0064 1A80     		strh	r2, [r3]	@ movhi
 2810              	.L186:
1116:C:/Users/²Ü¼ÒºÀ/.iotlink/sdk/IoT_LINK/iot_link/os/liteos/base/core\los_task.c ****     {
 2811              		.loc 2 1116 5 is_stmt 1 view .LVU867
1116:C:/Users/²Ü¼ÒºÀ/.iotlink/sdk/IoT_LINK/iot_link/os/liteos/base/core\los_task.c ****     {
 2812              		.loc 2 1116 8 is_stmt 0 view .LVU868
 2813 0066 6B07     		lsls	r3, r5, #29
 2814 0068 04F12807 		add	r7, r4, #40
 2815 006c 40D5     		bpl	.L187
1118:C:/Users/²Ü¼ÒºÀ/.iotlink/sdk/IoT_LINK/iot_link/os/liteos/base/core\los_task.c ****         pstTaskCB->usTaskStatus &= (~OS_TASK_STATUS_READY);
 2816              		.loc 2 1118 9 is_stmt 1 view .LVU869
 2817 006e 3846     		mov	r0, r7
 2818 0070 FFF7FEFF 		bl	osPriqueueDequeue
 2819              	.LVL215:
1119:C:/Users/²Ü¼ÒºÀ/.iotlink/sdk/IoT_LINK/iot_link/os/liteos/base/core\los_task.c ****     }
 2820              		.loc 2 1119 9 view .LVU870
1119:C:/Users/²Ü¼ÒºÀ/.iotlink/sdk/IoT_LINK/iot_link/os/liteos/base/core\los_task.c ****     }
 2821              		.loc 2 1119 33 is_stmt 0 view .LVU871
 2822 0074 A388     		ldrh	r3, [r4, #4]
 2823 0076 23F00403 		bic	r3, r3, #4
 2824 007a A380     		strh	r3, [r4, #4]	@ movhi
 2825              	.L188:
1126:C:/Users/²Ü¼ÒºÀ/.iotlink/sdk/IoT_LINK/iot_link/os/liteos/base/core\los_task.c ****     {
 2826              		.loc 2 1126 5 is_stmt 1 view .LVU872
1126:C:/Users/²Ü¼ÒºÀ/.iotlink/sdk/IoT_LINK/iot_link/os/liteos/base/core\los_task.c ****     {
 2827              		.loc 2 1126 8 is_stmt 0 view .LVU873
 2828 007c 15F0600F 		tst	r5, #96
 2829 0080 02D0     		beq	.L189
1128:C:/Users/²Ü¼ÒºÀ/.iotlink/sdk/IoT_LINK/iot_link/os/liteos/base/core\los_task.c ****     }
 2830              		.loc 2 1128 9 is_stmt 1 view .LVU874
 2831 0082 2046     		mov	r0, r4
 2832 0084 FFF7FEFF 		bl	osTimerListDelete
 2833              	.LVL216:
 2834              	.L189:
1131:C:/Users/²Ü¼ÒºÀ/.iotlink/sdk/IoT_LINK/iot_link/os/liteos/base/core\los_task.c ****     pstTaskCB->usTaskStatus |= OS_TASK_STATUS_UNUSED;
 2835              		.loc 2 1131 5 view .LVU875
1132:C:/Users/²Ü¼ÒºÀ/.iotlink/sdk/IoT_LINK/iot_link/os/liteos/base/core\los_task.c ****     pstTaskCB->uwEvent.uwEventID = 0xFFFFFFFF;
 2836              		.loc 2 1132 5 view .LVU876
1131:C:/Users/²Ü¼ÒºÀ/.iotlink/sdk/IoT_LINK/iot_link/os/liteos/base/core\los_task.c ****     pstTaskCB->usTaskStatus |= OS_TASK_STATUS_UNUSED;
 2837              		.loc 2 1131 29 is_stmt 0 view .LVU877
 2838 0088 A388     		ldrh	r3, [r4, #4]
 2839 008a 23F00203 		bic	r3, r3, #2
1132:C:/Users/²Ü¼ÒºÀ/.iotlink/sdk/IoT_LINK/iot_link/os/liteos/base/core\los_task.c ****     pstTaskCB->uwEvent.uwEventID = 0xFFFFFFFF;
 2840              		.loc 2 1132 29 view .LVU878
 2841 008e 43F00103 		orr	r3, r3, #1
ARM GAS  C:\Users\²Ü¼ÒºÀ\AppData\Local\Temp\ccOngKk7.s 			page 86


 2842 0092 A380     		strh	r3, [r4, #4]	@ movhi
1133:C:/Users/²Ü¼ÒºÀ/.iotlink/sdk/IoT_LINK/iot_link/os/liteos/base/core\los_task.c ****     pstTaskCB->uwEventMask = 0;
 2843              		.loc 2 1133 5 is_stmt 1 view .LVU879
1134:C:/Users/²Ü¼ÒºÀ/.iotlink/sdk/IoT_LINK/iot_link/os/liteos/base/core\los_task.c **** #if (LOSCFG_BASE_CORE_CPUP == YES)
 2844              		.loc 2 1134 28 is_stmt 0 view .LVU880
 2845 0094 4FF00009 		mov	r9, #0
1133:C:/Users/²Ü¼ÒºÀ/.iotlink/sdk/IoT_LINK/iot_link/os/liteos/base/core\los_task.c ****     pstTaskCB->uwEventMask = 0;
 2846              		.loc 2 1133 34 view .LVU881
 2847 0098 4FF0FF33 		mov	r3, #-1
 2848 009c E363     		str	r3, [r4, #60]
1134:C:/Users/²Ü¼ÒºÀ/.iotlink/sdk/IoT_LINK/iot_link/os/liteos/base/core\los_task.c **** #if (LOSCFG_BASE_CORE_CPUP == YES)
 2849              		.loc 2 1134 5 is_stmt 1 view .LVU882
1134:C:/Users/²Ü¼ÒºÀ/.iotlink/sdk/IoT_LINK/iot_link/os/liteos/base/core\los_task.c **** #if (LOSCFG_BASE_CORE_CPUP == YES)
 2850              		.loc 2 1134 28 is_stmt 0 view .LVU883
 2851 009e C4F84890 		str	r9, [r4, #72]
1138:C:/Users/²Ü¼ÒºÀ/.iotlink/sdk/IoT_LINK/iot_link/os/liteos/base/core\los_task.c ****     if (OS_TASK_STATUS_RUNNING & pstTaskCB->usTaskStatus)
 2852              		.loc 2 1138 5 is_stmt 1 view .LVU884
1138:C:/Users/²Ü¼ÒºÀ/.iotlink/sdk/IoT_LINK/iot_link/os/liteos/base/core\los_task.c ****     if (OS_TASK_STATUS_RUNNING & pstTaskCB->usTaskStatus)
 2853              		.loc 2 1138 30 is_stmt 0 view .LVU885
 2854 00a2 FFF7FEFF 		bl	osPriqueueTop
 2855              	.LVL217:
1139:C:/Users/²Ü¼ÒºÀ/.iotlink/sdk/IoT_LINK/iot_link/os/liteos/base/core\los_task.c ****     {
 2856              		.loc 2 1139 43 view .LVU886
 2857 00a6 A288     		ldrh	r2, [r4, #4]
1138:C:/Users/²Ü¼ÒºÀ/.iotlink/sdk/IoT_LINK/iot_link/os/liteos/base/core\los_task.c ****     if (OS_TASK_STATUS_RUNNING & pstTaskCB->usTaskStatus)
 2858              		.loc 2 1138 28 view .LVU887
 2859 00a8 2849     		ldr	r1, .L206+24
1138:C:/Users/²Ü¼ÒºÀ/.iotlink/sdk/IoT_LINK/iot_link/os/liteos/base/core\los_task.c ****     if (OS_TASK_STATUS_RUNNING & pstTaskCB->usTaskStatus)
 2860              		.loc 2 1138 30 view .LVU888
 2861 00aa 2838     		subs	r0, r0, #40
1139:C:/Users/²Ü¼ÒºÀ/.iotlink/sdk/IoT_LINK/iot_link/os/liteos/base/core\los_task.c ****     {
 2862              		.loc 2 1139 8 view .LVU889
 2863 00ac 12F01005 		ands	r5, r2, #16
 2864              	.LVL218:
1138:C:/Users/²Ü¼ÒºÀ/.iotlink/sdk/IoT_LINK/iot_link/os/liteos/base/core\los_task.c ****     if (OS_TASK_STATUS_RUNNING & pstTaskCB->usTaskStatus)
 2865              		.loc 2 1138 28 view .LVU890
 2866 00b0 4860     		str	r0, [r1, #4]
1139:C:/Users/²Ü¼ÒºÀ/.iotlink/sdk/IoT_LINK/iot_link/os/liteos/base/core\los_task.c ****     {
 2867              		.loc 2 1139 5 is_stmt 1 view .LVU891
1139:C:/Users/²Ü¼ÒºÀ/.iotlink/sdk/IoT_LINK/iot_link/os/liteos/base/core\los_task.c ****     {
 2868              		.loc 2 1139 8 is_stmt 0 view .LVU892
 2869 00b2 25D0     		beq	.L190
1141:C:/Users/²Ü¼ÒºÀ/.iotlink/sdk/IoT_LINK/iot_link/os/liteos/base/core\los_task.c ****         g_stLosTask.pstRunTask = &g_pstTaskCBArray[g_uwTskMaxNum];
 2870              		.loc 2 1141 9 is_stmt 1 view .LVU893
 2871 00b4 264B     		ldr	r3, .L206+28
 2872 00b6 1B68     		ldr	r3, [r3]
 2873              	.LVL219:
 2874              	.LBB144:
 2875              	.LBI144:
 157:C:/Users/²Ü¼ÒºÀ/.iotlink/sdk/IoT_LINK/iot_link/os/liteos/include\los_list.h **** {
 2876              		.loc 1 157 43 view .LVU894
 157:C:/Users/²Ü¼ÒºÀ/.iotlink/sdk/IoT_LINK/iot_link/os/liteos/include\los_list.h **** {
 2877              		.loc 1 157 43 is_stmt 0 view .LVU895
 2878              	.LBE144:
 2879              	.LBE152:
 2880              	.LBE154:
 159:C:/Users/²Ü¼ÒºÀ/.iotlink/sdk/IoT_LINK/iot_link/os/liteos/include\los_list.h **** }
ARM GAS  C:\Users\²Ü¼ÒºÀ\AppData\Local\Temp\ccOngKk7.s 			page 87


 2881              		.loc 1 159 5 is_stmt 1 view .LVU896
 2882              	.LBB155:
 2883              	.LBB153:
 2884              	.LBB147:
 2885              	.LBB145:
 2886              	.LBI145:
 129:C:/Users/²Ü¼ÒºÀ/.iotlink/sdk/IoT_LINK/iot_link/os/liteos/include\los_list.h **** {
 2887              		.loc 1 129 43 view .LVU897
 2888              	.LBB146:
 131:C:/Users/²Ü¼ÒºÀ/.iotlink/sdk/IoT_LINK/iot_link/os/liteos/include\los_list.h ****     pstNode->pstPrev = pstList;
 2889              		.loc 1 131 5 view .LVU898
 131:C:/Users/²Ü¼ÒºÀ/.iotlink/sdk/IoT_LINK/iot_link/os/liteos/include\los_list.h ****     pstNode->pstPrev = pstList;
 2890              		.loc 1 131 31 is_stmt 0 view .LVU899
 2891 00b8 5868     		ldr	r0, [r3, #4]
 132:C:/Users/²Ü¼ÒºÀ/.iotlink/sdk/IoT_LINK/iot_link/os/liteos/include\los_list.h ****     pstList->pstNext->pstPrev = pstNode;
 2892              		.loc 1 132 22 view .LVU900
 2893 00ba C4E90A30 		strd	r3, r0, [r4, #40]
 133:C:/Users/²Ü¼ÒºÀ/.iotlink/sdk/IoT_LINK/iot_link/os/liteos/include\los_list.h ****     pstList->pstNext = pstNode;
 2894              		.loc 1 133 5 is_stmt 1 view .LVU901
 133:C:/Users/²Ü¼ÒºÀ/.iotlink/sdk/IoT_LINK/iot_link/os/liteos/include\los_list.h ****     pstList->pstNext = pstNode;
 2895              		.loc 1 133 31 is_stmt 0 view .LVU902
 2896 00be 0760     		str	r7, [r0]
 134:C:/Users/²Ü¼ÒºÀ/.iotlink/sdk/IoT_LINK/iot_link/os/liteos/include\los_list.h **** }
 2897              		.loc 1 134 5 is_stmt 1 view .LVU903
 134:C:/Users/²Ü¼ÒºÀ/.iotlink/sdk/IoT_LINK/iot_link/os/liteos/include\los_list.h **** }
 2898              		.loc 1 134 22 is_stmt 0 view .LVU904
 2899 00c0 5F60     		str	r7, [r3, #4]
 2900              	.LVL220:
 134:C:/Users/²Ü¼ÒºÀ/.iotlink/sdk/IoT_LINK/iot_link/os/liteos/include\los_list.h **** }
 2901              		.loc 1 134 22 view .LVU905
 2902              	.LBE146:
 2903              	.LBE145:
 2904              	.LBE147:
1142:C:/Users/²Ü¼ÒºÀ/.iotlink/sdk/IoT_LINK/iot_link/os/liteos/base/core\los_task.c ****         g_stLosTask.pstRunTask->uwTaskID = uwTaskID;
 2905              		.loc 2 1142 9 is_stmt 1 view .LVU906
1142:C:/Users/²Ü¼ÒºÀ/.iotlink/sdk/IoT_LINK/iot_link/os/liteos/base/core\los_task.c ****         g_stLosTask.pstRunTask->uwTaskID = uwTaskID;
 2906              		.loc 2 1142 34 is_stmt 0 view .LVU907
 2907 00c2 DAF80000 		ldr	r0, [r10]
1142:C:/Users/²Ü¼ÒºÀ/.iotlink/sdk/IoT_LINK/iot_link/os/liteos/base/core\los_task.c ****         g_stLosTask.pstRunTask->uwTaskID = uwTaskID;
 2908              		.loc 2 1142 51 view .LVU908
 2909 00c6 DBF80030 		ldr	r3, [fp]
1142:C:/Users/²Ü¼ÒºÀ/.iotlink/sdk/IoT_LINK/iot_link/os/liteos/base/core\los_task.c ****         g_stLosTask.pstRunTask->uwTaskID = uwTaskID;
 2910              		.loc 2 1142 34 view .LVU909
 2911 00ca 5425     		movs	r5, #84
 2912 00cc 05FB0303 		mla	r3, r5, r3, r0
1142:C:/Users/²Ü¼ÒºÀ/.iotlink/sdk/IoT_LINK/iot_link/os/liteos/base/core\los_task.c ****         g_stLosTask.pstRunTask->uwTaskID = uwTaskID;
 2913              		.loc 2 1142 32 view .LVU910
 2914 00d0 0B60     		str	r3, [r1]
1143:C:/Users/²Ü¼ÒºÀ/.iotlink/sdk/IoT_LINK/iot_link/os/liteos/base/core\los_task.c ****         g_stLosTask.pstRunTask->usTaskStatus = pstTaskCB->usTaskStatus;
 2915              		.loc 2 1143 9 is_stmt 1 view .LVU911
1144:C:/Users/²Ü¼ÒºÀ/.iotlink/sdk/IoT_LINK/iot_link/os/liteos/base/core\los_task.c ****         g_stLosTask.pstRunTask->uwTopOfStack = pstTaskCB->uwTopOfStack;
 2916              		.loc 2 1144 46 is_stmt 0 view .LVU912
 2917 00d2 9A80     		strh	r2, [r3, #4]	@ movhi
1145:C:/Users/²Ü¼ÒºÀ/.iotlink/sdk/IoT_LINK/iot_link/os/liteos/base/core\los_task.c ****         g_stLosTask.pstRunTask->pcTaskName = pstTaskCB->pcTaskName;
 2918              		.loc 2 1145 57 view .LVU913
 2919 00d4 E268     		ldr	r2, [r4, #12]
1145:C:/Users/²Ü¼ÒºÀ/.iotlink/sdk/IoT_LINK/iot_link/os/liteos/base/core\los_task.c ****         g_stLosTask.pstRunTask->pcTaskName = pstTaskCB->pcTaskName;
ARM GAS  C:\Users\²Ü¼ÒºÀ\AppData\Local\Temp\ccOngKk7.s 			page 88


 2920              		.loc 2 1145 46 view .LVU914
 2921 00d6 DA60     		str	r2, [r3, #12]
1146:C:/Users/²Ü¼ÒºÀ/.iotlink/sdk/IoT_LINK/iot_link/os/liteos/base/core\los_task.c ****         pstTaskCB->usTaskStatus = OS_TASK_STATUS_UNUSED;
 2922              		.loc 2 1146 55 view .LVU915
 2923 00d8 626A     		ldr	r2, [r4, #36]
1146:C:/Users/²Ü¼ÒºÀ/.iotlink/sdk/IoT_LINK/iot_link/os/liteos/base/core\los_task.c ****         pstTaskCB->usTaskStatus = OS_TASK_STATUS_UNUSED;
 2924              		.loc 2 1146 44 view .LVU916
 2925 00da 5A62     		str	r2, [r3, #36]
1143:C:/Users/²Ü¼ÒºÀ/.iotlink/sdk/IoT_LINK/iot_link/os/liteos/base/core\los_task.c ****         g_stLosTask.pstRunTask->usTaskStatus = pstTaskCB->usTaskStatus;
 2926              		.loc 2 1143 42 view .LVU917
 2927 00dc 1E61     		str	r6, [r3, #16]
1144:C:/Users/²Ü¼ÒºÀ/.iotlink/sdk/IoT_LINK/iot_link/os/liteos/base/core\los_task.c ****         g_stLosTask.pstRunTask->uwTopOfStack = pstTaskCB->uwTopOfStack;
 2928              		.loc 2 1144 9 is_stmt 1 view .LVU918
1145:C:/Users/²Ü¼ÒºÀ/.iotlink/sdk/IoT_LINK/iot_link/os/liteos/base/core\los_task.c ****         g_stLosTask.pstRunTask->pcTaskName = pstTaskCB->pcTaskName;
 2929              		.loc 2 1145 9 view .LVU919
1146:C:/Users/²Ü¼ÒºÀ/.iotlink/sdk/IoT_LINK/iot_link/os/liteos/base/core\los_task.c ****         pstTaskCB->usTaskStatus = OS_TASK_STATUS_UNUSED;
 2930              		.loc 2 1146 9 view .LVU920
1147:C:/Users/²Ü¼ÒºÀ/.iotlink/sdk/IoT_LINK/iot_link/os/liteos/base/core\los_task.c ****         (VOID)LOS_IntRestore(uvIntSave);
 2931              		.loc 2 1147 9 view .LVU921
1147:C:/Users/²Ü¼ÒºÀ/.iotlink/sdk/IoT_LINK/iot_link/os/liteos/base/core\los_task.c ****         (VOID)LOS_IntRestore(uvIntSave);
 2932              		.loc 2 1147 33 is_stmt 0 view .LVU922
 2933 00de 0123     		movs	r3, #1
1148:C:/Users/²Ü¼ÒºÀ/.iotlink/sdk/IoT_LINK/iot_link/os/liteos/base/core\los_task.c ****         osSchedule();
 2934              		.loc 2 1148 9 view .LVU923
 2935 00e0 4046     		mov	r0, r8
1147:C:/Users/²Ü¼ÒºÀ/.iotlink/sdk/IoT_LINK/iot_link/os/liteos/base/core\los_task.c ****         (VOID)LOS_IntRestore(uvIntSave);
 2936              		.loc 2 1147 33 view .LVU924
 2937 00e2 A380     		strh	r3, [r4, #4]	@ movhi
1148:C:/Users/²Ü¼ÒºÀ/.iotlink/sdk/IoT_LINK/iot_link/os/liteos/base/core\los_task.c ****         osSchedule();
 2938              		.loc 2 1148 9 is_stmt 1 view .LVU925
 2939 00e4 FFF7FEFF 		bl	LOS_IntRestore
 2940              	.LVL221:
1149:C:/Users/²Ü¼ÒºÀ/.iotlink/sdk/IoT_LINK/iot_link/os/liteos/base/core\los_task.c ****         return LOS_OK;
 2941              		.loc 2 1149 9 view .LVU926
 2942 00e8 FFF7FEFF 		bl	osSchedule
 2943              	.LVL222:
1150:C:/Users/²Ü¼ÒºÀ/.iotlink/sdk/IoT_LINK/iot_link/os/liteos/base/core\los_task.c ****     }
 2944              		.loc 2 1150 9 view .LVU927
1150:C:/Users/²Ü¼ÒºÀ/.iotlink/sdk/IoT_LINK/iot_link/os/liteos/base/core\los_task.c ****     }
 2945              		.loc 2 1150 16 is_stmt 0 view .LVU928
 2946 00ec 4846     		mov	r0, r9
 2947 00ee B2E7     		b	.L182
 2948              	.LVL223:
 2949              	.L187:
1121:C:/Users/²Ü¼ÒºÀ/.iotlink/sdk/IoT_LINK/iot_link/os/liteos/base/core\los_task.c ****     {
 2950              		.loc 2 1121 10 is_stmt 1 view .LVU929
1121:C:/Users/²Ü¼ÒºÀ/.iotlink/sdk/IoT_LINK/iot_link/os/liteos/base/core\los_task.c ****     {
 2951              		.loc 2 1121 13 is_stmt 0 view .LVU930
 2952 00f0 42F20803 		movw	r3, #8200
 2953 00f4 1D42     		tst	r5, r3
 2954 00f6 C1D0     		beq	.L188
1123:C:/Users/²Ü¼ÒºÀ/.iotlink/sdk/IoT_LINK/iot_link/os/liteos/base/core\los_task.c ****     }
 2955              		.loc 2 1123 9 is_stmt 1 view .LVU931
 2956 00f8 3846     		mov	r0, r7
 2957 00fa FFF7FEFF 		bl	LOS_ListDelete
 2958              	.LVL224:
 2959 00fe BDE7     		b	.L188
ARM GAS  C:\Users\²Ü¼ÒºÀ\AppData\Local\Temp\ccOngKk7.s 			page 89


 2960              	.LVL225:
 2961              	.L190:
1154:C:/Users/²Ü¼ÒºÀ/.iotlink/sdk/IoT_LINK/iot_link/os/liteos/base/core\los_task.c ****         LOS_ListAdd(&g_stLosFreeTask, &pstTaskCB->stPendList);
 2962              		.loc 2 1154 9 view .LVU932
1154:C:/Users/²Ü¼ÒºÀ/.iotlink/sdk/IoT_LINK/iot_link/os/liteos/base/core\los_task.c ****         LOS_ListAdd(&g_stLosFreeTask, &pstTaskCB->stPendList);
 2963              		.loc 2 1154 33 is_stmt 0 view .LVU933
 2964 0100 0123     		movs	r3, #1
 2965 0102 A380     		strh	r3, [r4, #4]	@ movhi
1155:C:/Users/²Ü¼ÒºÀ/.iotlink/sdk/IoT_LINK/iot_link/os/liteos/base/core\los_task.c ****         (VOID)LOS_MemFree(OS_TASK_STACK_ADDR, (VOID *)pstTaskCB->uwTopOfStack);
 2966              		.loc 2 1155 9 is_stmt 1 view .LVU934
 2967              	.LVL226:
 2968              	.LBB148:
 2969              	.LBI148:
 129:C:/Users/²Ü¼ÒºÀ/.iotlink/sdk/IoT_LINK/iot_link/os/liteos/include\los_list.h **** {
 2970              		.loc 1 129 43 view .LVU935
 2971              	.LBB149:
 131:C:/Users/²Ü¼ÒºÀ/.iotlink/sdk/IoT_LINK/iot_link/os/liteos/include\los_list.h ****     pstNode->pstPrev = pstList;
 2972              		.loc 1 131 5 view .LVU936
 131:C:/Users/²Ü¼ÒºÀ/.iotlink/sdk/IoT_LINK/iot_link/os/liteos/include\los_list.h ****     pstNode->pstPrev = pstList;
 2973              		.loc 1 131 31 is_stmt 0 view .LVU937
 2974 0104 134B     		ldr	r3, .L206+32
 2975              	.LBE149:
 2976              	.LBE148:
1156:C:/Users/²Ü¼ÒºÀ/.iotlink/sdk/IoT_LINK/iot_link/os/liteos/base/core\los_task.c ****         pstTaskCB->uwTopOfStack = (UINT32)NULL;
 2977              		.loc 2 1156 15 view .LVU938
 2978 0106 E168     		ldr	r1, [r4, #12]
 2979              	.LBB151:
 2980              	.LBB150:
 131:C:/Users/²Ü¼ÒºÀ/.iotlink/sdk/IoT_LINK/iot_link/os/liteos/include\los_list.h ****     pstNode->pstPrev = pstList;
 2981              		.loc 1 131 31 view .LVU939
 2982 0108 5A68     		ldr	r2, [r3, #4]
 132:C:/Users/²Ü¼ÒºÀ/.iotlink/sdk/IoT_LINK/iot_link/os/liteos/include\los_list.h ****     pstList->pstNext->pstPrev = pstNode;
 2983              		.loc 1 132 22 view .LVU940
 2984 010a C4E90A32 		strd	r3, r2, [r4, #40]
 133:C:/Users/²Ü¼ÒºÀ/.iotlink/sdk/IoT_LINK/iot_link/os/liteos/include\los_list.h ****     pstList->pstNext = pstNode;
 2985              		.loc 1 133 5 is_stmt 1 view .LVU941
 133:C:/Users/²Ü¼ÒºÀ/.iotlink/sdk/IoT_LINK/iot_link/os/liteos/include\los_list.h ****     pstList->pstNext = pstNode;
 2986              		.loc 1 133 31 is_stmt 0 view .LVU942
 2987 010e 1760     		str	r7, [r2]
 134:C:/Users/²Ü¼ÒºÀ/.iotlink/sdk/IoT_LINK/iot_link/os/liteos/include\los_list.h **** }
 2988              		.loc 1 134 5 is_stmt 1 view .LVU943
 134:C:/Users/²Ü¼ÒºÀ/.iotlink/sdk/IoT_LINK/iot_link/os/liteos/include\los_list.h **** }
 2989              		.loc 1 134 22 is_stmt 0 view .LVU944
 2990 0110 5F60     		str	r7, [r3, #4]
 2991              	.LVL227:
 134:C:/Users/²Ü¼ÒºÀ/.iotlink/sdk/IoT_LINK/iot_link/os/liteos/include\los_list.h **** }
 2992              		.loc 1 134 22 view .LVU945
 2993              	.LBE150:
 2994              	.LBE151:
1156:C:/Users/²Ü¼ÒºÀ/.iotlink/sdk/IoT_LINK/iot_link/os/liteos/base/core\los_task.c ****         pstTaskCB->uwTopOfStack = (UINT32)NULL;
 2995              		.loc 2 1156 9 is_stmt 1 view .LVU946
1156:C:/Users/²Ü¼ÒºÀ/.iotlink/sdk/IoT_LINK/iot_link/os/liteos/base/core\los_task.c ****         pstTaskCB->uwTopOfStack = (UINT32)NULL;
 2996              		.loc 2 1156 15 is_stmt 0 view .LVU947
 2997 0112 114B     		ldr	r3, .L206+36
 2998 0114 1868     		ldr	r0, [r3]
 2999 0116 FFF7FEFF 		bl	LOS_MemFree
 3000              	.LVL228:
ARM GAS  C:\Users\²Ü¼ÒºÀ\AppData\Local\Temp\ccOngKk7.s 			page 90


1157:C:/Users/²Ü¼ÒºÀ/.iotlink/sdk/IoT_LINK/iot_link/os/liteos/base/core\los_task.c ****     }
 3001              		.loc 2 1157 9 is_stmt 1 view .LVU948
1160:C:/Users/²Ü¼ÒºÀ/.iotlink/sdk/IoT_LINK/iot_link/os/liteos/base/core\los_task.c ****     return LOS_OK;
 3002              		.loc 2 1160 5 is_stmt 0 view .LVU949
 3003 011a 4046     		mov	r0, r8
1157:C:/Users/²Ü¼ÒºÀ/.iotlink/sdk/IoT_LINK/iot_link/os/liteos/base/core\los_task.c ****     }
 3004              		.loc 2 1157 33 view .LVU950
 3005 011c E560     		str	r5, [r4, #12]
1160:C:/Users/²Ü¼ÒºÀ/.iotlink/sdk/IoT_LINK/iot_link/os/liteos/base/core\los_task.c ****     return LOS_OK;
 3006              		.loc 2 1160 5 is_stmt 1 view .LVU951
 3007 011e FFF7FEFF 		bl	LOS_IntRestore
 3008              	.LVL229:
1161:C:/Users/²Ü¼ÒºÀ/.iotlink/sdk/IoT_LINK/iot_link/os/liteos/base/core\los_task.c **** 
 3009              		.loc 2 1161 5 view .LVU952
1161:C:/Users/²Ü¼ÒºÀ/.iotlink/sdk/IoT_LINK/iot_link/os/liteos/base/core\los_task.c **** 
 3010              		.loc 2 1161 12 is_stmt 0 view .LVU953
 3011 0122 2846     		mov	r0, r5
 3012 0124 97E7     		b	.L182
 3013              	.LVL230:
 3014              	.L191:
1161:C:/Users/²Ü¼ÒºÀ/.iotlink/sdk/IoT_LINK/iot_link/os/liteos/base/core\los_task.c **** 
 3015              		.loc 2 1161 12 view .LVU954
 3016              	.LBE153:
 3017              	.LBE155:
1089:C:/Users/²Ü¼ÒºÀ/.iotlink/sdk/IoT_LINK/iot_link/os/liteos/base/core\los_task.c ****     uvIntSave = LOS_IntLock();
 3018              		.loc 2 1089 5 view .LVU955
 3019 0126 0D48     		ldr	r0, .L206+40
 3020              	.LVL231:
1089:C:/Users/²Ü¼ÒºÀ/.iotlink/sdk/IoT_LINK/iot_link/os/liteos/base/core\los_task.c ****     uvIntSave = LOS_IntLock();
 3021              		.loc 2 1089 5 view .LVU956
 3022 0128 95E7     		b	.L182
 3023              	.LVL232:
 3024              	.L192:
1089:C:/Users/²Ü¼ÒºÀ/.iotlink/sdk/IoT_LINK/iot_link/os/liteos/base/core\los_task.c ****     uvIntSave = LOS_IntLock();
 3025              		.loc 2 1089 5 view .LVU957
 3026 012a 0D48     		ldr	r0, .L206+44
 3027              	.LVL233:
1089:C:/Users/²Ü¼ÒºÀ/.iotlink/sdk/IoT_LINK/iot_link/os/liteos/base/core\los_task.c ****     uvIntSave = LOS_IntLock();
 3028              		.loc 2 1089 5 view .LVU958
 3029 012c 93E7     		b	.L182
 3030              	.LVL234:
 3031              	.L193:
1089:C:/Users/²Ü¼ÒºÀ/.iotlink/sdk/IoT_LINK/iot_link/os/liteos/base/core\los_task.c ****     uvIntSave = LOS_IntLock();
 3032              		.loc 2 1089 5 view .LVU959
 3033 012e 0D48     		ldr	r0, .L206+48
 3034              	.LVL235:
1089:C:/Users/²Ü¼ÒºÀ/.iotlink/sdk/IoT_LINK/iot_link/os/liteos/base/core\los_task.c ****     uvIntSave = LOS_IntLock();
 3035              		.loc 2 1089 5 view .LVU960
 3036 0130 91E7     		b	.L182
 3037              	.L207:
 3038 0132 00BF     		.align	2
 3039              	.L206:
 3040 0134 00000000 		.word	g_uwIdleTaskID
 3041 0138 00000000 		.word	g_uwSwtmrTaskID
 3042 013c 00000000 		.word	g_uwTskMaxNum
 3043 0140 00000000 		.word	g_usLosTaskLock
 3044 0144 00000000 		.word	g_pstTaskCBArray
ARM GAS  C:\Users\²Ü¼ÒºÀ\AppData\Local\Temp\ccOngKk7.s 			page 91


 3045 0148 0A020002 		.word	33554954
 3046 014c 00000000 		.word	g_stLosTask
 3047 0150 00000000 		.word	g_stTskRecyleList
 3048 0154 00000000 		.word	g_stLosFreeTask
 3049 0158 00000000 		.word	m_aucSysMem0
 3050 015c 14020002 		.word	33554964
 3051 0160 21020002 		.word	33554977
 3052 0164 07020002 		.word	33554951
 3053              		.cfi_endproc
 3054              	.LFE307:
 3056              		.section	.text.osTaskEntry,"ax",%progbits
 3057              		.align	1
 3058              		.global	osTaskEntry
 3059              		.syntax unified
 3060              		.thumb
 3061              		.thumb_func
 3062              		.fpu fpv4-sp-d16
 3064              	osTaskEntry:
 3065              	.LVL236:
 3066              	.LFB302:
 728:C:/Users/²Ü¼ÒºÀ/.iotlink/sdk/IoT_LINK/iot_link/os/liteos/base/core\los_task.c ****     LOS_TASK_CB *pstTaskCB;
 3067              		.loc 2 728 1 is_stmt 1 view -0
 3068              		.cfi_startproc
 3069              		@ args = 0, pretend = 0, frame = 0
 3070              		@ frame_needed = 0, uses_anonymous_args = 0
 729:C:/Users/²Ü¼ÒºÀ/.iotlink/sdk/IoT_LINK/iot_link/os/liteos/base/core\los_task.c **** 
 3071              		.loc 2 729 5 view .LVU962
 731:C:/Users/²Ü¼ÒºÀ/.iotlink/sdk/IoT_LINK/iot_link/os/liteos/base/core\los_task.c **** 
 3072              		.loc 2 731 31 view .LVU963
 733:C:/Users/²Ü¼ÒºÀ/.iotlink/sdk/IoT_LINK/iot_link/os/liteos/base/core\los_task.c **** 
 3073              		.loc 2 733 5 view .LVU964
 733:C:/Users/²Ü¼ÒºÀ/.iotlink/sdk/IoT_LINK/iot_link/os/liteos/base/core\los_task.c **** 
 3074              		.loc 2 733 15 is_stmt 0 view .LVU965
 3075 0000 064B     		ldr	r3, .L209
 728:C:/Users/²Ü¼ÒºÀ/.iotlink/sdk/IoT_LINK/iot_link/os/liteos/base/core\los_task.c ****     LOS_TASK_CB *pstTaskCB;
 3076              		.loc 2 728 1 view .LVU966
 3077 0002 10B5     		push	{r4, lr}
 3078              	.LCFI33:
 3079              		.cfi_def_cfa_offset 8
 3080              		.cfi_offset 4, -8
 3081              		.cfi_offset 14, -4
 733:C:/Users/²Ü¼ÒºÀ/.iotlink/sdk/IoT_LINK/iot_link/os/liteos/base/core\los_task.c **** 
 3082              		.loc 2 733 15 view .LVU967
 3083 0004 1C68     		ldr	r4, [r3]
 3084 0006 5423     		movs	r3, #84
 3085 0008 03FB0044 		mla	r4, r3, r0, r4
 3086              	.LVL237:
 735:C:/Users/²Ü¼ÒºÀ/.iotlink/sdk/IoT_LINK/iot_link/os/liteos/base/core\los_task.c **** 
 3087              		.loc 2 735 5 is_stmt 1 view .LVU968
 735:C:/Users/²Ü¼ÒºÀ/.iotlink/sdk/IoT_LINK/iot_link/os/liteos/base/core\los_task.c **** 
 3088              		.loc 2 735 11 is_stmt 0 view .LVU969
 3089 000c 6369     		ldr	r3, [r4, #20]
 3090 000e 206A     		ldr	r0, [r4, #32]
 3091              	.LVL238:
 735:C:/Users/²Ü¼ÒºÀ/.iotlink/sdk/IoT_LINK/iot_link/os/liteos/base/core\los_task.c **** 
 3092              		.loc 2 735 11 view .LVU970
 3093 0010 9847     		blx	r3
ARM GAS  C:\Users\²Ü¼ÒºÀ\AppData\Local\Temp\ccOngKk7.s 			page 92


 3094              	.LVL239:
 737:C:/Users/²Ü¼ÒºÀ/.iotlink/sdk/IoT_LINK/iot_link/os/liteos/base/core\los_task.c **** }
 3095              		.loc 2 737 5 is_stmt 1 view .LVU971
 737:C:/Users/²Ü¼ÒºÀ/.iotlink/sdk/IoT_LINK/iot_link/os/liteos/base/core\los_task.c **** }
 3096              		.loc 2 737 11 is_stmt 0 view .LVU972
 3097 0012 2069     		ldr	r0, [r4, #16]
 738:C:/Users/²Ü¼ÒºÀ/.iotlink/sdk/IoT_LINK/iot_link/os/liteos/base/core\los_task.c **** 
 3098              		.loc 2 738 1 view .LVU973
 3099 0014 BDE81040 		pop	{r4, lr}
 3100              	.LCFI34:
 3101              		.cfi_restore 14
 3102              		.cfi_restore 4
 3103              		.cfi_def_cfa_offset 0
 3104              	.LVL240:
 737:C:/Users/²Ü¼ÒºÀ/.iotlink/sdk/IoT_LINK/iot_link/os/liteos/base/core\los_task.c **** }
 3105              		.loc 2 737 11 view .LVU974
 3106 0018 FFF7FEBF 		b	LOS_TaskDelete
 3107              	.LVL241:
 3108              	.L210:
 3109              		.align	2
 3110              	.L209:
 3111 001c 00000000 		.word	g_pstTaskCBArray
 3112              		.cfi_endproc
 3113              	.LFE302:
 3115              		.section	.text.LOS_TaskPriGet,"ax",%progbits
 3116              		.align	1
 3117              		.global	LOS_TaskPriGet
 3118              		.syntax unified
 3119              		.thumb
 3120              		.thumb_func
 3121              		.fpu fpv4-sp-d16
 3123              	LOS_TaskPriGet:
 3124              	.LVL242:
 3125              	.LFB309:
1171:C:/Users/²Ü¼ÒºÀ/.iotlink/sdk/IoT_LINK/iot_link/os/liteos/base/core\los_task.c **** 
1172:C:/Users/²Ü¼ÒºÀ/.iotlink/sdk/IoT_LINK/iot_link/os/liteos/base/core\los_task.c **** /*****************************************************************************
1173:C:/Users/²Ü¼ÒºÀ/.iotlink/sdk/IoT_LINK/iot_link/os/liteos/base/core\los_task.c ****  Function : LOS_TaskDelay
1174:C:/Users/²Ü¼ÒºÀ/.iotlink/sdk/IoT_LINK/iot_link/os/liteos/base/core\los_task.c ****  Description : delay the current task
1175:C:/Users/²Ü¼ÒºÀ/.iotlink/sdk/IoT_LINK/iot_link/os/liteos/base/core\los_task.c ****  Input       : uwTick    --- time
1176:C:/Users/²Ü¼ÒºÀ/.iotlink/sdk/IoT_LINK/iot_link/os/liteos/base/core\los_task.c ****  Output      :None
1177:C:/Users/²Ü¼ÒºÀ/.iotlink/sdk/IoT_LINK/iot_link/os/liteos/base/core\los_task.c ****  Return      : LOS_OK on success or error code on failure
1178:C:/Users/²Ü¼ÒºÀ/.iotlink/sdk/IoT_LINK/iot_link/os/liteos/base/core\los_task.c ****  *****************************************************************************/
1179:C:/Users/²Ü¼ÒºÀ/.iotlink/sdk/IoT_LINK/iot_link/os/liteos/base/core\los_task.c **** LITE_OS_SEC_TEXT UINT32 LOS_TaskDelay(UINT32 uwTick)
1180:C:/Users/²Ü¼ÒºÀ/.iotlink/sdk/IoT_LINK/iot_link/os/liteos/base/core\los_task.c **** {
1181:C:/Users/²Ü¼ÒºÀ/.iotlink/sdk/IoT_LINK/iot_link/os/liteos/base/core\los_task.c ****     UINTPTR uvIntSave;
1182:C:/Users/²Ü¼ÒºÀ/.iotlink/sdk/IoT_LINK/iot_link/os/liteos/base/core\los_task.c **** 
1183:C:/Users/²Ü¼ÒºÀ/.iotlink/sdk/IoT_LINK/iot_link/os/liteos/base/core\los_task.c ****     if (OS_INT_ACTIVE)
1184:C:/Users/²Ü¼ÒºÀ/.iotlink/sdk/IoT_LINK/iot_link/os/liteos/base/core\los_task.c ****     {
1185:C:/Users/²Ü¼ÒºÀ/.iotlink/sdk/IoT_LINK/iot_link/os/liteos/base/core\los_task.c ****         return LOS_ERRNO_TSK_DELAY_IN_INT;
1186:C:/Users/²Ü¼ÒºÀ/.iotlink/sdk/IoT_LINK/iot_link/os/liteos/base/core\los_task.c ****     }
1187:C:/Users/²Ü¼ÒºÀ/.iotlink/sdk/IoT_LINK/iot_link/os/liteos/base/core\los_task.c **** 
1188:C:/Users/²Ü¼ÒºÀ/.iotlink/sdk/IoT_LINK/iot_link/os/liteos/base/core\los_task.c ****     if (g_usLosTaskLock != 0)
1189:C:/Users/²Ü¼ÒºÀ/.iotlink/sdk/IoT_LINK/iot_link/os/liteos/base/core\los_task.c ****     {
1190:C:/Users/²Ü¼ÒºÀ/.iotlink/sdk/IoT_LINK/iot_link/os/liteos/base/core\los_task.c ****         return LOS_ERRNO_TSK_DELAY_IN_LOCK;
1191:C:/Users/²Ü¼ÒºÀ/.iotlink/sdk/IoT_LINK/iot_link/os/liteos/base/core\los_task.c ****     }
1192:C:/Users/²Ü¼ÒºÀ/.iotlink/sdk/IoT_LINK/iot_link/os/liteos/base/core\los_task.c **** 
1193:C:/Users/²Ü¼ÒºÀ/.iotlink/sdk/IoT_LINK/iot_link/os/liteos/base/core\los_task.c ****     if (uwTick == 0)
ARM GAS  C:\Users\²Ü¼ÒºÀ\AppData\Local\Temp\ccOngKk7.s 			page 93


1194:C:/Users/²Ü¼ÒºÀ/.iotlink/sdk/IoT_LINK/iot_link/os/liteos/base/core\los_task.c ****     {
1195:C:/Users/²Ü¼ÒºÀ/.iotlink/sdk/IoT_LINK/iot_link/os/liteos/base/core\los_task.c ****         return LOS_TaskYield();
1196:C:/Users/²Ü¼ÒºÀ/.iotlink/sdk/IoT_LINK/iot_link/os/liteos/base/core\los_task.c ****     }
1197:C:/Users/²Ü¼ÒºÀ/.iotlink/sdk/IoT_LINK/iot_link/os/liteos/base/core\los_task.c ****     else
1198:C:/Users/²Ü¼ÒºÀ/.iotlink/sdk/IoT_LINK/iot_link/os/liteos/base/core\los_task.c ****     {
1199:C:/Users/²Ü¼ÒºÀ/.iotlink/sdk/IoT_LINK/iot_link/os/liteos/base/core\los_task.c ****         uvIntSave = LOS_IntLock();
1200:C:/Users/²Ü¼ÒºÀ/.iotlink/sdk/IoT_LINK/iot_link/os/liteos/base/core\los_task.c ****         osPriqueueDequeue(&(g_stLosTask.pstRunTask->stPendList));
1201:C:/Users/²Ü¼ÒºÀ/.iotlink/sdk/IoT_LINK/iot_link/os/liteos/base/core\los_task.c ****         g_stLosTask.pstRunTask->usTaskStatus &= (~OS_TASK_STATUS_READY);
1202:C:/Users/²Ü¼ÒºÀ/.iotlink/sdk/IoT_LINK/iot_link/os/liteos/base/core\los_task.c ****         osTaskAdd2TimerList((LOS_TASK_CB *)g_stLosTask.pstRunTask, uwTick);
1203:C:/Users/²Ü¼ÒºÀ/.iotlink/sdk/IoT_LINK/iot_link/os/liteos/base/core\los_task.c ****         g_stLosTask.pstRunTask->usTaskStatus |= OS_TASK_STATUS_DELAY;
1204:C:/Users/²Ü¼ÒºÀ/.iotlink/sdk/IoT_LINK/iot_link/os/liteos/base/core\los_task.c ****         (VOID)LOS_IntRestore(uvIntSave);
1205:C:/Users/²Ü¼ÒºÀ/.iotlink/sdk/IoT_LINK/iot_link/os/liteos/base/core\los_task.c ****         LOS_Schedule();
1206:C:/Users/²Ü¼ÒºÀ/.iotlink/sdk/IoT_LINK/iot_link/os/liteos/base/core\los_task.c ****     }
1207:C:/Users/²Ü¼ÒºÀ/.iotlink/sdk/IoT_LINK/iot_link/os/liteos/base/core\los_task.c **** 
1208:C:/Users/²Ü¼ÒºÀ/.iotlink/sdk/IoT_LINK/iot_link/os/liteos/base/core\los_task.c ****     return LOS_OK;
1209:C:/Users/²Ü¼ÒºÀ/.iotlink/sdk/IoT_LINK/iot_link/os/liteos/base/core\los_task.c **** }
1210:C:/Users/²Ü¼ÒºÀ/.iotlink/sdk/IoT_LINK/iot_link/os/liteos/base/core\los_task.c **** 
1211:C:/Users/²Ü¼ÒºÀ/.iotlink/sdk/IoT_LINK/iot_link/os/liteos/base/core\los_task.c **** /*****************************************************************************
1212:C:/Users/²Ü¼ÒºÀ/.iotlink/sdk/IoT_LINK/iot_link/os/liteos/base/core\los_task.c ****  Function : LOS_TaskPriGet
1213:C:/Users/²Ü¼ÒºÀ/.iotlink/sdk/IoT_LINK/iot_link/os/liteos/base/core\los_task.c ****  Description : Get the priority of the task
1214:C:/Users/²Ü¼ÒºÀ/.iotlink/sdk/IoT_LINK/iot_link/os/liteos/base/core\los_task.c ****  Input       : uwTaskID
1215:C:/Users/²Ü¼ÒºÀ/.iotlink/sdk/IoT_LINK/iot_link/os/liteos/base/core\los_task.c ****  Output      : None
1216:C:/Users/²Ü¼ÒºÀ/.iotlink/sdk/IoT_LINK/iot_link/os/liteos/base/core\los_task.c ****  Return      : TSK_PRIOR_T on success or OS_INVALID on failure
1217:C:/Users/²Ü¼ÒºÀ/.iotlink/sdk/IoT_LINK/iot_link/os/liteos/base/core\los_task.c ****  *****************************************************************************/
1218:C:/Users/²Ü¼ÒºÀ/.iotlink/sdk/IoT_LINK/iot_link/os/liteos/base/core\los_task.c **** LITE_OS_SEC_TEXT_MINOR UINT16 LOS_TaskPriGet(UINT32 uwTaskID)
1219:C:/Users/²Ü¼ÒºÀ/.iotlink/sdk/IoT_LINK/iot_link/os/liteos/base/core\los_task.c **** {
 3126              		.loc 2 1219 1 is_stmt 1 view -0
 3127              		.cfi_startproc
 3128              		@ args = 0, pretend = 0, frame = 0
 3129              		@ frame_needed = 0, uses_anonymous_args = 0
1220:C:/Users/²Ü¼ÒºÀ/.iotlink/sdk/IoT_LINK/iot_link/os/liteos/base/core\los_task.c ****     UINTPTR uvIntSave;
 3130              		.loc 2 1220 5 view .LVU976
1221:C:/Users/²Ü¼ÒºÀ/.iotlink/sdk/IoT_LINK/iot_link/os/liteos/base/core\los_task.c ****     LOS_TASK_CB *pstTaskCB;
 3131              		.loc 2 1221 5 view .LVU977
1222:C:/Users/²Ü¼ÒºÀ/.iotlink/sdk/IoT_LINK/iot_link/os/liteos/base/core\los_task.c ****     UINT16 usPriority;
 3132              		.loc 2 1222 5 view .LVU978
1223:C:/Users/²Ü¼ÒºÀ/.iotlink/sdk/IoT_LINK/iot_link/os/liteos/base/core\los_task.c **** 
1224:C:/Users/²Ü¼ÒºÀ/.iotlink/sdk/IoT_LINK/iot_link/os/liteos/base/core\los_task.c ****     if (OS_CHECK_TSK_PID_NOIDLE(uwTaskID))
 3133              		.loc 2 1224 5 view .LVU979
 3134              		.loc 2 1224 9 is_stmt 0 view .LVU980
 3135 0000 0C4B     		ldr	r3, .L215
 3136              		.loc 2 1224 8 view .LVU981
 3137 0002 1B68     		ldr	r3, [r3]
 3138 0004 8342     		cmp	r3, r0
1219:C:/Users/²Ü¼ÒºÀ/.iotlink/sdk/IoT_LINK/iot_link/os/liteos/base/core\los_task.c ****     UINTPTR uvIntSave;
 3139              		.loc 2 1219 1 view .LVU982
 3140 0006 10B5     		push	{r4, lr}
 3141              	.LCFI35:
 3142              		.cfi_def_cfa_offset 8
 3143              		.cfi_offset 4, -8
 3144              		.cfi_offset 14, -4
 3145              		.loc 2 1224 8 view .LVU983
 3146 0008 0BD9     		bls	.L214
1225:C:/Users/²Ü¼ÒºÀ/.iotlink/sdk/IoT_LINK/iot_link/os/liteos/base/core\los_task.c ****     {
1226:C:/Users/²Ü¼ÒºÀ/.iotlink/sdk/IoT_LINK/iot_link/os/liteos/base/core\los_task.c ****        return (UINT16)OS_INVALID;
1227:C:/Users/²Ü¼ÒºÀ/.iotlink/sdk/IoT_LINK/iot_link/os/liteos/base/core\los_task.c ****     }
1228:C:/Users/²Ü¼ÒºÀ/.iotlink/sdk/IoT_LINK/iot_link/os/liteos/base/core\los_task.c **** 
ARM GAS  C:\Users\²Ü¼ÒºÀ\AppData\Local\Temp\ccOngKk7.s 			page 94


1229:C:/Users/²Ü¼ÒºÀ/.iotlink/sdk/IoT_LINK/iot_link/os/liteos/base/core\los_task.c ****     pstTaskCB = OS_TCB_FROM_TID(uwTaskID);
 3147              		.loc 2 1229 5 is_stmt 1 view .LVU984
 3148              		.loc 2 1229 15 is_stmt 0 view .LVU985
 3149 000a 0B4B     		ldr	r3, .L215+4
 3150 000c 1C68     		ldr	r4, [r3]
 3151 000e 5423     		movs	r3, #84
 3152 0010 03FB0044 		mla	r4, r3, r0, r4
 3153              	.LVL243:
1230:C:/Users/²Ü¼ÒºÀ/.iotlink/sdk/IoT_LINK/iot_link/os/liteos/base/core\los_task.c **** 
1231:C:/Users/²Ü¼ÒºÀ/.iotlink/sdk/IoT_LINK/iot_link/os/liteos/base/core\los_task.c ****     uvIntSave = LOS_IntLock();
 3154              		.loc 2 1231 5 is_stmt 1 view .LVU986
 3155              		.loc 2 1231 17 is_stmt 0 view .LVU987
 3156 0014 FFF7FEFF 		bl	LOS_IntLock
 3157              	.LVL244:
1232:C:/Users/²Ü¼ÒºÀ/.iotlink/sdk/IoT_LINK/iot_link/os/liteos/base/core\los_task.c **** 
1233:C:/Users/²Ü¼ÒºÀ/.iotlink/sdk/IoT_LINK/iot_link/os/liteos/base/core\los_task.c ****     if (OS_TASK_STATUS_UNUSED & pstTaskCB->usTaskStatus)
 3158              		.loc 2 1233 5 is_stmt 1 view .LVU988
 3159              		.loc 2 1233 9 is_stmt 0 view .LVU989
 3160 0018 A388     		ldrh	r3, [r4, #4]
 3161              		.loc 2 1233 8 view .LVU990
 3162 001a DB07     		lsls	r3, r3, #31
 3163 001c 04D5     		bpl	.L213
1234:C:/Users/²Ü¼ÒºÀ/.iotlink/sdk/IoT_LINK/iot_link/os/liteos/base/core\los_task.c ****     {
1235:C:/Users/²Ü¼ÒºÀ/.iotlink/sdk/IoT_LINK/iot_link/os/liteos/base/core\los_task.c ****         (VOID)LOS_IntRestore(uvIntSave);
 3164              		.loc 2 1235 9 is_stmt 1 view .LVU991
 3165 001e FFF7FEFF 		bl	LOS_IntRestore
 3166              	.LVL245:
1236:C:/Users/²Ü¼ÒºÀ/.iotlink/sdk/IoT_LINK/iot_link/os/liteos/base/core\los_task.c ****         return (UINT16)OS_INVALID;
 3167              		.loc 2 1236 9 view .LVU992
 3168              	.L214:
1226:C:/Users/²Ü¼ÒºÀ/.iotlink/sdk/IoT_LINK/iot_link/os/liteos/base/core\los_task.c ****     }
 3169              		.loc 2 1226 15 is_stmt 0 view .LVU993
 3170 0022 4FF6FF74 		movw	r4, #65535
 3171 0026 02E0     		b	.L212
 3172              	.LVL246:
 3173              	.L213:
1237:C:/Users/²Ü¼ÒºÀ/.iotlink/sdk/IoT_LINK/iot_link/os/liteos/base/core\los_task.c ****     }
1238:C:/Users/²Ü¼ÒºÀ/.iotlink/sdk/IoT_LINK/iot_link/os/liteos/base/core\los_task.c **** 
1239:C:/Users/²Ü¼ÒºÀ/.iotlink/sdk/IoT_LINK/iot_link/os/liteos/base/core\los_task.c ****     usPriority = pstTaskCB->usPriority;
 3174              		.loc 2 1239 5 is_stmt 1 view .LVU994
 3175              		.loc 2 1239 16 is_stmt 0 view .LVU995
 3176 0028 E488     		ldrh	r4, [r4, #6]
 3177              	.LVL247:
1240:C:/Users/²Ü¼ÒºÀ/.iotlink/sdk/IoT_LINK/iot_link/os/liteos/base/core\los_task.c ****     (VOID)LOS_IntRestore(uvIntSave);
 3178              		.loc 2 1240 5 is_stmt 1 view .LVU996
 3179 002a FFF7FEFF 		bl	LOS_IntRestore
 3180              	.LVL248:
1241:C:/Users/²Ü¼ÒºÀ/.iotlink/sdk/IoT_LINK/iot_link/os/liteos/base/core\los_task.c ****     return usPriority;
 3181              		.loc 2 1241 5 view .LVU997
 3182              	.L212:
1242:C:/Users/²Ü¼ÒºÀ/.iotlink/sdk/IoT_LINK/iot_link/os/liteos/base/core\los_task.c **** }
 3183              		.loc 2 1242 1 is_stmt 0 view .LVU998
 3184 002e 2046     		mov	r0, r4
 3185 0030 10BD     		pop	{r4, pc}
 3186              	.L216:
 3187 0032 00BF     		.align	2
 3188              	.L215:
ARM GAS  C:\Users\²Ü¼ÒºÀ\AppData\Local\Temp\ccOngKk7.s 			page 95


 3189 0034 00000000 		.word	g_uwTskMaxNum
 3190 0038 00000000 		.word	g_pstTaskCBArray
 3191              		.cfi_endproc
 3192              	.LFE309:
 3194              		.section	.text.LOS_TaskPriSet,"ax",%progbits
 3195              		.align	1
 3196              		.global	LOS_TaskPriSet
 3197              		.syntax unified
 3198              		.thumb
 3199              		.thumb_func
 3200              		.fpu fpv4-sp-d16
 3202              	LOS_TaskPriSet:
 3203              	.LVL249:
 3204              	.LFB310:
1243:C:/Users/²Ü¼ÒºÀ/.iotlink/sdk/IoT_LINK/iot_link/os/liteos/base/core\los_task.c **** 
1244:C:/Users/²Ü¼ÒºÀ/.iotlink/sdk/IoT_LINK/iot_link/os/liteos/base/core\los_task.c **** /*****************************************************************************
1245:C:/Users/²Ü¼ÒºÀ/.iotlink/sdk/IoT_LINK/iot_link/os/liteos/base/core\los_task.c ****  Function : LOS_TaskPriSet
1246:C:/Users/²Ü¼ÒºÀ/.iotlink/sdk/IoT_LINK/iot_link/os/liteos/base/core\los_task.c ****  Description : Set the priority of the task
1247:C:/Users/²Ü¼ÒºÀ/.iotlink/sdk/IoT_LINK/iot_link/os/liteos/base/core\los_task.c ****  Input       : uwTaskID
1248:C:/Users/²Ü¼ÒºÀ/.iotlink/sdk/IoT_LINK/iot_link/os/liteos/base/core\los_task.c ****                usTaskPrio
1249:C:/Users/²Ü¼ÒºÀ/.iotlink/sdk/IoT_LINK/iot_link/os/liteos/base/core\los_task.c ****  Output      : None
1250:C:/Users/²Ü¼ÒºÀ/.iotlink/sdk/IoT_LINK/iot_link/os/liteos/base/core\los_task.c ****  Return      : None
1251:C:/Users/²Ü¼ÒºÀ/.iotlink/sdk/IoT_LINK/iot_link/os/liteos/base/core\los_task.c ****  *****************************************************************************/
1252:C:/Users/²Ü¼ÒºÀ/.iotlink/sdk/IoT_LINK/iot_link/os/liteos/base/core\los_task.c **** LITE_OS_SEC_TEXT_MINOR UINT32 LOS_TaskPriSet(UINT32 uwTaskID, UINT16 usTaskPrio)
1253:C:/Users/²Ü¼ÒºÀ/.iotlink/sdk/IoT_LINK/iot_link/os/liteos/base/core\los_task.c **** {
 3205              		.loc 2 1253 1 is_stmt 1 view -0
 3206              		.cfi_startproc
 3207              		@ args = 0, pretend = 0, frame = 8
 3208              		@ frame_needed = 0, uses_anonymous_args = 0
1254:C:/Users/²Ü¼ÒºÀ/.iotlink/sdk/IoT_LINK/iot_link/os/liteos/base/core\los_task.c ****     BOOL   bIsReady;
 3209              		.loc 2 1254 5 view .LVU1000
1255:C:/Users/²Ü¼ÒºÀ/.iotlink/sdk/IoT_LINK/iot_link/os/liteos/base/core\los_task.c ****     UINTPTR uvIntSave;
 3210              		.loc 2 1255 5 view .LVU1001
1256:C:/Users/²Ü¼ÒºÀ/.iotlink/sdk/IoT_LINK/iot_link/os/liteos/base/core\los_task.c ****     LOS_TASK_CB *pstTaskCB;
 3211              		.loc 2 1256 5 view .LVU1002
1257:C:/Users/²Ü¼ÒºÀ/.iotlink/sdk/IoT_LINK/iot_link/os/liteos/base/core\los_task.c ****     UINT16 usTempStatus;
 3212              		.loc 2 1257 5 view .LVU1003
1258:C:/Users/²Ü¼ÒºÀ/.iotlink/sdk/IoT_LINK/iot_link/os/liteos/base/core\los_task.c **** 
1259:C:/Users/²Ü¼ÒºÀ/.iotlink/sdk/IoT_LINK/iot_link/os/liteos/base/core\los_task.c ****     if (usTaskPrio > OS_TASK_PRIORITY_LOWEST)
 3213              		.loc 2 1259 5 view .LVU1004
 3214              		.loc 2 1259 8 is_stmt 0 view .LVU1005
 3215 0000 1F29     		cmp	r1, #31
1253:C:/Users/²Ü¼ÒºÀ/.iotlink/sdk/IoT_LINK/iot_link/os/liteos/base/core\los_task.c ****     BOOL   bIsReady;
 3216              		.loc 2 1253 1 view .LVU1006
 3217 0002 F7B5     		push	{r0, r1, r2, r4, r5, r6, r7, lr}
 3218              	.LCFI36:
 3219              		.cfi_def_cfa_offset 32
 3220              		.cfi_offset 4, -20
 3221              		.cfi_offset 5, -16
 3222              		.cfi_offset 6, -12
 3223              		.cfi_offset 7, -8
 3224              		.cfi_offset 14, -4
1253:C:/Users/²Ü¼ÒºÀ/.iotlink/sdk/IoT_LINK/iot_link/os/liteos/base/core\los_task.c ****     BOOL   bIsReady;
 3225              		.loc 2 1253 1 view .LVU1007
 3226 0004 0E46     		mov	r6, r1
 3227              		.loc 2 1259 8 view .LVU1008
 3228 0006 36D8     		bhi	.L222
ARM GAS  C:\Users\²Ü¼ÒºÀ\AppData\Local\Temp\ccOngKk7.s 			page 96


1260:C:/Users/²Ü¼ÒºÀ/.iotlink/sdk/IoT_LINK/iot_link/os/liteos/base/core\los_task.c ****     {
1261:C:/Users/²Ü¼ÒºÀ/.iotlink/sdk/IoT_LINK/iot_link/os/liteos/base/core\los_task.c ****         return LOS_ERRNO_TSK_PRIOR_ERROR;
1262:C:/Users/²Ü¼ÒºÀ/.iotlink/sdk/IoT_LINK/iot_link/os/liteos/base/core\los_task.c ****     }
1263:C:/Users/²Ü¼ÒºÀ/.iotlink/sdk/IoT_LINK/iot_link/os/liteos/base/core\los_task.c **** 
1264:C:/Users/²Ü¼ÒºÀ/.iotlink/sdk/IoT_LINK/iot_link/os/liteos/base/core\los_task.c ****     if (uwTaskID == g_uwIdleTaskID)
 3229              		.loc 2 1264 5 is_stmt 1 view .LVU1009
 3230              		.loc 2 1264 18 is_stmt 0 view .LVU1010
 3231 0008 204B     		ldr	r3, .L227
 3232              		.loc 2 1264 8 view .LVU1011
 3233 000a 1B68     		ldr	r3, [r3]
 3234 000c 8342     		cmp	r3, r0
 3235 000e 34D0     		beq	.L223
1265:C:/Users/²Ü¼ÒºÀ/.iotlink/sdk/IoT_LINK/iot_link/os/liteos/base/core\los_task.c ****     {
1266:C:/Users/²Ü¼ÒºÀ/.iotlink/sdk/IoT_LINK/iot_link/os/liteos/base/core\los_task.c ****         return LOS_ERRNO_TSK_OPERATE_IDLE;
1267:C:/Users/²Ü¼ÒºÀ/.iotlink/sdk/IoT_LINK/iot_link/os/liteos/base/core\los_task.c ****     }
1268:C:/Users/²Ü¼ÒºÀ/.iotlink/sdk/IoT_LINK/iot_link/os/liteos/base/core\los_task.c **** 
1269:C:/Users/²Ü¼ÒºÀ/.iotlink/sdk/IoT_LINK/iot_link/os/liteos/base/core\los_task.c ****     if (uwTaskID == g_uwSwtmrTaskID)
 3236              		.loc 2 1269 5 is_stmt 1 view .LVU1012
 3237              		.loc 2 1269 18 is_stmt 0 view .LVU1013
 3238 0010 1F4B     		ldr	r3, .L227+4
 3239              		.loc 2 1269 8 view .LVU1014
 3240 0012 1B68     		ldr	r3, [r3]
 3241 0014 8342     		cmp	r3, r0
 3242 0016 32D0     		beq	.L224
1270:C:/Users/²Ü¼ÒºÀ/.iotlink/sdk/IoT_LINK/iot_link/os/liteos/base/core\los_task.c ****     {
1271:C:/Users/²Ü¼ÒºÀ/.iotlink/sdk/IoT_LINK/iot_link/os/liteos/base/core\los_task.c ****         return LOS_ERRNO_TSK_OPERATE_SWTMR;
1272:C:/Users/²Ü¼ÒºÀ/.iotlink/sdk/IoT_LINK/iot_link/os/liteos/base/core\los_task.c ****     }
1273:C:/Users/²Ü¼ÒºÀ/.iotlink/sdk/IoT_LINK/iot_link/os/liteos/base/core\los_task.c **** 
1274:C:/Users/²Ü¼ÒºÀ/.iotlink/sdk/IoT_LINK/iot_link/os/liteos/base/core\los_task.c ****     if (OS_CHECK_TSK_PID_NOIDLE(uwTaskID))
 3243              		.loc 2 1274 5 is_stmt 1 view .LVU1015
 3244              		.loc 2 1274 9 is_stmt 0 view .LVU1016
 3245 0018 1E4B     		ldr	r3, .L227+8
 3246              		.loc 2 1274 8 view .LVU1017
 3247 001a 1B68     		ldr	r3, [r3]
 3248 001c 8342     		cmp	r3, r0
 3249 001e 30D9     		bls	.L225
 3250              	.LVL250:
 3251              	.LBB158:
 3252              	.LBI158:
1252:C:/Users/²Ü¼ÒºÀ/.iotlink/sdk/IoT_LINK/iot_link/os/liteos/base/core\los_task.c **** {
 3253              		.loc 2 1252 31 is_stmt 1 view .LVU1018
 3254              	.LBB159:
1275:C:/Users/²Ü¼ÒºÀ/.iotlink/sdk/IoT_LINK/iot_link/os/liteos/base/core\los_task.c ****     {
1276:C:/Users/²Ü¼ÒºÀ/.iotlink/sdk/IoT_LINK/iot_link/os/liteos/base/core\los_task.c ****         return LOS_ERRNO_TSK_ID_INVALID;
1277:C:/Users/²Ü¼ÒºÀ/.iotlink/sdk/IoT_LINK/iot_link/os/liteos/base/core\los_task.c ****     }
1278:C:/Users/²Ü¼ÒºÀ/.iotlink/sdk/IoT_LINK/iot_link/os/liteos/base/core\los_task.c **** 
1279:C:/Users/²Ü¼ÒºÀ/.iotlink/sdk/IoT_LINK/iot_link/os/liteos/base/core\los_task.c ****     pstTaskCB = OS_TCB_FROM_TID(uwTaskID);
 3255              		.loc 2 1279 5 view .LVU1019
 3256              		.loc 2 1279 15 is_stmt 0 view .LVU1020
 3257 0020 1D4B     		ldr	r3, .L227+12
 3258 0022 1D68     		ldr	r5, [r3]
 3259 0024 5423     		movs	r3, #84
 3260 0026 03FB0055 		mla	r5, r3, r0, r5
 3261              	.LVL251:
1280:C:/Users/²Ü¼ÒºÀ/.iotlink/sdk/IoT_LINK/iot_link/os/liteos/base/core\los_task.c ****     uvIntSave = LOS_IntLock();
 3262              		.loc 2 1280 5 is_stmt 1 view .LVU1021
 3263              		.loc 2 1280 17 is_stmt 0 view .LVU1022
ARM GAS  C:\Users\²Ü¼ÒºÀ\AppData\Local\Temp\ccOngKk7.s 			page 97


 3264 002a FFF7FEFF 		bl	LOS_IntLock
 3265              	.LVL252:
1281:C:/Users/²Ü¼ÒºÀ/.iotlink/sdk/IoT_LINK/iot_link/os/liteos/base/core\los_task.c ****     usTempStatus = pstTaskCB->usTaskStatus;
 3266              		.loc 2 1281 18 view .LVU1023
 3267 002e AB88     		ldrh	r3, [r5, #4]
1282:C:/Users/²Ü¼ÒºÀ/.iotlink/sdk/IoT_LINK/iot_link/os/liteos/base/core\los_task.c ****     if (OS_TASK_STATUS_UNUSED & usTempStatus)
 3268              		.loc 2 1282 8 view .LVU1024
 3269 0030 DA07     		lsls	r2, r3, #31
1280:C:/Users/²Ü¼ÒºÀ/.iotlink/sdk/IoT_LINK/iot_link/os/liteos/base/core\los_task.c ****     uvIntSave = LOS_IntLock();
 3270              		.loc 2 1280 17 view .LVU1025
 3271 0032 0746     		mov	r7, r0
 3272              	.LVL253:
1281:C:/Users/²Ü¼ÒºÀ/.iotlink/sdk/IoT_LINK/iot_link/os/liteos/base/core\los_task.c ****     usTempStatus = pstTaskCB->usTaskStatus;
 3273              		.loc 2 1281 5 is_stmt 1 view .LVU1026
 3274              		.loc 2 1282 5 view .LVU1027
 3275              		.loc 2 1282 8 is_stmt 0 view .LVU1028
 3276 0034 04D5     		bpl	.L219
1283:C:/Users/²Ü¼ÒºÀ/.iotlink/sdk/IoT_LINK/iot_link/os/liteos/base/core\los_task.c ****     {
1284:C:/Users/²Ü¼ÒºÀ/.iotlink/sdk/IoT_LINK/iot_link/os/liteos/base/core\los_task.c ****         (VOID)LOS_IntRestore(uvIntSave);
 3277              		.loc 2 1284 9 is_stmt 1 view .LVU1029
 3278 0036 FFF7FEFF 		bl	LOS_IntRestore
 3279              	.LVL254:
1285:C:/Users/²Ü¼ÒºÀ/.iotlink/sdk/IoT_LINK/iot_link/os/liteos/base/core\los_task.c ****         return LOS_ERRNO_TSK_NOT_CREATED;
 3280              		.loc 2 1285 9 view .LVU1030
 3281              		.loc 2 1285 16 is_stmt 0 view .LVU1031
 3282 003a 1848     		ldr	r0, .L227+16
 3283              	.LVL255:
 3284              	.L217:
 3285              		.loc 2 1285 16 view .LVU1032
 3286              	.LBE159:
 3287              	.LBE158:
1286:C:/Users/²Ü¼ÒºÀ/.iotlink/sdk/IoT_LINK/iot_link/os/liteos/base/core\los_task.c ****     }
1287:C:/Users/²Ü¼ÒºÀ/.iotlink/sdk/IoT_LINK/iot_link/os/liteos/base/core\los_task.c ****     /* delete the task and insert with right priority into ready queue */
1288:C:/Users/²Ü¼ÒºÀ/.iotlink/sdk/IoT_LINK/iot_link/os/liteos/base/core\los_task.c ****     bIsReady = (OS_TASK_STATUS_READY & usTempStatus);
1289:C:/Users/²Ü¼ÒºÀ/.iotlink/sdk/IoT_LINK/iot_link/os/liteos/base/core\los_task.c ****     if (bIsReady)
1290:C:/Users/²Ü¼ÒºÀ/.iotlink/sdk/IoT_LINK/iot_link/os/liteos/base/core\los_task.c ****     {
1291:C:/Users/²Ü¼ÒºÀ/.iotlink/sdk/IoT_LINK/iot_link/os/liteos/base/core\los_task.c ****         osPriqueueDequeue(&pstTaskCB->stPendList);
1292:C:/Users/²Ü¼ÒºÀ/.iotlink/sdk/IoT_LINK/iot_link/os/liteos/base/core\los_task.c ****         pstTaskCB->usTaskStatus &= (~OS_TASK_STATUS_READY);
1293:C:/Users/²Ü¼ÒºÀ/.iotlink/sdk/IoT_LINK/iot_link/os/liteos/base/core\los_task.c ****         pstTaskCB->usPriority = usTaskPrio;
1294:C:/Users/²Ü¼ÒºÀ/.iotlink/sdk/IoT_LINK/iot_link/os/liteos/base/core\los_task.c ****         pstTaskCB->usTaskStatus |= OS_TASK_STATUS_READY;
1295:C:/Users/²Ü¼ÒºÀ/.iotlink/sdk/IoT_LINK/iot_link/os/liteos/base/core\los_task.c ****         osPriqueueEnqueue(&pstTaskCB->stPendList, pstTaskCB->usPriority);
1296:C:/Users/²Ü¼ÒºÀ/.iotlink/sdk/IoT_LINK/iot_link/os/liteos/base/core\los_task.c ****     }
1297:C:/Users/²Ü¼ÒºÀ/.iotlink/sdk/IoT_LINK/iot_link/os/liteos/base/core\los_task.c ****     else
1298:C:/Users/²Ü¼ÒºÀ/.iotlink/sdk/IoT_LINK/iot_link/os/liteos/base/core\los_task.c ****     {
1299:C:/Users/²Ü¼ÒºÀ/.iotlink/sdk/IoT_LINK/iot_link/os/liteos/base/core\los_task.c ****         pstTaskCB->usPriority = usTaskPrio;
1300:C:/Users/²Ü¼ÒºÀ/.iotlink/sdk/IoT_LINK/iot_link/os/liteos/base/core\los_task.c ****     }
1301:C:/Users/²Ü¼ÒºÀ/.iotlink/sdk/IoT_LINK/iot_link/os/liteos/base/core\los_task.c **** 
1302:C:/Users/²Ü¼ÒºÀ/.iotlink/sdk/IoT_LINK/iot_link/os/liteos/base/core\los_task.c ****     (VOID)LOS_IntRestore(uvIntSave);
1303:C:/Users/²Ü¼ÒºÀ/.iotlink/sdk/IoT_LINK/iot_link/os/liteos/base/core\los_task.c ****     /* delete the task and insert with right priority into ready queue */
1304:C:/Users/²Ü¼ÒºÀ/.iotlink/sdk/IoT_LINK/iot_link/os/liteos/base/core\los_task.c ****     if (bIsReady)
1305:C:/Users/²Ü¼ÒºÀ/.iotlink/sdk/IoT_LINK/iot_link/os/liteos/base/core\los_task.c ****     {
1306:C:/Users/²Ü¼ÒºÀ/.iotlink/sdk/IoT_LINK/iot_link/os/liteos/base/core\los_task.c ****         LOS_Schedule();
1307:C:/Users/²Ü¼ÒºÀ/.iotlink/sdk/IoT_LINK/iot_link/os/liteos/base/core\los_task.c ****     }
1308:C:/Users/²Ü¼ÒºÀ/.iotlink/sdk/IoT_LINK/iot_link/os/liteos/base/core\los_task.c **** 
1309:C:/Users/²Ü¼ÒºÀ/.iotlink/sdk/IoT_LINK/iot_link/os/liteos/base/core\los_task.c ****     return LOS_OK;
1310:C:/Users/²Ü¼ÒºÀ/.iotlink/sdk/IoT_LINK/iot_link/os/liteos/base/core\los_task.c **** }
 3288              		.loc 2 1310 1 view .LVU1033
ARM GAS  C:\Users\²Ü¼ÒºÀ\AppData\Local\Temp\ccOngKk7.s 			page 98


 3289 003c 03B0     		add	sp, sp, #12
 3290              	.LCFI37:
 3291              		.cfi_remember_state
 3292              		.cfi_def_cfa_offset 20
 3293              		@ sp needed
 3294 003e F0BD     		pop	{r4, r5, r6, r7, pc}
 3295              	.LVL256:
 3296              	.L219:
 3297              	.LCFI38:
 3298              		.cfi_restore_state
 3299              	.LBB162:
 3300              	.LBB160:
1288:C:/Users/²Ü¼ÒºÀ/.iotlink/sdk/IoT_LINK/iot_link/os/liteos/base/core\los_task.c ****     if (bIsReady)
 3301              		.loc 2 1288 5 is_stmt 1 view .LVU1034
1289:C:/Users/²Ü¼ÒºÀ/.iotlink/sdk/IoT_LINK/iot_link/os/liteos/base/core\los_task.c ****     {
 3302              		.loc 2 1289 5 view .LVU1035
1289:C:/Users/²Ü¼ÒºÀ/.iotlink/sdk/IoT_LINK/iot_link/os/liteos/base/core\los_task.c ****     {
 3303              		.loc 2 1289 8 is_stmt 0 view .LVU1036
 3304 0040 13F00404 		ands	r4, r3, #4
 3305              	.LVL257:
1289:C:/Users/²Ü¼ÒºÀ/.iotlink/sdk/IoT_LINK/iot_link/os/liteos/base/core\los_task.c ****     {
 3306              		.loc 2 1289 8 view .LVU1037
 3307 0044 15D0     		beq	.L220
1291:C:/Users/²Ü¼ÒºÀ/.iotlink/sdk/IoT_LINK/iot_link/os/liteos/base/core\los_task.c ****         pstTaskCB->usTaskStatus &= (~OS_TASK_STATUS_READY);
 3308              		.loc 2 1291 9 is_stmt 1 view .LVU1038
 3309 0046 05F12800 		add	r0, r5, #40
 3310              	.LVL258:
1291:C:/Users/²Ü¼ÒºÀ/.iotlink/sdk/IoT_LINK/iot_link/os/liteos/base/core\los_task.c ****         pstTaskCB->usTaskStatus &= (~OS_TASK_STATUS_READY);
 3311              		.loc 2 1291 9 is_stmt 0 view .LVU1039
 3312 004a 0190     		str	r0, [sp, #4]
 3313 004c FFF7FEFF 		bl	osPriqueueDequeue
 3314              	.LVL259:
1292:C:/Users/²Ü¼ÒºÀ/.iotlink/sdk/IoT_LINK/iot_link/os/liteos/base/core\los_task.c ****         pstTaskCB->usPriority = usTaskPrio;
 3315              		.loc 2 1292 9 is_stmt 1 view .LVU1040
1293:C:/Users/²Ü¼ÒºÀ/.iotlink/sdk/IoT_LINK/iot_link/os/liteos/base/core\los_task.c ****         pstTaskCB->usTaskStatus |= OS_TASK_STATUS_READY;
 3316              		.loc 2 1293 9 view .LVU1041
1292:C:/Users/²Ü¼ÒºÀ/.iotlink/sdk/IoT_LINK/iot_link/os/liteos/base/core\los_task.c ****         pstTaskCB->usPriority = usTaskPrio;
 3317              		.loc 2 1292 33 is_stmt 0 view .LVU1042
 3318 0050 AB88     		ldrh	r3, [r5, #4]
1295:C:/Users/²Ü¼ÒºÀ/.iotlink/sdk/IoT_LINK/iot_link/os/liteos/base/core\los_task.c ****     }
 3319              		.loc 2 1295 9 view .LVU1043
 3320 0052 0198     		ldr	r0, [sp, #4]
1293:C:/Users/²Ü¼ÒºÀ/.iotlink/sdk/IoT_LINK/iot_link/os/liteos/base/core\los_task.c ****         pstTaskCB->usTaskStatus |= OS_TASK_STATUS_READY;
 3321              		.loc 2 1293 31 view .LVU1044
 3322 0054 EE80     		strh	r6, [r5, #6]	@ movhi
1294:C:/Users/²Ü¼ÒºÀ/.iotlink/sdk/IoT_LINK/iot_link/os/liteos/base/core\los_task.c ****         osPriqueueEnqueue(&pstTaskCB->stPendList, pstTaskCB->usPriority);
 3323              		.loc 2 1294 9 is_stmt 1 view .LVU1045
1294:C:/Users/²Ü¼ÒºÀ/.iotlink/sdk/IoT_LINK/iot_link/os/liteos/base/core\los_task.c ****         osPriqueueEnqueue(&pstTaskCB->stPendList, pstTaskCB->usPriority);
 3324              		.loc 2 1294 33 is_stmt 0 view .LVU1046
 3325 0056 43F00403 		orr	r3, r3, #4
 3326 005a AB80     		strh	r3, [r5, #4]	@ movhi
1295:C:/Users/²Ü¼ÒºÀ/.iotlink/sdk/IoT_LINK/iot_link/os/liteos/base/core\los_task.c ****     }
 3327              		.loc 2 1295 9 is_stmt 1 view .LVU1047
 3328 005c 3146     		mov	r1, r6
 3329 005e FFF7FEFF 		bl	osPriqueueEnqueue
 3330              	.LVL260:
 3331              	.L221:
ARM GAS  C:\Users\²Ü¼ÒºÀ\AppData\Local\Temp\ccOngKk7.s 			page 99


1302:C:/Users/²Ü¼ÒºÀ/.iotlink/sdk/IoT_LINK/iot_link/os/liteos/base/core\los_task.c ****     /* delete the task and insert with right priority into ready queue */
 3332              		.loc 2 1302 5 view .LVU1048
 3333 0062 3846     		mov	r0, r7
 3334 0064 FFF7FEFF 		bl	LOS_IntRestore
 3335              	.LVL261:
1304:C:/Users/²Ü¼ÒºÀ/.iotlink/sdk/IoT_LINK/iot_link/os/liteos/base/core\los_task.c ****     {
 3336              		.loc 2 1304 5 view .LVU1049
1304:C:/Users/²Ü¼ÒºÀ/.iotlink/sdk/IoT_LINK/iot_link/os/liteos/base/core\los_task.c ****     {
 3337              		.loc 2 1304 8 is_stmt 0 view .LVU1050
 3338 0068 6CB1     		cbz	r4, .L226
1306:C:/Users/²Ü¼ÒºÀ/.iotlink/sdk/IoT_LINK/iot_link/os/liteos/base/core\los_task.c ****     }
 3339              		.loc 2 1306 9 is_stmt 1 view .LVU1051
 3340 006a FFF7FEFF 		bl	LOS_Schedule
 3341              	.LVL262:
1309:C:/Users/²Ü¼ÒºÀ/.iotlink/sdk/IoT_LINK/iot_link/os/liteos/base/core\los_task.c **** }
 3342              		.loc 2 1309 12 is_stmt 0 view .LVU1052
 3343 006e 0020     		movs	r0, #0
 3344 0070 E4E7     		b	.L217
 3345              	.LVL263:
 3346              	.L220:
1299:C:/Users/²Ü¼ÒºÀ/.iotlink/sdk/IoT_LINK/iot_link/os/liteos/base/core\los_task.c ****     }
 3347              		.loc 2 1299 9 is_stmt 1 view .LVU1053
1299:C:/Users/²Ü¼ÒºÀ/.iotlink/sdk/IoT_LINK/iot_link/os/liteos/base/core\los_task.c ****     }
 3348              		.loc 2 1299 31 is_stmt 0 view .LVU1054
 3349 0072 EE80     		strh	r6, [r5, #6]	@ movhi
 3350 0074 F5E7     		b	.L221
 3351              	.LVL264:
 3352              	.L222:
1299:C:/Users/²Ü¼ÒºÀ/.iotlink/sdk/IoT_LINK/iot_link/os/liteos/base/core\los_task.c ****     }
 3353              		.loc 2 1299 31 view .LVU1055
 3354              	.LBE160:
 3355              	.LBE162:
1261:C:/Users/²Ü¼ÒºÀ/.iotlink/sdk/IoT_LINK/iot_link/os/liteos/base/core\los_task.c ****     }
 3356              		.loc 2 1261 16 view .LVU1056
 3357 0076 0A48     		ldr	r0, .L227+20
 3358              	.LVL265:
1261:C:/Users/²Ü¼ÒºÀ/.iotlink/sdk/IoT_LINK/iot_link/os/liteos/base/core\los_task.c ****     }
 3359              		.loc 2 1261 16 view .LVU1057
 3360 0078 E0E7     		b	.L217
 3361              	.LVL266:
 3362              	.L223:
1266:C:/Users/²Ü¼ÒºÀ/.iotlink/sdk/IoT_LINK/iot_link/os/liteos/base/core\los_task.c ****     }
 3363              		.loc 2 1266 16 view .LVU1058
 3364 007a 0A48     		ldr	r0, .L227+24
 3365              	.LVL267:
1266:C:/Users/²Ü¼ÒºÀ/.iotlink/sdk/IoT_LINK/iot_link/os/liteos/base/core\los_task.c ****     }
 3366              		.loc 2 1266 16 view .LVU1059
 3367 007c DEE7     		b	.L217
 3368              	.LVL268:
 3369              	.L224:
1271:C:/Users/²Ü¼ÒºÀ/.iotlink/sdk/IoT_LINK/iot_link/os/liteos/base/core\los_task.c ****     }
 3370              		.loc 2 1271 16 view .LVU1060
 3371 007e 0A48     		ldr	r0, .L227+28
 3372              	.LVL269:
1271:C:/Users/²Ü¼ÒºÀ/.iotlink/sdk/IoT_LINK/iot_link/os/liteos/base/core\los_task.c ****     }
 3373              		.loc 2 1271 16 view .LVU1061
 3374 0080 DCE7     		b	.L217
ARM GAS  C:\Users\²Ü¼ÒºÀ\AppData\Local\Temp\ccOngKk7.s 			page 100


 3375              	.LVL270:
 3376              	.L225:
1276:C:/Users/²Ü¼ÒºÀ/.iotlink/sdk/IoT_LINK/iot_link/os/liteos/base/core\los_task.c ****     }
 3377              		.loc 2 1276 16 view .LVU1062
 3378 0082 0A48     		ldr	r0, .L227+32
 3379              	.LVL271:
1276:C:/Users/²Ü¼ÒºÀ/.iotlink/sdk/IoT_LINK/iot_link/os/liteos/base/core\los_task.c ****     }
 3380              		.loc 2 1276 16 view .LVU1063
 3381 0084 DAE7     		b	.L217
 3382              	.LVL272:
 3383              	.L226:
 3384              	.LBB163:
 3385              	.LBB161:
1309:C:/Users/²Ü¼ÒºÀ/.iotlink/sdk/IoT_LINK/iot_link/os/liteos/base/core\los_task.c **** }
 3386              		.loc 2 1309 12 view .LVU1064
 3387 0086 2046     		mov	r0, r4
 3388              	.LVL273:
1309:C:/Users/²Ü¼ÒºÀ/.iotlink/sdk/IoT_LINK/iot_link/os/liteos/base/core\los_task.c **** }
 3389              		.loc 2 1309 12 view .LVU1065
 3390 0088 D8E7     		b	.L217
 3391              	.L228:
 3392 008a 00BF     		.align	2
 3393              	.L227:
 3394 008c 00000000 		.word	g_uwIdleTaskID
 3395 0090 00000000 		.word	g_uwSwtmrTaskID
 3396 0094 00000000 		.word	g_uwTskMaxNum
 3397 0098 00000000 		.word	g_pstTaskCBArray
 3398 009c 0A020002 		.word	33554954
 3399 00a0 03020002 		.word	33554947
 3400 00a4 14020002 		.word	33554964
 3401 00a8 22020002 		.word	33554978
 3402 00ac 07020002 		.word	33554951
 3403              	.LBE161:
 3404              	.LBE163:
 3405              		.cfi_endproc
 3406              	.LFE310:
 3408              		.section	.text.LOS_CurTaskPriSet,"ax",%progbits
 3409              		.align	1
 3410              		.global	LOS_CurTaskPriSet
 3411              		.syntax unified
 3412              		.thumb
 3413              		.thumb_func
 3414              		.fpu fpv4-sp-d16
 3416              	LOS_CurTaskPriSet:
 3417              	.LVL274:
 3418              	.LFB311:
1311:C:/Users/²Ü¼ÒºÀ/.iotlink/sdk/IoT_LINK/iot_link/os/liteos/base/core\los_task.c **** 
1312:C:/Users/²Ü¼ÒºÀ/.iotlink/sdk/IoT_LINK/iot_link/os/liteos/base/core\los_task.c **** /*****************************************************************************
1313:C:/Users/²Ü¼ÒºÀ/.iotlink/sdk/IoT_LINK/iot_link/os/liteos/base/core\los_task.c ****  Function : LOS_CurTaskPriSet
1314:C:/Users/²Ü¼ÒºÀ/.iotlink/sdk/IoT_LINK/iot_link/os/liteos/base/core\los_task.c ****  Description : Set the priority of the current task
1315:C:/Users/²Ü¼ÒºÀ/.iotlink/sdk/IoT_LINK/iot_link/os/liteos/base/core\los_task.c ****  Input       : usTaskPrio
1316:C:/Users/²Ü¼ÒºÀ/.iotlink/sdk/IoT_LINK/iot_link/os/liteos/base/core\los_task.c ****  Output      : None
1317:C:/Users/²Ü¼ÒºÀ/.iotlink/sdk/IoT_LINK/iot_link/os/liteos/base/core\los_task.c ****  Return      : None
1318:C:/Users/²Ü¼ÒºÀ/.iotlink/sdk/IoT_LINK/iot_link/os/liteos/base/core\los_task.c ****  *****************************************************************************/
1319:C:/Users/²Ü¼ÒºÀ/.iotlink/sdk/IoT_LINK/iot_link/os/liteos/base/core\los_task.c **** LITE_OS_SEC_TEXT_MINOR UINT32 LOS_CurTaskPriSet(UINT16 usTaskPrio)
1320:C:/Users/²Ü¼ÒºÀ/.iotlink/sdk/IoT_LINK/iot_link/os/liteos/base/core\los_task.c **** {
 3419              		.loc 2 1320 1 is_stmt 1 view -0
ARM GAS  C:\Users\²Ü¼ÒºÀ\AppData\Local\Temp\ccOngKk7.s 			page 101


 3420              		.cfi_startproc
 3421              		@ args = 0, pretend = 0, frame = 0
 3422              		@ frame_needed = 0, uses_anonymous_args = 0
 3423              		@ link register save eliminated.
1321:C:/Users/²Ü¼ÒºÀ/.iotlink/sdk/IoT_LINK/iot_link/os/liteos/base/core\los_task.c ****     UINT32 uwRet;
 3424              		.loc 2 1321 5 view .LVU1067
1322:C:/Users/²Ü¼ÒºÀ/.iotlink/sdk/IoT_LINK/iot_link/os/liteos/base/core\los_task.c ****     uwRet = LOS_TaskPriSet(g_stLosTask.pstRunTask->uwTaskID, usTaskPrio);
 3425              		.loc 2 1322 5 view .LVU1068
 3426              		.loc 2 1322 39 is_stmt 0 view .LVU1069
 3427 0000 024B     		ldr	r3, .L230
 3428              		.loc 2 1322 13 view .LVU1070
 3429 0002 1B68     		ldr	r3, [r3]
1320:C:/Users/²Ü¼ÒºÀ/.iotlink/sdk/IoT_LINK/iot_link/os/liteos/base/core\los_task.c ****     UINT32 uwRet;
 3430              		.loc 2 1320 1 view .LVU1071
 3431 0004 0146     		mov	r1, r0
 3432              		.loc 2 1322 13 view .LVU1072
 3433 0006 1869     		ldr	r0, [r3, #16]
 3434              	.LVL275:
 3435              		.loc 2 1322 13 view .LVU1073
 3436 0008 FFF7FEBF 		b	LOS_TaskPriSet
 3437              	.LVL276:
 3438              	.L231:
 3439              		.align	2
 3440              	.L230:
 3441 000c 00000000 		.word	g_stLosTask
 3442              		.cfi_endproc
 3443              	.LFE311:
 3445              		.section	.text.osTaskWait,"ax",%progbits
 3446              		.align	1
 3447              		.global	osTaskWait
 3448              		.syntax unified
 3449              		.thumb
 3450              		.thumb_func
 3451              		.fpu fpv4-sp-d16
 3453              	osTaskWait:
 3454              	.LVL277:
 3455              	.LFB312:
1323:C:/Users/²Ü¼ÒºÀ/.iotlink/sdk/IoT_LINK/iot_link/os/liteos/base/core\los_task.c ****     return uwRet;
1324:C:/Users/²Ü¼ÒºÀ/.iotlink/sdk/IoT_LINK/iot_link/os/liteos/base/core\los_task.c **** }
1325:C:/Users/²Ü¼ÒºÀ/.iotlink/sdk/IoT_LINK/iot_link/os/liteos/base/core\los_task.c **** 
1326:C:/Users/²Ü¼ÒºÀ/.iotlink/sdk/IoT_LINK/iot_link/os/liteos/base/core\los_task.c **** /**************************************************************************
1327:C:/Users/²Ü¼ÒºÀ/.iotlink/sdk/IoT_LINK/iot_link/os/liteos/base/core\los_task.c ****  Function    : osTaskWait
1328:C:/Users/²Ü¼ÒºÀ/.iotlink/sdk/IoT_LINK/iot_link/os/liteos/base/core\los_task.c ****  Description : pend a task in pstList
1329:C:/Users/²Ü¼ÒºÀ/.iotlink/sdk/IoT_LINK/iot_link/os/liteos/base/core\los_task.c ****  Input       : pstList
1330:C:/Users/²Ü¼ÒºÀ/.iotlink/sdk/IoT_LINK/iot_link/os/liteos/base/core\los_task.c ****                uwTimeOut -- Expiry time
1331:C:/Users/²Ü¼ÒºÀ/.iotlink/sdk/IoT_LINK/iot_link/os/liteos/base/core\los_task.c ****  Output      : none
1332:C:/Users/²Ü¼ÒºÀ/.iotlink/sdk/IoT_LINK/iot_link/os/liteos/base/core\los_task.c ****  Return      : LOS_OK on success or LOS_NOK on failure
1333:C:/Users/²Ü¼ÒºÀ/.iotlink/sdk/IoT_LINK/iot_link/os/liteos/base/core\los_task.c **** **************************************************************************/
1334:C:/Users/²Ü¼ÒºÀ/.iotlink/sdk/IoT_LINK/iot_link/os/liteos/base/core\los_task.c **** LITE_OS_SEC_TEXT VOID osTaskWait(LOS_DL_LIST *pstList, UINT32 uwTaskStatus, UINT32 uwTimeOut)
1335:C:/Users/²Ü¼ÒºÀ/.iotlink/sdk/IoT_LINK/iot_link/os/liteos/base/core\los_task.c **** {
 3456              		.loc 2 1335 1 is_stmt 1 view -0
 3457              		.cfi_startproc
 3458              		@ args = 0, pretend = 0, frame = 0
 3459              		@ frame_needed = 0, uses_anonymous_args = 0
 3460              		.loc 2 1335 1 is_stmt 0 view .LVU1075
 3461 0000 2DE9F843 		push	{r3, r4, r5, r6, r7, r8, r9, lr}
 3462              	.LCFI39:
ARM GAS  C:\Users\²Ü¼ÒºÀ\AppData\Local\Temp\ccOngKk7.s 			page 102


 3463              		.cfi_def_cfa_offset 32
 3464              		.cfi_offset 3, -32
 3465              		.cfi_offset 4, -28
 3466              		.cfi_offset 5, -24
 3467              		.cfi_offset 6, -20
 3468              		.cfi_offset 7, -16
 3469              		.cfi_offset 8, -12
 3470              		.cfi_offset 9, -8
 3471              		.cfi_offset 14, -4
1336:C:/Users/²Ü¼ÒºÀ/.iotlink/sdk/IoT_LINK/iot_link/os/liteos/base/core\los_task.c ****     LOS_TASK_CB *pstRunTsk;
1337:C:/Users/²Ü¼ÒºÀ/.iotlink/sdk/IoT_LINK/iot_link/os/liteos/base/core\los_task.c ****     LOS_DL_LIST *pstPendObj;
1338:C:/Users/²Ü¼ÒºÀ/.iotlink/sdk/IoT_LINK/iot_link/os/liteos/base/core\los_task.c **** 
1339:C:/Users/²Ü¼ÒºÀ/.iotlink/sdk/IoT_LINK/iot_link/os/liteos/base/core\los_task.c ****     pstRunTsk = g_stLosTask.pstRunTask;
 3472              		.loc 2 1339 15 view .LVU1076
 3473 0004 124B     		ldr	r3, .L234
 3474 0006 1D68     		ldr	r5, [r3]
1340:C:/Users/²Ü¼ÒºÀ/.iotlink/sdk/IoT_LINK/iot_link/os/liteos/base/core\los_task.c ****     osPriqueueDequeue(&pstRunTsk->stPendList);
 3475              		.loc 2 1340 5 view .LVU1077
 3476 0008 05F12807 		add	r7, r5, #40
1335:C:/Users/²Ü¼ÒºÀ/.iotlink/sdk/IoT_LINK/iot_link/os/liteos/base/core\los_task.c ****     LOS_TASK_CB *pstRunTsk;
 3477              		.loc 2 1335 1 view .LVU1078
 3478 000c 8046     		mov	r8, r0
1336:C:/Users/²Ü¼ÒºÀ/.iotlink/sdk/IoT_LINK/iot_link/os/liteos/base/core\los_task.c ****     LOS_TASK_CB *pstRunTsk;
 3479              		.loc 2 1336 5 is_stmt 1 view .LVU1079
1337:C:/Users/²Ü¼ÒºÀ/.iotlink/sdk/IoT_LINK/iot_link/os/liteos/base/core\los_task.c **** 
 3480              		.loc 2 1337 5 view .LVU1080
1339:C:/Users/²Ü¼ÒºÀ/.iotlink/sdk/IoT_LINK/iot_link/os/liteos/base/core\los_task.c ****     osPriqueueDequeue(&pstRunTsk->stPendList);
 3481              		.loc 2 1339 5 view .LVU1081
 3482              	.LVL278:
 3483              		.loc 2 1340 5 view .LVU1082
 3484 000e 3846     		mov	r0, r7
 3485              	.LVL279:
1335:C:/Users/²Ü¼ÒºÀ/.iotlink/sdk/IoT_LINK/iot_link/os/liteos/base/core\los_task.c ****     LOS_TASK_CB *pstRunTsk;
 3486              		.loc 2 1335 1 is_stmt 0 view .LVU1083
 3487 0010 8946     		mov	r9, r1
 3488 0012 1646     		mov	r6, r2
 3489              		.loc 2 1340 5 view .LVU1084
 3490 0014 FFF7FEFF 		bl	osPriqueueDequeue
 3491              	.LVL280:
1341:C:/Users/²Ü¼ÒºÀ/.iotlink/sdk/IoT_LINK/iot_link/os/liteos/base/core\los_task.c ****     pstRunTsk->usTaskStatus &= (~OS_TASK_STATUS_READY);
 3492              		.loc 2 1341 5 is_stmt 1 view .LVU1085
1342:C:/Users/²Ü¼ÒºÀ/.iotlink/sdk/IoT_LINK/iot_link/os/liteos/base/core\los_task.c ****     pstPendObj = &pstRunTsk->stPendList;
 3493              		.loc 2 1342 5 view .LVU1086
1343:C:/Users/²Ü¼ÒºÀ/.iotlink/sdk/IoT_LINK/iot_link/os/liteos/base/core\los_task.c ****     pstRunTsk->usTaskStatus |= uwTaskStatus;
 3494              		.loc 2 1343 5 view .LVU1087
1341:C:/Users/²Ü¼ÒºÀ/.iotlink/sdk/IoT_LINK/iot_link/os/liteos/base/core\los_task.c ****     pstRunTsk->usTaskStatus &= (~OS_TASK_STATUS_READY);
 3495              		.loc 2 1341 29 is_stmt 0 view .LVU1088
 3496 0018 AC88     		ldrh	r4, [r5, #4]
1344:C:/Users/²Ü¼ÒºÀ/.iotlink/sdk/IoT_LINK/iot_link/os/liteos/base/core\los_task.c ****     LOS_ListTailInsert(pstList,pstPendObj);
 3497              		.loc 2 1344 5 view .LVU1089
 3498 001a D8F80020 		ldr	r2, [r8]
1341:C:/Users/²Ü¼ÒºÀ/.iotlink/sdk/IoT_LINK/iot_link/os/liteos/base/core\los_task.c ****     pstPendObj = &pstRunTsk->stPendList;
 3499              		.loc 2 1341 29 view .LVU1090
 3500 001e 24F00404 		bic	r4, r4, #4
 3501              	.LBB164:
 3502              	.LBB165:
 3503              	.LBB166:
ARM GAS  C:\Users\²Ü¼ÒºÀ\AppData\Local\Temp\ccOngKk7.s 			page 103


 131:C:/Users/²Ü¼ÒºÀ/.iotlink/sdk/IoT_LINK/iot_link/os/liteos/include\los_list.h ****     pstNode->pstPrev = pstList;
 3504              		.loc 1 131 31 view .LVU1091
 3505 0022 5168     		ldr	r1, [r2, #4]
 3506              	.LBE166:
 3507              	.LBE165:
 3508              	.LBE164:
1343:C:/Users/²Ü¼ÒºÀ/.iotlink/sdk/IoT_LINK/iot_link/os/liteos/base/core\los_task.c ****     LOS_ListTailInsert(pstList,pstPendObj);
 3509              		.loc 2 1343 29 view .LVU1092
 3510 0024 44EA0903 		orr	r3, r4, r9
 3511 0028 9BB2     		uxth	r3, r3
 3512              	.LBB171:
 3513              	.LBB169:
 3514              	.LBB167:
 132:C:/Users/²Ü¼ÒºÀ/.iotlink/sdk/IoT_LINK/iot_link/os/liteos/include\los_list.h ****     pstList->pstNext->pstPrev = pstNode;
 3515              		.loc 1 132 22 view .LVU1093
 3516 002a C5E90A21 		strd	r2, r1, [r5, #40]
 3517              	.LBE167:
 3518              	.LBE169:
 3519              	.LBE171:
1343:C:/Users/²Ü¼ÒºÀ/.iotlink/sdk/IoT_LINK/iot_link/os/liteos/base/core\los_task.c ****     LOS_ListTailInsert(pstList,pstPendObj);
 3520              		.loc 2 1343 29 view .LVU1094
 3521 002e AB80     		strh	r3, [r5, #4]	@ movhi
 3522              		.loc 2 1344 5 is_stmt 1 view .LVU1095
 3523              	.LVL281:
 3524              	.LBB172:
 3525              	.LBI164:
 157:C:/Users/²Ü¼ÒºÀ/.iotlink/sdk/IoT_LINK/iot_link/os/liteos/include\los_list.h **** {
 3526              		.loc 1 157 43 view .LVU1096
 157:C:/Users/²Ü¼ÒºÀ/.iotlink/sdk/IoT_LINK/iot_link/os/liteos/include\los_list.h **** {
 3527              		.loc 1 157 43 is_stmt 0 view .LVU1097
 3528              	.LBE172:
 159:C:/Users/²Ü¼ÒºÀ/.iotlink/sdk/IoT_LINK/iot_link/os/liteos/include\los_list.h **** }
 3529              		.loc 1 159 5 is_stmt 1 view .LVU1098
 3530              	.LBB173:
 3531              	.LBB170:
 3532              	.LBI165:
 129:C:/Users/²Ü¼ÒºÀ/.iotlink/sdk/IoT_LINK/iot_link/os/liteos/include\los_list.h **** {
 3533              		.loc 1 129 43 view .LVU1099
 3534              	.LBB168:
 131:C:/Users/²Ü¼ÒºÀ/.iotlink/sdk/IoT_LINK/iot_link/os/liteos/include\los_list.h ****     pstNode->pstPrev = pstList;
 3535              		.loc 1 131 5 view .LVU1100
 133:C:/Users/²Ü¼ÒºÀ/.iotlink/sdk/IoT_LINK/iot_link/os/liteos/include\los_list.h ****     pstList->pstNext = pstNode;
 3536              		.loc 1 133 5 view .LVU1101
 133:C:/Users/²Ü¼ÒºÀ/.iotlink/sdk/IoT_LINK/iot_link/os/liteos/include\los_list.h ****     pstList->pstNext = pstNode;
 3537              		.loc 1 133 31 is_stmt 0 view .LVU1102
 3538 0030 0F60     		str	r7, [r1]
 134:C:/Users/²Ü¼ÒºÀ/.iotlink/sdk/IoT_LINK/iot_link/os/liteos/include\los_list.h **** }
 3539              		.loc 1 134 5 is_stmt 1 view .LVU1103
 134:C:/Users/²Ü¼ÒºÀ/.iotlink/sdk/IoT_LINK/iot_link/os/liteos/include\los_list.h **** }
 3540              		.loc 1 134 22 is_stmt 0 view .LVU1104
 3541 0032 5760     		str	r7, [r2, #4]
 3542              	.LVL282:
 134:C:/Users/²Ü¼ÒºÀ/.iotlink/sdk/IoT_LINK/iot_link/os/liteos/include\los_list.h **** }
 3543              		.loc 1 134 22 view .LVU1105
 3544              	.LBE168:
 3545              	.LBE170:
 3546              	.LBE173:
ARM GAS  C:\Users\²Ü¼ÒºÀ\AppData\Local\Temp\ccOngKk7.s 			page 104


1345:C:/Users/²Ü¼ÒºÀ/.iotlink/sdk/IoT_LINK/iot_link/os/liteos/base/core\los_task.c ****     if (uwTimeOut != LOS_WAIT_FOREVER)
 3547              		.loc 2 1345 5 is_stmt 1 view .LVU1106
 3548              		.loc 2 1345 8 is_stmt 0 view .LVU1107
 3549 0034 721C     		adds	r2, r6, #1
 3550 0036 08D0     		beq	.L232
1346:C:/Users/²Ü¼ÒºÀ/.iotlink/sdk/IoT_LINK/iot_link/os/liteos/base/core\los_task.c ****     {
1347:C:/Users/²Ü¼ÒºÀ/.iotlink/sdk/IoT_LINK/iot_link/os/liteos/base/core\los_task.c ****         pstRunTsk->usTaskStatus |= OS_TASK_STATUS_TIMEOUT;
 3551              		.loc 2 1347 9 is_stmt 1 view .LVU1108
 3552              		.loc 2 1347 33 is_stmt 0 view .LVU1109
 3553 0038 43F04003 		orr	r3, r3, #64
 3554 003c AB80     		strh	r3, [r5, #4]	@ movhi
1348:C:/Users/²Ü¼ÒºÀ/.iotlink/sdk/IoT_LINK/iot_link/os/liteos/base/core\los_task.c ****         osTaskAdd2TimerList((LOS_TASK_CB *)pstRunTsk, uwTimeOut);
 3555              		.loc 2 1348 9 is_stmt 1 view .LVU1110
 3556 003e 3146     		mov	r1, r6
 3557 0040 2846     		mov	r0, r5
1349:C:/Users/²Ü¼ÒºÀ/.iotlink/sdk/IoT_LINK/iot_link/os/liteos/base/core\los_task.c ****     }
1350:C:/Users/²Ü¼ÒºÀ/.iotlink/sdk/IoT_LINK/iot_link/os/liteos/base/core\los_task.c **** }
 3558              		.loc 2 1350 1 is_stmt 0 view .LVU1111
 3559 0042 BDE8F843 		pop	{r3, r4, r5, r6, r7, r8, r9, lr}
 3560              	.LCFI40:
 3561              		.cfi_remember_state
 3562              		.cfi_restore 14
 3563              		.cfi_restore 9
 3564              		.cfi_restore 8
 3565              		.cfi_restore 7
 3566              		.cfi_restore 6
 3567              		.cfi_restore 5
 3568              		.cfi_restore 4
 3569              		.cfi_restore 3
 3570              		.cfi_def_cfa_offset 0
 3571              	.LVL283:
1348:C:/Users/²Ü¼ÒºÀ/.iotlink/sdk/IoT_LINK/iot_link/os/liteos/base/core\los_task.c ****         osTaskAdd2TimerList((LOS_TASK_CB *)pstRunTsk, uwTimeOut);
 3572              		.loc 2 1348 9 view .LVU1112
 3573 0046 FFF7FEBF 		b	osTaskAdd2TimerList
 3574              	.LVL284:
 3575              	.L232:
 3576              	.LCFI41:
 3577              		.cfi_restore_state
 3578              		.loc 2 1350 1 view .LVU1113
 3579 004a BDE8F883 		pop	{r3, r4, r5, r6, r7, r8, r9, pc}
 3580              	.LVL285:
 3581              	.L235:
 3582              		.loc 2 1350 1 view .LVU1114
 3583 004e 00BF     		.align	2
 3584              	.L234:
 3585 0050 00000000 		.word	g_stLosTask
 3586              		.cfi_endproc
 3587              	.LFE312:
 3589              		.section	.text.osTaskWake,"ax",%progbits
 3590              		.align	1
 3591              		.global	osTaskWake
 3592              		.syntax unified
 3593              		.thumb
 3594              		.thumb_func
 3595              		.fpu fpv4-sp-d16
 3597              	osTaskWake:
 3598              	.LVL286:
ARM GAS  C:\Users\²Ü¼ÒºÀ\AppData\Local\Temp\ccOngKk7.s 			page 105


 3599              	.LFB313:
1351:C:/Users/²Ü¼ÒºÀ/.iotlink/sdk/IoT_LINK/iot_link/os/liteos/base/core\los_task.c **** 
1352:C:/Users/²Ü¼ÒºÀ/.iotlink/sdk/IoT_LINK/iot_link/os/liteos/base/core\los_task.c **** /**************************************************************************
1353:C:/Users/²Ü¼ÒºÀ/.iotlink/sdk/IoT_LINK/iot_link/os/liteos/base/core\los_task.c ****  Function    : osTaskWake
1354:C:/Users/²Ü¼ÒºÀ/.iotlink/sdk/IoT_LINK/iot_link/os/liteos/base/core\los_task.c ****  Description : delete the task from pendlist and also add to the priqueue
1355:C:/Users/²Ü¼ÒºÀ/.iotlink/sdk/IoT_LINK/iot_link/os/liteos/base/core\los_task.c ****  Input       : pstResumedTask --> resumed task
1356:C:/Users/²Ü¼ÒºÀ/.iotlink/sdk/IoT_LINK/iot_link/os/liteos/base/core\los_task.c ****  Output      : pstResumedTask
1357:C:/Users/²Ü¼ÒºÀ/.iotlink/sdk/IoT_LINK/iot_link/os/liteos/base/core\los_task.c ****  Return      : none
1358:C:/Users/²Ü¼ÒºÀ/.iotlink/sdk/IoT_LINK/iot_link/os/liteos/base/core\los_task.c **** **************************************************************************/
1359:C:/Users/²Ü¼ÒºÀ/.iotlink/sdk/IoT_LINK/iot_link/os/liteos/base/core\los_task.c **** LITE_OS_SEC_TEXT VOID osTaskWake(LOS_TASK_CB *pstResumedTask, UINT32 uwTaskStatus)
1360:C:/Users/²Ü¼ÒºÀ/.iotlink/sdk/IoT_LINK/iot_link/os/liteos/base/core\los_task.c **** {
 3600              		.loc 2 1360 1 is_stmt 1 view -0
 3601              		.cfi_startproc
 3602              		@ args = 0, pretend = 0, frame = 0
 3603              		@ frame_needed = 0, uses_anonymous_args = 0
1361:C:/Users/²Ü¼ÒºÀ/.iotlink/sdk/IoT_LINK/iot_link/os/liteos/base/core\los_task.c ****     LOS_ListDelete(&pstResumedTask->stPendList);
 3604              		.loc 2 1361 5 view .LVU1116
1360:C:/Users/²Ü¼ÒºÀ/.iotlink/sdk/IoT_LINK/iot_link/os/liteos/base/core\los_task.c ****     LOS_ListDelete(&pstResumedTask->stPendList);
 3605              		.loc 2 1360 1 is_stmt 0 view .LVU1117
 3606 0000 38B5     		push	{r3, r4, r5, lr}
 3607              	.LCFI42:
 3608              		.cfi_def_cfa_offset 16
 3609              		.cfi_offset 3, -16
 3610              		.cfi_offset 4, -12
 3611              		.cfi_offset 5, -8
 3612              		.cfi_offset 14, -4
 3613              		.loc 2 1361 5 view .LVU1118
 3614 0002 00F12805 		add	r5, r0, #40
1360:C:/Users/²Ü¼ÒºÀ/.iotlink/sdk/IoT_LINK/iot_link/os/liteos/base/core\los_task.c ****     LOS_ListDelete(&pstResumedTask->stPendList);
 3615              		.loc 2 1360 1 view .LVU1119
 3616 0006 0446     		mov	r4, r0
 3617              		.loc 2 1361 5 view .LVU1120
 3618 0008 2846     		mov	r0, r5
 3619              	.LVL287:
 3620              		.loc 2 1361 5 view .LVU1121
 3621 000a FFF7FEFF 		bl	LOS_ListDelete
 3622              	.LVL288:
1362:C:/Users/²Ü¼ÒºÀ/.iotlink/sdk/IoT_LINK/iot_link/os/liteos/base/core\los_task.c ****     pstResumedTask->usTaskStatus &= (~uwTaskStatus);
 3623              		.loc 2 1362 5 is_stmt 1 view .LVU1122
 3624              		.loc 2 1362 34 is_stmt 0 view .LVU1123
 3625 000e A388     		ldrh	r3, [r4, #4]
 3626 0010 23EA0101 		bic	r1, r3, r1
 3627              	.LVL289:
 3628              		.loc 2 1362 34 view .LVU1124
 3629 0014 A180     		strh	r1, [r4, #4]	@ movhi
1363:C:/Users/²Ü¼ÒºÀ/.iotlink/sdk/IoT_LINK/iot_link/os/liteos/base/core\los_task.c ****     if (pstResumedTask->usTaskStatus & OS_TASK_STATUS_TIMEOUT)
 3630              		.loc 2 1363 5 is_stmt 1 view .LVU1125
 3631              		.loc 2 1363 8 is_stmt 0 view .LVU1126
 3632 0016 4906     		lsls	r1, r1, #25
 3633 0018 06D5     		bpl	.L237
1364:C:/Users/²Ü¼ÒºÀ/.iotlink/sdk/IoT_LINK/iot_link/os/liteos/base/core\los_task.c ****     {
1365:C:/Users/²Ü¼ÒºÀ/.iotlink/sdk/IoT_LINK/iot_link/os/liteos/base/core\los_task.c ****         osTimerListDelete(pstResumedTask);
 3634              		.loc 2 1365 9 is_stmt 1 view .LVU1127
 3635 001a 2046     		mov	r0, r4
 3636 001c FFF7FEFF 		bl	osTimerListDelete
 3637              	.LVL290:
1366:C:/Users/²Ü¼ÒºÀ/.iotlink/sdk/IoT_LINK/iot_link/os/liteos/base/core\los_task.c ****         pstResumedTask->usTaskStatus &= (~OS_TASK_STATUS_TIMEOUT);
ARM GAS  C:\Users\²Ü¼ÒºÀ\AppData\Local\Temp\ccOngKk7.s 			page 106


 3638              		.loc 2 1366 9 view .LVU1128
 3639              		.loc 2 1366 38 is_stmt 0 view .LVU1129
 3640 0020 A388     		ldrh	r3, [r4, #4]
 3641 0022 23F04003 		bic	r3, r3, #64
 3642 0026 A380     		strh	r3, [r4, #4]	@ movhi
 3643              	.L237:
1367:C:/Users/²Ü¼ÒºÀ/.iotlink/sdk/IoT_LINK/iot_link/os/liteos/base/core\los_task.c ****     }
1368:C:/Users/²Ü¼ÒºÀ/.iotlink/sdk/IoT_LINK/iot_link/os/liteos/base/core\los_task.c ****     if (!(pstResumedTask->usTaskStatus & OS_TASK_STATUS_SUSPEND))
 3644              		.loc 2 1368 5 is_stmt 1 view .LVU1130
 3645              		.loc 2 1368 25 is_stmt 0 view .LVU1131
 3646 0028 A388     		ldrh	r3, [r4, #4]
 3647              		.loc 2 1368 8 view .LVU1132
 3648 002a 9A07     		lsls	r2, r3, #30
 3649 002c 08D4     		bmi	.L236
1369:C:/Users/²Ü¼ÒºÀ/.iotlink/sdk/IoT_LINK/iot_link/os/liteos/base/core\los_task.c ****     {
1370:C:/Users/²Ü¼ÒºÀ/.iotlink/sdk/IoT_LINK/iot_link/os/liteos/base/core\los_task.c ****         pstResumedTask->usTaskStatus |= OS_TASK_STATUS_READY;
 3650              		.loc 2 1370 9 is_stmt 1 view .LVU1133
 3651              		.loc 2 1370 38 is_stmt 0 view .LVU1134
 3652 002e 43F00403 		orr	r3, r3, #4
1371:C:/Users/²Ü¼ÒºÀ/.iotlink/sdk/IoT_LINK/iot_link/os/liteos/base/core\los_task.c ****         osPriqueueEnqueue(&pstResumedTask->stPendList, pstResumedTask->usPriority);
 3653              		.loc 2 1371 9 view .LVU1135
 3654 0032 E188     		ldrh	r1, [r4, #6]
1370:C:/Users/²Ü¼ÒºÀ/.iotlink/sdk/IoT_LINK/iot_link/os/liteos/base/core\los_task.c ****         osPriqueueEnqueue(&pstResumedTask->stPendList, pstResumedTask->usPriority);
 3655              		.loc 2 1370 38 view .LVU1136
 3656 0034 A380     		strh	r3, [r4, #4]	@ movhi
 3657              		.loc 2 1371 9 is_stmt 1 view .LVU1137
 3658 0036 2846     		mov	r0, r5
1372:C:/Users/²Ü¼ÒºÀ/.iotlink/sdk/IoT_LINK/iot_link/os/liteos/base/core\los_task.c ****     }
1373:C:/Users/²Ü¼ÒºÀ/.iotlink/sdk/IoT_LINK/iot_link/os/liteos/base/core\los_task.c **** }
 3659              		.loc 2 1373 1 is_stmt 0 view .LVU1138
 3660 0038 BDE83840 		pop	{r3, r4, r5, lr}
 3661              	.LCFI43:
 3662              		.cfi_remember_state
 3663              		.cfi_restore 14
 3664              		.cfi_restore 5
 3665              		.cfi_restore 4
 3666              		.cfi_restore 3
 3667              		.cfi_def_cfa_offset 0
 3668              	.LVL291:
1371:C:/Users/²Ü¼ÒºÀ/.iotlink/sdk/IoT_LINK/iot_link/os/liteos/base/core\los_task.c ****     }
 3669              		.loc 2 1371 9 view .LVU1139
 3670 003c FFF7FEBF 		b	osPriqueueEnqueue
 3671              	.LVL292:
 3672              	.L236:
 3673              	.LCFI44:
 3674              		.cfi_restore_state
 3675              		.loc 2 1373 1 view .LVU1140
 3676 0040 38BD     		pop	{r3, r4, r5, pc}
 3677              		.loc 2 1373 1 view .LVU1141
 3678              		.cfi_endproc
 3679              	.LFE313:
 3681              		.section	.text.LOS_TaskYield,"ax",%progbits
 3682              		.align	1
 3683              		.global	LOS_TaskYield
 3684              		.syntax unified
 3685              		.thumb
 3686              		.thumb_func
ARM GAS  C:\Users\²Ü¼ÒºÀ\AppData\Local\Temp\ccOngKk7.s 			page 107


 3687              		.fpu fpv4-sp-d16
 3689              	LOS_TaskYield:
 3690              	.LFB314:
1374:C:/Users/²Ü¼ÒºÀ/.iotlink/sdk/IoT_LINK/iot_link/os/liteos/base/core\los_task.c **** 
1375:C:/Users/²Ü¼ÒºÀ/.iotlink/sdk/IoT_LINK/iot_link/os/liteos/base/core\los_task.c **** /*****************************************************************************
1376:C:/Users/²Ü¼ÒºÀ/.iotlink/sdk/IoT_LINK/iot_link/os/liteos/base/core\los_task.c ****  Function : LOS_TaskYield
1377:C:/Users/²Ü¼ÒºÀ/.iotlink/sdk/IoT_LINK/iot_link/os/liteos/base/core\los_task.c ****  Description : Adjust the procedure order of specified task
1378:C:/Users/²Ü¼ÒºÀ/.iotlink/sdk/IoT_LINK/iot_link/os/liteos/base/core\los_task.c ****  Input       : usTaskPrio
1379:C:/Users/²Ü¼ÒºÀ/.iotlink/sdk/IoT_LINK/iot_link/os/liteos/base/core\los_task.c ****                uwNextTask
1380:C:/Users/²Ü¼ÒºÀ/.iotlink/sdk/IoT_LINK/iot_link/os/liteos/base/core\los_task.c ****  Output      : None
1381:C:/Users/²Ü¼ÒºÀ/.iotlink/sdk/IoT_LINK/iot_link/os/liteos/base/core\los_task.c ****  Return      : LOS_OK on success or error code on failure
1382:C:/Users/²Ü¼ÒºÀ/.iotlink/sdk/IoT_LINK/iot_link/os/liteos/base/core\los_task.c ****  *****************************************************************************/
1383:C:/Users/²Ü¼ÒºÀ/.iotlink/sdk/IoT_LINK/iot_link/os/liteos/base/core\los_task.c **** LITE_OS_SEC_TEXT_MINOR UINT32 LOS_TaskYield(VOID)
1384:C:/Users/²Ü¼ÒºÀ/.iotlink/sdk/IoT_LINK/iot_link/os/liteos/base/core\los_task.c **** {
 3691              		.loc 2 1384 1 is_stmt 1 view -0
 3692              		.cfi_startproc
 3693              		@ args = 0, pretend = 0, frame = 0
 3694              		@ frame_needed = 0, uses_anonymous_args = 0
1385:C:/Users/²Ü¼ÒºÀ/.iotlink/sdk/IoT_LINK/iot_link/os/liteos/base/core\los_task.c ****     UINT32 uwTskCount = 0;
 3695              		.loc 2 1385 5 view .LVU1143
 3696              	.LVL293:
1386:C:/Users/²Ü¼ÒºÀ/.iotlink/sdk/IoT_LINK/iot_link/os/liteos/base/core\los_task.c ****     UINTPTR uvIntSave;
 3697              		.loc 2 1386 5 view .LVU1144
1387:C:/Users/²Ü¼ÒºÀ/.iotlink/sdk/IoT_LINK/iot_link/os/liteos/base/core\los_task.c **** 
1388:C:/Users/²Ü¼ÒºÀ/.iotlink/sdk/IoT_LINK/iot_link/os/liteos/base/core\los_task.c ****     if(g_stLosTask.pstRunTask->uwTaskID >= g_uwTskMaxNum)
 3698              		.loc 2 1388 5 view .LVU1145
1384:C:/Users/²Ü¼ÒºÀ/.iotlink/sdk/IoT_LINK/iot_link/os/liteos/base/core\los_task.c ****     UINT32 uwTskCount = 0;
 3699              		.loc 2 1384 1 is_stmt 0 view .LVU1146
 3700 0000 38B5     		push	{r3, r4, r5, lr}
 3701              	.LCFI45:
 3702              		.cfi_def_cfa_offset 16
 3703              		.cfi_offset 3, -16
 3704              		.cfi_offset 4, -12
 3705              		.cfi_offset 5, -8
 3706              		.cfi_offset 14, -4
 3707              		.loc 2 1388 19 view .LVU1147
 3708 0002 174D     		ldr	r5, .L247
 3709              		.loc 2 1388 7 view .LVU1148
 3710 0004 174A     		ldr	r2, .L247+4
 3711              		.loc 2 1388 19 view .LVU1149
 3712 0006 2B68     		ldr	r3, [r5]
 3713              		.loc 2 1388 7 view .LVU1150
 3714 0008 1268     		ldr	r2, [r2]
 3715 000a 1969     		ldr	r1, [r3, #16]
 3716 000c 9142     		cmp	r1, r2
 3717 000e 25D2     		bcs	.L245
1389:C:/Users/²Ü¼ÒºÀ/.iotlink/sdk/IoT_LINK/iot_link/os/liteos/base/core\los_task.c ****     {
1390:C:/Users/²Ü¼ÒºÀ/.iotlink/sdk/IoT_LINK/iot_link/os/liteos/base/core\los_task.c ****         return LOS_ERRNO_TSK_ID_INVALID;
1391:C:/Users/²Ü¼ÒºÀ/.iotlink/sdk/IoT_LINK/iot_link/os/liteos/base/core\los_task.c ****     }
1392:C:/Users/²Ü¼ÒºÀ/.iotlink/sdk/IoT_LINK/iot_link/os/liteos/base/core\los_task.c ****     if(!(g_stLosTask.pstRunTask->usTaskStatus & OS_TASK_STATUS_READY))
 3718              		.loc 2 1392 5 is_stmt 1 view .LVU1151
 3719              		.loc 2 1392 7 is_stmt 0 view .LVU1152
 3720 0010 9888     		ldrh	r0, [r3, #4]
 3721 0012 10F00400 		ands	r0, r0, #4
 3722 0016 1BD0     		beq	.L242
 3723              	.LBB176:
 3724              	.LBI176:
ARM GAS  C:\Users\²Ü¼ÒºÀ\AppData\Local\Temp\ccOngKk7.s 			page 108


1383:C:/Users/²Ü¼ÒºÀ/.iotlink/sdk/IoT_LINK/iot_link/os/liteos/base/core\los_task.c **** {
 3725              		.loc 2 1383 31 is_stmt 1 view .LVU1153
 3726              	.LBB177:
1393:C:/Users/²Ü¼ÒºÀ/.iotlink/sdk/IoT_LINK/iot_link/os/liteos/base/core\los_task.c ****     {
1394:C:/Users/²Ü¼ÒºÀ/.iotlink/sdk/IoT_LINK/iot_link/os/liteos/base/core\los_task.c ****         return LOS_OK;
1395:C:/Users/²Ü¼ÒºÀ/.iotlink/sdk/IoT_LINK/iot_link/os/liteos/base/core\los_task.c ****     }
1396:C:/Users/²Ü¼ÒºÀ/.iotlink/sdk/IoT_LINK/iot_link/os/liteos/base/core\los_task.c ****     uvIntSave = LOS_IntLock();
 3727              		.loc 2 1396 5 view .LVU1154
 3728              		.loc 2 1396 17 is_stmt 0 view .LVU1155
 3729 0018 FFF7FEFF 		bl	LOS_IntLock
 3730              	.LVL294:
1397:C:/Users/²Ü¼ÒºÀ/.iotlink/sdk/IoT_LINK/iot_link/os/liteos/base/core\los_task.c ****     uwTskCount = osPriqueueSize(g_stLosTask.pstRunTask->usPriority);
 3731              		.loc 2 1397 55 view .LVU1156
 3732 001c 2B68     		ldr	r3, [r5]
1396:C:/Users/²Ü¼ÒºÀ/.iotlink/sdk/IoT_LINK/iot_link/os/liteos/base/core\los_task.c ****     uwTskCount = osPriqueueSize(g_stLosTask.pstRunTask->usPriority);
 3733              		.loc 2 1396 17 view .LVU1157
 3734 001e 0446     		mov	r4, r0
 3735              	.LVL295:
 3736              		.loc 2 1397 5 is_stmt 1 view .LVU1158
 3737              		.loc 2 1397 18 is_stmt 0 view .LVU1159
 3738 0020 D888     		ldrh	r0, [r3, #6]
 3739              	.LVL296:
 3740              		.loc 2 1397 18 view .LVU1160
 3741 0022 FFF7FEFF 		bl	osPriqueueSize
 3742              	.LVL297:
1398:C:/Users/²Ü¼ÒºÀ/.iotlink/sdk/IoT_LINK/iot_link/os/liteos/base/core\los_task.c ****     if (uwTskCount > 1)
 3743              		.loc 2 1398 5 is_stmt 1 view .LVU1161
 3744              		.loc 2 1398 8 is_stmt 0 view .LVU1162
 3745 0026 0128     		cmp	r0, #1
 3746 0028 13D9     		bls	.L244
1399:C:/Users/²Ü¼ÒºÀ/.iotlink/sdk/IoT_LINK/iot_link/os/liteos/base/core\los_task.c ****     {
1400:C:/Users/²Ü¼ÒºÀ/.iotlink/sdk/IoT_LINK/iot_link/os/liteos/base/core\los_task.c ****         LOS_ListDelete(&(g_stLosTask.pstRunTask->stPendList));
 3747              		.loc 2 1400 9 is_stmt 1 view .LVU1163
 3748 002a 2868     		ldr	r0, [r5]
 3749              	.LVL298:
 3750              		.loc 2 1400 9 is_stmt 0 view .LVU1164
 3751 002c 2830     		adds	r0, r0, #40
 3752 002e FFF7FEFF 		bl	LOS_ListDelete
 3753              	.LVL299:
1401:C:/Users/²Ü¼ÒºÀ/.iotlink/sdk/IoT_LINK/iot_link/os/liteos/base/core\los_task.c ****         g_stLosTask.pstRunTask->usTaskStatus |= OS_TASK_STATUS_READY;
 3754              		.loc 2 1401 9 is_stmt 1 view .LVU1165
 3755              		.loc 2 1401 20 is_stmt 0 view .LVU1166
 3756 0032 2868     		ldr	r0, [r5]
 3757              		.loc 2 1401 46 view .LVU1167
 3758 0034 8388     		ldrh	r3, [r0, #4]
1402:C:/Users/²Ü¼ÒºÀ/.iotlink/sdk/IoT_LINK/iot_link/os/liteos/base/core\los_task.c ****         osPriqueueEnqueue(&(g_stLosTask.pstRunTask->stPendList), g_stLosTask.pstRunTask->usPriority
 3759              		.loc 2 1402 9 view .LVU1168
 3760 0036 C188     		ldrh	r1, [r0, #6]
1401:C:/Users/²Ü¼ÒºÀ/.iotlink/sdk/IoT_LINK/iot_link/os/liteos/base/core\los_task.c ****         g_stLosTask.pstRunTask->usTaskStatus |= OS_TASK_STATUS_READY;
 3761              		.loc 2 1401 46 view .LVU1169
 3762 0038 43F00403 		orr	r3, r3, #4
 3763 003c 8380     		strh	r3, [r0, #4]	@ movhi
 3764              		.loc 2 1402 9 is_stmt 1 view .LVU1170
 3765 003e 2830     		adds	r0, r0, #40
 3766 0040 FFF7FEFF 		bl	osPriqueueEnqueue
 3767              	.LVL300:
1403:C:/Users/²Ü¼ÒºÀ/.iotlink/sdk/IoT_LINK/iot_link/os/liteos/base/core\los_task.c ****     }
ARM GAS  C:\Users\²Ü¼ÒºÀ\AppData\Local\Temp\ccOngKk7.s 			page 109


1404:C:/Users/²Ü¼ÒºÀ/.iotlink/sdk/IoT_LINK/iot_link/os/liteos/base/core\los_task.c ****     else
1405:C:/Users/²Ü¼ÒºÀ/.iotlink/sdk/IoT_LINK/iot_link/os/liteos/base/core\los_task.c ****     {
1406:C:/Users/²Ü¼ÒºÀ/.iotlink/sdk/IoT_LINK/iot_link/os/liteos/base/core\los_task.c ****         (VOID)LOS_IntRestore(uvIntSave);
1407:C:/Users/²Ü¼ÒºÀ/.iotlink/sdk/IoT_LINK/iot_link/os/liteos/base/core\los_task.c ****         return LOS_ERRNO_TSK_YIELD_NOT_ENOUGH_TASK;
1408:C:/Users/²Ü¼ÒºÀ/.iotlink/sdk/IoT_LINK/iot_link/os/liteos/base/core\los_task.c ****     }
1409:C:/Users/²Ü¼ÒºÀ/.iotlink/sdk/IoT_LINK/iot_link/os/liteos/base/core\los_task.c **** 
1410:C:/Users/²Ü¼ÒºÀ/.iotlink/sdk/IoT_LINK/iot_link/os/liteos/base/core\los_task.c ****     (VOID)LOS_IntRestore(uvIntSave);
 3768              		.loc 2 1410 5 view .LVU1171
 3769 0044 2046     		mov	r0, r4
 3770 0046 FFF7FEFF 		bl	LOS_IntRestore
 3771              	.LVL301:
1411:C:/Users/²Ü¼ÒºÀ/.iotlink/sdk/IoT_LINK/iot_link/os/liteos/base/core\los_task.c ****     LOS_Schedule();
 3772              		.loc 2 1411 5 view .LVU1172
 3773 004a FFF7FEFF 		bl	LOS_Schedule
 3774              	.LVL302:
1412:C:/Users/²Ü¼ÒºÀ/.iotlink/sdk/IoT_LINK/iot_link/os/liteos/base/core\los_task.c ****     return LOS_OK;
 3775              		.loc 2 1412 5 view .LVU1173
 3776              		.loc 2 1412 12 is_stmt 0 view .LVU1174
 3777 004e 0020     		movs	r0, #0
 3778              	.LVL303:
 3779              	.L242:
 3780              		.loc 2 1412 12 view .LVU1175
 3781              	.LBE177:
 3782              	.LBE176:
1413:C:/Users/²Ü¼ÒºÀ/.iotlink/sdk/IoT_LINK/iot_link/os/liteos/base/core\los_task.c **** }
 3783              		.loc 2 1413 1 view .LVU1176
 3784 0050 38BD     		pop	{r3, r4, r5, pc}
 3785              	.LVL304:
 3786              	.L244:
 3787              	.LBB179:
 3788              	.LBB178:
1406:C:/Users/²Ü¼ÒºÀ/.iotlink/sdk/IoT_LINK/iot_link/os/liteos/base/core\los_task.c ****         return LOS_ERRNO_TSK_YIELD_NOT_ENOUGH_TASK;
 3789              		.loc 2 1406 9 is_stmt 1 view .LVU1177
 3790 0052 2046     		mov	r0, r4
 3791              	.LVL305:
1406:C:/Users/²Ü¼ÒºÀ/.iotlink/sdk/IoT_LINK/iot_link/os/liteos/base/core\los_task.c ****         return LOS_ERRNO_TSK_YIELD_NOT_ENOUGH_TASK;
 3792              		.loc 2 1406 9 is_stmt 0 view .LVU1178
 3793 0054 FFF7FEFF 		bl	LOS_IntRestore
 3794              	.LVL306:
1407:C:/Users/²Ü¼ÒºÀ/.iotlink/sdk/IoT_LINK/iot_link/os/liteos/base/core\los_task.c ****     }
 3795              		.loc 2 1407 9 is_stmt 1 view .LVU1179
1407:C:/Users/²Ü¼ÒºÀ/.iotlink/sdk/IoT_LINK/iot_link/os/liteos/base/core\los_task.c ****     }
 3796              		.loc 2 1407 16 is_stmt 0 view .LVU1180
 3797 0058 0348     		ldr	r0, .L247+8
 3798 005a F9E7     		b	.L242
 3799              	.LVL307:
 3800              	.L245:
1407:C:/Users/²Ü¼ÒºÀ/.iotlink/sdk/IoT_LINK/iot_link/os/liteos/base/core\los_task.c ****     }
 3801              		.loc 2 1407 16 view .LVU1181
 3802              	.LBE178:
 3803              	.LBE179:
1390:C:/Users/²Ü¼ÒºÀ/.iotlink/sdk/IoT_LINK/iot_link/os/liteos/base/core\los_task.c ****     }
 3804              		.loc 2 1390 16 view .LVU1182
 3805 005c 0348     		ldr	r0, .L247+12
 3806 005e F7E7     		b	.L242
 3807              	.L248:
 3808              		.align	2
ARM GAS  C:\Users\²Ü¼ÒºÀ\AppData\Local\Temp\ccOngKk7.s 			page 110


 3809              	.L247:
 3810 0060 00000000 		.word	g_stLosTask
 3811 0064 00000000 		.word	g_uwTskMaxNum
 3812 0068 10020002 		.word	33554960
 3813 006c 07020002 		.word	33554951
 3814              		.cfi_endproc
 3815              	.LFE314:
 3817              		.section	.text.LOS_TaskDelay,"ax",%progbits
 3818              		.align	1
 3819              		.global	LOS_TaskDelay
 3820              		.syntax unified
 3821              		.thumb
 3822              		.thumb_func
 3823              		.fpu fpv4-sp-d16
 3825              	LOS_TaskDelay:
 3826              	.LVL308:
 3827              	.LFB308:
1180:C:/Users/²Ü¼ÒºÀ/.iotlink/sdk/IoT_LINK/iot_link/os/liteos/base/core\los_task.c ****     UINTPTR uvIntSave;
 3828              		.loc 2 1180 1 is_stmt 1 view -0
 3829              		.cfi_startproc
 3830              		@ args = 0, pretend = 0, frame = 0
 3831              		@ frame_needed = 0, uses_anonymous_args = 0
1181:C:/Users/²Ü¼ÒºÀ/.iotlink/sdk/IoT_LINK/iot_link/os/liteos/base/core\los_task.c **** 
 3832              		.loc 2 1181 5 view .LVU1184
1183:C:/Users/²Ü¼ÒºÀ/.iotlink/sdk/IoT_LINK/iot_link/os/liteos/base/core\los_task.c ****     {
 3833              		.loc 2 1183 5 view .LVU1185
1180:C:/Users/²Ü¼ÒºÀ/.iotlink/sdk/IoT_LINK/iot_link/os/liteos/base/core\los_task.c ****     UINTPTR uvIntSave;
 3834              		.loc 2 1180 1 is_stmt 0 view .LVU1186
 3835 0000 F8B5     		push	{r3, r4, r5, r6, r7, lr}
 3836              	.LCFI46:
 3837              		.cfi_def_cfa_offset 24
 3838              		.cfi_offset 3, -24
 3839              		.cfi_offset 4, -20
 3840              		.cfi_offset 5, -16
 3841              		.cfi_offset 6, -12
 3842              		.cfi_offset 7, -8
 3843              		.cfi_offset 14, -4
1180:C:/Users/²Ü¼ÒºÀ/.iotlink/sdk/IoT_LINK/iot_link/os/liteos/base/core\los_task.c ****     UINTPTR uvIntSave;
 3844              		.loc 2 1180 1 view .LVU1187
 3845 0002 0546     		mov	r5, r0
1183:C:/Users/²Ü¼ÒºÀ/.iotlink/sdk/IoT_LINK/iot_link/os/liteos/base/core\los_task.c ****     {
 3846              		.loc 2 1183 9 view .LVU1188
 3847 0004 FFF7FEFF 		bl	osIntNumGet
 3848              	.LVL309:
1183:C:/Users/²Ü¼ÒºÀ/.iotlink/sdk/IoT_LINK/iot_link/os/liteos/base/core\los_task.c ****     {
 3849              		.loc 2 1183 8 view .LVU1189
 3850 0008 0446     		mov	r4, r0
 3851 000a 18BB     		cbnz	r0, .L252
1188:C:/Users/²Ü¼ÒºÀ/.iotlink/sdk/IoT_LINK/iot_link/os/liteos/base/core\los_task.c ****     {
 3852              		.loc 2 1188 5 is_stmt 1 view .LVU1190
1188:C:/Users/²Ü¼ÒºÀ/.iotlink/sdk/IoT_LINK/iot_link/os/liteos/base/core\los_task.c ****     {
 3853              		.loc 2 1188 25 is_stmt 0 view .LVU1191
 3854 000c 134B     		ldr	r3, .L254
1188:C:/Users/²Ü¼ÒºÀ/.iotlink/sdk/IoT_LINK/iot_link/os/liteos/base/core\los_task.c ****     {
 3855              		.loc 2 1188 8 view .LVU1192
 3856 000e 1B88     		ldrh	r3, [r3]
 3857 0010 13BB     		cbnz	r3, .L253
ARM GAS  C:\Users\²Ü¼ÒºÀ\AppData\Local\Temp\ccOngKk7.s 			page 111


1193:C:/Users/²Ü¼ÒºÀ/.iotlink/sdk/IoT_LINK/iot_link/os/liteos/base/core\los_task.c ****     {
 3858              		.loc 2 1193 5 is_stmt 1 view .LVU1193
1193:C:/Users/²Ü¼ÒºÀ/.iotlink/sdk/IoT_LINK/iot_link/os/liteos/base/core\los_task.c ****     {
 3859              		.loc 2 1193 8 is_stmt 0 view .LVU1194
 3860 0012 1DB9     		cbnz	r5, .L251
1195:C:/Users/²Ü¼ÒºÀ/.iotlink/sdk/IoT_LINK/iot_link/os/liteos/base/core\los_task.c ****     }
 3861              		.loc 2 1195 9 is_stmt 1 view .LVU1195
1209:C:/Users/²Ü¼ÒºÀ/.iotlink/sdk/IoT_LINK/iot_link/os/liteos/base/core\los_task.c **** 
 3862              		.loc 2 1209 1 is_stmt 0 view .LVU1196
 3863 0014 BDE8F840 		pop	{r3, r4, r5, r6, r7, lr}
 3864              	.LCFI47:
 3865              		.cfi_remember_state
 3866              		.cfi_restore 14
 3867              		.cfi_restore 7
 3868              		.cfi_restore 6
 3869              		.cfi_restore 5
 3870              		.cfi_restore 4
 3871              		.cfi_restore 3
 3872              		.cfi_def_cfa_offset 0
 3873              	.LVL310:
1195:C:/Users/²Ü¼ÒºÀ/.iotlink/sdk/IoT_LINK/iot_link/os/liteos/base/core\los_task.c ****     }
 3874              		.loc 2 1195 16 view .LVU1197
 3875 0018 FFF7FEBF 		b	LOS_TaskYield
 3876              	.LVL311:
 3877              	.L251:
 3878              	.LCFI48:
 3879              		.cfi_restore_state
1199:C:/Users/²Ü¼ÒºÀ/.iotlink/sdk/IoT_LINK/iot_link/os/liteos/base/core\los_task.c ****         osPriqueueDequeue(&(g_stLosTask.pstRunTask->stPendList));
 3880              		.loc 2 1199 9 is_stmt 1 view .LVU1198
1199:C:/Users/²Ü¼ÒºÀ/.iotlink/sdk/IoT_LINK/iot_link/os/liteos/base/core\los_task.c ****         osPriqueueDequeue(&(g_stLosTask.pstRunTask->stPendList));
 3881              		.loc 2 1199 21 is_stmt 0 view .LVU1199
 3882 001c FFF7FEFF 		bl	LOS_IntLock
 3883              	.LVL312:
1200:C:/Users/²Ü¼ÒºÀ/.iotlink/sdk/IoT_LINK/iot_link/os/liteos/base/core\los_task.c ****         g_stLosTask.pstRunTask->usTaskStatus &= (~OS_TASK_STATUS_READY);
 3884              		.loc 2 1200 40 view .LVU1200
 3885 0020 0F4F     		ldr	r7, .L254+4
1199:C:/Users/²Ü¼ÒºÀ/.iotlink/sdk/IoT_LINK/iot_link/os/liteos/base/core\los_task.c ****         osPriqueueDequeue(&(g_stLosTask.pstRunTask->stPendList));
 3886              		.loc 2 1199 21 view .LVU1201
 3887 0022 0646     		mov	r6, r0
 3888              	.LVL313:
1200:C:/Users/²Ü¼ÒºÀ/.iotlink/sdk/IoT_LINK/iot_link/os/liteos/base/core\los_task.c ****         g_stLosTask.pstRunTask->usTaskStatus &= (~OS_TASK_STATUS_READY);
 3889              		.loc 2 1200 9 is_stmt 1 view .LVU1202
 3890 0024 3868     		ldr	r0, [r7]
 3891              	.LVL314:
1200:C:/Users/²Ü¼ÒºÀ/.iotlink/sdk/IoT_LINK/iot_link/os/liteos/base/core\los_task.c ****         g_stLosTask.pstRunTask->usTaskStatus &= (~OS_TASK_STATUS_READY);
 3892              		.loc 2 1200 9 is_stmt 0 view .LVU1203
 3893 0026 2830     		adds	r0, r0, #40
 3894 0028 FFF7FEFF 		bl	osPriqueueDequeue
 3895              	.LVL315:
1201:C:/Users/²Ü¼ÒºÀ/.iotlink/sdk/IoT_LINK/iot_link/os/liteos/base/core\los_task.c ****         osTaskAdd2TimerList((LOS_TASK_CB *)g_stLosTask.pstRunTask, uwTick);
 3896              		.loc 2 1201 9 is_stmt 1 view .LVU1204
1201:C:/Users/²Ü¼ÒºÀ/.iotlink/sdk/IoT_LINK/iot_link/os/liteos/base/core\los_task.c ****         osTaskAdd2TimerList((LOS_TASK_CB *)g_stLosTask.pstRunTask, uwTick);
 3897              		.loc 2 1201 20 is_stmt 0 view .LVU1205
 3898 002c 3868     		ldr	r0, [r7]
1201:C:/Users/²Ü¼ÒºÀ/.iotlink/sdk/IoT_LINK/iot_link/os/liteos/base/core\los_task.c ****         osTaskAdd2TimerList((LOS_TASK_CB *)g_stLosTask.pstRunTask, uwTick);
 3899              		.loc 2 1201 46 view .LVU1206
 3900 002e 8388     		ldrh	r3, [r0, #4]
ARM GAS  C:\Users\²Ü¼ÒºÀ\AppData\Local\Temp\ccOngKk7.s 			page 112


 3901 0030 23F00403 		bic	r3, r3, #4
 3902 0034 8380     		strh	r3, [r0, #4]	@ movhi
1202:C:/Users/²Ü¼ÒºÀ/.iotlink/sdk/IoT_LINK/iot_link/os/liteos/base/core\los_task.c ****         g_stLosTask.pstRunTask->usTaskStatus |= OS_TASK_STATUS_DELAY;
 3903              		.loc 2 1202 9 is_stmt 1 view .LVU1207
 3904 0036 2946     		mov	r1, r5
 3905 0038 FFF7FEFF 		bl	osTaskAdd2TimerList
 3906              	.LVL316:
1203:C:/Users/²Ü¼ÒºÀ/.iotlink/sdk/IoT_LINK/iot_link/os/liteos/base/core\los_task.c ****         (VOID)LOS_IntRestore(uvIntSave);
 3907              		.loc 2 1203 9 view .LVU1208
1203:C:/Users/²Ü¼ÒºÀ/.iotlink/sdk/IoT_LINK/iot_link/os/liteos/base/core\los_task.c ****         (VOID)LOS_IntRestore(uvIntSave);
 3908              		.loc 2 1203 20 is_stmt 0 view .LVU1209
 3909 003c 3A68     		ldr	r2, [r7]
1203:C:/Users/²Ü¼ÒºÀ/.iotlink/sdk/IoT_LINK/iot_link/os/liteos/base/core\los_task.c ****         (VOID)LOS_IntRestore(uvIntSave);
 3910              		.loc 2 1203 46 view .LVU1210
 3911 003e 9388     		ldrh	r3, [r2, #4]
 3912 0040 43F02003 		orr	r3, r3, #32
 3913 0044 9380     		strh	r3, [r2, #4]	@ movhi
1204:C:/Users/²Ü¼ÒºÀ/.iotlink/sdk/IoT_LINK/iot_link/os/liteos/base/core\los_task.c ****         LOS_Schedule();
 3914              		.loc 2 1204 9 is_stmt 1 view .LVU1211
 3915 0046 3046     		mov	r0, r6
 3916 0048 FFF7FEFF 		bl	LOS_IntRestore
 3917              	.LVL317:
1205:C:/Users/²Ü¼ÒºÀ/.iotlink/sdk/IoT_LINK/iot_link/os/liteos/base/core\los_task.c ****     }
 3918              		.loc 2 1205 9 view .LVU1212
 3919 004c FFF7FEFF 		bl	LOS_Schedule
 3920              	.LVL318:
1208:C:/Users/²Ü¼ÒºÀ/.iotlink/sdk/IoT_LINK/iot_link/os/liteos/base/core\los_task.c **** }
 3921              		.loc 2 1208 5 view .LVU1213
 3922              	.L249:
1209:C:/Users/²Ü¼ÒºÀ/.iotlink/sdk/IoT_LINK/iot_link/os/liteos/base/core\los_task.c **** 
 3923              		.loc 2 1209 1 is_stmt 0 view .LVU1214
 3924 0050 2046     		mov	r0, r4
 3925 0052 F8BD     		pop	{r3, r4, r5, r6, r7, pc}
 3926              	.LVL319:
 3927              	.L252:
1185:C:/Users/²Ü¼ÒºÀ/.iotlink/sdk/IoT_LINK/iot_link/os/liteos/base/core\los_task.c ****     }
 3928              		.loc 2 1185 16 view .LVU1215
 3929 0054 034C     		ldr	r4, .L254+8
 3930 0056 FBE7     		b	.L249
 3931              	.L253:
1190:C:/Users/²Ü¼ÒºÀ/.iotlink/sdk/IoT_LINK/iot_link/os/liteos/base/core\los_task.c ****     }
 3932              		.loc 2 1190 16 view .LVU1216
 3933 0058 034C     		ldr	r4, .L254+12
 3934 005a F9E7     		b	.L249
 3935              	.L255:
 3936              		.align	2
 3937              	.L254:
 3938 005c 00000000 		.word	g_usLosTaskLock
 3939 0060 00000000 		.word	g_stLosTask
 3940 0064 0D020003 		.word	50332173
 3941 0068 0E020002 		.word	33554958
 3942              		.cfi_endproc
 3943              	.LFE308:
 3945              		.section	.text.LOS_TaskLock,"ax",%progbits
 3946              		.align	1
 3947              		.global	LOS_TaskLock
 3948              		.syntax unified
ARM GAS  C:\Users\²Ü¼ÒºÀ\AppData\Local\Temp\ccOngKk7.s 			page 113


 3949              		.thumb
 3950              		.thumb_func
 3951              		.fpu fpv4-sp-d16
 3953              	LOS_TaskLock:
 3954              	.LFB315:
1414:C:/Users/²Ü¼ÒºÀ/.iotlink/sdk/IoT_LINK/iot_link/os/liteos/base/core\los_task.c **** 
1415:C:/Users/²Ü¼ÒºÀ/.iotlink/sdk/IoT_LINK/iot_link/os/liteos/base/core\los_task.c **** /*****************************************************************************
1416:C:/Users/²Ü¼ÒºÀ/.iotlink/sdk/IoT_LINK/iot_link/os/liteos/base/core\los_task.c ****  Function : LOS_TaskLock
1417:C:/Users/²Ü¼ÒºÀ/.iotlink/sdk/IoT_LINK/iot_link/os/liteos/base/core\los_task.c ****  Description : Task lock
1418:C:/Users/²Ü¼ÒºÀ/.iotlink/sdk/IoT_LINK/iot_link/os/liteos/base/core\los_task.c ****  Input       : None
1419:C:/Users/²Ü¼ÒºÀ/.iotlink/sdk/IoT_LINK/iot_link/os/liteos/base/core\los_task.c ****  Output      : None
1420:C:/Users/²Ü¼ÒºÀ/.iotlink/sdk/IoT_LINK/iot_link/os/liteos/base/core\los_task.c ****  Return      : None
1421:C:/Users/²Ü¼ÒºÀ/.iotlink/sdk/IoT_LINK/iot_link/os/liteos/base/core\los_task.c ****  *****************************************************************************/
1422:C:/Users/²Ü¼ÒºÀ/.iotlink/sdk/IoT_LINK/iot_link/os/liteos/base/core\los_task.c **** LITE_OS_SEC_TEXT_MINOR VOID LOS_TaskLock(VOID)
1423:C:/Users/²Ü¼ÒºÀ/.iotlink/sdk/IoT_LINK/iot_link/os/liteos/base/core\los_task.c **** {
 3955              		.loc 2 1423 1 is_stmt 1 view -0
 3956              		.cfi_startproc
 3957              		@ args = 0, pretend = 0, frame = 0
 3958              		@ frame_needed = 0, uses_anonymous_args = 0
1424:C:/Users/²Ü¼ÒºÀ/.iotlink/sdk/IoT_LINK/iot_link/os/liteos/base/core\los_task.c ****     UINTPTR uvIntSave;
 3959              		.loc 2 1424 5 view .LVU1218
1425:C:/Users/²Ü¼ÒºÀ/.iotlink/sdk/IoT_LINK/iot_link/os/liteos/base/core\los_task.c **** 
1426:C:/Users/²Ü¼ÒºÀ/.iotlink/sdk/IoT_LINK/iot_link/os/liteos/base/core\los_task.c ****     uvIntSave = LOS_IntLock();
 3960              		.loc 2 1426 5 view .LVU1219
1423:C:/Users/²Ü¼ÒºÀ/.iotlink/sdk/IoT_LINK/iot_link/os/liteos/base/core\los_task.c ****     UINTPTR uvIntSave;
 3961              		.loc 2 1423 1 is_stmt 0 view .LVU1220
 3962 0000 08B5     		push	{r3, lr}
 3963              	.LCFI49:
 3964              		.cfi_def_cfa_offset 8
 3965              		.cfi_offset 3, -8
 3966              		.cfi_offset 14, -4
 3967              		.loc 2 1426 17 view .LVU1221
 3968 0002 FFF7FEFF 		bl	LOS_IntLock
 3969              	.LVL320:
1427:C:/Users/²Ü¼ÒºÀ/.iotlink/sdk/IoT_LINK/iot_link/os/liteos/base/core\los_task.c ****     g_usLosTaskLock++;
 3970              		.loc 2 1427 5 is_stmt 1 view .LVU1222
 3971              		.loc 2 1427 20 is_stmt 0 view .LVU1223
 3972 0006 044A     		ldr	r2, .L257
 3973 0008 1388     		ldrh	r3, [r2]
 3974 000a 0133     		adds	r3, r3, #1
 3975 000c 1380     		strh	r3, [r2]	@ movhi
1428:C:/Users/²Ü¼ÒºÀ/.iotlink/sdk/IoT_LINK/iot_link/os/liteos/base/core\los_task.c ****     (VOID)LOS_IntRestore(uvIntSave);
 3976              		.loc 2 1428 5 is_stmt 1 view .LVU1224
1429:C:/Users/²Ü¼ÒºÀ/.iotlink/sdk/IoT_LINK/iot_link/os/liteos/base/core\los_task.c **** }
 3977              		.loc 2 1429 1 is_stmt 0 view .LVU1225
 3978 000e BDE80840 		pop	{r3, lr}
 3979              	.LCFI50:
 3980              		.cfi_restore 14
 3981              		.cfi_restore 3
 3982              		.cfi_def_cfa_offset 0
1428:C:/Users/²Ü¼ÒºÀ/.iotlink/sdk/IoT_LINK/iot_link/os/liteos/base/core\los_task.c ****     (VOID)LOS_IntRestore(uvIntSave);
 3983              		.loc 2 1428 5 view .LVU1226
 3984 0012 FFF7FEBF 		b	LOS_IntRestore
 3985              	.LVL321:
 3986              	.L258:
1428:C:/Users/²Ü¼ÒºÀ/.iotlink/sdk/IoT_LINK/iot_link/os/liteos/base/core\los_task.c ****     (VOID)LOS_IntRestore(uvIntSave);
 3987              		.loc 2 1428 5 view .LVU1227
ARM GAS  C:\Users\²Ü¼ÒºÀ\AppData\Local\Temp\ccOngKk7.s 			page 114


 3988 0016 00BF     		.align	2
 3989              	.L257:
 3990 0018 00000000 		.word	g_usLosTaskLock
 3991              		.cfi_endproc
 3992              	.LFE315:
 3994              		.section	.text.LOS_TaskUnlock,"ax",%progbits
 3995              		.align	1
 3996              		.global	LOS_TaskUnlock
 3997              		.syntax unified
 3998              		.thumb
 3999              		.thumb_func
 4000              		.fpu fpv4-sp-d16
 4002              	LOS_TaskUnlock:
 4003              	.LFB316:
1430:C:/Users/²Ü¼ÒºÀ/.iotlink/sdk/IoT_LINK/iot_link/os/liteos/base/core\los_task.c **** 
1431:C:/Users/²Ü¼ÒºÀ/.iotlink/sdk/IoT_LINK/iot_link/os/liteos/base/core\los_task.c **** /*****************************************************************************
1432:C:/Users/²Ü¼ÒºÀ/.iotlink/sdk/IoT_LINK/iot_link/os/liteos/base/core\los_task.c ****  Function : LOS_TaskUnlock
1433:C:/Users/²Ü¼ÒºÀ/.iotlink/sdk/IoT_LINK/iot_link/os/liteos/base/core\los_task.c ****  Description : Task unlock
1434:C:/Users/²Ü¼ÒºÀ/.iotlink/sdk/IoT_LINK/iot_link/os/liteos/base/core\los_task.c ****  Input       : None
1435:C:/Users/²Ü¼ÒºÀ/.iotlink/sdk/IoT_LINK/iot_link/os/liteos/base/core\los_task.c ****  Output      : None
1436:C:/Users/²Ü¼ÒºÀ/.iotlink/sdk/IoT_LINK/iot_link/os/liteos/base/core\los_task.c ****  Return      : None
1437:C:/Users/²Ü¼ÒºÀ/.iotlink/sdk/IoT_LINK/iot_link/os/liteos/base/core\los_task.c ****  *****************************************************************************/
1438:C:/Users/²Ü¼ÒºÀ/.iotlink/sdk/IoT_LINK/iot_link/os/liteos/base/core\los_task.c **** LITE_OS_SEC_TEXT_MINOR VOID LOS_TaskUnlock(VOID)
1439:C:/Users/²Ü¼ÒºÀ/.iotlink/sdk/IoT_LINK/iot_link/os/liteos/base/core\los_task.c **** {
 4004              		.loc 2 1439 1 is_stmt 1 view -0
 4005              		.cfi_startproc
 4006              		@ args = 0, pretend = 0, frame = 0
 4007              		@ frame_needed = 0, uses_anonymous_args = 0
1440:C:/Users/²Ü¼ÒºÀ/.iotlink/sdk/IoT_LINK/iot_link/os/liteos/base/core\los_task.c ****     UINTPTR uvIntSave;
 4008              		.loc 2 1440 5 view .LVU1229
1441:C:/Users/²Ü¼ÒºÀ/.iotlink/sdk/IoT_LINK/iot_link/os/liteos/base/core\los_task.c **** 
1442:C:/Users/²Ü¼ÒºÀ/.iotlink/sdk/IoT_LINK/iot_link/os/liteos/base/core\los_task.c ****     uvIntSave = LOS_IntLock();
 4009              		.loc 2 1442 5 view .LVU1230
1439:C:/Users/²Ü¼ÒºÀ/.iotlink/sdk/IoT_LINK/iot_link/os/liteos/base/core\los_task.c ****     UINTPTR uvIntSave;
 4010              		.loc 2 1439 1 is_stmt 0 view .LVU1231
 4011 0000 08B5     		push	{r3, lr}
 4012              	.LCFI51:
 4013              		.cfi_def_cfa_offset 8
 4014              		.cfi_offset 3, -8
 4015              		.cfi_offset 14, -4
 4016              		.loc 2 1442 17 view .LVU1232
 4017 0002 FFF7FEFF 		bl	LOS_IntLock
 4018              	.LVL322:
1443:C:/Users/²Ü¼ÒºÀ/.iotlink/sdk/IoT_LINK/iot_link/os/liteos/base/core\los_task.c ****     if (g_usLosTaskLock > 0)
 4019              		.loc 2 1443 25 view .LVU1233
 4020 0006 0949     		ldr	r1, .L264
 4021 0008 0B88     		ldrh	r3, [r1]
1442:C:/Users/²Ü¼ÒºÀ/.iotlink/sdk/IoT_LINK/iot_link/os/liteos/base/core\los_task.c ****     if (g_usLosTaskLock > 0)
 4022              		.loc 2 1442 17 view .LVU1234
 4023 000a 0246     		mov	r2, r0
 4024              	.LVL323:
 4025              		.loc 2 1443 5 is_stmt 1 view .LVU1235
 4026              		.loc 2 1443 8 is_stmt 0 view .LVU1236
 4027 000c 4BB1     		cbz	r3, .L260
1444:C:/Users/²Ü¼ÒºÀ/.iotlink/sdk/IoT_LINK/iot_link/os/liteos/base/core\los_task.c ****     {
1445:C:/Users/²Ü¼ÒºÀ/.iotlink/sdk/IoT_LINK/iot_link/os/liteos/base/core\los_task.c ****         g_usLosTaskLock--;
 4028              		.loc 2 1445 9 is_stmt 1 view .LVU1237
ARM GAS  C:\Users\²Ü¼ÒºÀ\AppData\Local\Temp\ccOngKk7.s 			page 115


 4029              		.loc 2 1445 24 is_stmt 0 view .LVU1238
 4030 000e 013B     		subs	r3, r3, #1
 4031 0010 9BB2     		uxth	r3, r3
 4032 0012 0B80     		strh	r3, [r1]	@ movhi
1446:C:/Users/²Ü¼ÒºÀ/.iotlink/sdk/IoT_LINK/iot_link/os/liteos/base/core\los_task.c ****         if (0 == g_usLosTaskLock)
 4033              		.loc 2 1446 9 is_stmt 1 view .LVU1239
 4034              		.loc 2 1446 12 is_stmt 0 view .LVU1240
 4035 0014 2BB9     		cbnz	r3, .L260
1447:C:/Users/²Ü¼ÒºÀ/.iotlink/sdk/IoT_LINK/iot_link/os/liteos/base/core\los_task.c ****         {
1448:C:/Users/²Ü¼ÒºÀ/.iotlink/sdk/IoT_LINK/iot_link/os/liteos/base/core\los_task.c ****             (VOID)LOS_IntRestore(uvIntSave);
 4036              		.loc 2 1448 13 is_stmt 1 view .LVU1241
 4037 0016 FFF7FEFF 		bl	LOS_IntRestore
 4038              	.LVL324:
1449:C:/Users/²Ü¼ÒºÀ/.iotlink/sdk/IoT_LINK/iot_link/os/liteos/base/core\los_task.c ****             LOS_Schedule();
 4039              		.loc 2 1449 13 view .LVU1242
1450:C:/Users/²Ü¼ÒºÀ/.iotlink/sdk/IoT_LINK/iot_link/os/liteos/base/core\los_task.c ****             return;
1451:C:/Users/²Ü¼ÒºÀ/.iotlink/sdk/IoT_LINK/iot_link/os/liteos/base/core\los_task.c ****         }
1452:C:/Users/²Ü¼ÒºÀ/.iotlink/sdk/IoT_LINK/iot_link/os/liteos/base/core\los_task.c ****     }
1453:C:/Users/²Ü¼ÒºÀ/.iotlink/sdk/IoT_LINK/iot_link/os/liteos/base/core\los_task.c **** 
1454:C:/Users/²Ü¼ÒºÀ/.iotlink/sdk/IoT_LINK/iot_link/os/liteos/base/core\los_task.c ****     (VOID)LOS_IntRestore(uvIntSave);
1455:C:/Users/²Ü¼ÒºÀ/.iotlink/sdk/IoT_LINK/iot_link/os/liteos/base/core\los_task.c **** }
 4040              		.loc 2 1455 1 is_stmt 0 view .LVU1243
 4041 001a BDE80840 		pop	{r3, lr}
 4042              	.LCFI52:
 4043              		.cfi_remember_state
 4044              		.cfi_restore 14
 4045              		.cfi_restore 3
 4046              		.cfi_def_cfa_offset 0
1449:C:/Users/²Ü¼ÒºÀ/.iotlink/sdk/IoT_LINK/iot_link/os/liteos/base/core\los_task.c ****             LOS_Schedule();
 4047              		.loc 2 1449 13 view .LVU1244
 4048 001e FFF7FEBF 		b	LOS_Schedule
 4049              	.LVL325:
 4050              	.L260:
 4051              	.LCFI53:
 4052              		.cfi_restore_state
1454:C:/Users/²Ü¼ÒºÀ/.iotlink/sdk/IoT_LINK/iot_link/os/liteos/base/core\los_task.c **** }
 4053              		.loc 2 1454 5 is_stmt 1 view .LVU1245
 4054              		.loc 2 1455 1 is_stmt 0 view .LVU1246
 4055 0022 BDE80840 		pop	{r3, lr}
 4056              	.LCFI54:
 4057              		.cfi_restore 14
 4058              		.cfi_restore 3
 4059              		.cfi_def_cfa_offset 0
1454:C:/Users/²Ü¼ÒºÀ/.iotlink/sdk/IoT_LINK/iot_link/os/liteos/base/core\los_task.c **** }
 4060              		.loc 2 1454 5 view .LVU1247
 4061 0026 1046     		mov	r0, r2
 4062              	.LVL326:
1454:C:/Users/²Ü¼ÒºÀ/.iotlink/sdk/IoT_LINK/iot_link/os/liteos/base/core\los_task.c **** }
 4063              		.loc 2 1454 5 view .LVU1248
 4064 0028 FFF7FEBF 		b	LOS_IntRestore
 4065              	.LVL327:
 4066              	.L265:
1454:C:/Users/²Ü¼ÒºÀ/.iotlink/sdk/IoT_LINK/iot_link/os/liteos/base/core\los_task.c **** }
 4067              		.loc 2 1454 5 view .LVU1249
 4068              		.align	2
 4069              	.L264:
 4070 002c 00000000 		.word	g_usLosTaskLock
ARM GAS  C:\Users\²Ü¼ÒºÀ\AppData\Local\Temp\ccOngKk7.s 			page 116


 4071              		.cfi_endproc
 4072              	.LFE316:
 4074              		.section	.text.LOS_TaskInfoGet,"ax",%progbits
 4075              		.align	1
 4076              		.global	LOS_TaskInfoGet
 4077              		.syntax unified
 4078              		.thumb
 4079              		.thumb_func
 4080              		.fpu fpv4-sp-d16
 4082              	LOS_TaskInfoGet:
 4083              	.LVL328:
 4084              	.LFB317:
1456:C:/Users/²Ü¼ÒºÀ/.iotlink/sdk/IoT_LINK/iot_link/os/liteos/base/core\los_task.c **** 
1457:C:/Users/²Ü¼ÒºÀ/.iotlink/sdk/IoT_LINK/iot_link/os/liteos/base/core\los_task.c **** /*****************************************************************************
1458:C:/Users/²Ü¼ÒºÀ/.iotlink/sdk/IoT_LINK/iot_link/os/liteos/base/core\los_task.c ****  Function : LOS_TaskInfoGet
1459:C:/Users/²Ü¼ÒºÀ/.iotlink/sdk/IoT_LINK/iot_link/os/liteos/base/core\los_task.c ****  Description : Get the information of the task
1460:C:/Users/²Ü¼ÒºÀ/.iotlink/sdk/IoT_LINK/iot_link/os/liteos/base/core\los_task.c ****  Input       : uwTaskID
1461:C:/Users/²Ü¼ÒºÀ/.iotlink/sdk/IoT_LINK/iot_link/os/liteos/base/core\los_task.c ****  Output      : pstTaskInfo
1462:C:/Users/²Ü¼ÒºÀ/.iotlink/sdk/IoT_LINK/iot_link/os/liteos/base/core\los_task.c ****  Return      : LOS_OK on success or error code on failure
1463:C:/Users/²Ü¼ÒºÀ/.iotlink/sdk/IoT_LINK/iot_link/os/liteos/base/core\los_task.c ****  *****************************************************************************/
1464:C:/Users/²Ü¼ÒºÀ/.iotlink/sdk/IoT_LINK/iot_link/os/liteos/base/core\los_task.c **** LITE_OS_SEC_TEXT_MINOR UINT32 LOS_TaskInfoGet(UINT32 uwTaskID, TSK_INFO_S *pstTaskInfo)
1465:C:/Users/²Ü¼ÒºÀ/.iotlink/sdk/IoT_LINK/iot_link/os/liteos/base/core\los_task.c **** {
 4085              		.loc 2 1465 1 is_stmt 1 view -0
 4086              		.cfi_startproc
 4087              		@ args = 0, pretend = 0, frame = 0
 4088              		@ frame_needed = 0, uses_anonymous_args = 0
1466:C:/Users/²Ü¼ÒºÀ/.iotlink/sdk/IoT_LINK/iot_link/os/liteos/base/core\los_task.c ****     UINT32    uwIntSave;
 4089              		.loc 2 1466 5 view .LVU1251
1467:C:/Users/²Ü¼ÒºÀ/.iotlink/sdk/IoT_LINK/iot_link/os/liteos/base/core\los_task.c ****     LOS_TASK_CB *pstTaskCB;
 4090              		.loc 2 1467 5 view .LVU1252
1468:C:/Users/²Ü¼ÒºÀ/.iotlink/sdk/IoT_LINK/iot_link/os/liteos/base/core\los_task.c ****     UINT32 * puwStack;
 4091              		.loc 2 1468 5 view .LVU1253
1469:C:/Users/²Ü¼ÒºÀ/.iotlink/sdk/IoT_LINK/iot_link/os/liteos/base/core\los_task.c **** 
1470:C:/Users/²Ü¼ÒºÀ/.iotlink/sdk/IoT_LINK/iot_link/os/liteos/base/core\los_task.c ****     if (NULL == pstTaskInfo)
 4092              		.loc 2 1470 5 view .LVU1254
1465:C:/Users/²Ü¼ÒºÀ/.iotlink/sdk/IoT_LINK/iot_link/os/liteos/base/core\los_task.c ****     UINT32    uwIntSave;
 4093              		.loc 2 1465 1 is_stmt 0 view .LVU1255
 4094 0000 2DE9F843 		push	{r3, r4, r5, r6, r7, r8, r9, lr}
 4095              	.LCFI55:
 4096              		.cfi_def_cfa_offset 32
 4097              		.cfi_offset 3, -32
 4098              		.cfi_offset 4, -28
 4099              		.cfi_offset 5, -24
 4100              		.cfi_offset 6, -20
 4101              		.cfi_offset 7, -16
 4102              		.cfi_offset 8, -12
 4103              		.cfi_offset 9, -8
 4104              		.cfi_offset 14, -4
1465:C:/Users/²Ü¼ÒºÀ/.iotlink/sdk/IoT_LINK/iot_link/os/liteos/base/core\los_task.c ****     UINT32    uwIntSave;
 4105              		.loc 2 1465 1 view .LVU1256
 4106 0004 8146     		mov	r9, r0
 4107              		.loc 2 1470 8 view .LVU1257
 4108 0006 0C46     		mov	r4, r1
 4109 0008 0029     		cmp	r1, #0
 4110 000a 65D0     		beq	.L277
1471:C:/Users/²Ü¼ÒºÀ/.iotlink/sdk/IoT_LINK/iot_link/os/liteos/base/core\los_task.c ****     {
1472:C:/Users/²Ü¼ÒºÀ/.iotlink/sdk/IoT_LINK/iot_link/os/liteos/base/core\los_task.c ****         return LOS_ERRNO_TSK_PTR_NULL;
ARM GAS  C:\Users\²Ü¼ÒºÀ\AppData\Local\Temp\ccOngKk7.s 			page 117


1473:C:/Users/²Ü¼ÒºÀ/.iotlink/sdk/IoT_LINK/iot_link/os/liteos/base/core\los_task.c ****     }
1474:C:/Users/²Ü¼ÒºÀ/.iotlink/sdk/IoT_LINK/iot_link/os/liteos/base/core\los_task.c **** 
1475:C:/Users/²Ü¼ÒºÀ/.iotlink/sdk/IoT_LINK/iot_link/os/liteos/base/core\los_task.c ****     if (OS_CHECK_TSK_PID_NOIDLE(uwTaskID))
 4111              		.loc 2 1475 5 is_stmt 1 view .LVU1258
 4112              		.loc 2 1475 9 is_stmt 0 view .LVU1259
 4113 000c 344B     		ldr	r3, .L282
 4114              		.loc 2 1475 8 view .LVU1260
 4115 000e 1B68     		ldr	r3, [r3]
 4116 0010 8342     		cmp	r3, r0
 4117 0012 63D9     		bls	.L278
1476:C:/Users/²Ü¼ÒºÀ/.iotlink/sdk/IoT_LINK/iot_link/os/liteos/base/core\los_task.c ****     {
1477:C:/Users/²Ü¼ÒºÀ/.iotlink/sdk/IoT_LINK/iot_link/os/liteos/base/core\los_task.c ****         return LOS_ERRNO_TSK_ID_INVALID;
1478:C:/Users/²Ü¼ÒºÀ/.iotlink/sdk/IoT_LINK/iot_link/os/liteos/base/core\los_task.c ****     }
1479:C:/Users/²Ü¼ÒºÀ/.iotlink/sdk/IoT_LINK/iot_link/os/liteos/base/core\los_task.c **** 
1480:C:/Users/²Ü¼ÒºÀ/.iotlink/sdk/IoT_LINK/iot_link/os/liteos/base/core\los_task.c ****     pstTaskCB = OS_TCB_FROM_TID(uwTaskID);
 4118              		.loc 2 1480 5 is_stmt 1 view .LVU1261
 4119              		.loc 2 1480 15 is_stmt 0 view .LVU1262
 4120 0014 334B     		ldr	r3, .L282+4
 4121              		.loc 2 1480 17 view .LVU1263
 4122 0016 5426     		movs	r6, #84
 4123              		.loc 2 1480 15 view .LVU1264
 4124 0018 D3F80080 		ldr	r8, [r3]
 4125              		.loc 2 1480 17 view .LVU1265
 4126 001c 4643     		muls	r6, r0, r6
 4127              		.loc 2 1480 15 view .LVU1266
 4128 001e 08EB0605 		add	r5, r8, r6
 4129              	.LVL329:
1481:C:/Users/²Ü¼ÒºÀ/.iotlink/sdk/IoT_LINK/iot_link/os/liteos/base/core\los_task.c ****     uwIntSave = LOS_IntLock();
 4130              		.loc 2 1481 5 is_stmt 1 view .LVU1267
 4131              		.loc 2 1481 17 is_stmt 0 view .LVU1268
 4132 0022 FFF7FEFF 		bl	LOS_IntLock
 4133              	.LVL330:
1482:C:/Users/²Ü¼ÒºÀ/.iotlink/sdk/IoT_LINK/iot_link/os/liteos/base/core\los_task.c **** 
1483:C:/Users/²Ü¼ÒºÀ/.iotlink/sdk/IoT_LINK/iot_link/os/liteos/base/core\los_task.c ****     if (OS_TASK_STATUS_UNUSED & pstTaskCB->usTaskStatus)
 4134              		.loc 2 1483 42 view .LVU1269
 4135 0026 AB88     		ldrh	r3, [r5, #4]
 4136              		.loc 2 1483 8 view .LVU1270
 4137 0028 DA07     		lsls	r2, r3, #31
1481:C:/Users/²Ü¼ÒºÀ/.iotlink/sdk/IoT_LINK/iot_link/os/liteos/base/core\los_task.c ****     uwIntSave = LOS_IntLock();
 4138              		.loc 2 1481 17 view .LVU1271
 4139 002a 0746     		mov	r7, r0
 4140              	.LVL331:
 4141              		.loc 2 1483 5 is_stmt 1 view .LVU1272
 4142              		.loc 2 1483 8 is_stmt 0 view .LVU1273
 4143 002c 04D5     		bpl	.L268
1484:C:/Users/²Ü¼ÒºÀ/.iotlink/sdk/IoT_LINK/iot_link/os/liteos/base/core\los_task.c ****     {
1485:C:/Users/²Ü¼ÒºÀ/.iotlink/sdk/IoT_LINK/iot_link/os/liteos/base/core\los_task.c ****         (VOID)LOS_IntRestore(uwIntSave);
 4144              		.loc 2 1485 9 is_stmt 1 view .LVU1274
 4145 002e FFF7FEFF 		bl	LOS_IntRestore
 4146              	.LVL332:
1486:C:/Users/²Ü¼ÒºÀ/.iotlink/sdk/IoT_LINK/iot_link/os/liteos/base/core\los_task.c ****         return LOS_ERRNO_TSK_NOT_CREATED;
 4147              		.loc 2 1486 9 view .LVU1275
 4148              		.loc 2 1486 16 is_stmt 0 view .LVU1276
 4149 0032 2D48     		ldr	r0, .L282+8
 4150              	.LVL333:
 4151              	.L266:
1487:C:/Users/²Ü¼ÒºÀ/.iotlink/sdk/IoT_LINK/iot_link/os/liteos/base/core\los_task.c ****     }
ARM GAS  C:\Users\²Ü¼ÒºÀ\AppData\Local\Temp\ccOngKk7.s 			page 118


1488:C:/Users/²Ü¼ÒºÀ/.iotlink/sdk/IoT_LINK/iot_link/os/liteos/base/core\los_task.c **** 
1489:C:/Users/²Ü¼ÒºÀ/.iotlink/sdk/IoT_LINK/iot_link/os/liteos/base/core\los_task.c ****     pstTaskInfo->uwSP = (UINT32)pstTaskCB->pStackPointer;
1490:C:/Users/²Ü¼ÒºÀ/.iotlink/sdk/IoT_LINK/iot_link/os/liteos/base/core\los_task.c ****     pstTaskInfo->usTaskStatus = pstTaskCB->usTaskStatus;
1491:C:/Users/²Ü¼ÒºÀ/.iotlink/sdk/IoT_LINK/iot_link/os/liteos/base/core\los_task.c ****     pstTaskInfo->usTaskPrio = pstTaskCB->usPriority;
1492:C:/Users/²Ü¼ÒºÀ/.iotlink/sdk/IoT_LINK/iot_link/os/liteos/base/core\los_task.c ****     pstTaskInfo->uwStackSize  = pstTaskCB->uwStackSize;
1493:C:/Users/²Ü¼ÒºÀ/.iotlink/sdk/IoT_LINK/iot_link/os/liteos/base/core\los_task.c ****     pstTaskInfo->uwTopOfStack = pstTaskCB->uwTopOfStack;
1494:C:/Users/²Ü¼ÒºÀ/.iotlink/sdk/IoT_LINK/iot_link/os/liteos/base/core\los_task.c ****     pstTaskInfo->uwEvent = pstTaskCB->uwEvent;
1495:C:/Users/²Ü¼ÒºÀ/.iotlink/sdk/IoT_LINK/iot_link/os/liteos/base/core\los_task.c ****     pstTaskInfo->uwEventMask = pstTaskCB->uwEventMask;
1496:C:/Users/²Ü¼ÒºÀ/.iotlink/sdk/IoT_LINK/iot_link/os/liteos/base/core\los_task.c ****     pstTaskInfo->uwSemID = pstTaskCB->pTaskSem != NULL ? ((SEM_CB_S *)(pstTaskCB->pTaskSem))->usSem
1497:C:/Users/²Ü¼ÒºÀ/.iotlink/sdk/IoT_LINK/iot_link/os/liteos/base/core\los_task.c ****     pstTaskInfo->uwMuxID = pstTaskCB->pTaskMux != NULL ? ((MUX_CB_S *)(pstTaskCB->pTaskMux))->ucMux
1498:C:/Users/²Ü¼ÒºÀ/.iotlink/sdk/IoT_LINK/iot_link/os/liteos/base/core\los_task.c ****     pstTaskInfo->pTaskSem = pstTaskCB->pTaskSem;
1499:C:/Users/²Ü¼ÒºÀ/.iotlink/sdk/IoT_LINK/iot_link/os/liteos/base/core\los_task.c ****     pstTaskInfo->pTaskMux = pstTaskCB->pTaskMux;
1500:C:/Users/²Ü¼ÒºÀ/.iotlink/sdk/IoT_LINK/iot_link/os/liteos/base/core\los_task.c ****     pstTaskInfo->uwTaskID = uwTaskID;
1501:C:/Users/²Ü¼ÒºÀ/.iotlink/sdk/IoT_LINK/iot_link/os/liteos/base/core\los_task.c **** 
1502:C:/Users/²Ü¼ÒºÀ/.iotlink/sdk/IoT_LINK/iot_link/os/liteos/base/core\los_task.c ****     (VOID)strncpy(pstTaskInfo->acName, pstTaskCB->pcTaskName, LOS_TASK_NAMELEN - 1);
1503:C:/Users/²Ü¼ÒºÀ/.iotlink/sdk/IoT_LINK/iot_link/os/liteos/base/core\los_task.c ****     pstTaskInfo->acName[LOS_TASK_NAMELEN - 1] = '\0';
1504:C:/Users/²Ü¼ÒºÀ/.iotlink/sdk/IoT_LINK/iot_link/os/liteos/base/core\los_task.c **** 
1505:C:/Users/²Ü¼ÒºÀ/.iotlink/sdk/IoT_LINK/iot_link/os/liteos/base/core\los_task.c ****     pstTaskInfo->uwBottomOfStack = TRUNCATE(((UINT32)(pstTaskCB->uwTopOfStack) + (pstTaskCB->uwStac
1506:C:/Users/²Ü¼ÒºÀ/.iotlink/sdk/IoT_LINK/iot_link/os/liteos/base/core\los_task.c ****     pstTaskInfo->uwCurrUsed = pstTaskInfo->uwBottomOfStack - pstTaskInfo->uwSP;
1507:C:/Users/²Ü¼ÒºÀ/.iotlink/sdk/IoT_LINK/iot_link/os/liteos/base/core\los_task.c **** 
1508:C:/Users/²Ü¼ÒºÀ/.iotlink/sdk/IoT_LINK/iot_link/os/liteos/base/core\los_task.c ****     if (OS_TASK_MAGIC_WORD == *(UINT32 *)pstTaskInfo->uwTopOfStack)
1509:C:/Users/²Ü¼ÒºÀ/.iotlink/sdk/IoT_LINK/iot_link/os/liteos/base/core\los_task.c ****     {
1510:C:/Users/²Ü¼ÒºÀ/.iotlink/sdk/IoT_LINK/iot_link/os/liteos/base/core\los_task.c ****         puwStack = (UINT32 *)(pstTaskInfo->uwTopOfStack + 4);
1511:C:/Users/²Ü¼ÒºÀ/.iotlink/sdk/IoT_LINK/iot_link/os/liteos/base/core\los_task.c ****         while ((puwStack < (UINT32 *)pstTaskInfo->uwSP) && (*puwStack == 0xCACACACA))
1512:C:/Users/²Ü¼ÒºÀ/.iotlink/sdk/IoT_LINK/iot_link/os/liteos/base/core\los_task.c ****         {
1513:C:/Users/²Ü¼ÒºÀ/.iotlink/sdk/IoT_LINK/iot_link/os/liteos/base/core\los_task.c ****             puwStack += 1;
1514:C:/Users/²Ü¼ÒºÀ/.iotlink/sdk/IoT_LINK/iot_link/os/liteos/base/core\los_task.c ****         }
1515:C:/Users/²Ü¼ÒºÀ/.iotlink/sdk/IoT_LINK/iot_link/os/liteos/base/core\los_task.c **** 
1516:C:/Users/²Ü¼ÒºÀ/.iotlink/sdk/IoT_LINK/iot_link/os/liteos/base/core\los_task.c ****         pstTaskInfo->uwPeakUsed = pstTaskCB->uwStackSize - ((UINT32)puwStack - pstTaskInfo->uwTopOf
1517:C:/Users/²Ü¼ÒºÀ/.iotlink/sdk/IoT_LINK/iot_link/os/liteos/base/core\los_task.c ****         pstTaskInfo->bOvf = FALSE;
1518:C:/Users/²Ü¼ÒºÀ/.iotlink/sdk/IoT_LINK/iot_link/os/liteos/base/core\los_task.c ****     }
1519:C:/Users/²Ü¼ÒºÀ/.iotlink/sdk/IoT_LINK/iot_link/os/liteos/base/core\los_task.c ****     else
1520:C:/Users/²Ü¼ÒºÀ/.iotlink/sdk/IoT_LINK/iot_link/os/liteos/base/core\los_task.c ****     {
1521:C:/Users/²Ü¼ÒºÀ/.iotlink/sdk/IoT_LINK/iot_link/os/liteos/base/core\los_task.c ****         pstTaskInfo->uwPeakUsed = 0xFFFFFFFF;
1522:C:/Users/²Ü¼ÒºÀ/.iotlink/sdk/IoT_LINK/iot_link/os/liteos/base/core\los_task.c ****         pstTaskInfo->bOvf = TRUE;
1523:C:/Users/²Ü¼ÒºÀ/.iotlink/sdk/IoT_LINK/iot_link/os/liteos/base/core\los_task.c ****     }
1524:C:/Users/²Ü¼ÒºÀ/.iotlink/sdk/IoT_LINK/iot_link/os/liteos/base/core\los_task.c **** 
1525:C:/Users/²Ü¼ÒºÀ/.iotlink/sdk/IoT_LINK/iot_link/os/liteos/base/core\los_task.c ****     (VOID)LOS_IntRestore(uwIntSave);
1526:C:/Users/²Ü¼ÒºÀ/.iotlink/sdk/IoT_LINK/iot_link/os/liteos/base/core\los_task.c **** 
1527:C:/Users/²Ü¼ÒºÀ/.iotlink/sdk/IoT_LINK/iot_link/os/liteos/base/core\los_task.c ****     return LOS_OK;
1528:C:/Users/²Ü¼ÒºÀ/.iotlink/sdk/IoT_LINK/iot_link/os/liteos/base/core\los_task.c **** }
 4152              		.loc 2 1528 1 view .LVU1277
 4153 0034 BDE8F883 		pop	{r3, r4, r5, r6, r7, r8, r9, pc}
 4154              	.LVL334:
 4155              	.L268:
1489:C:/Users/²Ü¼ÒºÀ/.iotlink/sdk/IoT_LINK/iot_link/os/liteos/base/core\los_task.c ****     pstTaskInfo->usTaskStatus = pstTaskCB->usTaskStatus;
 4156              		.loc 2 1489 5 is_stmt 1 view .LVU1278
1494:C:/Users/²Ü¼ÒºÀ/.iotlink/sdk/IoT_LINK/iot_link/os/liteos/base/core\los_task.c ****     pstTaskInfo->uwEventMask = pstTaskCB->uwEventMask;
 4157              		.loc 2 1494 26 is_stmt 0 view .LVU1279
 4158 0038 05F13C02 		add	r2, r5, #60
 4159 003c 07CA     		ldm	r2, {r0, r1, r2}
 4160              	.LVL335:
1489:C:/Users/²Ü¼ÒºÀ/.iotlink/sdk/IoT_LINK/iot_link/os/liteos/base/core\los_task.c ****     pstTaskInfo->usTaskStatus = pstTaskCB->usTaskStatus;
 4161              		.loc 2 1489 42 view .LVU1280
 4162 003e 58F80680 		ldr	r8, [r8, r6]
1490:C:/Users/²Ü¼ÒºÀ/.iotlink/sdk/IoT_LINK/iot_link/os/liteos/base/core\los_task.c ****     pstTaskInfo->usTaskPrio = pstTaskCB->usPriority;
 4163              		.loc 2 1490 31 view .LVU1281
ARM GAS  C:\Users\²Ü¼ÒºÀ\AppData\Local\Temp\ccOngKk7.s 			page 119


 4164 0042 A384     		strh	r3, [r4, #36]	@ movhi
1491:C:/Users/²Ü¼ÒºÀ/.iotlink/sdk/IoT_LINK/iot_link/os/liteos/base/core\los_task.c ****     pstTaskInfo->uwStackSize  = pstTaskCB->uwStackSize;
 4165              		.loc 2 1491 29 view .LVU1282
 4166 0044 EB88     		ldrh	r3, [r5, #6]
 4167 0046 E384     		strh	r3, [r4, #38]	@ movhi
1492:C:/Users/²Ü¼ÒºÀ/.iotlink/sdk/IoT_LINK/iot_link/os/liteos/base/core\los_task.c ****     pstTaskInfo->uwTopOfStack = pstTaskCB->uwTopOfStack;
 4168              		.loc 2 1492 31 view .LVU1283
 4169 0048 AB68     		ldr	r3, [r5, #8]
1493:C:/Users/²Ü¼ÒºÀ/.iotlink/sdk/IoT_LINK/iot_link/os/liteos/base/core\los_task.c ****     pstTaskInfo->uwEvent = pstTaskCB->uwEvent;
 4170              		.loc 2 1493 42 view .LVU1284
 4171 004a EE68     		ldr	r6, [r5, #12]
1492:C:/Users/²Ü¼ÒºÀ/.iotlink/sdk/IoT_LINK/iot_link/os/liteos/base/core\los_task.c ****     pstTaskInfo->uwTopOfStack = pstTaskCB->uwTopOfStack;
 4172              		.loc 2 1492 31 view .LVU1285
 4173 004c A364     		str	r3, [r4, #72]
1494:C:/Users/²Ü¼ÒºÀ/.iotlink/sdk/IoT_LINK/iot_link/os/liteos/base/core\los_task.c ****     pstTaskInfo->uwEventMask = pstTaskCB->uwEventMask;
 4174              		.loc 2 1494 26 view .LVU1286
 4175 004e 04F13803 		add	r3, r4, #56
1489:C:/Users/²Ü¼ÒºÀ/.iotlink/sdk/IoT_LINK/iot_link/os/liteos/base/core\los_task.c ****     pstTaskInfo->usTaskStatus = pstTaskCB->usTaskStatus;
 4176              		.loc 2 1489 23 view .LVU1287
 4177 0052 C4F85480 		str	r8, [r4, #84]
1490:C:/Users/²Ü¼ÒºÀ/.iotlink/sdk/IoT_LINK/iot_link/os/liteos/base/core\los_task.c ****     pstTaskInfo->usTaskPrio = pstTaskCB->usPriority;
 4178              		.loc 2 1490 5 is_stmt 1 view .LVU1288
1491:C:/Users/²Ü¼ÒºÀ/.iotlink/sdk/IoT_LINK/iot_link/os/liteos/base/core\los_task.c ****     pstTaskInfo->uwStackSize  = pstTaskCB->uwStackSize;
 4179              		.loc 2 1491 5 view .LVU1289
1492:C:/Users/²Ü¼ÒºÀ/.iotlink/sdk/IoT_LINK/iot_link/os/liteos/base/core\los_task.c ****     pstTaskInfo->uwTopOfStack = pstTaskCB->uwTopOfStack;
 4180              		.loc 2 1492 5 view .LVU1290
1493:C:/Users/²Ü¼ÒºÀ/.iotlink/sdk/IoT_LINK/iot_link/os/liteos/base/core\los_task.c ****     pstTaskInfo->uwEvent = pstTaskCB->uwEvent;
 4181              		.loc 2 1493 5 view .LVU1291
1493:C:/Users/²Ü¼ÒºÀ/.iotlink/sdk/IoT_LINK/iot_link/os/liteos/base/core\los_task.c ****     pstTaskInfo->uwEvent = pstTaskCB->uwEvent;
 4182              		.loc 2 1493 31 is_stmt 0 view .LVU1292
 4183 0056 E664     		str	r6, [r4, #76]
1494:C:/Users/²Ü¼ÒºÀ/.iotlink/sdk/IoT_LINK/iot_link/os/liteos/base/core\los_task.c ****     pstTaskInfo->uwEventMask = pstTaskCB->uwEventMask;
 4184              		.loc 2 1494 5 is_stmt 1 view .LVU1293
1494:C:/Users/²Ü¼ÒºÀ/.iotlink/sdk/IoT_LINK/iot_link/os/liteos/base/core\los_task.c ****     pstTaskInfo->uwEventMask = pstTaskCB->uwEventMask;
 4185              		.loc 2 1494 26 is_stmt 0 view .LVU1294
 4186 0058 83E80700 		stm	r3, {r0, r1, r2}
1495:C:/Users/²Ü¼ÒºÀ/.iotlink/sdk/IoT_LINK/iot_link/os/liteos/base/core\los_task.c ****     pstTaskInfo->uwSemID = pstTaskCB->pTaskSem != NULL ? ((SEM_CB_S *)(pstTaskCB->pTaskSem))->usSem
 4187              		.loc 2 1495 5 is_stmt 1 view .LVU1295
1496:C:/Users/²Ü¼ÒºÀ/.iotlink/sdk/IoT_LINK/iot_link/os/liteos/base/core\los_task.c ****     pstTaskInfo->uwMuxID = pstTaskCB->pTaskMux != NULL ? ((MUX_CB_S *)(pstTaskCB->pTaskMux))->ucMux
 4188              		.loc 2 1496 37 is_stmt 0 view .LVU1296
 4189 005c AA69     		ldr	r2, [r5, #24]
1495:C:/Users/²Ü¼ÒºÀ/.iotlink/sdk/IoT_LINK/iot_link/os/liteos/base/core\los_task.c ****     pstTaskInfo->uwSemID = pstTaskCB->pTaskSem != NULL ? ((SEM_CB_S *)(pstTaskCB->pTaskSem))->usSem
 4190              		.loc 2 1495 30 view .LVU1297
 4191 005e AB6C     		ldr	r3, [r5, #72]
 4192 0060 6364     		str	r3, [r4, #68]
1496:C:/Users/²Ü¼ÒºÀ/.iotlink/sdk/IoT_LINK/iot_link/os/liteos/base/core\los_task.c ****     pstTaskInfo->uwMuxID = pstTaskCB->pTaskMux != NULL ? ((MUX_CB_S *)(pstTaskCB->pTaskMux))->ucMux
 4193              		.loc 2 1496 5 is_stmt 1 view .LVU1298
1496:C:/Users/²Ü¼ÒºÀ/.iotlink/sdk/IoT_LINK/iot_link/os/liteos/base/core\los_task.c ****     pstTaskInfo->uwMuxID = pstTaskCB->pTaskMux != NULL ? ((MUX_CB_S *)(pstTaskCB->pTaskMux))->ucMux
 4194              		.loc 2 1496 103 is_stmt 0 view .LVU1299
 4195 0062 52B3     		cbz	r2, .L279
1496:C:/Users/²Ü¼ÒºÀ/.iotlink/sdk/IoT_LINK/iot_link/os/liteos/base/core\los_task.c ****     pstTaskInfo->uwMuxID = pstTaskCB->pTaskMux != NULL ? ((MUX_CB_S *)(pstTaskCB->pTaskMux))->ucMux
 4196              		.loc 2 1496 103 discriminator 1 view .LVU1300
 4197 0064 D388     		ldrh	r3, [r2, #6]
 4198              	.L269:
1496:C:/Users/²Ü¼ÒºÀ/.iotlink/sdk/IoT_LINK/iot_link/os/liteos/base/core\los_task.c ****     pstTaskInfo->uwMuxID = pstTaskCB->pTaskMux != NULL ? ((MUX_CB_S *)(pstTaskCB->pTaskMux))->ucMux
 4199              		.loc 2 1496 26 discriminator 4 view .LVU1301
 4200 0066 2363     		str	r3, [r4, #48]
ARM GAS  C:\Users\²Ü¼ÒºÀ\AppData\Local\Temp\ccOngKk7.s 			page 120


1497:C:/Users/²Ü¼ÒºÀ/.iotlink/sdk/IoT_LINK/iot_link/os/liteos/base/core\los_task.c ****     pstTaskInfo->pTaskSem = pstTaskCB->pTaskSem;
 4201              		.loc 2 1497 5 is_stmt 1 discriminator 4 view .LVU1302
1497:C:/Users/²Ü¼ÒºÀ/.iotlink/sdk/IoT_LINK/iot_link/os/liteos/base/core\los_task.c ****     pstTaskInfo->pTaskSem = pstTaskCB->pTaskSem;
 4202              		.loc 2 1497 37 is_stmt 0 discriminator 4 view .LVU1303
 4203 0068 EB69     		ldr	r3, [r5, #28]
1497:C:/Users/²Ü¼ÒºÀ/.iotlink/sdk/IoT_LINK/iot_link/os/liteos/base/core\los_task.c ****     pstTaskInfo->pTaskSem = pstTaskCB->pTaskSem;
 4204              		.loc 2 1497 103 discriminator 4 view .LVU1304
 4205 006a 43B3     		cbz	r3, .L280
1497:C:/Users/²Ü¼ÒºÀ/.iotlink/sdk/IoT_LINK/iot_link/os/liteos/base/core\los_task.c ****     pstTaskInfo->pTaskSem = pstTaskCB->pTaskSem;
 4206              		.loc 2 1497 103 discriminator 1 view .LVU1305
 4207 006c 5968     		ldr	r1, [r3, #4]
 4208              	.L270:
1497:C:/Users/²Ü¼ÒºÀ/.iotlink/sdk/IoT_LINK/iot_link/os/liteos/base/core\los_task.c ****     pstTaskInfo->pTaskSem = pstTaskCB->pTaskSem;
 4209              		.loc 2 1497 26 discriminator 4 view .LVU1306
 4210 006e 6163     		str	r1, [r4, #52]
1498:C:/Users/²Ü¼ÒºÀ/.iotlink/sdk/IoT_LINK/iot_link/os/liteos/base/core\los_task.c ****     pstTaskInfo->pTaskMux = pstTaskCB->pTaskMux;
 4211              		.loc 2 1498 5 is_stmt 1 discriminator 4 view .LVU1307
1499:C:/Users/²Ü¼ÒºÀ/.iotlink/sdk/IoT_LINK/iot_link/os/liteos/base/core\los_task.c ****     pstTaskInfo->uwTaskID = uwTaskID;
 4212              		.loc 2 1499 27 is_stmt 0 discriminator 4 view .LVU1308
 4213 0070 C4E90A23 		strd	r2, r3, [r4, #40]
1500:C:/Users/²Ü¼ÒºÀ/.iotlink/sdk/IoT_LINK/iot_link/os/liteos/base/core\los_task.c **** 
 4214              		.loc 2 1500 5 is_stmt 1 discriminator 4 view .LVU1309
1502:C:/Users/²Ü¼ÒºÀ/.iotlink/sdk/IoT_LINK/iot_link/os/liteos/base/core\los_task.c ****     pstTaskInfo->acName[LOS_TASK_NAMELEN - 1] = '\0';
 4215              		.loc 2 1502 11 is_stmt 0 discriminator 4 view .LVU1310
 4216 0074 696A     		ldr	r1, [r5, #36]
1500:C:/Users/²Ü¼ÒºÀ/.iotlink/sdk/IoT_LINK/iot_link/os/liteos/base/core\los_task.c **** 
 4217              		.loc 2 1500 27 discriminator 4 view .LVU1311
 4218 0076 C4F82090 		str	r9, [r4, #32]
1502:C:/Users/²Ü¼ÒºÀ/.iotlink/sdk/IoT_LINK/iot_link/os/liteos/base/core\los_task.c ****     pstTaskInfo->acName[LOS_TASK_NAMELEN - 1] = '\0';
 4219              		.loc 2 1502 5 is_stmt 1 discriminator 4 view .LVU1312
1502:C:/Users/²Ü¼ÒºÀ/.iotlink/sdk/IoT_LINK/iot_link/os/liteos/base/core\los_task.c ****     pstTaskInfo->acName[LOS_TASK_NAMELEN - 1] = '\0';
 4220              		.loc 2 1502 11 is_stmt 0 discriminator 4 view .LVU1313
 4221 007a 1F22     		movs	r2, #31
 4222 007c 2046     		mov	r0, r4
 4223 007e FFF7FEFF 		bl	strncpy
 4224              	.LVL336:
1503:C:/Users/²Ü¼ÒºÀ/.iotlink/sdk/IoT_LINK/iot_link/os/liteos/base/core\los_task.c **** 
 4225              		.loc 2 1503 5 is_stmt 1 discriminator 4 view .LVU1314
1503:C:/Users/²Ü¼ÒºÀ/.iotlink/sdk/IoT_LINK/iot_link/os/liteos/base/core\los_task.c **** 
 4226              		.loc 2 1503 47 is_stmt 0 discriminator 4 view .LVU1315
 4227 0082 0023     		movs	r3, #0
 4228 0084 E377     		strb	r3, [r4, #31]
1505:C:/Users/²Ü¼ÒºÀ/.iotlink/sdk/IoT_LINK/iot_link/os/liteos/base/core\los_task.c ****     pstTaskInfo->uwCurrUsed = pstTaskInfo->uwBottomOfStack - pstTaskInfo->uwSP;
 4229              		.loc 2 1505 5 is_stmt 1 discriminator 4 view .LVU1316
1505:C:/Users/²Ü¼ÒºÀ/.iotlink/sdk/IoT_LINK/iot_link/os/liteos/base/core\los_task.c ****     pstTaskInfo->uwCurrUsed = pstTaskInfo->uwBottomOfStack - pstTaskInfo->uwSP;
 4230              		.loc 2 1505 36 is_stmt 0 discriminator 4 view .LVU1317
 4231 0086 D5E90223 		ldrd	r2, r3, [r5, #8]
 4232 008a 1344     		add	r3, r3, r2
 4233 008c 23F00703 		bic	r3, r3, #7
1505:C:/Users/²Ü¼ÒºÀ/.iotlink/sdk/IoT_LINK/iot_link/os/liteos/base/core\los_task.c ****     pstTaskInfo->uwCurrUsed = pstTaskInfo->uwBottomOfStack - pstTaskInfo->uwSP;
 4234              		.loc 2 1505 34 discriminator 4 view .LVU1318
 4235 0090 2365     		str	r3, [r4, #80]
1506:C:/Users/²Ü¼ÒºÀ/.iotlink/sdk/IoT_LINK/iot_link/os/liteos/base/core\los_task.c **** 
 4236              		.loc 2 1506 5 is_stmt 1 discriminator 4 view .LVU1319
1506:C:/Users/²Ü¼ÒºÀ/.iotlink/sdk/IoT_LINK/iot_link/os/liteos/base/core\los_task.c **** 
 4237              		.loc 2 1506 60 is_stmt 0 discriminator 4 view .LVU1320
 4238 0092 A3EB0803 		sub	r3, r3, r8
ARM GAS  C:\Users\²Ü¼ÒºÀ\AppData\Local\Temp\ccOngKk7.s 			page 121


1506:C:/Users/²Ü¼ÒºÀ/.iotlink/sdk/IoT_LINK/iot_link/os/liteos/base/core\los_task.c **** 
 4239              		.loc 2 1506 29 discriminator 4 view .LVU1321
 4240 0096 A365     		str	r3, [r4, #88]
1508:C:/Users/²Ü¼ÒºÀ/.iotlink/sdk/IoT_LINK/iot_link/os/liteos/base/core\los_task.c ****     {
 4241              		.loc 2 1508 5 is_stmt 1 discriminator 4 view .LVU1322
1508:C:/Users/²Ü¼ÒºÀ/.iotlink/sdk/IoT_LINK/iot_link/os/liteos/base/core\los_task.c ****     {
 4242              		.loc 2 1508 8 is_stmt 0 discriminator 4 view .LVU1323
 4243 0098 3368     		ldr	r3, [r6]
 4244 009a B3F1CC3F 		cmp	r3, #-858993460
 4245 009e 16D1     		bne	.L271
1510:C:/Users/²Ü¼ÒºÀ/.iotlink/sdk/IoT_LINK/iot_link/os/liteos/base/core\los_task.c ****         while ((puwStack < (UINT32 *)pstTaskInfo->uwSP) && (*puwStack == 0xCACACACA))
 4246              		.loc 2 1510 9 is_stmt 1 view .LVU1324
1510:C:/Users/²Ü¼ÒºÀ/.iotlink/sdk/IoT_LINK/iot_link/os/liteos/base/core\los_task.c ****         while ((puwStack < (UINT32 *)pstTaskInfo->uwSP) && (*puwStack == 0xCACACACA))
 4247              		.loc 2 1510 57 is_stmt 0 view .LVU1325
 4248 00a0 331D     		adds	r3, r6, #4
 4249              	.LVL337:
1511:C:/Users/²Ü¼ÒºÀ/.iotlink/sdk/IoT_LINK/iot_link/os/liteos/base/core\los_task.c ****         {
 4250              		.loc 2 1511 9 is_stmt 1 view .LVU1326
 4251              	.L272:
1511:C:/Users/²Ü¼ÒºÀ/.iotlink/sdk/IoT_LINK/iot_link/os/liteos/base/core\los_task.c ****         {
 4252              		.loc 2 1511 15 view .LVU1327
 4253 00a2 9845     		cmp	r8, r3
 4254 00a4 0DD8     		bhi	.L273
 4255              	.L276:
1516:C:/Users/²Ü¼ÒºÀ/.iotlink/sdk/IoT_LINK/iot_link/os/liteos/base/core\los_task.c ****         pstTaskInfo->bOvf = FALSE;
 4256              		.loc 2 1516 9 view .LVU1328
1516:C:/Users/²Ü¼ÒºÀ/.iotlink/sdk/IoT_LINK/iot_link/os/liteos/base/core\los_task.c ****         pstTaskInfo->bOvf = FALSE;
 4257              		.loc 2 1516 58 is_stmt 0 view .LVU1329
 4258 00a6 1644     		add	r6, r6, r2
 4259 00a8 F61A     		subs	r6, r6, r3
1516:C:/Users/²Ü¼ÒºÀ/.iotlink/sdk/IoT_LINK/iot_link/os/liteos/base/core\los_task.c ****         pstTaskInfo->bOvf = FALSE;
 4260              		.loc 2 1516 33 view .LVU1330
 4261 00aa E665     		str	r6, [r4, #92]
1517:C:/Users/²Ü¼ÒºÀ/.iotlink/sdk/IoT_LINK/iot_link/os/liteos/base/core\los_task.c ****     }
 4262              		.loc 2 1517 9 is_stmt 1 view .LVU1331
1517:C:/Users/²Ü¼ÒºÀ/.iotlink/sdk/IoT_LINK/iot_link/os/liteos/base/core\los_task.c ****     }
 4263              		.loc 2 1517 27 is_stmt 0 view .LVU1332
 4264 00ac 0023     		movs	r3, #0
 4265              	.LVL338:
 4266              	.L281:
1525:C:/Users/²Ü¼ÒºÀ/.iotlink/sdk/IoT_LINK/iot_link/os/liteos/base/core\los_task.c **** 
 4267              		.loc 2 1525 5 view .LVU1333
 4268 00ae 3846     		mov	r0, r7
1522:C:/Users/²Ü¼ÒºÀ/.iotlink/sdk/IoT_LINK/iot_link/os/liteos/base/core\los_task.c ****     }
 4269              		.loc 2 1522 27 view .LVU1334
 4270 00b0 2366     		str	r3, [r4, #96]
1525:C:/Users/²Ü¼ÒºÀ/.iotlink/sdk/IoT_LINK/iot_link/os/liteos/base/core\los_task.c **** 
 4271              		.loc 2 1525 5 is_stmt 1 view .LVU1335
 4272 00b2 FFF7FEFF 		bl	LOS_IntRestore
 4273              	.LVL339:
1527:C:/Users/²Ü¼ÒºÀ/.iotlink/sdk/IoT_LINK/iot_link/os/liteos/base/core\los_task.c **** }
 4274              		.loc 2 1527 5 view .LVU1336
1527:C:/Users/²Ü¼ÒºÀ/.iotlink/sdk/IoT_LINK/iot_link/os/liteos/base/core\los_task.c **** }
 4275              		.loc 2 1527 12 is_stmt 0 view .LVU1337
 4276 00b6 0020     		movs	r0, #0
 4277 00b8 BCE7     		b	.L266
 4278              	.L279:
ARM GAS  C:\Users\²Ü¼ÒºÀ\AppData\Local\Temp\ccOngKk7.s 			page 122


1496:C:/Users/²Ü¼ÒºÀ/.iotlink/sdk/IoT_LINK/iot_link/os/liteos/base/core\los_task.c ****     pstTaskInfo->uwMuxID = pstTaskCB->pTaskMux != NULL ? ((MUX_CB_S *)(pstTaskCB->pTaskMux))->ucMux
 4279              		.loc 2 1496 103 view .LVU1338
 4280 00ba 1423     		movs	r3, #20
 4281 00bc D3E7     		b	.L269
 4282              	.L280:
1497:C:/Users/²Ü¼ÒºÀ/.iotlink/sdk/IoT_LINK/iot_link/os/liteos/base/core\los_task.c ****     pstTaskInfo->pTaskSem = pstTaskCB->pTaskSem;
 4283              		.loc 2 1497 103 view .LVU1339
 4284 00be 1421     		movs	r1, #20
 4285 00c0 D5E7     		b	.L270
 4286              	.LVL340:
 4287              	.L273:
1511:C:/Users/²Ü¼ÒºÀ/.iotlink/sdk/IoT_LINK/iot_link/os/liteos/base/core\los_task.c ****         {
 4288              		.loc 2 1511 57 discriminator 1 view .LVU1340
 4289 00c2 1968     		ldr	r1, [r3]
 4290 00c4 B1F1CA3F 		cmp	r1, #-892679478
 4291 00c8 EDD1     		bne	.L276
1513:C:/Users/²Ü¼ÒºÀ/.iotlink/sdk/IoT_LINK/iot_link/os/liteos/base/core\los_task.c ****         }
 4292              		.loc 2 1513 13 is_stmt 1 view .LVU1341
1513:C:/Users/²Ü¼ÒºÀ/.iotlink/sdk/IoT_LINK/iot_link/os/liteos/base/core\los_task.c ****         }
 4293              		.loc 2 1513 22 is_stmt 0 view .LVU1342
 4294 00ca 0433     		adds	r3, r3, #4
 4295              	.LVL341:
1513:C:/Users/²Ü¼ÒºÀ/.iotlink/sdk/IoT_LINK/iot_link/os/liteos/base/core\los_task.c ****         }
 4296              		.loc 2 1513 22 view .LVU1343
 4297 00cc E9E7     		b	.L272
 4298              	.LVL342:
 4299              	.L271:
1521:C:/Users/²Ü¼ÒºÀ/.iotlink/sdk/IoT_LINK/iot_link/os/liteos/base/core\los_task.c ****         pstTaskInfo->bOvf = TRUE;
 4300              		.loc 2 1521 9 is_stmt 1 view .LVU1344
1521:C:/Users/²Ü¼ÒºÀ/.iotlink/sdk/IoT_LINK/iot_link/os/liteos/base/core\los_task.c ****         pstTaskInfo->bOvf = TRUE;
 4301              		.loc 2 1521 33 is_stmt 0 view .LVU1345
 4302 00ce 4FF0FF33 		mov	r3, #-1
 4303 00d2 E365     		str	r3, [r4, #92]
1522:C:/Users/²Ü¼ÒºÀ/.iotlink/sdk/IoT_LINK/iot_link/os/liteos/base/core\los_task.c ****     }
 4304              		.loc 2 1522 9 is_stmt 1 view .LVU1346
1522:C:/Users/²Ü¼ÒºÀ/.iotlink/sdk/IoT_LINK/iot_link/os/liteos/base/core\los_task.c ****     }
 4305              		.loc 2 1522 27 is_stmt 0 view .LVU1347
 4306 00d4 0123     		movs	r3, #1
 4307 00d6 EAE7     		b	.L281
 4308              	.LVL343:
 4309              	.L277:
1472:C:/Users/²Ü¼ÒºÀ/.iotlink/sdk/IoT_LINK/iot_link/os/liteos/base/core\los_task.c ****     }
 4310              		.loc 2 1472 16 view .LVU1348
 4311 00d8 0448     		ldr	r0, .L282+12
 4312              	.LVL344:
1472:C:/Users/²Ü¼ÒºÀ/.iotlink/sdk/IoT_LINK/iot_link/os/liteos/base/core\los_task.c ****     }
 4313              		.loc 2 1472 16 view .LVU1349
 4314 00da ABE7     		b	.L266
 4315              	.LVL345:
 4316              	.L278:
1477:C:/Users/²Ü¼ÒºÀ/.iotlink/sdk/IoT_LINK/iot_link/os/liteos/base/core\los_task.c ****     }
 4317              		.loc 2 1477 16 view .LVU1350
 4318 00dc 0448     		ldr	r0, .L282+16
 4319              	.LVL346:
1477:C:/Users/²Ü¼ÒºÀ/.iotlink/sdk/IoT_LINK/iot_link/os/liteos/base/core\los_task.c ****     }
 4320              		.loc 2 1477 16 view .LVU1351
 4321 00de A9E7     		b	.L266
ARM GAS  C:\Users\²Ü¼ÒºÀ\AppData\Local\Temp\ccOngKk7.s 			page 123


 4322              	.L283:
 4323              		.align	2
 4324              	.L282:
 4325 00e0 00000000 		.word	g_uwTskMaxNum
 4326 00e4 00000000 		.word	g_pstTaskCBArray
 4327 00e8 0A020002 		.word	33554954
 4328 00ec 01020002 		.word	33554945
 4329 00f0 07020002 		.word	33554951
 4330              		.cfi_endproc
 4331              	.LFE317:
 4333              		.section	.text.LOS_TaskStatusGet,"ax",%progbits
 4334              		.align	1
 4335              		.global	LOS_TaskStatusGet
 4336              		.syntax unified
 4337              		.thumb
 4338              		.thumb_func
 4339              		.fpu fpv4-sp-d16
 4341              	LOS_TaskStatusGet:
 4342              	.LVL347:
 4343              	.LFB318:
1529:C:/Users/²Ü¼ÒºÀ/.iotlink/sdk/IoT_LINK/iot_link/os/liteos/base/core\los_task.c **** 
1530:C:/Users/²Ü¼ÒºÀ/.iotlink/sdk/IoT_LINK/iot_link/os/liteos/base/core\los_task.c **** /*****************************************************************************
1531:C:/Users/²Ü¼ÒºÀ/.iotlink/sdk/IoT_LINK/iot_link/os/liteos/base/core\los_task.c ****  Function : LOS_TaskStatusGet
1532:C:/Users/²Ü¼ÒºÀ/.iotlink/sdk/IoT_LINK/iot_link/os/liteos/base/core\los_task.c ****  Description : Get status of the task
1533:C:/Users/²Ü¼ÒºÀ/.iotlink/sdk/IoT_LINK/iot_link/os/liteos/base/core\los_task.c ****  Input       : uwTaskID
1534:C:/Users/²Ü¼ÒºÀ/.iotlink/sdk/IoT_LINK/iot_link/os/liteos/base/core\los_task.c ****  Output      : puwTaskStatus
1535:C:/Users/²Ü¼ÒºÀ/.iotlink/sdk/IoT_LINK/iot_link/os/liteos/base/core\los_task.c ****  Return      : LOS_OK on success or error code on failure
1536:C:/Users/²Ü¼ÒºÀ/.iotlink/sdk/IoT_LINK/iot_link/os/liteos/base/core\los_task.c ****  *****************************************************************************/
1537:C:/Users/²Ü¼ÒºÀ/.iotlink/sdk/IoT_LINK/iot_link/os/liteos/base/core\los_task.c **** LITE_OS_SEC_TEXT_MINOR UINT32 LOS_TaskStatusGet(UINT32 uwTaskID, UINT32 *puwTaskStatus)
1538:C:/Users/²Ü¼ÒºÀ/.iotlink/sdk/IoT_LINK/iot_link/os/liteos/base/core\los_task.c **** {
 4344              		.loc 2 1538 1 is_stmt 1 view -0
 4345              		.cfi_startproc
 4346              		@ args = 0, pretend = 0, frame = 0
 4347              		@ frame_needed = 0, uses_anonymous_args = 0
1539:C:/Users/²Ü¼ÒºÀ/.iotlink/sdk/IoT_LINK/iot_link/os/liteos/base/core\los_task.c ****     UINT32    uwIntSave;
 4348              		.loc 2 1539 5 view .LVU1353
1540:C:/Users/²Ü¼ÒºÀ/.iotlink/sdk/IoT_LINK/iot_link/os/liteos/base/core\los_task.c ****     LOS_TASK_CB *pstTaskCB;
 4349              		.loc 2 1540 5 view .LVU1354
1541:C:/Users/²Ü¼ÒºÀ/.iotlink/sdk/IoT_LINK/iot_link/os/liteos/base/core\los_task.c **** 
1542:C:/Users/²Ü¼ÒºÀ/.iotlink/sdk/IoT_LINK/iot_link/os/liteos/base/core\los_task.c ****     if (NULL == puwTaskStatus)
 4350              		.loc 2 1542 5 view .LVU1355
1538:C:/Users/²Ü¼ÒºÀ/.iotlink/sdk/IoT_LINK/iot_link/os/liteos/base/core\los_task.c ****     UINT32    uwIntSave;
 4351              		.loc 2 1538 1 is_stmt 0 view .LVU1356
 4352 0000 38B5     		push	{r3, r4, r5, lr}
 4353              	.LCFI56:
 4354              		.cfi_def_cfa_offset 16
 4355              		.cfi_offset 3, -16
 4356              		.cfi_offset 4, -12
 4357              		.cfi_offset 5, -8
 4358              		.cfi_offset 14, -4
 4359              		.loc 2 1542 8 view .LVU1357
 4360 0002 0D46     		mov	r5, r1
 4361 0004 B9B1     		cbz	r1, .L287
1543:C:/Users/²Ü¼ÒºÀ/.iotlink/sdk/IoT_LINK/iot_link/os/liteos/base/core\los_task.c ****     {
1544:C:/Users/²Ü¼ÒºÀ/.iotlink/sdk/IoT_LINK/iot_link/os/liteos/base/core\los_task.c ****         return LOS_ERRNO_TSK_PTR_NULL;
1545:C:/Users/²Ü¼ÒºÀ/.iotlink/sdk/IoT_LINK/iot_link/os/liteos/base/core\los_task.c ****     }
1546:C:/Users/²Ü¼ÒºÀ/.iotlink/sdk/IoT_LINK/iot_link/os/liteos/base/core\los_task.c **** 
ARM GAS  C:\Users\²Ü¼ÒºÀ\AppData\Local\Temp\ccOngKk7.s 			page 124


1547:C:/Users/²Ü¼ÒºÀ/.iotlink/sdk/IoT_LINK/iot_link/os/liteos/base/core\los_task.c ****     if (OS_CHECK_TSK_PID_NOIDLE(uwTaskID))
 4362              		.loc 2 1547 5 is_stmt 1 view .LVU1358
 4363              		.loc 2 1547 9 is_stmt 0 view .LVU1359
 4364 0006 0E4B     		ldr	r3, .L289
 4365              		.loc 2 1547 8 view .LVU1360
 4366 0008 1B68     		ldr	r3, [r3]
 4367 000a 8342     		cmp	r3, r0
 4368 000c 15D9     		bls	.L288
1548:C:/Users/²Ü¼ÒºÀ/.iotlink/sdk/IoT_LINK/iot_link/os/liteos/base/core\los_task.c ****     {
1549:C:/Users/²Ü¼ÒºÀ/.iotlink/sdk/IoT_LINK/iot_link/os/liteos/base/core\los_task.c ****         return LOS_ERRNO_TSK_ID_INVALID;
1550:C:/Users/²Ü¼ÒºÀ/.iotlink/sdk/IoT_LINK/iot_link/os/liteos/base/core\los_task.c ****     }
1551:C:/Users/²Ü¼ÒºÀ/.iotlink/sdk/IoT_LINK/iot_link/os/liteos/base/core\los_task.c **** 
1552:C:/Users/²Ü¼ÒºÀ/.iotlink/sdk/IoT_LINK/iot_link/os/liteos/base/core\los_task.c ****     pstTaskCB = OS_TCB_FROM_TID(uwTaskID);
 4369              		.loc 2 1552 5 is_stmt 1 view .LVU1361
 4370              		.loc 2 1552 15 is_stmt 0 view .LVU1362
 4371 000e 0D4B     		ldr	r3, .L289+4
 4372 0010 1C68     		ldr	r4, [r3]
 4373 0012 5423     		movs	r3, #84
 4374 0014 03FB0044 		mla	r4, r3, r0, r4
 4375              	.LVL348:
1553:C:/Users/²Ü¼ÒºÀ/.iotlink/sdk/IoT_LINK/iot_link/os/liteos/base/core\los_task.c ****     uwIntSave = LOS_IntLock();
 4376              		.loc 2 1553 5 is_stmt 1 view .LVU1363
 4377              		.loc 2 1553 17 is_stmt 0 view .LVU1364
 4378 0018 FFF7FEFF 		bl	LOS_IntLock
 4379              	.LVL349:
1554:C:/Users/²Ü¼ÒºÀ/.iotlink/sdk/IoT_LINK/iot_link/os/liteos/base/core\los_task.c **** 
1555:C:/Users/²Ü¼ÒºÀ/.iotlink/sdk/IoT_LINK/iot_link/os/liteos/base/core\los_task.c ****     if (OS_TASK_STATUS_UNUSED & pstTaskCB->usTaskStatus)
 4380              		.loc 2 1555 5 is_stmt 1 view .LVU1365
 4381              		.loc 2 1555 42 is_stmt 0 view .LVU1366
 4382 001c A388     		ldrh	r3, [r4, #4]
 4383              		.loc 2 1555 8 view .LVU1367
 4384 001e 13F00104 		ands	r4, r3, #1
 4385              	.LVL350:
 4386              		.loc 2 1555 8 view .LVU1368
 4387 0022 03D0     		beq	.L286
1556:C:/Users/²Ü¼ÒºÀ/.iotlink/sdk/IoT_LINK/iot_link/os/liteos/base/core\los_task.c ****     {
1557:C:/Users/²Ü¼ÒºÀ/.iotlink/sdk/IoT_LINK/iot_link/os/liteos/base/core\los_task.c ****         (VOID)LOS_IntRestore(uwIntSave);
 4388              		.loc 2 1557 9 is_stmt 1 view .LVU1369
 4389 0024 FFF7FEFF 		bl	LOS_IntRestore
 4390              	.LVL351:
1558:C:/Users/²Ü¼ÒºÀ/.iotlink/sdk/IoT_LINK/iot_link/os/liteos/base/core\los_task.c ****         return LOS_ERRNO_TSK_NOT_CREATED;
 4391              		.loc 2 1558 9 view .LVU1370
 4392              		.loc 2 1558 16 is_stmt 0 view .LVU1371
 4393 0028 0748     		ldr	r0, .L289+8
 4394              	.L284:
1559:C:/Users/²Ü¼ÒºÀ/.iotlink/sdk/IoT_LINK/iot_link/os/liteos/base/core\los_task.c ****     }
1560:C:/Users/²Ü¼ÒºÀ/.iotlink/sdk/IoT_LINK/iot_link/os/liteos/base/core\los_task.c **** 
1561:C:/Users/²Ü¼ÒºÀ/.iotlink/sdk/IoT_LINK/iot_link/os/liteos/base/core\los_task.c ****     *puwTaskStatus = pstTaskCB->usTaskStatus;
1562:C:/Users/²Ü¼ÒºÀ/.iotlink/sdk/IoT_LINK/iot_link/os/liteos/base/core\los_task.c **** 
1563:C:/Users/²Ü¼ÒºÀ/.iotlink/sdk/IoT_LINK/iot_link/os/liteos/base/core\los_task.c ****     (VOID)LOS_IntRestore(uwIntSave);
1564:C:/Users/²Ü¼ÒºÀ/.iotlink/sdk/IoT_LINK/iot_link/os/liteos/base/core\los_task.c **** 
1565:C:/Users/²Ü¼ÒºÀ/.iotlink/sdk/IoT_LINK/iot_link/os/liteos/base/core\los_task.c ****     return LOS_OK;
1566:C:/Users/²Ü¼ÒºÀ/.iotlink/sdk/IoT_LINK/iot_link/os/liteos/base/core\los_task.c **** }
 4395              		.loc 2 1566 1 view .LVU1372
 4396 002a 38BD     		pop	{r3, r4, r5, pc}
 4397              	.LVL352:
 4398              	.L286:
ARM GAS  C:\Users\²Ü¼ÒºÀ\AppData\Local\Temp\ccOngKk7.s 			page 125


1561:C:/Users/²Ü¼ÒºÀ/.iotlink/sdk/IoT_LINK/iot_link/os/liteos/base/core\los_task.c **** 
 4399              		.loc 2 1561 5 is_stmt 1 view .LVU1373
1561:C:/Users/²Ü¼ÒºÀ/.iotlink/sdk/IoT_LINK/iot_link/os/liteos/base/core\los_task.c **** 
 4400              		.loc 2 1561 31 is_stmt 0 view .LVU1374
 4401 002c 2B60     		str	r3, [r5]
1563:C:/Users/²Ü¼ÒºÀ/.iotlink/sdk/IoT_LINK/iot_link/os/liteos/base/core\los_task.c **** 
 4402              		.loc 2 1563 5 is_stmt 1 view .LVU1375
 4403 002e FFF7FEFF 		bl	LOS_IntRestore
 4404              	.LVL353:
1565:C:/Users/²Ü¼ÒºÀ/.iotlink/sdk/IoT_LINK/iot_link/os/liteos/base/core\los_task.c **** }
 4405              		.loc 2 1565 5 view .LVU1376
1565:C:/Users/²Ü¼ÒºÀ/.iotlink/sdk/IoT_LINK/iot_link/os/liteos/base/core\los_task.c **** }
 4406              		.loc 2 1565 12 is_stmt 0 view .LVU1377
 4407 0032 2046     		mov	r0, r4
 4408 0034 F9E7     		b	.L284
 4409              	.LVL354:
 4410              	.L287:
1544:C:/Users/²Ü¼ÒºÀ/.iotlink/sdk/IoT_LINK/iot_link/os/liteos/base/core\los_task.c ****     }
 4411              		.loc 2 1544 16 view .LVU1378
 4412 0036 0548     		ldr	r0, .L289+12
 4413              	.LVL355:
1544:C:/Users/²Ü¼ÒºÀ/.iotlink/sdk/IoT_LINK/iot_link/os/liteos/base/core\los_task.c ****     }
 4414              		.loc 2 1544 16 view .LVU1379
 4415 0038 F7E7     		b	.L284
 4416              	.LVL356:
 4417              	.L288:
1549:C:/Users/²Ü¼ÒºÀ/.iotlink/sdk/IoT_LINK/iot_link/os/liteos/base/core\los_task.c ****     }
 4418              		.loc 2 1549 16 view .LVU1380
 4419 003a 0548     		ldr	r0, .L289+16
 4420              	.LVL357:
1549:C:/Users/²Ü¼ÒºÀ/.iotlink/sdk/IoT_LINK/iot_link/os/liteos/base/core\los_task.c ****     }
 4421              		.loc 2 1549 16 view .LVU1381
 4422 003c F5E7     		b	.L284
 4423              	.L290:
 4424 003e 00BF     		.align	2
 4425              	.L289:
 4426 0040 00000000 		.word	g_uwTskMaxNum
 4427 0044 00000000 		.word	g_pstTaskCBArray
 4428 0048 0A020002 		.word	33554954
 4429 004c 01020002 		.word	33554945
 4430 0050 07020002 		.word	33554951
 4431              		.cfi_endproc
 4432              	.LFE318:
 4434              		.section	.text.LOS_TaskSwitchInfoGet,"ax",%progbits
 4435              		.align	1
 4436              		.global	LOS_TaskSwitchInfoGet
 4437              		.syntax unified
 4438              		.thumb
 4439              		.thumb_func
 4440              		.fpu fpv4-sp-d16
 4442              	LOS_TaskSwitchInfoGet:
 4443              	.LVL358:
 4444              	.LFB319:
1567:C:/Users/²Ü¼ÒºÀ/.iotlink/sdk/IoT_LINK/iot_link/os/liteos/base/core\los_task.c **** 
1568:C:/Users/²Ü¼ÒºÀ/.iotlink/sdk/IoT_LINK/iot_link/os/liteos/base/core\los_task.c **** #if (LOSCFG_BASE_CORE_EXC_TSK_SWITCH == YES)
1569:C:/Users/²Ü¼ÒºÀ/.iotlink/sdk/IoT_LINK/iot_link/os/liteos/base/core\los_task.c **** /*****************************************************************************
1570:C:/Users/²Ü¼ÒºÀ/.iotlink/sdk/IoT_LINK/iot_link/os/liteos/base/core\los_task.c ****  Function : LOS_TaskSwitchInfoGet
ARM GAS  C:\Users\²Ü¼ÒºÀ\AppData\Local\Temp\ccOngKk7.s 			page 126


1571:C:/Users/²Ü¼ÒºÀ/.iotlink/sdk/IoT_LINK/iot_link/os/liteos/base/core\los_task.c ****  Description : save the information of the task switch
1572:C:/Users/²Ü¼ÒºÀ/.iotlink/sdk/IoT_LINK/iot_link/os/liteos/base/core\los_task.c ****  Input       : uwIdx
1573:C:/Users/²Ü¼ÒºÀ/.iotlink/sdk/IoT_LINK/iot_link/os/liteos/base/core\los_task.c ****  Output      : pTaskSwitchInfo
1574:C:/Users/²Ü¼ÒºÀ/.iotlink/sdk/IoT_LINK/iot_link/os/liteos/base/core\los_task.c ****  Return      : LOS_OK on success or error code on failure
1575:C:/Users/²Ü¼ÒºÀ/.iotlink/sdk/IoT_LINK/iot_link/os/liteos/base/core\los_task.c ****  *****************************************************************************/
1576:C:/Users/²Ü¼ÒºÀ/.iotlink/sdk/IoT_LINK/iot_link/os/liteos/base/core\los_task.c **** LITE_OS_SEC_TEXT_MINOR UINT32 LOS_TaskSwitchInfoGet(UINT32 uwIdx, UINT32 *puwTaskSwitchInfo)
1577:C:/Users/²Ü¼ÒºÀ/.iotlink/sdk/IoT_LINK/iot_link/os/liteos/base/core\los_task.c **** {
 4445              		.loc 2 1577 1 is_stmt 1 view -0
 4446              		.cfi_startproc
 4447              		@ args = 0, pretend = 0, frame = 0
 4448              		@ frame_needed = 0, uses_anonymous_args = 0
1578:C:/Users/²Ü¼ÒºÀ/.iotlink/sdk/IoT_LINK/iot_link/os/liteos/base/core\los_task.c ****     UINTPTR uvIntSave;
 4449              		.loc 2 1578 5 view .LVU1383
1579:C:/Users/²Ü¼ÒºÀ/.iotlink/sdk/IoT_LINK/iot_link/os/liteos/base/core\los_task.c **** 
1580:C:/Users/²Ü¼ÒºÀ/.iotlink/sdk/IoT_LINK/iot_link/os/liteos/base/core\los_task.c ****     if (uwIdx >= OS_TASK_SWITCH_INFO_COUNT)
 4450              		.loc 2 1580 5 view .LVU1384
 4451              		.loc 2 1580 8 is_stmt 0 view .LVU1385
 4452 0000 0928     		cmp	r0, #9
1581:C:/Users/²Ü¼ÒºÀ/.iotlink/sdk/IoT_LINK/iot_link/os/liteos/base/core\los_task.c ****     {
1582:C:/Users/²Ü¼ÒºÀ/.iotlink/sdk/IoT_LINK/iot_link/os/liteos/base/core\los_task.c ****         uwIdx -= OS_TASK_SWITCH_INFO_COUNT;
 4453              		.loc 2 1582 9 is_stmt 1 view .LVU1386
1577:C:/Users/²Ü¼ÒºÀ/.iotlink/sdk/IoT_LINK/iot_link/os/liteos/base/core\los_task.c ****     UINTPTR uvIntSave;
 4454              		.loc 2 1577 1 is_stmt 0 view .LVU1387
 4455 0002 38B5     		push	{r3, r4, r5, lr}
 4456              	.LCFI57:
 4457              		.cfi_def_cfa_offset 16
 4458              		.cfi_offset 3, -16
 4459              		.cfi_offset 4, -12
 4460              		.cfi_offset 5, -8
 4461              		.cfi_offset 14, -4
1577:C:/Users/²Ü¼ÒºÀ/.iotlink/sdk/IoT_LINK/iot_link/os/liteos/base/core\los_task.c ****     UINTPTR uvIntSave;
 4462              		.loc 2 1577 1 view .LVU1388
 4463 0004 0546     		mov	r5, r0
 4464 0006 0C46     		mov	r4, r1
 4465              		.loc 2 1582 15 view .LVU1389
 4466 0008 88BF     		it	hi
 4467 000a A0F10A05 		subhi	r5, r0, #10
 4468              	.LVL359:
1583:C:/Users/²Ü¼ÒºÀ/.iotlink/sdk/IoT_LINK/iot_link/os/liteos/base/core\los_task.c ****     }
1584:C:/Users/²Ü¼ÒºÀ/.iotlink/sdk/IoT_LINK/iot_link/os/liteos/base/core\los_task.c **** 
1585:C:/Users/²Ü¼ÒºÀ/.iotlink/sdk/IoT_LINK/iot_link/os/liteos/base/core\los_task.c ****     if (NULL == puwTaskSwitchInfo)
 4469              		.loc 2 1585 5 is_stmt 1 view .LVU1390
 4470              		.loc 2 1585 8 is_stmt 0 view .LVU1391
 4471 000e B9B1     		cbz	r1, .L295
1586:C:/Users/²Ü¼ÒºÀ/.iotlink/sdk/IoT_LINK/iot_link/os/liteos/base/core\los_task.c ****     {
1587:C:/Users/²Ü¼ÒºÀ/.iotlink/sdk/IoT_LINK/iot_link/os/liteos/base/core\los_task.c ****         return LOS_ERRNO_TSK_PTR_NULL;
1588:C:/Users/²Ü¼ÒºÀ/.iotlink/sdk/IoT_LINK/iot_link/os/liteos/base/core\los_task.c ****     }
1589:C:/Users/²Ü¼ÒºÀ/.iotlink/sdk/IoT_LINK/iot_link/os/liteos/base/core\los_task.c **** 
1590:C:/Users/²Ü¼ÒºÀ/.iotlink/sdk/IoT_LINK/iot_link/os/liteos/base/core\los_task.c ****     uvIntSave = LOS_IntLock();
 4472              		.loc 2 1590 5 is_stmt 1 view .LVU1392
 4473              		.loc 2 1590 17 is_stmt 0 view .LVU1393
 4474 0010 FFF7FEFF 		bl	LOS_IntLock
 4475              	.LVL360:
1591:C:/Users/²Ü¼ÒºÀ/.iotlink/sdk/IoT_LINK/iot_link/os/liteos/base/core\los_task.c **** 
1592:C:/Users/²Ü¼ÒºÀ/.iotlink/sdk/IoT_LINK/iot_link/os/liteos/base/core\los_task.c ****     (*puwTaskSwitchInfo) = g_astTskSwitchInfo.auwPID[uwIdx];
 4476              		.loc 2 1592 5 is_stmt 1 view .LVU1394
 4477              		.loc 2 1592 53 is_stmt 0 view .LVU1395
ARM GAS  C:\Users\²Ü¼ÒºÀ\AppData\Local\Temp\ccOngKk7.s 			page 127


 4478 0014 0B4A     		ldr	r2, .L297
 4479 0016 02EB4503 		add	r3, r2, r5, lsl #1
 4480 001a 2146     		mov	r1, r4
 4481 001c 5B88     		ldrh	r3, [r3, #2]
 4482 001e 41F8043B 		str	r3, [r1], #4
1593:C:/Users/²Ü¼ÒºÀ/.iotlink/sdk/IoT_LINK/iot_link/os/liteos/base/core\los_task.c ****     memcpy((VOID *)(puwTaskSwitchInfo + 1), g_astTskSwitchInfo.acName[uwIdx], LOS_TASK_NAMELEN);
 4483              		.loc 2 1593 5 is_stmt 1 view .LVU1396
 4484              		.loc 2 1593 70 is_stmt 0 view .LVU1397
 4485 0022 02EB4513 		add	r3, r2, r5, lsl #5
 4486 0026 03F11602 		add	r2, r3, #22
 4487              		.loc 2 1593 5 view .LVU1398
 4488 002a 3633     		adds	r3, r3, #54
 4489              	.LVL361:
 4490              	.L294:
 4491              		.loc 2 1593 5 view .LVU1399
 4492 002c 52F8044B 		ldr	r4, [r2], #4	@ unaligned
 4493 0030 41F8044B 		str	r4, [r1], #4	@ unaligned
 4494 0034 9A42     		cmp	r2, r3
 4495 0036 F9D1     		bne	.L294
1594:C:/Users/²Ü¼ÒºÀ/.iotlink/sdk/IoT_LINK/iot_link/os/liteos/base/core\los_task.c **** 
1595:C:/Users/²Ü¼ÒºÀ/.iotlink/sdk/IoT_LINK/iot_link/os/liteos/base/core\los_task.c ****     (VOID)LOS_IntRestore(uvIntSave);
 4496              		.loc 2 1595 5 is_stmt 1 view .LVU1400
 4497 0038 FFF7FEFF 		bl	LOS_IntRestore
 4498              	.LVL362:
1596:C:/Users/²Ü¼ÒºÀ/.iotlink/sdk/IoT_LINK/iot_link/os/liteos/base/core\los_task.c ****     return LOS_OK;
 4499              		.loc 2 1596 5 view .LVU1401
 4500              		.loc 2 1596 12 is_stmt 0 view .LVU1402
 4501 003c 0020     		movs	r0, #0
 4502              	.L291:
1597:C:/Users/²Ü¼ÒºÀ/.iotlink/sdk/IoT_LINK/iot_link/os/liteos/base/core\los_task.c **** }
 4503              		.loc 2 1597 1 view .LVU1403
 4504 003e 38BD     		pop	{r3, r4, r5, pc}
 4505              	.LVL363:
 4506              	.L295:
1587:C:/Users/²Ü¼ÒºÀ/.iotlink/sdk/IoT_LINK/iot_link/os/liteos/base/core\los_task.c ****     }
 4507              		.loc 2 1587 16 view .LVU1404
 4508 0040 0148     		ldr	r0, .L297+4
 4509 0042 FCE7     		b	.L291
 4510              	.L298:
 4511              		.align	2
 4512              	.L297:
 4513 0044 00000000 		.word	g_astTskSwitchInfo
 4514 0048 01020002 		.word	33554945
 4515              		.cfi_endproc
 4516              	.LFE319:
 4518              		.section	.text.LOS_TaskInfoMonitor,"ax",%progbits
 4519              		.align	1
 4520              		.global	LOS_TaskInfoMonitor
 4521              		.syntax unified
 4522              		.thumb
 4523              		.thumb_func
 4524              		.fpu fpv4-sp-d16
 4526              	LOS_TaskInfoMonitor:
 4527              	.LFB320:
1598:C:/Users/²Ü¼ÒºÀ/.iotlink/sdk/IoT_LINK/iot_link/os/liteos/base/core\los_task.c **** #endif
1599:C:/Users/²Ü¼ÒºÀ/.iotlink/sdk/IoT_LINK/iot_link/os/liteos/base/core\los_task.c **** 
1600:C:/Users/²Ü¼ÒºÀ/.iotlink/sdk/IoT_LINK/iot_link/os/liteos/base/core\los_task.c **** /*****************************************************************************
ARM GAS  C:\Users\²Ü¼ÒºÀ\AppData\Local\Temp\ccOngKk7.s 			page 128


1601:C:/Users/²Ü¼ÒºÀ/.iotlink/sdk/IoT_LINK/iot_link/os/liteos/base/core\los_task.c **** Function   : LOS_TaskInfoMonitor
1602:C:/Users/²Ü¼ÒºÀ/.iotlink/sdk/IoT_LINK/iot_link/os/liteos/base/core\los_task.c **** Description: Get all task info
1603:C:/Users/²Ü¼ÒºÀ/.iotlink/sdk/IoT_LINK/iot_link/os/liteos/base/core\los_task.c **** Input      : None
1604:C:/Users/²Ü¼ÒºÀ/.iotlink/sdk/IoT_LINK/iot_link/os/liteos/base/core\los_task.c **** Return     : LOS_OK on success ,or OS_ERROR on failure
1605:C:/Users/²Ü¼ÒºÀ/.iotlink/sdk/IoT_LINK/iot_link/os/liteos/base/core\los_task.c **** *****************************************************************************/
1606:C:/Users/²Ü¼ÒºÀ/.iotlink/sdk/IoT_LINK/iot_link/os/liteos/base/core\los_task.c **** LITE_OS_SEC_TEXT_MINOR UINT32 LOS_TaskInfoMonitor(VOID)
1607:C:/Users/²Ü¼ÒºÀ/.iotlink/sdk/IoT_LINK/iot_link/os/liteos/base/core\los_task.c **** {
 4528              		.loc 2 1607 1 is_stmt 1 view -0
 4529              		.cfi_startproc
 4530              		@ args = 0, pretend = 0, frame = 0
 4531              		@ frame_needed = 0, uses_anonymous_args = 0
 4532              		@ link register save eliminated.
1608:C:/Users/²Ü¼ÒºÀ/.iotlink/sdk/IoT_LINK/iot_link/os/liteos/base/core\los_task.c ****     UINT32 uwRet;
 4533              		.loc 2 1608 5 view .LVU1406
1609:C:/Users/²Ü¼ÒºÀ/.iotlink/sdk/IoT_LINK/iot_link/os/liteos/base/core\los_task.c **** 
1610:C:/Users/²Ü¼ÒºÀ/.iotlink/sdk/IoT_LINK/iot_link/os/liteos/base/core\los_task.c ****     uwRet = osGetAllTskInfo();
 4534              		.loc 2 1610 5 view .LVU1407
 4535              		.loc 2 1610 13 is_stmt 0 view .LVU1408
 4536 0000 FFF7FEBF 		b	osGetAllTskInfo
 4537              	.LVL364:
 4538              		.cfi_endproc
 4539              	.LFE320:
 4541              		.section	.text.LOS_TaskIsRunning,"ax",%progbits
 4542              		.align	1
 4543              		.global	LOS_TaskIsRunning
 4544              		.syntax unified
 4545              		.thumb
 4546              		.thumb_func
 4547              		.fpu fpv4-sp-d16
 4549              	LOS_TaskIsRunning:
 4550              	.LFB321:
1611:C:/Users/²Ü¼ÒºÀ/.iotlink/sdk/IoT_LINK/iot_link/os/liteos/base/core\los_task.c **** 
1612:C:/Users/²Ü¼ÒºÀ/.iotlink/sdk/IoT_LINK/iot_link/os/liteos/base/core\los_task.c ****     return uwRet;
1613:C:/Users/²Ü¼ÒºÀ/.iotlink/sdk/IoT_LINK/iot_link/os/liteos/base/core\los_task.c **** }
1614:C:/Users/²Ü¼ÒºÀ/.iotlink/sdk/IoT_LINK/iot_link/os/liteos/base/core\los_task.c **** 
1615:C:/Users/²Ü¼ÒºÀ/.iotlink/sdk/IoT_LINK/iot_link/os/liteos/base/core\los_task.c **** /*****************************************************************************
1616:C:/Users/²Ü¼ÒºÀ/.iotlink/sdk/IoT_LINK/iot_link/os/liteos/base/core\los_task.c ****  Function : LOS_TaskIsRunning
1617:C:/Users/²Ü¼ÒºÀ/.iotlink/sdk/IoT_LINK/iot_link/os/liteos/base/core\los_task.c ****  Description : Check if LiteOS has been started.
1618:C:/Users/²Ü¼ÒºÀ/.iotlink/sdk/IoT_LINK/iot_link/os/liteos/base/core\los_task.c ****  Input       : VOID
1619:C:/Users/²Ü¼ÒºÀ/.iotlink/sdk/IoT_LINK/iot_link/os/liteos/base/core\los_task.c ****  Output      : VOID
1620:C:/Users/²Ü¼ÒºÀ/.iotlink/sdk/IoT_LINK/iot_link/os/liteos/base/core\los_task.c ****  Return      : TRUE means LiteOS was started, FALSE means not.
1621:C:/Users/²Ü¼ÒºÀ/.iotlink/sdk/IoT_LINK/iot_link/os/liteos/base/core\los_task.c ****  *****************************************************************************/
1622:C:/Users/²Ü¼ÒºÀ/.iotlink/sdk/IoT_LINK/iot_link/os/liteos/base/core\los_task.c **** LITE_OS_SEC_TEXT_MINOR BOOL LOS_TaskIsRunning(VOID)
1623:C:/Users/²Ü¼ÒºÀ/.iotlink/sdk/IoT_LINK/iot_link/os/liteos/base/core\los_task.c **** {
 4551              		.loc 2 1623 1 is_stmt 1 view -0
 4552              		.cfi_startproc
 4553              		@ args = 0, pretend = 0, frame = 0
 4554              		@ frame_needed = 0, uses_anonymous_args = 0
 4555              		@ link register save eliminated.
1624:C:/Users/²Ü¼ÒºÀ/.iotlink/sdk/IoT_LINK/iot_link/os/liteos/base/core\los_task.c ****     return g_bTaskScheduled;
 4556              		.loc 2 1624 5 view .LVU1410
1625:C:/Users/²Ü¼ÒºÀ/.iotlink/sdk/IoT_LINK/iot_link/os/liteos/base/core\los_task.c **** }
 4557              		.loc 2 1625 1 is_stmt 0 view .LVU1411
 4558 0000 014B     		ldr	r3, .L301
 4559 0002 1868     		ldr	r0, [r3]
 4560 0004 7047     		bx	lr
 4561              	.L302:
ARM GAS  C:\Users\²Ü¼ÒºÀ\AppData\Local\Temp\ccOngKk7.s 			page 129


 4562 0006 00BF     		.align	2
 4563              	.L301:
 4564 0008 00000000 		.word	g_bTaskScheduled
 4565              		.cfi_endproc
 4566              	.LFE321:
 4568              		.section	.text.LOS_NewTaskIDGet,"ax",%progbits
 4569              		.align	1
 4570              		.global	LOS_NewTaskIDGet
 4571              		.syntax unified
 4572              		.thumb
 4573              		.thumb_func
 4574              		.fpu fpv4-sp-d16
 4576              	LOS_NewTaskIDGet:
 4577              	.LFB332:
 4578              		.cfi_startproc
 4579              		@ args = 0, pretend = 0, frame = 0
 4580              		@ frame_needed = 0, uses_anonymous_args = 0
 4581              		@ link register save eliminated.
 4582 0000 FFF7FEBF 		b	LOS_NextTaskIDGet
 4583              		.cfi_endproc
 4584              	.LFE332:
 4586              		.section	.text.LOS_TaskNameGet,"ax",%progbits
 4587              		.align	1
 4588              		.global	LOS_TaskNameGet
 4589              		.syntax unified
 4590              		.thumb
 4591              		.thumb_func
 4592              		.fpu fpv4-sp-d16
 4594              	LOS_TaskNameGet:
 4595              	.LVL365:
 4596              	.LFB323:
1626:C:/Users/²Ü¼ÒºÀ/.iotlink/sdk/IoT_LINK/iot_link/os/liteos/base/core\los_task.c **** 
1627:C:/Users/²Ü¼ÒºÀ/.iotlink/sdk/IoT_LINK/iot_link/os/liteos/base/core\los_task.c **** /*****************************************************************************
1628:C:/Users/²Ü¼ÒºÀ/.iotlink/sdk/IoT_LINK/iot_link/os/liteos/base/core\los_task.c ****  Function : LOS_NewTaskIDGet
1629:C:/Users/²Ü¼ÒºÀ/.iotlink/sdk/IoT_LINK/iot_link/os/liteos/base/core\los_task.c ****  Description : get id of current new task.
1630:C:/Users/²Ü¼ÒºÀ/.iotlink/sdk/IoT_LINK/iot_link/os/liteos/base/core\los_task.c ****  Input       : None
1631:C:/Users/²Ü¼ÒºÀ/.iotlink/sdk/IoT_LINK/iot_link/os/liteos/base/core\los_task.c ****  Output      : None
1632:C:/Users/²Ü¼ÒºÀ/.iotlink/sdk/IoT_LINK/iot_link/os/liteos/base/core\los_task.c ****  Return      : task id
1633:C:/Users/²Ü¼ÒºÀ/.iotlink/sdk/IoT_LINK/iot_link/os/liteos/base/core\los_task.c ****  *****************************************************************************/
1634:C:/Users/²Ü¼ÒºÀ/.iotlink/sdk/IoT_LINK/iot_link/os/liteos/base/core\los_task.c **** LITE_OS_SEC_TEXT UINT32 LOS_NewTaskIDGet(VOID)
1635:C:/Users/²Ü¼ÒºÀ/.iotlink/sdk/IoT_LINK/iot_link/os/liteos/base/core\los_task.c **** {
1636:C:/Users/²Ü¼ÒºÀ/.iotlink/sdk/IoT_LINK/iot_link/os/liteos/base/core\los_task.c ****     if (NULL == g_stLosTask.pstNewTask)
1637:C:/Users/²Ü¼ÒºÀ/.iotlink/sdk/IoT_LINK/iot_link/os/liteos/base/core\los_task.c ****     {
1638:C:/Users/²Ü¼ÒºÀ/.iotlink/sdk/IoT_LINK/iot_link/os/liteos/base/core\los_task.c ****         return LOS_ERRNO_TSK_ID_INVALID;
1639:C:/Users/²Ü¼ÒºÀ/.iotlink/sdk/IoT_LINK/iot_link/os/liteos/base/core\los_task.c ****     }
1640:C:/Users/²Ü¼ÒºÀ/.iotlink/sdk/IoT_LINK/iot_link/os/liteos/base/core\los_task.c ****     return g_stLosTask.pstNewTask->uwTaskID;
1641:C:/Users/²Ü¼ÒºÀ/.iotlink/sdk/IoT_LINK/iot_link/os/liteos/base/core\los_task.c **** }
1642:C:/Users/²Ü¼ÒºÀ/.iotlink/sdk/IoT_LINK/iot_link/os/liteos/base/core\los_task.c **** 
1643:C:/Users/²Ü¼ÒºÀ/.iotlink/sdk/IoT_LINK/iot_link/os/liteos/base/core\los_task.c **** /*****************************************************************************
1644:C:/Users/²Ü¼ÒºÀ/.iotlink/sdk/IoT_LINK/iot_link/os/liteos/base/core\los_task.c ****  Function : LOS_TaskNameGet
1645:C:/Users/²Ü¼ÒºÀ/.iotlink/sdk/IoT_LINK/iot_link/os/liteos/base/core\los_task.c ****  Description : get Name of current new task.
1646:C:/Users/²Ü¼ÒºÀ/.iotlink/sdk/IoT_LINK/iot_link/os/liteos/base/core\los_task.c ****  Input       : uwTaskID -----task id
1647:C:/Users/²Ü¼ÒºÀ/.iotlink/sdk/IoT_LINK/iot_link/os/liteos/base/core\los_task.c ****  Output      : None
1648:C:/Users/²Ü¼ÒºÀ/.iotlink/sdk/IoT_LINK/iot_link/os/liteos/base/core\los_task.c ****  Return      : task name
1649:C:/Users/²Ü¼ÒºÀ/.iotlink/sdk/IoT_LINK/iot_link/os/liteos/base/core\los_task.c ****  *****************************************************************************/
1650:C:/Users/²Ü¼ÒºÀ/.iotlink/sdk/IoT_LINK/iot_link/os/liteos/base/core\los_task.c **** LITE_OS_SEC_TEXT CHAR* LOS_TaskNameGet(UINT32 uwTaskID)
1651:C:/Users/²Ü¼ÒºÀ/.iotlink/sdk/IoT_LINK/iot_link/os/liteos/base/core\los_task.c **** {
ARM GAS  C:\Users\²Ü¼ÒºÀ\AppData\Local\Temp\ccOngKk7.s 			page 130


 4597              		.loc 2 1651 1 is_stmt 1 view -0
 4598              		.cfi_startproc
 4599              		@ args = 0, pretend = 0, frame = 0
 4600              		@ frame_needed = 0, uses_anonymous_args = 0
1652:C:/Users/²Ü¼ÒºÀ/.iotlink/sdk/IoT_LINK/iot_link/os/liteos/base/core\los_task.c ****     UINT32    uwIntSave;
 4601              		.loc 2 1652 5 view .LVU1413
1653:C:/Users/²Ü¼ÒºÀ/.iotlink/sdk/IoT_LINK/iot_link/os/liteos/base/core\los_task.c ****     LOS_TASK_CB *pstTaskCB;
 4602              		.loc 2 1653 5 view .LVU1414
1654:C:/Users/²Ü¼ÒºÀ/.iotlink/sdk/IoT_LINK/iot_link/os/liteos/base/core\los_task.c **** 
1655:C:/Users/²Ü¼ÒºÀ/.iotlink/sdk/IoT_LINK/iot_link/os/liteos/base/core\los_task.c ****     if (OS_CHECK_TSK_PID_NOIDLE(uwTaskID))
 4603              		.loc 2 1655 5 view .LVU1415
 4604              		.loc 2 1655 9 is_stmt 0 view .LVU1416
 4605 0000 0B4B     		ldr	r3, .L308
 4606              		.loc 2 1655 8 view .LVU1417
 4607 0002 1B68     		ldr	r3, [r3]
 4608 0004 8342     		cmp	r3, r0
1651:C:/Users/²Ü¼ÒºÀ/.iotlink/sdk/IoT_LINK/iot_link/os/liteos/base/core\los_task.c ****     UINT32    uwIntSave;
 4609              		.loc 2 1651 1 view .LVU1418
 4610 0006 10B5     		push	{r4, lr}
 4611              	.LCFI58:
 4612              		.cfi_def_cfa_offset 8
 4613              		.cfi_offset 4, -8
 4614              		.cfi_offset 14, -4
 4615              		.loc 2 1655 8 view .LVU1419
 4616 0008 0BD9     		bls	.L307
1656:C:/Users/²Ü¼ÒºÀ/.iotlink/sdk/IoT_LINK/iot_link/os/liteos/base/core\los_task.c ****     {
1657:C:/Users/²Ü¼ÒºÀ/.iotlink/sdk/IoT_LINK/iot_link/os/liteos/base/core\los_task.c ****         return NULL;
1658:C:/Users/²Ü¼ÒºÀ/.iotlink/sdk/IoT_LINK/iot_link/os/liteos/base/core\los_task.c ****     }
1659:C:/Users/²Ü¼ÒºÀ/.iotlink/sdk/IoT_LINK/iot_link/os/liteos/base/core\los_task.c **** 
1660:C:/Users/²Ü¼ÒºÀ/.iotlink/sdk/IoT_LINK/iot_link/os/liteos/base/core\los_task.c ****     pstTaskCB = OS_TCB_FROM_TID(uwTaskID);
 4617              		.loc 2 1660 5 is_stmt 1 view .LVU1420
 4618              		.loc 2 1660 15 is_stmt 0 view .LVU1421
 4619 000a 0A4B     		ldr	r3, .L308+4
 4620 000c 1C68     		ldr	r4, [r3]
 4621 000e 5423     		movs	r3, #84
 4622 0010 03FB0044 		mla	r4, r3, r0, r4
 4623              	.LVL366:
1661:C:/Users/²Ü¼ÒºÀ/.iotlink/sdk/IoT_LINK/iot_link/os/liteos/base/core\los_task.c **** 
1662:C:/Users/²Ü¼ÒºÀ/.iotlink/sdk/IoT_LINK/iot_link/os/liteos/base/core\los_task.c ****     uwIntSave = LOS_IntLock();
 4624              		.loc 2 1662 5 is_stmt 1 view .LVU1422
 4625              		.loc 2 1662 17 is_stmt 0 view .LVU1423
 4626 0014 FFF7FEFF 		bl	LOS_IntLock
 4627              	.LVL367:
1663:C:/Users/²Ü¼ÒºÀ/.iotlink/sdk/IoT_LINK/iot_link/os/liteos/base/core\los_task.c ****     if (OS_TASK_STATUS_UNUSED & pstTaskCB->usTaskStatus)
 4628              		.loc 2 1663 5 is_stmt 1 view .LVU1424
 4629              		.loc 2 1663 9 is_stmt 0 view .LVU1425
 4630 0018 A388     		ldrh	r3, [r4, #4]
 4631              		.loc 2 1663 8 view .LVU1426
 4632 001a DB07     		lsls	r3, r3, #31
 4633 001c 03D5     		bpl	.L306
1664:C:/Users/²Ü¼ÒºÀ/.iotlink/sdk/IoT_LINK/iot_link/os/liteos/base/core\los_task.c ****     {
1665:C:/Users/²Ü¼ÒºÀ/.iotlink/sdk/IoT_LINK/iot_link/os/liteos/base/core\los_task.c ****         (VOID)LOS_IntRestore(uwIntSave);
 4634              		.loc 2 1665 9 is_stmt 1 view .LVU1427
 4635 001e FFF7FEFF 		bl	LOS_IntRestore
 4636              	.LVL368:
1666:C:/Users/²Ü¼ÒºÀ/.iotlink/sdk/IoT_LINK/iot_link/os/liteos/base/core\los_task.c ****         return NULL;
 4637              		.loc 2 1666 9 view .LVU1428
ARM GAS  C:\Users\²Ü¼ÒºÀ\AppData\Local\Temp\ccOngKk7.s 			page 131


 4638              	.L307:
1657:C:/Users/²Ü¼ÒºÀ/.iotlink/sdk/IoT_LINK/iot_link/os/liteos/base/core\los_task.c ****     }
 4639              		.loc 2 1657 16 is_stmt 0 view .LVU1429
 4640 0022 0020     		movs	r0, #0
 4641 0024 02E0     		b	.L304
 4642              	.LVL369:
 4643              	.L306:
1667:C:/Users/²Ü¼ÒºÀ/.iotlink/sdk/IoT_LINK/iot_link/os/liteos/base/core\los_task.c ****     }
1668:C:/Users/²Ü¼ÒºÀ/.iotlink/sdk/IoT_LINK/iot_link/os/liteos/base/core\los_task.c ****     (VOID)LOS_IntRestore(uwIntSave);
 4644              		.loc 2 1668 5 is_stmt 1 view .LVU1430
 4645 0026 FFF7FEFF 		bl	LOS_IntRestore
 4646              	.LVL370:
1669:C:/Users/²Ü¼ÒºÀ/.iotlink/sdk/IoT_LINK/iot_link/os/liteos/base/core\los_task.c **** 
1670:C:/Users/²Ü¼ÒºÀ/.iotlink/sdk/IoT_LINK/iot_link/os/liteos/base/core\los_task.c ****     return pstTaskCB->pcTaskName;
 4647              		.loc 2 1670 5 view .LVU1431
 4648              		.loc 2 1670 21 is_stmt 0 view .LVU1432
 4649 002a 606A     		ldr	r0, [r4, #36]
 4650              	.LVL371:
 4651              	.L304:
1671:C:/Users/²Ü¼ÒºÀ/.iotlink/sdk/IoT_LINK/iot_link/os/liteos/base/core\los_task.c **** }
 4652              		.loc 2 1671 1 view .LVU1433
 4653 002c 10BD     		pop	{r4, pc}
 4654              	.L309:
 4655 002e 00BF     		.align	2
 4656              	.L308:
 4657 0030 00000000 		.word	g_uwTskMaxNum
 4658 0034 00000000 		.word	g_pstTaskCBArray
 4659              		.cfi_endproc
 4660              	.LFE323:
 4662              		.comm	g_astTskSwitchInfo,342,2
 4663              		.global	g_pfnUsrTskSwitchHook
 4664              		.global	g_pfnTskSwitchHook
 4665              		.comm	g_bTaskScheduled,4,4
 4666              		.comm	g_stTskSortLink,8,4
 4667              		.comm	g_stTaskTimerList,8,4
 4668              		.comm	g_uwSwtmrTaskID,4,4
 4669              		.comm	g_uwIdleTaskID,4,4
 4670              		.comm	g_uwTskMaxNum,4,4
 4671              		.comm	g_usLosTaskLock,2,2
 4672              		.comm	g_stLosTask,8,4
 4673              		.comm	g_stTskRecyleList,8,4
 4674              		.comm	g_stLosFreeTask,8,4
 4675              		.comm	g_pstTaskCBArray,4,4
 4676              		.section	.bss.g_pfnTskSwitchHook,"aw",%nobits
 4677              		.align	2
 4678              		.set	.LANCHOR1,. + 0
 4681              	g_pfnTskSwitchHook:
 4682 0000 00000000 		.space	4
 4683              		.section	.bss.g_pfnUsrTskSwitchHook,"aw",%nobits
 4684              		.align	2
 4685              		.set	.LANCHOR0,. + 0
 4688              	g_pfnUsrTskSwitchHook:
 4689 0000 00000000 		.space	4
 4690              		.text
 4691              	.Letext0:
 4692              		.file 3 "c:\\users\\\262\334\274\322\272\300\\.iotlink\\tools\\gcc-arm-none-eabi\\arm-none-eabi\\i
 4693              		.file 4 "c:\\users\\\262\334\274\322\272\300\\.iotlink\\tools\\gcc-arm-none-eabi\\arm-none-eabi\\i
ARM GAS  C:\Users\²Ü¼ÒºÀ\AppData\Local\Temp\ccOngKk7.s 			page 132


 4694              		.file 5 "c:\\users\\\262\334\274\322\272\300\\.iotlink\\tools\\gcc-arm-none-eabi\\arm-none-eabi\\i
 4695              		.file 6 "c:\\users\\\262\334\274\322\272\300\\.iotlink\\tools\\gcc-arm-none-eabi\\lib\\gcc\\arm-no
 4696              		.file 7 "c:\\users\\\262\334\274\322\272\300\\.iotlink\\tools\\gcc-arm-none-eabi\\arm-none-eabi\\i
 4697              		.file 8 "C:/Users/\262\334\274\322\272\300/.iotlink/sdk/IoT_LINK/iot_link/os/liteos/include/los_ty
 4698              		.file 9 "c:\\users\\\262\334\274\322\272\300\\.iotlink\\tools\\gcc-arm-none-eabi\\arm-none-eabi\\i
 4699              		.file 10 "C:/Users/\262\334\274\322\272\300/.iotlink/sdk/IoT_LINK/iot_link/os/liteos/arch/arm/comm
 4700              		.file 11 "d:/liteos/code/WIFI2/Inc/system_stm32l4xx.h"
 4701              		.file 12 "C:/Users/\262\334\274\322\272\300/.iotlink/sdk/IoT_LINK/iot_link/os/liteos/arch/arm/arm-
 4702              		.file 13 "C:/Users/\262\334\274\322\272\300/.iotlink/sdk/IoT_LINK/iot_link/os/liteos/include/los_e
 4703              		.file 14 "C:/Users/\262\334\274\322\272\300/.iotlink/sdk/IoT_LINK/iot_link/os/liteos/include/los_c
 4704              		.file 15 "C:/Users/\262\334\274\322\272\300/.iotlink/sdk/IoT_LINK/iot_link/os/liteos/include/los_e
 4705              		.file 16 "C:/Users/\262\334\274\322\272\300/.iotlink/sdk/IoT_LINK/iot_link/os/liteos/include/los_t
 4706              		.file 17 "C:/Users/\262\334\274\322\272\300/.iotlink/sdk/IoT_LINK/iot_link/os/liteos/include/los_t
 4707              		.file 18 "C:/Users/\262\334\274\322\272\300/.iotlink/sdk/IoT_LINK/iot_link/os/liteos/base/include/
 4708              		.file 19 "C:/Users/\262\334\274\322\272\300/.iotlink/sdk/IoT_LINK/iot_link/os/liteos/base/core/los
 4709              		.file 20 "C:/Users/\262\334\274\322\272\300/.iotlink/sdk/IoT_LINK/iot_link/os/liteos/include/los_m
 4710              		.file 21 "C:/Users/\262\334\274\322\272\300/.iotlink/sdk/IoT_LINK/iot_link/os/liteos/base/include/
 4711              		.file 22 "C:/Users/\262\334\274\322\272\300/.iotlink/sdk/IoT_LINK/iot_link/os/liteos/base/include/
 4712              		.file 23 "c:\\users\\\262\334\274\322\272\300\\.iotlink\\tools\\gcc-arm-none-eabi\\arm-none-eabi\\
 4713              		.file 24 "C:/Users/\262\334\274\322\272\300/.iotlink/sdk/IoT_LINK/iot_link/os/liteos/arch/arm/arm-
 4714              		.file 25 "C:/Users/\262\334\274\322\272\300/.iotlink/sdk/IoT_LINK/iot_link/os/liteos/base/include/
 4715              		.file 26 "c:\\users\\\262\334\274\322\272\300\\.iotlink\\tools\\gcc-arm-none-eabi\\arm-none-eabi\\
 4716              		.file 27 "<built-in>"
 4717              		.file 28 "C:/Users/\262\334\274\322\272\300/.iotlink/sdk/IoT_LINK/iot_link/os/liteos/include/los_b
ARM GAS  C:\Users\²Ü¼ÒºÀ\AppData\Local\Temp\ccOngKk7.s 			page 133


DEFINED SYMBOLS
                            *ABS*:00000000 los_task.c
C:\Users\²Ü¼ÒºÀ\AppData\Local\Temp\ccOngKk7.s:18     .text.LOS_ListDelete:00000000 $t
C:\Users\²Ü¼ÒºÀ\AppData\Local\Temp\ccOngKk7.s:25     .text.LOS_ListDelete:00000000 LOS_ListDelete
C:\Users\²Ü¼ÒºÀ\AppData\Local\Temp\ccOngKk7.s:53     .text.osIdleTask:00000000 $t
C:\Users\²Ü¼ÒºÀ\AppData\Local\Temp\ccOngKk7.s:60     .text.osIdleTask:00000000 osIdleTask
C:\Users\²Ü¼ÒºÀ\AppData\Local\Temp\ccOngKk7.s:87     .text.osTaskSwitchCheck:00000000 $t
C:\Users\²Ü¼ÒºÀ\AppData\Local\Temp\ccOngKk7.s:94     .text.osTaskSwitchCheck:00000000 osTaskSwitchCheck
C:\Users\²Ü¼ÒºÀ\AppData\Local\Temp\ccOngKk7.s:252    .text.osTaskSwitchCheck:000000b0 $d
                            *COM*:00000008 g_stLosTask
                            *COM*:00000156 g_astTskSwitchInfo
C:\Users\²Ü¼ÒºÀ\AppData\Local\Temp\ccOngKk7.s:263    .text.osTaskPriModify:00000000 $t
C:\Users\²Ü¼ÒºÀ\AppData\Local\Temp\ccOngKk7.s:270    .text.osTaskPriModify:00000000 osTaskPriModify
C:\Users\²Ü¼ÒºÀ\AppData\Local\Temp\ccOngKk7.s:348    .text.osTaskAdd2TimerList:00000000 $t
C:\Users\²Ü¼ÒºÀ\AppData\Local\Temp\ccOngKk7.s:355    .text.osTaskAdd2TimerList:00000000 osTaskAdd2TimerList
C:\Users\²Ü¼ÒºÀ\AppData\Local\Temp\ccOngKk7.s:526    .text.osTaskAdd2TimerList:00000078 $d
                            *COM*:00000008 g_stTskSortLink
C:\Users\²Ü¼ÒºÀ\AppData\Local\Temp\ccOngKk7.s:531    .text.osTimerListDelete:00000000 $t
C:\Users\²Ü¼ÒºÀ\AppData\Local\Temp\ccOngKk7.s:538    .text.osTimerListDelete:00000000 osTimerListDelete
C:\Users\²Ü¼ÒºÀ\AppData\Local\Temp\ccOngKk7.s:595    .text.osTimerListDelete:00000034 $d
C:\Users\²Ü¼ÒºÀ\AppData\Local\Temp\ccOngKk7.s:600    .text.osTaskScan:00000000 $t
C:\Users\²Ü¼ÒºÀ\AppData\Local\Temp\ccOngKk7.s:607    .text.osTaskScan:00000000 osTaskScan
C:\Users\²Ü¼ÒºÀ\AppData\Local\Temp\ccOngKk7.s:797    .text.osTaskScan:000000a8 $d
C:\Users\²Ü¼ÒºÀ\AppData\Local\Temp\ccOngKk7.s:821    .text.osConvertTskStatus:00000000 $t
C:\Users\²Ü¼ÒºÀ\AppData\Local\Temp\ccOngKk7.s:828    .text.osConvertTskStatus:00000000 osConvertTskStatus
C:\Users\²Ü¼ÒºÀ\AppData\Local\Temp\ccOngKk7.s:939    .text.osConvertTskStatus:00000044 $d
C:\Users\²Ü¼ÒºÀ\AppData\Local\Temp\ccOngKk7.s:955    .text.osGetTaskWaterLine:00000000 $t
C:\Users\²Ü¼ÒºÀ\AppData\Local\Temp\ccOngKk7.s:962    .text.osGetTaskWaterLine:00000000 osGetTaskWaterLine
C:\Users\²Ü¼ÒºÀ\AppData\Local\Temp\ccOngKk7.s:1049   .text.osGetTaskWaterLine:00000048 $d
                            *COM*:00000004 g_pstTaskCBArray
C:\Users\²Ü¼ÒºÀ\AppData\Local\Temp\ccOngKk7.s:1074   .text.osGetAllTskInfo:00000000 $t
C:\Users\²Ü¼ÒºÀ\AppData\Local\Temp\ccOngKk7.s:1081   .text.osGetAllTskInfo:00000000 osGetAllTskInfo
C:\Users\²Ü¼ÒºÀ\AppData\Local\Temp\ccOngKk7.s:1223   .text.osGetAllTskInfo:000000a8 $d
                            *COM*:00000004 g_uwTskMaxNum
C:\Users\²Ü¼ÒºÀ\AppData\Local\Temp\ccOngKk7.s:1235   .text.osTaskInit:00000000 $t
C:\Users\²Ü¼ÒºÀ\AppData\Local\Temp\ccOngKk7.s:1242   .text.osTaskInit:00000000 osTaskInit
C:\Users\²Ü¼ÒºÀ\AppData\Local\Temp\ccOngKk7.s:1496   .text.osTaskInit:000000a4 $d
                            *COM*:00000008 g_stTaskTimerList
                            *COM*:00000008 g_stLosFreeTask
                            *COM*:00000008 g_stTskRecyleList
C:\Users\²Ü¼ÒºÀ\AppData\Local\Temp\ccOngKk7.s:1509   .text.LOS_CurTaskIDGet:00000000 $t
C:\Users\²Ü¼ÒºÀ\AppData\Local\Temp\ccOngKk7.s:1516   .text.LOS_CurTaskIDGet:00000000 LOS_CurTaskIDGet
C:\Users\²Ü¼ÒºÀ\AppData\Local\Temp\ccOngKk7.s:1541   .text.LOS_CurTaskIDGet:00000010 $d
C:\Users\²Ü¼ÒºÀ\AppData\Local\Temp\ccOngKk7.s:1547   .text.LOS_NextTaskIDGet:00000000 $t
C:\Users\²Ü¼ÒºÀ\AppData\Local\Temp\ccOngKk7.s:1554   .text.LOS_NextTaskIDGet:00000000 LOS_NextTaskIDGet
C:\Users\²Ü¼ÒºÀ\AppData\Local\Temp\ccOngKk7.s:1579   .text.LOS_NextTaskIDGet:00000010 $d
C:\Users\²Ü¼ÒºÀ\AppData\Local\Temp\ccOngKk7.s:1585   .text.LOS_CurTaskNameGet:00000000 $t
C:\Users\²Ü¼ÒºÀ\AppData\Local\Temp\ccOngKk7.s:1592   .text.LOS_CurTaskNameGet:00000000 LOS_CurTaskNameGet
C:\Users\²Ü¼ÒºÀ\AppData\Local\Temp\ccOngKk7.s:1618   .text.LOS_CurTaskNameGet:0000000c $d
C:\Users\²Ü¼ÒºÀ\AppData\Local\Temp\ccOngKk7.s:1623   .text.osTaskMonInit:00000000 $t
C:\Users\²Ü¼ÒºÀ\AppData\Local\Temp\ccOngKk7.s:1630   .text.osTaskMonInit:00000000 osTaskMonInit
C:\Users\²Ü¼ÒºÀ\AppData\Local\Temp\ccOngKk7.s:1671   .text.osTaskMonInit:00000024 $d
C:\Users\²Ü¼ÒºÀ\AppData\Local\Temp\ccOngKk7.s:1679   .text.LOS_TaskCreateOnly:00000000 $t
C:\Users\²Ü¼ÒºÀ\AppData\Local\Temp\ccOngKk7.s:1686   .text.LOS_TaskCreateOnly:00000000 LOS_TaskCreateOnly
C:\Users\²Ü¼ÒºÀ\AppData\Local\Temp\ccOngKk7.s:2046   .text.LOS_TaskCreateOnly:00000124 $d
C:\Users\²Ü¼ÒºÀ\AppData\Local\Temp\ccOngKk7.s:2062   .text.LOS_TaskCreate:00000000 $t
C:\Users\²Ü¼ÒºÀ\AppData\Local\Temp\ccOngKk7.s:2069   .text.LOS_TaskCreate:00000000 LOS_TaskCreate
ARM GAS  C:\Users\²Ü¼ÒºÀ\AppData\Local\Temp\ccOngKk7.s 			page 134


C:\Users\²Ü¼ÒºÀ\AppData\Local\Temp\ccOngKk7.s:2230   .text.LOS_TaskCreate:00000088 $d
                            *COM*:00000004 g_bTaskScheduled
                            *COM*:00000002 g_usLosTaskLock
C:\Users\²Ü¼ÒºÀ\AppData\Local\Temp\ccOngKk7.s:2242   .text.osIdleTaskCreate:00000000 $t
C:\Users\²Ü¼ÒºÀ\AppData\Local\Temp\ccOngKk7.s:2249   .text.osIdleTaskCreate:00000000 osIdleTaskCreate
C:\Users\²Ü¼ÒºÀ\AppData\Local\Temp\ccOngKk7.s:2304   .text.osIdleTaskCreate:00000030 $d
                            *COM*:00000004 g_uwIdleTaskID
C:\Users\²Ü¼ÒºÀ\AppData\Local\Temp\ccOngKk7.s:2311   .text.LOS_TaskResume:00000000 $t
C:\Users\²Ü¼ÒºÀ\AppData\Local\Temp\ccOngKk7.s:2318   .text.LOS_TaskResume:00000000 LOS_TaskResume
C:\Users\²Ü¼ÒºÀ\AppData\Local\Temp\ccOngKk7.s:2470   .text.LOS_TaskResume:0000007c $d
C:\Users\²Ü¼ÒºÀ\AppData\Local\Temp\ccOngKk7.s:2480   .text.LOS_TaskSuspend:00000000 $t
C:\Users\²Ü¼ÒºÀ\AppData\Local\Temp\ccOngKk7.s:2487   .text.LOS_TaskSuspend:00000000 LOS_TaskSuspend
C:\Users\²Ü¼ÒºÀ\AppData\Local\Temp\ccOngKk7.s:2663   .text.LOS_TaskSuspend:0000009c $d
                            *COM*:00000004 g_uwSwtmrTaskID
C:\Users\²Ü¼ÒºÀ\AppData\Local\Temp\ccOngKk7.s:2679   .text.LOS_TaskDelete:00000000 $t
C:\Users\²Ü¼ÒºÀ\AppData\Local\Temp\ccOngKk7.s:2686   .text.LOS_TaskDelete:00000000 LOS_TaskDelete
C:\Users\²Ü¼ÒºÀ\AppData\Local\Temp\ccOngKk7.s:3040   .text.LOS_TaskDelete:00000134 $d
C:\Users\²Ü¼ÒºÀ\AppData\Local\Temp\ccOngKk7.s:3057   .text.osTaskEntry:00000000 $t
C:\Users\²Ü¼ÒºÀ\AppData\Local\Temp\ccOngKk7.s:3064   .text.osTaskEntry:00000000 osTaskEntry
C:\Users\²Ü¼ÒºÀ\AppData\Local\Temp\ccOngKk7.s:3111   .text.osTaskEntry:0000001c $d
C:\Users\²Ü¼ÒºÀ\AppData\Local\Temp\ccOngKk7.s:3116   .text.LOS_TaskPriGet:00000000 $t
C:\Users\²Ü¼ÒºÀ\AppData\Local\Temp\ccOngKk7.s:3123   .text.LOS_TaskPriGet:00000000 LOS_TaskPriGet
C:\Users\²Ü¼ÒºÀ\AppData\Local\Temp\ccOngKk7.s:3189   .text.LOS_TaskPriGet:00000034 $d
C:\Users\²Ü¼ÒºÀ\AppData\Local\Temp\ccOngKk7.s:3195   .text.LOS_TaskPriSet:00000000 $t
C:\Users\²Ü¼ÒºÀ\AppData\Local\Temp\ccOngKk7.s:3202   .text.LOS_TaskPriSet:00000000 LOS_TaskPriSet
C:\Users\²Ü¼ÒºÀ\AppData\Local\Temp\ccOngKk7.s:3394   .text.LOS_TaskPriSet:0000008c $d
C:\Users\²Ü¼ÒºÀ\AppData\Local\Temp\ccOngKk7.s:3409   .text.LOS_CurTaskPriSet:00000000 $t
C:\Users\²Ü¼ÒºÀ\AppData\Local\Temp\ccOngKk7.s:3416   .text.LOS_CurTaskPriSet:00000000 LOS_CurTaskPriSet
C:\Users\²Ü¼ÒºÀ\AppData\Local\Temp\ccOngKk7.s:3441   .text.LOS_CurTaskPriSet:0000000c $d
C:\Users\²Ü¼ÒºÀ\AppData\Local\Temp\ccOngKk7.s:3446   .text.osTaskWait:00000000 $t
C:\Users\²Ü¼ÒºÀ\AppData\Local\Temp\ccOngKk7.s:3453   .text.osTaskWait:00000000 osTaskWait
C:\Users\²Ü¼ÒºÀ\AppData\Local\Temp\ccOngKk7.s:3585   .text.osTaskWait:00000050 $d
C:\Users\²Ü¼ÒºÀ\AppData\Local\Temp\ccOngKk7.s:3590   .text.osTaskWake:00000000 $t
C:\Users\²Ü¼ÒºÀ\AppData\Local\Temp\ccOngKk7.s:3597   .text.osTaskWake:00000000 osTaskWake
C:\Users\²Ü¼ÒºÀ\AppData\Local\Temp\ccOngKk7.s:3682   .text.LOS_TaskYield:00000000 $t
C:\Users\²Ü¼ÒºÀ\AppData\Local\Temp\ccOngKk7.s:3689   .text.LOS_TaskYield:00000000 LOS_TaskYield
C:\Users\²Ü¼ÒºÀ\AppData\Local\Temp\ccOngKk7.s:3810   .text.LOS_TaskYield:00000060 $d
C:\Users\²Ü¼ÒºÀ\AppData\Local\Temp\ccOngKk7.s:3818   .text.LOS_TaskDelay:00000000 $t
C:\Users\²Ü¼ÒºÀ\AppData\Local\Temp\ccOngKk7.s:3825   .text.LOS_TaskDelay:00000000 LOS_TaskDelay
C:\Users\²Ü¼ÒºÀ\AppData\Local\Temp\ccOngKk7.s:3938   .text.LOS_TaskDelay:0000005c $d
C:\Users\²Ü¼ÒºÀ\AppData\Local\Temp\ccOngKk7.s:3946   .text.LOS_TaskLock:00000000 $t
C:\Users\²Ü¼ÒºÀ\AppData\Local\Temp\ccOngKk7.s:3953   .text.LOS_TaskLock:00000000 LOS_TaskLock
C:\Users\²Ü¼ÒºÀ\AppData\Local\Temp\ccOngKk7.s:3990   .text.LOS_TaskLock:00000018 $d
C:\Users\²Ü¼ÒºÀ\AppData\Local\Temp\ccOngKk7.s:3995   .text.LOS_TaskUnlock:00000000 $t
C:\Users\²Ü¼ÒºÀ\AppData\Local\Temp\ccOngKk7.s:4002   .text.LOS_TaskUnlock:00000000 LOS_TaskUnlock
C:\Users\²Ü¼ÒºÀ\AppData\Local\Temp\ccOngKk7.s:4070   .text.LOS_TaskUnlock:0000002c $d
C:\Users\²Ü¼ÒºÀ\AppData\Local\Temp\ccOngKk7.s:4075   .text.LOS_TaskInfoGet:00000000 $t
C:\Users\²Ü¼ÒºÀ\AppData\Local\Temp\ccOngKk7.s:4082   .text.LOS_TaskInfoGet:00000000 LOS_TaskInfoGet
C:\Users\²Ü¼ÒºÀ\AppData\Local\Temp\ccOngKk7.s:4325   .text.LOS_TaskInfoGet:000000e0 $d
C:\Users\²Ü¼ÒºÀ\AppData\Local\Temp\ccOngKk7.s:4334   .text.LOS_TaskStatusGet:00000000 $t
C:\Users\²Ü¼ÒºÀ\AppData\Local\Temp\ccOngKk7.s:4341   .text.LOS_TaskStatusGet:00000000 LOS_TaskStatusGet
C:\Users\²Ü¼ÒºÀ\AppData\Local\Temp\ccOngKk7.s:4426   .text.LOS_TaskStatusGet:00000040 $d
C:\Users\²Ü¼ÒºÀ\AppData\Local\Temp\ccOngKk7.s:4435   .text.LOS_TaskSwitchInfoGet:00000000 $t
C:\Users\²Ü¼ÒºÀ\AppData\Local\Temp\ccOngKk7.s:4442   .text.LOS_TaskSwitchInfoGet:00000000 LOS_TaskSwitchInfoGet
C:\Users\²Ü¼ÒºÀ\AppData\Local\Temp\ccOngKk7.s:4513   .text.LOS_TaskSwitchInfoGet:00000044 $d
C:\Users\²Ü¼ÒºÀ\AppData\Local\Temp\ccOngKk7.s:4519   .text.LOS_TaskInfoMonitor:00000000 $t
C:\Users\²Ü¼ÒºÀ\AppData\Local\Temp\ccOngKk7.s:4526   .text.LOS_TaskInfoMonitor:00000000 LOS_TaskInfoMonitor
ARM GAS  C:\Users\²Ü¼ÒºÀ\AppData\Local\Temp\ccOngKk7.s 			page 135


C:\Users\²Ü¼ÒºÀ\AppData\Local\Temp\ccOngKk7.s:4542   .text.LOS_TaskIsRunning:00000000 $t
C:\Users\²Ü¼ÒºÀ\AppData\Local\Temp\ccOngKk7.s:4549   .text.LOS_TaskIsRunning:00000000 LOS_TaskIsRunning
C:\Users\²Ü¼ÒºÀ\AppData\Local\Temp\ccOngKk7.s:4564   .text.LOS_TaskIsRunning:00000008 $d
C:\Users\²Ü¼ÒºÀ\AppData\Local\Temp\ccOngKk7.s:4569   .text.LOS_NewTaskIDGet:00000000 $t
C:\Users\²Ü¼ÒºÀ\AppData\Local\Temp\ccOngKk7.s:4576   .text.LOS_NewTaskIDGet:00000000 LOS_NewTaskIDGet
C:\Users\²Ü¼ÒºÀ\AppData\Local\Temp\ccOngKk7.s:4587   .text.LOS_TaskNameGet:00000000 $t
C:\Users\²Ü¼ÒºÀ\AppData\Local\Temp\ccOngKk7.s:4594   .text.LOS_TaskNameGet:00000000 LOS_TaskNameGet
C:\Users\²Ü¼ÒºÀ\AppData\Local\Temp\ccOngKk7.s:4657   .text.LOS_TaskNameGet:00000030 $d
C:\Users\²Ü¼ÒºÀ\AppData\Local\Temp\ccOngKk7.s:4688   .bss.g_pfnUsrTskSwitchHook:00000000 g_pfnUsrTskSwitchHook
C:\Users\²Ü¼ÒºÀ\AppData\Local\Temp\ccOngKk7.s:4681   .bss.g_pfnTskSwitchHook:00000000 g_pfnTskSwitchHook
C:\Users\²Ü¼ÒºÀ\AppData\Local\Temp\ccOngKk7.s:4677   .bss.g_pfnTskSwitchHook:00000000 $d
C:\Users\²Ü¼ÒºÀ\AppData\Local\Temp\ccOngKk7.s:4684   .bss.g_pfnUsrTskSwitchHook:00000000 $d

UNDEFINED SYMBOLS
printf
osPriqueueDequeue
osPriqueueEnqueue
LOS_Schedule
puts
LOS_MemAlloc
memset
osPriqueueInit
m_aucSysMem0
LOS_Align
LOS_IntLock
LOS_IntRestore
osTskStackAlloc
LOS_MemFree
osTskStackInit
osPriqueueTop
osSchedule
osPriqueueSize
osIntNumGet
strncpy
