ARM GAS  C:\Users\²Ü¼ÒºÀ\AppData\Local\Temp\ccUTRmBj.s 			page 1


   1              		.cpu cortex-m4
   2              		.eabi_attribute 27, 1
   3              		.eabi_attribute 28, 1
   4              		.eabi_attribute 20, 1
   5              		.eabi_attribute 21, 1
   6              		.eabi_attribute 23, 3
   7              		.eabi_attribute 24, 1
   8              		.eabi_attribute 25, 1
   9              		.eabi_attribute 26, 1
  10              		.eabi_attribute 30, 4
  11              		.eabi_attribute 34, 1
  12              		.eabi_attribute 18, 4
  13              		.file	"stimer.c"
  14              		.text
  15              	.Ltext0:
  16              		.cfi_sections	.debug_frame
  17              		.section	.text.timer_remove,"ax",%progbits
  18              		.align	1
  19              		.arch armv7e-m
  20              		.syntax unified
  21              		.thumb
  22              		.thumb_func
  23              		.fpu fpv4-sp-d16
  25              	timer_remove:
  26              	.LVL0:
  27              	.LFB3:
  28              		.file 1 "C:/Users/\262\334\274\322\272\300/.iotlink/sdk/IoT_LINK/iot_link/stimer/stimer.c"
   1:C:/Users/²Ü¼ÒºÀ/.iotlink/sdk/IoT_LINK/iot_link/stimer\stimer.c **** /*----------------------------------------------------------------------------
   2:C:/Users/²Ü¼ÒºÀ/.iotlink/sdk/IoT_LINK/iot_link/stimer\stimer.c ****  * Copyright (c) <2018>, <Huawei Technologies Co., Ltd>
   3:C:/Users/²Ü¼ÒºÀ/.iotlink/sdk/IoT_LINK/iot_link/stimer\stimer.c ****  * All rights reserved.
   4:C:/Users/²Ü¼ÒºÀ/.iotlink/sdk/IoT_LINK/iot_link/stimer\stimer.c ****  * Redistribution and use in source and binary forms, with or without modification,
   5:C:/Users/²Ü¼ÒºÀ/.iotlink/sdk/IoT_LINK/iot_link/stimer\stimer.c ****  * are permitted provided that the following conditions are met:
   6:C:/Users/²Ü¼ÒºÀ/.iotlink/sdk/IoT_LINK/iot_link/stimer\stimer.c ****  * 1. Redistributions of source code must retain the above copyright notice, this list of
   7:C:/Users/²Ü¼ÒºÀ/.iotlink/sdk/IoT_LINK/iot_link/stimer\stimer.c ****  * conditions and the following disclaimer.
   8:C:/Users/²Ü¼ÒºÀ/.iotlink/sdk/IoT_LINK/iot_link/stimer\stimer.c ****  * 2. Redistributions in binary form must reproduce the above copyright notice, this list
   9:C:/Users/²Ü¼ÒºÀ/.iotlink/sdk/IoT_LINK/iot_link/stimer\stimer.c ****  * of conditions and the following disclaimer in the documentation and/or other materials
  10:C:/Users/²Ü¼ÒºÀ/.iotlink/sdk/IoT_LINK/iot_link/stimer\stimer.c ****  * provided with the distribution.
  11:C:/Users/²Ü¼ÒºÀ/.iotlink/sdk/IoT_LINK/iot_link/stimer\stimer.c ****  * 3. Neither the name of the copyright holder nor the names of its contributors may be used
  12:C:/Users/²Ü¼ÒºÀ/.iotlink/sdk/IoT_LINK/iot_link/stimer\stimer.c ****  * to endorse or promote products derived from this software without specific prior written
  13:C:/Users/²Ü¼ÒºÀ/.iotlink/sdk/IoT_LINK/iot_link/stimer\stimer.c ****  * permission.
  14:C:/Users/²Ü¼ÒºÀ/.iotlink/sdk/IoT_LINK/iot_link/stimer\stimer.c ****  * THIS SOFTWARE IS PROVIDED BY THE COPYRIGHT HOLDERS AND CONTRIBUTORS
  15:C:/Users/²Ü¼ÒºÀ/.iotlink/sdk/IoT_LINK/iot_link/stimer\stimer.c ****  * "AS IS" AND ANY EXPRESS OR IMPLIED WARRANTIES, INCLUDING, BUT NOT LIMITED TO,
  16:C:/Users/²Ü¼ÒºÀ/.iotlink/sdk/IoT_LINK/iot_link/stimer\stimer.c ****  * THE IMPLIED WARRANTIES OF MERCHANTABILITY AND FITNESS FOR A PARTICULAR
  17:C:/Users/²Ü¼ÒºÀ/.iotlink/sdk/IoT_LINK/iot_link/stimer\stimer.c ****  * PURPOSE ARE DISCLAIMED. IN NO EVENT SHALL THE COPYRIGHT HOLDER OR
  18:C:/Users/²Ü¼ÒºÀ/.iotlink/sdk/IoT_LINK/iot_link/stimer\stimer.c ****  * CONTRIBUTORS BE LIABLE FOR ANY DIRECT, INDIRECT, INCIDENTAL, SPECIAL,
  19:C:/Users/²Ü¼ÒºÀ/.iotlink/sdk/IoT_LINK/iot_link/stimer\stimer.c ****  * EXEMPLARY, OR CONSEQUENTIAL DAMAGES (INCLUDING, BUT NOT LIMITED TO,
  20:C:/Users/²Ü¼ÒºÀ/.iotlink/sdk/IoT_LINK/iot_link/stimer\stimer.c ****  * PROCUREMENT OF SUBSTITUTE GOODS OR SERVICES; LOSS OF USE, DATA, OR PROFITS;
  21:C:/Users/²Ü¼ÒºÀ/.iotlink/sdk/IoT_LINK/iot_link/stimer\stimer.c ****  * OR BUSINESS INTERRUPTION) HOWEVER CAUSED AND ON ANY THEORY OF LIABILITY,
  22:C:/Users/²Ü¼ÒºÀ/.iotlink/sdk/IoT_LINK/iot_link/stimer\stimer.c ****  * WHETHER IN CONTRACT, STRICT LIABILITY, OR TORT (INCLUDING NEGLIGENCE OR
  23:C:/Users/²Ü¼ÒºÀ/.iotlink/sdk/IoT_LINK/iot_link/stimer\stimer.c ****  * OTHERWISE) ARISING IN ANY WAY OUT OF THE USE OF THIS SOFTWARE, EVEN IF
  24:C:/Users/²Ü¼ÒºÀ/.iotlink/sdk/IoT_LINK/iot_link/stimer\stimer.c ****  * ADVISED OF THE POSSIBILITY OF SUCH DAMAGE.
  25:C:/Users/²Ü¼ÒºÀ/.iotlink/sdk/IoT_LINK/iot_link/stimer\stimer.c ****  *---------------------------------------------------------------------------*/
  26:C:/Users/²Ü¼ÒºÀ/.iotlink/sdk/IoT_LINK/iot_link/stimer\stimer.c **** /*----------------------------------------------------------------------------
  27:C:/Users/²Ü¼ÒºÀ/.iotlink/sdk/IoT_LINK/iot_link/stimer\stimer.c ****  * Notice of Export Control Law
  28:C:/Users/²Ü¼ÒºÀ/.iotlink/sdk/IoT_LINK/iot_link/stimer\stimer.c ****  * ===============================================
  29:C:/Users/²Ü¼ÒºÀ/.iotlink/sdk/IoT_LINK/iot_link/stimer\stimer.c ****  * Huawei LiteOS may be subject to applicable export control laws and regulations, which might
  30:C:/Users/²Ü¼ÒºÀ/.iotlink/sdk/IoT_LINK/iot_link/stimer\stimer.c ****  * include those applicable to Huawei LiteOS of U.S. and the country in which you are located.
ARM GAS  C:\Users\²Ü¼ÒºÀ\AppData\Local\Temp\ccUTRmBj.s 			page 2


  31:C:/Users/²Ü¼ÒºÀ/.iotlink/sdk/IoT_LINK/iot_link/stimer\stimer.c ****  * Import, export and usage of Huawei LiteOS in any manner by you shall be in compliance with such
  32:C:/Users/²Ü¼ÒºÀ/.iotlink/sdk/IoT_LINK/iot_link/stimer\stimer.c ****  * applicable export control laws and regulations.
  33:C:/Users/²Ü¼ÒºÀ/.iotlink/sdk/IoT_LINK/iot_link/stimer\stimer.c ****  *---------------------------------------------------------------------------*/
  34:C:/Users/²Ü¼ÒºÀ/.iotlink/sdk/IoT_LINK/iot_link/stimer\stimer.c **** /**
  35:C:/Users/²Ü¼ÒºÀ/.iotlink/sdk/IoT_LINK/iot_link/stimer\stimer.c ****  *  DATE                AUTHOR      INSTRUCTION
  36:C:/Users/²Ü¼ÒºÀ/.iotlink/sdk/IoT_LINK/iot_link/stimer\stimer.c ****  *  2019-07-26 18:04  zhangqianfu  The first version
  37:C:/Users/²Ü¼ÒºÀ/.iotlink/sdk/IoT_LINK/iot_link/stimer\stimer.c ****  *
  38:C:/Users/²Ü¼ÒºÀ/.iotlink/sdk/IoT_LINK/iot_link/stimer\stimer.c ****  */
  39:C:/Users/²Ü¼ÒºÀ/.iotlink/sdk/IoT_LINK/iot_link/stimer\stimer.c **** 
  40:C:/Users/²Ü¼ÒºÀ/.iotlink/sdk/IoT_LINK/iot_link/stimer\stimer.c **** #include <stddef.h>
  41:C:/Users/²Ü¼ÒºÀ/.iotlink/sdk/IoT_LINK/iot_link/stimer\stimer.c **** #include <stdint.h>
  42:C:/Users/²Ü¼ÒºÀ/.iotlink/sdk/IoT_LINK/iot_link/stimer\stimer.c **** #include <stdlib.h>
  43:C:/Users/²Ü¼ÒºÀ/.iotlink/sdk/IoT_LINK/iot_link/stimer\stimer.c **** #include <string.h>
  44:C:/Users/²Ü¼ÒºÀ/.iotlink/sdk/IoT_LINK/iot_link/stimer\stimer.c **** #include <stdio.h>
  45:C:/Users/²Ü¼ÒºÀ/.iotlink/sdk/IoT_LINK/iot_link/stimer\stimer.c **** 
  46:C:/Users/²Ü¼ÒºÀ/.iotlink/sdk/IoT_LINK/iot_link/stimer\stimer.c **** 
  47:C:/Users/²Ü¼ÒºÀ/.iotlink/sdk/IoT_LINK/iot_link/stimer\stimer.c **** #include <osal.h>
  48:C:/Users/²Ü¼ÒºÀ/.iotlink/sdk/IoT_LINK/iot_link/stimer\stimer.c **** #include <stimer.h>
  49:C:/Users/²Ü¼ÒºÀ/.iotlink/sdk/IoT_LINK/iot_link/stimer\stimer.c **** 
  50:C:/Users/²Ü¼ÒºÀ/.iotlink/sdk/IoT_LINK/iot_link/stimer\stimer.c **** #ifndef  CONFIG_STIMER_STACKSIZE
  51:C:/Users/²Ü¼ÒºÀ/.iotlink/sdk/IoT_LINK/iot_link/stimer\stimer.c **** #define  CONFIG_STIMER_STACKSIZE    0x800
  52:C:/Users/²Ü¼ÒºÀ/.iotlink/sdk/IoT_LINK/iot_link/stimer\stimer.c **** #endif
  53:C:/Users/²Ü¼ÒºÀ/.iotlink/sdk/IoT_LINK/iot_link/stimer\stimer.c **** 
  54:C:/Users/²Ü¼ÒºÀ/.iotlink/sdk/IoT_LINK/iot_link/stimer\stimer.c **** #ifndef  CONFIG_STIMER_TASKPRIOR
  55:C:/Users/²Ü¼ÒºÀ/.iotlink/sdk/IoT_LINK/iot_link/stimer\stimer.c **** #define  CONFIG_STIMER_TASKPRIOR    10
  56:C:/Users/²Ü¼ÒºÀ/.iotlink/sdk/IoT_LINK/iot_link/stimer\stimer.c **** #endif
  57:C:/Users/²Ü¼ÒºÀ/.iotlink/sdk/IoT_LINK/iot_link/stimer\stimer.c **** 
  58:C:/Users/²Ü¼ÒºÀ/.iotlink/sdk/IoT_LINK/iot_link/stimer\stimer.c **** 
  59:C:/Users/²Ü¼ÒºÀ/.iotlink/sdk/IoT_LINK/iot_link/stimer\stimer.c **** 
  60:C:/Users/²Ü¼ÒºÀ/.iotlink/sdk/IoT_LINK/iot_link/stimer\stimer.c **** ///< we use the normal list to manage the timer, next time you could use the RB
  61:C:/Users/²Ü¼ÒºÀ/.iotlink/sdk/IoT_LINK/iot_link/stimer\stimer.c **** ///< tree or something else to do some optimization,thanks for your supporting
  62:C:/Users/²Ü¼ÒºÀ/.iotlink/sdk/IoT_LINK/iot_link/stimer\stimer.c **** 
  63:C:/Users/²Ü¼ÒºÀ/.iotlink/sdk/IoT_LINK/iot_link/stimer\stimer.c **** typedef struct timer_item
  64:C:/Users/²Ü¼ÒºÀ/.iotlink/sdk/IoT_LINK/iot_link/stimer\stimer.c **** {
  65:C:/Users/²Ü¼ÒºÀ/.iotlink/sdk/IoT_LINK/iot_link/stimer\stimer.c ****     char               *name;        ///< verify the timer, will be used in the debug
  66:C:/Users/²Ü¼ÒºÀ/.iotlink/sdk/IoT_LINK/iot_link/stimer\stimer.c ****     uint32_t            cycle;       ///< timer cycle
  67:C:/Users/²Ü¼ÒºÀ/.iotlink/sdk/IoT_LINK/iot_link/stimer\stimer.c ****     uint32_t            flag;        ///< timer flag
  68:C:/Users/²Ü¼ÒºÀ/.iotlink/sdk/IoT_LINK/iot_link/stimer\stimer.c ****     fn_stimer_handler   handler;     ///< timer handler
  69:C:/Users/²Ü¼ÒºÀ/.iotlink/sdk/IoT_LINK/iot_link/stimer\stimer.c ****     void               *args;        ///< timer handler parameter
  70:C:/Users/²Ü¼ÒºÀ/.iotlink/sdk/IoT_LINK/iot_link/stimer\stimer.c ****     int64_t             dead_time;   ///< it is the dead time
  71:C:/Users/²Ü¼ÒºÀ/.iotlink/sdk/IoT_LINK/iot_link/stimer\stimer.c ****     struct timer_item  *nxt;         ///< used for the timer list
  72:C:/Users/²Ü¼ÒºÀ/.iotlink/sdk/IoT_LINK/iot_link/stimer\stimer.c **** }stimer_item_t;  ///< each timer will have this structure
  73:C:/Users/²Ü¼ÒºÀ/.iotlink/sdk/IoT_LINK/iot_link/stimer\stimer.c **** 
  74:C:/Users/²Ü¼ÒºÀ/.iotlink/sdk/IoT_LINK/iot_link/stimer\stimer.c **** typedef struct
  75:C:/Users/²Ü¼ÒºÀ/.iotlink/sdk/IoT_LINK/iot_link/stimer\stimer.c **** {
  76:C:/Users/²Ü¼ÒºÀ/.iotlink/sdk/IoT_LINK/iot_link/stimer\stimer.c ****     osal_semp_t    semp;       ///< used for time wait sync
  77:C:/Users/²Ü¼ÒºÀ/.iotlink/sdk/IoT_LINK/iot_link/stimer\stimer.c ****     osal_mutex_t   mutex;      ///< used for protect the timer list
  78:C:/Users/²Ü¼ÒºÀ/.iotlink/sdk/IoT_LINK/iot_link/stimer\stimer.c ****     stimer_item_t *lst;        ///< this is the soft timer listï¼Œ
  79:C:/Users/²Ü¼ÒºÀ/.iotlink/sdk/IoT_LINK/iot_link/stimer\stimer.c ****     void          *task;       ///< this is the task engine
  80:C:/Users/²Ü¼ÒºÀ/.iotlink/sdk/IoT_LINK/iot_link/stimer\stimer.c ****     int            daemon_exit;///< this is the task exit;
  81:C:/Users/²Ü¼ÒºÀ/.iotlink/sdk/IoT_LINK/iot_link/stimer\stimer.c **** 
  82:C:/Users/²Ü¼ÒºÀ/.iotlink/sdk/IoT_LINK/iot_link/stimer\stimer.c **** }stimer_cb_t;
  83:C:/Users/²Ü¼ÒºÀ/.iotlink/sdk/IoT_LINK/iot_link/stimer\stimer.c **** 
  84:C:/Users/²Ü¼ÒºÀ/.iotlink/sdk/IoT_LINK/iot_link/stimer\stimer.c **** static stimer_cb_t s_stimer_cb =  \
  85:C:/Users/²Ü¼ÒºÀ/.iotlink/sdk/IoT_LINK/iot_link/stimer\stimer.c **** {
  86:C:/Users/²Ü¼ÒºÀ/.iotlink/sdk/IoT_LINK/iot_link/stimer\stimer.c ****     .semp  = cn_semp_invalid,
  87:C:/Users/²Ü¼ÒºÀ/.iotlink/sdk/IoT_LINK/iot_link/stimer\stimer.c ****     .mutex = cn_mutex_invalid,
ARM GAS  C:\Users\²Ü¼ÒºÀ\AppData\Local\Temp\ccUTRmBj.s 			page 3


  88:C:/Users/²Ü¼ÒºÀ/.iotlink/sdk/IoT_LINK/iot_link/stimer\stimer.c ****     .lst   = NULL,
  89:C:/Users/²Ü¼ÒºÀ/.iotlink/sdk/IoT_LINK/iot_link/stimer\stimer.c ****     .task  = NULL,
  90:C:/Users/²Ü¼ÒºÀ/.iotlink/sdk/IoT_LINK/iot_link/stimer\stimer.c **** };
  91:C:/Users/²Ü¼ÒºÀ/.iotlink/sdk/IoT_LINK/iot_link/stimer\stimer.c **** 
  92:C:/Users/²Ü¼ÒºÀ/.iotlink/sdk/IoT_LINK/iot_link/stimer\stimer.c **** 
  93:C:/Users/²Ü¼ÒºÀ/.iotlink/sdk/IoT_LINK/iot_link/stimer\stimer.c **** #define cn_stimer_wait_max  (cn_osal_timeout_forever)    ///< almost the max time
  94:C:/Users/²Ü¼ÒºÀ/.iotlink/sdk/IoT_LINK/iot_link/stimer\stimer.c **** #define cn_stimer_dead_max  (0x7fffffffffffffff)         ///< maybe the int64_t max time
  95:C:/Users/²Ü¼ÒºÀ/.iotlink/sdk/IoT_LINK/iot_link/stimer\stimer.c **** static void timer_remove(stimer_item_t *item)
  96:C:/Users/²Ü¼ÒºÀ/.iotlink/sdk/IoT_LINK/iot_link/stimer\stimer.c **** {
  29              		.loc 1 96 1 view -0
  30              		.cfi_startproc
  31              		@ args = 0, pretend = 0, frame = 0
  32              		@ frame_needed = 0, uses_anonymous_args = 0
  33              		@ link register save eliminated.
  97:C:/Users/²Ü¼ÒºÀ/.iotlink/sdk/IoT_LINK/iot_link/stimer\stimer.c ****     stimer_item_t  *tmp;
  34              		.loc 1 97 5 view .LVU1
  98:C:/Users/²Ü¼ÒºÀ/.iotlink/sdk/IoT_LINK/iot_link/stimer\stimer.c ****     if(item == s_stimer_cb.lst)
  35              		.loc 1 98 5 view .LVU2
  36              		.loc 1 98 27 is_stmt 0 view .LVU3
  37 0000 084A     		ldr	r2, .L7
  38 0002 9368     		ldr	r3, [r2, #8]
  39              		.loc 1 98 7 view .LVU4
  40 0004 8342     		cmp	r3, r0
  41 0006 05D1     		bne	.L2
  99:C:/Users/²Ü¼ÒºÀ/.iotlink/sdk/IoT_LINK/iot_link/stimer\stimer.c ****     {
 100:C:/Users/²Ü¼ÒºÀ/.iotlink/sdk/IoT_LINK/iot_link/stimer\stimer.c ****         s_stimer_cb.lst = item->nxt ;
  42              		.loc 1 100 9 is_stmt 1 view .LVU5
  43              		.loc 1 100 25 is_stmt 0 view .LVU6
  44 0008 036A     		ldr	r3, [r0, #32]
  45 000a 9360     		str	r3, [r2, #8]
  46              	.L3:
 101:C:/Users/²Ü¼ÒºÀ/.iotlink/sdk/IoT_LINK/iot_link/stimer\stimer.c ****     }
 102:C:/Users/²Ü¼ÒºÀ/.iotlink/sdk/IoT_LINK/iot_link/stimer\stimer.c ****     else
 103:C:/Users/²Ü¼ÒºÀ/.iotlink/sdk/IoT_LINK/iot_link/stimer\stimer.c ****     {
 104:C:/Users/²Ü¼ÒºÀ/.iotlink/sdk/IoT_LINK/iot_link/stimer\stimer.c ****         tmp = s_stimer_cb.lst;
 105:C:/Users/²Ü¼ÒºÀ/.iotlink/sdk/IoT_LINK/iot_link/stimer\stimer.c ****         while(NULL != tmp)
 106:C:/Users/²Ü¼ÒºÀ/.iotlink/sdk/IoT_LINK/iot_link/stimer\stimer.c ****         {
 107:C:/Users/²Ü¼ÒºÀ/.iotlink/sdk/IoT_LINK/iot_link/stimer\stimer.c ****             if(tmp->nxt == item)
 108:C:/Users/²Ü¼ÒºÀ/.iotlink/sdk/IoT_LINK/iot_link/stimer\stimer.c ****             {
 109:C:/Users/²Ü¼ÒºÀ/.iotlink/sdk/IoT_LINK/iot_link/stimer\stimer.c ****                 tmp->nxt = item->nxt;
 110:C:/Users/²Ü¼ÒºÀ/.iotlink/sdk/IoT_LINK/iot_link/stimer\stimer.c ****                 break;
 111:C:/Users/²Ü¼ÒºÀ/.iotlink/sdk/IoT_LINK/iot_link/stimer\stimer.c ****             }
 112:C:/Users/²Ü¼ÒºÀ/.iotlink/sdk/IoT_LINK/iot_link/stimer\stimer.c ****             tmp = tmp->nxt;
 113:C:/Users/²Ü¼ÒºÀ/.iotlink/sdk/IoT_LINK/iot_link/stimer\stimer.c ****         }
 114:C:/Users/²Ü¼ÒºÀ/.iotlink/sdk/IoT_LINK/iot_link/stimer\stimer.c ****     }
 115:C:/Users/²Ü¼ÒºÀ/.iotlink/sdk/IoT_LINK/iot_link/stimer\stimer.c ****     item->nxt = NULL;
  47              		.loc 1 115 5 is_stmt 1 view .LVU7
  48              		.loc 1 115 15 is_stmt 0 view .LVU8
  49 000c 0023     		movs	r3, #0
  50 000e 0362     		str	r3, [r0, #32]
 116:C:/Users/²Ü¼ÒºÀ/.iotlink/sdk/IoT_LINK/iot_link/stimer\stimer.c **** }
  51              		.loc 1 116 1 view .LVU9
  52 0010 7047     		bx	lr
  53              	.LVL1:
  54              	.L5:
  55              		.loc 1 116 1 view .LVU10
  56 0012 1346     		mov	r3, r2
ARM GAS  C:\Users\²Ü¼ÒºÀ\AppData\Local\Temp\ccUTRmBj.s 			page 4


  57              	.LVL2:
  58              	.L2:
 105:C:/Users/²Ü¼ÒºÀ/.iotlink/sdk/IoT_LINK/iot_link/stimer\stimer.c ****         {
  59              		.loc 1 105 14 is_stmt 1 view .LVU11
  60 0014 002B     		cmp	r3, #0
  61 0016 F9D0     		beq	.L3
 107:C:/Users/²Ü¼ÒºÀ/.iotlink/sdk/IoT_LINK/iot_link/stimer\stimer.c ****             {
  62              		.loc 1 107 13 view .LVU12
 107:C:/Users/²Ü¼ÒºÀ/.iotlink/sdk/IoT_LINK/iot_link/stimer\stimer.c ****             {
  63              		.loc 1 107 19 is_stmt 0 view .LVU13
  64 0018 1A6A     		ldr	r2, [r3, #32]
 107:C:/Users/²Ü¼ÒºÀ/.iotlink/sdk/IoT_LINK/iot_link/stimer\stimer.c ****             {
  65              		.loc 1 107 15 view .LVU14
  66 001a 8242     		cmp	r2, r0
  67 001c F9D1     		bne	.L5
 109:C:/Users/²Ü¼ÒºÀ/.iotlink/sdk/IoT_LINK/iot_link/stimer\stimer.c ****                 break;
  68              		.loc 1 109 17 is_stmt 1 view .LVU15
 109:C:/Users/²Ü¼ÒºÀ/.iotlink/sdk/IoT_LINK/iot_link/stimer\stimer.c ****                 break;
  69              		.loc 1 109 32 is_stmt 0 view .LVU16
  70 001e 026A     		ldr	r2, [r0, #32]
 109:C:/Users/²Ü¼ÒºÀ/.iotlink/sdk/IoT_LINK/iot_link/stimer\stimer.c ****                 break;
  71              		.loc 1 109 26 view .LVU17
  72 0020 1A62     		str	r2, [r3, #32]
 110:C:/Users/²Ü¼ÒºÀ/.iotlink/sdk/IoT_LINK/iot_link/stimer\stimer.c ****             }
  73              		.loc 1 110 17 is_stmt 1 view .LVU18
  74 0022 F3E7     		b	.L3
  75              	.L8:
  76              		.align	2
  77              	.L7:
  78 0024 00000000 		.word	.LANCHOR0
  79              		.cfi_endproc
  80              	.LFE3:
  82              		.section	.text.timer_add,"ax",%progbits
  83              		.align	1
  84              		.syntax unified
  85              		.thumb
  86              		.thumb_func
  87              		.fpu fpv4-sp-d16
  89              	timer_add:
  90              	.LVL3:
  91              	.LFB4:
 117:C:/Users/²Ü¼ÒºÀ/.iotlink/sdk/IoT_LINK/iot_link/stimer\stimer.c **** ///< add the timer to the queue,by dead time
 118:C:/Users/²Ü¼ÒºÀ/.iotlink/sdk/IoT_LINK/iot_link/stimer\stimer.c **** static void timer_add(stimer_item_t *timer)
 119:C:/Users/²Ü¼ÒºÀ/.iotlink/sdk/IoT_LINK/iot_link/stimer\stimer.c **** {
  92              		.loc 1 119 1 view -0
  93              		.cfi_startproc
  94              		@ args = 0, pretend = 0, frame = 0
  95              		@ frame_needed = 0, uses_anonymous_args = 0
 120:C:/Users/²Ü¼ÒºÀ/.iotlink/sdk/IoT_LINK/iot_link/stimer\stimer.c ****     int64_t        dead_time;
  96              		.loc 1 120 5 view .LVU20
 121:C:/Users/²Ü¼ÒºÀ/.iotlink/sdk/IoT_LINK/iot_link/stimer\stimer.c ****     stimer_item_t  *tmp;  ///< find a timer,who's dead time is less and the following one is equal 
  97              		.loc 1 121 5 view .LVU21
 122:C:/Users/²Ü¼ÒºÀ/.iotlink/sdk/IoT_LINK/iot_link/stimer\stimer.c **** 
 123:C:/Users/²Ü¼ÒºÀ/.iotlink/sdk/IoT_LINK/iot_link/stimer\stimer.c ****     tmp = s_stimer_cb.lst;
  98              		.loc 1 123 5 view .LVU22
  99              		.loc 1 123 9 is_stmt 0 view .LVU23
 100 0000 0F49     		ldr	r1, .L20
ARM GAS  C:\Users\²Ü¼ÒºÀ\AppData\Local\Temp\ccUTRmBj.s 			page 5


 119:C:/Users/²Ü¼ÒºÀ/.iotlink/sdk/IoT_LINK/iot_link/stimer\stimer.c ****     int64_t        dead_time;
 101              		.loc 1 119 1 view .LVU24
 102 0002 2DE9D043 		push	{r4, r6, r7, r8, r9, lr}
 103              	.LCFI0:
 104              		.cfi_def_cfa_offset 24
 105              		.cfi_offset 4, -24
 106              		.cfi_offset 6, -20
 107              		.cfi_offset 7, -16
 108              		.cfi_offset 8, -12
 109              		.cfi_offset 9, -8
 110              		.cfi_offset 14, -4
 111              		.loc 1 123 9 view .LVU25
 112 0006 8C68     		ldr	r4, [r1, #8]
 113              	.LVL4:
 124:C:/Users/²Ü¼ÒºÀ/.iotlink/sdk/IoT_LINK/iot_link/stimer\stimer.c **** 
 125:C:/Users/²Ü¼ÒºÀ/.iotlink/sdk/IoT_LINK/iot_link/stimer\stimer.c ****     dead_time = timer->dead_time;
 114              		.loc 1 125 5 is_stmt 1 view .LVU26
 115              		.loc 1 125 15 is_stmt 0 view .LVU27
 116 0008 D0E90667 		ldrd	r6, [r0, #24]
 117              	.LVL5:
 126:C:/Users/²Ü¼ÒºÀ/.iotlink/sdk/IoT_LINK/iot_link/stimer\stimer.c **** 
 127:C:/Users/²Ü¼ÒºÀ/.iotlink/sdk/IoT_LINK/iot_link/stimer\stimer.c ****     while(NULL != tmp)
 118              		.loc 1 127 5 is_stmt 1 view .LVU28
 123:C:/Users/²Ü¼ÒºÀ/.iotlink/sdk/IoT_LINK/iot_link/stimer\stimer.c **** 
 119              		.loc 1 123 9 is_stmt 0 view .LVU29
 120 000c 2346     		mov	r3, r4
 121              	.LVL6:
 122              	.L10:
 123              		.loc 1 127 10 is_stmt 1 view .LVU30
 124 000e 23B9     		cbnz	r3, .L13
 125              	.L11:
 126              	.LVL7:
 128:C:/Users/²Ü¼ÒºÀ/.iotlink/sdk/IoT_LINK/iot_link/stimer\stimer.c ****     {
 129:C:/Users/²Ü¼ÒºÀ/.iotlink/sdk/IoT_LINK/iot_link/stimer\stimer.c ****         if(tmp->dead_time >= dead_time)   ///< all dead time is bigger
 130:C:/Users/²Ü¼ÒºÀ/.iotlink/sdk/IoT_LINK/iot_link/stimer\stimer.c ****         {
 131:C:/Users/²Ü¼ÒºÀ/.iotlink/sdk/IoT_LINK/iot_link/stimer\stimer.c ****             tmp = NULL;
 132:C:/Users/²Ü¼ÒºÀ/.iotlink/sdk/IoT_LINK/iot_link/stimer\stimer.c ****             break;
 133:C:/Users/²Ü¼ÒºÀ/.iotlink/sdk/IoT_LINK/iot_link/stimer\stimer.c ****         }
 134:C:/Users/²Ü¼ÒºÀ/.iotlink/sdk/IoT_LINK/iot_link/stimer\stimer.c ****         else if((NULL ==tmp->nxt) ||(tmp->nxt->dead_time >= dead_time))  ///< find one
 135:C:/Users/²Ü¼ÒºÀ/.iotlink/sdk/IoT_LINK/iot_link/stimer\stimer.c ****         {
 136:C:/Users/²Ü¼ÒºÀ/.iotlink/sdk/IoT_LINK/iot_link/stimer\stimer.c ****             break;
 137:C:/Users/²Ü¼ÒºÀ/.iotlink/sdk/IoT_LINK/iot_link/stimer\stimer.c ****         }
 138:C:/Users/²Ü¼ÒºÀ/.iotlink/sdk/IoT_LINK/iot_link/stimer\stimer.c ****         else ///< continue to find
 139:C:/Users/²Ü¼ÒºÀ/.iotlink/sdk/IoT_LINK/iot_link/stimer\stimer.c ****         {
 140:C:/Users/²Ü¼ÒºÀ/.iotlink/sdk/IoT_LINK/iot_link/stimer\stimer.c ****             tmp = tmp->nxt;
 141:C:/Users/²Ü¼ÒºÀ/.iotlink/sdk/IoT_LINK/iot_link/stimer\stimer.c ****         }
 142:C:/Users/²Ü¼ÒºÀ/.iotlink/sdk/IoT_LINK/iot_link/stimer\stimer.c ****     }
 143:C:/Users/²Ü¼ÒºÀ/.iotlink/sdk/IoT_LINK/iot_link/stimer\stimer.c ****     if(NULL == tmp)
 127              		.loc 1 143 5 view .LVU31
 144:C:/Users/²Ü¼ÒºÀ/.iotlink/sdk/IoT_LINK/iot_link/stimer\stimer.c ****     {
 145:C:/Users/²Ü¼ÒºÀ/.iotlink/sdk/IoT_LINK/iot_link/stimer\stimer.c ****         if(NULL != s_stimer_cb.lst)
 128              		.loc 1 145 9 view .LVU32
 129              		.loc 1 145 11 is_stmt 0 view .LVU33
 130 0010 04B1     		cbz	r4, .L15
 146:C:/Users/²Ü¼ÒºÀ/.iotlink/sdk/IoT_LINK/iot_link/stimer\stimer.c ****         {
 147:C:/Users/²Ü¼ÒºÀ/.iotlink/sdk/IoT_LINK/iot_link/stimer\stimer.c ****             timer->nxt = s_stimer_cb.lst;
 131              		.loc 1 147 13 is_stmt 1 view .LVU34
ARM GAS  C:\Users\²Ü¼ÒºÀ\AppData\Local\Temp\ccUTRmBj.s 			page 6


 132              		.loc 1 147 24 is_stmt 0 view .LVU35
 133 0012 0462     		str	r4, [r0, #32]
 134              	.L15:
 148:C:/Users/²Ü¼ÒºÀ/.iotlink/sdk/IoT_LINK/iot_link/stimer\stimer.c ****         }
 149:C:/Users/²Ü¼ÒºÀ/.iotlink/sdk/IoT_LINK/iot_link/stimer\stimer.c ****         s_stimer_cb.lst = timer;
 135              		.loc 1 149 9 is_stmt 1 view .LVU36
 136              		.loc 1 149 25 is_stmt 0 view .LVU37
 137 0014 8860     		str	r0, [r1, #8]
 150:C:/Users/²Ü¼ÒºÀ/.iotlink/sdk/IoT_LINK/iot_link/stimer\stimer.c ****     }
 151:C:/Users/²Ü¼ÒºÀ/.iotlink/sdk/IoT_LINK/iot_link/stimer\stimer.c ****     else
 152:C:/Users/²Ü¼ÒºÀ/.iotlink/sdk/IoT_LINK/iot_link/stimer\stimer.c ****     {
 153:C:/Users/²Ü¼ÒºÀ/.iotlink/sdk/IoT_LINK/iot_link/stimer\stimer.c ****         timer->nxt = tmp->nxt;
 154:C:/Users/²Ü¼ÒºÀ/.iotlink/sdk/IoT_LINK/iot_link/stimer\stimer.c ****         tmp->nxt = timer;
 155:C:/Users/²Ü¼ÒºÀ/.iotlink/sdk/IoT_LINK/iot_link/stimer\stimer.c ****     }
 156:C:/Users/²Ü¼ÒºÀ/.iotlink/sdk/IoT_LINK/iot_link/stimer\stimer.c **** 
 157:C:/Users/²Ü¼ÒºÀ/.iotlink/sdk/IoT_LINK/iot_link/stimer\stimer.c ****     return;
 138              		.loc 1 157 5 is_stmt 1 view .LVU38
 139              	.LVL8:
 140              	.L9:
 158:C:/Users/²Ü¼ÒºÀ/.iotlink/sdk/IoT_LINK/iot_link/stimer\stimer.c **** }
 141              		.loc 1 158 1 is_stmt 0 view .LVU39
 142 0016 BDE8D083 		pop	{r4, r6, r7, r8, r9, pc}
 143              	.LVL9:
 144              	.L13:
 129:C:/Users/²Ü¼ÒºÀ/.iotlink/sdk/IoT_LINK/iot_link/stimer\stimer.c ****         {
 145              		.loc 1 129 9 is_stmt 1 view .LVU40
 129:C:/Users/²Ü¼ÒºÀ/.iotlink/sdk/IoT_LINK/iot_link/stimer\stimer.c ****         {
 146              		.loc 1 129 11 is_stmt 0 view .LVU41
 147 001a D3E90689 		ldrd	r8, [r3, #24]
 148 001e B045     		cmp	r8, r6
 149 0020 79EB0702 		sbcs	r2, r9, r7
 150 0024 F4DA     		bge	.L11
 134:C:/Users/²Ü¼ÒºÀ/.iotlink/sdk/IoT_LINK/iot_link/stimer\stimer.c ****         {
 151              		.loc 1 134 14 is_stmt 1 view .LVU42
 134:C:/Users/²Ü¼ÒºÀ/.iotlink/sdk/IoT_LINK/iot_link/stimer\stimer.c ****         {
 152              		.loc 1 134 28 is_stmt 0 view .LVU43
 153 0026 1A6A     		ldr	r2, [r3, #32]
 134:C:/Users/²Ü¼ÒºÀ/.iotlink/sdk/IoT_LINK/iot_link/stimer\stimer.c ****         {
 154              		.loc 1 134 16 view .LVU44
 155 0028 3AB1     		cbz	r2, .L12
 134:C:/Users/²Ü¼ÒºÀ/.iotlink/sdk/IoT_LINK/iot_link/stimer\stimer.c ****         {
 156              		.loc 1 134 35 discriminator 1 view .LVU45
 157 002a D2E90689 		ldrd	r8, [r2, #24]
 158 002e B045     		cmp	r8, r6
 159 0030 79EB070C 		sbcs	ip, r9, r7
 160 0034 01DA     		bge	.L12
 161 0036 1346     		mov	r3, r2
 162              	.LVL10:
 134:C:/Users/²Ü¼ÒºÀ/.iotlink/sdk/IoT_LINK/iot_link/stimer\stimer.c ****         {
 163              		.loc 1 134 35 discriminator 1 view .LVU46
 164 0038 E9E7     		b	.L10
 165              	.LVL11:
 166              	.L12:
 143:C:/Users/²Ü¼ÒºÀ/.iotlink/sdk/IoT_LINK/iot_link/stimer\stimer.c ****     {
 167              		.loc 1 143 5 is_stmt 1 view .LVU47
 153:C:/Users/²Ü¼ÒºÀ/.iotlink/sdk/IoT_LINK/iot_link/stimer\stimer.c ****         tmp->nxt = timer;
 168              		.loc 1 153 9 view .LVU48
ARM GAS  C:\Users\²Ü¼ÒºÀ\AppData\Local\Temp\ccUTRmBj.s 			page 7


 153:C:/Users/²Ü¼ÒºÀ/.iotlink/sdk/IoT_LINK/iot_link/stimer\stimer.c ****         tmp->nxt = timer;
 169              		.loc 1 153 20 is_stmt 0 view .LVU49
 170 003a 0262     		str	r2, [r0, #32]
 154:C:/Users/²Ü¼ÒºÀ/.iotlink/sdk/IoT_LINK/iot_link/stimer\stimer.c ****     }
 171              		.loc 1 154 9 is_stmt 1 view .LVU50
 154:C:/Users/²Ü¼ÒºÀ/.iotlink/sdk/IoT_LINK/iot_link/stimer\stimer.c ****     }
 172              		.loc 1 154 18 is_stmt 0 view .LVU51
 173 003c 1862     		str	r0, [r3, #32]
 174 003e EAE7     		b	.L9
 175              	.L21:
 176              		.align	2
 177              	.L20:
 178 0040 00000000 		.word	.LANCHOR0
 179              		.cfi_endproc
 180              	.LFE4:
 182              		.section	.text.__timer_entry,"ax",%progbits
 183              		.align	1
 184              		.syntax unified
 185              		.thumb
 186              		.thumb_func
 187              		.fpu fpv4-sp-d16
 189              	__timer_entry:
 190              	.LVL12:
 191              	.LFB7:
 159:C:/Users/²Ü¼ÒºÀ/.iotlink/sdk/IoT_LINK/iot_link/stimer\stimer.c **** 
 160:C:/Users/²Ü¼ÒºÀ/.iotlink/sdk/IoT_LINK/iot_link/stimer\stimer.c **** ///< scan the all the list, take it easy
 161:C:/Users/²Ü¼ÒºÀ/.iotlink/sdk/IoT_LINK/iot_link/stimer\stimer.c **** static void  timer_scan(void)
 162:C:/Users/²Ü¼ÒºÀ/.iotlink/sdk/IoT_LINK/iot_link/stimer\stimer.c **** {
 163:C:/Users/²Ü¼ÒºÀ/.iotlink/sdk/IoT_LINK/iot_link/stimer\stimer.c ****     stimer_item_t *item;
 164:C:/Users/²Ü¼ÒºÀ/.iotlink/sdk/IoT_LINK/iot_link/stimer\stimer.c ****     int64_t       cur_time;
 165:C:/Users/²Ü¼ÒºÀ/.iotlink/sdk/IoT_LINK/iot_link/stimer\stimer.c **** 
 166:C:/Users/²Ü¼ÒºÀ/.iotlink/sdk/IoT_LINK/iot_link/stimer\stimer.c ****     while(NULL != s_stimer_cb.lst)
 167:C:/Users/²Ü¼ÒºÀ/.iotlink/sdk/IoT_LINK/iot_link/stimer\stimer.c ****     {
 168:C:/Users/²Ü¼ÒºÀ/.iotlink/sdk/IoT_LINK/iot_link/stimer\stimer.c ****         item = s_stimer_cb.lst;
 169:C:/Users/²Ü¼ÒºÀ/.iotlink/sdk/IoT_LINK/iot_link/stimer\stimer.c ****         s_stimer_cb.lst = item->nxt;
 170:C:/Users/²Ü¼ÒºÀ/.iotlink/sdk/IoT_LINK/iot_link/stimer\stimer.c ****         item->nxt = NULL;
 171:C:/Users/²Ü¼ÒºÀ/.iotlink/sdk/IoT_LINK/iot_link/stimer\stimer.c **** 
 172:C:/Users/²Ü¼ÒºÀ/.iotlink/sdk/IoT_LINK/iot_link/stimer\stimer.c ****         cur_time = osal_sys_time();
 173:C:/Users/²Ü¼ÒºÀ/.iotlink/sdk/IoT_LINK/iot_link/stimer\stimer.c ****         ///< check if is timeout or not
 174:C:/Users/²Ü¼ÒºÀ/.iotlink/sdk/IoT_LINK/iot_link/stimer\stimer.c ****         if(item->dead_time <= cur_time)
 175:C:/Users/²Ü¼ÒºÀ/.iotlink/sdk/IoT_LINK/iot_link/stimer\stimer.c ****         {
 176:C:/Users/²Ü¼ÒºÀ/.iotlink/sdk/IoT_LINK/iot_link/stimer\stimer.c ****             if(NULL != item->handler)
 177:C:/Users/²Ü¼ÒºÀ/.iotlink/sdk/IoT_LINK/iot_link/stimer\stimer.c ****             {
 178:C:/Users/²Ü¼ÒºÀ/.iotlink/sdk/IoT_LINK/iot_link/stimer\stimer.c ****                 item->handler(item->args);
 179:C:/Users/²Ü¼ÒºÀ/.iotlink/sdk/IoT_LINK/iot_link/stimer\stimer.c ****             }
 180:C:/Users/²Ü¼ÒºÀ/.iotlink/sdk/IoT_LINK/iot_link/stimer\stimer.c ****             if(item->flag & cn_stimer_flag_once)
 181:C:/Users/²Ü¼ÒºÀ/.iotlink/sdk/IoT_LINK/iot_link/stimer\stimer.c ****             {
 182:C:/Users/²Ü¼ÒºÀ/.iotlink/sdk/IoT_LINK/iot_link/stimer\stimer.c ****                 item->flag &= (~cn_stimer_flag_start);
 183:C:/Users/²Ü¼ÒºÀ/.iotlink/sdk/IoT_LINK/iot_link/stimer\stimer.c ****                 item->dead_time = cn_stimer_dead_max;
 184:C:/Users/²Ü¼ÒºÀ/.iotlink/sdk/IoT_LINK/iot_link/stimer\stimer.c ****             }
 185:C:/Users/²Ü¼ÒºÀ/.iotlink/sdk/IoT_LINK/iot_link/stimer\stimer.c ****             else
 186:C:/Users/²Ü¼ÒºÀ/.iotlink/sdk/IoT_LINK/iot_link/stimer\stimer.c ****             {
 187:C:/Users/²Ü¼ÒºÀ/.iotlink/sdk/IoT_LINK/iot_link/stimer\stimer.c ****                 item->dead_time = cur_time + item->cycle;
 188:C:/Users/²Ü¼ÒºÀ/.iotlink/sdk/IoT_LINK/iot_link/stimer\stimer.c ****             }
 189:C:/Users/²Ü¼ÒºÀ/.iotlink/sdk/IoT_LINK/iot_link/stimer\stimer.c **** 
 190:C:/Users/²Ü¼ÒºÀ/.iotlink/sdk/IoT_LINK/iot_link/stimer\stimer.c ****             timer_add(item);
 191:C:/Users/²Ü¼ÒºÀ/.iotlink/sdk/IoT_LINK/iot_link/stimer\stimer.c ****         }
ARM GAS  C:\Users\²Ü¼ÒºÀ\AppData\Local\Temp\ccUTRmBj.s 			page 8


 192:C:/Users/²Ü¼ÒºÀ/.iotlink/sdk/IoT_LINK/iot_link/stimer\stimer.c ****         else
 193:C:/Users/²Ü¼ÒºÀ/.iotlink/sdk/IoT_LINK/iot_link/stimer\stimer.c ****         {
 194:C:/Users/²Ü¼ÒºÀ/.iotlink/sdk/IoT_LINK/iot_link/stimer\stimer.c ****             timer_add(item);
 195:C:/Users/²Ü¼ÒºÀ/.iotlink/sdk/IoT_LINK/iot_link/stimer\stimer.c ****             break;
 196:C:/Users/²Ü¼ÒºÀ/.iotlink/sdk/IoT_LINK/iot_link/stimer\stimer.c ****         }
 197:C:/Users/²Ü¼ÒºÀ/.iotlink/sdk/IoT_LINK/iot_link/stimer\stimer.c ****     }
 198:C:/Users/²Ü¼ÒºÀ/.iotlink/sdk/IoT_LINK/iot_link/stimer\stimer.c **** 
 199:C:/Users/²Ü¼ÒºÀ/.iotlink/sdk/IoT_LINK/iot_link/stimer\stimer.c **** }
 200:C:/Users/²Ü¼ÒºÀ/.iotlink/sdk/IoT_LINK/iot_link/stimer\stimer.c **** 
 201:C:/Users/²Ü¼ÒºÀ/.iotlink/sdk/IoT_LINK/iot_link/stimer\stimer.c **** 
 202:C:/Users/²Ü¼ÒºÀ/.iotlink/sdk/IoT_LINK/iot_link/stimer\stimer.c **** int stimer_daemonquit()
 203:C:/Users/²Ü¼ÒºÀ/.iotlink/sdk/IoT_LINK/iot_link/stimer\stimer.c **** {
 204:C:/Users/²Ü¼ÒºÀ/.iotlink/sdk/IoT_LINK/iot_link/stimer\stimer.c **** 
 205:C:/Users/²Ü¼ÒºÀ/.iotlink/sdk/IoT_LINK/iot_link/stimer\stimer.c ****     s_stimer_cb.daemon_exit = 1;
 206:C:/Users/²Ü¼ÒºÀ/.iotlink/sdk/IoT_LINK/iot_link/stimer\stimer.c **** 
 207:C:/Users/²Ü¼ÒºÀ/.iotlink/sdk/IoT_LINK/iot_link/stimer\stimer.c ****     return 0;
 208:C:/Users/²Ü¼ÒºÀ/.iotlink/sdk/IoT_LINK/iot_link/stimer\stimer.c **** }
 209:C:/Users/²Ü¼ÒºÀ/.iotlink/sdk/IoT_LINK/iot_link/stimer\stimer.c **** 
 210:C:/Users/²Ü¼ÒºÀ/.iotlink/sdk/IoT_LINK/iot_link/stimer\stimer.c **** 
 211:C:/Users/²Ü¼ÒºÀ/.iotlink/sdk/IoT_LINK/iot_link/stimer\stimer.c **** ///< this is the soft timer main engine
 212:C:/Users/²Ü¼ÒºÀ/.iotlink/sdk/IoT_LINK/iot_link/stimer\stimer.c **** static int __timer_entry(void *args)
 213:C:/Users/²Ü¼ÒºÀ/.iotlink/sdk/IoT_LINK/iot_link/stimer\stimer.c **** {
 192              		.loc 1 213 1 is_stmt 1 view -0
 193              		.cfi_startproc
 194              		@ args = 0, pretend = 0, frame = 0
 195              		@ frame_needed = 0, uses_anonymous_args = 0
 214:C:/Users/²Ü¼ÒºÀ/.iotlink/sdk/IoT_LINK/iot_link/stimer\stimer.c ****     uint32_t wait_time;
 196              		.loc 1 214 5 view .LVU53
 215:C:/Users/²Ü¼ÒºÀ/.iotlink/sdk/IoT_LINK/iot_link/stimer\stimer.c ****     int64_t cur_time;
 197              		.loc 1 215 5 view .LVU54
 216:C:/Users/²Ü¼ÒºÀ/.iotlink/sdk/IoT_LINK/iot_link/stimer\stimer.c **** 
 217:C:/Users/²Ü¼ÒºÀ/.iotlink/sdk/IoT_LINK/iot_link/stimer\stimer.c ****     wait_time= cn_stimer_wait_max;
 198              		.loc 1 217 5 view .LVU55
 218:C:/Users/²Ü¼ÒºÀ/.iotlink/sdk/IoT_LINK/iot_link/stimer\stimer.c ****     while(s_stimer_cb.daemon_exit == 0)
 199              		.loc 1 218 5 view .LVU56
 213:C:/Users/²Ü¼ÒºÀ/.iotlink/sdk/IoT_LINK/iot_link/stimer\stimer.c ****     uint32_t wait_time;
 200              		.loc 1 213 1 is_stmt 0 view .LVU57
 201 0000 2DE9F84F 		push	{r3, r4, r5, r6, r7, r8, r9, r10, fp, lr}
 202              	.LCFI1:
 203              		.cfi_def_cfa_offset 40
 204              		.cfi_offset 3, -40
 205              		.cfi_offset 4, -36
 206              		.cfi_offset 5, -32
 207              		.cfi_offset 6, -28
 208              		.cfi_offset 7, -24
 209              		.cfi_offset 8, -20
 210              		.cfi_offset 9, -16
 211              		.cfi_offset 10, -12
 212              		.cfi_offset 11, -8
 213              		.cfi_offset 14, -4
 214              		.loc 1 218 22 view .LVU58
 215 0004 374C     		ldr	r4, .L43
 217:C:/Users/²Ü¼ÒºÀ/.iotlink/sdk/IoT_LINK/iot_link/stimer\stimer.c ****     while(s_stimer_cb.daemon_exit == 0)
 216              		.loc 1 217 14 view .LVU59
 217 0006 4FF0FF35 		mov	r5, #-1
 218              	.LBB4:
 219              	.LBB5:
ARM GAS  C:\Users\²Ü¼ÒºÀ\AppData\Local\Temp\ccUTRmBj.s 			page 9


 183:C:/Users/²Ü¼ÒºÀ/.iotlink/sdk/IoT_LINK/iot_link/stimer\stimer.c ****             }
 220              		.loc 1 183 33 view .LVU60
 221 000a 4FF0FF36 		mov	r6, #-1
 222 000e 6FF00047 		mvn	r7, #-2147483648
 223              	.LVL13:
 224              	.L32:
 183:C:/Users/²Ü¼ÒºÀ/.iotlink/sdk/IoT_LINK/iot_link/stimer\stimer.c ****             }
 225              		.loc 1 183 33 view .LVU61
 226              	.LBE5:
 227              	.LBE4:
 228              		.loc 1 218 10 is_stmt 1 view .LVU62
 229 0012 D4F810B0 		ldr	fp, [r4, #16]
 230 0016 BBF1000F 		cmp	fp, #0
 231 001a 02D0     		beq	.L34
 219:C:/Users/²Ü¼ÒºÀ/.iotlink/sdk/IoT_LINK/iot_link/stimer\stimer.c ****     {
 220:C:/Users/²Ü¼ÒºÀ/.iotlink/sdk/IoT_LINK/iot_link/stimer\stimer.c ****         (void)osal_semp_pend(s_stimer_cb.semp,wait_time);  ///< if any timer exist before the task,
 221:C:/Users/²Ü¼ÒºÀ/.iotlink/sdk/IoT_LINK/iot_link/stimer\stimer.c ****         ///< check all the list and do it
 222:C:/Users/²Ü¼ÒºÀ/.iotlink/sdk/IoT_LINK/iot_link/stimer\stimer.c ****         if(true == osal_mutex_lock(s_stimer_cb.mutex))
 223:C:/Users/²Ü¼ÒºÀ/.iotlink/sdk/IoT_LINK/iot_link/stimer\stimer.c ****         {
 224:C:/Users/²Ü¼ÒºÀ/.iotlink/sdk/IoT_LINK/iot_link/stimer\stimer.c ****             timer_scan();
 225:C:/Users/²Ü¼ÒºÀ/.iotlink/sdk/IoT_LINK/iot_link/stimer\stimer.c ****             (void) osal_mutex_unlock(s_stimer_cb.mutex);
 226:C:/Users/²Ü¼ÒºÀ/.iotlink/sdk/IoT_LINK/iot_link/stimer\stimer.c ****         }
 227:C:/Users/²Ü¼ÒºÀ/.iotlink/sdk/IoT_LINK/iot_link/stimer\stimer.c **** 
 228:C:/Users/²Ü¼ÒºÀ/.iotlink/sdk/IoT_LINK/iot_link/stimer\stimer.c ****         ///<compute all the time to wait;
 229:C:/Users/²Ü¼ÒºÀ/.iotlink/sdk/IoT_LINK/iot_link/stimer\stimer.c ****         cur_time = osal_sys_time();
 230:C:/Users/²Ü¼ÒºÀ/.iotlink/sdk/IoT_LINK/iot_link/stimer\stimer.c ****         if(true == osal_mutex_lock(s_stimer_cb.mutex))
 231:C:/Users/²Ü¼ÒºÀ/.iotlink/sdk/IoT_LINK/iot_link/stimer\stimer.c ****         {
 232:C:/Users/²Ü¼ÒºÀ/.iotlink/sdk/IoT_LINK/iot_link/stimer\stimer.c ****             if(( NULL==s_stimer_cb.lst) ||(cn_stimer_dead_max == s_stimer_cb.lst->dead_time))
 233:C:/Users/²Ü¼ÒºÀ/.iotlink/sdk/IoT_LINK/iot_link/stimer\stimer.c ****             {
 234:C:/Users/²Ü¼ÒºÀ/.iotlink/sdk/IoT_LINK/iot_link/stimer\stimer.c ****                 wait_time = cn_stimer_wait_max;
 235:C:/Users/²Ü¼ÒºÀ/.iotlink/sdk/IoT_LINK/iot_link/stimer\stimer.c ****             }
 236:C:/Users/²Ü¼ÒºÀ/.iotlink/sdk/IoT_LINK/iot_link/stimer\stimer.c ****             else
 237:C:/Users/²Ü¼ÒºÀ/.iotlink/sdk/IoT_LINK/iot_link/stimer\stimer.c ****             {
 238:C:/Users/²Ü¼ÒºÀ/.iotlink/sdk/IoT_LINK/iot_link/stimer\stimer.c ****                 wait_time = s_stimer_cb.lst->dead_time > cur_time?(s_stimer_cb.lst->dead_time - cur
 239:C:/Users/²Ü¼ÒºÀ/.iotlink/sdk/IoT_LINK/iot_link/stimer\stimer.c ****                 if(wait_time > (cn_stimer_wait_max-1))
 240:C:/Users/²Ü¼ÒºÀ/.iotlink/sdk/IoT_LINK/iot_link/stimer\stimer.c ****                 {
 241:C:/Users/²Ü¼ÒºÀ/.iotlink/sdk/IoT_LINK/iot_link/stimer\stimer.c ****                     wait_time = cn_stimer_wait_max;
 242:C:/Users/²Ü¼ÒºÀ/.iotlink/sdk/IoT_LINK/iot_link/stimer\stimer.c ****                 }
 243:C:/Users/²Ü¼ÒºÀ/.iotlink/sdk/IoT_LINK/iot_link/stimer\stimer.c ****             }
 244:C:/Users/²Ü¼ÒºÀ/.iotlink/sdk/IoT_LINK/iot_link/stimer\stimer.c **** 
 245:C:/Users/²Ü¼ÒºÀ/.iotlink/sdk/IoT_LINK/iot_link/stimer\stimer.c ****             (void) osal_mutex_unlock(s_stimer_cb.mutex);
 246:C:/Users/²Ü¼ÒºÀ/.iotlink/sdk/IoT_LINK/iot_link/stimer\stimer.c ****         }
 247:C:/Users/²Ü¼ÒºÀ/.iotlink/sdk/IoT_LINK/iot_link/stimer\stimer.c ****     }
 248:C:/Users/²Ü¼ÒºÀ/.iotlink/sdk/IoT_LINK/iot_link/stimer\stimer.c ****     return 0;
 232              		.loc 1 248 5 view .LVU63
 249:C:/Users/²Ü¼ÒºÀ/.iotlink/sdk/IoT_LINK/iot_link/stimer\stimer.c **** }
 233              		.loc 1 249 1 is_stmt 0 view .LVU64
 234 001c 0020     		movs	r0, #0
 235 001e BDE8F88F 		pop	{r3, r4, r5, r6, r7, r8, r9, r10, fp, pc}
 236              	.L34:
 220:C:/Users/²Ü¼ÒºÀ/.iotlink/sdk/IoT_LINK/iot_link/stimer\stimer.c ****         ///< check all the list and do it
 237              		.loc 1 220 9 is_stmt 1 view .LVU65
 220:C:/Users/²Ü¼ÒºÀ/.iotlink/sdk/IoT_LINK/iot_link/stimer\stimer.c ****         ///< check all the list and do it
 238              		.loc 1 220 15 is_stmt 0 view .LVU66
 239 0022 2946     		mov	r1, r5
 240 0024 2068     		ldr	r0, [r4]
 241 0026 FFF7FEFF 		bl	osal_semp_pend
ARM GAS  C:\Users\²Ü¼ÒºÀ\AppData\Local\Temp\ccUTRmBj.s 			page 10


 242              	.LVL14:
 222:C:/Users/²Ü¼ÒºÀ/.iotlink/sdk/IoT_LINK/iot_link/stimer\stimer.c ****         {
 243              		.loc 1 222 9 is_stmt 1 view .LVU67
 222:C:/Users/²Ü¼ÒºÀ/.iotlink/sdk/IoT_LINK/iot_link/stimer\stimer.c ****         {
 244              		.loc 1 222 20 is_stmt 0 view .LVU68
 245 002a 6068     		ldr	r0, [r4, #4]
 246 002c FFF7FEFF 		bl	osal_mutex_lock
 247              	.LVL15:
 222:C:/Users/²Ü¼ÒºÀ/.iotlink/sdk/IoT_LINK/iot_link/stimer\stimer.c ****         {
 248              		.loc 1 222 11 view .LVU69
 249 0030 0128     		cmp	r0, #1
 250 0032 36D1     		bne	.L25
 251              	.L24:
 252              	.LBB7:
 253              	.LBB6:
 166:C:/Users/²Ü¼ÒºÀ/.iotlink/sdk/IoT_LINK/iot_link/stimer\stimer.c ****     {
 254              		.loc 1 166 10 is_stmt 1 view .LVU70
 166:C:/Users/²Ü¼ÒºÀ/.iotlink/sdk/IoT_LINK/iot_link/stimer\stimer.c ****     {
 255              		.loc 1 166 30 is_stmt 0 view .LVU71
 256 0034 D4F808A0 		ldr	r10, [r4, #8]
 166:C:/Users/²Ü¼ÒºÀ/.iotlink/sdk/IoT_LINK/iot_link/stimer\stimer.c ****     {
 257              		.loc 1 166 10 view .LVU72
 258 0038 BAF1000F 		cmp	r10, #0
 259 003c 2ED0     		beq	.L30
 168:C:/Users/²Ü¼ÒºÀ/.iotlink/sdk/IoT_LINK/iot_link/stimer\stimer.c ****         s_stimer_cb.lst = item->nxt;
 260              		.loc 1 168 9 is_stmt 1 view .LVU73
 261              	.LVL16:
 169:C:/Users/²Ü¼ÒºÀ/.iotlink/sdk/IoT_LINK/iot_link/stimer\stimer.c ****         item->nxt = NULL;
 262              		.loc 1 169 9 view .LVU74
 169:C:/Users/²Ü¼ÒºÀ/.iotlink/sdk/IoT_LINK/iot_link/stimer\stimer.c ****         item->nxt = NULL;
 263              		.loc 1 169 25 is_stmt 0 view .LVU75
 264 003e DAF82030 		ldr	r3, [r10, #32]
 170:C:/Users/²Ü¼ÒºÀ/.iotlink/sdk/IoT_LINK/iot_link/stimer\stimer.c **** 
 265              		.loc 1 170 19 view .LVU76
 266 0042 CAF820B0 		str	fp, [r10, #32]
 169:C:/Users/²Ü¼ÒºÀ/.iotlink/sdk/IoT_LINK/iot_link/stimer\stimer.c ****         item->nxt = NULL;
 267              		.loc 1 169 25 view .LVU77
 268 0046 A360     		str	r3, [r4, #8]
 170:C:/Users/²Ü¼ÒºÀ/.iotlink/sdk/IoT_LINK/iot_link/stimer\stimer.c **** 
 269              		.loc 1 170 9 is_stmt 1 view .LVU78
 172:C:/Users/²Ü¼ÒºÀ/.iotlink/sdk/IoT_LINK/iot_link/stimer\stimer.c ****         ///< check if is timeout or not
 270              		.loc 1 172 9 view .LVU79
 172:C:/Users/²Ü¼ÒºÀ/.iotlink/sdk/IoT_LINK/iot_link/stimer\stimer.c ****         ///< check if is timeout or not
 271              		.loc 1 172 20 is_stmt 0 view .LVU80
 272 0048 FFF7FEFF 		bl	osal_sys_time
 273              	.LVL17:
 174:C:/Users/²Ü¼ÒºÀ/.iotlink/sdk/IoT_LINK/iot_link/stimer\stimer.c ****         {
 274              		.loc 1 174 11 view .LVU81
 275 004c DAE90623 		ldrd	r2, [r10, #24]
 276 0050 9042     		cmp	r0, r2
 277 0052 71EB0303 		sbcs	r3, r1, r3
 172:C:/Users/²Ü¼ÒºÀ/.iotlink/sdk/IoT_LINK/iot_link/stimer\stimer.c ****         ///< check if is timeout or not
 278              		.loc 1 172 20 view .LVU82
 279 0056 8046     		mov	r8, r0
 280 0058 8946     		mov	r9, r1
 281              	.LVL18:
 174:C:/Users/²Ü¼ÒºÀ/.iotlink/sdk/IoT_LINK/iot_link/stimer\stimer.c ****         {
ARM GAS  C:\Users\²Ü¼ÒºÀ\AppData\Local\Temp\ccUTRmBj.s 			page 11


 282              		.loc 1 174 9 is_stmt 1 view .LVU83
 174:C:/Users/²Ü¼ÒºÀ/.iotlink/sdk/IoT_LINK/iot_link/stimer\stimer.c ****         {
 283              		.loc 1 174 11 is_stmt 0 view .LVU84
 284 005a 1CDB     		blt	.L26
 176:C:/Users/²Ü¼ÒºÀ/.iotlink/sdk/IoT_LINK/iot_link/stimer\stimer.c ****             {
 285              		.loc 1 176 13 is_stmt 1 view .LVU85
 176:C:/Users/²Ü¼ÒºÀ/.iotlink/sdk/IoT_LINK/iot_link/stimer\stimer.c ****             {
 286              		.loc 1 176 28 is_stmt 0 view .LVU86
 287 005c DAF80C30 		ldr	r3, [r10, #12]
 176:C:/Users/²Ü¼ÒºÀ/.iotlink/sdk/IoT_LINK/iot_link/stimer\stimer.c ****             {
 288              		.loc 1 176 15 view .LVU87
 289 0060 13B1     		cbz	r3, .L27
 178:C:/Users/²Ü¼ÒºÀ/.iotlink/sdk/IoT_LINK/iot_link/stimer\stimer.c ****             }
 290              		.loc 1 178 17 is_stmt 1 view .LVU88
 291 0062 DAF81000 		ldr	r0, [r10, #16]
 292 0066 9847     		blx	r3
 293              	.LVL19:
 294              	.L27:
 180:C:/Users/²Ü¼ÒºÀ/.iotlink/sdk/IoT_LINK/iot_link/stimer\stimer.c ****             {
 295              		.loc 1 180 13 view .LVU89
 180:C:/Users/²Ü¼ÒºÀ/.iotlink/sdk/IoT_LINK/iot_link/stimer\stimer.c ****             {
 296              		.loc 1 180 20 is_stmt 0 view .LVU90
 297 0068 DAF80830 		ldr	r3, [r10, #8]
 180:C:/Users/²Ü¼ÒºÀ/.iotlink/sdk/IoT_LINK/iot_link/stimer\stimer.c ****             {
 298              		.loc 1 180 15 view .LVU91
 299 006c DA07     		lsls	r2, r3, #31
 300 006e 09D5     		bpl	.L28
 182:C:/Users/²Ü¼ÒºÀ/.iotlink/sdk/IoT_LINK/iot_link/stimer\stimer.c ****                 item->dead_time = cn_stimer_dead_max;
 301              		.loc 1 182 17 is_stmt 1 view .LVU92
 183:C:/Users/²Ü¼ÒºÀ/.iotlink/sdk/IoT_LINK/iot_link/stimer\stimer.c ****             }
 302              		.loc 1 183 33 is_stmt 0 view .LVU93
 303 0070 CAE90667 		strd	r6, [r10, #24]
 182:C:/Users/²Ü¼ÒºÀ/.iotlink/sdk/IoT_LINK/iot_link/stimer\stimer.c ****                 item->dead_time = cn_stimer_dead_max;
 304              		.loc 1 182 28 view .LVU94
 305 0074 23F00203 		bic	r3, r3, #2
 306 0078 CAF80830 		str	r3, [r10, #8]
 183:C:/Users/²Ü¼ÒºÀ/.iotlink/sdk/IoT_LINK/iot_link/stimer\stimer.c ****             }
 307              		.loc 1 183 17 is_stmt 1 view .LVU95
 308              	.LVL20:
 309              	.L29:
 190:C:/Users/²Ü¼ÒºÀ/.iotlink/sdk/IoT_LINK/iot_link/stimer\stimer.c ****         }
 310              		.loc 1 190 13 view .LVU96
 311 007c 5046     		mov	r0, r10
 312 007e FFF7FEFF 		bl	timer_add
 313              	.LVL21:
 314 0082 D7E7     		b	.L24
 315              	.LVL22:
 316              	.L28:
 187:C:/Users/²Ü¼ÒºÀ/.iotlink/sdk/IoT_LINK/iot_link/stimer\stimer.c ****             }
 317              		.loc 1 187 17 view .LVU97
 187:C:/Users/²Ü¼ÒºÀ/.iotlink/sdk/IoT_LINK/iot_link/stimer\stimer.c ****             }
 318              		.loc 1 187 50 is_stmt 0 view .LVU98
 319 0084 DAF80430 		ldr	r3, [r10, #4]
 187:C:/Users/²Ü¼ÒºÀ/.iotlink/sdk/IoT_LINK/iot_link/stimer\stimer.c ****             }
 320              		.loc 1 187 44 view .LVU99
 321 0088 18EB0308 		adds	r8, r8, r3
 322              	.LVL23:
ARM GAS  C:\Users\²Ü¼ÒºÀ\AppData\Local\Temp\ccUTRmBj.s 			page 12


 187:C:/Users/²Ü¼ÒºÀ/.iotlink/sdk/IoT_LINK/iot_link/stimer\stimer.c ****             }
 323              		.loc 1 187 44 view .LVU100
 324 008c 49F10009 		adc	r9, r9, #0
 187:C:/Users/²Ü¼ÒºÀ/.iotlink/sdk/IoT_LINK/iot_link/stimer\stimer.c ****             }
 325              		.loc 1 187 33 view .LVU101
 326 0090 CAE90689 		strd	r8, [r10, #24]
 327 0094 F2E7     		b	.L29
 328              	.LVL24:
 329              	.L26:
 194:C:/Users/²Ü¼ÒºÀ/.iotlink/sdk/IoT_LINK/iot_link/stimer\stimer.c ****             break;
 330              		.loc 1 194 13 is_stmt 1 view .LVU102
 331 0096 5046     		mov	r0, r10
 332 0098 FFF7FEFF 		bl	timer_add
 333              	.LVL25:
 195:C:/Users/²Ü¼ÒºÀ/.iotlink/sdk/IoT_LINK/iot_link/stimer\stimer.c ****         }
 334              		.loc 1 195 13 view .LVU103
 335              	.L30:
 195:C:/Users/²Ü¼ÒºÀ/.iotlink/sdk/IoT_LINK/iot_link/stimer\stimer.c ****         }
 336              		.loc 1 195 13 is_stmt 0 view .LVU104
 337              	.LBE6:
 338              	.LBE7:
 225:C:/Users/²Ü¼ÒºÀ/.iotlink/sdk/IoT_LINK/iot_link/stimer\stimer.c ****         }
 339              		.loc 1 225 13 is_stmt 1 view .LVU105
 225:C:/Users/²Ü¼ÒºÀ/.iotlink/sdk/IoT_LINK/iot_link/stimer\stimer.c ****         }
 340              		.loc 1 225 20 is_stmt 0 view .LVU106
 341 009c 6068     		ldr	r0, [r4, #4]
 342 009e FFF7FEFF 		bl	osal_mutex_unlock
 343              	.LVL26:
 344              	.L25:
 229:C:/Users/²Ü¼ÒºÀ/.iotlink/sdk/IoT_LINK/iot_link/stimer\stimer.c ****         if(true == osal_mutex_lock(s_stimer_cb.mutex))
 345              		.loc 1 229 9 is_stmt 1 view .LVU107
 229:C:/Users/²Ü¼ÒºÀ/.iotlink/sdk/IoT_LINK/iot_link/stimer\stimer.c ****         if(true == osal_mutex_lock(s_stimer_cb.mutex))
 346              		.loc 1 229 20 is_stmt 0 view .LVU108
 347 00a2 FFF7FEFF 		bl	osal_sys_time
 348              	.LVL27:
 349 00a6 8046     		mov	r8, r0
 230:C:/Users/²Ü¼ÒºÀ/.iotlink/sdk/IoT_LINK/iot_link/stimer\stimer.c ****         {
 350              		.loc 1 230 20 view .LVU109
 351 00a8 6068     		ldr	r0, [r4, #4]
 229:C:/Users/²Ü¼ÒºÀ/.iotlink/sdk/IoT_LINK/iot_link/stimer\stimer.c ****         if(true == osal_mutex_lock(s_stimer_cb.mutex))
 352              		.loc 1 229 20 view .LVU110
 353 00aa 8946     		mov	r9, r1
 354              	.LVL28:
 230:C:/Users/²Ü¼ÒºÀ/.iotlink/sdk/IoT_LINK/iot_link/stimer\stimer.c ****         {
 355              		.loc 1 230 9 is_stmt 1 view .LVU111
 230:C:/Users/²Ü¼ÒºÀ/.iotlink/sdk/IoT_LINK/iot_link/stimer\stimer.c ****         {
 356              		.loc 1 230 20 is_stmt 0 view .LVU112
 357 00ac FFF7FEFF 		bl	osal_mutex_lock
 358              	.LVL29:
 230:C:/Users/²Ü¼ÒºÀ/.iotlink/sdk/IoT_LINK/iot_link/stimer\stimer.c ****         {
 359              		.loc 1 230 11 view .LVU113
 360 00b0 0128     		cmp	r0, #1
 361 00b2 AED1     		bne	.L32
 232:C:/Users/²Ü¼ÒºÀ/.iotlink/sdk/IoT_LINK/iot_link/stimer\stimer.c ****             {
 362              		.loc 1 232 13 is_stmt 1 view .LVU114
 232:C:/Users/²Ü¼ÒºÀ/.iotlink/sdk/IoT_LINK/iot_link/stimer\stimer.c ****             {
 363              		.loc 1 232 35 is_stmt 0 view .LVU115
ARM GAS  C:\Users\²Ü¼ÒºÀ\AppData\Local\Temp\ccUTRmBj.s 			page 13


 364 00b4 A368     		ldr	r3, [r4, #8]
 232:C:/Users/²Ü¼ÒºÀ/.iotlink/sdk/IoT_LINK/iot_link/stimer\stimer.c ****             {
 365              		.loc 1 232 15 view .LVU116
 366 00b6 7BB1     		cbz	r3, .L36
 232:C:/Users/²Ü¼ÒºÀ/.iotlink/sdk/IoT_LINK/iot_link/stimer\stimer.c ****             {
 367              		.loc 1 232 81 discriminator 1 view .LVU117
 368 00b8 D3E90623 		ldrd	r2, [r3, #24]
 232:C:/Users/²Ü¼ÒºÀ/.iotlink/sdk/IoT_LINK/iot_link/stimer\stimer.c ****             {
 369              		.loc 1 232 41 discriminator 1 view .LVU118
 370 00bc BB42     		cmp	r3, r7
 371 00be 08BF     		it	eq
 372 00c0 B242     		cmpeq	r2, r6
 373 00c2 09D0     		beq	.L36
 238:C:/Users/²Ü¼ÒºÀ/.iotlink/sdk/IoT_LINK/iot_link/stimer\stimer.c ****                 if(wait_time > (cn_stimer_wait_max-1))
 374              		.loc 1 238 17 is_stmt 1 view .LVU119
 238:C:/Users/²Ü¼ÒºÀ/.iotlink/sdk/IoT_LINK/iot_link/stimer\stimer.c ****                 if(wait_time > (cn_stimer_wait_max-1))
 375              		.loc 1 238 27 is_stmt 0 view .LVU120
 376 00c4 9045     		cmp	r8, r2
 377 00c6 79EB0301 		sbcs	r1, r9, r3
 378 00ca 08DA     		bge	.L37
 238:C:/Users/²Ü¼ÒºÀ/.iotlink/sdk/IoT_LINK/iot_link/stimer\stimer.c ****                 if(wait_time > (cn_stimer_wait_max-1))
 379              		.loc 1 238 27 discriminator 1 view .LVU121
 380 00cc A2EB0805 		sub	r5, r2, r8
 381              	.LVL30:
 239:C:/Users/²Ü¼ÒºÀ/.iotlink/sdk/IoT_LINK/iot_link/stimer\stimer.c ****                 {
 382              		.loc 1 239 17 is_stmt 1 discriminator 1 view .LVU122
 383              	.L33:
 245:C:/Users/²Ü¼ÒºÀ/.iotlink/sdk/IoT_LINK/iot_link/stimer\stimer.c ****         }
 384              		.loc 1 245 13 view .LVU123
 245:C:/Users/²Ü¼ÒºÀ/.iotlink/sdk/IoT_LINK/iot_link/stimer\stimer.c ****         }
 385              		.loc 1 245 20 is_stmt 0 view .LVU124
 386 00d0 6068     		ldr	r0, [r4, #4]
 387 00d2 FFF7FEFF 		bl	osal_mutex_unlock
 388              	.LVL31:
 389 00d6 9CE7     		b	.L32
 390              	.LVL32:
 391              	.L36:
 234:C:/Users/²Ü¼ÒºÀ/.iotlink/sdk/IoT_LINK/iot_link/stimer\stimer.c ****             }
 392              		.loc 1 234 27 view .LVU125
 393 00d8 4FF0FF35 		mov	r5, #-1
 394 00dc F8E7     		b	.L33
 395              	.L37:
 238:C:/Users/²Ü¼ÒºÀ/.iotlink/sdk/IoT_LINK/iot_link/stimer\stimer.c ****                 if(wait_time > (cn_stimer_wait_max-1))
 396              		.loc 1 238 27 view .LVU126
 397 00de 0025     		movs	r5, #0
 398 00e0 F6E7     		b	.L33
 399              	.L44:
 400 00e2 00BF     		.align	2
 401              	.L43:
 402 00e4 00000000 		.word	.LANCHOR0
 403              		.cfi_endproc
 404              	.LFE7:
 406              		.section	.rodata.stimer_print.str1.1,"aMS",%progbits,1
 407              	.LC0:
 408 0000 554E4B4F 		.ascii	"UNKONW\000"
 408      4E5700
 409              	.LC1:
ARM GAS  C:\Users\²Ü¼ÒºÀ\AppData\Local\Temp\ccUTRmBj.s 			page 14


 410 0007 59657300 		.ascii	"Yes\000"
 411              	.LC2:
 412 000b 4E6F00   		.ascii	"No\000"
 413              	.LC3:
 414 000e 5B25735D 		.ascii	"[%s][%u][%s] %-12s %-8s %-8s %-8s %-5s %-5s %s\012\015"
 414      5B25755D 
 414      5B25735D 
 414      20252D31 
 414      32732025 
 415 003e 0D0A00   		.ascii	"\015\012\000"
 416              	.LC4:
 417 0041 44656164 		.ascii	"DeadTime\000"
 417      54696D65 
 417      00
 418              	.LC5:
 419 004a 4F6E6365 		.ascii	"Once\000"
 419      00
 420              	.LC6:
 421 004f 53746172 		.ascii	"Start\000"
 421      7400
 422              	.LC7:
 423 0055 41726700 		.ascii	"Arg\000"
 424              	.LC8:
 425 0059 48616E64 		.ascii	"Handler\000"
 425      6C657200 
 426              	.LC9:
 427 0061 4379636C 		.ascii	"Cycle\000"
 427      6500
 428              	.LC10:
 429 0067 54696D65 		.ascii	"Timer-Name\000"
 429      722D4E61 
 429      6D6500
 430              	.LC11:
 431 0072 5B25735D 		.ascii	"[%s][%u][%s] %-12s %08x %08x %08x %-5s %-5s %x\012\015"
 431      5B25755D 
 431      5B25735D 
 431      20252D31 
 431      32732025 
 432 00a2 0D0A00   		.ascii	"\015\012\000"
 433              	.LC12:
 434 00a5 5B25735D 		.ascii	"[%s][%u][%s] Total:%d Soft timers\012\015\015\012\000"
 434      5B25755D 
 434      5B25735D 
 434      20546F74 
 434      616C3A25 
 435              		.section	.text.stimer_print,"ax",%progbits
 436              		.align	1
 437              		.syntax unified
 438              		.thumb
 439              		.thumb_func
 440              		.fpu fpv4-sp-d16
 442              	stimer_print:
 443              	.LVL33:
 444              	.LFB12:
 250:C:/Users/²Ü¼ÒºÀ/.iotlink/sdk/IoT_LINK/iot_link/stimer\stimer.c **** 
 251:C:/Users/²Ü¼ÒºÀ/.iotlink/sdk/IoT_LINK/iot_link/stimer\stimer.c **** /**
 252:C:/Users/²Ü¼ÒºÀ/.iotlink/sdk/IoT_LINK/iot_link/stimer\stimer.c ****  * @brief: this function used for initialize the timer component, should be called after the os
ARM GAS  C:\Users\²Ü¼ÒºÀ\AppData\Local\Temp\ccUTRmBj.s 			page 15


 253:C:/Users/²Ü¼ÒºÀ/.iotlink/sdk/IoT_LINK/iot_link/stimer\stimer.c ****  *
 254:C:/Users/²Ü¼ÒºÀ/.iotlink/sdk/IoT_LINK/iot_link/stimer\stimer.c ****  * */
 255:C:/Users/²Ü¼ÒºÀ/.iotlink/sdk/IoT_LINK/iot_link/stimer\stimer.c **** int32_t stimer_init()
 256:C:/Users/²Ü¼ÒºÀ/.iotlink/sdk/IoT_LINK/iot_link/stimer\stimer.c **** {
 257:C:/Users/²Ü¼ÒºÀ/.iotlink/sdk/IoT_LINK/iot_link/stimer\stimer.c ****     int32_t ret =-1;
 258:C:/Users/²Ü¼ÒºÀ/.iotlink/sdk/IoT_LINK/iot_link/stimer\stimer.c **** 
 259:C:/Users/²Ü¼ÒºÀ/.iotlink/sdk/IoT_LINK/iot_link/stimer\stimer.c ****     if(false == osal_semp_create(&s_stimer_cb.semp,1,0))
 260:C:/Users/²Ü¼ÒºÀ/.iotlink/sdk/IoT_LINK/iot_link/stimer\stimer.c ****     {
 261:C:/Users/²Ü¼ÒºÀ/.iotlink/sdk/IoT_LINK/iot_link/stimer\stimer.c ****         goto EXIT_SEMPERR;
 262:C:/Users/²Ü¼ÒºÀ/.iotlink/sdk/IoT_LINK/iot_link/stimer\stimer.c ****     }
 263:C:/Users/²Ü¼ÒºÀ/.iotlink/sdk/IoT_LINK/iot_link/stimer\stimer.c ****     if(false == osal_mutex_create(&s_stimer_cb.mutex))
 264:C:/Users/²Ü¼ÒºÀ/.iotlink/sdk/IoT_LINK/iot_link/stimer\stimer.c ****     {
 265:C:/Users/²Ü¼ÒºÀ/.iotlink/sdk/IoT_LINK/iot_link/stimer\stimer.c ****         goto EXIT_MUTEXERR;
 266:C:/Users/²Ü¼ÒºÀ/.iotlink/sdk/IoT_LINK/iot_link/stimer\stimer.c ****     }
 267:C:/Users/²Ü¼ÒºÀ/.iotlink/sdk/IoT_LINK/iot_link/stimer\stimer.c **** 
 268:C:/Users/²Ü¼ÒºÀ/.iotlink/sdk/IoT_LINK/iot_link/stimer\stimer.c ****     s_stimer_cb.task = osal_task_create("soft timer",__timer_entry,NULL,CONFIG_STIMER_STACKSIZE,NUL
 269:C:/Users/²Ü¼ÒºÀ/.iotlink/sdk/IoT_LINK/iot_link/stimer\stimer.c **** 
 270:C:/Users/²Ü¼ÒºÀ/.iotlink/sdk/IoT_LINK/iot_link/stimer\stimer.c ****     if(NULL == s_stimer_cb.task)
 271:C:/Users/²Ü¼ÒºÀ/.iotlink/sdk/IoT_LINK/iot_link/stimer\stimer.c ****     {
 272:C:/Users/²Ü¼ÒºÀ/.iotlink/sdk/IoT_LINK/iot_link/stimer\stimer.c ****         goto EXIT_TASKERR;
 273:C:/Users/²Ü¼ÒºÀ/.iotlink/sdk/IoT_LINK/iot_link/stimer\stimer.c ****     }
 274:C:/Users/²Ü¼ÒºÀ/.iotlink/sdk/IoT_LINK/iot_link/stimer\stimer.c ****     s_stimer_cb.daemon_exit = 0;
 275:C:/Users/²Ü¼ÒºÀ/.iotlink/sdk/IoT_LINK/iot_link/stimer\stimer.c **** 
 276:C:/Users/²Ü¼ÒºÀ/.iotlink/sdk/IoT_LINK/iot_link/stimer\stimer.c ****     ret = 0;
 277:C:/Users/²Ü¼ÒºÀ/.iotlink/sdk/IoT_LINK/iot_link/stimer\stimer.c ****     return ret;
 278:C:/Users/²Ü¼ÒºÀ/.iotlink/sdk/IoT_LINK/iot_link/stimer\stimer.c **** 
 279:C:/Users/²Ü¼ÒºÀ/.iotlink/sdk/IoT_LINK/iot_link/stimer\stimer.c **** EXIT_TASKERR:
 280:C:/Users/²Ü¼ÒºÀ/.iotlink/sdk/IoT_LINK/iot_link/stimer\stimer.c ****     (void) osal_mutex_del(s_stimer_cb.mutex);
 281:C:/Users/²Ü¼ÒºÀ/.iotlink/sdk/IoT_LINK/iot_link/stimer\stimer.c ****     s_stimer_cb.mutex = cn_mutex_invalid;
 282:C:/Users/²Ü¼ÒºÀ/.iotlink/sdk/IoT_LINK/iot_link/stimer\stimer.c **** EXIT_MUTEXERR:
 283:C:/Users/²Ü¼ÒºÀ/.iotlink/sdk/IoT_LINK/iot_link/stimer\stimer.c ****     (void) osal_semp_del(s_stimer_cb.semp);
 284:C:/Users/²Ü¼ÒºÀ/.iotlink/sdk/IoT_LINK/iot_link/stimer\stimer.c ****     s_stimer_cb.semp = cn_semp_invalid;
 285:C:/Users/²Ü¼ÒºÀ/.iotlink/sdk/IoT_LINK/iot_link/stimer\stimer.c **** EXIT_SEMPERR:
 286:C:/Users/²Ü¼ÒºÀ/.iotlink/sdk/IoT_LINK/iot_link/stimer\stimer.c ****     return ret;
 287:C:/Users/²Ü¼ÒºÀ/.iotlink/sdk/IoT_LINK/iot_link/stimer\stimer.c **** }
 288:C:/Users/²Ü¼ÒºÀ/.iotlink/sdk/IoT_LINK/iot_link/stimer\stimer.c **** 
 289:C:/Users/²Ü¼ÒºÀ/.iotlink/sdk/IoT_LINK/iot_link/stimer\stimer.c **** stimer_t stimer_create(const char *name,fn_stimer_handler handler, void *arg,uint32_t cycle,uint32_
 290:C:/Users/²Ü¼ÒºÀ/.iotlink/sdk/IoT_LINK/iot_link/stimer\stimer.c **** {
 291:C:/Users/²Ü¼ÒºÀ/.iotlink/sdk/IoT_LINK/iot_link/stimer\stimer.c ****     stimer_item_t *item;
 292:C:/Users/²Ü¼ÒºÀ/.iotlink/sdk/IoT_LINK/iot_link/stimer\stimer.c ****     int            mem_len;
 293:C:/Users/²Ü¼ÒºÀ/.iotlink/sdk/IoT_LINK/iot_link/stimer\stimer.c **** 
 294:C:/Users/²Ü¼ÒºÀ/.iotlink/sdk/IoT_LINK/iot_link/stimer\stimer.c ****     mem_len = sizeof(stimer_item_t);
 295:C:/Users/²Ü¼ÒºÀ/.iotlink/sdk/IoT_LINK/iot_link/stimer\stimer.c **** 
 296:C:/Users/²Ü¼ÒºÀ/.iotlink/sdk/IoT_LINK/iot_link/stimer\stimer.c ****     if(NULL != name)
 297:C:/Users/²Ü¼ÒºÀ/.iotlink/sdk/IoT_LINK/iot_link/stimer\stimer.c ****     {
 298:C:/Users/²Ü¼ÒºÀ/.iotlink/sdk/IoT_LINK/iot_link/stimer\stimer.c ****         mem_len += strlen(name) + 1;
 299:C:/Users/²Ü¼ÒºÀ/.iotlink/sdk/IoT_LINK/iot_link/stimer\stimer.c ****     }
 300:C:/Users/²Ü¼ÒºÀ/.iotlink/sdk/IoT_LINK/iot_link/stimer\stimer.c **** 
 301:C:/Users/²Ü¼ÒºÀ/.iotlink/sdk/IoT_LINK/iot_link/stimer\stimer.c ****     item  = osal_malloc( mem_len);
 302:C:/Users/²Ü¼ÒºÀ/.iotlink/sdk/IoT_LINK/iot_link/stimer\stimer.c ****     if(NULL == item)
 303:C:/Users/²Ü¼ÒºÀ/.iotlink/sdk/IoT_LINK/iot_link/stimer\stimer.c ****     {
 304:C:/Users/²Ü¼ÒºÀ/.iotlink/sdk/IoT_LINK/iot_link/stimer\stimer.c ****         return item;
 305:C:/Users/²Ü¼ÒºÀ/.iotlink/sdk/IoT_LINK/iot_link/stimer\stimer.c ****     }
 306:C:/Users/²Ü¼ÒºÀ/.iotlink/sdk/IoT_LINK/iot_link/stimer\stimer.c ****     (void) memset(item,0,sizeof(stimer_item_t));
 307:C:/Users/²Ü¼ÒºÀ/.iotlink/sdk/IoT_LINK/iot_link/stimer\stimer.c ****     item->cycle = cycle;
 308:C:/Users/²Ü¼ÒºÀ/.iotlink/sdk/IoT_LINK/iot_link/stimer\stimer.c ****     item->flag = flag;
 309:C:/Users/²Ü¼ÒºÀ/.iotlink/sdk/IoT_LINK/iot_link/stimer\stimer.c ****     item->handler = handler;
ARM GAS  C:\Users\²Ü¼ÒºÀ\AppData\Local\Temp\ccUTRmBj.s 			page 16


 310:C:/Users/²Ü¼ÒºÀ/.iotlink/sdk/IoT_LINK/iot_link/stimer\stimer.c ****     item->args = arg;
 311:C:/Users/²Ü¼ÒºÀ/.iotlink/sdk/IoT_LINK/iot_link/stimer\stimer.c ****     if(NULL != name)
 312:C:/Users/²Ü¼ÒºÀ/.iotlink/sdk/IoT_LINK/iot_link/stimer\stimer.c ****     {
 313:C:/Users/²Ü¼ÒºÀ/.iotlink/sdk/IoT_LINK/iot_link/stimer\stimer.c ****         item->name = (char *)item +sizeof(stimer_item_t);
 314:C:/Users/²Ü¼ÒºÀ/.iotlink/sdk/IoT_LINK/iot_link/stimer\stimer.c ****         (void) strncpy(item->name,name,strlen(name)+1);
 315:C:/Users/²Ü¼ÒºÀ/.iotlink/sdk/IoT_LINK/iot_link/stimer\stimer.c ****     }
 316:C:/Users/²Ü¼ÒºÀ/.iotlink/sdk/IoT_LINK/iot_link/stimer\stimer.c **** 
 317:C:/Users/²Ü¼ÒºÀ/.iotlink/sdk/IoT_LINK/iot_link/stimer\stimer.c **** 
 318:C:/Users/²Ü¼ÒºÀ/.iotlink/sdk/IoT_LINK/iot_link/stimer\stimer.c ****     if(item->flag & cn_stimer_flag_start)
 319:C:/Users/²Ü¼ÒºÀ/.iotlink/sdk/IoT_LINK/iot_link/stimer\stimer.c ****     {
 320:C:/Users/²Ü¼ÒºÀ/.iotlink/sdk/IoT_LINK/iot_link/stimer\stimer.c ****         item->dead_time  = osal_sys_time() + item->cycle;
 321:C:/Users/²Ü¼ÒºÀ/.iotlink/sdk/IoT_LINK/iot_link/stimer\stimer.c ****     }
 322:C:/Users/²Ü¼ÒºÀ/.iotlink/sdk/IoT_LINK/iot_link/stimer\stimer.c ****     else
 323:C:/Users/²Ü¼ÒºÀ/.iotlink/sdk/IoT_LINK/iot_link/stimer\stimer.c ****     {
 324:C:/Users/²Ü¼ÒºÀ/.iotlink/sdk/IoT_LINK/iot_link/stimer\stimer.c ****         item->dead_time = cn_stimer_dead_max;
 325:C:/Users/²Ü¼ÒºÀ/.iotlink/sdk/IoT_LINK/iot_link/stimer\stimer.c ****     }
 326:C:/Users/²Ü¼ÒºÀ/.iotlink/sdk/IoT_LINK/iot_link/stimer\stimer.c **** 
 327:C:/Users/²Ü¼ÒºÀ/.iotlink/sdk/IoT_LINK/iot_link/stimer\stimer.c ****     if(true == osal_mutex_lock(s_stimer_cb.mutex))
 328:C:/Users/²Ü¼ÒºÀ/.iotlink/sdk/IoT_LINK/iot_link/stimer\stimer.c ****     {
 329:C:/Users/²Ü¼ÒºÀ/.iotlink/sdk/IoT_LINK/iot_link/stimer\stimer.c ****         timer_add(item);
 330:C:/Users/²Ü¼ÒºÀ/.iotlink/sdk/IoT_LINK/iot_link/stimer\stimer.c ****         (void) osal_mutex_unlock(s_stimer_cb.mutex);
 331:C:/Users/²Ü¼ÒºÀ/.iotlink/sdk/IoT_LINK/iot_link/stimer\stimer.c ****         (void) osal_semp_post(s_stimer_cb.semp);
 332:C:/Users/²Ü¼ÒºÀ/.iotlink/sdk/IoT_LINK/iot_link/stimer\stimer.c ****     }
 333:C:/Users/²Ü¼ÒºÀ/.iotlink/sdk/IoT_LINK/iot_link/stimer\stimer.c ****     else
 334:C:/Users/²Ü¼ÒºÀ/.iotlink/sdk/IoT_LINK/iot_link/stimer\stimer.c ****     {
 335:C:/Users/²Ü¼ÒºÀ/.iotlink/sdk/IoT_LINK/iot_link/stimer\stimer.c ****         osal_free(item);
 336:C:/Users/²Ü¼ÒºÀ/.iotlink/sdk/IoT_LINK/iot_link/stimer\stimer.c ****         item = NULL;
 337:C:/Users/²Ü¼ÒºÀ/.iotlink/sdk/IoT_LINK/iot_link/stimer\stimer.c ****     }
 338:C:/Users/²Ü¼ÒºÀ/.iotlink/sdk/IoT_LINK/iot_link/stimer\stimer.c **** 
 339:C:/Users/²Ü¼ÒºÀ/.iotlink/sdk/IoT_LINK/iot_link/stimer\stimer.c ****     return item;
 340:C:/Users/²Ü¼ÒºÀ/.iotlink/sdk/IoT_LINK/iot_link/stimer\stimer.c **** }
 341:C:/Users/²Ü¼ÒºÀ/.iotlink/sdk/IoT_LINK/iot_link/stimer\stimer.c **** 
 342:C:/Users/²Ü¼ÒºÀ/.iotlink/sdk/IoT_LINK/iot_link/stimer\stimer.c **** int32_t stimer_delete(stimer_t timer)
 343:C:/Users/²Ü¼ÒºÀ/.iotlink/sdk/IoT_LINK/iot_link/stimer\stimer.c **** {
 344:C:/Users/²Ü¼ÒºÀ/.iotlink/sdk/IoT_LINK/iot_link/stimer\stimer.c ****     int32_t ret = -1;
 345:C:/Users/²Ü¼ÒºÀ/.iotlink/sdk/IoT_LINK/iot_link/stimer\stimer.c **** 
 346:C:/Users/²Ü¼ÒºÀ/.iotlink/sdk/IoT_LINK/iot_link/stimer\stimer.c ****     if(true == osal_mutex_lock(s_stimer_cb.mutex))
 347:C:/Users/²Ü¼ÒºÀ/.iotlink/sdk/IoT_LINK/iot_link/stimer\stimer.c ****     {
 348:C:/Users/²Ü¼ÒºÀ/.iotlink/sdk/IoT_LINK/iot_link/stimer\stimer.c ****         timer_remove(timer);
 349:C:/Users/²Ü¼ÒºÀ/.iotlink/sdk/IoT_LINK/iot_link/stimer\stimer.c ****         (void) osal_mutex_unlock(s_stimer_cb.mutex);
 350:C:/Users/²Ü¼ÒºÀ/.iotlink/sdk/IoT_LINK/iot_link/stimer\stimer.c ****         osal_free(timer);
 351:C:/Users/²Ü¼ÒºÀ/.iotlink/sdk/IoT_LINK/iot_link/stimer\stimer.c ****         (void) osal_semp_post(s_stimer_cb.semp);
 352:C:/Users/²Ü¼ÒºÀ/.iotlink/sdk/IoT_LINK/iot_link/stimer\stimer.c ****         ret = 0;
 353:C:/Users/²Ü¼ÒºÀ/.iotlink/sdk/IoT_LINK/iot_link/stimer\stimer.c ****     }
 354:C:/Users/²Ü¼ÒºÀ/.iotlink/sdk/IoT_LINK/iot_link/stimer\stimer.c **** 
 355:C:/Users/²Ü¼ÒºÀ/.iotlink/sdk/IoT_LINK/iot_link/stimer\stimer.c ****     return ret;
 356:C:/Users/²Ü¼ÒºÀ/.iotlink/sdk/IoT_LINK/iot_link/stimer\stimer.c **** }
 357:C:/Users/²Ü¼ÒºÀ/.iotlink/sdk/IoT_LINK/iot_link/stimer\stimer.c **** 
 358:C:/Users/²Ü¼ÒºÀ/.iotlink/sdk/IoT_LINK/iot_link/stimer\stimer.c **** int32_t stimer_ioctl(stimer_t timer,en_stimer_opt_t opt, void *arg)
 359:C:/Users/²Ü¼ÒºÀ/.iotlink/sdk/IoT_LINK/iot_link/stimer\stimer.c **** {
 360:C:/Users/²Ü¼ÒºÀ/.iotlink/sdk/IoT_LINK/iot_link/stimer\stimer.c ****     int32_t ret = -1;
 361:C:/Users/²Ü¼ÒºÀ/.iotlink/sdk/IoT_LINK/iot_link/stimer\stimer.c **** 
 362:C:/Users/²Ü¼ÒºÀ/.iotlink/sdk/IoT_LINK/iot_link/stimer\stimer.c ****     stimer_item_t   *item;
 363:C:/Users/²Ü¼ÒºÀ/.iotlink/sdk/IoT_LINK/iot_link/stimer\stimer.c ****     if(NULL == timer)
 364:C:/Users/²Ü¼ÒºÀ/.iotlink/sdk/IoT_LINK/iot_link/stimer\stimer.c ****     {
 365:C:/Users/²Ü¼ÒºÀ/.iotlink/sdk/IoT_LINK/iot_link/stimer\stimer.c ****         return ret;
 366:C:/Users/²Ü¼ÒºÀ/.iotlink/sdk/IoT_LINK/iot_link/stimer\stimer.c ****     }
ARM GAS  C:\Users\²Ü¼ÒºÀ\AppData\Local\Temp\ccUTRmBj.s 			page 17


 367:C:/Users/²Ü¼ÒºÀ/.iotlink/sdk/IoT_LINK/iot_link/stimer\stimer.c **** 
 368:C:/Users/²Ü¼ÒºÀ/.iotlink/sdk/IoT_LINK/iot_link/stimer\stimer.c ****     item = timer;
 369:C:/Users/²Ü¼ÒºÀ/.iotlink/sdk/IoT_LINK/iot_link/stimer\stimer.c ****     if(true == osal_mutex_lock(s_stimer_cb.mutex))
 370:C:/Users/²Ü¼ÒºÀ/.iotlink/sdk/IoT_LINK/iot_link/stimer\stimer.c ****     {
 371:C:/Users/²Ü¼ÒºÀ/.iotlink/sdk/IoT_LINK/iot_link/stimer\stimer.c ****         switch(opt)
 372:C:/Users/²Ü¼ÒºÀ/.iotlink/sdk/IoT_LINK/iot_link/stimer\stimer.c ****         {
 373:C:/Users/²Ü¼ÒºÀ/.iotlink/sdk/IoT_LINK/iot_link/stimer\stimer.c ****             case en_stimer_opt_gettime:
 374:C:/Users/²Ü¼ÒºÀ/.iotlink/sdk/IoT_LINK/iot_link/stimer\stimer.c ****                 if(NULL != arg)
 375:C:/Users/²Ü¼ÒºÀ/.iotlink/sdk/IoT_LINK/iot_link/stimer\stimer.c ****                 {
 376:C:/Users/²Ü¼ÒºÀ/.iotlink/sdk/IoT_LINK/iot_link/stimer\stimer.c ****                     *(uint32_t *)arg = item->dead_time- osal_sys_time();
 377:C:/Users/²Ü¼ÒºÀ/.iotlink/sdk/IoT_LINK/iot_link/stimer\stimer.c ****                     ret = 0;
 378:C:/Users/²Ü¼ÒºÀ/.iotlink/sdk/IoT_LINK/iot_link/stimer\stimer.c ****                 }
 379:C:/Users/²Ü¼ÒºÀ/.iotlink/sdk/IoT_LINK/iot_link/stimer\stimer.c ****                 break;
 380:C:/Users/²Ü¼ÒºÀ/.iotlink/sdk/IoT_LINK/iot_link/stimer\stimer.c ****             case en_stimer_opt_stop:
 381:C:/Users/²Ü¼ÒºÀ/.iotlink/sdk/IoT_LINK/iot_link/stimer\stimer.c ****                 timer_remove(item);
 382:C:/Users/²Ü¼ÒºÀ/.iotlink/sdk/IoT_LINK/iot_link/stimer\stimer.c ****                 item->nxt = NULL;
 383:C:/Users/²Ü¼ÒºÀ/.iotlink/sdk/IoT_LINK/iot_link/stimer\stimer.c ****                 item->flag &= (~cn_stimer_flag_start);
 384:C:/Users/²Ü¼ÒºÀ/.iotlink/sdk/IoT_LINK/iot_link/stimer\stimer.c ****                 item->dead_time = cn_stimer_dead_max;
 385:C:/Users/²Ü¼ÒºÀ/.iotlink/sdk/IoT_LINK/iot_link/stimer\stimer.c ****                 timer_add(item);
 386:C:/Users/²Ü¼ÒºÀ/.iotlink/sdk/IoT_LINK/iot_link/stimer\stimer.c ****                 (void) osal_semp_post(s_stimer_cb.semp);
 387:C:/Users/²Ü¼ÒºÀ/.iotlink/sdk/IoT_LINK/iot_link/stimer\stimer.c ****                 ret = 0;
 388:C:/Users/²Ü¼ÒºÀ/.iotlink/sdk/IoT_LINK/iot_link/stimer\stimer.c ****                 break;
 389:C:/Users/²Ü¼ÒºÀ/.iotlink/sdk/IoT_LINK/iot_link/stimer\stimer.c ****             case en_stimer_opt_start:
 390:C:/Users/²Ü¼ÒºÀ/.iotlink/sdk/IoT_LINK/iot_link/stimer\stimer.c ****                 timer_remove(item);
 391:C:/Users/²Ü¼ÒºÀ/.iotlink/sdk/IoT_LINK/iot_link/stimer\stimer.c ****                 item->nxt = NULL;
 392:C:/Users/²Ü¼ÒºÀ/.iotlink/sdk/IoT_LINK/iot_link/stimer\stimer.c ****                 item->flag |= cn_stimer_flag_start;
 393:C:/Users/²Ü¼ÒºÀ/.iotlink/sdk/IoT_LINK/iot_link/stimer\stimer.c ****                 item->dead_time = item->cycle + osal_sys_time();
 394:C:/Users/²Ü¼ÒºÀ/.iotlink/sdk/IoT_LINK/iot_link/stimer\stimer.c ****                 timer_add(item);
 395:C:/Users/²Ü¼ÒºÀ/.iotlink/sdk/IoT_LINK/iot_link/stimer\stimer.c ****                 (void) osal_semp_post(s_stimer_cb.semp);
 396:C:/Users/²Ü¼ÒºÀ/.iotlink/sdk/IoT_LINK/iot_link/stimer\stimer.c ****                 ret = 0;
 397:C:/Users/²Ü¼ÒºÀ/.iotlink/sdk/IoT_LINK/iot_link/stimer\stimer.c ****                 break;
 398:C:/Users/²Ü¼ÒºÀ/.iotlink/sdk/IoT_LINK/iot_link/stimer\stimer.c ****             case en_stimer_opt_recycle:
 399:C:/Users/²Ü¼ÒºÀ/.iotlink/sdk/IoT_LINK/iot_link/stimer\stimer.c ****                 timer_remove(item);
 400:C:/Users/²Ü¼ÒºÀ/.iotlink/sdk/IoT_LINK/iot_link/stimer\stimer.c ****                 item->nxt = NULL;
 401:C:/Users/²Ü¼ÒºÀ/.iotlink/sdk/IoT_LINK/iot_link/stimer\stimer.c ****                 item->cycle = *(uint32_t *)arg;
 402:C:/Users/²Ü¼ÒºÀ/.iotlink/sdk/IoT_LINK/iot_link/stimer\stimer.c ****                 if(item->flag & cn_stimer_flag_start)
 403:C:/Users/²Ü¼ÒºÀ/.iotlink/sdk/IoT_LINK/iot_link/stimer\stimer.c ****                 {
 404:C:/Users/²Ü¼ÒºÀ/.iotlink/sdk/IoT_LINK/iot_link/stimer\stimer.c ****                     item->dead_time = item->cycle + osal_sys_time();
 405:C:/Users/²Ü¼ÒºÀ/.iotlink/sdk/IoT_LINK/iot_link/stimer\stimer.c ****                 }
 406:C:/Users/²Ü¼ÒºÀ/.iotlink/sdk/IoT_LINK/iot_link/stimer\stimer.c ****                 timer_add(item);
 407:C:/Users/²Ü¼ÒºÀ/.iotlink/sdk/IoT_LINK/iot_link/stimer\stimer.c ****                 (void) osal_semp_post(s_stimer_cb.semp);
 408:C:/Users/²Ü¼ÒºÀ/.iotlink/sdk/IoT_LINK/iot_link/stimer\stimer.c ****                 ret = 0;
 409:C:/Users/²Ü¼ÒºÀ/.iotlink/sdk/IoT_LINK/iot_link/stimer\stimer.c ****                 break;
 410:C:/Users/²Ü¼ÒºÀ/.iotlink/sdk/IoT_LINK/iot_link/stimer\stimer.c ****             default:
 411:C:/Users/²Ü¼ÒºÀ/.iotlink/sdk/IoT_LINK/iot_link/stimer\stimer.c ****                 ret = -1;
 412:C:/Users/²Ü¼ÒºÀ/.iotlink/sdk/IoT_LINK/iot_link/stimer\stimer.c **** 
 413:C:/Users/²Ü¼ÒºÀ/.iotlink/sdk/IoT_LINK/iot_link/stimer\stimer.c ****         }
 414:C:/Users/²Ü¼ÒºÀ/.iotlink/sdk/IoT_LINK/iot_link/stimer\stimer.c ****         (void) osal_mutex_unlock(s_stimer_cb.mutex);
 415:C:/Users/²Ü¼ÒºÀ/.iotlink/sdk/IoT_LINK/iot_link/stimer\stimer.c ****     }
 416:C:/Users/²Ü¼ÒºÀ/.iotlink/sdk/IoT_LINK/iot_link/stimer\stimer.c **** 
 417:C:/Users/²Ü¼ÒºÀ/.iotlink/sdk/IoT_LINK/iot_link/stimer\stimer.c ****     return ret;
 418:C:/Users/²Ü¼ÒºÀ/.iotlink/sdk/IoT_LINK/iot_link/stimer\stimer.c **** 
 419:C:/Users/²Ü¼ÒºÀ/.iotlink/sdk/IoT_LINK/iot_link/stimer\stimer.c **** }
 420:C:/Users/²Ü¼ÒºÀ/.iotlink/sdk/IoT_LINK/iot_link/stimer\stimer.c **** 
 421:C:/Users/²Ü¼ÒºÀ/.iotlink/sdk/IoT_LINK/iot_link/stimer\stimer.c **** 
 422:C:/Users/²Ü¼ÒºÀ/.iotlink/sdk/IoT_LINK/iot_link/stimer\stimer.c **** #ifdef CONFIG_SHELL_ENABLE
 423:C:/Users/²Ü¼ÒºÀ/.iotlink/sdk/IoT_LINK/iot_link/stimer\stimer.c **** #include <shell.h>
ARM GAS  C:\Users\²Ü¼ÒºÀ\AppData\Local\Temp\ccUTRmBj.s 			page 18


 424:C:/Users/²Ü¼ÒºÀ/.iotlink/sdk/IoT_LINK/iot_link/stimer\stimer.c **** static int32_t stimer_print(int32_t argc, const char *argv[])
 425:C:/Users/²Ü¼ÒºÀ/.iotlink/sdk/IoT_LINK/iot_link/stimer\stimer.c **** {
 445              		.loc 1 425 1 is_stmt 1 view -0
 446              		.cfi_startproc
 447              		@ args = 0, pretend = 0, frame = 0
 448              		@ frame_needed = 0, uses_anonymous_args = 0
 426:C:/Users/²Ü¼ÒºÀ/.iotlink/sdk/IoT_LINK/iot_link/stimer\stimer.c ****     int       timer_number = 0;
 449              		.loc 1 426 5 view .LVU128
 427:C:/Users/²Ü¼ÒºÀ/.iotlink/sdk/IoT_LINK/iot_link/stimer\stimer.c ****     stimer_item_t  *item = NULL;
 450              		.loc 1 427 5 view .LVU129
 428:C:/Users/²Ü¼ÒºÀ/.iotlink/sdk/IoT_LINK/iot_link/stimer\stimer.c **** 
 429:C:/Users/²Ü¼ÒºÀ/.iotlink/sdk/IoT_LINK/iot_link/stimer\stimer.c ****     (void) timer_number;
 451              		.loc 1 429 5 view .LVU130
 430:C:/Users/²Ü¼ÒºÀ/.iotlink/sdk/IoT_LINK/iot_link/stimer\stimer.c **** 
 431:C:/Users/²Ü¼ÒºÀ/.iotlink/sdk/IoT_LINK/iot_link/stimer\stimer.c ****     if(true == osal_mutex_lock(s_stimer_cb.mutex))
 452              		.loc 1 431 5 view .LVU131
 425:C:/Users/²Ü¼ÒºÀ/.iotlink/sdk/IoT_LINK/iot_link/stimer\stimer.c ****     int       timer_number = 0;
 453              		.loc 1 425 1 is_stmt 0 view .LVU132
 454 0000 2DE9F04F 		push	{r4, r5, r6, r7, r8, r9, r10, fp, lr}
 455              	.LCFI2:
 456              		.cfi_def_cfa_offset 36
 457              		.cfi_offset 4, -36
 458              		.cfi_offset 5, -32
 459              		.cfi_offset 6, -28
 460              		.cfi_offset 7, -24
 461              		.cfi_offset 8, -20
 462              		.cfi_offset 9, -16
 463              		.cfi_offset 10, -12
 464              		.cfi_offset 11, -8
 465              		.cfi_offset 14, -4
 466              		.loc 1 431 16 view .LVU133
 467 0004 3F4D     		ldr	r5, .L58
 425:C:/Users/²Ü¼ÒºÀ/.iotlink/sdk/IoT_LINK/iot_link/stimer\stimer.c ****     int       timer_number = 0;
 468              		.loc 1 425 1 view .LVU134
 469 0006 89B0     		sub	sp, sp, #36
 470              	.LCFI3:
 471              		.cfi_def_cfa_offset 72
 472              		.loc 1 431 16 view .LVU135
 473 0008 6868     		ldr	r0, [r5, #4]
 474              	.LVL34:
 475              		.loc 1 431 16 view .LVU136
 476 000a FFF7FEFF 		bl	osal_mutex_lock
 477              	.LVL35:
 478              		.loc 1 431 7 view .LVU137
 479 000e 0128     		cmp	r0, #1
 480              		.loc 1 431 16 view .LVU138
 481 0010 0446     		mov	r4, r0
 482              		.loc 1 431 7 view .LVU139
 483 0012 42D1     		bne	.L46
 484              	.LBB10:
 485              	.LBI10:
 424:C:/Users/²Ü¼ÒºÀ/.iotlink/sdk/IoT_LINK/iot_link/stimer\stimer.c **** {
 486              		.loc 1 424 16 is_stmt 1 view .LVU140
 487              	.LVL36:
 488              	.LBB11:
 432:C:/Users/²Ü¼ÒºÀ/.iotlink/sdk/IoT_LINK/iot_link/stimer\stimer.c ****     {
 433:C:/Users/²Ü¼ÒºÀ/.iotlink/sdk/IoT_LINK/iot_link/stimer\stimer.c ****         LINK_LOG_DEBUG("%-12s %-8s %-8s %-8s %-5s %-5s %s\n\r",\
ARM GAS  C:\Users\²Ü¼ÒºÀ\AppData\Local\Temp\ccUTRmBj.s 			page 19


 489              		.loc 1 433 9 view .LVU141
 490              		.loc 1 433 9 view .LVU142
 491 0014 FFF7FEFF 		bl	link_log_level_get
 492              	.LVL37:
 493 0018 0128     		cmp	r0, #1
 494 001a 1ED8     		bhi	.L47
 495              		.loc 1 433 9 view .LVU143
 496              		.loc 1 433 9 view .LVU144
 497              		.loc 1 433 9 view .LVU145
 498 001c 2046     		mov	r0, r4
 499 001e FFF7FEFF 		bl	link_log_level_name
 500              	.LVL38:
 501 0022 0446     		mov	r4, r0
 502 0024 FFF7FEFF 		bl	osal_sys_time
 503              	.LVL39:
 504 0028 374B     		ldr	r3, .L58+4
 505 002a 0693     		str	r3, [sp, #24]
 506 002c 374B     		ldr	r3, .L58+8
 507 002e 0593     		str	r3, [sp, #20]
 508 0030 374B     		ldr	r3, .L58+12
 509 0032 0493     		str	r3, [sp, #16]
 510 0034 374B     		ldr	r3, .L58+16
 511 0036 0393     		str	r3, [sp, #12]
 512 0038 374B     		ldr	r3, .L58+20
 513 003a 0293     		str	r3, [sp, #8]
 514 003c 374B     		ldr	r3, .L58+24
 515 003e 0193     		str	r3, [sp, #4]
 516 0040 374B     		ldr	r3, .L58+28
 517 0042 0093     		str	r3, [sp]
 518 0044 0246     		mov	r2, r0
 519 0046 374B     		ldr	r3, .L58+32
 520 0048 3748     		ldr	r0, .L58+36
 521 004a 2146     		mov	r1, r4
 522 004c FFF7FEFF 		bl	printf
 523              	.LVL40:
 524              		.loc 1 433 9 view .LVU146
 525 0050 364B     		ldr	r3, .L58+40
 526 0052 1B68     		ldr	r3, [r3]
 527 0054 9868     		ldr	r0, [r3, #8]
 528 0056 FFF7FEFF 		bl	fflush
 529              	.LVL41:
 530              	.L47:
 531              		.loc 1 433 9 view .LVU147
 532              		.loc 1 433 9 view .LVU148
 533              		.loc 1 433 9 view .LVU149
 434:C:/Users/²Ü¼ÒºÀ/.iotlink/sdk/IoT_LINK/iot_link/stimer\stimer.c ****                 "Timer-Name","Cycle","Handler","Arg","Start","Once","DeadTime");
 435:C:/Users/²Ü¼ÒºÀ/.iotlink/sdk/IoT_LINK/iot_link/stimer\stimer.c **** 
 436:C:/Users/²Ü¼ÒºÀ/.iotlink/sdk/IoT_LINK/iot_link/stimer\stimer.c ****         item = s_stimer_cb.lst;
 534              		.loc 1 436 9 view .LVU150
 535              		.loc 1 436 14 is_stmt 0 view .LVU151
 536 005a AC68     		ldr	r4, [r5, #8]
 537              	.LVL42:
 437:C:/Users/²Ü¼ÒºÀ/.iotlink/sdk/IoT_LINK/iot_link/stimer\stimer.c ****         while(NULL != item)
 538              		.loc 1 437 9 is_stmt 1 view .LVU152
 438:C:/Users/²Ü¼ÒºÀ/.iotlink/sdk/IoT_LINK/iot_link/stimer\stimer.c ****         {
 439:C:/Users/²Ü¼ÒºÀ/.iotlink/sdk/IoT_LINK/iot_link/stimer\stimer.c ****             LINK_LOG_DEBUG("%-12s %08x %08x %08x %-5s %-5s %x\n\r",\
 539              		.loc 1 439 13 is_stmt 0 view .LVU153
ARM GAS  C:\Users\²Ü¼ÒºÀ\AppData\Local\Temp\ccUTRmBj.s 			page 20


 540 005c DFF8DC90 		ldr	r9, .L58+56
 541 0060 334F     		ldr	r7, .L58+44
 542 0062 DFF8DC80 		ldr	r8, .L58+60
 543              	.L48:
 437:C:/Users/²Ü¼ÒºÀ/.iotlink/sdk/IoT_LINK/iot_link/stimer\stimer.c ****         while(NULL != item)
 544              		.loc 1 437 14 is_stmt 1 view .LVU154
 545 0066 E4B9     		cbnz	r4, .L53
 440:C:/Users/²Ü¼ÒºÀ/.iotlink/sdk/IoT_LINK/iot_link/stimer\stimer.c ****                     (NULL==item->name)?"UNKONW":item->name,\
 441:C:/Users/²Ü¼ÒºÀ/.iotlink/sdk/IoT_LINK/iot_link/stimer\stimer.c ****                     (unsigned int)item->cycle,(unsigned int)(uintptr_t)item->handler,(unsigned int)
 442:C:/Users/²Ü¼ÒºÀ/.iotlink/sdk/IoT_LINK/iot_link/stimer\stimer.c ****                     item->flag&cn_stimer_flag_start?"Yes":"No",item->flag&cn_stimer_flag_once?"Yes"
 443:C:/Users/²Ü¼ÒºÀ/.iotlink/sdk/IoT_LINK/iot_link/stimer\stimer.c ****                     (unsigned int)item->dead_time);
 444:C:/Users/²Ü¼ÒºÀ/.iotlink/sdk/IoT_LINK/iot_link/stimer\stimer.c ****             item = item->nxt;
 445:C:/Users/²Ü¼ÒºÀ/.iotlink/sdk/IoT_LINK/iot_link/stimer\stimer.c ****         }
 446:C:/Users/²Ü¼ÒºÀ/.iotlink/sdk/IoT_LINK/iot_link/stimer\stimer.c ****         LINK_LOG_DEBUG("Total:%d Soft timers\n\r",timer_number);
 546              		.loc 1 446 9 view .LVU155
 547              		.loc 1 446 9 view .LVU156
 548 0068 FFF7FEFF 		bl	link_log_level_get
 549              	.LVL43:
 550 006c 0128     		cmp	r0, #1
 551 006e 11D8     		bhi	.L54
 552              		.loc 1 446 9 view .LVU157
 553              		.loc 1 446 9 view .LVU158
 554              		.loc 1 446 9 view .LVU159
 555 0070 0120     		movs	r0, #1
 556 0072 FFF7FEFF 		bl	link_log_level_name
 557              	.LVL44:
 558 0076 0646     		mov	r6, r0
 559 0078 FFF7FEFF 		bl	osal_sys_time
 560              	.LVL45:
 561 007c 294B     		ldr	r3, .L58+32
 562 007e 0094     		str	r4, [sp]
 563 0080 0246     		mov	r2, r0
 564 0082 3146     		mov	r1, r6
 565 0084 2B48     		ldr	r0, .L58+48
 566 0086 FFF7FEFF 		bl	printf
 567              	.LVL46:
 568              		.loc 1 446 9 view .LVU160
 569 008a 284B     		ldr	r3, .L58+40
 570 008c 1B68     		ldr	r3, [r3]
 571 008e 9868     		ldr	r0, [r3, #8]
 572 0090 FFF7FEFF 		bl	fflush
 573              	.LVL47:
 574              	.L54:
 575              		.loc 1 446 9 view .LVU161
 576              		.loc 1 446 9 view .LVU162
 577              		.loc 1 446 9 view .LVU163
 447:C:/Users/²Ü¼ÒºÀ/.iotlink/sdk/IoT_LINK/iot_link/stimer\stimer.c **** 
 448:C:/Users/²Ü¼ÒºÀ/.iotlink/sdk/IoT_LINK/iot_link/stimer\stimer.c ****         (void) osal_mutex_unlock(s_stimer_cb.mutex);
 578              		.loc 1 448 9 view .LVU164
 579              		.loc 1 448 16 is_stmt 0 view .LVU165
 580 0094 6868     		ldr	r0, [r5, #4]
 581 0096 FFF7FEFF 		bl	osal_mutex_unlock
 582              	.LVL48:
 583              	.L46:
 584              		.loc 1 448 16 view .LVU166
 585              	.LBE11:
 586              	.LBE10:
ARM GAS  C:\Users\²Ü¼ÒºÀ\AppData\Local\Temp\ccUTRmBj.s 			page 21


 449:C:/Users/²Ü¼ÒºÀ/.iotlink/sdk/IoT_LINK/iot_link/stimer\stimer.c ****     }
 450:C:/Users/²Ü¼ÒºÀ/.iotlink/sdk/IoT_LINK/iot_link/stimer\stimer.c **** 
 451:C:/Users/²Ü¼ÒºÀ/.iotlink/sdk/IoT_LINK/iot_link/stimer\stimer.c ****     return 0;
 587              		.loc 1 451 5 is_stmt 1 view .LVU167
 452:C:/Users/²Ü¼ÒºÀ/.iotlink/sdk/IoT_LINK/iot_link/stimer\stimer.c **** }
 588              		.loc 1 452 1 is_stmt 0 view .LVU168
 589 009a 0020     		movs	r0, #0
 590 009c 09B0     		add	sp, sp, #36
 591              	.LCFI4:
 592              		.cfi_remember_state
 593              		.cfi_def_cfa_offset 36
 594              		@ sp needed
 595 009e BDE8F08F 		pop	{r4, r5, r6, r7, r8, r9, r10, fp, pc}
 596              	.LVL49:
 597              	.L53:
 598              	.LCFI5:
 599              		.cfi_restore_state
 600              	.LBB13:
 601              	.LBB12:
 439:C:/Users/²Ü¼ÒºÀ/.iotlink/sdk/IoT_LINK/iot_link/stimer\stimer.c ****                     (NULL==item->name)?"UNKONW":item->name,\
 602              		.loc 1 439 13 is_stmt 1 view .LVU169
 439:C:/Users/²Ü¼ÒºÀ/.iotlink/sdk/IoT_LINK/iot_link/stimer\stimer.c ****                     (NULL==item->name)?"UNKONW":item->name,\
 603              		.loc 1 439 13 view .LVU170
 604 00a2 FFF7FEFF 		bl	link_log_level_get
 605              	.LVL50:
 606 00a6 0128     		cmp	r0, #1
 607 00a8 2AD8     		bhi	.L49
 439:C:/Users/²Ü¼ÒºÀ/.iotlink/sdk/IoT_LINK/iot_link/stimer\stimer.c ****                     (NULL==item->name)?"UNKONW":item->name,\
 608              		.loc 1 439 13 view .LVU171
 439:C:/Users/²Ü¼ÒºÀ/.iotlink/sdk/IoT_LINK/iot_link/stimer\stimer.c ****                     (NULL==item->name)?"UNKONW":item->name,\
 609              		.loc 1 439 13 view .LVU172
 439:C:/Users/²Ü¼ÒºÀ/.iotlink/sdk/IoT_LINK/iot_link/stimer\stimer.c ****                     (NULL==item->name)?"UNKONW":item->name,\
 610              		.loc 1 439 13 view .LVU173
 611 00aa 0120     		movs	r0, #1
 612 00ac FFF7FEFF 		bl	link_log_level_name
 613              	.LVL51:
 614 00b0 0646     		mov	r6, r0
 615 00b2 FFF7FEFF 		bl	osal_sys_time
 616              	.LVL52:
 617 00b6 8346     		mov	fp, r0
 618 00b8 201D     		adds	r0, r4, #4
 619 00ba 90E80350 		ldm	r0, {r0, r1, ip, lr}
 620 00be 2368     		ldr	r3, [r4]
 621 00c0 A269     		ldr	r2, [r4, #24]
 622 00c2 002B     		cmp	r3, #0
 623 00c4 08BF     		it	eq
 624 00c6 4B46     		moveq	r3, r9
 625 00c8 11F0020F 		tst	r1, #2
 626 00cc 14BF     		ite	ne
 627 00ce BA46     		movne	r10, r7
 628 00d0 C246     		moveq	r10, r8
 629 00d2 11F0010F 		tst	r1, #1
 630 00d6 14BF     		ite	ne
 631 00d8 3946     		movne	r1, r7
 632 00da 4146     		moveq	r1, r8
 633 00dc CDE90512 		strd	r1, r2, [sp, #20]
 634 00e0 CDE9010C 		strd	r0, ip, [sp, #4]
ARM GAS  C:\Users\²Ü¼ÒºÀ\AppData\Local\Temp\ccUTRmBj.s 			page 22


 635 00e4 0093     		str	r3, [sp]
 636 00e6 CDE903EA 		strd	lr, r10, [sp, #12]
 637 00ea 0E4B     		ldr	r3, .L58+32
 638 00ec 1248     		ldr	r0, .L58+52
 639 00ee 5A46     		mov	r2, fp
 640 00f0 3146     		mov	r1, r6
 641 00f2 FFF7FEFF 		bl	printf
 642              	.LVL53:
 439:C:/Users/²Ü¼ÒºÀ/.iotlink/sdk/IoT_LINK/iot_link/stimer\stimer.c ****                     (NULL==item->name)?"UNKONW":item->name,\
 643              		.loc 1 439 13 view .LVU174
 644 00f6 0D4B     		ldr	r3, .L58+40
 645 00f8 1B68     		ldr	r3, [r3]
 646 00fa 9868     		ldr	r0, [r3, #8]
 647 00fc FFF7FEFF 		bl	fflush
 648              	.LVL54:
 649              	.L49:
 439:C:/Users/²Ü¼ÒºÀ/.iotlink/sdk/IoT_LINK/iot_link/stimer\stimer.c ****                     (NULL==item->name)?"UNKONW":item->name,\
 650              		.loc 1 439 13 view .LVU175
 439:C:/Users/²Ü¼ÒºÀ/.iotlink/sdk/IoT_LINK/iot_link/stimer\stimer.c ****                     (NULL==item->name)?"UNKONW":item->name,\
 651              		.loc 1 439 13 view .LVU176
 439:C:/Users/²Ü¼ÒºÀ/.iotlink/sdk/IoT_LINK/iot_link/stimer\stimer.c ****                     (NULL==item->name)?"UNKONW":item->name,\
 652              		.loc 1 439 13 view .LVU177
 444:C:/Users/²Ü¼ÒºÀ/.iotlink/sdk/IoT_LINK/iot_link/stimer\stimer.c ****         }
 653              		.loc 1 444 13 view .LVU178
 444:C:/Users/²Ü¼ÒºÀ/.iotlink/sdk/IoT_LINK/iot_link/stimer\stimer.c ****         }
 654              		.loc 1 444 18 is_stmt 0 view .LVU179
 655 0100 246A     		ldr	r4, [r4, #32]
 656              	.LVL55:
 444:C:/Users/²Ü¼ÒºÀ/.iotlink/sdk/IoT_LINK/iot_link/stimer\stimer.c ****         }
 657              		.loc 1 444 18 view .LVU180
 658 0102 B0E7     		b	.L48
 659              	.L59:
 660              		.align	2
 661              	.L58:
 662 0104 00000000 		.word	.LANCHOR0
 663 0108 41000000 		.word	.LC4
 664 010c 4A000000 		.word	.LC5
 665 0110 4F000000 		.word	.LC6
 666 0114 55000000 		.word	.LC7
 667 0118 59000000 		.word	.LC8
 668 011c 61000000 		.word	.LC9
 669 0120 67000000 		.word	.LC10
 670 0124 00000000 		.word	.LANCHOR1
 671 0128 0E000000 		.word	.LC3
 672 012c 00000000 		.word	_impure_ptr
 673 0130 07000000 		.word	.LC1
 674 0134 A5000000 		.word	.LC12
 675 0138 72000000 		.word	.LC11
 676 013c 00000000 		.word	.LC0
 677 0140 0B000000 		.word	.LC2
 678              	.LBE12:
 679              	.LBE13:
 680              		.cfi_endproc
 681              	.LFE12:
 683              		.section	.text.stimer_daemonquit,"ax",%progbits
 684              		.align	1
 685              		.global	stimer_daemonquit
ARM GAS  C:\Users\²Ü¼ÒºÀ\AppData\Local\Temp\ccUTRmBj.s 			page 23


 686              		.syntax unified
 687              		.thumb
 688              		.thumb_func
 689              		.fpu fpv4-sp-d16
 691              	stimer_daemonquit:
 692              	.LFB6:
 203:C:/Users/²Ü¼ÒºÀ/.iotlink/sdk/IoT_LINK/iot_link/stimer\stimer.c **** 
 693              		.loc 1 203 1 is_stmt 1 view -0
 694              		.cfi_startproc
 695              		@ args = 0, pretend = 0, frame = 0
 696              		@ frame_needed = 0, uses_anonymous_args = 0
 697              		@ link register save eliminated.
 205:C:/Users/²Ü¼ÒºÀ/.iotlink/sdk/IoT_LINK/iot_link/stimer\stimer.c **** 
 698              		.loc 1 205 5 view .LVU182
 205:C:/Users/²Ü¼ÒºÀ/.iotlink/sdk/IoT_LINK/iot_link/stimer\stimer.c **** 
 699              		.loc 1 205 29 is_stmt 0 view .LVU183
 700 0000 024B     		ldr	r3, .L61
 701 0002 0122     		movs	r2, #1
 702 0004 1A61     		str	r2, [r3, #16]
 207:C:/Users/²Ü¼ÒºÀ/.iotlink/sdk/IoT_LINK/iot_link/stimer\stimer.c **** }
 703              		.loc 1 207 5 is_stmt 1 view .LVU184
 208:C:/Users/²Ü¼ÒºÀ/.iotlink/sdk/IoT_LINK/iot_link/stimer\stimer.c **** 
 704              		.loc 1 208 1 is_stmt 0 view .LVU185
 705 0006 0020     		movs	r0, #0
 706 0008 7047     		bx	lr
 707              	.L62:
 708 000a 00BF     		.align	2
 709              	.L61:
 710 000c 00000000 		.word	.LANCHOR0
 711              		.cfi_endproc
 712              	.LFE6:
 714              		.section	.rodata.stimer_init.str1.1,"aMS",%progbits,1
 715              	.LC13:
 716 0000 736F6674 		.ascii	"soft timer\000"
 716      2074696D 
 716      657200
 717              		.section	.text.stimer_init,"ax",%progbits
 718              		.align	1
 719              		.global	stimer_init
 720              		.syntax unified
 721              		.thumb
 722              		.thumb_func
 723              		.fpu fpv4-sp-d16
 725              	stimer_init:
 726              	.LFB8:
 256:C:/Users/²Ü¼ÒºÀ/.iotlink/sdk/IoT_LINK/iot_link/stimer\stimer.c ****     int32_t ret =-1;
 727              		.loc 1 256 1 is_stmt 1 view -0
 728              		.cfi_startproc
 729              		@ args = 0, pretend = 0, frame = 0
 730              		@ frame_needed = 0, uses_anonymous_args = 0
 257:C:/Users/²Ü¼ÒºÀ/.iotlink/sdk/IoT_LINK/iot_link/stimer\stimer.c **** 
 731              		.loc 1 257 5 view .LVU187
 732              	.LVL56:
 259:C:/Users/²Ü¼ÒºÀ/.iotlink/sdk/IoT_LINK/iot_link/stimer\stimer.c ****     {
 733              		.loc 1 259 5 view .LVU188
 256:C:/Users/²Ü¼ÒºÀ/.iotlink/sdk/IoT_LINK/iot_link/stimer\stimer.c ****     int32_t ret =-1;
 734              		.loc 1 256 1 is_stmt 0 view .LVU189
ARM GAS  C:\Users\²Ü¼ÒºÀ\AppData\Local\Temp\ccUTRmBj.s 			page 24


 735 0000 73B5     		push	{r0, r1, r4, r5, r6, lr}
 736              	.LCFI6:
 737              		.cfi_def_cfa_offset 24
 738              		.cfi_offset 4, -16
 739              		.cfi_offset 5, -12
 740              		.cfi_offset 6, -8
 741              		.cfi_offset 14, -4
 259:C:/Users/²Ü¼ÒºÀ/.iotlink/sdk/IoT_LINK/iot_link/stimer\stimer.c ****     {
 742              		.loc 1 259 17 view .LVU190
 743 0002 164E     		ldr	r6, .L71
 744 0004 0022     		movs	r2, #0
 745 0006 0121     		movs	r1, #1
 746 0008 3046     		mov	r0, r6
 747 000a FFF7FEFF 		bl	osal_semp_create
 748              	.LVL57:
 749 000e 3546     		mov	r5, r6
 259:C:/Users/²Ü¼ÒºÀ/.iotlink/sdk/IoT_LINK/iot_link/stimer\stimer.c ****     {
 750              		.loc 1 259 7 view .LVU191
 751 0010 08B3     		cbz	r0, .L67
 263:C:/Users/²Ü¼ÒºÀ/.iotlink/sdk/IoT_LINK/iot_link/stimer\stimer.c ****     {
 752              		.loc 1 263 5 is_stmt 1 view .LVU192
 263:C:/Users/²Ü¼ÒºÀ/.iotlink/sdk/IoT_LINK/iot_link/stimer\stimer.c ****     {
 753              		.loc 1 263 17 is_stmt 0 view .LVU193
 754 0012 301D     		adds	r0, r6, #4
 755 0014 FFF7FEFF 		bl	osal_mutex_create
 756              	.LVL58:
 263:C:/Users/²Ü¼ÒºÀ/.iotlink/sdk/IoT_LINK/iot_link/stimer\stimer.c ****     {
 757              		.loc 1 263 7 view .LVU194
 758 0018 90B1     		cbz	r0, .L65
 268:C:/Users/²Ü¼ÒºÀ/.iotlink/sdk/IoT_LINK/iot_link/stimer\stimer.c **** 
 759              		.loc 1 268 5 is_stmt 1 view .LVU195
 268:C:/Users/²Ü¼ÒºÀ/.iotlink/sdk/IoT_LINK/iot_link/stimer\stimer.c **** 
 760              		.loc 1 268 24 is_stmt 0 view .LVU196
 761 001a 0024     		movs	r4, #0
 762 001c 0A23     		movs	r3, #10
 763 001e CDE90043 		strd	r4, r3, [sp]
 764 0022 0F49     		ldr	r1, .L71+4
 765 0024 0F48     		ldr	r0, .L71+8
 766 0026 4FF40063 		mov	r3, #2048
 767 002a 2246     		mov	r2, r4
 768 002c FFF7FEFF 		bl	osal_task_create
 769              	.LVL59:
 268:C:/Users/²Ü¼ÒºÀ/.iotlink/sdk/IoT_LINK/iot_link/stimer\stimer.c **** 
 770              		.loc 1 268 22 view .LVU197
 771 0030 F060     		str	r0, [r6, #12]
 270:C:/Users/²Ü¼ÒºÀ/.iotlink/sdk/IoT_LINK/iot_link/stimer\stimer.c ****     {
 772              		.loc 1 270 5 is_stmt 1 view .LVU198
 270:C:/Users/²Ü¼ÒºÀ/.iotlink/sdk/IoT_LINK/iot_link/stimer\stimer.c ****     {
 773              		.loc 1 270 7 is_stmt 0 view .LVU199
 774 0032 60B9     		cbnz	r0, .L66
 272:C:/Users/²Ü¼ÒºÀ/.iotlink/sdk/IoT_LINK/iot_link/stimer\stimer.c ****     }
 775              		.loc 1 272 9 is_stmt 1 view .LVU200
 776              	.LDL1:
 280:C:/Users/²Ü¼ÒºÀ/.iotlink/sdk/IoT_LINK/iot_link/stimer\stimer.c ****     s_stimer_cb.mutex = cn_mutex_invalid;
 777              		.loc 1 280 5 view .LVU201
 280:C:/Users/²Ü¼ÒºÀ/.iotlink/sdk/IoT_LINK/iot_link/stimer\stimer.c ****     s_stimer_cb.mutex = cn_mutex_invalid;
 778              		.loc 1 280 12 is_stmt 0 view .LVU202
ARM GAS  C:\Users\²Ü¼ÒºÀ\AppData\Local\Temp\ccUTRmBj.s 			page 25


 779 0034 7068     		ldr	r0, [r6, #4]
 780 0036 FFF7FEFF 		bl	osal_mutex_del
 781              	.LVL60:
 281:C:/Users/²Ü¼ÒºÀ/.iotlink/sdk/IoT_LINK/iot_link/stimer\stimer.c **** EXIT_MUTEXERR:
 782              		.loc 1 281 5 is_stmt 1 view .LVU203
 281:C:/Users/²Ü¼ÒºÀ/.iotlink/sdk/IoT_LINK/iot_link/stimer\stimer.c **** EXIT_MUTEXERR:
 783              		.loc 1 281 23 is_stmt 0 view .LVU204
 784 003a 4FF0FF33 		mov	r3, #-1
 785 003e 7360     		str	r3, [r6, #4]
 786              	.L65:
 283:C:/Users/²Ü¼ÒºÀ/.iotlink/sdk/IoT_LINK/iot_link/stimer\stimer.c ****     s_stimer_cb.semp = cn_semp_invalid;
 787              		.loc 1 283 5 is_stmt 1 view .LVU205
 283:C:/Users/²Ü¼ÒºÀ/.iotlink/sdk/IoT_LINK/iot_link/stimer\stimer.c ****     s_stimer_cb.semp = cn_semp_invalid;
 788              		.loc 1 283 12 is_stmt 0 view .LVU206
 789 0040 2868     		ldr	r0, [r5]
 790 0042 FFF7FEFF 		bl	osal_semp_del
 791              	.LVL61:
 284:C:/Users/²Ü¼ÒºÀ/.iotlink/sdk/IoT_LINK/iot_link/stimer\stimer.c **** EXIT_SEMPERR:
 792              		.loc 1 284 5 is_stmt 1 view .LVU207
 284:C:/Users/²Ü¼ÒºÀ/.iotlink/sdk/IoT_LINK/iot_link/stimer\stimer.c **** EXIT_SEMPERR:
 793              		.loc 1 284 22 is_stmt 0 view .LVU208
 794 0046 4FF0FF30 		mov	r0, #-1
 795 004a 2860     		str	r0, [r5]
 796 004c 01E0     		b	.L63
 797              	.L66:
 274:C:/Users/²Ü¼ÒºÀ/.iotlink/sdk/IoT_LINK/iot_link/stimer\stimer.c **** 
 798              		.loc 1 274 5 is_stmt 1 view .LVU209
 274:C:/Users/²Ü¼ÒºÀ/.iotlink/sdk/IoT_LINK/iot_link/stimer\stimer.c **** 
 799              		.loc 1 274 29 is_stmt 0 view .LVU210
 800 004e 3461     		str	r4, [r6, #16]
 276:C:/Users/²Ü¼ÒºÀ/.iotlink/sdk/IoT_LINK/iot_link/stimer\stimer.c ****     return ret;
 801              		.loc 1 276 5 is_stmt 1 view .LVU211
 802              	.LVL62:
 277:C:/Users/²Ü¼ÒºÀ/.iotlink/sdk/IoT_LINK/iot_link/stimer\stimer.c **** 
 803              		.loc 1 277 5 view .LVU212
 277:C:/Users/²Ü¼ÒºÀ/.iotlink/sdk/IoT_LINK/iot_link/stimer\stimer.c **** 
 804              		.loc 1 277 12 is_stmt 0 view .LVU213
 805 0050 2046     		mov	r0, r4
 806              	.LVL63:
 807              	.L63:
 287:C:/Users/²Ü¼ÒºÀ/.iotlink/sdk/IoT_LINK/iot_link/stimer\stimer.c **** 
 808              		.loc 1 287 1 view .LVU214
 809 0052 02B0     		add	sp, sp, #8
 810              	.LCFI7:
 811              		.cfi_remember_state
 812              		.cfi_def_cfa_offset 16
 813              		@ sp needed
 814 0054 70BD     		pop	{r4, r5, r6, pc}
 815              	.LVL64:
 816              	.L67:
 817              	.LCFI8:
 818              		.cfi_restore_state
 286:C:/Users/²Ü¼ÒºÀ/.iotlink/sdk/IoT_LINK/iot_link/stimer\stimer.c **** }
 819              		.loc 1 286 12 view .LVU215
 820 0056 4FF0FF30 		mov	r0, #-1
 821 005a FAE7     		b	.L63
 822              	.L72:
ARM GAS  C:\Users\²Ü¼ÒºÀ\AppData\Local\Temp\ccUTRmBj.s 			page 26


 823              		.align	2
 824              	.L71:
 825 005c 00000000 		.word	.LANCHOR0
 826 0060 00000000 		.word	__timer_entry
 827 0064 00000000 		.word	.LC13
 828              		.cfi_endproc
 829              	.LFE8:
 831              		.section	.text.stimer_create,"ax",%progbits
 832              		.align	1
 833              		.global	stimer_create
 834              		.syntax unified
 835              		.thumb
 836              		.thumb_func
 837              		.fpu fpv4-sp-d16
 839              	stimer_create:
 840              	.LVL65:
 841              	.LFB9:
 290:C:/Users/²Ü¼ÒºÀ/.iotlink/sdk/IoT_LINK/iot_link/stimer\stimer.c ****     stimer_item_t *item;
 842              		.loc 1 290 1 is_stmt 1 view -0
 843              		.cfi_startproc
 844              		@ args = 4, pretend = 0, frame = 0
 845              		@ frame_needed = 0, uses_anonymous_args = 0
 291:C:/Users/²Ü¼ÒºÀ/.iotlink/sdk/IoT_LINK/iot_link/stimer\stimer.c ****     int            mem_len;
 846              		.loc 1 291 5 view .LVU217
 292:C:/Users/²Ü¼ÒºÀ/.iotlink/sdk/IoT_LINK/iot_link/stimer\stimer.c **** 
 847              		.loc 1 292 5 view .LVU218
 294:C:/Users/²Ü¼ÒºÀ/.iotlink/sdk/IoT_LINK/iot_link/stimer\stimer.c **** 
 848              		.loc 1 294 5 view .LVU219
 296:C:/Users/²Ü¼ÒºÀ/.iotlink/sdk/IoT_LINK/iot_link/stimer\stimer.c ****     {
 849              		.loc 1 296 5 view .LVU220
 290:C:/Users/²Ü¼ÒºÀ/.iotlink/sdk/IoT_LINK/iot_link/stimer\stimer.c ****     stimer_item_t *item;
 850              		.loc 1 290 1 is_stmt 0 view .LVU221
 851 0000 2DE9F843 		push	{r3, r4, r5, r6, r7, r8, r9, lr}
 852              	.LCFI9:
 853              		.cfi_def_cfa_offset 32
 854              		.cfi_offset 3, -32
 855              		.cfi_offset 4, -28
 856              		.cfi_offset 5, -24
 857              		.cfi_offset 6, -20
 858              		.cfi_offset 7, -16
 859              		.cfi_offset 8, -12
 860              		.cfi_offset 9, -8
 861              		.cfi_offset 14, -4
 290:C:/Users/²Ü¼ÒºÀ/.iotlink/sdk/IoT_LINK/iot_link/stimer\stimer.c ****     stimer_item_t *item;
 862              		.loc 1 290 1 view .LVU222
 863 0004 DDF82090 		ldr	r9, [sp, #32]
 864 0008 0F46     		mov	r7, r1
 865 000a 1646     		mov	r6, r2
 866 000c 9846     		mov	r8, r3
 296:C:/Users/²Ü¼ÒºÀ/.iotlink/sdk/IoT_LINK/iot_link/stimer\stimer.c ****     {
 867              		.loc 1 296 7 view .LVU223
 868 000e 0546     		mov	r5, r0
 869 0010 B8B3     		cbz	r0, .L80
 298:C:/Users/²Ü¼ÒºÀ/.iotlink/sdk/IoT_LINK/iot_link/stimer\stimer.c ****     }
 870              		.loc 1 298 9 is_stmt 1 view .LVU224
 298:C:/Users/²Ü¼ÒºÀ/.iotlink/sdk/IoT_LINK/iot_link/stimer\stimer.c ****     }
 871              		.loc 1 298 20 is_stmt 0 view .LVU225
ARM GAS  C:\Users\²Ü¼ÒºÀ\AppData\Local\Temp\ccUTRmBj.s 			page 27


 872 0012 FFF7FEFF 		bl	strlen
 873              	.LVL66:
 298:C:/Users/²Ü¼ÒºÀ/.iotlink/sdk/IoT_LINK/iot_link/stimer\stimer.c ****     }
 874              		.loc 1 298 17 view .LVU226
 875 0016 2930     		adds	r0, r0, #41
 876              	.LVL67:
 877              	.L74:
 301:C:/Users/²Ü¼ÒºÀ/.iotlink/sdk/IoT_LINK/iot_link/stimer\stimer.c ****     if(NULL == item)
 878              		.loc 1 301 5 is_stmt 1 view .LVU227
 301:C:/Users/²Ü¼ÒºÀ/.iotlink/sdk/IoT_LINK/iot_link/stimer\stimer.c ****     if(NULL == item)
 879              		.loc 1 301 13 is_stmt 0 view .LVU228
 880 0018 FFF7FEFF 		bl	osal_malloc
 881              	.LVL68:
 302:C:/Users/²Ü¼ÒºÀ/.iotlink/sdk/IoT_LINK/iot_link/stimer\stimer.c ****     {
 882              		.loc 1 302 5 is_stmt 1 view .LVU229
 302:C:/Users/²Ü¼ÒºÀ/.iotlink/sdk/IoT_LINK/iot_link/stimer\stimer.c ****     {
 883              		.loc 1 302 7 is_stmt 0 view .LVU230
 884 001c 0446     		mov	r4, r0
 885 001e 68B3     		cbz	r0, .L73
 306:C:/Users/²Ü¼ÒºÀ/.iotlink/sdk/IoT_LINK/iot_link/stimer\stimer.c ****     item->cycle = cycle;
 886              		.loc 1 306 5 is_stmt 1 view .LVU231
 306:C:/Users/²Ü¼ÒºÀ/.iotlink/sdk/IoT_LINK/iot_link/stimer\stimer.c ****     item->cycle = cycle;
 887              		.loc 1 306 12 is_stmt 0 view .LVU232
 888 0020 2822     		movs	r2, #40
 889 0022 0021     		movs	r1, #0
 890 0024 FFF7FEFF 		bl	memset
 891              	.LVL69:
 307:C:/Users/²Ü¼ÒºÀ/.iotlink/sdk/IoT_LINK/iot_link/stimer\stimer.c ****     item->flag = flag;
 892              		.loc 1 307 5 is_stmt 1 view .LVU233
 308:C:/Users/²Ü¼ÒºÀ/.iotlink/sdk/IoT_LINK/iot_link/stimer\stimer.c ****     item->handler = handler;
 893              		.loc 1 308 16 is_stmt 0 view .LVU234
 894 0028 C4E90189 		strd	r8, r9, [r4, #4]
 309:C:/Users/²Ü¼ÒºÀ/.iotlink/sdk/IoT_LINK/iot_link/stimer\stimer.c ****     item->args = arg;
 895              		.loc 1 309 5 is_stmt 1 view .LVU235
 310:C:/Users/²Ü¼ÒºÀ/.iotlink/sdk/IoT_LINK/iot_link/stimer\stimer.c ****     if(NULL != name)
 896              		.loc 1 310 16 is_stmt 0 view .LVU236
 897 002c C4E90376 		strd	r7, r6, [r4, #12]
 311:C:/Users/²Ü¼ÒºÀ/.iotlink/sdk/IoT_LINK/iot_link/stimer\stimer.c ****     {
 898              		.loc 1 311 5 is_stmt 1 view .LVU237
 311:C:/Users/²Ü¼ÒºÀ/.iotlink/sdk/IoT_LINK/iot_link/stimer\stimer.c ****     {
 899              		.loc 1 311 7 is_stmt 0 view .LVU238
 900 0030 55B1     		cbz	r5, .L76
 313:C:/Users/²Ü¼ÒºÀ/.iotlink/sdk/IoT_LINK/iot_link/stimer\stimer.c ****         (void) strncpy(item->name,name,strlen(name)+1);
 901              		.loc 1 313 9 is_stmt 1 view .LVU239
 313:C:/Users/²Ü¼ÒºÀ/.iotlink/sdk/IoT_LINK/iot_link/stimer\stimer.c ****         (void) strncpy(item->name,name,strlen(name)+1);
 902              		.loc 1 313 35 is_stmt 0 view .LVU240
 903 0032 04F12806 		add	r6, r4, #40
 904              	.LVL70:
 313:C:/Users/²Ü¼ÒºÀ/.iotlink/sdk/IoT_LINK/iot_link/stimer\stimer.c ****         (void) strncpy(item->name,name,strlen(name)+1);
 905              		.loc 1 313 20 view .LVU241
 906 0036 2660     		str	r6, [r4]
 314:C:/Users/²Ü¼ÒºÀ/.iotlink/sdk/IoT_LINK/iot_link/stimer\stimer.c ****     }
 907              		.loc 1 314 9 is_stmt 1 view .LVU242
 314:C:/Users/²Ü¼ÒºÀ/.iotlink/sdk/IoT_LINK/iot_link/stimer\stimer.c ****     }
 908              		.loc 1 314 40 is_stmt 0 view .LVU243
 909 0038 2846     		mov	r0, r5
 910 003a FFF7FEFF 		bl	strlen
ARM GAS  C:\Users\²Ü¼ÒºÀ\AppData\Local\Temp\ccUTRmBj.s 			page 28


 911              	.LVL71:
 314:C:/Users/²Ü¼ÒºÀ/.iotlink/sdk/IoT_LINK/iot_link/stimer\stimer.c ****     }
 912              		.loc 1 314 16 view .LVU244
 913 003e 2946     		mov	r1, r5
 914 0040 421C     		adds	r2, r0, #1
 915 0042 3046     		mov	r0, r6
 916 0044 FFF7FEFF 		bl	strncpy
 917              	.LVL72:
 918              	.L76:
 318:C:/Users/²Ü¼ÒºÀ/.iotlink/sdk/IoT_LINK/iot_link/stimer\stimer.c ****     {
 919              		.loc 1 318 5 is_stmt 1 view .LVU245
 318:C:/Users/²Ü¼ÒºÀ/.iotlink/sdk/IoT_LINK/iot_link/stimer\stimer.c ****     {
 920              		.loc 1 318 7 is_stmt 0 view .LVU246
 921 0048 19F0020F 		tst	r9, #2
 922 004c 1BD0     		beq	.L77
 320:C:/Users/²Ü¼ÒºÀ/.iotlink/sdk/IoT_LINK/iot_link/stimer\stimer.c ****     }
 923              		.loc 1 320 9 is_stmt 1 view .LVU247
 320:C:/Users/²Ü¼ÒºÀ/.iotlink/sdk/IoT_LINK/iot_link/stimer\stimer.c ****     }
 924              		.loc 1 320 28 is_stmt 0 view .LVU248
 925 004e FFF7FEFF 		bl	osal_sys_time
 926              	.LVL73:
 320:C:/Users/²Ü¼ÒºÀ/.iotlink/sdk/IoT_LINK/iot_link/stimer\stimer.c ****     }
 927              		.loc 1 320 50 view .LVU249
 928 0052 6368     		ldr	r3, [r4, #4]
 320:C:/Users/²Ü¼ÒºÀ/.iotlink/sdk/IoT_LINK/iot_link/stimer\stimer.c ****     }
 929              		.loc 1 320 44 view .LVU250
 930 0054 C018     		adds	r0, r0, r3
 931 0056 41F10001 		adc	r1, r1, #0
 320:C:/Users/²Ü¼ÒºÀ/.iotlink/sdk/IoT_LINK/iot_link/stimer\stimer.c ****     }
 932              		.loc 1 320 26 view .LVU251
 933 005a C4E90601 		strd	r0, [r4, #24]
 934              	.L78:
 327:C:/Users/²Ü¼ÒºÀ/.iotlink/sdk/IoT_LINK/iot_link/stimer\stimer.c ****     {
 935              		.loc 1 327 5 is_stmt 1 view .LVU252
 327:C:/Users/²Ü¼ÒºÀ/.iotlink/sdk/IoT_LINK/iot_link/stimer\stimer.c ****     {
 936              		.loc 1 327 16 is_stmt 0 view .LVU253
 937 005e 0F4D     		ldr	r5, .L87
 938              	.LVL74:
 327:C:/Users/²Ü¼ÒºÀ/.iotlink/sdk/IoT_LINK/iot_link/stimer\stimer.c ****     {
 939              		.loc 1 327 16 view .LVU254
 940 0060 6868     		ldr	r0, [r5, #4]
 941 0062 FFF7FEFF 		bl	osal_mutex_lock
 942              	.LVL75:
 327:C:/Users/²Ü¼ÒºÀ/.iotlink/sdk/IoT_LINK/iot_link/stimer\stimer.c ****     {
 943              		.loc 1 327 7 view .LVU255
 944 0066 0128     		cmp	r0, #1
 329:C:/Users/²Ü¼ÒºÀ/.iotlink/sdk/IoT_LINK/iot_link/stimer\stimer.c ****         (void) osal_mutex_unlock(s_stimer_cb.mutex);
 945              		.loc 1 329 9 view .LVU256
 946 0068 2046     		mov	r0, r4
 327:C:/Users/²Ü¼ÒºÀ/.iotlink/sdk/IoT_LINK/iot_link/stimer\stimer.c ****     {
 947              		.loc 1 327 7 view .LVU257
 948 006a 13D1     		bne	.L79
 949              	.LVL76:
 329:C:/Users/²Ü¼ÒºÀ/.iotlink/sdk/IoT_LINK/iot_link/stimer\stimer.c ****         (void) osal_mutex_unlock(s_stimer_cb.mutex);
 950              		.loc 1 329 9 is_stmt 1 view .LVU258
 951 006c FFF7FEFF 		bl	timer_add
 952              	.LVL77:
ARM GAS  C:\Users\²Ü¼ÒºÀ\AppData\Local\Temp\ccUTRmBj.s 			page 29


 330:C:/Users/²Ü¼ÒºÀ/.iotlink/sdk/IoT_LINK/iot_link/stimer\stimer.c ****         (void) osal_semp_post(s_stimer_cb.semp);
 953              		.loc 1 330 9 view .LVU259
 330:C:/Users/²Ü¼ÒºÀ/.iotlink/sdk/IoT_LINK/iot_link/stimer\stimer.c ****         (void) osal_semp_post(s_stimer_cb.semp);
 954              		.loc 1 330 16 is_stmt 0 view .LVU260
 955 0070 6868     		ldr	r0, [r5, #4]
 956              	.LVL78:
 330:C:/Users/²Ü¼ÒºÀ/.iotlink/sdk/IoT_LINK/iot_link/stimer\stimer.c ****         (void) osal_semp_post(s_stimer_cb.semp);
 957              		.loc 1 330 16 view .LVU261
 958 0072 FFF7FEFF 		bl	osal_mutex_unlock
 959              	.LVL79:
 331:C:/Users/²Ü¼ÒºÀ/.iotlink/sdk/IoT_LINK/iot_link/stimer\stimer.c ****     }
 960              		.loc 1 331 9 is_stmt 1 view .LVU262
 331:C:/Users/²Ü¼ÒºÀ/.iotlink/sdk/IoT_LINK/iot_link/stimer\stimer.c ****     }
 961              		.loc 1 331 16 is_stmt 0 view .LVU263
 962 0076 2868     		ldr	r0, [r5]
 963 0078 FFF7FEFF 		bl	osal_semp_post
 964              	.LVL80:
 965              	.L73:
 340:C:/Users/²Ü¼ÒºÀ/.iotlink/sdk/IoT_LINK/iot_link/stimer\stimer.c **** 
 966              		.loc 1 340 1 view .LVU264
 967 007c 2046     		mov	r0, r4
 968 007e BDE8F883 		pop	{r3, r4, r5, r6, r7, r8, r9, pc}
 969              	.LVL81:
 970              	.L80:
 294:C:/Users/²Ü¼ÒºÀ/.iotlink/sdk/IoT_LINK/iot_link/stimer\stimer.c **** 
 971              		.loc 1 294 13 view .LVU265
 972 0082 2820     		movs	r0, #40
 973              	.LVL82:
 294:C:/Users/²Ü¼ÒºÀ/.iotlink/sdk/IoT_LINK/iot_link/stimer\stimer.c **** 
 974              		.loc 1 294 13 view .LVU266
 975 0084 C8E7     		b	.L74
 976              	.LVL83:
 977              	.L77:
 324:C:/Users/²Ü¼ÒºÀ/.iotlink/sdk/IoT_LINK/iot_link/stimer\stimer.c ****     }
 978              		.loc 1 324 9 is_stmt 1 view .LVU267
 324:C:/Users/²Ü¼ÒºÀ/.iotlink/sdk/IoT_LINK/iot_link/stimer\stimer.c ****     }
 979              		.loc 1 324 25 is_stmt 0 view .LVU268
 980 0086 4FF0FF32 		mov	r2, #-1
 981 008a 6FF00043 		mvn	r3, #-2147483648
 982 008e C4E90623 		strd	r2, [r4, #24]
 983 0092 E4E7     		b	.L78
 984              	.LVL84:
 985              	.L79:
 335:C:/Users/²Ü¼ÒºÀ/.iotlink/sdk/IoT_LINK/iot_link/stimer\stimer.c ****         item = NULL;
 986              		.loc 1 335 9 is_stmt 1 view .LVU269
 987 0094 FFF7FEFF 		bl	osal_free
 988              	.LVL85:
 336:C:/Users/²Ü¼ÒºÀ/.iotlink/sdk/IoT_LINK/iot_link/stimer\stimer.c ****     }
 989              		.loc 1 336 9 view .LVU270
 336:C:/Users/²Ü¼ÒºÀ/.iotlink/sdk/IoT_LINK/iot_link/stimer\stimer.c ****     }
 990              		.loc 1 336 14 is_stmt 0 view .LVU271
 991 0098 0024     		movs	r4, #0
 992              	.LVL86:
 336:C:/Users/²Ü¼ÒºÀ/.iotlink/sdk/IoT_LINK/iot_link/stimer\stimer.c ****     }
 993              		.loc 1 336 14 view .LVU272
 994 009a EFE7     		b	.L73
 995              	.L88:
ARM GAS  C:\Users\²Ü¼ÒºÀ\AppData\Local\Temp\ccUTRmBj.s 			page 30


 996              		.align	2
 997              	.L87:
 998 009c 00000000 		.word	.LANCHOR0
 999              		.cfi_endproc
 1000              	.LFE9:
 1002              		.section	.text.stimer_delete,"ax",%progbits
 1003              		.align	1
 1004              		.global	stimer_delete
 1005              		.syntax unified
 1006              		.thumb
 1007              		.thumb_func
 1008              		.fpu fpv4-sp-d16
 1010              	stimer_delete:
 1011              	.LVL87:
 1012              	.LFB10:
 343:C:/Users/²Ü¼ÒºÀ/.iotlink/sdk/IoT_LINK/iot_link/stimer\stimer.c ****     int32_t ret = -1;
 1013              		.loc 1 343 1 is_stmt 1 view -0
 1014              		.cfi_startproc
 1015              		@ args = 0, pretend = 0, frame = 0
 1016              		@ frame_needed = 0, uses_anonymous_args = 0
 344:C:/Users/²Ü¼ÒºÀ/.iotlink/sdk/IoT_LINK/iot_link/stimer\stimer.c **** 
 1017              		.loc 1 344 5 view .LVU274
 346:C:/Users/²Ü¼ÒºÀ/.iotlink/sdk/IoT_LINK/iot_link/stimer\stimer.c ****     {
 1018              		.loc 1 346 5 view .LVU275
 343:C:/Users/²Ü¼ÒºÀ/.iotlink/sdk/IoT_LINK/iot_link/stimer\stimer.c ****     int32_t ret = -1;
 1019              		.loc 1 343 1 is_stmt 0 view .LVU276
 1020 0000 38B5     		push	{r3, r4, r5, lr}
 1021              	.LCFI10:
 1022              		.cfi_def_cfa_offset 16
 1023              		.cfi_offset 3, -16
 1024              		.cfi_offset 4, -12
 1025              		.cfi_offset 5, -8
 1026              		.cfi_offset 14, -4
 346:C:/Users/²Ü¼ÒºÀ/.iotlink/sdk/IoT_LINK/iot_link/stimer\stimer.c ****     {
 1027              		.loc 1 346 16 view .LVU277
 1028 0002 0C4D     		ldr	r5, .L92
 343:C:/Users/²Ü¼ÒºÀ/.iotlink/sdk/IoT_LINK/iot_link/stimer\stimer.c ****     int32_t ret = -1;
 1029              		.loc 1 343 1 view .LVU278
 1030 0004 0446     		mov	r4, r0
 346:C:/Users/²Ü¼ÒºÀ/.iotlink/sdk/IoT_LINK/iot_link/stimer\stimer.c ****     {
 1031              		.loc 1 346 16 view .LVU279
 1032 0006 6868     		ldr	r0, [r5, #4]
 1033              	.LVL88:
 346:C:/Users/²Ü¼ÒºÀ/.iotlink/sdk/IoT_LINK/iot_link/stimer\stimer.c ****     {
 1034              		.loc 1 346 16 view .LVU280
 1035 0008 FFF7FEFF 		bl	osal_mutex_lock
 1036              	.LVL89:
 346:C:/Users/²Ü¼ÒºÀ/.iotlink/sdk/IoT_LINK/iot_link/stimer\stimer.c ****     {
 1037              		.loc 1 346 7 view .LVU281
 1038 000c 0128     		cmp	r0, #1
 1039 000e 0DD1     		bne	.L91
 348:C:/Users/²Ü¼ÒºÀ/.iotlink/sdk/IoT_LINK/iot_link/stimer\stimer.c ****         (void) osal_mutex_unlock(s_stimer_cb.mutex);
 1040              		.loc 1 348 9 is_stmt 1 view .LVU282
 1041 0010 2046     		mov	r0, r4
 1042 0012 FFF7FEFF 		bl	timer_remove
 1043              	.LVL90:
 349:C:/Users/²Ü¼ÒºÀ/.iotlink/sdk/IoT_LINK/iot_link/stimer\stimer.c ****         osal_free(timer);
ARM GAS  C:\Users\²Ü¼ÒºÀ\AppData\Local\Temp\ccUTRmBj.s 			page 31


 1044              		.loc 1 349 9 view .LVU283
 349:C:/Users/²Ü¼ÒºÀ/.iotlink/sdk/IoT_LINK/iot_link/stimer\stimer.c ****         osal_free(timer);
 1045              		.loc 1 349 16 is_stmt 0 view .LVU284
 1046 0016 6868     		ldr	r0, [r5, #4]
 1047 0018 FFF7FEFF 		bl	osal_mutex_unlock
 1048              	.LVL91:
 350:C:/Users/²Ü¼ÒºÀ/.iotlink/sdk/IoT_LINK/iot_link/stimer\stimer.c ****         (void) osal_semp_post(s_stimer_cb.semp);
 1049              		.loc 1 350 9 is_stmt 1 view .LVU285
 1050 001c 2046     		mov	r0, r4
 1051 001e FFF7FEFF 		bl	osal_free
 1052              	.LVL92:
 351:C:/Users/²Ü¼ÒºÀ/.iotlink/sdk/IoT_LINK/iot_link/stimer\stimer.c ****         ret = 0;
 1053              		.loc 1 351 9 view .LVU286
 351:C:/Users/²Ü¼ÒºÀ/.iotlink/sdk/IoT_LINK/iot_link/stimer\stimer.c ****         ret = 0;
 1054              		.loc 1 351 16 is_stmt 0 view .LVU287
 1055 0022 2868     		ldr	r0, [r5]
 1056 0024 FFF7FEFF 		bl	osal_semp_post
 1057              	.LVL93:
 352:C:/Users/²Ü¼ÒºÀ/.iotlink/sdk/IoT_LINK/iot_link/stimer\stimer.c ****     }
 1058              		.loc 1 352 9 is_stmt 1 view .LVU288
 352:C:/Users/²Ü¼ÒºÀ/.iotlink/sdk/IoT_LINK/iot_link/stimer\stimer.c ****     }
 1059              		.loc 1 352 13 is_stmt 0 view .LVU289
 1060 0028 0020     		movs	r0, #0
 1061              	.LVL94:
 1062              	.L89:
 356:C:/Users/²Ü¼ÒºÀ/.iotlink/sdk/IoT_LINK/iot_link/stimer\stimer.c **** 
 1063              		.loc 1 356 1 view .LVU290
 1064 002a 38BD     		pop	{r3, r4, r5, pc}
 1065              	.LVL95:
 1066              	.L91:
 344:C:/Users/²Ü¼ÒºÀ/.iotlink/sdk/IoT_LINK/iot_link/stimer\stimer.c **** 
 1067              		.loc 1 344 13 view .LVU291
 1068 002c 4FF0FF30 		mov	r0, #-1
 355:C:/Users/²Ü¼ÒºÀ/.iotlink/sdk/IoT_LINK/iot_link/stimer\stimer.c **** }
 1069              		.loc 1 355 5 is_stmt 1 view .LVU292
 355:C:/Users/²Ü¼ÒºÀ/.iotlink/sdk/IoT_LINK/iot_link/stimer\stimer.c **** }
 1070              		.loc 1 355 12 is_stmt 0 view .LVU293
 1071 0030 FBE7     		b	.L89
 1072              	.L93:
 1073 0032 00BF     		.align	2
 1074              	.L92:
 1075 0034 00000000 		.word	.LANCHOR0
 1076              		.cfi_endproc
 1077              	.LFE10:
 1079              		.section	.text.stimer_ioctl,"ax",%progbits
 1080              		.align	1
 1081              		.global	stimer_ioctl
 1082              		.syntax unified
 1083              		.thumb
 1084              		.thumb_func
 1085              		.fpu fpv4-sp-d16
 1087              	stimer_ioctl:
 1088              	.LVL96:
 1089              	.LFB11:
 359:C:/Users/²Ü¼ÒºÀ/.iotlink/sdk/IoT_LINK/iot_link/stimer\stimer.c ****     int32_t ret = -1;
 1090              		.loc 1 359 1 is_stmt 1 view -0
 1091              		.cfi_startproc
ARM GAS  C:\Users\²Ü¼ÒºÀ\AppData\Local\Temp\ccUTRmBj.s 			page 32


 1092              		@ args = 0, pretend = 0, frame = 0
 1093              		@ frame_needed = 0, uses_anonymous_args = 0
 360:C:/Users/²Ü¼ÒºÀ/.iotlink/sdk/IoT_LINK/iot_link/stimer\stimer.c **** 
 1094              		.loc 1 360 5 view .LVU295
 362:C:/Users/²Ü¼ÒºÀ/.iotlink/sdk/IoT_LINK/iot_link/stimer\stimer.c ****     if(NULL == timer)
 1095              		.loc 1 362 5 view .LVU296
 363:C:/Users/²Ü¼ÒºÀ/.iotlink/sdk/IoT_LINK/iot_link/stimer\stimer.c ****     {
 1096              		.loc 1 363 5 view .LVU297
 359:C:/Users/²Ü¼ÒºÀ/.iotlink/sdk/IoT_LINK/iot_link/stimer\stimer.c ****     int32_t ret = -1;
 1097              		.loc 1 359 1 is_stmt 0 view .LVU298
 1098 0000 F8B5     		push	{r3, r4, r5, r6, r7, lr}
 1099              	.LCFI11:
 1100              		.cfi_def_cfa_offset 24
 1101              		.cfi_offset 3, -24
 1102              		.cfi_offset 4, -20
 1103              		.cfi_offset 5, -16
 1104              		.cfi_offset 6, -12
 1105              		.cfi_offset 7, -8
 1106              		.cfi_offset 14, -4
 359:C:/Users/²Ü¼ÒºÀ/.iotlink/sdk/IoT_LINK/iot_link/stimer\stimer.c ****     int32_t ret = -1;
 1107              		.loc 1 359 1 view .LVU299
 1108 0002 0F46     		mov	r7, r1
 1109 0004 1546     		mov	r5, r2
 363:C:/Users/²Ü¼ÒºÀ/.iotlink/sdk/IoT_LINK/iot_link/stimer\stimer.c ****     {
 1110              		.loc 1 363 7 view .LVU300
 1111 0006 0446     		mov	r4, r0
 1112 0008 18B9     		cbnz	r0, .L95
 1113              	.LVL97:
 1114              	.L97:
 365:C:/Users/²Ü¼ÒºÀ/.iotlink/sdk/IoT_LINK/iot_link/stimer\stimer.c ****     }
 1115              		.loc 1 365 16 view .LVU301
 1116 000a 4FF0FF35 		mov	r5, #-1
 1117              	.LVL98:
 1118              	.L94:
 419:C:/Users/²Ü¼ÒºÀ/.iotlink/sdk/IoT_LINK/iot_link/stimer\stimer.c **** 
 1119              		.loc 1 419 1 view .LVU302
 1120 000e 2846     		mov	r0, r5
 1121 0010 F8BD     		pop	{r3, r4, r5, r6, r7, pc}
 1122              	.LVL99:
 1123              	.L95:
 368:C:/Users/²Ü¼ÒºÀ/.iotlink/sdk/IoT_LINK/iot_link/stimer\stimer.c ****     if(true == osal_mutex_lock(s_stimer_cb.mutex))
 1124              		.loc 1 368 5 is_stmt 1 view .LVU303
 369:C:/Users/²Ü¼ÒºÀ/.iotlink/sdk/IoT_LINK/iot_link/stimer\stimer.c ****     {
 1125              		.loc 1 369 5 view .LVU304
 369:C:/Users/²Ü¼ÒºÀ/.iotlink/sdk/IoT_LINK/iot_link/stimer\stimer.c ****     {
 1126              		.loc 1 369 16 is_stmt 0 view .LVU305
 1127 0012 2D4E     		ldr	r6, .L112
 1128 0014 7068     		ldr	r0, [r6, #4]
 1129              	.LVL100:
 369:C:/Users/²Ü¼ÒºÀ/.iotlink/sdk/IoT_LINK/iot_link/stimer\stimer.c ****     {
 1130              		.loc 1 369 16 view .LVU306
 1131 0016 FFF7FEFF 		bl	osal_mutex_lock
 1132              	.LVL101:
 369:C:/Users/²Ü¼ÒºÀ/.iotlink/sdk/IoT_LINK/iot_link/stimer\stimer.c ****     {
 1133              		.loc 1 369 7 view .LVU307
 1134 001a 0128     		cmp	r0, #1
 1135 001c F5D1     		bne	.L97
ARM GAS  C:\Users\²Ü¼ÒºÀ\AppData\Local\Temp\ccUTRmBj.s 			page 33


 371:C:/Users/²Ü¼ÒºÀ/.iotlink/sdk/IoT_LINK/iot_link/stimer\stimer.c ****         {
 1136              		.loc 1 371 9 is_stmt 1 view .LVU308
 1137 001e 032F     		cmp	r7, #3
 1138 0020 4FD8     		bhi	.L106
 1139 0022 DFE807F0 		tbb	[pc, r7]
 1140              	.L100:
 1141 0026 0B       		.byte	(.L103-.L100)/2
 1142 0027 24       		.byte	(.L102-.L100)/2
 1143 0028 02       		.byte	(.L101-.L100)/2
 1144 0029 36       		.byte	(.L99-.L100)/2
 1145              		.p2align 1
 1146              	.L101:
 374:C:/Users/²Ü¼ÒºÀ/.iotlink/sdk/IoT_LINK/iot_link/stimer\stimer.c ****                 {
 1147              		.loc 1 374 17 view .LVU309
 374:C:/Users/²Ü¼ÒºÀ/.iotlink/sdk/IoT_LINK/iot_link/stimer\stimer.c ****                 {
 1148              		.loc 1 374 19 is_stmt 0 view .LVU310
 1149 002a 002D     		cmp	r5, #0
 1150 002c 49D0     		beq	.L106
 376:C:/Users/²Ü¼ÒºÀ/.iotlink/sdk/IoT_LINK/iot_link/stimer\stimer.c ****                     ret = 0;
 1151              		.loc 1 376 21 is_stmt 1 view .LVU311
 376:C:/Users/²Ü¼ÒºÀ/.iotlink/sdk/IoT_LINK/iot_link/stimer\stimer.c ****                     ret = 0;
 1152              		.loc 1 376 55 is_stmt 0 view .LVU312
 1153 002e A469     		ldr	r4, [r4, #24]
 1154              	.LVL102:
 376:C:/Users/²Ü¼ÒºÀ/.iotlink/sdk/IoT_LINK/iot_link/stimer\stimer.c ****                     ret = 0;
 1155              		.loc 1 376 57 view .LVU313
 1156 0030 FFF7FEFF 		bl	osal_sys_time
 1157              	.LVL103:
 376:C:/Users/²Ü¼ÒºÀ/.iotlink/sdk/IoT_LINK/iot_link/stimer\stimer.c ****                     ret = 0;
 1158              		.loc 1 376 55 view .LVU314
 1159 0034 201A     		subs	r0, r4, r0
 376:C:/Users/²Ü¼ÒºÀ/.iotlink/sdk/IoT_LINK/iot_link/stimer\stimer.c ****                     ret = 0;
 1160              		.loc 1 376 38 view .LVU315
 1161 0036 2860     		str	r0, [r5]
 377:C:/Users/²Ü¼ÒºÀ/.iotlink/sdk/IoT_LINK/iot_link/stimer\stimer.c ****                 }
 1162              		.loc 1 377 21 is_stmt 1 view .LVU316
 1163              	.LVL104:
 1164              	.L110:
 408:C:/Users/²Ü¼ÒºÀ/.iotlink/sdk/IoT_LINK/iot_link/stimer\stimer.c ****                 break;
 1165              		.loc 1 408 17 view .LVU317
 409:C:/Users/²Ü¼ÒºÀ/.iotlink/sdk/IoT_LINK/iot_link/stimer\stimer.c ****             default:
 1166              		.loc 1 409 17 view .LVU318
 408:C:/Users/²Ü¼ÒºÀ/.iotlink/sdk/IoT_LINK/iot_link/stimer\stimer.c ****                 break;
 1167              		.loc 1 408 21 is_stmt 0 view .LVU319
 1168 0038 0025     		movs	r5, #0
 409:C:/Users/²Ü¼ÒºÀ/.iotlink/sdk/IoT_LINK/iot_link/stimer\stimer.c ****             default:
 1169              		.loc 1 409 17 view .LVU320
 1170 003a 14E0     		b	.L98
 1171              	.LVL105:
 1172              	.L103:
 381:C:/Users/²Ü¼ÒºÀ/.iotlink/sdk/IoT_LINK/iot_link/stimer\stimer.c ****                 item->nxt = NULL;
 1173              		.loc 1 381 17 is_stmt 1 view .LVU321
 1174 003c 2046     		mov	r0, r4
 1175 003e FFF7FEFF 		bl	timer_remove
 1176              	.LVL106:
 382:C:/Users/²Ü¼ÒºÀ/.iotlink/sdk/IoT_LINK/iot_link/stimer\stimer.c ****                 item->flag &= (~cn_stimer_flag_start);
 1177              		.loc 1 382 17 view .LVU322
ARM GAS  C:\Users\²Ü¼ÒºÀ\AppData\Local\Temp\ccUTRmBj.s 			page 34


 383:C:/Users/²Ü¼ÒºÀ/.iotlink/sdk/IoT_LINK/iot_link/stimer\stimer.c ****                 item->dead_time = cn_stimer_dead_max;
 1178              		.loc 1 383 28 is_stmt 0 view .LVU323
 1179 0042 A368     		ldr	r3, [r4, #8]
 1180 0044 23F00203 		bic	r3, r3, #2
 1181 0048 A360     		str	r3, [r4, #8]
 384:C:/Users/²Ü¼ÒºÀ/.iotlink/sdk/IoT_LINK/iot_link/stimer\stimer.c ****                 timer_add(item);
 1182              		.loc 1 384 33 view .LVU324
 1183 004a 4FF0FF32 		mov	r2, #-1
 1184 004e 6FF00043 		mvn	r3, #-2147483648
 1185 0052 C4E90623 		strd	r2, [r4, #24]
 382:C:/Users/²Ü¼ÒºÀ/.iotlink/sdk/IoT_LINK/iot_link/stimer\stimer.c ****                 item->flag &= (~cn_stimer_flag_start);
 1186              		.loc 1 382 27 view .LVU325
 1187 0056 0025     		movs	r5, #0
 1188              	.LVL107:
 382:C:/Users/²Ü¼ÒºÀ/.iotlink/sdk/IoT_LINK/iot_link/stimer\stimer.c ****                 item->flag &= (~cn_stimer_flag_start);
 1189              		.loc 1 382 27 view .LVU326
 1190 0058 2562     		str	r5, [r4, #32]
 383:C:/Users/²Ü¼ÒºÀ/.iotlink/sdk/IoT_LINK/iot_link/stimer\stimer.c ****                 item->dead_time = cn_stimer_dead_max;
 1191              		.loc 1 383 17 is_stmt 1 view .LVU327
 384:C:/Users/²Ü¼ÒºÀ/.iotlink/sdk/IoT_LINK/iot_link/stimer\stimer.c ****                 timer_add(item);
 1192              		.loc 1 384 17 view .LVU328
 385:C:/Users/²Ü¼ÒºÀ/.iotlink/sdk/IoT_LINK/iot_link/stimer\stimer.c ****                 (void) osal_semp_post(s_stimer_cb.semp);
 1193              		.loc 1 385 17 view .LVU329
 1194              	.L111:
 394:C:/Users/²Ü¼ÒºÀ/.iotlink/sdk/IoT_LINK/iot_link/stimer\stimer.c ****                 (void) osal_semp_post(s_stimer_cb.semp);
 1195              		.loc 1 394 17 view .LVU330
 1196 005a 2046     		mov	r0, r4
 1197 005c FFF7FEFF 		bl	timer_add
 1198              	.LVL108:
 395:C:/Users/²Ü¼ÒºÀ/.iotlink/sdk/IoT_LINK/iot_link/stimer\stimer.c ****                 ret = 0;
 1199              		.loc 1 395 17 view .LVU331
 395:C:/Users/²Ü¼ÒºÀ/.iotlink/sdk/IoT_LINK/iot_link/stimer\stimer.c ****                 ret = 0;
 1200              		.loc 1 395 24 is_stmt 0 view .LVU332
 1201 0060 3068     		ldr	r0, [r6]
 1202 0062 FFF7FEFF 		bl	osal_semp_post
 1203              	.LVL109:
 396:C:/Users/²Ü¼ÒºÀ/.iotlink/sdk/IoT_LINK/iot_link/stimer\stimer.c ****                 break;
 1204              		.loc 1 396 17 is_stmt 1 view .LVU333
 397:C:/Users/²Ü¼ÒºÀ/.iotlink/sdk/IoT_LINK/iot_link/stimer\stimer.c ****             case en_stimer_opt_recycle:
 1205              		.loc 1 397 17 view .LVU334
 1206              	.L98:
 414:C:/Users/²Ü¼ÒºÀ/.iotlink/sdk/IoT_LINK/iot_link/stimer\stimer.c ****     }
 1207              		.loc 1 414 9 view .LVU335
 414:C:/Users/²Ü¼ÒºÀ/.iotlink/sdk/IoT_LINK/iot_link/stimer\stimer.c ****     }
 1208              		.loc 1 414 16 is_stmt 0 view .LVU336
 1209 0066 7068     		ldr	r0, [r6, #4]
 1210 0068 FFF7FEFF 		bl	osal_mutex_unlock
 1211              	.LVL110:
 414:C:/Users/²Ü¼ÒºÀ/.iotlink/sdk/IoT_LINK/iot_link/stimer\stimer.c ****     }
 1212              		.loc 1 414 16 view .LVU337
 1213 006c CFE7     		b	.L94
 1214              	.LVL111:
 1215              	.L102:
 390:C:/Users/²Ü¼ÒºÀ/.iotlink/sdk/IoT_LINK/iot_link/stimer\stimer.c ****                 item->nxt = NULL;
 1216              		.loc 1 390 17 is_stmt 1 view .LVU338
 1217 006e 2046     		mov	r0, r4
 1218 0070 FFF7FEFF 		bl	timer_remove
ARM GAS  C:\Users\²Ü¼ÒºÀ\AppData\Local\Temp\ccUTRmBj.s 			page 35


 1219              	.LVL112:
 391:C:/Users/²Ü¼ÒºÀ/.iotlink/sdk/IoT_LINK/iot_link/stimer\stimer.c ****                 item->flag |= cn_stimer_flag_start;
 1220              		.loc 1 391 17 view .LVU339
 392:C:/Users/²Ü¼ÒºÀ/.iotlink/sdk/IoT_LINK/iot_link/stimer\stimer.c ****                 item->dead_time = item->cycle + osal_sys_time();
 1221              		.loc 1 392 28 is_stmt 0 view .LVU340
 1222 0074 A368     		ldr	r3, [r4, #8]
 393:C:/Users/²Ü¼ÒºÀ/.iotlink/sdk/IoT_LINK/iot_link/stimer\stimer.c ****                 timer_add(item);
 1223              		.loc 1 393 39 view .LVU341
 1224 0076 6768     		ldr	r7, [r4, #4]
 391:C:/Users/²Ü¼ÒºÀ/.iotlink/sdk/IoT_LINK/iot_link/stimer\stimer.c ****                 item->flag |= cn_stimer_flag_start;
 1225              		.loc 1 391 27 view .LVU342
 1226 0078 0025     		movs	r5, #0
 1227              	.LVL113:
 392:C:/Users/²Ü¼ÒºÀ/.iotlink/sdk/IoT_LINK/iot_link/stimer\stimer.c ****                 item->dead_time = item->cycle + osal_sys_time();
 1228              		.loc 1 392 28 view .LVU343
 1229 007a 43F00203 		orr	r3, r3, #2
 391:C:/Users/²Ü¼ÒºÀ/.iotlink/sdk/IoT_LINK/iot_link/stimer\stimer.c ****                 item->flag |= cn_stimer_flag_start;
 1230              		.loc 1 391 27 view .LVU344
 1231 007e 2562     		str	r5, [r4, #32]
 392:C:/Users/²Ü¼ÒºÀ/.iotlink/sdk/IoT_LINK/iot_link/stimer\stimer.c ****                 item->dead_time = item->cycle + osal_sys_time();
 1232              		.loc 1 392 17 is_stmt 1 view .LVU345
 392:C:/Users/²Ü¼ÒºÀ/.iotlink/sdk/IoT_LINK/iot_link/stimer\stimer.c ****                 item->dead_time = item->cycle + osal_sys_time();
 1233              		.loc 1 392 28 is_stmt 0 view .LVU346
 1234 0080 A360     		str	r3, [r4, #8]
 393:C:/Users/²Ü¼ÒºÀ/.iotlink/sdk/IoT_LINK/iot_link/stimer\stimer.c ****                 timer_add(item);
 1235              		.loc 1 393 17 is_stmt 1 view .LVU347
 393:C:/Users/²Ü¼ÒºÀ/.iotlink/sdk/IoT_LINK/iot_link/stimer\stimer.c ****                 timer_add(item);
 1236              		.loc 1 393 49 is_stmt 0 view .LVU348
 1237 0082 FFF7FEFF 		bl	osal_sys_time
 1238              	.LVL114:
 393:C:/Users/²Ü¼ÒºÀ/.iotlink/sdk/IoT_LINK/iot_link/stimer\stimer.c ****                 timer_add(item);
 1239              		.loc 1 393 47 view .LVU349
 1240 0086 3818     		adds	r0, r7, r0
 1241 0088 45EB0101 		adc	r1, r5, r1
 393:C:/Users/²Ü¼ÒºÀ/.iotlink/sdk/IoT_LINK/iot_link/stimer\stimer.c ****                 timer_add(item);
 1242              		.loc 1 393 33 view .LVU350
 1243 008c C4E90601 		strd	r0, r1, [r4, #24]
 1244 0090 E3E7     		b	.L111
 1245              	.LVL115:
 1246              	.L99:
 399:C:/Users/²Ü¼ÒºÀ/.iotlink/sdk/IoT_LINK/iot_link/stimer\stimer.c ****                 item->nxt = NULL;
 1247              		.loc 1 399 17 is_stmt 1 view .LVU351
 1248 0092 2046     		mov	r0, r4
 1249 0094 FFF7FEFF 		bl	timer_remove
 1250              	.LVL116:
 400:C:/Users/²Ü¼ÒºÀ/.iotlink/sdk/IoT_LINK/iot_link/stimer\stimer.c ****                 item->cycle = *(uint32_t *)arg;
 1251              		.loc 1 400 17 view .LVU352
 400:C:/Users/²Ü¼ÒºÀ/.iotlink/sdk/IoT_LINK/iot_link/stimer\stimer.c ****                 item->cycle = *(uint32_t *)arg;
 1252              		.loc 1 400 27 is_stmt 0 view .LVU353
 1253 0098 0023     		movs	r3, #0
 1254 009a 2362     		str	r3, [r4, #32]
 401:C:/Users/²Ü¼ÒºÀ/.iotlink/sdk/IoT_LINK/iot_link/stimer\stimer.c ****                 if(item->flag & cn_stimer_flag_start)
 1255              		.loc 1 401 17 is_stmt 1 view .LVU354
 402:C:/Users/²Ü¼ÒºÀ/.iotlink/sdk/IoT_LINK/iot_link/stimer\stimer.c ****                 {
 1256              		.loc 1 402 31 is_stmt 0 view .LVU355
 1257 009c A368     		ldr	r3, [r4, #8]
 401:C:/Users/²Ü¼ÒºÀ/.iotlink/sdk/IoT_LINK/iot_link/stimer\stimer.c ****                 if(item->flag & cn_stimer_flag_start)
ARM GAS  C:\Users\²Ü¼ÒºÀ\AppData\Local\Temp\ccUTRmBj.s 			page 36


 1258              		.loc 1 401 31 view .LVU356
 1259 009e 2D68     		ldr	r5, [r5]
 1260              	.LVL117:
 401:C:/Users/²Ü¼ÒºÀ/.iotlink/sdk/IoT_LINK/iot_link/stimer\stimer.c ****                 if(item->flag & cn_stimer_flag_start)
 1261              		.loc 1 401 29 view .LVU357
 1262 00a0 6560     		str	r5, [r4, #4]
 402:C:/Users/²Ü¼ÒºÀ/.iotlink/sdk/IoT_LINK/iot_link/stimer\stimer.c ****                 {
 1263              		.loc 1 402 17 is_stmt 1 view .LVU358
 402:C:/Users/²Ü¼ÒºÀ/.iotlink/sdk/IoT_LINK/iot_link/stimer\stimer.c ****                 {
 1264              		.loc 1 402 19 is_stmt 0 view .LVU359
 1265 00a2 9B07     		lsls	r3, r3, #30
 1266 00a4 06D5     		bpl	.L104
 1267              	.LVL118:
 404:C:/Users/²Ü¼ÒºÀ/.iotlink/sdk/IoT_LINK/iot_link/stimer\stimer.c ****                 }
 1268              		.loc 1 404 21 is_stmt 1 view .LVU360
 404:C:/Users/²Ü¼ÒºÀ/.iotlink/sdk/IoT_LINK/iot_link/stimer\stimer.c ****                 }
 1269              		.loc 1 404 53 is_stmt 0 view .LVU361
 1270 00a6 FFF7FEFF 		bl	osal_sys_time
 1271              	.LVL119:
 404:C:/Users/²Ü¼ÒºÀ/.iotlink/sdk/IoT_LINK/iot_link/stimer\stimer.c ****                 }
 1272              		.loc 1 404 51 view .LVU362
 1273 00aa 4019     		adds	r0, r0, r5
 1274 00ac 41F10001 		adc	r1, r1, #0
 404:C:/Users/²Ü¼ÒºÀ/.iotlink/sdk/IoT_LINK/iot_link/stimer\stimer.c ****                 }
 1275              		.loc 1 404 37 view .LVU363
 1276 00b0 C4E90601 		strd	r0, [r4, #24]
 1277              	.L104:
 406:C:/Users/²Ü¼ÒºÀ/.iotlink/sdk/IoT_LINK/iot_link/stimer\stimer.c ****                 (void) osal_semp_post(s_stimer_cb.semp);
 1278              		.loc 1 406 17 is_stmt 1 view .LVU364
 1279 00b4 2046     		mov	r0, r4
 1280 00b6 FFF7FEFF 		bl	timer_add
 1281              	.LVL120:
 407:C:/Users/²Ü¼ÒºÀ/.iotlink/sdk/IoT_LINK/iot_link/stimer\stimer.c ****                 ret = 0;
 1282              		.loc 1 407 17 view .LVU365
 407:C:/Users/²Ü¼ÒºÀ/.iotlink/sdk/IoT_LINK/iot_link/stimer\stimer.c ****                 ret = 0;
 1283              		.loc 1 407 24 is_stmt 0 view .LVU366
 1284 00ba 3068     		ldr	r0, [r6]
 1285 00bc FFF7FEFF 		bl	osal_semp_post
 1286              	.LVL121:
 1287 00c0 BAE7     		b	.L110
 1288              	.LVL122:
 1289              	.L106:
 360:C:/Users/²Ü¼ÒºÀ/.iotlink/sdk/IoT_LINK/iot_link/stimer\stimer.c **** 
 1290              		.loc 1 360 13 view .LVU367
 1291 00c2 4FF0FF35 		mov	r5, #-1
 1292              	.LVL123:
 360:C:/Users/²Ü¼ÒºÀ/.iotlink/sdk/IoT_LINK/iot_link/stimer\stimer.c **** 
 1293              		.loc 1 360 13 view .LVU368
 1294 00c6 CEE7     		b	.L98
 1295              	.L113:
 1296              		.align	2
 1297              	.L112:
 1298 00c8 00000000 		.word	.LANCHOR0
 1299              		.cfi_endproc
 1300              	.LFE11:
 1302              		.section	.rodata.str1.1,"aMS",%progbits,1
 1303              	.LC14:
ARM GAS  C:\Users\²Ü¼ÒºÀ\AppData\Local\Temp\ccUTRmBj.s 			page 37


 1304 0000 7374696D 		.ascii	"stimer\000"
 1304      657200
 1305              		.section	.data.s_stimer_cb,"aw"
 1306              		.align	2
 1307              		.set	.LANCHOR0,. + 0
 1310              	s_stimer_cb:
 1311 0000 FFFFFFFF 		.word	-1
 1312 0004 FFFFFFFF 		.word	-1
 1313 0008 00000000 		.word	0
 1314 000c 00000000 		.word	0
 1315 0010 00000000 		.space	4
 1316              		.section	.rodata.__FUNCTION__.7480,"a"
 1317              		.set	.LANCHOR1,. + 0
 1320              	__FUNCTION__.7480:
 1321 0000 7374696D 		.ascii	"stimer_print\000"
 1321      65725F70 
 1321      72696E74 
 1321      00
 1322              		.section	oshell,"a"
 1323              		.align	2
 1326              	__oshell_stimer_print:
 1327 0000 00000000 		.word	.LC14
 1328 0004 00000000 		.word	.LC14
 1329 0008 00000000 		.word	stimer_print
 1330 000c 0000     		.short	0
 1331 000e 0400     		.short	4
 1332              		.text
 1333              	.Letext0:
 1334              		.file 2 "c:\\users\\\262\334\274\322\272\300\\.iotlink\\tools\\gcc-arm-none-eabi\\arm-none-eabi\\i
 1335              		.file 3 "c:\\users\\\262\334\274\322\272\300\\.iotlink\\tools\\gcc-arm-none-eabi\\arm-none-eabi\\i
 1336              		.file 4 "c:\\users\\\262\334\274\322\272\300\\.iotlink\\tools\\gcc-arm-none-eabi\\arm-none-eabi\\i
 1337              		.file 5 "c:\\users\\\262\334\274\322\272\300\\.iotlink\\tools\\gcc-arm-none-eabi\\arm-none-eabi\\i
 1338              		.file 6 "c:\\users\\\262\334\274\322\272\300\\.iotlink\\tools\\gcc-arm-none-eabi\\lib\\gcc\\arm-no
 1339              		.file 7 "c:\\users\\\262\334\274\322\272\300\\.iotlink\\tools\\gcc-arm-none-eabi\\arm-none-eabi\\i
 1340              		.file 8 "c:\\users\\\262\334\274\322\272\300\\.iotlink\\tools\\gcc-arm-none-eabi\\arm-none-eabi\\i
 1341              		.file 9 "C:/Users/\262\334\274\322\272\300/.iotlink/sdk/IoT_LINK/iot_link/os/osal/osal_types.h"
 1342              		.file 10 "C:/Users/\262\334\274\322\272\300/.iotlink/sdk/IoT_LINK/iot_link/inc/link_log.h"
 1343              		.file 11 "C:/Users/\262\334\274\322\272\300/.iotlink/sdk/IoT_LINK/iot_link/inc/stimer.h"
 1344              		.file 12 "C:/Users/\262\334\274\322\272\300/.iotlink/sdk/IoT_LINK/iot_link/inc/shell.h"
 1345              		.file 13 "C:/Users/\262\334\274\322\272\300/.iotlink/sdk/IoT_LINK/iot_link/os/osal/osal.h"
 1346              		.file 14 "c:\\users\\\262\334\274\322\272\300\\.iotlink\\tools\\gcc-arm-none-eabi\\arm-none-eabi\\
 1347              		.file 15 "c:\\users\\\262\334\274\322\272\300\\.iotlink\\tools\\gcc-arm-none-eabi\\arm-none-eabi\\
 1348              		.file 16 "<built-in>"
ARM GAS  C:\Users\²Ü¼ÒºÀ\AppData\Local\Temp\ccUTRmBj.s 			page 38

