ARM GAS  C:\Users\²Ü¼ÒºÀ\AppData\Local\Temp\cco1ZmL6.s 			page 1


   1              		.cpu cortex-m4
   2              		.eabi_attribute 27, 1
   3              		.eabi_attribute 28, 1
   4              		.eabi_attribute 20, 1
   5              		.eabi_attribute 21, 1
   6              		.eabi_attribute 23, 3
   7              		.eabi_attribute 24, 1
   8              		.eabi_attribute 25, 1
   9              		.eabi_attribute 26, 1
  10              		.eabi_attribute 30, 4
  11              		.eabi_attribute 34, 1
  12              		.eabi_attribute 18, 4
  13              		.file	"link_main.c"
  14              		.text
  15              	.Ltext0:
  16              		.cfi_sections	.debug_frame
  17              		.section	.rodata.linkmain_version.str1.1,"aMS",%progbits,1
  18              	.LC0:
  19 0000 5625642E 		.ascii	"V%d.%d.%d AT %s ON %s\000"
  19      25642E25 
  19      64204154 
  19      20257320 
  19      4F4E2025 
  20              	.LC1:
  21 0016 4D617220 		.ascii	"Mar 31 2022\000"
  21      33312032 
  21      30323200 
  22              	.LC2:
  23 0022 32323A35 		.ascii	"22:59:22\000"
  23      393A3232 
  23      00
  24              		.section	.text.linkmain_version,"ax",%progbits
  25              		.align	1
  26              		.global	linkmain_version
  27              		.arch armv7e-m
  28              		.syntax unified
  29              		.thumb
  30              		.thumb_func
  31              		.fpu fpv4-sp-d16
  33              	linkmain_version:
  34              	.LFB3:
  35              		.file 1 "C:/Users/\262\334\274\322\272\300/.iotlink/sdk/IoT_LINK/iot_link/link_main.c"
   1:C:/Users/²Ü¼ÒºÀ/.iotlink/sdk/IoT_LINK/iot_link\link_main.c **** /*----------------------------------------------------------------------------
   2:C:/Users/²Ü¼ÒºÀ/.iotlink/sdk/IoT_LINK/iot_link\link_main.c ****  * Copyright (c) <2018>, <Huawei Technologies Co., Ltd>
   3:C:/Users/²Ü¼ÒºÀ/.iotlink/sdk/IoT_LINK/iot_link\link_main.c ****  * All rights reserved.
   4:C:/Users/²Ü¼ÒºÀ/.iotlink/sdk/IoT_LINK/iot_link\link_main.c ****  * Redistribution and use in source and binary forms, with or without modification,
   5:C:/Users/²Ü¼ÒºÀ/.iotlink/sdk/IoT_LINK/iot_link\link_main.c ****  * are permitted provided that the following conditions are met:
   6:C:/Users/²Ü¼ÒºÀ/.iotlink/sdk/IoT_LINK/iot_link\link_main.c ****  * 1. Redistributions of source code must retain the above copyright notice, this list of
   7:C:/Users/²Ü¼ÒºÀ/.iotlink/sdk/IoT_LINK/iot_link\link_main.c ****  * conditions and the following disclaimer.
   8:C:/Users/²Ü¼ÒºÀ/.iotlink/sdk/IoT_LINK/iot_link\link_main.c ****  * 2. Redistributions in binary form must reproduce the above copyright notice, this list
   9:C:/Users/²Ü¼ÒºÀ/.iotlink/sdk/IoT_LINK/iot_link\link_main.c ****  * of conditions and the following disclaimer in the documentation and/or other materials
  10:C:/Users/²Ü¼ÒºÀ/.iotlink/sdk/IoT_LINK/iot_link\link_main.c ****  * provided with the distribution.
  11:C:/Users/²Ü¼ÒºÀ/.iotlink/sdk/IoT_LINK/iot_link\link_main.c ****  * 3. Neither the name of the copyright holder nor the names of its contributors may be used
  12:C:/Users/²Ü¼ÒºÀ/.iotlink/sdk/IoT_LINK/iot_link\link_main.c ****  * to endorse or promote products derived from this software without specific prior written
  13:C:/Users/²Ü¼ÒºÀ/.iotlink/sdk/IoT_LINK/iot_link\link_main.c ****  * permission.
  14:C:/Users/²Ü¼ÒºÀ/.iotlink/sdk/IoT_LINK/iot_link\link_main.c ****  * THIS SOFTWARE IS PROVIDED BY THE COPYRIGHT HOLDERS AND CONTRIBUTORS
  15:C:/Users/²Ü¼ÒºÀ/.iotlink/sdk/IoT_LINK/iot_link\link_main.c ****  * "AS IS" AND ANY EXPRESS OR IMPLIED WARRANTIES, INCLUDING, BUT NOT LIMITED TO,
ARM GAS  C:\Users\²Ü¼ÒºÀ\AppData\Local\Temp\cco1ZmL6.s 			page 2


  16:C:/Users/²Ü¼ÒºÀ/.iotlink/sdk/IoT_LINK/iot_link\link_main.c ****  * THE IMPLIED WARRANTIES OF MERCHANTABILITY AND FITNESS FOR A PARTICULAR
  17:C:/Users/²Ü¼ÒºÀ/.iotlink/sdk/IoT_LINK/iot_link\link_main.c ****  * PURPOSE ARE DISCLAIMED. IN NO EVENT SHALL THE COPYRIGHT HOLDER OR
  18:C:/Users/²Ü¼ÒºÀ/.iotlink/sdk/IoT_LINK/iot_link\link_main.c ****  * CONTRIBUTORS BE LIABLE FOR ANY DIRECT, INDIRECT, INCIDENTAL, SPECIAL,
  19:C:/Users/²Ü¼ÒºÀ/.iotlink/sdk/IoT_LINK/iot_link\link_main.c ****  * EXEMPLARY, OR CONSEQUENTIAL DAMAGES (INCLUDING, BUT NOT LIMITED TO,
  20:C:/Users/²Ü¼ÒºÀ/.iotlink/sdk/IoT_LINK/iot_link\link_main.c ****  * PROCUREMENT OF SUBSTITUTE GOODS OR SERVICES; LOSS OF USE, DATA, OR PROFITS;
  21:C:/Users/²Ü¼ÒºÀ/.iotlink/sdk/IoT_LINK/iot_link\link_main.c ****  * OR BUSINESS INTERRUPTION) HOWEVER CAUSED AND ON ANY THEORY OF LIABILITY,
  22:C:/Users/²Ü¼ÒºÀ/.iotlink/sdk/IoT_LINK/iot_link\link_main.c ****  * WHETHER IN CONTRACT, STRICT LIABILITY, OR TORT (INCLUDING NEGLIGENCE OR
  23:C:/Users/²Ü¼ÒºÀ/.iotlink/sdk/IoT_LINK/iot_link\link_main.c ****  * OTHERWISE) ARISING IN ANY WAY OUT OF THE USE OF THIS SOFTWARE, EVEN IF
  24:C:/Users/²Ü¼ÒºÀ/.iotlink/sdk/IoT_LINK/iot_link\link_main.c ****  * ADVISED OF THE POSSIBILITY OF SUCH DAMAGE.
  25:C:/Users/²Ü¼ÒºÀ/.iotlink/sdk/IoT_LINK/iot_link\link_main.c ****  *---------------------------------------------------------------------------*/
  26:C:/Users/²Ü¼ÒºÀ/.iotlink/sdk/IoT_LINK/iot_link\link_main.c **** /*----------------------------------------------------------------------------
  27:C:/Users/²Ü¼ÒºÀ/.iotlink/sdk/IoT_LINK/iot_link\link_main.c ****  * Notice of Export Control Law
  28:C:/Users/²Ü¼ÒºÀ/.iotlink/sdk/IoT_LINK/iot_link\link_main.c ****  * ===============================================
  29:C:/Users/²Ü¼ÒºÀ/.iotlink/sdk/IoT_LINK/iot_link\link_main.c ****  * Huawei LiteOS may be subject to applicable export control laws and regulations, which might
  30:C:/Users/²Ü¼ÒºÀ/.iotlink/sdk/IoT_LINK/iot_link\link_main.c ****  * include those applicable to Huawei LiteOS of U.S. and the country in which you are located.
  31:C:/Users/²Ü¼ÒºÀ/.iotlink/sdk/IoT_LINK/iot_link\link_main.c ****  * Import, export and usage of Huawei LiteOS in any manner by you shall be in compliance with such
  32:C:/Users/²Ü¼ÒºÀ/.iotlink/sdk/IoT_LINK/iot_link\link_main.c ****  * applicable export control laws and regulations.
  33:C:/Users/²Ü¼ÒºÀ/.iotlink/sdk/IoT_LINK/iot_link\link_main.c ****  *---------------------------------------------------------------------------*/
  34:C:/Users/²Ü¼ÒºÀ/.iotlink/sdk/IoT_LINK/iot_link\link_main.c **** /**
  35:C:/Users/²Ü¼ÒºÀ/.iotlink/sdk/IoT_LINK/iot_link\link_main.c ****  *  DATE                AUTHOR      INSTRUCTION
  36:C:/Users/²Ü¼ÒºÀ/.iotlink/sdk/IoT_LINK/iot_link\link_main.c ****  *  2019-04-28 15:00  zhangqianfu  The first version
  37:C:/Users/²Ü¼ÒºÀ/.iotlink/sdk/IoT_LINK/iot_link\link_main.c ****  *
  38:C:/Users/²Ü¼ÒºÀ/.iotlink/sdk/IoT_LINK/iot_link\link_main.c ****  */
  39:C:/Users/²Ü¼ÒºÀ/.iotlink/sdk/IoT_LINK/iot_link\link_main.c **** 
  40:C:/Users/²Ü¼ÒºÀ/.iotlink/sdk/IoT_LINK/iot_link\link_main.c **** #include <stdio.h>
  41:C:/Users/²Ü¼ÒºÀ/.iotlink/sdk/IoT_LINK/iot_link\link_main.c **** #include <iot_link_config.h>
  42:C:/Users/²Ü¼ÒºÀ/.iotlink/sdk/IoT_LINK/iot_link\link_main.c **** #include <link_version.h>
  43:C:/Users/²Ü¼ÒºÀ/.iotlink/sdk/IoT_LINK/iot_link\link_main.c **** //RTOS KERNEL
  44:C:/Users/²Ü¼ÒºÀ/.iotlink/sdk/IoT_LINK/iot_link\link_main.c **** #include <osal.h>
  45:C:/Users/²Ü¼ÒºÀ/.iotlink/sdk/IoT_LINK/iot_link\link_main.c **** 
  46:C:/Users/²Ü¼ÒºÀ/.iotlink/sdk/IoT_LINK/iot_link\link_main.c **** #ifdef CONFIG_MACOS_ENABLE
  47:C:/Users/²Ü¼ÒºÀ/.iotlink/sdk/IoT_LINK/iot_link\link_main.c ****     #include <sys/select.h>
  48:C:/Users/²Ü¼ÒºÀ/.iotlink/sdk/IoT_LINK/iot_link\link_main.c **** #endif
  49:C:/Users/²Ü¼ÒºÀ/.iotlink/sdk/IoT_LINK/iot_link\link_main.c **** 
  50:C:/Users/²Ü¼ÒºÀ/.iotlink/sdk/IoT_LINK/iot_link\link_main.c **** 
  51:C:/Users/²Ü¼ÒºÀ/.iotlink/sdk/IoT_LINK/iot_link\link_main.c **** #define  CN_LINK_VERSION_MAJOR      2
  52:C:/Users/²Ü¼ÒºÀ/.iotlink/sdk/IoT_LINK/iot_link\link_main.c **** #define  CN_LINK_VERSION_MINOR      2
  53:C:/Users/²Ü¼ÒºÀ/.iotlink/sdk/IoT_LINK/iot_link\link_main.c **** #define  CN_LINK_VERSION_FEATURE    2
  54:C:/Users/²Ü¼ÒºÀ/.iotlink/sdk/IoT_LINK/iot_link\link_main.c **** 
  55:C:/Users/²Ü¼ÒºÀ/.iotlink/sdk/IoT_LINK/iot_link\link_main.c **** 
  56:C:/Users/²Ü¼ÒºÀ/.iotlink/sdk/IoT_LINK/iot_link\link_main.c **** static char s_link_mainversion[64];
  57:C:/Users/²Ü¼ÒºÀ/.iotlink/sdk/IoT_LINK/iot_link\link_main.c **** const char *linkmain_version()
  58:C:/Users/²Ü¼ÒºÀ/.iotlink/sdk/IoT_LINK/iot_link\link_main.c **** {
  36              		.loc 1 58 1 view -0
  37              		.cfi_startproc
  38              		@ args = 0, pretend = 0, frame = 0
  39              		@ frame_needed = 0, uses_anonymous_args = 0
  59:C:/Users/²Ü¼ÒºÀ/.iotlink/sdk/IoT_LINK/iot_link\link_main.c ****     (void) snprintf(s_link_mainversion,64,"V%d.%d.%d AT %s ON %s",CN_LINK_VERSION_MAJOR,\
  40              		.loc 1 59 5 view .LVU1
  58:C:/Users/²Ü¼ÒºÀ/.iotlink/sdk/IoT_LINK/iot_link\link_main.c ****     (void) snprintf(s_link_mainversion,64,"V%d.%d.%d AT %s ON %s",CN_LINK_VERSION_MAJOR,\
  41              		.loc 1 58 1 is_stmt 0 view .LVU2
  42 0000 1FB5     		push	{r0, r1, r2, r3, r4, lr}
  43              	.LCFI0:
  44              		.cfi_def_cfa_offset 24
  45              		.cfi_offset 4, -8
  46              		.cfi_offset 14, -4
  47              		.loc 1 59 12 view .LVU3
ARM GAS  C:\Users\²Ü¼ÒºÀ\AppData\Local\Temp\cco1ZmL6.s 			page 3


  48 0002 084B     		ldr	r3, .L2
  49 0004 084C     		ldr	r4, .L2+4
  50 0006 0393     		str	r3, [sp, #12]
  51 0008 084B     		ldr	r3, .L2+8
  52 000a 0293     		str	r3, [sp, #8]
  53 000c 0223     		movs	r3, #2
  54 000e CDE90033 		strd	r3, r3, [sp]
  55 0012 074A     		ldr	r2, .L2+12
  56 0014 4021     		movs	r1, #64
  57 0016 2046     		mov	r0, r4
  58 0018 FFF7FEFF 		bl	snprintf
  59              	.LVL0:
  60:C:/Users/²Ü¼ÒºÀ/.iotlink/sdk/IoT_LINK/iot_link\link_main.c ****             CN_LINK_VERSION_MINOR,CN_LINK_VERSION_FEATURE,__TIME__,__DATE__);
  61:C:/Users/²Ü¼ÒºÀ/.iotlink/sdk/IoT_LINK/iot_link\link_main.c ****     return s_link_mainversion;
  60              		.loc 1 61 5 is_stmt 1 view .LVU4
  62:C:/Users/²Ü¼ÒºÀ/.iotlink/sdk/IoT_LINK/iot_link\link_main.c **** }
  61              		.loc 1 62 1 is_stmt 0 view .LVU5
  62 001c 2046     		mov	r0, r4
  63 001e 04B0     		add	sp, sp, #16
  64              	.LCFI1:
  65              		.cfi_def_cfa_offset 8
  66              		@ sp needed
  67 0020 10BD     		pop	{r4, pc}
  68              	.L3:
  69 0022 00BF     		.align	2
  70              	.L2:
  71 0024 16000000 		.word	.LC1
  72 0028 00000000 		.word	.LANCHOR0
  73 002c 22000000 		.word	.LC2
  74 0030 00000000 		.word	.LC0
  75              		.cfi_endproc
  76              	.LFE3:
  78              		.section	.rodata.link_main.str1.1,"aMS",%progbits,1
  79              	.LC3:
  80 0000 5B25735D 		.ascii	"[%s][%u][%s] linkmain:%s\015\012\000"
  80      5B25755D 
  80      5B25735D 
  80      206C696E 
  80      6B6D6169 
  81              		.section	.text.link_main,"ax",%progbits
  82              		.align	1
  83              		.global	link_main
  84              		.syntax unified
  85              		.thumb
  86              		.thumb_func
  87              		.fpu fpv4-sp-d16
  89              	link_main:
  90              	.LVL1:
  91              	.LFB4:
  63:C:/Users/²Ü¼ÒºÀ/.iotlink/sdk/IoT_LINK/iot_link\link_main.c **** 
  64:C:/Users/²Ü¼ÒºÀ/.iotlink/sdk/IoT_LINK/iot_link\link_main.c **** 
  65:C:/Users/²Ü¼ÒºÀ/.iotlink/sdk/IoT_LINK/iot_link\link_main.c **** static int s_link_start = 0;
  66:C:/Users/²Ü¼ÒºÀ/.iotlink/sdk/IoT_LINK/iot_link\link_main.c **** int link_main(void *args)
  67:C:/Users/²Ü¼ÒºÀ/.iotlink/sdk/IoT_LINK/iot_link\link_main.c **** {
  92              		.loc 1 67 1 is_stmt 1 view -0
  93              		.cfi_startproc
  94              		@ args = 0, pretend = 0, frame = 16
ARM GAS  C:\Users\²Ü¼ÒºÀ\AppData\Local\Temp\cco1ZmL6.s 			page 4


  95              		@ frame_needed = 0, uses_anonymous_args = 0
  68:C:/Users/²Ü¼ÒºÀ/.iotlink/sdk/IoT_LINK/iot_link\link_main.c ****     ///< install the RTOS kernel for the link
  69:C:/Users/²Ü¼ÒºÀ/.iotlink/sdk/IoT_LINK/iot_link\link_main.c ****     if(s_link_start)
  96              		.loc 1 69 5 view .LVU7
  67:C:/Users/²Ü¼ÒºÀ/.iotlink/sdk/IoT_LINK/iot_link\link_main.c ****     ///< install the RTOS kernel for the link
  97              		.loc 1 67 1 is_stmt 0 view .LVU8
  98 0000 30B5     		push	{r4, r5, lr}
  99              	.LCFI2:
 100              		.cfi_def_cfa_offset 12
 101              		.cfi_offset 4, -12
 102              		.cfi_offset 5, -8
 103              		.cfi_offset 14, -4
 104              		.loc 1 69 8 view .LVU9
 105 0002 1F4B     		ldr	r3, .L8
 106 0004 1C68     		ldr	r4, [r3]
  67:C:/Users/²Ü¼ÒºÀ/.iotlink/sdk/IoT_LINK/iot_link\link_main.c ****     ///< install the RTOS kernel for the link
 107              		.loc 1 67 1 view .LVU10
 108 0006 87B0     		sub	sp, sp, #28
 109              	.LCFI3:
 110              		.cfi_def_cfa_offset 40
 111              		.loc 1 69 7 view .LVU11
 112 0008 002C     		cmp	r4, #0
 113 000a 36D1     		bne	.L7
  70:C:/Users/²Ü¼ÒºÀ/.iotlink/sdk/IoT_LINK/iot_link\link_main.c ****     {
  71:C:/Users/²Ü¼ÒºÀ/.iotlink/sdk/IoT_LINK/iot_link\link_main.c ****        return -1;
  72:C:/Users/²Ü¼ÒºÀ/.iotlink/sdk/IoT_LINK/iot_link\link_main.c ****     }
  73:C:/Users/²Ü¼ÒºÀ/.iotlink/sdk/IoT_LINK/iot_link\link_main.c ****     s_link_start =1;
 114              		.loc 1 73 5 is_stmt 1 view .LVU12
 115              		.loc 1 73 18 is_stmt 0 view .LVU13
 116 000c 0125     		movs	r5, #1
 117 000e 1D60     		str	r5, [r3]
  74:C:/Users/²Ü¼ÒºÀ/.iotlink/sdk/IoT_LINK/iot_link\link_main.c **** 
  75:C:/Users/²Ü¼ÒºÀ/.iotlink/sdk/IoT_LINK/iot_link\link_main.c ****     (void)osal_init();
 118              		.loc 1 75 5 is_stmt 1 view .LVU14
 119              		.loc 1 75 11 is_stmt 0 view .LVU15
 120 0010 FFF7FEFF 		bl	osal_init
 121              	.LVL2:
  76:C:/Users/²Ü¼ÒºÀ/.iotlink/sdk/IoT_LINK/iot_link\link_main.c ****     LINK_LOG_DEBUG("linkmain:%s",linkmain_version());
 122              		.loc 1 76 5 is_stmt 1 view .LVU16
 123              		.loc 1 76 5 view .LVU17
 124 0014 FFF7FEFF 		bl	link_log_level_get
 125              	.LVL3:
 126 0018 A842     		cmp	r0, r5
 127 001a 14D8     		bhi	.L6
 128              		.loc 1 76 5 discriminator 1 view .LVU18
 129              		.loc 1 76 5 discriminator 1 view .LVU19
 130              		.loc 1 76 5 discriminator 1 view .LVU20
 131 001c 2846     		mov	r0, r5
 132 001e FFF7FEFF 		bl	link_log_level_name
 133              	.LVL4:
 134 0022 0546     		mov	r5, r0
 135 0024 FFF7FEFF 		bl	osal_sys_time
 136              	.LVL5:
 137 0028 0390     		str	r0, [sp, #12]
 138 002a FFF7FEFF 		bl	linkmain_version
 139              	.LVL6:
 140 002e 154B     		ldr	r3, .L8+4
ARM GAS  C:\Users\²Ü¼ÒºÀ\AppData\Local\Temp\cco1ZmL6.s 			page 5


 141 0030 0090     		str	r0, [sp]
 142 0032 039A     		ldr	r2, [sp, #12]
 143 0034 1448     		ldr	r0, .L8+8
 144 0036 2946     		mov	r1, r5
 145 0038 FFF7FEFF 		bl	printf
 146              	.LVL7:
 147              		.loc 1 76 5 discriminator 1 view .LVU21
 148 003c 134B     		ldr	r3, .L8+12
 149 003e 1B68     		ldr	r3, [r3]
 150 0040 9868     		ldr	r0, [r3, #8]
 151 0042 FFF7FEFF 		bl	fflush
 152              	.LVL8:
 153              	.L6:
 154              		.loc 1 76 5 discriminator 3 view .LVU22
 155              		.loc 1 76 5 discriminator 3 view .LVU23
 156              		.loc 1 76 5 discriminator 3 view .LVU24
 157              		.file 2 "C:/Users/\262\334\274\322\272\300/.iotlink/sdk/IoT_LINK/iot_link/inc/stimer.h"
   1:C:/Users/²Ü¼ÒºÀ/.iotlink/sdk/IoT_LINK/iot_link/inc\stimer.h **** /*----------------------------------------------------------------------------
   2:C:/Users/²Ü¼ÒºÀ/.iotlink/sdk/IoT_LINK/iot_link/inc\stimer.h ****  * Copyright (c) <2018>, <Huawei Technologies Co., Ltd>
   3:C:/Users/²Ü¼ÒºÀ/.iotlink/sdk/IoT_LINK/iot_link/inc\stimer.h ****  * All rights reserved.
   4:C:/Users/²Ü¼ÒºÀ/.iotlink/sdk/IoT_LINK/iot_link/inc\stimer.h ****  * Redistribution and use in source and binary forms, with or without modification,
   5:C:/Users/²Ü¼ÒºÀ/.iotlink/sdk/IoT_LINK/iot_link/inc\stimer.h ****  * are permitted provided that the following conditions are met:
   6:C:/Users/²Ü¼ÒºÀ/.iotlink/sdk/IoT_LINK/iot_link/inc\stimer.h ****  * 1. Redistributions of source code must retain the above copyright notice, this list of
   7:C:/Users/²Ü¼ÒºÀ/.iotlink/sdk/IoT_LINK/iot_link/inc\stimer.h ****  * conditions and the following disclaimer.
   8:C:/Users/²Ü¼ÒºÀ/.iotlink/sdk/IoT_LINK/iot_link/inc\stimer.h ****  * 2. Redistributions in binary form must reproduce the above copyright notice, this list
   9:C:/Users/²Ü¼ÒºÀ/.iotlink/sdk/IoT_LINK/iot_link/inc\stimer.h ****  * of conditions and the following disclaimer in the documentation and/or other materials
  10:C:/Users/²Ü¼ÒºÀ/.iotlink/sdk/IoT_LINK/iot_link/inc\stimer.h ****  * provided with the distribution.
  11:C:/Users/²Ü¼ÒºÀ/.iotlink/sdk/IoT_LINK/iot_link/inc\stimer.h ****  * 3. Neither the name of the copyright holder nor the names of its contributors may be used
  12:C:/Users/²Ü¼ÒºÀ/.iotlink/sdk/IoT_LINK/iot_link/inc\stimer.h ****  * to endorse or promote products derived from this software without specific prior written
  13:C:/Users/²Ü¼ÒºÀ/.iotlink/sdk/IoT_LINK/iot_link/inc\stimer.h ****  * permission.
  14:C:/Users/²Ü¼ÒºÀ/.iotlink/sdk/IoT_LINK/iot_link/inc\stimer.h ****  * THIS SOFTWARE IS PROVIDED BY THE COPYRIGHT HOLDERS AND CONTRIBUTORS
  15:C:/Users/²Ü¼ÒºÀ/.iotlink/sdk/IoT_LINK/iot_link/inc\stimer.h ****  * "AS IS" AND ANY EXPRESS OR IMPLIED WARRANTIES, INCLUDING, BUT NOT LIMITED TO,
  16:C:/Users/²Ü¼ÒºÀ/.iotlink/sdk/IoT_LINK/iot_link/inc\stimer.h ****  * THE IMPLIED WARRANTIES OF MERCHANTABILITY AND FITNESS FOR A PARTICULAR
  17:C:/Users/²Ü¼ÒºÀ/.iotlink/sdk/IoT_LINK/iot_link/inc\stimer.h ****  * PURPOSE ARE DISCLAIMED. IN NO EVENT SHALL THE COPYRIGHT HOLDER OR
  18:C:/Users/²Ü¼ÒºÀ/.iotlink/sdk/IoT_LINK/iot_link/inc\stimer.h ****  * CONTRIBUTORS BE LIABLE FOR ANY DIRECT, INDIRECT, INCIDENTAL, SPECIAL,
  19:C:/Users/²Ü¼ÒºÀ/.iotlink/sdk/IoT_LINK/iot_link/inc\stimer.h ****  * EXEMPLARY, OR CONSEQUENTIAL DAMAGES (INCLUDING, BUT NOT LIMITED TO,
  20:C:/Users/²Ü¼ÒºÀ/.iotlink/sdk/IoT_LINK/iot_link/inc\stimer.h ****  * PROCUREMENT OF SUBSTITUTE GOODS OR SERVICES; LOSS OF USE, DATA, OR PROFITS;
  21:C:/Users/²Ü¼ÒºÀ/.iotlink/sdk/IoT_LINK/iot_link/inc\stimer.h ****  * OR BUSINESS INTERRUPTION) HOWEVER CAUSED AND ON ANY THEORY OF LIABILITY,
  22:C:/Users/²Ü¼ÒºÀ/.iotlink/sdk/IoT_LINK/iot_link/inc\stimer.h ****  * WHETHER IN CONTRACT, STRICT LIABILITY, OR TORT (INCLUDING NEGLIGENCE OR
  23:C:/Users/²Ü¼ÒºÀ/.iotlink/sdk/IoT_LINK/iot_link/inc\stimer.h ****  * OTHERWISE) ARISING IN ANY WAY OUT OF THE USE OF THIS SOFTWARE, EVEN IF
  24:C:/Users/²Ü¼ÒºÀ/.iotlink/sdk/IoT_LINK/iot_link/inc\stimer.h ****  * ADVISED OF THE POSSIBILITY OF SUCH DAMAGE.
  25:C:/Users/²Ü¼ÒºÀ/.iotlink/sdk/IoT_LINK/iot_link/inc\stimer.h ****  *---------------------------------------------------------------------------*/
  26:C:/Users/²Ü¼ÒºÀ/.iotlink/sdk/IoT_LINK/iot_link/inc\stimer.h **** /*----------------------------------------------------------------------------
  27:C:/Users/²Ü¼ÒºÀ/.iotlink/sdk/IoT_LINK/iot_link/inc\stimer.h ****  * Notice of Export Control Law
  28:C:/Users/²Ü¼ÒºÀ/.iotlink/sdk/IoT_LINK/iot_link/inc\stimer.h ****  * ===============================================
  29:C:/Users/²Ü¼ÒºÀ/.iotlink/sdk/IoT_LINK/iot_link/inc\stimer.h ****  * Huawei LiteOS may be subject to applicable export control laws and regulations, which might
  30:C:/Users/²Ü¼ÒºÀ/.iotlink/sdk/IoT_LINK/iot_link/inc\stimer.h ****  * include those applicable to Huawei LiteOS of U.S. and the country in which you are located.
  31:C:/Users/²Ü¼ÒºÀ/.iotlink/sdk/IoT_LINK/iot_link/inc\stimer.h ****  * Import, export and usage of Huawei LiteOS in any manner by you shall be in compliance with such
  32:C:/Users/²Ü¼ÒºÀ/.iotlink/sdk/IoT_LINK/iot_link/inc\stimer.h ****  * applicable export control laws and regulations.
  33:C:/Users/²Ü¼ÒºÀ/.iotlink/sdk/IoT_LINK/iot_link/inc\stimer.h ****  *---------------------------------------------------------------------------*/
  34:C:/Users/²Ü¼ÒºÀ/.iotlink/sdk/IoT_LINK/iot_link/inc\stimer.h **** /**
  35:C:/Users/²Ü¼ÒºÀ/.iotlink/sdk/IoT_LINK/iot_link/inc\stimer.h ****  *  DATE                AUTHOR      INSTRUCTION
  36:C:/Users/²Ü¼ÒºÀ/.iotlink/sdk/IoT_LINK/iot_link/inc\stimer.h ****  *  2019-07-26 18:05  zhangqianfu  The first version
  37:C:/Users/²Ü¼ÒºÀ/.iotlink/sdk/IoT_LINK/iot_link/inc\stimer.h ****  *
  38:C:/Users/²Ü¼ÒºÀ/.iotlink/sdk/IoT_LINK/iot_link/inc\stimer.h ****  */
  39:C:/Users/²Ü¼ÒºÀ/.iotlink/sdk/IoT_LINK/iot_link/inc\stimer.h **** #ifndef LITEOS_LAB_IOT_LINK_STIMER_STIMER_H_
  40:C:/Users/²Ü¼ÒºÀ/.iotlink/sdk/IoT_LINK/iot_link/inc\stimer.h **** #define LITEOS_LAB_IOT_LINK_STIMER_STIMER_H_
ARM GAS  C:\Users\²Ü¼ÒºÀ\AppData\Local\Temp\cco1ZmL6.s 			page 6


  41:C:/Users/²Ü¼ÒºÀ/.iotlink/sdk/IoT_LINK/iot_link/inc\stimer.h **** 
  42:C:/Users/²Ü¼ÒºÀ/.iotlink/sdk/IoT_LINK/iot_link/inc\stimer.h **** #include <stddef.h>
  43:C:/Users/²Ü¼ÒºÀ/.iotlink/sdk/IoT_LINK/iot_link/inc\stimer.h **** #include <stdint.h>
  44:C:/Users/²Ü¼ÒºÀ/.iotlink/sdk/IoT_LINK/iot_link/inc\stimer.h **** 
  45:C:/Users/²Ü¼ÒºÀ/.iotlink/sdk/IoT_LINK/iot_link/inc\stimer.h **** ////////////////DEFINES FOR THE STIMER HEADER///////////////////////////////////
  46:C:/Users/²Ü¼ÒºÀ/.iotlink/sdk/IoT_LINK/iot_link/inc\stimer.h **** ///< defines for the soft timer operation method,you could use it with the stimer_ioctl function
  47:C:/Users/²Ü¼ÒºÀ/.iotlink/sdk/IoT_LINK/iot_link/inc\stimer.h **** typedef enum
 158              		.loc 2 47 1 discriminator 3 view .LVU25
  48:C:/Users/²Ü¼ÒºÀ/.iotlink/sdk/IoT_LINK/iot_link/inc\stimer.h **** {
  49:C:/Users/²Ü¼ÒºÀ/.iotlink/sdk/IoT_LINK/iot_link/inc\stimer.h ****     en_stimer_opt_stop = 0,   ///< stop the soft timer
  50:C:/Users/²Ü¼ÒºÀ/.iotlink/sdk/IoT_LINK/iot_link/inc\stimer.h ****     en_stimer_opt_start,      ///< start the soft timer
  51:C:/Users/²Ü¼ÒºÀ/.iotlink/sdk/IoT_LINK/iot_link/inc\stimer.h ****     en_stimer_opt_gettime,    ///< get the left time
  52:C:/Users/²Ü¼ÒºÀ/.iotlink/sdk/IoT_LINK/iot_link/inc\stimer.h ****     en_stimer_opt_recycle,    ///< reset the cycle
  53:C:/Users/²Ü¼ÒºÀ/.iotlink/sdk/IoT_LINK/iot_link/inc\stimer.h ****     en_stimer_opt_reflag,     ///< reset the flag
  54:C:/Users/²Ü¼ÒºÀ/.iotlink/sdk/IoT_LINK/iot_link/inc\stimer.h **** }en_stimer_opt_t;
  55:C:/Users/²Ü¼ÒºÀ/.iotlink/sdk/IoT_LINK/iot_link/inc\stimer.h **** 
  56:C:/Users/²Ü¼ÒºÀ/.iotlink/sdk/IoT_LINK/iot_link/inc\stimer.h **** ///< defines for the soft timer handle returned by the create function and used for ioctl and delet
  57:C:/Users/²Ü¼ÒºÀ/.iotlink/sdk/IoT_LINK/iot_link/inc\stimer.h **** ///< the user should never supposed any data structure for the handle, you could only use the api s
  58:C:/Users/²Ü¼ÒºÀ/.iotlink/sdk/IoT_LINK/iot_link/inc\stimer.h **** typedef void* stimer_t;
 159              		.loc 2 58 1 discriminator 3 view .LVU26
  59:C:/Users/²Ü¼ÒºÀ/.iotlink/sdk/IoT_LINK/iot_link/inc\stimer.h **** 
  60:C:/Users/²Ü¼ÒºÀ/.iotlink/sdk/IoT_LINK/iot_link/inc\stimer.h **** ///< defines for the flag when create the soft timer
  61:C:/Users/²Ü¼ÒºÀ/.iotlink/sdk/IoT_LINK/iot_link/inc\stimer.h **** #define cn_stimer_flag_once  (1<<0)
  62:C:/Users/²Ü¼ÒºÀ/.iotlink/sdk/IoT_LINK/iot_link/inc\stimer.h **** #define cn_stimer_flag_start (1<<1)
  63:C:/Users/²Ü¼ÒºÀ/.iotlink/sdk/IoT_LINK/iot_link/inc\stimer.h **** ///< define the soft timer interrupt service function
  64:C:/Users/²Ü¼ÒºÀ/.iotlink/sdk/IoT_LINK/iot_link/inc\stimer.h **** typedef void  (*fn_stimer_handler)(void *arg);
 160              		.loc 2 64 1 discriminator 3 view .LVU27
  65:C:/Users/²Ü¼ÒºÀ/.iotlink/sdk/IoT_LINK/iot_link/inc\stimer.h **** 
  66:C:/Users/²Ü¼ÒºÀ/.iotlink/sdk/IoT_LINK/iot_link/inc\stimer.h **** 
  67:C:/Users/²Ü¼ÒºÀ/.iotlink/sdk/IoT_LINK/iot_link/inc\stimer.h **** /**
  68:C:/Users/²Ü¼ÒºÀ/.iotlink/sdk/IoT_LINK/iot_link/inc\stimer.h ****  * @brief: this function used for initialize the timer component, should be called after the os
  69:C:/Users/²Ü¼ÒºÀ/.iotlink/sdk/IoT_LINK/iot_link/inc\stimer.h ****  *
  70:C:/Users/²Ü¼ÒºÀ/.iotlink/sdk/IoT_LINK/iot_link/inc\stimer.h ****  * @return: 0 success while -1 failed
  71:C:/Users/²Ü¼ÒºÀ/.iotlink/sdk/IoT_LINK/iot_link/inc\stimer.h ****  * */
  72:C:/Users/²Ü¼ÒºÀ/.iotlink/sdk/IoT_LINK/iot_link/inc\stimer.h **** int32_t stimer_init();
 161              		.loc 2 72 1 discriminator 3 view .LVU28
  73:C:/Users/²Ü¼ÒºÀ/.iotlink/sdk/IoT_LINK/iot_link/inc\stimer.h **** 
  74:C:/Users/²Ü¼ÒºÀ/.iotlink/sdk/IoT_LINK/iot_link/inc\stimer.h **** /**
  75:C:/Users/²Ü¼ÒºÀ/.iotlink/sdk/IoT_LINK/iot_link/inc\stimer.h ****  * @brief: you could use this function for create a soft timer as you wished
  76:C:/Users/²Ü¼ÒºÀ/.iotlink/sdk/IoT_LINK/iot_link/inc\stimer.h ****  *
  77:C:/Users/²Ü¼ÒºÀ/.iotlink/sdk/IoT_LINK/iot_link/inc\stimer.h ****  * @param[in]:name, the soft timer name
  78:C:/Users/²Ü¼ÒºÀ/.iotlink/sdk/IoT_LINK/iot_link/inc\stimer.h ****  * @param[in]:handler, the soft timer handler when the timer is activated
  79:C:/Users/²Ü¼ÒºÀ/.iotlink/sdk/IoT_LINK/iot_link/inc\stimer.h ****  * @param[in]:arg, the argument will supplied for the handler
  80:C:/Users/²Ü¼ÒºÀ/.iotlink/sdk/IoT_LINK/iot_link/inc\stimer.h ****  * @param[in]:cycle, the soft timer cycle
  81:C:/Users/²Ü¼ÒºÀ/.iotlink/sdk/IoT_LINK/iot_link/inc\stimer.h ****  * @param[in]:flag, you could use cn_stimer_flag_once or cn_stimer_flag_start or both
  82:C:/Users/²Ü¼ÒºÀ/.iotlink/sdk/IoT_LINK/iot_link/inc\stimer.h ****  *
  83:C:/Users/²Ü¼ÒºÀ/.iotlink/sdk/IoT_LINK/iot_link/inc\stimer.h ****  * @return:soft timer handler, you could use it for ioctl or delete;if failed NULL
  84:C:/Users/²Ü¼ÒºÀ/.iotlink/sdk/IoT_LINK/iot_link/inc\stimer.h ****  *         will be returned
  85:C:/Users/²Ü¼ÒºÀ/.iotlink/sdk/IoT_LINK/iot_link/inc\stimer.h ****  *
  86:C:/Users/²Ü¼ÒºÀ/.iotlink/sdk/IoT_LINK/iot_link/inc\stimer.h ****  * */
  87:C:/Users/²Ü¼ÒºÀ/.iotlink/sdk/IoT_LINK/iot_link/inc\stimer.h **** stimer_t stimer_create(const char *name,fn_stimer_handler handler, \
 162              		.loc 2 87 1 discriminator 3 view .LVU29
  88:C:/Users/²Ü¼ÒºÀ/.iotlink/sdk/IoT_LINK/iot_link/inc\stimer.h ****                                  void *arg,uint32_t cycle,uint32_t flag);
  89:C:/Users/²Ü¼ÒºÀ/.iotlink/sdk/IoT_LINK/iot_link/inc\stimer.h **** 
  90:C:/Users/²Ü¼ÒºÀ/.iotlink/sdk/IoT_LINK/iot_link/inc\stimer.h **** /**
  91:C:/Users/²Ü¼ÒºÀ/.iotlink/sdk/IoT_LINK/iot_link/inc\stimer.h ****  * @brief: you could use this function to delete the soft timer you created
  92:C:/Users/²Ü¼ÒºÀ/.iotlink/sdk/IoT_LINK/iot_link/inc\stimer.h ****  *
ARM GAS  C:\Users\²Ü¼ÒºÀ\AppData\Local\Temp\cco1ZmL6.s 			page 7


  93:C:/Users/²Ü¼ÒºÀ/.iotlink/sdk/IoT_LINK/iot_link/inc\stimer.h ****  * @param[in]:timer handler,returned by the create function
  94:C:/Users/²Ü¼ÒºÀ/.iotlink/sdk/IoT_LINK/iot_link/inc\stimer.h ****  *
  95:C:/Users/²Ü¼ÒºÀ/.iotlink/sdk/IoT_LINK/iot_link/inc\stimer.h ****  * @return:0 success while -1 or others failed
  96:C:/Users/²Ü¼ÒºÀ/.iotlink/sdk/IoT_LINK/iot_link/inc\stimer.h ****  *
  97:C:/Users/²Ü¼ÒºÀ/.iotlink/sdk/IoT_LINK/iot_link/inc\stimer.h ****  * */
  98:C:/Users/²Ü¼ÒºÀ/.iotlink/sdk/IoT_LINK/iot_link/inc\stimer.h **** int32_t       stimer_delete(stimer_t timer);
 163              		.loc 2 98 1 discriminator 3 view .LVU30
  99:C:/Users/²Ü¼ÒºÀ/.iotlink/sdk/IoT_LINK/iot_link/inc\stimer.h **** 
 100:C:/Users/²Ü¼ÒºÀ/.iotlink/sdk/IoT_LINK/iot_link/inc\stimer.h **** /**
 101:C:/Users/²Ü¼ÒºÀ/.iotlink/sdk/IoT_LINK/iot_link/inc\stimer.h ****  * @brief: you could use this function to control the function
 102:C:/Users/²Ü¼ÒºÀ/.iotlink/sdk/IoT_LINK/iot_link/inc\stimer.h ****  *
 103:C:/Users/²Ü¼ÒºÀ/.iotlink/sdk/IoT_LINK/iot_link/inc\stimer.h ****  * @param[in]:timer,returned by the create function
 104:C:/Users/²Ü¼ÒºÀ/.iotlink/sdk/IoT_LINK/iot_link/inc\stimer.h ****  * @param[in]:opt,defined by en_stimer_opt_t, and the arg is corresponding parameters
 105:C:/Users/²Ü¼ÒºÀ/.iotlink/sdk/IoT_LINK/iot_link/inc\stimer.h ****  * @param[in]:arg, corresponding to the opt
 106:C:/Users/²Ü¼ÒºÀ/.iotlink/sdk/IoT_LINK/iot_link/inc\stimer.h ****  *
 107:C:/Users/²Ü¼ÒºÀ/.iotlink/sdk/IoT_LINK/iot_link/inc\stimer.h ****  * @return:0 success while -1 or others failed
 108:C:/Users/²Ü¼ÒºÀ/.iotlink/sdk/IoT_LINK/iot_link/inc\stimer.h ****  *
 109:C:/Users/²Ü¼ÒºÀ/.iotlink/sdk/IoT_LINK/iot_link/inc\stimer.h ****  * */
 110:C:/Users/²Ü¼ÒºÀ/.iotlink/sdk/IoT_LINK/iot_link/inc\stimer.h **** int32_t       stimer_ioctl(stimer_t timer,en_stimer_opt_t opt, void *arg);
 164              		.loc 2 110 1 discriminator 3 view .LVU31
  77:C:/Users/²Ü¼ÒºÀ/.iotlink/sdk/IoT_LINK/iot_link\link_main.c **** 
  78:C:/Users/²Ü¼ÒºÀ/.iotlink/sdk/IoT_LINK/iot_link\link_main.c **** #ifdef CONFIG_STIMER_ENABLE
  79:C:/Users/²Ü¼ÒºÀ/.iotlink/sdk/IoT_LINK/iot_link\link_main.c ****     #include <stimer.h>
  80:C:/Users/²Ü¼ÒºÀ/.iotlink/sdk/IoT_LINK/iot_link\link_main.c ****     stimer_init();
 165              		.loc 1 80 5 discriminator 3 view .LVU32
 166 0046 FFF7FEFF 		bl	stimer_init
 167              	.LVL9:
 168              		.file 3 "C:/Users/\262\334\274\322\272\300/.iotlink/sdk/IoT_LINK/iot_link/inc/shell.h"
   1:C:/Users/²Ü¼ÒºÀ/.iotlink/sdk/IoT_LINK/iot_link/inc\shell.h **** /*----------------------------------------------------------------------------
   2:C:/Users/²Ü¼ÒºÀ/.iotlink/sdk/IoT_LINK/iot_link/inc\shell.h ****  * Copyright (c) <2018>, <Huawei Technologies Co., Ltd>
   3:C:/Users/²Ü¼ÒºÀ/.iotlink/sdk/IoT_LINK/iot_link/inc\shell.h ****  * All rights reserved.
   4:C:/Users/²Ü¼ÒºÀ/.iotlink/sdk/IoT_LINK/iot_link/inc\shell.h ****  * Redistribution and use in source and binary forms, with or without modification,
   5:C:/Users/²Ü¼ÒºÀ/.iotlink/sdk/IoT_LINK/iot_link/inc\shell.h ****  * are permitted provided that the following conditions are met:
   6:C:/Users/²Ü¼ÒºÀ/.iotlink/sdk/IoT_LINK/iot_link/inc\shell.h ****  * 1. Redistributions of source code must retain the above copyright notice, this list of
   7:C:/Users/²Ü¼ÒºÀ/.iotlink/sdk/IoT_LINK/iot_link/inc\shell.h ****  * conditions and the following disclaimer.
   8:C:/Users/²Ü¼ÒºÀ/.iotlink/sdk/IoT_LINK/iot_link/inc\shell.h ****  * 2. Redistributions in binary form must reproduce the above copyright notice, this list
   9:C:/Users/²Ü¼ÒºÀ/.iotlink/sdk/IoT_LINK/iot_link/inc\shell.h ****  * of conditions and the following disclaimer in the documentation and/or other materials
  10:C:/Users/²Ü¼ÒºÀ/.iotlink/sdk/IoT_LINK/iot_link/inc\shell.h ****  * provided with the distribution.
  11:C:/Users/²Ü¼ÒºÀ/.iotlink/sdk/IoT_LINK/iot_link/inc\shell.h ****  * 3. Neither the name of the copyright holder nor the names of its contributors may be used
  12:C:/Users/²Ü¼ÒºÀ/.iotlink/sdk/IoT_LINK/iot_link/inc\shell.h ****  * to endorse or promote products derived from this software without specific prior written
  13:C:/Users/²Ü¼ÒºÀ/.iotlink/sdk/IoT_LINK/iot_link/inc\shell.h ****  * permission.
  14:C:/Users/²Ü¼ÒºÀ/.iotlink/sdk/IoT_LINK/iot_link/inc\shell.h ****  * THIS SOFTWARE IS PROVIDED BY THE COPYRIGHT HOLDERS AND CONTRIBUTORS
  15:C:/Users/²Ü¼ÒºÀ/.iotlink/sdk/IoT_LINK/iot_link/inc\shell.h ****  * "AS IS" AND ANY EXPRESS OR IMPLIED WARRANTIES, INCLUDING, BUT NOT LIMITED TO,
  16:C:/Users/²Ü¼ÒºÀ/.iotlink/sdk/IoT_LINK/iot_link/inc\shell.h ****  * THE IMPLIED WARRANTIES OF MERCHANTABILITY AND FITNESS FOR A PARTICULAR
  17:C:/Users/²Ü¼ÒºÀ/.iotlink/sdk/IoT_LINK/iot_link/inc\shell.h ****  * PURPOSE ARE DISCLAIMED. IN NO EVENT SHALL THE COPYRIGHT HOLDER OR
  18:C:/Users/²Ü¼ÒºÀ/.iotlink/sdk/IoT_LINK/iot_link/inc\shell.h ****  * CONTRIBUTORS BE LIABLE FOR ANY DIRECT, INDIRECT, INCIDENTAL, SPECIAL,
  19:C:/Users/²Ü¼ÒºÀ/.iotlink/sdk/IoT_LINK/iot_link/inc\shell.h ****  * EXEMPLARY, OR CONSEQUENTIAL DAMAGES (INCLUDING, BUT NOT LIMITED TO,
  20:C:/Users/²Ü¼ÒºÀ/.iotlink/sdk/IoT_LINK/iot_link/inc\shell.h ****  * PROCUREMENT OF SUBSTITUTE GOODS OR SERVICES; LOSS OF USE, DATA, OR PROFITS;
  21:C:/Users/²Ü¼ÒºÀ/.iotlink/sdk/IoT_LINK/iot_link/inc\shell.h ****  * OR BUSINESS INTERRUPTION) HOWEVER CAUSED AND ON ANY THEORY OF LIABILITY,
  22:C:/Users/²Ü¼ÒºÀ/.iotlink/sdk/IoT_LINK/iot_link/inc\shell.h ****  * WHETHER IN CONTRACT, STRICT LIABILITY, OR TORT (INCLUDING NEGLIGENCE OR
  23:C:/Users/²Ü¼ÒºÀ/.iotlink/sdk/IoT_LINK/iot_link/inc\shell.h ****  * OTHERWISE) ARISING IN ANY WAY OUT OF THE USE OF THIS SOFTWARE, EVEN IF
  24:C:/Users/²Ü¼ÒºÀ/.iotlink/sdk/IoT_LINK/iot_link/inc\shell.h ****  * ADVISED OF THE POSSIBILITY OF SUCH DAMAGE.
  25:C:/Users/²Ü¼ÒºÀ/.iotlink/sdk/IoT_LINK/iot_link/inc\shell.h ****  *---------------------------------------------------------------------------*/
  26:C:/Users/²Ü¼ÒºÀ/.iotlink/sdk/IoT_LINK/iot_link/inc\shell.h **** /*----------------------------------------------------------------------------
  27:C:/Users/²Ü¼ÒºÀ/.iotlink/sdk/IoT_LINK/iot_link/inc\shell.h ****  * Notice of Export Control Law
  28:C:/Users/²Ü¼ÒºÀ/.iotlink/sdk/IoT_LINK/iot_link/inc\shell.h ****  * ===============================================
  29:C:/Users/²Ü¼ÒºÀ/.iotlink/sdk/IoT_LINK/iot_link/inc\shell.h ****  * Huawei LiteOS may be subject to applicable export control laws and regulations, which might
ARM GAS  C:\Users\²Ü¼ÒºÀ\AppData\Local\Temp\cco1ZmL6.s 			page 8


  30:C:/Users/²Ü¼ÒºÀ/.iotlink/sdk/IoT_LINK/iot_link/inc\shell.h ****  * include those applicable to Huawei LiteOS of U.S. and the country in which you are located.
  31:C:/Users/²Ü¼ÒºÀ/.iotlink/sdk/IoT_LINK/iot_link/inc\shell.h ****  * Import, export and usage of Huawei LiteOS in any manner by you shall be in compliance with such
  32:C:/Users/²Ü¼ÒºÀ/.iotlink/sdk/IoT_LINK/iot_link/inc\shell.h ****  * applicable export control laws and regulations.
  33:C:/Users/²Ü¼ÒºÀ/.iotlink/sdk/IoT_LINK/iot_link/inc\shell.h ****  *---------------------------------------------------------------------------*/
  34:C:/Users/²Ü¼ÒºÀ/.iotlink/sdk/IoT_LINK/iot_link/inc\shell.h **** /**
  35:C:/Users/²Ü¼ÒºÀ/.iotlink/sdk/IoT_LINK/iot_link/inc\shell.h ****  *  DATE                AUTHOR      INSTRUCTION
  36:C:/Users/²Ü¼ÒºÀ/.iotlink/sdk/IoT_LINK/iot_link/inc\shell.h ****  *  2019-05-14 17:22  zhangqianfu  The first version
  37:C:/Users/²Ü¼ÒºÀ/.iotlink/sdk/IoT_LINK/iot_link/inc\shell.h ****  *
  38:C:/Users/²Ü¼ÒºÀ/.iotlink/sdk/IoT_LINK/iot_link/inc\shell.h ****  */
  39:C:/Users/²Ü¼ÒºÀ/.iotlink/sdk/IoT_LINK/iot_link/inc\shell.h **** 
  40:C:/Users/²Ü¼ÒºÀ/.iotlink/sdk/IoT_LINK/iot_link/inc\shell.h **** #ifndef __OSSHELL_H
  41:C:/Users/²Ü¼ÒºÀ/.iotlink/sdk/IoT_LINK/iot_link/inc\shell.h **** #define __OSSHELL_H
  42:C:/Users/²Ü¼ÒºÀ/.iotlink/sdk/IoT_LINK/iot_link/inc\shell.h **** 
  43:C:/Users/²Ü¼ÒºÀ/.iotlink/sdk/IoT_LINK/iot_link/inc\shell.h **** 
  44:C:/Users/²Ü¼ÒºÀ/.iotlink/sdk/IoT_LINK/iot_link/inc\shell.h **** #include <stdint.h>
  45:C:/Users/²Ü¼ÒºÀ/.iotlink/sdk/IoT_LINK/iot_link/inc\shell.h **** #include <stddef.h>
  46:C:/Users/²Ü¼ÒºÀ/.iotlink/sdk/IoT_LINK/iot_link/inc\shell.h **** #include <link_log.h>
  47:C:/Users/²Ü¼ÒºÀ/.iotlink/sdk/IoT_LINK/iot_link/inc\shell.h **** 
  48:C:/Users/²Ü¼ÒºÀ/.iotlink/sdk/IoT_LINK/iot_link/inc\shell.h **** #if CONFIG_SHELL_ENABLE
  49:C:/Users/²Ü¼ÒºÀ/.iotlink/sdk/IoT_LINK/iot_link/inc\shell.h **** 
  50:C:/Users/²Ü¼ÒºÀ/.iotlink/sdk/IoT_LINK/iot_link/inc\shell.h **** //this is a shell module designed for the os
  51:C:/Users/²Ü¼ÒºÀ/.iotlink/sdk/IoT_LINK/iot_link/inc\shell.h **** //this is a shell type,maybe a command or the data variables
  52:C:/Users/²Ü¼ÒºÀ/.iotlink/sdk/IoT_LINK/iot_link/inc\shell.h **** enum en_os_shell_type
 169              		.loc 3 52 1 discriminator 3 view .LVU33
  53:C:/Users/²Ü¼ÒºÀ/.iotlink/sdk/IoT_LINK/iot_link/inc\shell.h **** {
  54:C:/Users/²Ü¼ÒºÀ/.iotlink/sdk/IoT_LINK/iot_link/inc\shell.h **** 	EN_OSSHELL_CMD = 0,
  55:C:/Users/²Ü¼ÒºÀ/.iotlink/sdk/IoT_LINK/iot_link/inc\shell.h **** 	EN_OSSHELL_VAR,       //up till now, we only support 4 bytes
  56:C:/Users/²Ü¼ÒºÀ/.iotlink/sdk/IoT_LINK/iot_link/inc\shell.h **** 	EN_OSSHELL_LAST,
  57:C:/Users/²Ü¼ÒºÀ/.iotlink/sdk/IoT_LINK/iot_link/inc\shell.h **** };
  58:C:/Users/²Ü¼ÒºÀ/.iotlink/sdk/IoT_LINK/iot_link/inc\shell.h **** 
  59:C:/Users/²Ü¼ÒºÀ/.iotlink/sdk/IoT_LINK/iot_link/inc\shell.h **** #define BUILD_VAR_NAME(A,B)         A##B
  60:C:/Users/²Ü¼ÒºÀ/.iotlink/sdk/IoT_LINK/iot_link/inc\shell.h **** #define  MAX_TAB_MATCHES			16
  61:C:/Users/²Ü¼ÒºÀ/.iotlink/sdk/IoT_LINK/iot_link/inc\shell.h **** struct shell_tab_matches
 170              		.loc 3 61 1 discriminator 3 view .LVU34
  62:C:/Users/²Ü¼ÒºÀ/.iotlink/sdk/IoT_LINK/iot_link/inc\shell.h **** {
  63:C:/Users/²Ü¼ÒºÀ/.iotlink/sdk/IoT_LINK/iot_link/inc\shell.h **** 	const char *matches[MAX_TAB_MATCHES];
  64:C:/Users/²Ü¼ÒºÀ/.iotlink/sdk/IoT_LINK/iot_link/inc\shell.h **** 	unsigned short len;
  65:C:/Users/²Ü¼ÒºÀ/.iotlink/sdk/IoT_LINK/iot_link/inc\shell.h **** };
  66:C:/Users/²Ü¼ÒºÀ/.iotlink/sdk/IoT_LINK/iot_link/inc\shell.h **** 
  67:C:/Users/²Ü¼ÒºÀ/.iotlink/sdk/IoT_LINK/iot_link/inc\shell.h **** //this is the shell function module.the register function must have the same type
  68:C:/Users/²Ü¼ÒºÀ/.iotlink/sdk/IoT_LINK/iot_link/inc\shell.h **** //uptils now, we don't care the return value
  69:C:/Users/²Ü¼ÒºÀ/.iotlink/sdk/IoT_LINK/iot_link/inc\shell.h **** struct shell_item_t
 171              		.loc 3 69 1 discriminator 3 view .LVU35
  70:C:/Users/²Ü¼ÒºÀ/.iotlink/sdk/IoT_LINK/iot_link/inc\shell.h **** {
  71:C:/Users/²Ü¼ÒºÀ/.iotlink/sdk/IoT_LINK/iot_link/inc\shell.h **** 	const char     *name;   //point to the shell name string
  72:C:/Users/²Ü¼ÒºÀ/.iotlink/sdk/IoT_LINK/iot_link/inc\shell.h **** 	const char     *help;   //point to the shell description string
  73:C:/Users/²Ü¼ÒºÀ/.iotlink/sdk/IoT_LINK/iot_link/inc\shell.h **** 	void           *addr;   //point to the shell function or the shell data
  74:C:/Users/²Ü¼ÒºÀ/.iotlink/sdk/IoT_LINK/iot_link/inc\shell.h **** 	unsigned short  type;   //used to  point the shell type:command or a data
  75:C:/Users/²Ü¼ÒºÀ/.iotlink/sdk/IoT_LINK/iot_link/inc\shell.h **** 	unsigned short  len;    //used to  point the shell command or data length
  76:C:/Users/²Ü¼ÒºÀ/.iotlink/sdk/IoT_LINK/iot_link/inc\shell.h **** };
  77:C:/Users/²Ü¼ÒºÀ/.iotlink/sdk/IoT_LINK/iot_link/inc\shell.h **** //this define will create  a shell command with the specified cmdname
  78:C:/Users/²Ü¼ÒºÀ/.iotlink/sdk/IoT_LINK/iot_link/inc\shell.h **** #define OSSHELL_EXPORT_CMD(cmdentry,cmdname,cmdhelp)      \
  79:C:/Users/²Ü¼ÒºÀ/.iotlink/sdk/IoT_LINK/iot_link/inc\shell.h ****     static const struct shell_item_t BUILD_VAR_NAME(__oshell_,cmdentry) __attribute__((used,section
  80:C:/Users/²Ü¼ÒºÀ/.iotlink/sdk/IoT_LINK/iot_link/inc\shell.h ****     {                           \
  81:C:/Users/²Ü¼ÒºÀ/.iotlink/sdk/IoT_LINK/iot_link/inc\shell.h ****         .name=cmdname,    \
  82:C:/Users/²Ü¼ÒºÀ/.iotlink/sdk/IoT_LINK/iot_link/inc\shell.h ****         .help=cmdhelp,    \
  83:C:/Users/²Ü¼ÒºÀ/.iotlink/sdk/IoT_LINK/iot_link/inc\shell.h ****         .addr=(void *)&cmdentry,              \
ARM GAS  C:\Users\²Ü¼ÒºÀ\AppData\Local\Temp\cco1ZmL6.s 			page 9


  84:C:/Users/²Ü¼ÒºÀ/.iotlink/sdk/IoT_LINK/iot_link/inc\shell.h **** 		.type=EN_OSSHELL_CMD,           \
  85:C:/Users/²Ü¼ÒºÀ/.iotlink/sdk/IoT_LINK/iot_link/inc\shell.h **** 		.len = sizeof(void *),             \
  86:C:/Users/²Ü¼ÒºÀ/.iotlink/sdk/IoT_LINK/iot_link/inc\shell.h ****     }
  87:C:/Users/²Ü¼ÒºÀ/.iotlink/sdk/IoT_LINK/iot_link/inc\shell.h **** //this define will create  a create a shell data with the specified name
  88:C:/Users/²Ü¼ÒºÀ/.iotlink/sdk/IoT_LINK/iot_link/inc\shell.h **** #define OSSHELL_EXPORT_VAR(var,varname,varhelp)      \
  89:C:/Users/²Ü¼ÒºÀ/.iotlink/sdk/IoT_LINK/iot_link/inc\shell.h ****     static const struct shell_item_t BUILD_VAR_NAME(__oshell_,var) __attribute__((used,section("osh
  90:C:/Users/²Ü¼ÒºÀ/.iotlink/sdk/IoT_LINK/iot_link/inc\shell.h ****     {                           \
  91:C:/Users/²Ü¼ÒºÀ/.iotlink/sdk/IoT_LINK/iot_link/inc\shell.h ****         .name=varname,    \
  92:C:/Users/²Ü¼ÒºÀ/.iotlink/sdk/IoT_LINK/iot_link/inc\shell.h ****         .help=varhelp,    \
  93:C:/Users/²Ü¼ÒºÀ/.iotlink/sdk/IoT_LINK/iot_link/inc\shell.h ****         .addr=(void *)&var,              \
  94:C:/Users/²Ü¼ÒºÀ/.iotlink/sdk/IoT_LINK/iot_link/inc\shell.h **** 		.type=EN_OSSHELL_VAR,                   \
  95:C:/Users/²Ü¼ÒºÀ/.iotlink/sdk/IoT_LINK/iot_link/inc\shell.h **** 		.len =sizeof(var),               \
  96:C:/Users/²Ü¼ÒºÀ/.iotlink/sdk/IoT_LINK/iot_link/inc\shell.h ****     }
  97:C:/Users/²Ü¼ÒºÀ/.iotlink/sdk/IoT_LINK/iot_link/inc\shell.h ****     
  98:C:/Users/²Ü¼ÒºÀ/.iotlink/sdk/IoT_LINK/iot_link/inc\shell.h **** void shell_init(void);
 172              		.loc 3 98 1 discriminator 3 view .LVU36
  81:C:/Users/²Ü¼ÒºÀ/.iotlink/sdk/IoT_LINK/iot_link\link_main.c **** #endif
  82:C:/Users/²Ü¼ÒºÀ/.iotlink/sdk/IoT_LINK/iot_link\link_main.c **** 
  83:C:/Users/²Ü¼ÒºÀ/.iotlink/sdk/IoT_LINK/iot_link\link_main.c **** #ifdef CONFIG_SHELL_ENABLE
  84:C:/Users/²Ü¼ÒºÀ/.iotlink/sdk/IoT_LINK/iot_link\link_main.c ****     #include <shell.h>
  85:C:/Users/²Ü¼ÒºÀ/.iotlink/sdk/IoT_LINK/iot_link\link_main.c ****     shell_init();
 173              		.loc 1 85 5 discriminator 3 view .LVU37
 174 004a FFF7FEFF 		bl	shell_init
 175              	.LVL10:
 176              		.file 4 "C:/Users/\262\334\274\322\272\300/.iotlink/sdk/IoT_LINK/iot_link/driver/driver.h"
   1:C:/Users/²Ü¼ÒºÀ/.iotlink/sdk/IoT_LINK/iot_link/driver\driver.h **** /*----------------------------------------------------------------------------
   2:C:/Users/²Ü¼ÒºÀ/.iotlink/sdk/IoT_LINK/iot_link/driver\driver.h ****  * Copyright (c) <2018>, <Huawei Technologies Co., Ltd>
   3:C:/Users/²Ü¼ÒºÀ/.iotlink/sdk/IoT_LINK/iot_link/driver\driver.h ****  * All rights reserved.
   4:C:/Users/²Ü¼ÒºÀ/.iotlink/sdk/IoT_LINK/iot_link/driver\driver.h ****  * Redistribution and use in source and binary forms, with or without modification,
   5:C:/Users/²Ü¼ÒºÀ/.iotlink/sdk/IoT_LINK/iot_link/driver\driver.h ****  * are permitted provided that the following conditions are met:
   6:C:/Users/²Ü¼ÒºÀ/.iotlink/sdk/IoT_LINK/iot_link/driver\driver.h ****  * 1. Redistributions of source code must retain the above copyright notice, this list of
   7:C:/Users/²Ü¼ÒºÀ/.iotlink/sdk/IoT_LINK/iot_link/driver\driver.h ****  * conditions and the following disclaimer.
   8:C:/Users/²Ü¼ÒºÀ/.iotlink/sdk/IoT_LINK/iot_link/driver\driver.h ****  * 2. Redistributions in binary form must reproduce the above copyright notice, this list
   9:C:/Users/²Ü¼ÒºÀ/.iotlink/sdk/IoT_LINK/iot_link/driver\driver.h ****  * of conditions and the following disclaimer in the documentation and/or other materials
  10:C:/Users/²Ü¼ÒºÀ/.iotlink/sdk/IoT_LINK/iot_link/driver\driver.h ****  * provided with the distribution.
  11:C:/Users/²Ü¼ÒºÀ/.iotlink/sdk/IoT_LINK/iot_link/driver\driver.h ****  * 3. Neither the name of the copyright holder nor the names of its contributors may be used
  12:C:/Users/²Ü¼ÒºÀ/.iotlink/sdk/IoT_LINK/iot_link/driver\driver.h ****  * to endorse or promote products derived from this software without specific prior written
  13:C:/Users/²Ü¼ÒºÀ/.iotlink/sdk/IoT_LINK/iot_link/driver\driver.h ****  * permission.
  14:C:/Users/²Ü¼ÒºÀ/.iotlink/sdk/IoT_LINK/iot_link/driver\driver.h ****  * THIS SOFTWARE IS PROVIDED BY THE COPYRIGHT HOLDERS AND CONTRIBUTORS
  15:C:/Users/²Ü¼ÒºÀ/.iotlink/sdk/IoT_LINK/iot_link/driver\driver.h ****  * "AS IS" AND ANY EXPRESS OR IMPLIED WARRANTIES, INCLUDING, BUT NOT LIMITED TO,
  16:C:/Users/²Ü¼ÒºÀ/.iotlink/sdk/IoT_LINK/iot_link/driver\driver.h ****  * THE IMPLIED WARRANTIES OF MERCHANTABILITY AND FITNESS FOR A PARTICULAR
  17:C:/Users/²Ü¼ÒºÀ/.iotlink/sdk/IoT_LINK/iot_link/driver\driver.h ****  * PURPOSE ARE DISCLAIMED. IN NO EVENT SHALL THE COPYRIGHT HOLDER OR
  18:C:/Users/²Ü¼ÒºÀ/.iotlink/sdk/IoT_LINK/iot_link/driver\driver.h ****  * CONTRIBUTORS BE LIABLE FOR ANY DIRECT, INDIRECT, INCIDENTAL, SPECIAL,
  19:C:/Users/²Ü¼ÒºÀ/.iotlink/sdk/IoT_LINK/iot_link/driver\driver.h ****  * EXEMPLARY, OR CONSEQUENTIAL DAMAGES (INCLUDING, BUT NOT LIMITED TO,
  20:C:/Users/²Ü¼ÒºÀ/.iotlink/sdk/IoT_LINK/iot_link/driver\driver.h ****  * PROCUREMENT OF SUBSTITUTE GOODS OR SERVICES; LOSS OF USE, DATA, OR PROFITS;
  21:C:/Users/²Ü¼ÒºÀ/.iotlink/sdk/IoT_LINK/iot_link/driver\driver.h ****  * OR BUSINESS INTERRUPTION) HOWEVER CAUSED AND ON ANY THEORY OF LIABILITY,
  22:C:/Users/²Ü¼ÒºÀ/.iotlink/sdk/IoT_LINK/iot_link/driver\driver.h ****  * WHETHER IN CONTRACT, STRICT LIABILITY, OR TORT (INCLUDING NEGLIGENCE OR
  23:C:/Users/²Ü¼ÒºÀ/.iotlink/sdk/IoT_LINK/iot_link/driver\driver.h ****  * OTHERWISE) ARISING IN ANY WAY OUT OF THE USE OF THIS SOFTWARE, EVEN IF
  24:C:/Users/²Ü¼ÒºÀ/.iotlink/sdk/IoT_LINK/iot_link/driver\driver.h ****  * ADVISED OF THE POSSIBILITY OF SUCH DAMAGE.
  25:C:/Users/²Ü¼ÒºÀ/.iotlink/sdk/IoT_LINK/iot_link/driver\driver.h ****  *---------------------------------------------------------------------------*/
  26:C:/Users/²Ü¼ÒºÀ/.iotlink/sdk/IoT_LINK/iot_link/driver\driver.h **** /*----------------------------------------------------------------------------
  27:C:/Users/²Ü¼ÒºÀ/.iotlink/sdk/IoT_LINK/iot_link/driver\driver.h ****  * Notice of Export Control Law
  28:C:/Users/²Ü¼ÒºÀ/.iotlink/sdk/IoT_LINK/iot_link/driver\driver.h ****  * ===============================================
  29:C:/Users/²Ü¼ÒºÀ/.iotlink/sdk/IoT_LINK/iot_link/driver\driver.h ****  * Huawei LiteOS may be subject to applicable export control laws and regulations, which might
  30:C:/Users/²Ü¼ÒºÀ/.iotlink/sdk/IoT_LINK/iot_link/driver\driver.h ****  * include those applicable to Huawei LiteOS of U.S. and the country in which you are located.
  31:C:/Users/²Ü¼ÒºÀ/.iotlink/sdk/IoT_LINK/iot_link/driver\driver.h ****  * Import, export and usage of Huawei LiteOS in any manner by you shall be in compliance with such
  32:C:/Users/²Ü¼ÒºÀ/.iotlink/sdk/IoT_LINK/iot_link/driver\driver.h ****  * applicable export control laws and regulations.
ARM GAS  C:\Users\²Ü¼ÒºÀ\AppData\Local\Temp\cco1ZmL6.s 			page 10


  33:C:/Users/²Ü¼ÒºÀ/.iotlink/sdk/IoT_LINK/iot_link/driver\driver.h ****  *---------------------------------------------------------------------------*/
  34:C:/Users/²Ü¼ÒºÀ/.iotlink/sdk/IoT_LINK/iot_link/driver\driver.h **** /**
  35:C:/Users/²Ü¼ÒºÀ/.iotlink/sdk/IoT_LINK/iot_link/driver\driver.h ****  *  DATE                AUTHOR      INSTRUCTION
  36:C:/Users/²Ü¼ÒºÀ/.iotlink/sdk/IoT_LINK/iot_link/driver\driver.h ****  *  2019-05-14 09:34  zhangqianfu  The first version  
  37:C:/Users/²Ü¼ÒºÀ/.iotlink/sdk/IoT_LINK/iot_link/driver\driver.h ****  *
  38:C:/Users/²Ü¼ÒºÀ/.iotlink/sdk/IoT_LINK/iot_link/driver\driver.h ****  */
  39:C:/Users/²Ü¼ÒºÀ/.iotlink/sdk/IoT_LINK/iot_link/driver\driver.h **** #ifndef LITEOS_LAB_IOT_LINK_DRIVER_DRIVER_H_
  40:C:/Users/²Ü¼ÒºÀ/.iotlink/sdk/IoT_LINK/iot_link/driver\driver.h **** #define LITEOS_LAB_IOT_LINK_DRIVER_DRIVER_H_
  41:C:/Users/²Ü¼ÒºÀ/.iotlink/sdk/IoT_LINK/iot_link/driver\driver.h **** 
  42:C:/Users/²Ü¼ÒºÀ/.iotlink/sdk/IoT_LINK/iot_link/driver\driver.h **** #include <sys/types.h>
  43:C:/Users/²Ü¼ÒºÀ/.iotlink/sdk/IoT_LINK/iot_link/driver\driver.h **** 
  44:C:/Users/²Ü¼ÒºÀ/.iotlink/sdk/IoT_LINK/iot_link/driver\driver.h **** #include <osal.h>
  45:C:/Users/²Ü¼ÒºÀ/.iotlink/sdk/IoT_LINK/iot_link/driver\driver.h **** 
  46:C:/Users/²Ü¼ÒºÀ/.iotlink/sdk/IoT_LINK/iot_link/driver\driver.h **** 
  47:C:/Users/²Ü¼ÒºÀ/.iotlink/sdk/IoT_LINK/iot_link/driver\driver.h **** typedef void* los_driv_t ;//returned by the driver register
 177              		.loc 4 47 1 discriminator 3 view .LVU38
  48:C:/Users/²Ü¼ÒºÀ/.iotlink/sdk/IoT_LINK/iot_link/driver\driver.h **** typedef bool_t (*fn_devopen)  (void *pri,int flag);
 178              		.loc 4 48 1 discriminator 3 view .LVU39
  49:C:/Users/²Ü¼ÒºÀ/.iotlink/sdk/IoT_LINK/iot_link/driver\driver.h **** typedef ssize_t (*fn_devread)  (void *pri,size_t offset,void *buf,size_t len,uint32_t timeout);
 179              		.loc 4 49 1 discriminator 3 view .LVU40
  50:C:/Users/²Ü¼ÒºÀ/.iotlink/sdk/IoT_LINK/iot_link/driver\driver.h **** typedef ssize_t (*fn_devwrite) (void *pri,size_t offset,const void *buf,size_t len,uint32_t timeout
 180              		.loc 4 50 1 discriminator 3 view .LVU41
  51:C:/Users/²Ü¼ÒºÀ/.iotlink/sdk/IoT_LINK/iot_link/driver\driver.h **** typedef void   (*fn_devclose) (void *pri);
 181              		.loc 4 51 1 discriminator 3 view .LVU42
  52:C:/Users/²Ü¼ÒºÀ/.iotlink/sdk/IoT_LINK/iot_link/driver\driver.h **** typedef bool_t (*fn_devioctl) (void *pri,unsigned int cmd, void *para,int len);
 182              		.loc 4 52 1 discriminator 3 view .LVU43
  53:C:/Users/²Ü¼ÒºÀ/.iotlink/sdk/IoT_LINK/iot_link/driver\driver.h **** typedef bool_t (*fn_devinit)  (void *pri);
 183              		.loc 4 53 1 discriminator 3 view .LVU44
  54:C:/Users/²Ü¼ÒºÀ/.iotlink/sdk/IoT_LINK/iot_link/driver\driver.h **** typedef void   (*fn_devdeinit)(void *pri);
 184              		.loc 4 54 1 discriminator 3 view .LVU45
  55:C:/Users/²Ü¼ÒºÀ/.iotlink/sdk/IoT_LINK/iot_link/driver\driver.h **** typedef off_t  (*fn_devseek) (void *pri,off_t offset,int fromwhere);
 185              		.loc 4 55 1 discriminator 3 view .LVU46
  56:C:/Users/²Ü¼ÒºÀ/.iotlink/sdk/IoT_LINK/iot_link/driver\driver.h **** //all the member function of pri is inherited by the register function
  57:C:/Users/²Ü¼ÒºÀ/.iotlink/sdk/IoT_LINK/iot_link/driver\driver.h **** typedef struct
 186              		.loc 4 57 1 discriminator 3 view .LVU47
  58:C:/Users/²Ü¼ÒºÀ/.iotlink/sdk/IoT_LINK/iot_link/driver\driver.h **** {
  59:C:/Users/²Ü¼ÒºÀ/.iotlink/sdk/IoT_LINK/iot_link/driver\driver.h ****     fn_devopen    open;   //triggered by the application
  60:C:/Users/²Ü¼ÒºÀ/.iotlink/sdk/IoT_LINK/iot_link/driver\driver.h ****     fn_devread    read;   //triggered by the application
  61:C:/Users/²Ü¼ÒºÀ/.iotlink/sdk/IoT_LINK/iot_link/driver\driver.h ****     fn_devwrite   write;  //triggered by the application
  62:C:/Users/²Ü¼ÒºÀ/.iotlink/sdk/IoT_LINK/iot_link/driver\driver.h ****     fn_devclose   close;  //triggered by the application
  63:C:/Users/²Ü¼ÒºÀ/.iotlink/sdk/IoT_LINK/iot_link/driver\driver.h ****     fn_devioctl   ioctl;  //triggered by the application
  64:C:/Users/²Ü¼ÒºÀ/.iotlink/sdk/IoT_LINK/iot_link/driver\driver.h ****     fn_devseek    seek ;  //triggered by the application
  65:C:/Users/²Ü¼ÒºÀ/.iotlink/sdk/IoT_LINK/iot_link/driver\driver.h ****     fn_devinit    init;   //if first open,then will be called
  66:C:/Users/²Ü¼ÒºÀ/.iotlink/sdk/IoT_LINK/iot_link/driver\driver.h ****     fn_devdeinit  deinit; //if the last close, then will be called
  67:C:/Users/²Ü¼ÒºÀ/.iotlink/sdk/IoT_LINK/iot_link/driver\driver.h **** }los_driv_op_t;
  68:C:/Users/²Ü¼ÒºÀ/.iotlink/sdk/IoT_LINK/iot_link/driver\driver.h **** //the member could be NULL,depend on the device property
  69:C:/Users/²Ü¼ÒºÀ/.iotlink/sdk/IoT_LINK/iot_link/driver\driver.h **** //attention that whether the device support multi read and write depend on the device itself
  70:C:/Users/²Ü¼ÒºÀ/.iotlink/sdk/IoT_LINK/iot_link/driver\driver.h **** typedef void* los_dev_t ;                   //this type is returned by the dev open
 187              		.loc 4 70 1 discriminator 3 view .LVU48
  71:C:/Users/²Ü¼ÒºÀ/.iotlink/sdk/IoT_LINK/iot_link/driver\driver.h **** 
  72:C:/Users/²Ü¼ÒºÀ/.iotlink/sdk/IoT_LINK/iot_link/driver\driver.h **** //we also supply a macro to add a driver staticly ,which means
  73:C:/Users/²Ü¼ÒºÀ/.iotlink/sdk/IoT_LINK/iot_link/driver\driver.h **** typedef struct
 188              		.loc 4 73 1 discriminator 3 view .LVU49
  74:C:/Users/²Ü¼ÒºÀ/.iotlink/sdk/IoT_LINK/iot_link/driver\driver.h **** {
  75:C:/Users/²Ü¼ÒºÀ/.iotlink/sdk/IoT_LINK/iot_link/driver\driver.h ****     const char            *name;      //device driver name
  76:C:/Users/²Ü¼ÒºÀ/.iotlink/sdk/IoT_LINK/iot_link/driver\driver.h ****     los_driv_op_t         *op;        //device operate functions
  77:C:/Users/²Ü¼ÒºÀ/.iotlink/sdk/IoT_LINK/iot_link/driver\driver.h ****     void                  *pri;       //private data,will be passed to op functions
ARM GAS  C:\Users\²Ü¼ÒºÀ\AppData\Local\Temp\cco1ZmL6.s 			page 11


  78:C:/Users/²Ü¼ÒºÀ/.iotlink/sdk/IoT_LINK/iot_link/driver\driver.h ****     uint32_t               flag;      //flags, like O_RDONLY O_WRONLY O_RDWR
  79:C:/Users/²Ü¼ÒºÀ/.iotlink/sdk/IoT_LINK/iot_link/driver\driver.h **** }os_driv_para_t;
  80:C:/Users/²Ü¼ÒºÀ/.iotlink/sdk/IoT_LINK/iot_link/driver\driver.h **** 
  81:C:/Users/²Ü¼ÒºÀ/.iotlink/sdk/IoT_LINK/iot_link/driver\driver.h **** #if CONFIG_DRIVER_ENABLE
  82:C:/Users/²Ü¼ÒºÀ/.iotlink/sdk/IoT_LINK/iot_link/driver\driver.h **** //device module init entry
  83:C:/Users/²Ü¼ÒºÀ/.iotlink/sdk/IoT_LINK/iot_link/driver\driver.h **** bool_t  los_driv_init(void);
 189              		.loc 4 83 1 discriminator 3 view .LVU50
  84:C:/Users/²Ü¼ÒºÀ/.iotlink/sdk/IoT_LINK/iot_link/driver\driver.h **** //these interface called by the bsp develop
  85:C:/Users/²Ü¼ÒºÀ/.iotlink/sdk/IoT_LINK/iot_link/driver\driver.h **** los_driv_t los_driv_register(os_driv_para_t *para);
 190              		.loc 4 85 1 discriminator 3 view .LVU51
  86:C:/Users/²Ü¼ÒºÀ/.iotlink/sdk/IoT_LINK/iot_link/driver\driver.h **** bool_t     los_driv_unregister(const char *name) ;
 191              		.loc 4 86 1 discriminator 3 view .LVU52
  87:C:/Users/²Ü¼ÒºÀ/.iotlink/sdk/IoT_LINK/iot_link/driver\driver.h **** bool_t     los_driv_event(los_driv_t driv,unsigned int event,void *para);
 192              		.loc 4 87 1 discriminator 3 view .LVU53
  88:C:/Users/²Ü¼ÒºÀ/.iotlink/sdk/IoT_LINK/iot_link/driver\driver.h **** //attention that the device dirver could use this function to send some event to the application,
  89:C:/Users/²Ü¼ÒºÀ/.iotlink/sdk/IoT_LINK/iot_link/driver\driver.h **** //something like the device could be read or write or something like this for async call
  90:C:/Users/²Ü¼ÒºÀ/.iotlink/sdk/IoT_LINK/iot_link/driver\driver.h **** 
  91:C:/Users/²Ü¼ÒºÀ/.iotlink/sdk/IoT_LINK/iot_link/driver\driver.h **** //these interface by the application
  92:C:/Users/²Ü¼ÒºÀ/.iotlink/sdk/IoT_LINK/iot_link/driver\driver.h **** los_dev_t  los_dev_open  (const char *name,unsigned int flag);
 193              		.loc 4 92 1 discriminator 3 view .LVU54
  93:C:/Users/²Ü¼ÒºÀ/.iotlink/sdk/IoT_LINK/iot_link/driver\driver.h **** ssize_t    los_dev_read  (los_dev_t dev,size_t offset,void *buf,size_t len,uint32_t timeout);
 194              		.loc 4 93 1 discriminator 3 view .LVU55
  94:C:/Users/²Ü¼ÒºÀ/.iotlink/sdk/IoT_LINK/iot_link/driver\driver.h **** ssize_t    los_dev_write (los_dev_t dev,size_t offset,const void *buf,size_t len, uint32_t timeout)
 195              		.loc 4 94 1 discriminator 3 view .LVU56
  95:C:/Users/²Ü¼ÒºÀ/.iotlink/sdk/IoT_LINK/iot_link/driver\driver.h **** bool_t     los_dev_close (los_dev_t dev);
 196              		.loc 4 95 1 discriminator 3 view .LVU57
  96:C:/Users/²Ü¼ÒºÀ/.iotlink/sdk/IoT_LINK/iot_link/driver\driver.h **** bool_t     los_dev_ioctl (los_dev_t dev,unsigned int cmd,void *para,int paralen);
 197              		.loc 4 96 1 discriminator 3 view .LVU58
  97:C:/Users/²Ü¼ÒºÀ/.iotlink/sdk/IoT_LINK/iot_link/driver\driver.h **** off_t      los_dev_seek  (los_dev_t dev,off_t offset, int fromwhere);
 198              		.loc 4 97 1 discriminator 3 view .LVU59
  86:C:/Users/²Ü¼ÒºÀ/.iotlink/sdk/IoT_LINK/iot_link\link_main.c **** #endif
  87:C:/Users/²Ü¼ÒºÀ/.iotlink/sdk/IoT_LINK/iot_link\link_main.c **** 
  88:C:/Users/²Ü¼ÒºÀ/.iotlink/sdk/IoT_LINK/iot_link\link_main.c ****     /* add loader code here */
  89:C:/Users/²Ü¼ÒºÀ/.iotlink/sdk/IoT_LINK/iot_link\link_main.c **** #ifdef CONFIG_OTA_ENABLE
  90:C:/Users/²Ü¼ÒºÀ/.iotlink/sdk/IoT_LINK/iot_link\link_main.c ****     #include <ota_init.h>
  91:C:/Users/²Ü¼ÒºÀ/.iotlink/sdk/IoT_LINK/iot_link\link_main.c ****     ota_init();
  92:C:/Users/²Ü¼ÒºÀ/.iotlink/sdk/IoT_LINK/iot_link\link_main.c **** #endif
  93:C:/Users/²Ü¼ÒºÀ/.iotlink/sdk/IoT_LINK/iot_link\link_main.c **** 
  94:C:/Users/²Ü¼ÒºÀ/.iotlink/sdk/IoT_LINK/iot_link\link_main.c **** ///< install the driver framework
  95:C:/Users/²Ü¼ÒºÀ/.iotlink/sdk/IoT_LINK/iot_link\link_main.c **** #ifdef CONFIG_DRIVER_ENABLE
  96:C:/Users/²Ü¼ÒºÀ/.iotlink/sdk/IoT_LINK/iot_link\link_main.c ****     #include <driver.h>
  97:C:/Users/²Ü¼ÒºÀ/.iotlink/sdk/IoT_LINK/iot_link\link_main.c ****     ///< install the driver framework for the link
  98:C:/Users/²Ü¼ÒºÀ/.iotlink/sdk/IoT_LINK/iot_link\link_main.c ****     (void)los_driv_init();
 199              		.loc 1 98 5 discriminator 3 view .LVU60
 200              		.loc 1 98 11 is_stmt 0 discriminator 3 view .LVU61
 201 004e FFF7FEFF 		bl	los_driv_init
 202              	.LVL11:
 203              		.file 5 "C:/Users/\262\334\274\322\272\300/.iotlink/sdk/IoT_LINK/iot_link/at/at.h"
   1:C:/Users/²Ü¼ÒºÀ/.iotlink/sdk/IoT_LINK/iot_link/at\at.h **** /*----------------------------------------------------------------------------
   2:C:/Users/²Ü¼ÒºÀ/.iotlink/sdk/IoT_LINK/iot_link/at\at.h ****  * Copyright (c) <2016-2018>, <Huawei Technologies Co., Ltd>
   3:C:/Users/²Ü¼ÒºÀ/.iotlink/sdk/IoT_LINK/iot_link/at\at.h ****  * All rights reserved.
   4:C:/Users/²Ü¼ÒºÀ/.iotlink/sdk/IoT_LINK/iot_link/at\at.h ****  * Redistribution and use in source and binary forms, with or without modification,
   5:C:/Users/²Ü¼ÒºÀ/.iotlink/sdk/IoT_LINK/iot_link/at\at.h ****  * are permitted provided that the following conditions are met:
   6:C:/Users/²Ü¼ÒºÀ/.iotlink/sdk/IoT_LINK/iot_link/at\at.h ****  * 1. Redistributions of source code must retain the above copyright notice, this list of
   7:C:/Users/²Ü¼ÒºÀ/.iotlink/sdk/IoT_LINK/iot_link/at\at.h ****  * conditions and the following disclaimer.
   8:C:/Users/²Ü¼ÒºÀ/.iotlink/sdk/IoT_LINK/iot_link/at\at.h ****  * 2. Redistributions in binary form must reproduce the above copyright notice, this list
   9:C:/Users/²Ü¼ÒºÀ/.iotlink/sdk/IoT_LINK/iot_link/at\at.h ****  * of conditions and the following disclaimer in the documentation and/or other materials
ARM GAS  C:\Users\²Ü¼ÒºÀ\AppData\Local\Temp\cco1ZmL6.s 			page 12


  10:C:/Users/²Ü¼ÒºÀ/.iotlink/sdk/IoT_LINK/iot_link/at\at.h ****  * provided with the distribution.
  11:C:/Users/²Ü¼ÒºÀ/.iotlink/sdk/IoT_LINK/iot_link/at\at.h ****  * 3. Neither the name of the copyright holder nor the names of its contributors may be used
  12:C:/Users/²Ü¼ÒºÀ/.iotlink/sdk/IoT_LINK/iot_link/at\at.h ****  * to endorse or promote products derived from this software without specific prior written
  13:C:/Users/²Ü¼ÒºÀ/.iotlink/sdk/IoT_LINK/iot_link/at\at.h ****  * permission.
  14:C:/Users/²Ü¼ÒºÀ/.iotlink/sdk/IoT_LINK/iot_link/at\at.h ****  * THIS SOFTWARE IS PROVIDED BY THE COPYRIGHT HOLDERS AND CONTRIBUTORS
  15:C:/Users/²Ü¼ÒºÀ/.iotlink/sdk/IoT_LINK/iot_link/at\at.h ****  * "AS IS" AND ANY EXPRESS OR IMPLIED WARRANTIES, INCLUDING, BUT NOT LIMITED TO,
  16:C:/Users/²Ü¼ÒºÀ/.iotlink/sdk/IoT_LINK/iot_link/at\at.h ****  * THE IMPLIED WARRANTIES OF MERCHANTABILITY AND FITNESS FOR A PARTICULAR
  17:C:/Users/²Ü¼ÒºÀ/.iotlink/sdk/IoT_LINK/iot_link/at\at.h ****  * PURPOSE ARE DISCLAIMED. IN NO EVENT SHALL THE COPYRIGHT HOLDER OR
  18:C:/Users/²Ü¼ÒºÀ/.iotlink/sdk/IoT_LINK/iot_link/at\at.h ****  * CONTRIBUTORS BE LIABLE FOR ANY DIRECT, INDIRECT, INCIDENTAL, SPECIAL,
  19:C:/Users/²Ü¼ÒºÀ/.iotlink/sdk/IoT_LINK/iot_link/at\at.h ****  * EXEMPLARY, OR CONSEQUENTIAL DAMAGES (INCLUDING, BUT NOT LIMITED TO,
  20:C:/Users/²Ü¼ÒºÀ/.iotlink/sdk/IoT_LINK/iot_link/at\at.h ****  * PROCUREMENT OF SUBSTITUTE GOODS OR SERVICES; LOSS OF USE, DATA, OR PROFITS;
  21:C:/Users/²Ü¼ÒºÀ/.iotlink/sdk/IoT_LINK/iot_link/at\at.h ****  * OR BUSINESS INTERRUPTION) HOWEVER CAUSED AND ON ANY THEORY OF LIABILITY,
  22:C:/Users/²Ü¼ÒºÀ/.iotlink/sdk/IoT_LINK/iot_link/at\at.h ****  * WHETHER IN CONTRACT, STRICT LIABILITY, OR TORT (INCLUDING NEGLIGENCE OR
  23:C:/Users/²Ü¼ÒºÀ/.iotlink/sdk/IoT_LINK/iot_link/at\at.h ****  * OTHERWISE) ARISING IN ANY WAY OUT OF THE USE OF THIS SOFTWARE, EVEN IF
  24:C:/Users/²Ü¼ÒºÀ/.iotlink/sdk/IoT_LINK/iot_link/at\at.h ****  * ADVISED OF THE POSSIBILITY OF SUCH DAMAGE.
  25:C:/Users/²Ü¼ÒºÀ/.iotlink/sdk/IoT_LINK/iot_link/at\at.h ****  *---------------------------------------------------------------------------*/
  26:C:/Users/²Ü¼ÒºÀ/.iotlink/sdk/IoT_LINK/iot_link/at\at.h **** /*----------------------------------------------------------------------------
  27:C:/Users/²Ü¼ÒºÀ/.iotlink/sdk/IoT_LINK/iot_link/at\at.h ****  * Notice of Export Control Law
  28:C:/Users/²Ü¼ÒºÀ/.iotlink/sdk/IoT_LINK/iot_link/at\at.h ****  * ===============================================
  29:C:/Users/²Ü¼ÒºÀ/.iotlink/sdk/IoT_LINK/iot_link/at\at.h ****  * Huawei LiteOS may be subject to applicable export control laws and regulations, which might
  30:C:/Users/²Ü¼ÒºÀ/.iotlink/sdk/IoT_LINK/iot_link/at\at.h ****  * include those applicable to Huawei LiteOS of U.S. and the country in which you are located.
  31:C:/Users/²Ü¼ÒºÀ/.iotlink/sdk/IoT_LINK/iot_link/at\at.h ****  * Import, export and usage of Huawei LiteOS in any manner by you shall be in compliance with such
  32:C:/Users/²Ü¼ÒºÀ/.iotlink/sdk/IoT_LINK/iot_link/at\at.h ****  * applicable export control laws and regulations.
  33:C:/Users/²Ü¼ÒºÀ/.iotlink/sdk/IoT_LINK/iot_link/at\at.h ****  *---------------------------------------------------------------------------*/
  34:C:/Users/²Ü¼ÒºÀ/.iotlink/sdk/IoT_LINK/iot_link/at\at.h **** 
  35:C:/Users/²Ü¼ÒºÀ/.iotlink/sdk/IoT_LINK/iot_link/at\at.h **** #ifndef __AT_H
  36:C:/Users/²Ü¼ÒºÀ/.iotlink/sdk/IoT_LINK/iot_link/at\at.h **** #define __AT_H
  37:C:/Users/²Ü¼ÒºÀ/.iotlink/sdk/IoT_LINK/iot_link/at\at.h **** 
  38:C:/Users/²Ü¼ÒºÀ/.iotlink/sdk/IoT_LINK/iot_link/at\at.h **** #include <stdint.h>
  39:C:/Users/²Ü¼ÒºÀ/.iotlink/sdk/IoT_LINK/iot_link/at\at.h **** #include <stddef.h>
  40:C:/Users/²Ü¼ÒºÀ/.iotlink/sdk/IoT_LINK/iot_link/at\at.h **** #include <stdio.h>
  41:C:/Users/²Ü¼ÒºÀ/.iotlink/sdk/IoT_LINK/iot_link/at\at.h **** #include <osal.h>
  42:C:/Users/²Ü¼ÒºÀ/.iotlink/sdk/IoT_LINK/iot_link/at\at.h **** 
  43:C:/Users/²Ü¼ÒºÀ/.iotlink/sdk/IoT_LINK/iot_link/at\at.h **** 
  44:C:/Users/²Ü¼ÒºÀ/.iotlink/sdk/IoT_LINK/iot_link/at\at.h **** typedef int (*fn_at_oob)(void *args,void *data,size_t datalen);
 204              		.loc 5 44 1 is_stmt 1 discriminator 3 view .LVU62
  45:C:/Users/²Ü¼ÒºÀ/.iotlink/sdk/IoT_LINK/iot_link/at\at.h **** 
  46:C:/Users/²Ü¼ÒºÀ/.iotlink/sdk/IoT_LINK/iot_link/at\at.h **** 
  47:C:/Users/²Ü¼ÒºÀ/.iotlink/sdk/IoT_LINK/iot_link/at\at.h **** /**
  48:C:/Users/²Ü¼ÒºÀ/.iotlink/sdk/IoT_LINK/iot_link/at\at.h ****  * @brief: use this function to do the at client framwork initialized
  49:C:/Users/²Ü¼ÒºÀ/.iotlink/sdk/IoT_LINK/iot_link/at\at.h ****  *
  50:C:/Users/²Ü¼ÒºÀ/.iotlink/sdk/IoT_LINK/iot_link/at\at.h ****  * @return:0 success while -1 failed
  51:C:/Users/²Ü¼ÒºÀ/.iotlink/sdk/IoT_LINK/iot_link/at\at.h ****  * */
  52:C:/Users/²Ü¼ÒºÀ/.iotlink/sdk/IoT_LINK/iot_link/at\at.h **** int at_init();
 205              		.loc 5 52 1 discriminator 3 view .LVU63
  53:C:/Users/²Ü¼ÒºÀ/.iotlink/sdk/IoT_LINK/iot_link/at\at.h **** 
  54:C:/Users/²Ü¼ÒºÀ/.iotlink/sdk/IoT_LINK/iot_link/at\at.h **** /**
  55:C:/Users/²Ü¼ÒºÀ/.iotlink/sdk/IoT_LINK/iot_link/at\at.h ****  * @brief:use this function to register a function that monitor the URC message
  56:C:/Users/²Ü¼ÒºÀ/.iotlink/sdk/IoT_LINK/iot_link/at\at.h ****  * @param[in]:name, which used for the at framework debug
  57:C:/Users/²Ü¼ÒºÀ/.iotlink/sdk/IoT_LINK/iot_link/at\at.h ****  * @param[in]:inxdex, used for match the out of band data
  58:C:/Users/²Ü¼ÒºÀ/.iotlink/sdk/IoT_LINK/iot_link/at\at.h ****  * @param[in]:length, index length, this is match length
  59:C:/Users/²Ü¼ÒºÀ/.iotlink/sdk/IoT_LINK/iot_link/at\at.h ****  * @param[in]:func, supply the function that will execute when the index is matched
  60:C:/Users/²Ü¼ÒºÀ/.iotlink/sdk/IoT_LINK/iot_link/at\at.h ****  * @paarm[in]:args, supply for the registered function
  61:C:/Users/²Ü¼ÒºÀ/.iotlink/sdk/IoT_LINK/iot_link/at\at.h ****  *
  62:C:/Users/²Ü¼ÒºÀ/.iotlink/sdk/IoT_LINK/iot_link/at\at.h ****  * @return:0 success while -1 failed
  63:C:/Users/²Ü¼ÒºÀ/.iotlink/sdk/IoT_LINK/iot_link/at\at.h ****  * */
  64:C:/Users/²Ü¼ÒºÀ/.iotlink/sdk/IoT_LINK/iot_link/at\at.h **** int at_oobregister(const char *name,const void *index,size_t len,fn_at_oob func,void *args);
ARM GAS  C:\Users\²Ü¼ÒºÀ\AppData\Local\Temp\cco1ZmL6.s 			page 13


 206              		.loc 5 64 1 discriminator 3 view .LVU64
  65:C:/Users/²Ü¼ÒºÀ/.iotlink/sdk/IoT_LINK/iot_link/at\at.h **** 
  66:C:/Users/²Ü¼ÒºÀ/.iotlink/sdk/IoT_LINK/iot_link/at\at.h **** /**
  67:C:/Users/²Ü¼ÒºÀ/.iotlink/sdk/IoT_LINK/iot_link/at\at.h ****  * @brief:use this function to register a function that monitor the URC message
  68:C:/Users/²Ü¼ÒºÀ/.iotlink/sdk/IoT_LINK/iot_link/at\at.h ****  * @param[in]:cmd, the command to send
  69:C:/Users/²Ü¼ÒºÀ/.iotlink/sdk/IoT_LINK/iot_link/at\at.h ****  * @param[in]:cmdlen, the command length
  70:C:/Users/²Ü¼ÒºÀ/.iotlink/sdk/IoT_LINK/iot_link/at\at.h ****  * @param[in]:index, the command index, if you don't need the response, set it to NULL; this must b
  71:C:/Users/²Ü¼ÒºÀ/.iotlink/sdk/IoT_LINK/iot_link/at\at.h ****  * @param[in]:respbuf, if you need the response, you should supply the buffer
  72:C:/Users/²Ü¼ÒºÀ/.iotlink/sdk/IoT_LINK/iot_link/at\at.h ****  * @param[in]:respbuflen,the respbuf length
  73:C:/Users/²Ü¼ÒºÀ/.iotlink/sdk/IoT_LINK/iot_link/at\at.h ****  * @param[in]:timeout, the time you may wait for the response;and the unit is ms
  74:C:/Users/²Ü¼ÒºÀ/.iotlink/sdk/IoT_LINK/iot_link/at\at.h ****  *
  75:C:/Users/²Ü¼ÒºÀ/.iotlink/sdk/IoT_LINK/iot_link/at\at.h ****  * @return:>=0 success (return the received data length) while -1 failed
  76:C:/Users/²Ü¼ÒºÀ/.iotlink/sdk/IoT_LINK/iot_link/at\at.h ****  * */
  77:C:/Users/²Ü¼ÒºÀ/.iotlink/sdk/IoT_LINK/iot_link/at\at.h **** 
  78:C:/Users/²Ü¼ÒºÀ/.iotlink/sdk/IoT_LINK/iot_link/at\at.h **** int at_command(const void *cmd, size_t cmdlen,const char *index,\
 207              		.loc 5 78 1 discriminator 3 view .LVU65
  79:C:/Users/²Ü¼ÒºÀ/.iotlink/sdk/IoT_LINK/iot_link/at\at.h ****                 void *respbuf,size_t respbuflen,uint32_t timeout);
  80:C:/Users/²Ü¼ÒºÀ/.iotlink/sdk/IoT_LINK/iot_link/at\at.h **** 
  81:C:/Users/²Ü¼ÒºÀ/.iotlink/sdk/IoT_LINK/iot_link/at\at.h **** int at_streammode_set(int mode);
 208              		.loc 5 81 1 discriminator 3 view .LVU66
  82:C:/Users/²Ü¼ÒºÀ/.iotlink/sdk/IoT_LINK/iot_link/at\at.h **** 
  83:C:/Users/²Ü¼ÒºÀ/.iotlink/sdk/IoT_LINK/iot_link/at\at.h **** int at_debugclose(void);
 209              		.loc 5 83 1 discriminator 3 view .LVU67
  99:C:/Users/²Ü¼ÒºÀ/.iotlink/sdk/IoT_LINK/iot_link\link_main.c **** #endif
 100:C:/Users/²Ü¼ÒºÀ/.iotlink/sdk/IoT_LINK/iot_link\link_main.c **** 
 101:C:/Users/²Ü¼ÒºÀ/.iotlink/sdk/IoT_LINK/iot_link\link_main.c **** 
 102:C:/Users/²Ü¼ÒºÀ/.iotlink/sdk/IoT_LINK/iot_link\link_main.c **** ///< install the at framework
 103:C:/Users/²Ü¼ÒºÀ/.iotlink/sdk/IoT_LINK/iot_link\link_main.c **** #ifdef CONFIG_AT_ENABLE
 104:C:/Users/²Ü¼ÒºÀ/.iotlink/sdk/IoT_LINK/iot_link\link_main.c ****     #include <at.h>
 105:C:/Users/²Ü¼ÒºÀ/.iotlink/sdk/IoT_LINK/iot_link\link_main.c ****     (void)at_init();
 210              		.loc 1 105 5 discriminator 3 view .LVU68
 211              		.loc 1 105 11 is_stmt 0 discriminator 3 view .LVU69
 212 0052 FFF7FEFF 		bl	at_init
 213              	.LVL12:
 214              		.file 6 "C:/Users/\262\334\274\322\272\300/.iotlink/sdk/IoT_LINK/iot_link/cJSON/cJSON.h"
   1:C:/Users/²Ü¼ÒºÀ/.iotlink/sdk/IoT_LINK/iot_link/cJSON\cJSON.h **** /*
   2:C:/Users/²Ü¼ÒºÀ/.iotlink/sdk/IoT_LINK/iot_link/cJSON\cJSON.h ****   Copyright (c) 2009-2017 Dave Gamble and cJSON contributors
   3:C:/Users/²Ü¼ÒºÀ/.iotlink/sdk/IoT_LINK/iot_link/cJSON\cJSON.h **** 
   4:C:/Users/²Ü¼ÒºÀ/.iotlink/sdk/IoT_LINK/iot_link/cJSON\cJSON.h ****   Permission is hereby granted, free of charge, to any person obtaining a copy
   5:C:/Users/²Ü¼ÒºÀ/.iotlink/sdk/IoT_LINK/iot_link/cJSON\cJSON.h ****   of this software and associated documentation files (the "Software"), to deal
   6:C:/Users/²Ü¼ÒºÀ/.iotlink/sdk/IoT_LINK/iot_link/cJSON\cJSON.h ****   in the Software without restriction, including without limitation the rights
   7:C:/Users/²Ü¼ÒºÀ/.iotlink/sdk/IoT_LINK/iot_link/cJSON\cJSON.h ****   to use, copy, modify, merge, publish, distribute, sublicense, and/or sell
   8:C:/Users/²Ü¼ÒºÀ/.iotlink/sdk/IoT_LINK/iot_link/cJSON\cJSON.h ****   copies of the Software, and to permit persons to whom the Software is
   9:C:/Users/²Ü¼ÒºÀ/.iotlink/sdk/IoT_LINK/iot_link/cJSON\cJSON.h ****   furnished to do so, subject to the following conditions:
  10:C:/Users/²Ü¼ÒºÀ/.iotlink/sdk/IoT_LINK/iot_link/cJSON\cJSON.h **** 
  11:C:/Users/²Ü¼ÒºÀ/.iotlink/sdk/IoT_LINK/iot_link/cJSON\cJSON.h ****   The above copyright notice and this permission notice shall be included in
  12:C:/Users/²Ü¼ÒºÀ/.iotlink/sdk/IoT_LINK/iot_link/cJSON\cJSON.h ****   all copies or substantial portions of the Software.
  13:C:/Users/²Ü¼ÒºÀ/.iotlink/sdk/IoT_LINK/iot_link/cJSON\cJSON.h **** 
  14:C:/Users/²Ü¼ÒºÀ/.iotlink/sdk/IoT_LINK/iot_link/cJSON\cJSON.h ****   THE SOFTWARE IS PROVIDED "AS IS", WITHOUT WARRANTY OF ANY KIND, EXPRESS OR
  15:C:/Users/²Ü¼ÒºÀ/.iotlink/sdk/IoT_LINK/iot_link/cJSON\cJSON.h ****   IMPLIED, INCLUDING BUT NOT LIMITED TO THE WARRANTIES OF MERCHANTABILITY,
  16:C:/Users/²Ü¼ÒºÀ/.iotlink/sdk/IoT_LINK/iot_link/cJSON\cJSON.h ****   FITNESS FOR A PARTICULAR PURPOSE AND NONINFRINGEMENT. IN NO EVENT SHALL THE
  17:C:/Users/²Ü¼ÒºÀ/.iotlink/sdk/IoT_LINK/iot_link/cJSON\cJSON.h ****   AUTHORS OR COPYRIGHT HOLDERS BE LIABLE FOR ANY CLAIM, DAMAGES OR OTHER
  18:C:/Users/²Ü¼ÒºÀ/.iotlink/sdk/IoT_LINK/iot_link/cJSON\cJSON.h ****   LIABILITY, WHETHER IN AN ACTION OF CONTRACT, TORT OR OTHERWISE, ARISING FROM,
  19:C:/Users/²Ü¼ÒºÀ/.iotlink/sdk/IoT_LINK/iot_link/cJSON\cJSON.h ****   OUT OF OR IN CONNECTION WITH THE SOFTWARE OR THE USE OR OTHER DEALINGS IN
  20:C:/Users/²Ü¼ÒºÀ/.iotlink/sdk/IoT_LINK/iot_link/cJSON\cJSON.h ****   THE SOFTWARE.
  21:C:/Users/²Ü¼ÒºÀ/.iotlink/sdk/IoT_LINK/iot_link/cJSON\cJSON.h **** */
  22:C:/Users/²Ü¼ÒºÀ/.iotlink/sdk/IoT_LINK/iot_link/cJSON\cJSON.h **** 
ARM GAS  C:\Users\²Ü¼ÒºÀ\AppData\Local\Temp\cco1ZmL6.s 			page 14


  23:C:/Users/²Ü¼ÒºÀ/.iotlink/sdk/IoT_LINK/iot_link/cJSON\cJSON.h **** #ifndef cJSON__h
  24:C:/Users/²Ü¼ÒºÀ/.iotlink/sdk/IoT_LINK/iot_link/cJSON\cJSON.h **** #define cJSON__h
  25:C:/Users/²Ü¼ÒºÀ/.iotlink/sdk/IoT_LINK/iot_link/cJSON\cJSON.h **** 
  26:C:/Users/²Ü¼ÒºÀ/.iotlink/sdk/IoT_LINK/iot_link/cJSON\cJSON.h **** #ifdef __cplusplus
  27:C:/Users/²Ü¼ÒºÀ/.iotlink/sdk/IoT_LINK/iot_link/cJSON\cJSON.h **** extern "C"
  28:C:/Users/²Ü¼ÒºÀ/.iotlink/sdk/IoT_LINK/iot_link/cJSON\cJSON.h **** {
  29:C:/Users/²Ü¼ÒºÀ/.iotlink/sdk/IoT_LINK/iot_link/cJSON\cJSON.h **** #endif
  30:C:/Users/²Ü¼ÒºÀ/.iotlink/sdk/IoT_LINK/iot_link/cJSON\cJSON.h **** 
  31:C:/Users/²Ü¼ÒºÀ/.iotlink/sdk/IoT_LINK/iot_link/cJSON\cJSON.h **** #if !defined(__WINDOWS__) && (defined(WIN32) || defined(WIN64) || defined(_MSC_VER) || defined(_WIN
  32:C:/Users/²Ü¼ÒºÀ/.iotlink/sdk/IoT_LINK/iot_link/cJSON\cJSON.h **** #define __WINDOWS__
  33:C:/Users/²Ü¼ÒºÀ/.iotlink/sdk/IoT_LINK/iot_link/cJSON\cJSON.h **** #endif
  34:C:/Users/²Ü¼ÒºÀ/.iotlink/sdk/IoT_LINK/iot_link/cJSON\cJSON.h **** 
  35:C:/Users/²Ü¼ÒºÀ/.iotlink/sdk/IoT_LINK/iot_link/cJSON\cJSON.h **** #ifdef __WINDOWS__
  36:C:/Users/²Ü¼ÒºÀ/.iotlink/sdk/IoT_LINK/iot_link/cJSON\cJSON.h **** 
  37:C:/Users/²Ü¼ÒºÀ/.iotlink/sdk/IoT_LINK/iot_link/cJSON\cJSON.h **** /* When compiling for windows, we specify a specific calling convention to avoid issues where we ar
  38:C:/Users/²Ü¼ÒºÀ/.iotlink/sdk/IoT_LINK/iot_link/cJSON\cJSON.h **** 
  39:C:/Users/²Ü¼ÒºÀ/.iotlink/sdk/IoT_LINK/iot_link/cJSON\cJSON.h **** CJSON_HIDE_SYMBOLS - Define this in the case where you don't want to ever dllexport symbols
  40:C:/Users/²Ü¼ÒºÀ/.iotlink/sdk/IoT_LINK/iot_link/cJSON\cJSON.h **** CJSON_EXPORT_SYMBOLS - Define this on library build when you want to dllexport symbols (default)
  41:C:/Users/²Ü¼ÒºÀ/.iotlink/sdk/IoT_LINK/iot_link/cJSON\cJSON.h **** CJSON_IMPORT_SYMBOLS - Define this if you want to dllimport symbol
  42:C:/Users/²Ü¼ÒºÀ/.iotlink/sdk/IoT_LINK/iot_link/cJSON\cJSON.h **** 
  43:C:/Users/²Ü¼ÒºÀ/.iotlink/sdk/IoT_LINK/iot_link/cJSON\cJSON.h **** For *nix builds that support visibility attribute, you can define similar behavior by
  44:C:/Users/²Ü¼ÒºÀ/.iotlink/sdk/IoT_LINK/iot_link/cJSON\cJSON.h **** 
  45:C:/Users/²Ü¼ÒºÀ/.iotlink/sdk/IoT_LINK/iot_link/cJSON\cJSON.h **** setting default visibility to hidden by adding
  46:C:/Users/²Ü¼ÒºÀ/.iotlink/sdk/IoT_LINK/iot_link/cJSON\cJSON.h **** -fvisibility=hidden (for gcc)
  47:C:/Users/²Ü¼ÒºÀ/.iotlink/sdk/IoT_LINK/iot_link/cJSON\cJSON.h **** or
  48:C:/Users/²Ü¼ÒºÀ/.iotlink/sdk/IoT_LINK/iot_link/cJSON\cJSON.h **** -xldscope=hidden (for sun cc)
  49:C:/Users/²Ü¼ÒºÀ/.iotlink/sdk/IoT_LINK/iot_link/cJSON\cJSON.h **** to CFLAGS
  50:C:/Users/²Ü¼ÒºÀ/.iotlink/sdk/IoT_LINK/iot_link/cJSON\cJSON.h **** 
  51:C:/Users/²Ü¼ÒºÀ/.iotlink/sdk/IoT_LINK/iot_link/cJSON\cJSON.h **** then using the CJSON_API_VISIBILITY flag to "export" the same symbols the way CJSON_EXPORT_SYMBOLS 
  52:C:/Users/²Ü¼ÒºÀ/.iotlink/sdk/IoT_LINK/iot_link/cJSON\cJSON.h **** 
  53:C:/Users/²Ü¼ÒºÀ/.iotlink/sdk/IoT_LINK/iot_link/cJSON\cJSON.h **** */
  54:C:/Users/²Ü¼ÒºÀ/.iotlink/sdk/IoT_LINK/iot_link/cJSON\cJSON.h **** 
  55:C:/Users/²Ü¼ÒºÀ/.iotlink/sdk/IoT_LINK/iot_link/cJSON\cJSON.h **** #define CJSON_CDECL __cdecl
  56:C:/Users/²Ü¼ÒºÀ/.iotlink/sdk/IoT_LINK/iot_link/cJSON\cJSON.h **** #define CJSON_STDCALL __stdcall
  57:C:/Users/²Ü¼ÒºÀ/.iotlink/sdk/IoT_LINK/iot_link/cJSON\cJSON.h **** 
  58:C:/Users/²Ü¼ÒºÀ/.iotlink/sdk/IoT_LINK/iot_link/cJSON\cJSON.h **** /* export symbols by default, this is necessary for copy pasting the C and header file */
  59:C:/Users/²Ü¼ÒºÀ/.iotlink/sdk/IoT_LINK/iot_link/cJSON\cJSON.h **** #if !defined(CJSON_HIDE_SYMBOLS) && !defined(CJSON_IMPORT_SYMBOLS) && !defined(CJSON_EXPORT_SYMBOLS
  60:C:/Users/²Ü¼ÒºÀ/.iotlink/sdk/IoT_LINK/iot_link/cJSON\cJSON.h **** #define CJSON_EXPORT_SYMBOLS
  61:C:/Users/²Ü¼ÒºÀ/.iotlink/sdk/IoT_LINK/iot_link/cJSON\cJSON.h **** #endif
  62:C:/Users/²Ü¼ÒºÀ/.iotlink/sdk/IoT_LINK/iot_link/cJSON\cJSON.h **** 
  63:C:/Users/²Ü¼ÒºÀ/.iotlink/sdk/IoT_LINK/iot_link/cJSON\cJSON.h **** #if defined(CJSON_HIDE_SYMBOLS)
  64:C:/Users/²Ü¼ÒºÀ/.iotlink/sdk/IoT_LINK/iot_link/cJSON\cJSON.h **** #define CJSON_PUBLIC(type)   type CJSON_STDCALL
  65:C:/Users/²Ü¼ÒºÀ/.iotlink/sdk/IoT_LINK/iot_link/cJSON\cJSON.h **** #elif defined(CJSON_EXPORT_SYMBOLS)
  66:C:/Users/²Ü¼ÒºÀ/.iotlink/sdk/IoT_LINK/iot_link/cJSON\cJSON.h **** #define CJSON_PUBLIC(type)   __declspec(dllexport) type CJSON_STDCALL
  67:C:/Users/²Ü¼ÒºÀ/.iotlink/sdk/IoT_LINK/iot_link/cJSON\cJSON.h **** #elif defined(CJSON_IMPORT_SYMBOLS)
  68:C:/Users/²Ü¼ÒºÀ/.iotlink/sdk/IoT_LINK/iot_link/cJSON\cJSON.h **** #define CJSON_PUBLIC(type)   __declspec(dllimport) type CJSON_STDCALL
  69:C:/Users/²Ü¼ÒºÀ/.iotlink/sdk/IoT_LINK/iot_link/cJSON\cJSON.h **** #endif
  70:C:/Users/²Ü¼ÒºÀ/.iotlink/sdk/IoT_LINK/iot_link/cJSON\cJSON.h **** #else /* !__WINDOWS__ */
  71:C:/Users/²Ü¼ÒºÀ/.iotlink/sdk/IoT_LINK/iot_link/cJSON\cJSON.h **** #define CJSON_CDECL
  72:C:/Users/²Ü¼ÒºÀ/.iotlink/sdk/IoT_LINK/iot_link/cJSON\cJSON.h **** #define CJSON_STDCALL
  73:C:/Users/²Ü¼ÒºÀ/.iotlink/sdk/IoT_LINK/iot_link/cJSON\cJSON.h **** 
  74:C:/Users/²Ü¼ÒºÀ/.iotlink/sdk/IoT_LINK/iot_link/cJSON\cJSON.h **** #if (defined(__GNUC__) || defined(__SUNPRO_CC) || defined (__SUNPRO_C)) && defined(CJSON_API_VISIBI
  75:C:/Users/²Ü¼ÒºÀ/.iotlink/sdk/IoT_LINK/iot_link/cJSON\cJSON.h **** #define CJSON_PUBLIC(type)   __attribute__((visibility("default"))) type
  76:C:/Users/²Ü¼ÒºÀ/.iotlink/sdk/IoT_LINK/iot_link/cJSON\cJSON.h **** #else
  77:C:/Users/²Ü¼ÒºÀ/.iotlink/sdk/IoT_LINK/iot_link/cJSON\cJSON.h **** #define CJSON_PUBLIC(type) type
  78:C:/Users/²Ü¼ÒºÀ/.iotlink/sdk/IoT_LINK/iot_link/cJSON\cJSON.h **** #endif
  79:C:/Users/²Ü¼ÒºÀ/.iotlink/sdk/IoT_LINK/iot_link/cJSON\cJSON.h **** #endif
ARM GAS  C:\Users\²Ü¼ÒºÀ\AppData\Local\Temp\cco1ZmL6.s 			page 15


  80:C:/Users/²Ü¼ÒºÀ/.iotlink/sdk/IoT_LINK/iot_link/cJSON\cJSON.h **** 
  81:C:/Users/²Ü¼ÒºÀ/.iotlink/sdk/IoT_LINK/iot_link/cJSON\cJSON.h **** /* project version */
  82:C:/Users/²Ü¼ÒºÀ/.iotlink/sdk/IoT_LINK/iot_link/cJSON\cJSON.h **** #define CJSON_VERSION_MAJOR 1
  83:C:/Users/²Ü¼ÒºÀ/.iotlink/sdk/IoT_LINK/iot_link/cJSON\cJSON.h **** #define CJSON_VERSION_MINOR 7
  84:C:/Users/²Ü¼ÒºÀ/.iotlink/sdk/IoT_LINK/iot_link/cJSON\cJSON.h **** #define CJSON_VERSION_PATCH 8
  85:C:/Users/²Ü¼ÒºÀ/.iotlink/sdk/IoT_LINK/iot_link/cJSON\cJSON.h **** 
  86:C:/Users/²Ü¼ÒºÀ/.iotlink/sdk/IoT_LINK/iot_link/cJSON\cJSON.h **** #include <stddef.h>
  87:C:/Users/²Ü¼ÒºÀ/.iotlink/sdk/IoT_LINK/iot_link/cJSON\cJSON.h **** 
  88:C:/Users/²Ü¼ÒºÀ/.iotlink/sdk/IoT_LINK/iot_link/cJSON\cJSON.h **** /* cJSON Types: */
  89:C:/Users/²Ü¼ÒºÀ/.iotlink/sdk/IoT_LINK/iot_link/cJSON\cJSON.h **** #define cJSON_Invalid (0)
  90:C:/Users/²Ü¼ÒºÀ/.iotlink/sdk/IoT_LINK/iot_link/cJSON\cJSON.h **** #define cJSON_False  (1 << 0)
  91:C:/Users/²Ü¼ÒºÀ/.iotlink/sdk/IoT_LINK/iot_link/cJSON\cJSON.h **** #define cJSON_True   (1 << 1)
  92:C:/Users/²Ü¼ÒºÀ/.iotlink/sdk/IoT_LINK/iot_link/cJSON\cJSON.h **** #define cJSON_NULL   (1 << 2)
  93:C:/Users/²Ü¼ÒºÀ/.iotlink/sdk/IoT_LINK/iot_link/cJSON\cJSON.h **** #define cJSON_Number (1 << 3)
  94:C:/Users/²Ü¼ÒºÀ/.iotlink/sdk/IoT_LINK/iot_link/cJSON\cJSON.h **** #define cJSON_String (1 << 4)
  95:C:/Users/²Ü¼ÒºÀ/.iotlink/sdk/IoT_LINK/iot_link/cJSON\cJSON.h **** #define cJSON_Array  (1 << 5)
  96:C:/Users/²Ü¼ÒºÀ/.iotlink/sdk/IoT_LINK/iot_link/cJSON\cJSON.h **** #define cJSON_Object (1 << 6)
  97:C:/Users/²Ü¼ÒºÀ/.iotlink/sdk/IoT_LINK/iot_link/cJSON\cJSON.h **** #define cJSON_Raw    (1 << 7) /* raw json */
  98:C:/Users/²Ü¼ÒºÀ/.iotlink/sdk/IoT_LINK/iot_link/cJSON\cJSON.h **** 
  99:C:/Users/²Ü¼ÒºÀ/.iotlink/sdk/IoT_LINK/iot_link/cJSON\cJSON.h **** #define cJSON_IsReference 256
 100:C:/Users/²Ü¼ÒºÀ/.iotlink/sdk/IoT_LINK/iot_link/cJSON\cJSON.h **** #define cJSON_StringIsConst 512
 101:C:/Users/²Ü¼ÒºÀ/.iotlink/sdk/IoT_LINK/iot_link/cJSON\cJSON.h **** 
 102:C:/Users/²Ü¼ÒºÀ/.iotlink/sdk/IoT_LINK/iot_link/cJSON\cJSON.h **** /* The cJSON structure: */
 103:C:/Users/²Ü¼ÒºÀ/.iotlink/sdk/IoT_LINK/iot_link/cJSON\cJSON.h **** typedef struct cJSON
 215              		.loc 6 103 1 is_stmt 1 discriminator 3 view .LVU70
 104:C:/Users/²Ü¼ÒºÀ/.iotlink/sdk/IoT_LINK/iot_link/cJSON\cJSON.h **** {
 105:C:/Users/²Ü¼ÒºÀ/.iotlink/sdk/IoT_LINK/iot_link/cJSON\cJSON.h ****     /* next/prev allow you to walk array/object chains. Alternatively, use GetArraySize/GetArrayIte
 106:C:/Users/²Ü¼ÒºÀ/.iotlink/sdk/IoT_LINK/iot_link/cJSON\cJSON.h ****     struct cJSON *next;
 107:C:/Users/²Ü¼ÒºÀ/.iotlink/sdk/IoT_LINK/iot_link/cJSON\cJSON.h ****     struct cJSON *prev;
 108:C:/Users/²Ü¼ÒºÀ/.iotlink/sdk/IoT_LINK/iot_link/cJSON\cJSON.h ****     /* An array or object item will have a child pointer pointing to a chain of the items in the ar
 109:C:/Users/²Ü¼ÒºÀ/.iotlink/sdk/IoT_LINK/iot_link/cJSON\cJSON.h ****     struct cJSON *child;
 110:C:/Users/²Ü¼ÒºÀ/.iotlink/sdk/IoT_LINK/iot_link/cJSON\cJSON.h **** 
 111:C:/Users/²Ü¼ÒºÀ/.iotlink/sdk/IoT_LINK/iot_link/cJSON\cJSON.h ****     /* The type of the item, as above. */
 112:C:/Users/²Ü¼ÒºÀ/.iotlink/sdk/IoT_LINK/iot_link/cJSON\cJSON.h ****     int type;
 113:C:/Users/²Ü¼ÒºÀ/.iotlink/sdk/IoT_LINK/iot_link/cJSON\cJSON.h **** 
 114:C:/Users/²Ü¼ÒºÀ/.iotlink/sdk/IoT_LINK/iot_link/cJSON\cJSON.h ****     /* The item's string, if type==cJSON_String  and type == cJSON_Raw */
 115:C:/Users/²Ü¼ÒºÀ/.iotlink/sdk/IoT_LINK/iot_link/cJSON\cJSON.h ****     char *valuestring;
 116:C:/Users/²Ü¼ÒºÀ/.iotlink/sdk/IoT_LINK/iot_link/cJSON\cJSON.h ****     /* writing to valueint is DEPRECATED, use cJSON_SetNumberValue instead */
 117:C:/Users/²Ü¼ÒºÀ/.iotlink/sdk/IoT_LINK/iot_link/cJSON\cJSON.h ****     int valueint;
 118:C:/Users/²Ü¼ÒºÀ/.iotlink/sdk/IoT_LINK/iot_link/cJSON\cJSON.h ****     /* The item's number, if type==cJSON_Number */
 119:C:/Users/²Ü¼ÒºÀ/.iotlink/sdk/IoT_LINK/iot_link/cJSON\cJSON.h ****     double valuedouble;
 120:C:/Users/²Ü¼ÒºÀ/.iotlink/sdk/IoT_LINK/iot_link/cJSON\cJSON.h **** 
 121:C:/Users/²Ü¼ÒºÀ/.iotlink/sdk/IoT_LINK/iot_link/cJSON\cJSON.h ****     /* The item's name string, if this item is the child of, or is in the list of subitems of an ob
 122:C:/Users/²Ü¼ÒºÀ/.iotlink/sdk/IoT_LINK/iot_link/cJSON\cJSON.h ****     char *string;
 123:C:/Users/²Ü¼ÒºÀ/.iotlink/sdk/IoT_LINK/iot_link/cJSON\cJSON.h **** } cJSON;
 124:C:/Users/²Ü¼ÒºÀ/.iotlink/sdk/IoT_LINK/iot_link/cJSON\cJSON.h **** 
 125:C:/Users/²Ü¼ÒºÀ/.iotlink/sdk/IoT_LINK/iot_link/cJSON\cJSON.h **** typedef struct cJSON_Hooks
 216              		.loc 6 125 1 discriminator 3 view .LVU71
 126:C:/Users/²Ü¼ÒºÀ/.iotlink/sdk/IoT_LINK/iot_link/cJSON\cJSON.h **** {
 127:C:/Users/²Ü¼ÒºÀ/.iotlink/sdk/IoT_LINK/iot_link/cJSON\cJSON.h ****       /* malloc/free are CDECL on Windows regardless of the default calling convention of the compi
 128:C:/Users/²Ü¼ÒºÀ/.iotlink/sdk/IoT_LINK/iot_link/cJSON\cJSON.h ****       void *(CJSON_CDECL *malloc_fn)(size_t sz);
 129:C:/Users/²Ü¼ÒºÀ/.iotlink/sdk/IoT_LINK/iot_link/cJSON\cJSON.h ****       void (CJSON_CDECL *free_fn)(void *ptr);
 130:C:/Users/²Ü¼ÒºÀ/.iotlink/sdk/IoT_LINK/iot_link/cJSON\cJSON.h **** } cJSON_Hooks;
 131:C:/Users/²Ü¼ÒºÀ/.iotlink/sdk/IoT_LINK/iot_link/cJSON\cJSON.h **** 
 132:C:/Users/²Ü¼ÒºÀ/.iotlink/sdk/IoT_LINK/iot_link/cJSON\cJSON.h **** typedef int cJSON_bool;
 217              		.loc 6 132 1 discriminator 3 view .LVU72
 133:C:/Users/²Ü¼ÒºÀ/.iotlink/sdk/IoT_LINK/iot_link/cJSON\cJSON.h **** 
ARM GAS  C:\Users\²Ü¼ÒºÀ\AppData\Local\Temp\cco1ZmL6.s 			page 16


 134:C:/Users/²Ü¼ÒºÀ/.iotlink/sdk/IoT_LINK/iot_link/cJSON\cJSON.h **** /* Limits how deeply nested arrays/objects can be before cJSON rejects to parse them.
 135:C:/Users/²Ü¼ÒºÀ/.iotlink/sdk/IoT_LINK/iot_link/cJSON\cJSON.h ****  * This is to prevent stack overflows. */
 136:C:/Users/²Ü¼ÒºÀ/.iotlink/sdk/IoT_LINK/iot_link/cJSON\cJSON.h **** #ifndef CJSON_NESTING_LIMIT
 137:C:/Users/²Ü¼ÒºÀ/.iotlink/sdk/IoT_LINK/iot_link/cJSON\cJSON.h **** #define CJSON_NESTING_LIMIT 10
 138:C:/Users/²Ü¼ÒºÀ/.iotlink/sdk/IoT_LINK/iot_link/cJSON\cJSON.h **** #endif
 139:C:/Users/²Ü¼ÒºÀ/.iotlink/sdk/IoT_LINK/iot_link/cJSON\cJSON.h **** 
 140:C:/Users/²Ü¼ÒºÀ/.iotlink/sdk/IoT_LINK/iot_link/cJSON\cJSON.h **** /* returns the version of cJSON as a string */
 141:C:/Users/²Ü¼ÒºÀ/.iotlink/sdk/IoT_LINK/iot_link/cJSON\cJSON.h **** CJSON_PUBLIC(const char*) cJSON_Version(void);
 218              		.loc 6 141 1 discriminator 3 view .LVU73
 142:C:/Users/²Ü¼ÒºÀ/.iotlink/sdk/IoT_LINK/iot_link/cJSON\cJSON.h **** 
 143:C:/Users/²Ü¼ÒºÀ/.iotlink/sdk/IoT_LINK/iot_link/cJSON\cJSON.h **** /* Supply malloc, realloc and free functions to cJSON */
 144:C:/Users/²Ü¼ÒºÀ/.iotlink/sdk/IoT_LINK/iot_link/cJSON\cJSON.h **** CJSON_PUBLIC(void) cJSON_InitHooks(cJSON_Hooks* hooks);
 219              		.loc 6 144 1 discriminator 3 view .LVU74
 145:C:/Users/²Ü¼ÒºÀ/.iotlink/sdk/IoT_LINK/iot_link/cJSON\cJSON.h **** 
 146:C:/Users/²Ü¼ÒºÀ/.iotlink/sdk/IoT_LINK/iot_link/cJSON\cJSON.h **** /* Memory Management: the caller is always responsible to free the results from all variants of cJS
 147:C:/Users/²Ü¼ÒºÀ/.iotlink/sdk/IoT_LINK/iot_link/cJSON\cJSON.h **** /* Supply a block of JSON, and this returns a cJSON object you can interrogate. */
 148:C:/Users/²Ü¼ÒºÀ/.iotlink/sdk/IoT_LINK/iot_link/cJSON\cJSON.h **** CJSON_PUBLIC(cJSON *) cJSON_Parse(const char *value);
 220              		.loc 6 148 1 discriminator 3 view .LVU75
 149:C:/Users/²Ü¼ÒºÀ/.iotlink/sdk/IoT_LINK/iot_link/cJSON\cJSON.h **** /* ParseWithOpts allows you to require (and check) that the JSON is null terminated, and to retriev
 150:C:/Users/²Ü¼ÒºÀ/.iotlink/sdk/IoT_LINK/iot_link/cJSON\cJSON.h **** /* If you supply a ptr in return_parse_end and parsing fails, then return_parse_end will contain a 
 151:C:/Users/²Ü¼ÒºÀ/.iotlink/sdk/IoT_LINK/iot_link/cJSON\cJSON.h **** CJSON_PUBLIC(cJSON *) cJSON_ParseWithOpts(const char *value, const char **return_parse_end, cJSON_b
 221              		.loc 6 151 1 discriminator 3 view .LVU76
 152:C:/Users/²Ü¼ÒºÀ/.iotlink/sdk/IoT_LINK/iot_link/cJSON\cJSON.h **** 
 153:C:/Users/²Ü¼ÒºÀ/.iotlink/sdk/IoT_LINK/iot_link/cJSON\cJSON.h **** /* Render a cJSON entity to text for transfer/storage. */
 154:C:/Users/²Ü¼ÒºÀ/.iotlink/sdk/IoT_LINK/iot_link/cJSON\cJSON.h **** CJSON_PUBLIC(char *) cJSON_Print(const cJSON *item);
 222              		.loc 6 154 1 discriminator 3 view .LVU77
 155:C:/Users/²Ü¼ÒºÀ/.iotlink/sdk/IoT_LINK/iot_link/cJSON\cJSON.h **** /* Render a cJSON entity to text for transfer/storage without any formatting. */
 156:C:/Users/²Ü¼ÒºÀ/.iotlink/sdk/IoT_LINK/iot_link/cJSON\cJSON.h **** CJSON_PUBLIC(char *) cJSON_PrintUnformatted(const cJSON *item);
 223              		.loc 6 156 1 discriminator 3 view .LVU78
 157:C:/Users/²Ü¼ÒºÀ/.iotlink/sdk/IoT_LINK/iot_link/cJSON\cJSON.h **** /* Render a cJSON entity to text using a buffered strategy. prebuffer is a guess at the final size.
 158:C:/Users/²Ü¼ÒºÀ/.iotlink/sdk/IoT_LINK/iot_link/cJSON\cJSON.h **** CJSON_PUBLIC(char *) cJSON_PrintBuffered(const cJSON *item, int prebuffer, cJSON_bool fmt);
 224              		.loc 6 158 1 discriminator 3 view .LVU79
 159:C:/Users/²Ü¼ÒºÀ/.iotlink/sdk/IoT_LINK/iot_link/cJSON\cJSON.h **** /* Render a cJSON entity to text using a buffer already allocated in memory with given length. Retu
 160:C:/Users/²Ü¼ÒºÀ/.iotlink/sdk/IoT_LINK/iot_link/cJSON\cJSON.h **** /* NOTE: cJSON is not always 100% accurate in estimating how much memory it will use, so to be safe
 161:C:/Users/²Ü¼ÒºÀ/.iotlink/sdk/IoT_LINK/iot_link/cJSON\cJSON.h **** CJSON_PUBLIC(cJSON_bool) cJSON_PrintPreallocated(cJSON *item, char *buffer, const int length, const
 225              		.loc 6 161 1 discriminator 3 view .LVU80
 162:C:/Users/²Ü¼ÒºÀ/.iotlink/sdk/IoT_LINK/iot_link/cJSON\cJSON.h **** /* Delete a cJSON entity and all subentities. */
 163:C:/Users/²Ü¼ÒºÀ/.iotlink/sdk/IoT_LINK/iot_link/cJSON\cJSON.h **** CJSON_PUBLIC(void) cJSON_Delete(cJSON *c);
 226              		.loc 6 163 1 discriminator 3 view .LVU81
 164:C:/Users/²Ü¼ÒºÀ/.iotlink/sdk/IoT_LINK/iot_link/cJSON\cJSON.h **** 
 165:C:/Users/²Ü¼ÒºÀ/.iotlink/sdk/IoT_LINK/iot_link/cJSON\cJSON.h **** /* Returns the number of items in an array (or object). */
 166:C:/Users/²Ü¼ÒºÀ/.iotlink/sdk/IoT_LINK/iot_link/cJSON\cJSON.h **** CJSON_PUBLIC(int) cJSON_GetArraySize(const cJSON *array);
 227              		.loc 6 166 1 discriminator 3 view .LVU82
 167:C:/Users/²Ü¼ÒºÀ/.iotlink/sdk/IoT_LINK/iot_link/cJSON\cJSON.h **** /* Retrieve item number "index" from array "array". Returns NULL if unsuccessful. */
 168:C:/Users/²Ü¼ÒºÀ/.iotlink/sdk/IoT_LINK/iot_link/cJSON\cJSON.h **** CJSON_PUBLIC(cJSON *) cJSON_GetArrayItem(const cJSON *array, int index);
 228              		.loc 6 168 1 discriminator 3 view .LVU83
 169:C:/Users/²Ü¼ÒºÀ/.iotlink/sdk/IoT_LINK/iot_link/cJSON\cJSON.h **** /* Get item "string" from object. Case insensitive. */
 170:C:/Users/²Ü¼ÒºÀ/.iotlink/sdk/IoT_LINK/iot_link/cJSON\cJSON.h **** CJSON_PUBLIC(cJSON *) cJSON_GetObjectItem(const cJSON * const object, const char * const string);
 229              		.loc 6 170 1 discriminator 3 view .LVU84
 171:C:/Users/²Ü¼ÒºÀ/.iotlink/sdk/IoT_LINK/iot_link/cJSON\cJSON.h **** CJSON_PUBLIC(cJSON *) cJSON_GetObjectItemCaseSensitive(const cJSON * const object, const char * con
 230              		.loc 6 171 1 discriminator 3 view .LVU85
 172:C:/Users/²Ü¼ÒºÀ/.iotlink/sdk/IoT_LINK/iot_link/cJSON\cJSON.h **** CJSON_PUBLIC(cJSON_bool) cJSON_HasObjectItem(const cJSON *object, const char *string);
 231              		.loc 6 172 1 discriminator 3 view .LVU86
 173:C:/Users/²Ü¼ÒºÀ/.iotlink/sdk/IoT_LINK/iot_link/cJSON\cJSON.h **** /* For analysing failed parses. This returns a pointer to the parse error. You'll probably need to 
 174:C:/Users/²Ü¼ÒºÀ/.iotlink/sdk/IoT_LINK/iot_link/cJSON\cJSON.h **** CJSON_PUBLIC(const char *) cJSON_GetErrorPtr(void);
 232              		.loc 6 174 1 discriminator 3 view .LVU87
 175:C:/Users/²Ü¼ÒºÀ/.iotlink/sdk/IoT_LINK/iot_link/cJSON\cJSON.h **** 
ARM GAS  C:\Users\²Ü¼ÒºÀ\AppData\Local\Temp\cco1ZmL6.s 			page 17


 176:C:/Users/²Ü¼ÒºÀ/.iotlink/sdk/IoT_LINK/iot_link/cJSON\cJSON.h **** /* Check if the item is a string and return its valuestring */
 177:C:/Users/²Ü¼ÒºÀ/.iotlink/sdk/IoT_LINK/iot_link/cJSON\cJSON.h **** CJSON_PUBLIC(char *) cJSON_GetStringValue(cJSON *item);
 233              		.loc 6 177 1 discriminator 3 view .LVU88
 178:C:/Users/²Ü¼ÒºÀ/.iotlink/sdk/IoT_LINK/iot_link/cJSON\cJSON.h **** 
 179:C:/Users/²Ü¼ÒºÀ/.iotlink/sdk/IoT_LINK/iot_link/cJSON\cJSON.h **** /* These functions check the type of an item */
 180:C:/Users/²Ü¼ÒºÀ/.iotlink/sdk/IoT_LINK/iot_link/cJSON\cJSON.h **** CJSON_PUBLIC(cJSON_bool) cJSON_IsInvalid(const cJSON * const item);
 234              		.loc 6 180 1 discriminator 3 view .LVU89
 181:C:/Users/²Ü¼ÒºÀ/.iotlink/sdk/IoT_LINK/iot_link/cJSON\cJSON.h **** CJSON_PUBLIC(cJSON_bool) cJSON_IsFalse(const cJSON * const item);
 235              		.loc 6 181 1 discriminator 3 view .LVU90
 182:C:/Users/²Ü¼ÒºÀ/.iotlink/sdk/IoT_LINK/iot_link/cJSON\cJSON.h **** CJSON_PUBLIC(cJSON_bool) cJSON_IsTrue(const cJSON * const item);
 236              		.loc 6 182 1 discriminator 3 view .LVU91
 183:C:/Users/²Ü¼ÒºÀ/.iotlink/sdk/IoT_LINK/iot_link/cJSON\cJSON.h **** CJSON_PUBLIC(cJSON_bool) cJSON_IsBool(const cJSON * const item);
 237              		.loc 6 183 1 discriminator 3 view .LVU92
 184:C:/Users/²Ü¼ÒºÀ/.iotlink/sdk/IoT_LINK/iot_link/cJSON\cJSON.h **** CJSON_PUBLIC(cJSON_bool) cJSON_IsNull(const cJSON * const item);
 238              		.loc 6 184 1 discriminator 3 view .LVU93
 185:C:/Users/²Ü¼ÒºÀ/.iotlink/sdk/IoT_LINK/iot_link/cJSON\cJSON.h **** CJSON_PUBLIC(cJSON_bool) cJSON_IsNumber(const cJSON * const item);
 239              		.loc 6 185 1 discriminator 3 view .LVU94
 186:C:/Users/²Ü¼ÒºÀ/.iotlink/sdk/IoT_LINK/iot_link/cJSON\cJSON.h **** CJSON_PUBLIC(cJSON_bool) cJSON_IsString(const cJSON * const item);
 240              		.loc 6 186 1 discriminator 3 view .LVU95
 187:C:/Users/²Ü¼ÒºÀ/.iotlink/sdk/IoT_LINK/iot_link/cJSON\cJSON.h **** CJSON_PUBLIC(cJSON_bool) cJSON_IsArray(const cJSON * const item);
 241              		.loc 6 187 1 discriminator 3 view .LVU96
 188:C:/Users/²Ü¼ÒºÀ/.iotlink/sdk/IoT_LINK/iot_link/cJSON\cJSON.h **** CJSON_PUBLIC(cJSON_bool) cJSON_IsObject(const cJSON * const item);
 242              		.loc 6 188 1 discriminator 3 view .LVU97
 189:C:/Users/²Ü¼ÒºÀ/.iotlink/sdk/IoT_LINK/iot_link/cJSON\cJSON.h **** CJSON_PUBLIC(cJSON_bool) cJSON_IsRaw(const cJSON * const item);
 243              		.loc 6 189 1 discriminator 3 view .LVU98
 190:C:/Users/²Ü¼ÒºÀ/.iotlink/sdk/IoT_LINK/iot_link/cJSON\cJSON.h **** 
 191:C:/Users/²Ü¼ÒºÀ/.iotlink/sdk/IoT_LINK/iot_link/cJSON\cJSON.h **** /* These calls create a cJSON item of the appropriate type. */
 192:C:/Users/²Ü¼ÒºÀ/.iotlink/sdk/IoT_LINK/iot_link/cJSON\cJSON.h **** CJSON_PUBLIC(cJSON *) cJSON_CreateNull(void);
 244              		.loc 6 192 1 discriminator 3 view .LVU99
 193:C:/Users/²Ü¼ÒºÀ/.iotlink/sdk/IoT_LINK/iot_link/cJSON\cJSON.h **** CJSON_PUBLIC(cJSON *) cJSON_CreateTrue(void);
 245              		.loc 6 193 1 discriminator 3 view .LVU100
 194:C:/Users/²Ü¼ÒºÀ/.iotlink/sdk/IoT_LINK/iot_link/cJSON\cJSON.h **** CJSON_PUBLIC(cJSON *) cJSON_CreateFalse(void);
 246              		.loc 6 194 1 discriminator 3 view .LVU101
 195:C:/Users/²Ü¼ÒºÀ/.iotlink/sdk/IoT_LINK/iot_link/cJSON\cJSON.h **** CJSON_PUBLIC(cJSON *) cJSON_CreateBool(cJSON_bool boolean);
 247              		.loc 6 195 1 discriminator 3 view .LVU102
 196:C:/Users/²Ü¼ÒºÀ/.iotlink/sdk/IoT_LINK/iot_link/cJSON\cJSON.h **** CJSON_PUBLIC(cJSON *) cJSON_CreateNumber(double num);
 248              		.loc 6 196 1 discriminator 3 view .LVU103
 197:C:/Users/²Ü¼ÒºÀ/.iotlink/sdk/IoT_LINK/iot_link/cJSON\cJSON.h **** CJSON_PUBLIC(cJSON *) cJSON_CreateString(const char *string);
 249              		.loc 6 197 1 discriminator 3 view .LVU104
 198:C:/Users/²Ü¼ÒºÀ/.iotlink/sdk/IoT_LINK/iot_link/cJSON\cJSON.h **** /* raw json */
 199:C:/Users/²Ü¼ÒºÀ/.iotlink/sdk/IoT_LINK/iot_link/cJSON\cJSON.h **** CJSON_PUBLIC(cJSON *) cJSON_CreateRaw(const char *raw);
 250              		.loc 6 199 1 discriminator 3 view .LVU105
 200:C:/Users/²Ü¼ÒºÀ/.iotlink/sdk/IoT_LINK/iot_link/cJSON\cJSON.h **** CJSON_PUBLIC(cJSON *) cJSON_CreateArray(void);
 251              		.loc 6 200 1 discriminator 3 view .LVU106
 201:C:/Users/²Ü¼ÒºÀ/.iotlink/sdk/IoT_LINK/iot_link/cJSON\cJSON.h **** CJSON_PUBLIC(cJSON *) cJSON_CreateObject(void);
 252              		.loc 6 201 1 discriminator 3 view .LVU107
 202:C:/Users/²Ü¼ÒºÀ/.iotlink/sdk/IoT_LINK/iot_link/cJSON\cJSON.h **** 
 203:C:/Users/²Ü¼ÒºÀ/.iotlink/sdk/IoT_LINK/iot_link/cJSON\cJSON.h **** /* Create a string where valuestring references a string so
 204:C:/Users/²Ü¼ÒºÀ/.iotlink/sdk/IoT_LINK/iot_link/cJSON\cJSON.h ****  * it will not be freed by cJSON_Delete */
 205:C:/Users/²Ü¼ÒºÀ/.iotlink/sdk/IoT_LINK/iot_link/cJSON\cJSON.h **** CJSON_PUBLIC(cJSON *) cJSON_CreateStringReference(const char *string);
 253              		.loc 6 205 1 discriminator 3 view .LVU108
 206:C:/Users/²Ü¼ÒºÀ/.iotlink/sdk/IoT_LINK/iot_link/cJSON\cJSON.h **** /* Create an object/arrray that only references it's elements so
 207:C:/Users/²Ü¼ÒºÀ/.iotlink/sdk/IoT_LINK/iot_link/cJSON\cJSON.h ****  * they will not be freed by cJSON_Delete */
 208:C:/Users/²Ü¼ÒºÀ/.iotlink/sdk/IoT_LINK/iot_link/cJSON\cJSON.h **** CJSON_PUBLIC(cJSON *) cJSON_CreateObjectReference(const cJSON *child);
 254              		.loc 6 208 1 discriminator 3 view .LVU109
 209:C:/Users/²Ü¼ÒºÀ/.iotlink/sdk/IoT_LINK/iot_link/cJSON\cJSON.h **** CJSON_PUBLIC(cJSON *) cJSON_CreateArrayReference(const cJSON *child);
 255              		.loc 6 209 1 discriminator 3 view .LVU110
ARM GAS  C:\Users\²Ü¼ÒºÀ\AppData\Local\Temp\cco1ZmL6.s 			page 18


 210:C:/Users/²Ü¼ÒºÀ/.iotlink/sdk/IoT_LINK/iot_link/cJSON\cJSON.h **** 
 211:C:/Users/²Ü¼ÒºÀ/.iotlink/sdk/IoT_LINK/iot_link/cJSON\cJSON.h **** /* These utilities create an Array of count items. */
 212:C:/Users/²Ü¼ÒºÀ/.iotlink/sdk/IoT_LINK/iot_link/cJSON\cJSON.h **** CJSON_PUBLIC(cJSON *) cJSON_CreateIntArray(const int *numbers, int count);
 256              		.loc 6 212 1 discriminator 3 view .LVU111
 213:C:/Users/²Ü¼ÒºÀ/.iotlink/sdk/IoT_LINK/iot_link/cJSON\cJSON.h **** CJSON_PUBLIC(cJSON *) cJSON_CreateFloatArray(const float *numbers, int count);
 257              		.loc 6 213 1 discriminator 3 view .LVU112
 214:C:/Users/²Ü¼ÒºÀ/.iotlink/sdk/IoT_LINK/iot_link/cJSON\cJSON.h **** CJSON_PUBLIC(cJSON *) cJSON_CreateDoubleArray(const double *numbers, int count);
 258              		.loc 6 214 1 discriminator 3 view .LVU113
 215:C:/Users/²Ü¼ÒºÀ/.iotlink/sdk/IoT_LINK/iot_link/cJSON\cJSON.h **** CJSON_PUBLIC(cJSON *) cJSON_CreateStringArray(const char **strings, int count);
 259              		.loc 6 215 1 discriminator 3 view .LVU114
 216:C:/Users/²Ü¼ÒºÀ/.iotlink/sdk/IoT_LINK/iot_link/cJSON\cJSON.h **** 
 217:C:/Users/²Ü¼ÒºÀ/.iotlink/sdk/IoT_LINK/iot_link/cJSON\cJSON.h **** /* Append item to the specified array/object. */
 218:C:/Users/²Ü¼ÒºÀ/.iotlink/sdk/IoT_LINK/iot_link/cJSON\cJSON.h **** CJSON_PUBLIC(void) cJSON_AddItemToArray(cJSON *array, cJSON *item);
 260              		.loc 6 218 1 discriminator 3 view .LVU115
 219:C:/Users/²Ü¼ÒºÀ/.iotlink/sdk/IoT_LINK/iot_link/cJSON\cJSON.h **** CJSON_PUBLIC(void) cJSON_AddItemToObject(cJSON *object, const char *string, cJSON *item);
 261              		.loc 6 219 1 discriminator 3 view .LVU116
 220:C:/Users/²Ü¼ÒºÀ/.iotlink/sdk/IoT_LINK/iot_link/cJSON\cJSON.h **** /* Use this when string is definitely const (i.e. a literal, or as good as), and will definitely su
 221:C:/Users/²Ü¼ÒºÀ/.iotlink/sdk/IoT_LINK/iot_link/cJSON\cJSON.h ****  * WARNING: When this function was used, make sure to always check that (item->type & cJSON_StringI
 222:C:/Users/²Ü¼ÒºÀ/.iotlink/sdk/IoT_LINK/iot_link/cJSON\cJSON.h ****  * writing to `item->string` */
 223:C:/Users/²Ü¼ÒºÀ/.iotlink/sdk/IoT_LINK/iot_link/cJSON\cJSON.h **** CJSON_PUBLIC(void) cJSON_AddItemToObjectCS(cJSON *object, const char *string, cJSON *item);
 262              		.loc 6 223 1 discriminator 3 view .LVU117
 224:C:/Users/²Ü¼ÒºÀ/.iotlink/sdk/IoT_LINK/iot_link/cJSON\cJSON.h **** /* Append reference to item to the specified array/object. Use this when you want to add an existin
 225:C:/Users/²Ü¼ÒºÀ/.iotlink/sdk/IoT_LINK/iot_link/cJSON\cJSON.h **** CJSON_PUBLIC(void) cJSON_AddItemReferenceToArray(cJSON *array, cJSON *item);
 263              		.loc 6 225 1 discriminator 3 view .LVU118
 226:C:/Users/²Ü¼ÒºÀ/.iotlink/sdk/IoT_LINK/iot_link/cJSON\cJSON.h **** CJSON_PUBLIC(void) cJSON_AddItemReferenceToObject(cJSON *object, const char *string, cJSON *item);
 264              		.loc 6 226 1 discriminator 3 view .LVU119
 227:C:/Users/²Ü¼ÒºÀ/.iotlink/sdk/IoT_LINK/iot_link/cJSON\cJSON.h **** 
 228:C:/Users/²Ü¼ÒºÀ/.iotlink/sdk/IoT_LINK/iot_link/cJSON\cJSON.h **** /* Remove/Detatch items from Arrays/Objects. */
 229:C:/Users/²Ü¼ÒºÀ/.iotlink/sdk/IoT_LINK/iot_link/cJSON\cJSON.h **** CJSON_PUBLIC(cJSON *) cJSON_DetachItemViaPointer(cJSON *parent, cJSON * const item);
 265              		.loc 6 229 1 discriminator 3 view .LVU120
 230:C:/Users/²Ü¼ÒºÀ/.iotlink/sdk/IoT_LINK/iot_link/cJSON\cJSON.h **** CJSON_PUBLIC(cJSON *) cJSON_DetachItemFromArray(cJSON *array, int which);
 266              		.loc 6 230 1 discriminator 3 view .LVU121
 231:C:/Users/²Ü¼ÒºÀ/.iotlink/sdk/IoT_LINK/iot_link/cJSON\cJSON.h **** CJSON_PUBLIC(void) cJSON_DeleteItemFromArray(cJSON *array, int which);
 267              		.loc 6 231 1 discriminator 3 view .LVU122
 232:C:/Users/²Ü¼ÒºÀ/.iotlink/sdk/IoT_LINK/iot_link/cJSON\cJSON.h **** CJSON_PUBLIC(cJSON *) cJSON_DetachItemFromObject(cJSON *object, const char *string);
 268              		.loc 6 232 1 discriminator 3 view .LVU123
 233:C:/Users/²Ü¼ÒºÀ/.iotlink/sdk/IoT_LINK/iot_link/cJSON\cJSON.h **** CJSON_PUBLIC(cJSON *) cJSON_DetachItemFromObjectCaseSensitive(cJSON *object, const char *string);
 269              		.loc 6 233 1 discriminator 3 view .LVU124
 234:C:/Users/²Ü¼ÒºÀ/.iotlink/sdk/IoT_LINK/iot_link/cJSON\cJSON.h **** CJSON_PUBLIC(void) cJSON_DeleteItemFromObject(cJSON *object, const char *string);
 270              		.loc 6 234 1 discriminator 3 view .LVU125
 235:C:/Users/²Ü¼ÒºÀ/.iotlink/sdk/IoT_LINK/iot_link/cJSON\cJSON.h **** CJSON_PUBLIC(void) cJSON_DeleteItemFromObjectCaseSensitive(cJSON *object, const char *string);
 271              		.loc 6 235 1 discriminator 3 view .LVU126
 236:C:/Users/²Ü¼ÒºÀ/.iotlink/sdk/IoT_LINK/iot_link/cJSON\cJSON.h **** 
 237:C:/Users/²Ü¼ÒºÀ/.iotlink/sdk/IoT_LINK/iot_link/cJSON\cJSON.h **** /* Update array items. */
 238:C:/Users/²Ü¼ÒºÀ/.iotlink/sdk/IoT_LINK/iot_link/cJSON\cJSON.h **** CJSON_PUBLIC(void) cJSON_InsertItemInArray(cJSON *array, int which, cJSON *newitem); /* Shifts pre-
 272              		.loc 6 238 1 discriminator 3 view .LVU127
 239:C:/Users/²Ü¼ÒºÀ/.iotlink/sdk/IoT_LINK/iot_link/cJSON\cJSON.h **** CJSON_PUBLIC(cJSON_bool) cJSON_ReplaceItemViaPointer(cJSON * const parent, cJSON * const item, cJSO
 273              		.loc 6 239 1 discriminator 3 view .LVU128
 240:C:/Users/²Ü¼ÒºÀ/.iotlink/sdk/IoT_LINK/iot_link/cJSON\cJSON.h **** CJSON_PUBLIC(void) cJSON_ReplaceItemInArray(cJSON *array, int which, cJSON *newitem);
 274              		.loc 6 240 1 discriminator 3 view .LVU129
 241:C:/Users/²Ü¼ÒºÀ/.iotlink/sdk/IoT_LINK/iot_link/cJSON\cJSON.h **** CJSON_PUBLIC(void) cJSON_ReplaceItemInObject(cJSON *object,const char *string,cJSON *newitem);
 275              		.loc 6 241 1 discriminator 3 view .LVU130
 242:C:/Users/²Ü¼ÒºÀ/.iotlink/sdk/IoT_LINK/iot_link/cJSON\cJSON.h **** CJSON_PUBLIC(void) cJSON_ReplaceItemInObjectCaseSensitive(cJSON *object,const char *string,cJSON *n
 276              		.loc 6 242 1 discriminator 3 view .LVU131
 243:C:/Users/²Ü¼ÒºÀ/.iotlink/sdk/IoT_LINK/iot_link/cJSON\cJSON.h **** 
 244:C:/Users/²Ü¼ÒºÀ/.iotlink/sdk/IoT_LINK/iot_link/cJSON\cJSON.h **** /* Duplicate a cJSON item */
 245:C:/Users/²Ü¼ÒºÀ/.iotlink/sdk/IoT_LINK/iot_link/cJSON\cJSON.h **** CJSON_PUBLIC(cJSON *) cJSON_Duplicate(const cJSON *item, cJSON_bool recurse);
ARM GAS  C:\Users\²Ü¼ÒºÀ\AppData\Local\Temp\cco1ZmL6.s 			page 19


 277              		.loc 6 245 1 discriminator 3 view .LVU132
 246:C:/Users/²Ü¼ÒºÀ/.iotlink/sdk/IoT_LINK/iot_link/cJSON\cJSON.h **** /* Duplicate will create a new, identical cJSON item to the one you pass, in new memory that will
 247:C:/Users/²Ü¼ÒºÀ/.iotlink/sdk/IoT_LINK/iot_link/cJSON\cJSON.h **** need to be released. With recurse!=0, it will duplicate any children connected to the item.
 248:C:/Users/²Ü¼ÒºÀ/.iotlink/sdk/IoT_LINK/iot_link/cJSON\cJSON.h **** The item->next and ->prev pointers are always zero on return from Duplicate. */
 249:C:/Users/²Ü¼ÒºÀ/.iotlink/sdk/IoT_LINK/iot_link/cJSON\cJSON.h **** /* Recursively compare two cJSON items for equality. If either a or b is NULL or invalid, they will
 250:C:/Users/²Ü¼ÒºÀ/.iotlink/sdk/IoT_LINK/iot_link/cJSON\cJSON.h ****  * case_sensitive determines if object keys are treated case sensitive (1) or case insensitive (0) 
 251:C:/Users/²Ü¼ÒºÀ/.iotlink/sdk/IoT_LINK/iot_link/cJSON\cJSON.h **** CJSON_PUBLIC(cJSON_bool) cJSON_Compare(const cJSON * const a, const cJSON * const b, const cJSON_bo
 278              		.loc 6 251 1 discriminator 3 view .LVU133
 252:C:/Users/²Ü¼ÒºÀ/.iotlink/sdk/IoT_LINK/iot_link/cJSON\cJSON.h **** 
 253:C:/Users/²Ü¼ÒºÀ/.iotlink/sdk/IoT_LINK/iot_link/cJSON\cJSON.h **** 
 254:C:/Users/²Ü¼ÒºÀ/.iotlink/sdk/IoT_LINK/iot_link/cJSON\cJSON.h **** CJSON_PUBLIC(void) cJSON_Minify(char *json);
 279              		.loc 6 254 1 discriminator 3 view .LVU134
 255:C:/Users/²Ü¼ÒºÀ/.iotlink/sdk/IoT_LINK/iot_link/cJSON\cJSON.h **** 
 256:C:/Users/²Ü¼ÒºÀ/.iotlink/sdk/IoT_LINK/iot_link/cJSON\cJSON.h **** /* Helper functions for creating and adding items to an object at the same time.
 257:C:/Users/²Ü¼ÒºÀ/.iotlink/sdk/IoT_LINK/iot_link/cJSON\cJSON.h ****  * They return the added item or NULL on failure. */
 258:C:/Users/²Ü¼ÒºÀ/.iotlink/sdk/IoT_LINK/iot_link/cJSON\cJSON.h **** CJSON_PUBLIC(cJSON*) cJSON_AddNullToObject(cJSON * const object, const char * const name);
 280              		.loc 6 258 1 discriminator 3 view .LVU135
 259:C:/Users/²Ü¼ÒºÀ/.iotlink/sdk/IoT_LINK/iot_link/cJSON\cJSON.h **** CJSON_PUBLIC(cJSON*) cJSON_AddTrueToObject(cJSON * const object, const char * const name);
 281              		.loc 6 259 1 discriminator 3 view .LVU136
 260:C:/Users/²Ü¼ÒºÀ/.iotlink/sdk/IoT_LINK/iot_link/cJSON\cJSON.h **** CJSON_PUBLIC(cJSON*) cJSON_AddFalseToObject(cJSON * const object, const char * const name);
 282              		.loc 6 260 1 discriminator 3 view .LVU137
 261:C:/Users/²Ü¼ÒºÀ/.iotlink/sdk/IoT_LINK/iot_link/cJSON\cJSON.h **** CJSON_PUBLIC(cJSON*) cJSON_AddBoolToObject(cJSON * const object, const char * const name, const cJS
 283              		.loc 6 261 1 discriminator 3 view .LVU138
 262:C:/Users/²Ü¼ÒºÀ/.iotlink/sdk/IoT_LINK/iot_link/cJSON\cJSON.h **** CJSON_PUBLIC(cJSON*) cJSON_AddNumberToObject(cJSON * const object, const char * const name, const d
 284              		.loc 6 262 1 discriminator 3 view .LVU139
 263:C:/Users/²Ü¼ÒºÀ/.iotlink/sdk/IoT_LINK/iot_link/cJSON\cJSON.h **** CJSON_PUBLIC(cJSON*) cJSON_AddStringToObject(cJSON * const object, const char * const name, const c
 285              		.loc 6 263 1 discriminator 3 view .LVU140
 264:C:/Users/²Ü¼ÒºÀ/.iotlink/sdk/IoT_LINK/iot_link/cJSON\cJSON.h **** CJSON_PUBLIC(cJSON*) cJSON_AddRawToObject(cJSON * const object, const char * const name, const char
 286              		.loc 6 264 1 discriminator 3 view .LVU141
 265:C:/Users/²Ü¼ÒºÀ/.iotlink/sdk/IoT_LINK/iot_link/cJSON\cJSON.h **** CJSON_PUBLIC(cJSON*) cJSON_AddObjectToObject(cJSON * const object, const char * const name);
 287              		.loc 6 265 1 discriminator 3 view .LVU142
 266:C:/Users/²Ü¼ÒºÀ/.iotlink/sdk/IoT_LINK/iot_link/cJSON\cJSON.h **** CJSON_PUBLIC(cJSON*) cJSON_AddArrayToObject(cJSON * const object, const char * const name);
 288              		.loc 6 266 1 discriminator 3 view .LVU143
 267:C:/Users/²Ü¼ÒºÀ/.iotlink/sdk/IoT_LINK/iot_link/cJSON\cJSON.h **** 
 268:C:/Users/²Ü¼ÒºÀ/.iotlink/sdk/IoT_LINK/iot_link/cJSON\cJSON.h **** /* When assigning an integer value, it needs to be propagated to valuedouble too. */
 269:C:/Users/²Ü¼ÒºÀ/.iotlink/sdk/IoT_LINK/iot_link/cJSON\cJSON.h **** #define cJSON_SetIntValue(object, number) ((object) ? (object)->valueint = (object)->valuedouble = 
 270:C:/Users/²Ü¼ÒºÀ/.iotlink/sdk/IoT_LINK/iot_link/cJSON\cJSON.h **** /* helper for the cJSON_SetNumberValue macro */
 271:C:/Users/²Ü¼ÒºÀ/.iotlink/sdk/IoT_LINK/iot_link/cJSON\cJSON.h **** CJSON_PUBLIC(double) cJSON_SetNumberHelper(cJSON *object, double number);
 289              		.loc 6 271 1 discriminator 3 view .LVU144
 272:C:/Users/²Ü¼ÒºÀ/.iotlink/sdk/IoT_LINK/iot_link/cJSON\cJSON.h **** #define cJSON_SetNumberValue(object, number) ((object != NULL) ? cJSON_SetNumberHelper(object, (dou
 273:C:/Users/²Ü¼ÒºÀ/.iotlink/sdk/IoT_LINK/iot_link/cJSON\cJSON.h **** 
 274:C:/Users/²Ü¼ÒºÀ/.iotlink/sdk/IoT_LINK/iot_link/cJSON\cJSON.h **** /* Macro for iterating over an array or object */
 275:C:/Users/²Ü¼ÒºÀ/.iotlink/sdk/IoT_LINK/iot_link/cJSON\cJSON.h **** #define cJSON_ArrayForEach(element, array) for(element = (array != NULL) ? (array)->child : NULL; e
 276:C:/Users/²Ü¼ÒºÀ/.iotlink/sdk/IoT_LINK/iot_link/cJSON\cJSON.h **** 
 277:C:/Users/²Ü¼ÒºÀ/.iotlink/sdk/IoT_LINK/iot_link/cJSON\cJSON.h **** /* malloc/free objects using the malloc/free functions that have been set with cJSON_InitHooks */
 278:C:/Users/²Ü¼ÒºÀ/.iotlink/sdk/IoT_LINK/iot_link/cJSON\cJSON.h **** CJSON_PUBLIC(void *) cJSON_malloc(size_t size);
 290              		.loc 6 278 1 discriminator 3 view .LVU145
 279:C:/Users/²Ü¼ÒºÀ/.iotlink/sdk/IoT_LINK/iot_link/cJSON\cJSON.h **** CJSON_PUBLIC(void) cJSON_free(void *object);
 291              		.loc 6 279 1 discriminator 3 view .LVU146
 106:C:/Users/²Ü¼ÒºÀ/.iotlink/sdk/IoT_LINK/iot_link\link_main.c **** #endif
 107:C:/Users/²Ü¼ÒºÀ/.iotlink/sdk/IoT_LINK/iot_link\link_main.c **** 
 108:C:/Users/²Ü¼ÒºÀ/.iotlink/sdk/IoT_LINK/iot_link\link_main.c **** ///< install the cJSON, for the oc mqtt agent need the cJSON
 109:C:/Users/²Ü¼ÒºÀ/.iotlink/sdk/IoT_LINK/iot_link\link_main.c **** #ifdef CONFIG_CJSON_ENABLE
 110:C:/Users/²Ü¼ÒºÀ/.iotlink/sdk/IoT_LINK/iot_link\link_main.c ****     #include <cJSON.h>
 111:C:/Users/²Ü¼ÒºÀ/.iotlink/sdk/IoT_LINK/iot_link\link_main.c **** 
 112:C:/Users/²Ü¼ÒºÀ/.iotlink/sdk/IoT_LINK/iot_link\link_main.c ****     cJSON_Hooks  hook;
 292              		.loc 1 112 5 discriminator 3 view .LVU147
ARM GAS  C:\Users\²Ü¼ÒºÀ\AppData\Local\Temp\cco1ZmL6.s 			page 20


 113:C:/Users/²Ü¼ÒºÀ/.iotlink/sdk/IoT_LINK/iot_link\link_main.c ****     hook.free_fn = osal_free;
 293              		.loc 1 113 5 discriminator 3 view .LVU148
 294              		.loc 1 113 18 is_stmt 0 discriminator 3 view .LVU149
 295 0056 0E4B     		ldr	r3, .L8+16
 296 0058 0593     		str	r3, [sp, #20]
 114:C:/Users/²Ü¼ÒºÀ/.iotlink/sdk/IoT_LINK/iot_link\link_main.c ****     hook.malloc_fn = osal_malloc;
 297              		.loc 1 114 5 is_stmt 1 discriminator 3 view .LVU150
 115:C:/Users/²Ü¼ÒºÀ/.iotlink/sdk/IoT_LINK/iot_link\link_main.c ****     cJSON_InitHooks(&hook);
 298              		.loc 1 115 5 is_stmt 0 discriminator 3 view .LVU151
 299 005a 04A8     		add	r0, sp, #16
 114:C:/Users/²Ü¼ÒºÀ/.iotlink/sdk/IoT_LINK/iot_link\link_main.c ****     hook.malloc_fn = osal_malloc;
 300              		.loc 1 114 20 discriminator 3 view .LVU152
 301 005c 0D4B     		ldr	r3, .L8+20
 302 005e 0493     		str	r3, [sp, #16]
 303              		.loc 1 115 5 is_stmt 1 discriminator 3 view .LVU153
 304 0060 FFF7FEFF 		bl	cJSON_InitHooks
 305              	.LVL13:
 306              		.file 7 "c:\\users\\\262\334\274\322\272\300\\.iotlink\\tools\\gcc-arm-none-eabi\\arm-none-eabi\\i
   1:c:\users\²Ü¼ÒºÀ\.iotlink\tools\gcc-arm-none-eabi\arm-none-eabi\include\xlocale.h **** /* Definition of opaque POSIX-1.2008 type locale_t for userspace. */
   2:c:\users\²Ü¼ÒºÀ\.iotlink\tools\gcc-arm-none-eabi\arm-none-eabi\include\xlocale.h **** 
   3:c:\users\²Ü¼ÒºÀ\.iotlink\tools\gcc-arm-none-eabi\arm-none-eabi\include\xlocale.h **** #ifndef	_XLOCALE_H
   4:c:\users\²Ü¼ÒºÀ\.iotlink\tools\gcc-arm-none-eabi\arm-none-eabi\include\xlocale.h **** #define _XLOCALE_H
   5:c:\users\²Ü¼ÒºÀ\.iotlink\tools\gcc-arm-none-eabi\arm-none-eabi\include\xlocale.h **** 
   6:c:\users\²Ü¼ÒºÀ\.iotlink\tools\gcc-arm-none-eabi\arm-none-eabi\include\xlocale.h **** #include <newlib.h>
   7:c:\users\²Ü¼ÒºÀ\.iotlink\tools\gcc-arm-none-eabi\arm-none-eabi\include\xlocale.h **** #include <sys/config.h>
   8:c:\users\²Ü¼ÒºÀ\.iotlink\tools\gcc-arm-none-eabi\arm-none-eabi\include\xlocale.h **** 
   9:c:\users\²Ü¼ÒºÀ\.iotlink\tools\gcc-arm-none-eabi\arm-none-eabi\include\xlocale.h **** struct __locale_t;
 307              		.loc 7 9 1 discriminator 3 view .LVU154
  10:c:\users\²Ü¼ÒºÀ\.iotlink\tools\gcc-arm-none-eabi\arm-none-eabi\include\xlocale.h **** typedef struct __locale_t *locale_t;
 308              		.loc 7 10 1 discriminator 3 view .LVU155
 309              		.file 8 "c:\\users\\\262\334\274\322\272\300\\.iotlink\\tools\\gcc-arm-none-eabi\\arm-none-eabi\\i
   1:c:\users\²Ü¼ÒºÀ\.iotlink\tools\gcc-arm-none-eabi\arm-none-eabi\include\strings.h **** /*-
   2:c:\users\²Ü¼ÒºÀ\.iotlink\tools\gcc-arm-none-eabi\arm-none-eabi\include\strings.h ****  * Copyright (c) 2002 Mike Barcroft <mike@FreeBSD.org>
   3:c:\users\²Ü¼ÒºÀ\.iotlink\tools\gcc-arm-none-eabi\arm-none-eabi\include\strings.h ****  * All rights reserved.
   4:c:\users\²Ü¼ÒºÀ\.iotlink\tools\gcc-arm-none-eabi\arm-none-eabi\include\strings.h ****  *
   5:c:\users\²Ü¼ÒºÀ\.iotlink\tools\gcc-arm-none-eabi\arm-none-eabi\include\strings.h ****  * Redistribution and use in source and binary forms, with or without
   6:c:\users\²Ü¼ÒºÀ\.iotlink\tools\gcc-arm-none-eabi\arm-none-eabi\include\strings.h ****  * modification, are permitted provided that the following conditions
   7:c:\users\²Ü¼ÒºÀ\.iotlink\tools\gcc-arm-none-eabi\arm-none-eabi\include\strings.h ****  * are met:
   8:c:\users\²Ü¼ÒºÀ\.iotlink\tools\gcc-arm-none-eabi\arm-none-eabi\include\strings.h ****  * 1. Redistributions of source code must retain the above copyright
   9:c:\users\²Ü¼ÒºÀ\.iotlink\tools\gcc-arm-none-eabi\arm-none-eabi\include\strings.h ****  *    notice, this list of conditions and the following disclaimer.
  10:c:\users\²Ü¼ÒºÀ\.iotlink\tools\gcc-arm-none-eabi\arm-none-eabi\include\strings.h ****  * 2. Redistributions in binary form must reproduce the above copyright
  11:c:\users\²Ü¼ÒºÀ\.iotlink\tools\gcc-arm-none-eabi\arm-none-eabi\include\strings.h ****  *    notice, this list of conditions and the following disclaimer in the
  12:c:\users\²Ü¼ÒºÀ\.iotlink\tools\gcc-arm-none-eabi\arm-none-eabi\include\strings.h ****  *    documentation and/or other materials provided with the distribution.
  13:c:\users\²Ü¼ÒºÀ\.iotlink\tools\gcc-arm-none-eabi\arm-none-eabi\include\strings.h ****  *
  14:c:\users\²Ü¼ÒºÀ\.iotlink\tools\gcc-arm-none-eabi\arm-none-eabi\include\strings.h ****  * THIS SOFTWARE IS PROVIDED BY THE AUTHOR AND CONTRIBUTORS ``AS IS'' AND
  15:c:\users\²Ü¼ÒºÀ\.iotlink\tools\gcc-arm-none-eabi\arm-none-eabi\include\strings.h ****  * ANY EXPRESS OR IMPLIED WARRANTIES, INCLUDING, BUT NOT LIMITED TO, THE
  16:c:\users\²Ü¼ÒºÀ\.iotlink\tools\gcc-arm-none-eabi\arm-none-eabi\include\strings.h ****  * IMPLIED WARRANTIES OF MERCHANTABILITY AND FITNESS FOR A PARTICULAR PURPOSE
  17:c:\users\²Ü¼ÒºÀ\.iotlink\tools\gcc-arm-none-eabi\arm-none-eabi\include\strings.h ****  * ARE DISCLAIMED.  IN NO EVENT SHALL THE AUTHOR OR CONTRIBUTORS BE LIABLE
  18:c:\users\²Ü¼ÒºÀ\.iotlink\tools\gcc-arm-none-eabi\arm-none-eabi\include\strings.h ****  * FOR ANY DIRECT, INDIRECT, INCIDENTAL, SPECIAL, EXEMPLARY, OR CONSEQUENTIAL
  19:c:\users\²Ü¼ÒºÀ\.iotlink\tools\gcc-arm-none-eabi\arm-none-eabi\include\strings.h ****  * DAMAGES (INCLUDING, BUT NOT LIMITED TO, PROCUREMENT OF SUBSTITUTE GOODS
  20:c:\users\²Ü¼ÒºÀ\.iotlink\tools\gcc-arm-none-eabi\arm-none-eabi\include\strings.h ****  * OR SERVICES; LOSS OF USE, DATA, OR PROFITS; OR BUSINESS INTERRUPTION)
  21:c:\users\²Ü¼ÒºÀ\.iotlink\tools\gcc-arm-none-eabi\arm-none-eabi\include\strings.h ****  * HOWEVER CAUSED AND ON ANY THEORY OF LIABILITY, WHETHER IN CONTRACT, STRICT
  22:c:\users\²Ü¼ÒºÀ\.iotlink\tools\gcc-arm-none-eabi\arm-none-eabi\include\strings.h ****  * LIABILITY, OR TORT (INCLUDING NEGLIGENCE OR OTHERWISE) ARISING IN ANY WAY
  23:c:\users\²Ü¼ÒºÀ\.iotlink\tools\gcc-arm-none-eabi\arm-none-eabi\include\strings.h ****  * OUT OF THE USE OF THIS SOFTWARE, EVEN IF ADVISED OF THE POSSIBILITY OF
  24:c:\users\²Ü¼ÒºÀ\.iotlink\tools\gcc-arm-none-eabi\arm-none-eabi\include\strings.h ****  * SUCH DAMAGE.
  25:c:\users\²Ü¼ÒºÀ\.iotlink\tools\gcc-arm-none-eabi\arm-none-eabi\include\strings.h ****  *
  26:c:\users\²Ü¼ÒºÀ\.iotlink\tools\gcc-arm-none-eabi\arm-none-eabi\include\strings.h ****  * $FreeBSD: head/include/strings.h 272673 2014-10-07 04:54:11Z delphij $
ARM GAS  C:\Users\²Ü¼ÒºÀ\AppData\Local\Temp\cco1ZmL6.s 			page 21


  27:c:\users\²Ü¼ÒºÀ\.iotlink\tools\gcc-arm-none-eabi\arm-none-eabi\include\strings.h ****  */
  28:c:\users\²Ü¼ÒºÀ\.iotlink\tools\gcc-arm-none-eabi\arm-none-eabi\include\strings.h **** 
  29:c:\users\²Ü¼ÒºÀ\.iotlink\tools\gcc-arm-none-eabi\arm-none-eabi\include\strings.h **** #ifndef _STRINGS_H_
  30:c:\users\²Ü¼ÒºÀ\.iotlink\tools\gcc-arm-none-eabi\arm-none-eabi\include\strings.h **** #define	_STRINGS_H_
  31:c:\users\²Ü¼ÒºÀ\.iotlink\tools\gcc-arm-none-eabi\arm-none-eabi\include\strings.h **** 
  32:c:\users\²Ü¼ÒºÀ\.iotlink\tools\gcc-arm-none-eabi\arm-none-eabi\include\strings.h **** #include <sys/cdefs.h>
  33:c:\users\²Ü¼ÒºÀ\.iotlink\tools\gcc-arm-none-eabi\arm-none-eabi\include\strings.h **** #include <sys/_types.h>
  34:c:\users\²Ü¼ÒºÀ\.iotlink\tools\gcc-arm-none-eabi\arm-none-eabi\include\strings.h **** 
  35:c:\users\²Ü¼ÒºÀ\.iotlink\tools\gcc-arm-none-eabi\arm-none-eabi\include\strings.h **** #if __POSIX_VISIBLE >= 200809
  36:c:\users\²Ü¼ÒºÀ\.iotlink\tools\gcc-arm-none-eabi\arm-none-eabi\include\strings.h **** #include <xlocale.h>
  37:c:\users\²Ü¼ÒºÀ\.iotlink\tools\gcc-arm-none-eabi\arm-none-eabi\include\strings.h **** #endif
  38:c:\users\²Ü¼ÒºÀ\.iotlink\tools\gcc-arm-none-eabi\arm-none-eabi\include\strings.h **** 
  39:c:\users\²Ü¼ÒºÀ\.iotlink\tools\gcc-arm-none-eabi\arm-none-eabi\include\strings.h **** #ifndef _SIZE_T_DECLARED
  40:c:\users\²Ü¼ÒºÀ\.iotlink\tools\gcc-arm-none-eabi\arm-none-eabi\include\strings.h **** typedef	__size_t	size_t;
  41:c:\users\²Ü¼ÒºÀ\.iotlink\tools\gcc-arm-none-eabi\arm-none-eabi\include\strings.h **** #define	_SIZE_T_DECLARED
  42:c:\users\²Ü¼ÒºÀ\.iotlink\tools\gcc-arm-none-eabi\arm-none-eabi\include\strings.h **** #endif
  43:c:\users\²Ü¼ÒºÀ\.iotlink\tools\gcc-arm-none-eabi\arm-none-eabi\include\strings.h **** 
  44:c:\users\²Ü¼ÒºÀ\.iotlink\tools\gcc-arm-none-eabi\arm-none-eabi\include\strings.h **** __BEGIN_DECLS
  45:c:\users\²Ü¼ÒºÀ\.iotlink\tools\gcc-arm-none-eabi\arm-none-eabi\include\strings.h **** #if __BSD_VISIBLE || __POSIX_VISIBLE <= 200112
  46:c:\users\²Ü¼ÒºÀ\.iotlink\tools\gcc-arm-none-eabi\arm-none-eabi\include\strings.h **** int	 bcmp(const void *, const void *, size_t) __pure;	/* LEGACY */
 310              		.loc 8 46 1 discriminator 3 view .LVU156
  47:c:\users\²Ü¼ÒºÀ\.iotlink\tools\gcc-arm-none-eabi\arm-none-eabi\include\strings.h **** void	 bcopy(const void *, void *, size_t);			/* LEGACY */
 311              		.loc 8 47 1 discriminator 3 view .LVU157
  48:c:\users\²Ü¼ÒºÀ\.iotlink\tools\gcc-arm-none-eabi\arm-none-eabi\include\strings.h **** void	 bzero(void *, size_t);					/* LEGACY */
 312              		.loc 8 48 1 discriminator 3 view .LVU158
  49:c:\users\²Ü¼ÒºÀ\.iotlink\tools\gcc-arm-none-eabi\arm-none-eabi\include\strings.h **** #endif
  50:c:\users\²Ü¼ÒºÀ\.iotlink\tools\gcc-arm-none-eabi\arm-none-eabi\include\strings.h **** #if __BSD_VISIBLE
  51:c:\users\²Ü¼ÒºÀ\.iotlink\tools\gcc-arm-none-eabi\arm-none-eabi\include\strings.h **** void	 explicit_bzero(void *, size_t);
 313              		.loc 8 51 1 discriminator 3 view .LVU159
  52:c:\users\²Ü¼ÒºÀ\.iotlink\tools\gcc-arm-none-eabi\arm-none-eabi\include\strings.h **** #endif
  53:c:\users\²Ü¼ÒºÀ\.iotlink\tools\gcc-arm-none-eabi\arm-none-eabi\include\strings.h **** #if __MISC_VISIBLE || __POSIX_VISIBLE < 200809 || __XSI_VISIBLE >= 700
  54:c:\users\²Ü¼ÒºÀ\.iotlink\tools\gcc-arm-none-eabi\arm-none-eabi\include\strings.h **** int	 ffs(int) __pure2;
 314              		.loc 8 54 1 discriminator 3 view .LVU160
  55:c:\users\²Ü¼ÒºÀ\.iotlink\tools\gcc-arm-none-eabi\arm-none-eabi\include\strings.h **** #endif
  56:c:\users\²Ü¼ÒºÀ\.iotlink\tools\gcc-arm-none-eabi\arm-none-eabi\include\strings.h **** #if __BSD_VISIBLE
  57:c:\users\²Ü¼ÒºÀ\.iotlink\tools\gcc-arm-none-eabi\arm-none-eabi\include\strings.h **** int	 ffsl(long) __pure2;
 315              		.loc 8 57 1 discriminator 3 view .LVU161
  58:c:\users\²Ü¼ÒºÀ\.iotlink\tools\gcc-arm-none-eabi\arm-none-eabi\include\strings.h **** int	 ffsll(long long) __pure2;
 316              		.loc 8 58 1 discriminator 3 view .LVU162
  59:c:\users\²Ü¼ÒºÀ\.iotlink\tools\gcc-arm-none-eabi\arm-none-eabi\include\strings.h **** int	 fls(int) __pure2;
 317              		.loc 8 59 1 discriminator 3 view .LVU163
  60:c:\users\²Ü¼ÒºÀ\.iotlink\tools\gcc-arm-none-eabi\arm-none-eabi\include\strings.h **** int	 flsl(long) __pure2;
 318              		.loc 8 60 1 discriminator 3 view .LVU164
  61:c:\users\²Ü¼ÒºÀ\.iotlink\tools\gcc-arm-none-eabi\arm-none-eabi\include\strings.h **** int	 flsll(long long) __pure2;
 319              		.loc 8 61 1 discriminator 3 view .LVU165
  62:c:\users\²Ü¼ÒºÀ\.iotlink\tools\gcc-arm-none-eabi\arm-none-eabi\include\strings.h **** #endif
  63:c:\users\²Ü¼ÒºÀ\.iotlink\tools\gcc-arm-none-eabi\arm-none-eabi\include\strings.h **** #if __BSD_VISIBLE || __POSIX_VISIBLE <= 200112
  64:c:\users\²Ü¼ÒºÀ\.iotlink\tools\gcc-arm-none-eabi\arm-none-eabi\include\strings.h **** char	*index(const char *, int) __pure;			/* LEGACY */
 320              		.loc 8 64 1 discriminator 3 view .LVU166
  65:c:\users\²Ü¼ÒºÀ\.iotlink\tools\gcc-arm-none-eabi\arm-none-eabi\include\strings.h **** char	*rindex(const char *, int) __pure;			/* LEGACY */
 321              		.loc 8 65 1 discriminator 3 view .LVU167
  66:c:\users\²Ü¼ÒºÀ\.iotlink\tools\gcc-arm-none-eabi\arm-none-eabi\include\strings.h **** #endif
  67:c:\users\²Ü¼ÒºÀ\.iotlink\tools\gcc-arm-none-eabi\arm-none-eabi\include\strings.h **** int	 strcasecmp(const char *, const char *) __pure;
 322              		.loc 8 67 1 discriminator 3 view .LVU168
  68:c:\users\²Ü¼ÒºÀ\.iotlink\tools\gcc-arm-none-eabi\arm-none-eabi\include\strings.h **** int	 strncasecmp(const char *, const char *, size_t) __pure;
 323              		.loc 8 68 1 discriminator 3 view .LVU169
  69:c:\users\²Ü¼ÒºÀ\.iotlink\tools\gcc-arm-none-eabi\arm-none-eabi\include\strings.h **** 
ARM GAS  C:\Users\²Ü¼ÒºÀ\AppData\Local\Temp\cco1ZmL6.s 			page 22


  70:c:\users\²Ü¼ÒºÀ\.iotlink\tools\gcc-arm-none-eabi\arm-none-eabi\include\strings.h **** #if __POSIX_VISIBLE >= 200809
  71:c:\users\²Ü¼ÒºÀ\.iotlink\tools\gcc-arm-none-eabi\arm-none-eabi\include\strings.h **** int	 strcasecmp_l (const char *, const char *, locale_t);
 324              		.loc 8 71 1 discriminator 3 view .LVU170
  72:c:\users\²Ü¼ÒºÀ\.iotlink\tools\gcc-arm-none-eabi\arm-none-eabi\include\strings.h **** int	 strncasecmp_l (const char *, const char *, size_t, locale_t);
 325              		.loc 8 72 1 discriminator 3 view .LVU171
 326              		.file 9 "c:\\users\\\262\334\274\322\272\300\\.iotlink\\tools\\gcc-arm-none-eabi\\arm-none-eabi\\i
   1:c:\users\²Ü¼ÒºÀ\.iotlink\tools\gcc-arm-none-eabi\arm-none-eabi\include\string.h **** /*
   2:c:\users\²Ü¼ÒºÀ\.iotlink\tools\gcc-arm-none-eabi\arm-none-eabi\include\string.h ****  * string.h
   3:c:\users\²Ü¼ÒºÀ\.iotlink\tools\gcc-arm-none-eabi\arm-none-eabi\include\string.h ****  *
   4:c:\users\²Ü¼ÒºÀ\.iotlink\tools\gcc-arm-none-eabi\arm-none-eabi\include\string.h ****  * Definitions for memory and string functions.
   5:c:\users\²Ü¼ÒºÀ\.iotlink\tools\gcc-arm-none-eabi\arm-none-eabi\include\string.h ****  */
   6:c:\users\²Ü¼ÒºÀ\.iotlink\tools\gcc-arm-none-eabi\arm-none-eabi\include\string.h **** 
   7:c:\users\²Ü¼ÒºÀ\.iotlink\tools\gcc-arm-none-eabi\arm-none-eabi\include\string.h **** #ifndef _STRING_H_
   8:c:\users\²Ü¼ÒºÀ\.iotlink\tools\gcc-arm-none-eabi\arm-none-eabi\include\string.h **** #define	_STRING_H_
   9:c:\users\²Ü¼ÒºÀ\.iotlink\tools\gcc-arm-none-eabi\arm-none-eabi\include\string.h **** 
  10:c:\users\²Ü¼ÒºÀ\.iotlink\tools\gcc-arm-none-eabi\arm-none-eabi\include\string.h **** #include "_ansi.h"
  11:c:\users\²Ü¼ÒºÀ\.iotlink\tools\gcc-arm-none-eabi\arm-none-eabi\include\string.h **** #include <sys/reent.h>
  12:c:\users\²Ü¼ÒºÀ\.iotlink\tools\gcc-arm-none-eabi\arm-none-eabi\include\string.h **** #include <sys/cdefs.h>
  13:c:\users\²Ü¼ÒºÀ\.iotlink\tools\gcc-arm-none-eabi\arm-none-eabi\include\string.h **** #include <sys/features.h>
  14:c:\users\²Ü¼ÒºÀ\.iotlink\tools\gcc-arm-none-eabi\arm-none-eabi\include\string.h **** 
  15:c:\users\²Ü¼ÒºÀ\.iotlink\tools\gcc-arm-none-eabi\arm-none-eabi\include\string.h **** #define __need_size_t
  16:c:\users\²Ü¼ÒºÀ\.iotlink\tools\gcc-arm-none-eabi\arm-none-eabi\include\string.h **** #define __need_NULL
  17:c:\users\²Ü¼ÒºÀ\.iotlink\tools\gcc-arm-none-eabi\arm-none-eabi\include\string.h **** #include <stddef.h>
  18:c:\users\²Ü¼ÒºÀ\.iotlink\tools\gcc-arm-none-eabi\arm-none-eabi\include\string.h **** 
  19:c:\users\²Ü¼ÒºÀ\.iotlink\tools\gcc-arm-none-eabi\arm-none-eabi\include\string.h **** #if __POSIX_VISIBLE >= 200809
  20:c:\users\²Ü¼ÒºÀ\.iotlink\tools\gcc-arm-none-eabi\arm-none-eabi\include\string.h **** #include <xlocale.h>
  21:c:\users\²Ü¼ÒºÀ\.iotlink\tools\gcc-arm-none-eabi\arm-none-eabi\include\string.h **** #endif
  22:c:\users\²Ü¼ÒºÀ\.iotlink\tools\gcc-arm-none-eabi\arm-none-eabi\include\string.h **** 
  23:c:\users\²Ü¼ÒºÀ\.iotlink\tools\gcc-arm-none-eabi\arm-none-eabi\include\string.h **** #if __BSD_VISIBLE
  24:c:\users\²Ü¼ÒºÀ\.iotlink\tools\gcc-arm-none-eabi\arm-none-eabi\include\string.h **** #include <strings.h>
  25:c:\users\²Ü¼ÒºÀ\.iotlink\tools\gcc-arm-none-eabi\arm-none-eabi\include\string.h **** #endif
  26:c:\users\²Ü¼ÒºÀ\.iotlink\tools\gcc-arm-none-eabi\arm-none-eabi\include\string.h **** 
  27:c:\users\²Ü¼ÒºÀ\.iotlink\tools\gcc-arm-none-eabi\arm-none-eabi\include\string.h **** _BEGIN_STD_C
  28:c:\users\²Ü¼ÒºÀ\.iotlink\tools\gcc-arm-none-eabi\arm-none-eabi\include\string.h **** 
  29:c:\users\²Ü¼ÒºÀ\.iotlink\tools\gcc-arm-none-eabi\arm-none-eabi\include\string.h **** void *	 memchr (const void *, int, size_t);
 327              		.loc 9 29 1 discriminator 3 view .LVU172
  30:c:\users\²Ü¼ÒºÀ\.iotlink\tools\gcc-arm-none-eabi\arm-none-eabi\include\string.h **** int 	 memcmp (const void *, const void *, size_t);
 328              		.loc 9 30 1 discriminator 3 view .LVU173
  31:c:\users\²Ü¼ÒºÀ\.iotlink\tools\gcc-arm-none-eabi\arm-none-eabi\include\string.h **** void *	 memcpy (void *__restrict, const void *__restrict, size_t);
 329              		.loc 9 31 1 discriminator 3 view .LVU174
  32:c:\users\²Ü¼ÒºÀ\.iotlink\tools\gcc-arm-none-eabi\arm-none-eabi\include\string.h **** void *	 memmove (void *, const void *, size_t);
 330              		.loc 9 32 1 discriminator 3 view .LVU175
  33:c:\users\²Ü¼ÒºÀ\.iotlink\tools\gcc-arm-none-eabi\arm-none-eabi\include\string.h **** void *	 memset (void *, int, size_t);
 331              		.loc 9 33 1 discriminator 3 view .LVU176
  34:c:\users\²Ü¼ÒºÀ\.iotlink\tools\gcc-arm-none-eabi\arm-none-eabi\include\string.h **** char 	*strcat (char *__restrict, const char *__restrict);
 332              		.loc 9 34 1 discriminator 3 view .LVU177
  35:c:\users\²Ü¼ÒºÀ\.iotlink\tools\gcc-arm-none-eabi\arm-none-eabi\include\string.h **** char 	*strchr (const char *, int);
 333              		.loc 9 35 1 discriminator 3 view .LVU178
  36:c:\users\²Ü¼ÒºÀ\.iotlink\tools\gcc-arm-none-eabi\arm-none-eabi\include\string.h **** int	 strcmp (const char *, const char *);
 334              		.loc 9 36 1 discriminator 3 view .LVU179
  37:c:\users\²Ü¼ÒºÀ\.iotlink\tools\gcc-arm-none-eabi\arm-none-eabi\include\string.h **** int	 strcoll (const char *, const char *);
 335              		.loc 9 37 1 discriminator 3 view .LVU180
  38:c:\users\²Ü¼ÒºÀ\.iotlink\tools\gcc-arm-none-eabi\arm-none-eabi\include\string.h **** char 	*strcpy (char *__restrict, const char *__restrict);
 336              		.loc 9 38 1 discriminator 3 view .LVU181
  39:c:\users\²Ü¼ÒºÀ\.iotlink\tools\gcc-arm-none-eabi\arm-none-eabi\include\string.h **** size_t	 strcspn (const char *, const char *);
 337              		.loc 9 39 1 discriminator 3 view .LVU182
  40:c:\users\²Ü¼ÒºÀ\.iotlink\tools\gcc-arm-none-eabi\arm-none-eabi\include\string.h **** char 	*strerror (int);
ARM GAS  C:\Users\²Ü¼ÒºÀ\AppData\Local\Temp\cco1ZmL6.s 			page 23


 338              		.loc 9 40 1 discriminator 3 view .LVU183
  41:c:\users\²Ü¼ÒºÀ\.iotlink\tools\gcc-arm-none-eabi\arm-none-eabi\include\string.h **** size_t	 strlen (const char *);
 339              		.loc 9 41 1 discriminator 3 view .LVU184
  42:c:\users\²Ü¼ÒºÀ\.iotlink\tools\gcc-arm-none-eabi\arm-none-eabi\include\string.h **** char 	*strncat (char *__restrict, const char *__restrict, size_t);
 340              		.loc 9 42 1 discriminator 3 view .LVU185
  43:c:\users\²Ü¼ÒºÀ\.iotlink\tools\gcc-arm-none-eabi\arm-none-eabi\include\string.h **** int	 strncmp (const char *, const char *, size_t);
 341              		.loc 9 43 1 discriminator 3 view .LVU186
  44:c:\users\²Ü¼ÒºÀ\.iotlink\tools\gcc-arm-none-eabi\arm-none-eabi\include\string.h **** char 	*strncpy (char *__restrict, const char *__restrict, size_t);
 342              		.loc 9 44 1 discriminator 3 view .LVU187
  45:c:\users\²Ü¼ÒºÀ\.iotlink\tools\gcc-arm-none-eabi\arm-none-eabi\include\string.h **** char 	*strpbrk (const char *, const char *);
 343              		.loc 9 45 1 discriminator 3 view .LVU188
  46:c:\users\²Ü¼ÒºÀ\.iotlink\tools\gcc-arm-none-eabi\arm-none-eabi\include\string.h **** char 	*strrchr (const char *, int);
 344              		.loc 9 46 1 discriminator 3 view .LVU189
  47:c:\users\²Ü¼ÒºÀ\.iotlink\tools\gcc-arm-none-eabi\arm-none-eabi\include\string.h **** size_t	 strspn (const char *, const char *);
 345              		.loc 9 47 1 discriminator 3 view .LVU190
  48:c:\users\²Ü¼ÒºÀ\.iotlink\tools\gcc-arm-none-eabi\arm-none-eabi\include\string.h **** char 	*strstr (const char *, const char *);
 346              		.loc 9 48 1 discriminator 3 view .LVU191
  49:c:\users\²Ü¼ÒºÀ\.iotlink\tools\gcc-arm-none-eabi\arm-none-eabi\include\string.h **** #ifndef _REENT_ONLY
  50:c:\users\²Ü¼ÒºÀ\.iotlink\tools\gcc-arm-none-eabi\arm-none-eabi\include\string.h **** char 	*strtok (char *__restrict, const char *__restrict);
 347              		.loc 9 50 1 discriminator 3 view .LVU192
  51:c:\users\²Ü¼ÒºÀ\.iotlink\tools\gcc-arm-none-eabi\arm-none-eabi\include\string.h **** #endif
  52:c:\users\²Ü¼ÒºÀ\.iotlink\tools\gcc-arm-none-eabi\arm-none-eabi\include\string.h **** size_t	 strxfrm (char *__restrict, const char *__restrict, size_t);
 348              		.loc 9 52 1 discriminator 3 view .LVU193
  53:c:\users\²Ü¼ÒºÀ\.iotlink\tools\gcc-arm-none-eabi\arm-none-eabi\include\string.h **** 
  54:c:\users\²Ü¼ÒºÀ\.iotlink\tools\gcc-arm-none-eabi\arm-none-eabi\include\string.h **** #if __POSIX_VISIBLE >= 200809
  55:c:\users\²Ü¼ÒºÀ\.iotlink\tools\gcc-arm-none-eabi\arm-none-eabi\include\string.h **** int	 strcoll_l (const char *, const char *, locale_t);
 349              		.loc 9 55 1 discriminator 3 view .LVU194
  56:c:\users\²Ü¼ÒºÀ\.iotlink\tools\gcc-arm-none-eabi\arm-none-eabi\include\string.h **** char	*strerror_l (int, locale_t);
 350              		.loc 9 56 1 discriminator 3 view .LVU195
  57:c:\users\²Ü¼ÒºÀ\.iotlink\tools\gcc-arm-none-eabi\arm-none-eabi\include\string.h **** size_t	 strxfrm_l (char *__restrict, const char *__restrict, size_t, locale_t);
 351              		.loc 9 57 1 discriminator 3 view .LVU196
  58:c:\users\²Ü¼ÒºÀ\.iotlink\tools\gcc-arm-none-eabi\arm-none-eabi\include\string.h **** #endif
  59:c:\users\²Ü¼ÒºÀ\.iotlink\tools\gcc-arm-none-eabi\arm-none-eabi\include\string.h **** #if __MISC_VISIBLE || __POSIX_VISIBLE
  60:c:\users\²Ü¼ÒºÀ\.iotlink\tools\gcc-arm-none-eabi\arm-none-eabi\include\string.h **** char 	*strtok_r (char *__restrict, const char *__restrict, char **__restrict);
 352              		.loc 9 60 1 discriminator 3 view .LVU197
  61:c:\users\²Ü¼ÒºÀ\.iotlink\tools\gcc-arm-none-eabi\arm-none-eabi\include\string.h **** #endif
  62:c:\users\²Ü¼ÒºÀ\.iotlink\tools\gcc-arm-none-eabi\arm-none-eabi\include\string.h **** #if __BSD_VISIBLE
  63:c:\users\²Ü¼ÒºÀ\.iotlink\tools\gcc-arm-none-eabi\arm-none-eabi\include\string.h **** int	 timingsafe_bcmp (const void *, const void *, size_t);
 353              		.loc 9 63 1 discriminator 3 view .LVU198
  64:c:\users\²Ü¼ÒºÀ\.iotlink\tools\gcc-arm-none-eabi\arm-none-eabi\include\string.h **** int	 timingsafe_memcmp (const void *, const void *, size_t);
 354              		.loc 9 64 1 discriminator 3 view .LVU199
  65:c:\users\²Ü¼ÒºÀ\.iotlink\tools\gcc-arm-none-eabi\arm-none-eabi\include\string.h **** #endif
  66:c:\users\²Ü¼ÒºÀ\.iotlink\tools\gcc-arm-none-eabi\arm-none-eabi\include\string.h **** #if __MISC_VISIBLE || __POSIX_VISIBLE
  67:c:\users\²Ü¼ÒºÀ\.iotlink\tools\gcc-arm-none-eabi\arm-none-eabi\include\string.h **** void *	 memccpy (void *__restrict, const void *__restrict, int, size_t);
 355              		.loc 9 67 1 discriminator 3 view .LVU200
  68:c:\users\²Ü¼ÒºÀ\.iotlink\tools\gcc-arm-none-eabi\arm-none-eabi\include\string.h **** #endif
  69:c:\users\²Ü¼ÒºÀ\.iotlink\tools\gcc-arm-none-eabi\arm-none-eabi\include\string.h **** #if __GNU_VISIBLE
  70:c:\users\²Ü¼ÒºÀ\.iotlink\tools\gcc-arm-none-eabi\arm-none-eabi\include\string.h **** void *	 mempcpy (void *, const void *, size_t);
  71:c:\users\²Ü¼ÒºÀ\.iotlink\tools\gcc-arm-none-eabi\arm-none-eabi\include\string.h **** void *	 memmem (const void *, size_t, const void *, size_t);
  72:c:\users\²Ü¼ÒºÀ\.iotlink\tools\gcc-arm-none-eabi\arm-none-eabi\include\string.h **** void *	 memrchr (const void *, int, size_t);
  73:c:\users\²Ü¼ÒºÀ\.iotlink\tools\gcc-arm-none-eabi\arm-none-eabi\include\string.h **** void *	 rawmemchr (const void *, int);
  74:c:\users\²Ü¼ÒºÀ\.iotlink\tools\gcc-arm-none-eabi\arm-none-eabi\include\string.h **** #endif
  75:c:\users\²Ü¼ÒºÀ\.iotlink\tools\gcc-arm-none-eabi\arm-none-eabi\include\string.h **** #if __POSIX_VISIBLE >= 200809
  76:c:\users\²Ü¼ÒºÀ\.iotlink\tools\gcc-arm-none-eabi\arm-none-eabi\include\string.h **** char 	*stpcpy (char *__restrict, const char *__restrict);
 356              		.loc 9 76 1 discriminator 3 view .LVU201
  77:c:\users\²Ü¼ÒºÀ\.iotlink\tools\gcc-arm-none-eabi\arm-none-eabi\include\string.h **** char 	*stpncpy (char *__restrict, const char *__restrict, size_t);
 357              		.loc 9 77 1 discriminator 3 view .LVU202
ARM GAS  C:\Users\²Ü¼ÒºÀ\AppData\Local\Temp\cco1ZmL6.s 			page 24


  78:c:\users\²Ü¼ÒºÀ\.iotlink\tools\gcc-arm-none-eabi\arm-none-eabi\include\string.h **** #endif
  79:c:\users\²Ü¼ÒºÀ\.iotlink\tools\gcc-arm-none-eabi\arm-none-eabi\include\string.h **** #if __GNU_VISIBLE
  80:c:\users\²Ü¼ÒºÀ\.iotlink\tools\gcc-arm-none-eabi\arm-none-eabi\include\string.h **** char	*strcasestr (const char *, const char *);
  81:c:\users\²Ü¼ÒºÀ\.iotlink\tools\gcc-arm-none-eabi\arm-none-eabi\include\string.h **** char 	*strchrnul (const char *, int);
  82:c:\users\²Ü¼ÒºÀ\.iotlink\tools\gcc-arm-none-eabi\arm-none-eabi\include\string.h **** #endif
  83:c:\users\²Ü¼ÒºÀ\.iotlink\tools\gcc-arm-none-eabi\arm-none-eabi\include\string.h **** #if __MISC_VISIBLE || __POSIX_VISIBLE >= 200809 || __XSI_VISIBLE >= 4
  84:c:\users\²Ü¼ÒºÀ\.iotlink\tools\gcc-arm-none-eabi\arm-none-eabi\include\string.h **** char 	*strdup (const char *) __malloc_like __result_use_check;
 358              		.loc 9 84 1 discriminator 3 view .LVU203
  85:c:\users\²Ü¼ÒºÀ\.iotlink\tools\gcc-arm-none-eabi\arm-none-eabi\include\string.h **** #endif
  86:c:\users\²Ü¼ÒºÀ\.iotlink\tools\gcc-arm-none-eabi\arm-none-eabi\include\string.h **** char 	*_strdup_r (struct _reent *, const char *);
 359              		.loc 9 86 1 discriminator 3 view .LVU204
  87:c:\users\²Ü¼ÒºÀ\.iotlink\tools\gcc-arm-none-eabi\arm-none-eabi\include\string.h **** #if __POSIX_VISIBLE >= 200809
  88:c:\users\²Ü¼ÒºÀ\.iotlink\tools\gcc-arm-none-eabi\arm-none-eabi\include\string.h **** char 	*strndup (const char *, size_t) __malloc_like __result_use_check;
 360              		.loc 9 88 1 discriminator 3 view .LVU205
  89:c:\users\²Ü¼ÒºÀ\.iotlink\tools\gcc-arm-none-eabi\arm-none-eabi\include\string.h **** #endif
  90:c:\users\²Ü¼ÒºÀ\.iotlink\tools\gcc-arm-none-eabi\arm-none-eabi\include\string.h **** char 	*_strndup_r (struct _reent *, const char *, size_t);
 361              		.loc 9 90 1 discriminator 3 view .LVU206
  91:c:\users\²Ü¼ÒºÀ\.iotlink\tools\gcc-arm-none-eabi\arm-none-eabi\include\string.h **** 
  92:c:\users\²Ü¼ÒºÀ\.iotlink\tools\gcc-arm-none-eabi\arm-none-eabi\include\string.h **** /* There are two common strerror_r variants.  If you request
  93:c:\users\²Ü¼ÒºÀ\.iotlink\tools\gcc-arm-none-eabi\arm-none-eabi\include\string.h ****    _GNU_SOURCE, you get the GNU version; otherwise you get the POSIX
  94:c:\users\²Ü¼ÒºÀ\.iotlink\tools\gcc-arm-none-eabi\arm-none-eabi\include\string.h ****    version.  POSIX requires that #undef strerror_r will still let you
  95:c:\users\²Ü¼ÒºÀ\.iotlink\tools\gcc-arm-none-eabi\arm-none-eabi\include\string.h ****    invoke the underlying function, but that requires gcc support.  */
  96:c:\users\²Ü¼ÒºÀ\.iotlink\tools\gcc-arm-none-eabi\arm-none-eabi\include\string.h **** #if __GNU_VISIBLE
  97:c:\users\²Ü¼ÒºÀ\.iotlink\tools\gcc-arm-none-eabi\arm-none-eabi\include\string.h **** char	*strerror_r (int, char *, size_t);
  98:c:\users\²Ü¼ÒºÀ\.iotlink\tools\gcc-arm-none-eabi\arm-none-eabi\include\string.h **** #elif __POSIX_VISIBLE >= 200112
  99:c:\users\²Ü¼ÒºÀ\.iotlink\tools\gcc-arm-none-eabi\arm-none-eabi\include\string.h **** # ifdef __GNUC__
 100:c:\users\²Ü¼ÒºÀ\.iotlink\tools\gcc-arm-none-eabi\arm-none-eabi\include\string.h **** int	strerror_r (int, char *, size_t)
 362              		.loc 9 100 1 discriminator 3 view .LVU207
 101:c:\users\²Ü¼ÒºÀ\.iotlink\tools\gcc-arm-none-eabi\arm-none-eabi\include\string.h **** #ifdef __ASMNAME
 102:c:\users\²Ü¼ÒºÀ\.iotlink\tools\gcc-arm-none-eabi\arm-none-eabi\include\string.h ****              __asm__ (__ASMNAME ("__xpg_strerror_r"))
 103:c:\users\²Ü¼ÒºÀ\.iotlink\tools\gcc-arm-none-eabi\arm-none-eabi\include\string.h **** #endif
 104:c:\users\²Ü¼ÒºÀ\.iotlink\tools\gcc-arm-none-eabi\arm-none-eabi\include\string.h ****   ;
 105:c:\users\²Ü¼ÒºÀ\.iotlink\tools\gcc-arm-none-eabi\arm-none-eabi\include\string.h **** # else
 106:c:\users\²Ü¼ÒºÀ\.iotlink\tools\gcc-arm-none-eabi\arm-none-eabi\include\string.h **** int	__xpg_strerror_r (int, char *, size_t);
 107:c:\users\²Ü¼ÒºÀ\.iotlink\tools\gcc-arm-none-eabi\arm-none-eabi\include\string.h **** #  define strerror_r __xpg_strerror_r
 108:c:\users\²Ü¼ÒºÀ\.iotlink\tools\gcc-arm-none-eabi\arm-none-eabi\include\string.h **** # endif
 109:c:\users\²Ü¼ÒºÀ\.iotlink\tools\gcc-arm-none-eabi\arm-none-eabi\include\string.h **** #endif
 110:c:\users\²Ü¼ÒºÀ\.iotlink\tools\gcc-arm-none-eabi\arm-none-eabi\include\string.h **** 
 111:c:\users\²Ü¼ÒºÀ\.iotlink\tools\gcc-arm-none-eabi\arm-none-eabi\include\string.h **** /* Reentrant version of strerror.  */
 112:c:\users\²Ü¼ÒºÀ\.iotlink\tools\gcc-arm-none-eabi\arm-none-eabi\include\string.h **** char *	_strerror_r (struct _reent *, int, int, int *);
 363              		.loc 9 112 1 discriminator 3 view .LVU208
 113:c:\users\²Ü¼ÒºÀ\.iotlink\tools\gcc-arm-none-eabi\arm-none-eabi\include\string.h **** 
 114:c:\users\²Ü¼ÒºÀ\.iotlink\tools\gcc-arm-none-eabi\arm-none-eabi\include\string.h **** #if __BSD_VISIBLE
 115:c:\users\²Ü¼ÒºÀ\.iotlink\tools\gcc-arm-none-eabi\arm-none-eabi\include\string.h **** size_t	strlcat (char *, const char *, size_t);
 364              		.loc 9 115 1 discriminator 3 view .LVU209
 116:c:\users\²Ü¼ÒºÀ\.iotlink\tools\gcc-arm-none-eabi\arm-none-eabi\include\string.h **** size_t	strlcpy (char *, const char *, size_t);
 365              		.loc 9 116 1 discriminator 3 view .LVU210
 117:c:\users\²Ü¼ÒºÀ\.iotlink\tools\gcc-arm-none-eabi\arm-none-eabi\include\string.h **** #endif
 118:c:\users\²Ü¼ÒºÀ\.iotlink\tools\gcc-arm-none-eabi\arm-none-eabi\include\string.h **** #if __POSIX_VISIBLE >= 200809
 119:c:\users\²Ü¼ÒºÀ\.iotlink\tools\gcc-arm-none-eabi\arm-none-eabi\include\string.h **** size_t	 strnlen (const char *, size_t);
 366              		.loc 9 119 1 discriminator 3 view .LVU211
 120:c:\users\²Ü¼ÒºÀ\.iotlink\tools\gcc-arm-none-eabi\arm-none-eabi\include\string.h **** #endif
 121:c:\users\²Ü¼ÒºÀ\.iotlink\tools\gcc-arm-none-eabi\arm-none-eabi\include\string.h **** #if __BSD_VISIBLE
 122:c:\users\²Ü¼ÒºÀ\.iotlink\tools\gcc-arm-none-eabi\arm-none-eabi\include\string.h **** char 	*strsep (char **, const char *);
 367              		.loc 9 122 1 discriminator 3 view .LVU212
 123:c:\users\²Ü¼ÒºÀ\.iotlink\tools\gcc-arm-none-eabi\arm-none-eabi\include\string.h **** #endif
 124:c:\users\²Ü¼ÒºÀ\.iotlink\tools\gcc-arm-none-eabi\arm-none-eabi\include\string.h **** #if __BSD_VISIBLE
ARM GAS  C:\Users\²Ü¼ÒºÀ\AppData\Local\Temp\cco1ZmL6.s 			page 25


 125:c:\users\²Ü¼ÒºÀ\.iotlink\tools\gcc-arm-none-eabi\arm-none-eabi\include\string.h **** char    *strnstr(const char *, const char *, size_t) __pure;
 368              		.loc 9 125 1 discriminator 3 view .LVU213
 126:c:\users\²Ü¼ÒºÀ\.iotlink\tools\gcc-arm-none-eabi\arm-none-eabi\include\string.h **** #endif
 127:c:\users\²Ü¼ÒºÀ\.iotlink\tools\gcc-arm-none-eabi\arm-none-eabi\include\string.h **** 
 128:c:\users\²Ü¼ÒºÀ\.iotlink\tools\gcc-arm-none-eabi\arm-none-eabi\include\string.h **** #if __MISC_VISIBLE
 129:c:\users\²Ü¼ÒºÀ\.iotlink\tools\gcc-arm-none-eabi\arm-none-eabi\include\string.h **** char	*strlwr (char *);
 369              		.loc 9 129 1 discriminator 3 view .LVU214
 130:c:\users\²Ü¼ÒºÀ\.iotlink\tools\gcc-arm-none-eabi\arm-none-eabi\include\string.h **** char	*strupr (char *);
 370              		.loc 9 130 1 discriminator 3 view .LVU215
 131:c:\users\²Ü¼ÒºÀ\.iotlink\tools\gcc-arm-none-eabi\arm-none-eabi\include\string.h **** #endif
 132:c:\users\²Ü¼ÒºÀ\.iotlink\tools\gcc-arm-none-eabi\arm-none-eabi\include\string.h **** 
 133:c:\users\²Ü¼ÒºÀ\.iotlink\tools\gcc-arm-none-eabi\arm-none-eabi\include\string.h **** #ifndef DEFS_H	/* Kludge to work around problem compiling in gdb */
 134:c:\users\²Ü¼ÒºÀ\.iotlink\tools\gcc-arm-none-eabi\arm-none-eabi\include\string.h **** char	*strsignal (int __signo);
 371              		.loc 9 134 1 discriminator 3 view .LVU216
 372              		.file 10 "C:/Users/\262\334\274\322\272\300/.iotlink/sdk/IoT_LINK/iot_link/inc/sal_types.h"
   1:C:/Users/²Ü¼ÒºÀ/.iotlink/sdk/IoT_LINK/iot_link/inc\sal_types.h **** /*
   2:C:/Users/²Ü¼ÒºÀ/.iotlink/sdk/IoT_LINK/iot_link/inc\sal_types.h ****  * sal_types.h
   3:C:/Users/²Ü¼ÒºÀ/.iotlink/sdk/IoT_LINK/iot_link/inc\sal_types.h ****  *
   4:C:/Users/²Ü¼ÒºÀ/.iotlink/sdk/IoT_LINK/iot_link/inc\sal_types.h ****  *  Created on: 2019Äê4ÔÂ26ÈÕ
   5:C:/Users/²Ü¼ÒºÀ/.iotlink/sdk/IoT_LINK/iot_link/inc\sal_types.h ****  *      Author: zhangqf
   6:C:/Users/²Ü¼ÒºÀ/.iotlink/sdk/IoT_LINK/iot_link/inc\sal_types.h ****  */
   7:C:/Users/²Ü¼ÒºÀ/.iotlink/sdk/IoT_LINK/iot_link/inc\sal_types.h **** 
   8:C:/Users/²Ü¼ÒºÀ/.iotlink/sdk/IoT_LINK/iot_link/inc\sal_types.h **** #ifndef __SAL_TYPES_H
   9:C:/Users/²Ü¼ÒºÀ/.iotlink/sdk/IoT_LINK/iot_link/inc\sal_types.h **** #define __SAL_TYPES_H
  10:C:/Users/²Ü¼ÒºÀ/.iotlink/sdk/IoT_LINK/iot_link/inc\sal_types.h **** 
  11:C:/Users/²Ü¼ÒºÀ/.iotlink/sdk/IoT_LINK/iot_link/inc\sal_types.h **** #include <stdint.h>
  12:C:/Users/²Ü¼ÒºÀ/.iotlink/sdk/IoT_LINK/iot_link/inc\sal_types.h **** #include <stddef.h>
  13:C:/Users/²Ü¼ÒºÀ/.iotlink/sdk/IoT_LINK/iot_link/inc\sal_types.h **** 
  14:C:/Users/²Ü¼ÒºÀ/.iotlink/sdk/IoT_LINK/iot_link/inc\sal_types.h **** 
  15:C:/Users/²Ü¼ÒºÀ/.iotlink/sdk/IoT_LINK/iot_link/inc\sal_types.h **** /**
  16:C:/Users/²Ü¼ÒºÀ/.iotlink/sdk/IoT_LINK/iot_link/inc\sal_types.h ****  * @brief: all the structure and defines needed by the  applications should include
  17:C:/Users/²Ü¼ÒºÀ/.iotlink/sdk/IoT_LINK/iot_link/inc\sal_types.h ****  *         this file;if you have the one yourself, please check whether they have the same value
  18:C:/Users/²Ü¼ÒºÀ/.iotlink/sdk/IoT_LINK/iot_link/inc\sal_types.h ****  *         And these defines keep compatible with linux and
  19:C:/Users/²Ü¼ÒºÀ/.iotlink/sdk/IoT_LINK/iot_link/inc\sal_types.h ****  */
  20:C:/Users/²Ü¼ÒºÀ/.iotlink/sdk/IoT_LINK/iot_link/inc\sal_types.h **** 
  21:C:/Users/²Ü¼ÒºÀ/.iotlink/sdk/IoT_LINK/iot_link/inc\sal_types.h **** #ifndef socklen_t
  22:C:/Users/²Ü¼ÒºÀ/.iotlink/sdk/IoT_LINK/iot_link/inc\sal_types.h **** #define socklen_t int
  23:C:/Users/²Ü¼ÒºÀ/.iotlink/sdk/IoT_LINK/iot_link/inc\sal_types.h **** #endif
  24:C:/Users/²Ü¼ÒºÀ/.iotlink/sdk/IoT_LINK/iot_link/inc\sal_types.h **** 
  25:C:/Users/²Ü¼ÒºÀ/.iotlink/sdk/IoT_LINK/iot_link/inc\sal_types.h **** #ifndef ssize_t
  26:C:/Users/²Ü¼ÒºÀ/.iotlink/sdk/IoT_LINK/iot_link/inc\sal_types.h **** #define ssize_t   int
  27:C:/Users/²Ü¼ÒºÀ/.iotlink/sdk/IoT_LINK/iot_link/inc\sal_types.h **** #endif
  28:C:/Users/²Ü¼ÒºÀ/.iotlink/sdk/IoT_LINK/iot_link/inc\sal_types.h **** 
  29:C:/Users/²Ü¼ÒºÀ/.iotlink/sdk/IoT_LINK/iot_link/inc\sal_types.h **** 
  30:C:/Users/²Ü¼ÒºÀ/.iotlink/sdk/IoT_LINK/iot_link/inc\sal_types.h **** #ifndef sa_family_t
  31:C:/Users/²Ü¼ÒºÀ/.iotlink/sdk/IoT_LINK/iot_link/inc\sal_types.h **** #define sa_family_t  uint16_t
  32:C:/Users/²Ü¼ÒºÀ/.iotlink/sdk/IoT_LINK/iot_link/inc\sal_types.h **** #endif
  33:C:/Users/²Ü¼ÒºÀ/.iotlink/sdk/IoT_LINK/iot_link/inc\sal_types.h **** 
  34:C:/Users/²Ü¼ÒºÀ/.iotlink/sdk/IoT_LINK/iot_link/inc\sal_types.h **** #ifndef in_port_t
  35:C:/Users/²Ü¼ÒºÀ/.iotlink/sdk/IoT_LINK/iot_link/inc\sal_types.h **** #define in_port_t  uint16_t
  36:C:/Users/²Ü¼ÒºÀ/.iotlink/sdk/IoT_LINK/iot_link/inc\sal_types.h **** #endif
  37:C:/Users/²Ü¼ÒºÀ/.iotlink/sdk/IoT_LINK/iot_link/inc\sal_types.h **** 
  38:C:/Users/²Ü¼ÒºÀ/.iotlink/sdk/IoT_LINK/iot_link/inc\sal_types.h **** 
  39:C:/Users/²Ü¼ÒºÀ/.iotlink/sdk/IoT_LINK/iot_link/inc\sal_types.h **** #ifndef in_addr_t
  40:C:/Users/²Ü¼ÒºÀ/.iotlink/sdk/IoT_LINK/iot_link/inc\sal_types.h **** #define in_addr_t uint32_t
  41:C:/Users/²Ü¼ÒºÀ/.iotlink/sdk/IoT_LINK/iot_link/inc\sal_types.h **** #endif
  42:C:/Users/²Ü¼ÒºÀ/.iotlink/sdk/IoT_LINK/iot_link/inc\sal_types.h **** 
ARM GAS  C:\Users\²Ü¼ÒºÀ\AppData\Local\Temp\cco1ZmL6.s 			page 26


  43:C:/Users/²Ü¼ÒºÀ/.iotlink/sdk/IoT_LINK/iot_link/inc\sal_types.h **** 
  44:C:/Users/²Ü¼ÒºÀ/.iotlink/sdk/IoT_LINK/iot_link/inc\sal_types.h **** 
  45:C:/Users/²Ü¼ÒºÀ/.iotlink/sdk/IoT_LINK/iot_link/inc\sal_types.h **** struct sockaddr
 373              		.loc 10 45 1 discriminator 3 view .LVU217
  46:C:/Users/²Ü¼ÒºÀ/.iotlink/sdk/IoT_LINK/iot_link/inc\sal_types.h **** {
  47:C:/Users/²Ü¼ÒºÀ/.iotlink/sdk/IoT_LINK/iot_link/inc\sal_types.h ****     sa_family_t     sa_family;      /* address family, AF_xxx   */
  48:C:/Users/²Ü¼ÒºÀ/.iotlink/sdk/IoT_LINK/iot_link/inc\sal_types.h ****     char            sa_data[14];    /* 14 bytes of protocol address */
  49:C:/Users/²Ü¼ÒºÀ/.iotlink/sdk/IoT_LINK/iot_link/inc\sal_types.h **** };
  50:C:/Users/²Ü¼ÒºÀ/.iotlink/sdk/IoT_LINK/iot_link/inc\sal_types.h **** 
  51:C:/Users/²Ü¼ÒºÀ/.iotlink/sdk/IoT_LINK/iot_link/inc\sal_types.h **** struct linger
 374              		.loc 10 51 1 discriminator 3 view .LVU218
  52:C:/Users/²Ü¼ÒºÀ/.iotlink/sdk/IoT_LINK/iot_link/inc\sal_types.h **** {
  53:C:/Users/²Ü¼ÒºÀ/.iotlink/sdk/IoT_LINK/iot_link/inc\sal_types.h ****     int l_onoff;    /* Linger active            */
  54:C:/Users/²Ü¼ÒºÀ/.iotlink/sdk/IoT_LINK/iot_link/inc\sal_types.h ****     int l_linger;   /* How long to linger for   */
  55:C:/Users/²Ü¼ÒºÀ/.iotlink/sdk/IoT_LINK/iot_link/inc\sal_types.h **** };
  56:C:/Users/²Ü¼ÒºÀ/.iotlink/sdk/IoT_LINK/iot_link/inc\sal_types.h **** 
  57:C:/Users/²Ü¼ÒºÀ/.iotlink/sdk/IoT_LINK/iot_link/inc\sal_types.h **** 
  58:C:/Users/²Ü¼ÒºÀ/.iotlink/sdk/IoT_LINK/iot_link/inc\sal_types.h **** ;
 375              		.loc 10 58 1 discriminator 3 view .LVU219
  59:C:/Users/²Ü¼ÒºÀ/.iotlink/sdk/IoT_LINK/iot_link/inc\sal_types.h **** 
  60:C:/Users/²Ü¼ÒºÀ/.iotlink/sdk/IoT_LINK/iot_link/inc\sal_types.h **** struct in_addr
 376              		.loc 10 60 1 discriminator 3 view .LVU220
  61:C:/Users/²Ü¼ÒºÀ/.iotlink/sdk/IoT_LINK/iot_link/inc\sal_types.h **** {
  62:C:/Users/²Ü¼ÒºÀ/.iotlink/sdk/IoT_LINK/iot_link/inc\sal_types.h ****     in_addr_t s_addr;                    /* IPv4 address */
  63:C:/Users/²Ü¼ÒºÀ/.iotlink/sdk/IoT_LINK/iot_link/inc\sal_types.h **** };
  64:C:/Users/²Ü¼ÒºÀ/.iotlink/sdk/IoT_LINK/iot_link/inc\sal_types.h **** 
  65:C:/Users/²Ü¼ÒºÀ/.iotlink/sdk/IoT_LINK/iot_link/inc\sal_types.h **** 
  66:C:/Users/²Ü¼ÒºÀ/.iotlink/sdk/IoT_LINK/iot_link/inc\sal_types.h **** struct sockaddr_in
 377              		.loc 10 66 1 discriminator 3 view .LVU221
  67:C:/Users/²Ü¼ÒºÀ/.iotlink/sdk/IoT_LINK/iot_link/inc\sal_types.h **** {
  68:C:/Users/²Ü¼ÒºÀ/.iotlink/sdk/IoT_LINK/iot_link/inc\sal_types.h ****     sa_family_t sin_family;             /* AF_INET */
  69:C:/Users/²Ü¼ÒºÀ/.iotlink/sdk/IoT_LINK/iot_link/inc\sal_types.h ****     in_port_t sin_port;                 /* Port number.  */
  70:C:/Users/²Ü¼ÒºÀ/.iotlink/sdk/IoT_LINK/iot_link/inc\sal_types.h ****     struct in_addr sin_addr;            /* Internet address.  */
  71:C:/Users/²Ü¼ÒºÀ/.iotlink/sdk/IoT_LINK/iot_link/inc\sal_types.h ****     unsigned char sin_zero[8];          /* Pad to size of `struct sockaddr'.  */
  72:C:/Users/²Ü¼ÒºÀ/.iotlink/sdk/IoT_LINK/iot_link/inc\sal_types.h **** };
  73:C:/Users/²Ü¼ÒºÀ/.iotlink/sdk/IoT_LINK/iot_link/inc\sal_types.h **** 
  74:C:/Users/²Ü¼ÒºÀ/.iotlink/sdk/IoT_LINK/iot_link/inc\sal_types.h **** struct hostent {
 378              		.loc 10 74 1 discriminator 3 view .LVU222
 379              		.file 11 "C:/Users/\262\334\274\322\272\300/.iotlink/sdk/IoT_LINK/iot_link/inc/sal.h"
   1:C:/Users/²Ü¼ÒºÀ/.iotlink/sdk/IoT_LINK/iot_link/inc\sal.h **** 
   2:C:/Users/²Ü¼ÒºÀ/.iotlink/sdk/IoT_LINK/iot_link/inc\sal.h **** 
   3:C:/Users/²Ü¼ÒºÀ/.iotlink/sdk/IoT_LINK/iot_link/inc\sal.h **** #ifndef __SAL_H
   4:C:/Users/²Ü¼ÒºÀ/.iotlink/sdk/IoT_LINK/iot_link/inc\sal.h **** #define __SAL_H
   5:C:/Users/²Ü¼ÒºÀ/.iotlink/sdk/IoT_LINK/iot_link/inc\sal.h **** 
   6:C:/Users/²Ü¼ÒºÀ/.iotlink/sdk/IoT_LINK/iot_link/inc\sal.h **** #include <stdint.h>
   7:C:/Users/²Ü¼ÒºÀ/.iotlink/sdk/IoT_LINK/iot_link/inc\sal.h **** #include <stddef.h>
   8:C:/Users/²Ü¼ÒºÀ/.iotlink/sdk/IoT_LINK/iot_link/inc\sal.h **** #include <stdio.h>
   9:C:/Users/²Ü¼ÒºÀ/.iotlink/sdk/IoT_LINK/iot_link/inc\sal.h **** #include <string.h>
  10:C:/Users/²Ü¼ÒºÀ/.iotlink/sdk/IoT_LINK/iot_link/inc\sal.h **** #include <sys/select.h>
  11:C:/Users/²Ü¼ÒºÀ/.iotlink/sdk/IoT_LINK/iot_link/inc\sal.h **** 
  12:C:/Users/²Ü¼ÒºÀ/.iotlink/sdk/IoT_LINK/iot_link/inc\sal.h **** #include <sal_define.h>
  13:C:/Users/²Ü¼ÒºÀ/.iotlink/sdk/IoT_LINK/iot_link/inc\sal.h **** #include <sal_types.h>
  14:C:/Users/²Ü¼ÒºÀ/.iotlink/sdk/IoT_LINK/iot_link/inc\sal.h **** #include <link_endian.h>
  15:C:/Users/²Ü¼ÒºÀ/.iotlink/sdk/IoT_LINK/iot_link/inc\sal.h **** 
  16:C:/Users/²Ü¼ÒºÀ/.iotlink/sdk/IoT_LINK/iot_link/inc\sal.h **** /**
  17:C:/Users/²Ü¼ÒºÀ/.iotlink/sdk/IoT_LINK/iot_link/inc\sal.h ****  *
  18:C:/Users/²Ü¼ÒºÀ/.iotlink/sdk/IoT_LINK/iot_link/inc\sal.h ****  *@brief: list all the api need for the application development,,supported depends on the implement
ARM GAS  C:\Users\²Ü¼ÒºÀ\AppData\Local\Temp\cco1ZmL6.s 			page 27


  19:C:/Users/²Ü¼ÒºÀ/.iotlink/sdk/IoT_LINK/iot_link/inc\sal.h ****  *       the tcpip stack
  20:C:/Users/²Ü¼ÒºÀ/.iotlink/sdk/IoT_LINK/iot_link/inc\sal.h ****  *  Thanks to BSD && linux, which must be compatible
  21:C:/Users/²Ü¼ÒºÀ/.iotlink/sdk/IoT_LINK/iot_link/inc\sal.h ****  */
  22:C:/Users/²Ü¼ÒºÀ/.iotlink/sdk/IoT_LINK/iot_link/inc\sal.h **** 
  23:C:/Users/²Ü¼ÒºÀ/.iotlink/sdk/IoT_LINK/iot_link/inc\sal.h **** int sal_socket(int domain, int type, int protocol);
 380              		.loc 11 23 1 discriminator 3 view .LVU223
  24:C:/Users/²Ü¼ÒºÀ/.iotlink/sdk/IoT_LINK/iot_link/inc\sal.h **** 
  25:C:/Users/²Ü¼ÒºÀ/.iotlink/sdk/IoT_LINK/iot_link/inc\sal.h **** int sal_bind(int sockfd,const struct sockaddr *addr,socklen_t addrlen);
 381              		.loc 11 25 1 discriminator 3 view .LVU224
  26:C:/Users/²Ü¼ÒºÀ/.iotlink/sdk/IoT_LINK/iot_link/inc\sal.h **** 
  27:C:/Users/²Ü¼ÒºÀ/.iotlink/sdk/IoT_LINK/iot_link/inc\sal.h **** int sal_listen(int sockfd,  int backlog);
 382              		.loc 11 27 1 discriminator 3 view .LVU225
  28:C:/Users/²Ü¼ÒºÀ/.iotlink/sdk/IoT_LINK/iot_link/inc\sal.h **** 
  29:C:/Users/²Ü¼ÒºÀ/.iotlink/sdk/IoT_LINK/iot_link/inc\sal.h **** int sal_accept(int sockfd,struct sockaddr *addr,socklen_t *addrlen);
 383              		.loc 11 29 1 discriminator 3 view .LVU226
  30:C:/Users/²Ü¼ÒºÀ/.iotlink/sdk/IoT_LINK/iot_link/inc\sal.h **** 
  31:C:/Users/²Ü¼ÒºÀ/.iotlink/sdk/IoT_LINK/iot_link/inc\sal.h **** int sal_connect(int sockfd, const struct sockaddr *addr,socklen_t addrlen);
 384              		.loc 11 31 1 discriminator 3 view .LVU227
  32:C:/Users/²Ü¼ÒºÀ/.iotlink/sdk/IoT_LINK/iot_link/inc\sal.h **** 
  33:C:/Users/²Ü¼ÒºÀ/.iotlink/sdk/IoT_LINK/iot_link/inc\sal.h **** int sal_getsockname(int sockfd, struct sockaddr *addr,socklen_t *addrlen);
 385              		.loc 11 33 1 discriminator 3 view .LVU228
  34:C:/Users/²Ü¼ÒºÀ/.iotlink/sdk/IoT_LINK/iot_link/inc\sal.h **** 
  35:C:/Users/²Ü¼ÒºÀ/.iotlink/sdk/IoT_LINK/iot_link/inc\sal.h **** int sal_getpeername(int sockfd, struct sockaddr *addr,socklen_t *addrlen);
 386              		.loc 11 35 1 discriminator 3 view .LVU229
  36:C:/Users/²Ü¼ÒºÀ/.iotlink/sdk/IoT_LINK/iot_link/inc\sal.h **** 
  37:C:/Users/²Ü¼ÒºÀ/.iotlink/sdk/IoT_LINK/iot_link/inc\sal.h **** int sal_getsockopt (int socket, int level, int optname, void *optval, int *optlen);
 387              		.loc 11 37 1 discriminator 3 view .LVU230
  38:C:/Users/²Ü¼ÒºÀ/.iotlink/sdk/IoT_LINK/iot_link/inc\sal.h **** 
  39:C:/Users/²Ü¼ÒºÀ/.iotlink/sdk/IoT_LINK/iot_link/inc\sal.h **** int sal_setsockopt (int socket, int level, int optname, const void *optval, int optlen);
 388              		.loc 11 39 1 discriminator 3 view .LVU231
  40:C:/Users/²Ü¼ÒºÀ/.iotlink/sdk/IoT_LINK/iot_link/inc\sal.h **** 
  41:C:/Users/²Ü¼ÒºÀ/.iotlink/sdk/IoT_LINK/iot_link/inc\sal.h **** int sal_recv(int sockfd,void *buf,size_t len,int flags);
 389              		.loc 11 41 1 discriminator 3 view .LVU232
  42:C:/Users/²Ü¼ÒºÀ/.iotlink/sdk/IoT_LINK/iot_link/inc\sal.h **** 
  43:C:/Users/²Ü¼ÒºÀ/.iotlink/sdk/IoT_LINK/iot_link/inc\sal.h **** int sal_recvfrom(int sockfd, void *mem, size_t len, int flags,
 390              		.loc 11 43 1 discriminator 3 view .LVU233
  44:C:/Users/²Ü¼ÒºÀ/.iotlink/sdk/IoT_LINK/iot_link/inc\sal.h ****       struct sockaddr *from, socklen_t *fromlen);
  45:C:/Users/²Ü¼ÒºÀ/.iotlink/sdk/IoT_LINK/iot_link/inc\sal.h **** 
  46:C:/Users/²Ü¼ÒºÀ/.iotlink/sdk/IoT_LINK/iot_link/inc\sal.h **** int sal_send(int sockfd,const void *buf,size_t len,int flags);
 391              		.loc 11 46 1 discriminator 3 view .LVU234
  47:C:/Users/²Ü¼ÒºÀ/.iotlink/sdk/IoT_LINK/iot_link/inc\sal.h **** 
  48:C:/Users/²Ü¼ÒºÀ/.iotlink/sdk/IoT_LINK/iot_link/inc\sal.h **** int sal_sendto(int sockfd, const void *dataptr, size_t size, int flags,
 392              		.loc 11 48 1 discriminator 3 view .LVU235
  49:C:/Users/²Ü¼ÒºÀ/.iotlink/sdk/IoT_LINK/iot_link/inc\sal.h ****     const struct sockaddr *to, socklen_t tolen);
  50:C:/Users/²Ü¼ÒºÀ/.iotlink/sdk/IoT_LINK/iot_link/inc\sal.h **** 
  51:C:/Users/²Ü¼ÒºÀ/.iotlink/sdk/IoT_LINK/iot_link/inc\sal.h **** int sal_shutdown(int sockfd, int how);
 393              		.loc 11 51 1 discriminator 3 view .LVU236
  52:C:/Users/²Ü¼ÒºÀ/.iotlink/sdk/IoT_LINK/iot_link/inc\sal.h **** 
  53:C:/Users/²Ü¼ÒºÀ/.iotlink/sdk/IoT_LINK/iot_link/inc\sal.h **** int sal_closesocket(int sockfd);
 394              		.loc 11 53 1 discriminator 3 view .LVU237
  54:C:/Users/²Ü¼ÒºÀ/.iotlink/sdk/IoT_LINK/iot_link/inc\sal.h **** 
  55:C:/Users/²Ü¼ÒºÀ/.iotlink/sdk/IoT_LINK/iot_link/inc\sal.h **** int sal_select(int nfds, fd_set *readfds, fd_set *writefds, fd_set *exceptfds, struct timeval *time
 395              		.loc 11 55 1 discriminator 3 view .LVU238
  56:C:/Users/²Ü¼ÒºÀ/.iotlink/sdk/IoT_LINK/iot_link/inc\sal.h **** 
  57:C:/Users/²Ü¼ÒºÀ/.iotlink/sdk/IoT_LINK/iot_link/inc\sal.h **** 
  58:C:/Users/²Ü¼ÒºÀ/.iotlink/sdk/IoT_LINK/iot_link/inc\sal.h **** struct hostent * sal_gethostbyname(const char *name);
 396              		.loc 11 58 1 discriminator 3 view .LVU239
ARM GAS  C:\Users\²Ü¼ÒºÀ\AppData\Local\Temp\cco1ZmL6.s 			page 28


  59:C:/Users/²Ü¼ÒºÀ/.iotlink/sdk/IoT_LINK/iot_link/inc\sal.h **** 
  60:C:/Users/²Ü¼ÒºÀ/.iotlink/sdk/IoT_LINK/iot_link/inc\sal.h **** 
  61:C:/Users/²Ü¼ÒºÀ/.iotlink/sdk/IoT_LINK/iot_link/inc\sal.h **** /**
  62:C:/Users/²Ü¼ÒºÀ/.iotlink/sdk/IoT_LINK/iot_link/inc\sal.h ****  * @brief: if you want to use the tcpip abstract layer,like install the tcpip stack,
  63:C:/Users/²Ü¼ÒºÀ/.iotlink/sdk/IoT_LINK/iot_link/inc\sal.h ****  *         or use the api as the application user, you must call this function first
  64:C:/Users/²Ü¼ÒºÀ/.iotlink/sdk/IoT_LINK/iot_link/inc\sal.h ****  *
  65:C:/Users/²Ü¼ÒºÀ/.iotlink/sdk/IoT_LINK/iot_link/inc\sal.h ****  * @return:0 success while -1 failed
  66:C:/Users/²Ü¼ÒºÀ/.iotlink/sdk/IoT_LINK/iot_link/inc\sal.h ****  * */
  67:C:/Users/²Ü¼ÒºÀ/.iotlink/sdk/IoT_LINK/iot_link/inc\sal.h **** int link_tcpip_init( void);
 397              		.loc 11 67 1 discriminator 3 view .LVU240
  68:C:/Users/²Ü¼ÒºÀ/.iotlink/sdk/IoT_LINK/iot_link/inc\sal.h **** 
  69:C:/Users/²Ü¼ÒºÀ/.iotlink/sdk/IoT_LINK/iot_link/inc\sal.h **** in_addr_t inet_addr(const char *addr);
 398              		.loc 11 69 1 discriminator 3 view .LVU241
  70:C:/Users/²Ü¼ÒºÀ/.iotlink/sdk/IoT_LINK/iot_link/inc\sal.h **** char *inet_ntoa(struct in_addr addr);
 399              		.loc 11 70 1 discriminator 3 view .LVU242
  71:C:/Users/²Ü¼ÒºÀ/.iotlink/sdk/IoT_LINK/iot_link/inc\sal.h **** int inet_aton(const char *string,struct in_addr *addr);
 400              		.loc 11 71 1 discriminator 3 view .LVU243
  72:C:/Users/²Ü¼ÒºÀ/.iotlink/sdk/IoT_LINK/iot_link/inc\sal.h **** const char *inet_ntop(int af, const void *src, char *dst, socklen_t cnt);
 401              		.loc 11 72 1 discriminator 3 view .LVU244
 116:C:/Users/²Ü¼ÒºÀ/.iotlink/sdk/IoT_LINK/iot_link\link_main.c **** #endif
 117:C:/Users/²Ü¼ÒºÀ/.iotlink/sdk/IoT_LINK/iot_link\link_main.c **** 
 118:C:/Users/²Ü¼ÒºÀ/.iotlink/sdk/IoT_LINK/iot_link\link_main.c **** 
 119:C:/Users/²Ü¼ÒºÀ/.iotlink/sdk/IoT_LINK/iot_link\link_main.c **** //////////////////////////  TCPIP PROTOCOL /////////////////////////////////////
 120:C:/Users/²Ü¼ÒºÀ/.iotlink/sdk/IoT_LINK/iot_link\link_main.c **** #ifdef CONFIG_TCPIP_AL_ENABLE
 121:C:/Users/²Ü¼ÒºÀ/.iotlink/sdk/IoT_LINK/iot_link\link_main.c ****     #include <sal.h>
 122:C:/Users/²Ü¼ÒºÀ/.iotlink/sdk/IoT_LINK/iot_link\link_main.c ****     (void)link_tcpip_init();
 402              		.loc 1 122 5 discriminator 3 view .LVU245
 403              		.loc 1 122 11 is_stmt 0 discriminator 3 view .LVU246
 404 0064 FFF7FEFF 		bl	link_tcpip_init
 405              	.LVL14:
 406              		.file 12 "C:/Users/\262\334\274\322\272\300/.iotlink/sdk/IoT_LINK/iot_link/network/lwm2m/lwm2m_al/
   1:C:/Users/²Ü¼ÒºÀ/.iotlink/sdk/IoT_LINK/iot_link/network/lwm2m/lwm2m_al\lwm2m_al.h **** /*----------------------------------------------------------------------------
   2:C:/Users/²Ü¼ÒºÀ/.iotlink/sdk/IoT_LINK/iot_link/network/lwm2m/lwm2m_al\lwm2m_al.h ****  * Copyright (c) <2019>, <Huawei Technologies Co., Ltd>
   3:C:/Users/²Ü¼ÒºÀ/.iotlink/sdk/IoT_LINK/iot_link/network/lwm2m/lwm2m_al\lwm2m_al.h ****  * All rights reserved.
   4:C:/Users/²Ü¼ÒºÀ/.iotlink/sdk/IoT_LINK/iot_link/network/lwm2m/lwm2m_al\lwm2m_al.h ****  * Redistribution and use in source and binary forms, with or without modification,
   5:C:/Users/²Ü¼ÒºÀ/.iotlink/sdk/IoT_LINK/iot_link/network/lwm2m/lwm2m_al\lwm2m_al.h ****  * are permitted provided that the following conditions are met:
   6:C:/Users/²Ü¼ÒºÀ/.iotlink/sdk/IoT_LINK/iot_link/network/lwm2m/lwm2m_al\lwm2m_al.h ****  * 1. Redistributions of source code must retain the above copyright notice, this list of
   7:C:/Users/²Ü¼ÒºÀ/.iotlink/sdk/IoT_LINK/iot_link/network/lwm2m/lwm2m_al\lwm2m_al.h ****  * conditions and the following disclaimer.
   8:C:/Users/²Ü¼ÒºÀ/.iotlink/sdk/IoT_LINK/iot_link/network/lwm2m/lwm2m_al\lwm2m_al.h ****  * 2. Redistributions in binary form must reproduce the above copyright notice, this list
   9:C:/Users/²Ü¼ÒºÀ/.iotlink/sdk/IoT_LINK/iot_link/network/lwm2m/lwm2m_al\lwm2m_al.h ****  * of conditions and the following disclaimer in the documentation and/or other materials
  10:C:/Users/²Ü¼ÒºÀ/.iotlink/sdk/IoT_LINK/iot_link/network/lwm2m/lwm2m_al\lwm2m_al.h ****  * provided with the distribution.
  11:C:/Users/²Ü¼ÒºÀ/.iotlink/sdk/IoT_LINK/iot_link/network/lwm2m/lwm2m_al\lwm2m_al.h ****  * 3. Neither the name of the copyright holder nor the names of its contributors may be used
  12:C:/Users/²Ü¼ÒºÀ/.iotlink/sdk/IoT_LINK/iot_link/network/lwm2m/lwm2m_al\lwm2m_al.h ****  * to endorse or promote products derived from this software without specific prior written
  13:C:/Users/²Ü¼ÒºÀ/.iotlink/sdk/IoT_LINK/iot_link/network/lwm2m/lwm2m_al\lwm2m_al.h ****  * permission.
  14:C:/Users/²Ü¼ÒºÀ/.iotlink/sdk/IoT_LINK/iot_link/network/lwm2m/lwm2m_al\lwm2m_al.h ****  * THIS SOFTWARE IS PROVIDED BY THE COPYRIGHT HOLDERS AND CONTRIBUTORS
  15:C:/Users/²Ü¼ÒºÀ/.iotlink/sdk/IoT_LINK/iot_link/network/lwm2m/lwm2m_al\lwm2m_al.h ****  * "AS IS" AND ANY EXPRESS OR IMPLIED WARRANTIES, INCLUDING, BUT NOT LIMITED TO,
  16:C:/Users/²Ü¼ÒºÀ/.iotlink/sdk/IoT_LINK/iot_link/network/lwm2m/lwm2m_al\lwm2m_al.h ****  * THE IMPLIED WARRANTIES OF MERCHANTABILITY AND FITNESS FOR A PARTICULAR
  17:C:/Users/²Ü¼ÒºÀ/.iotlink/sdk/IoT_LINK/iot_link/network/lwm2m/lwm2m_al\lwm2m_al.h ****  * PURPOSE ARE DISCLAIMED. IN NO EVENT SHALL THE COPYRIGHT HOLDER OR
  18:C:/Users/²Ü¼ÒºÀ/.iotlink/sdk/IoT_LINK/iot_link/network/lwm2m/lwm2m_al\lwm2m_al.h ****  * CONTRIBUTORS BE LIABLE FOR ANY DIRECT, INDIRECT, INCIDENTAL, SPECIAL,
  19:C:/Users/²Ü¼ÒºÀ/.iotlink/sdk/IoT_LINK/iot_link/network/lwm2m/lwm2m_al\lwm2m_al.h ****  * EXEMPLARY, OR CONSEQUENTIAL DAMAGES (INCLUDING, BUT NOT LIMITED TO,
  20:C:/Users/²Ü¼ÒºÀ/.iotlink/sdk/IoT_LINK/iot_link/network/lwm2m/lwm2m_al\lwm2m_al.h ****  * PROCUREMENT OF SUBSTITUTE GOODS OR SERVICES; LOSS OF USE, DATA, OR PROFITS;
  21:C:/Users/²Ü¼ÒºÀ/.iotlink/sdk/IoT_LINK/iot_link/network/lwm2m/lwm2m_al\lwm2m_al.h ****  * OR BUSINESS INTERRUPTION) HOWEVER CAUSED AND ON ANY THEORY OF LIABILITY,
  22:C:/Users/²Ü¼ÒºÀ/.iotlink/sdk/IoT_LINK/iot_link/network/lwm2m/lwm2m_al\lwm2m_al.h ****  * WHETHER IN CONTRACT, STRICT LIABILITY, OR TORT (INCLUDING NEGLIGENCE OR
  23:C:/Users/²Ü¼ÒºÀ/.iotlink/sdk/IoT_LINK/iot_link/network/lwm2m/lwm2m_al\lwm2m_al.h ****  * OTHERWISE) ARISING IN ANY WAY OUT OF THE USE OF THIS SOFTWARE, EVEN IF
  24:C:/Users/²Ü¼ÒºÀ/.iotlink/sdk/IoT_LINK/iot_link/network/lwm2m/lwm2m_al\lwm2m_al.h ****  * ADVISED OF THE POSSIBILITY OF SUCH DAMAGE.
  25:C:/Users/²Ü¼ÒºÀ/.iotlink/sdk/IoT_LINK/iot_link/network/lwm2m/lwm2m_al\lwm2m_al.h ****  *---------------------------------------------------------------------------*/
  26:C:/Users/²Ü¼ÒºÀ/.iotlink/sdk/IoT_LINK/iot_link/network/lwm2m/lwm2m_al\lwm2m_al.h **** /*----------------------------------------------------------------------------
ARM GAS  C:\Users\²Ü¼ÒºÀ\AppData\Local\Temp\cco1ZmL6.s 			page 29


  27:C:/Users/²Ü¼ÒºÀ/.iotlink/sdk/IoT_LINK/iot_link/network/lwm2m/lwm2m_al\lwm2m_al.h ****  * Notice of Export Control Law
  28:C:/Users/²Ü¼ÒºÀ/.iotlink/sdk/IoT_LINK/iot_link/network/lwm2m/lwm2m_al\lwm2m_al.h ****  * ===============================================
  29:C:/Users/²Ü¼ÒºÀ/.iotlink/sdk/IoT_LINK/iot_link/network/lwm2m/lwm2m_al\lwm2m_al.h ****  * Huawei LiteOS may be subject to applicable export control laws and regulations, which might
  30:C:/Users/²Ü¼ÒºÀ/.iotlink/sdk/IoT_LINK/iot_link/network/lwm2m/lwm2m_al\lwm2m_al.h ****  * include those applicable to Huawei LiteOS of U.S. and the country in which you are located.
  31:C:/Users/²Ü¼ÒºÀ/.iotlink/sdk/IoT_LINK/iot_link/network/lwm2m/lwm2m_al\lwm2m_al.h ****  * Import, export and usage of Huawei LiteOS in any manner by you shall be in compliance with such
  32:C:/Users/²Ü¼ÒºÀ/.iotlink/sdk/IoT_LINK/iot_link/network/lwm2m/lwm2m_al\lwm2m_al.h ****  * applicable export control laws and regulations.
  33:C:/Users/²Ü¼ÒºÀ/.iotlink/sdk/IoT_LINK/iot_link/network/lwm2m/lwm2m_al\lwm2m_al.h ****  *---------------------------------------------------------------------------*/
  34:C:/Users/²Ü¼ÒºÀ/.iotlink/sdk/IoT_LINK/iot_link/network/lwm2m/lwm2m_al\lwm2m_al.h **** /**
  35:C:/Users/²Ü¼ÒºÀ/.iotlink/sdk/IoT_LINK/iot_link/network/lwm2m/lwm2m_al\lwm2m_al.h ****  *  DATE                AUTHOR      INSTRUCTION
  36:C:/Users/²Ü¼ÒºÀ/.iotlink/sdk/IoT_LINK/iot_link/network/lwm2m/lwm2m_al\lwm2m_al.h ****  *  2019-10-17 19:50  zhangqianfu  The first version
  37:C:/Users/²Ü¼ÒºÀ/.iotlink/sdk/IoT_LINK/iot_link/network/lwm2m/lwm2m_al\lwm2m_al.h ****  *  2019-12-06 19:50  zhuzongru    define interface
  38:C:/Users/²Ü¼ÒºÀ/.iotlink/sdk/IoT_LINK/iot_link/network/lwm2m/lwm2m_al\lwm2m_al.h ****  *
  39:C:/Users/²Ü¼ÒºÀ/.iotlink/sdk/IoT_LINK/iot_link/network/lwm2m/lwm2m_al\lwm2m_al.h ****  */
  40:C:/Users/²Ü¼ÒºÀ/.iotlink/sdk/IoT_LINK/iot_link/network/lwm2m/lwm2m_al\lwm2m_al.h **** #ifndef LITEOS_LAB_IOT_LINK_NETWORK_LWM2M_LWM2M_AL_LWM2M_AL_H_
  41:C:/Users/²Ü¼ÒºÀ/.iotlink/sdk/IoT_LINK/iot_link/network/lwm2m/lwm2m_al\lwm2m_al.h **** #define LITEOS_LAB_IOT_LINK_NETWORK_LWM2M_LWM2M_AL_LWM2M_AL_H_
  42:C:/Users/²Ü¼ÒºÀ/.iotlink/sdk/IoT_LINK/iot_link/network/lwm2m/lwm2m_al\lwm2m_al.h **** 
  43:C:/Users/²Ü¼ÒºÀ/.iotlink/sdk/IoT_LINK/iot_link/network/lwm2m/lwm2m_al\lwm2m_al.h **** #include <stdint.h>
  44:C:/Users/²Ü¼ÒºÀ/.iotlink/sdk/IoT_LINK/iot_link/network/lwm2m/lwm2m_al\lwm2m_al.h **** #include <stdbool.h>
  45:C:/Users/²Ü¼ÒºÀ/.iotlink/sdk/IoT_LINK/iot_link/network/lwm2m/lwm2m_al\lwm2m_al.h **** 
  46:C:/Users/²Ü¼ÒºÀ/.iotlink/sdk/IoT_LINK/iot_link/network/lwm2m/lwm2m_al\lwm2m_al.h **** #define MAX_STRURI_LEN                  20
  47:C:/Users/²Ü¼ÒºÀ/.iotlink/sdk/IoT_LINK/iot_link/network/lwm2m/lwm2m_al\lwm2m_al.h **** #define URI_FMT                         "/%u/%u/%u"
  48:C:/Users/²Ü¼ÒºÀ/.iotlink/sdk/IoT_LINK/iot_link/network/lwm2m/lwm2m_al\lwm2m_al.h **** 
  49:C:/Users/²Ü¼ÒºÀ/.iotlink/sdk/IoT_LINK/iot_link/network/lwm2m/lwm2m_al\lwm2m_al.h **** #define URI_TRIGER_SERVER_INITIATED_BS "/1/0/9"
  50:C:/Users/²Ü¼ÒºÀ/.iotlink/sdk/IoT_LINK/iot_link/network/lwm2m/lwm2m_al\lwm2m_al.h **** 
  51:C:/Users/²Ü¼ÒºÀ/.iotlink/sdk/IoT_LINK/iot_link/network/lwm2m/lwm2m_al\lwm2m_al.h **** 
  52:C:/Users/²Ü¼ÒºÀ/.iotlink/sdk/IoT_LINK/iot_link/network/lwm2m/lwm2m_al\lwm2m_al.h **** #define LWM2M_AL_OP_READ                1
  53:C:/Users/²Ü¼ÒºÀ/.iotlink/sdk/IoT_LINK/iot_link/network/lwm2m/lwm2m_al\lwm2m_al.h **** #define LWM2M_AL_OP_WRITE               2
  54:C:/Users/²Ü¼ÒºÀ/.iotlink/sdk/IoT_LINK/iot_link/network/lwm2m/lwm2m_al\lwm2m_al.h **** #define LWM2M_AL_OP_EXCUTE              3
  55:C:/Users/²Ü¼ÒºÀ/.iotlink/sdk/IoT_LINK/iot_link/network/lwm2m/lwm2m_al\lwm2m_al.h **** #define LWM2M_AL_OP_DISCOVER            4
  56:C:/Users/²Ü¼ÒºÀ/.iotlink/sdk/IoT_LINK/iot_link/network/lwm2m/lwm2m_al\lwm2m_al.h **** #define LWM2M_AL_OP_SERVERREBS          5
  57:C:/Users/²Ü¼ÒºÀ/.iotlink/sdk/IoT_LINK/iot_link/network/lwm2m/lwm2m_al\lwm2m_al.h **** 
  58:C:/Users/²Ü¼ÒºÀ/.iotlink/sdk/IoT_LINK/iot_link/network/lwm2m/lwm2m_al\lwm2m_al.h **** typedef enum
 407              		.loc 12 58 1 is_stmt 1 discriminator 3 view .LVU247
  59:C:/Users/²Ü¼ÒºÀ/.iotlink/sdk/IoT_LINK/iot_link/network/lwm2m/lwm2m_al\lwm2m_al.h **** {
  60:C:/Users/²Ü¼ÒºÀ/.iotlink/sdk/IoT_LINK/iot_link/network/lwm2m/lwm2m_al\lwm2m_al.h ****     LWM2M_OK                            = 0,
  61:C:/Users/²Ü¼ÒºÀ/.iotlink/sdk/IoT_LINK/iot_link/network/lwm2m/lwm2m_al\lwm2m_al.h ****     LWM2M_ARG_INVALID                   = -1,
  62:C:/Users/²Ü¼ÒºÀ/.iotlink/sdk/IoT_LINK/iot_link/network/lwm2m/lwm2m_al\lwm2m_al.h ****     LWM2M_BUF_OVERFLOW                  = -2,
  63:C:/Users/²Ü¼ÒºÀ/.iotlink/sdk/IoT_LINK/iot_link/network/lwm2m/lwm2m_al\lwm2m_al.h ****     LWM2M_MSG_CONGEST                   = -3,
  64:C:/Users/²Ü¼ÒºÀ/.iotlink/sdk/IoT_LINK/iot_link/network/lwm2m/lwm2m_al\lwm2m_al.h ****     LWM2M_MALLOC_FAILED                 = -4,
  65:C:/Users/²Ü¼ÒºÀ/.iotlink/sdk/IoT_LINK/iot_link/network/lwm2m/lwm2m_al\lwm2m_al.h ****     LWM2M_RESOURCE_NOT_FOUND            = -5,
  66:C:/Users/²Ü¼ÒºÀ/.iotlink/sdk/IoT_LINK/iot_link/network/lwm2m/lwm2m_al\lwm2m_al.h ****     LWM2M_RESOURCE_NOT_ENOUGH           = -6,
  67:C:/Users/²Ü¼ÒºÀ/.iotlink/sdk/IoT_LINK/iot_link/network/lwm2m/lwm2m_al\lwm2m_al.h ****     LWM2M_CLIENT_UNREGISTERED           = -7,
  68:C:/Users/²Ü¼ÒºÀ/.iotlink/sdk/IoT_LINK/iot_link/network/lwm2m/lwm2m_al\lwm2m_al.h ****     LWM2M_SOCKET_CREATE_FAILED          = -8,
  69:C:/Users/²Ü¼ÒºÀ/.iotlink/sdk/IoT_LINK/iot_link/network/lwm2m/lwm2m_al\lwm2m_al.h ****     LWM2M_ERR                           = -9,
  70:C:/Users/²Ü¼ÒºÀ/.iotlink/sdk/IoT_LINK/iot_link/network/lwm2m/lwm2m_al\lwm2m_al.h ****     LWM2M_OBJECT_INSTANCE_EXISTED       = -10,
  71:C:/Users/²Ü¼ÒºÀ/.iotlink/sdk/IoT_LINK/iot_link/network/lwm2m/lwm2m_al\lwm2m_al.h ****     LWM2M_SUPPORT_SINGLE_INSTANCE_ONLY  = -11,
  72:C:/Users/²Ü¼ÒºÀ/.iotlink/sdk/IoT_LINK/iot_link/network/lwm2m/lwm2m_al\lwm2m_al.h ****     LWM2M_NOT_SUPPORTED                 = -12,
  73:C:/Users/²Ü¼ÒºÀ/.iotlink/sdk/IoT_LINK/iot_link/network/lwm2m/lwm2m_al\lwm2m_al.h ****     LWM2M_NULL_POINTER                  = -13,
  74:C:/Users/²Ü¼ÒºÀ/.iotlink/sdk/IoT_LINK/iot_link/network/lwm2m/lwm2m_al\lwm2m_al.h ****     LWM2M_COAP_400_BAD_REQUEST          = -14,
  75:C:/Users/²Ü¼ÒºÀ/.iotlink/sdk/IoT_LINK/iot_link/network/lwm2m/lwm2m_al\lwm2m_al.h ****     LWM2M_ADD_OBJECT_FAILED             = -15,
  76:C:/Users/²Ü¼ÒºÀ/.iotlink/sdk/IoT_LINK/iot_link/network/lwm2m/lwm2m_al\lwm2m_al.h ****     LWM2M_ERRNO_NORES                   = -16,
  77:C:/Users/²Ü¼ÒºÀ/.iotlink/sdk/IoT_LINK/iot_link/network/lwm2m/lwm2m_al\lwm2m_al.h ****     LWM2M_ERRNO_REPEAT                  = -17,
  78:C:/Users/²Ü¼ÒºÀ/.iotlink/sdk/IoT_LINK/iot_link/network/lwm2m/lwm2m_al\lwm2m_al.h **** #ifdef MBEDTLS_ERR_NET_SOCKET_FAILED
  79:C:/Users/²Ü¼ÒºÀ/.iotlink/sdk/IoT_LINK/iot_link/network/lwm2m/lwm2m_al\lwm2m_al.h ****     LWM2M_DTLS_NET_SOCKET_FAILED        = MBEDTLS_ERR_NET_SOCKET_FAILED,
  80:C:/Users/²Ü¼ÒºÀ/.iotlink/sdk/IoT_LINK/iot_link/network/lwm2m/lwm2m_al\lwm2m_al.h **** #endif
  81:C:/Users/²Ü¼ÒºÀ/.iotlink/sdk/IoT_LINK/iot_link/network/lwm2m/lwm2m_al\lwm2m_al.h **** #ifdef MBEDTLS_ERR_NET_CONNECT_FAILED
  82:C:/Users/²Ü¼ÒºÀ/.iotlink/sdk/IoT_LINK/iot_link/network/lwm2m/lwm2m_al\lwm2m_al.h ****     LWM2M_DTLS_NET_CONNECT_FAILED       = MBEDTLS_ERR_NET_CONNECT_FAILED,
ARM GAS  C:\Users\²Ü¼ÒºÀ\AppData\Local\Temp\cco1ZmL6.s 			page 30


  83:C:/Users/²Ü¼ÒºÀ/.iotlink/sdk/IoT_LINK/iot_link/network/lwm2m/lwm2m_al\lwm2m_al.h **** #endif
  84:C:/Users/²Ü¼ÒºÀ/.iotlink/sdk/IoT_LINK/iot_link/network/lwm2m/lwm2m_al\lwm2m_al.h **** #ifdef MBEDTLS_ERR_NET_BIND_FAILED
  85:C:/Users/²Ü¼ÒºÀ/.iotlink/sdk/IoT_LINK/iot_link/network/lwm2m/lwm2m_al\lwm2m_al.h ****     LWM2M_DTLS_NET_BIND_FAILED          = MBEDTLS_ERR_NET_BIND_FAILED,
  86:C:/Users/²Ü¼ÒºÀ/.iotlink/sdk/IoT_LINK/iot_link/network/lwm2m/lwm2m_al\lwm2m_al.h **** #endif
  87:C:/Users/²Ü¼ÒºÀ/.iotlink/sdk/IoT_LINK/iot_link/network/lwm2m/lwm2m_al\lwm2m_al.h **** #ifdef MBEDTLS_ERR_NET_LISTEN_FAILED
  88:C:/Users/²Ü¼ÒºÀ/.iotlink/sdk/IoT_LINK/iot_link/network/lwm2m/lwm2m_al\lwm2m_al.h ****     LWM2M_DTLS_NET_LISTEN_FAILED        = MBEDTLS_ERR_NET_LISTEN_FAILED,
  89:C:/Users/²Ü¼ÒºÀ/.iotlink/sdk/IoT_LINK/iot_link/network/lwm2m/lwm2m_al\lwm2m_al.h **** #endif
  90:C:/Users/²Ü¼ÒºÀ/.iotlink/sdk/IoT_LINK/iot_link/network/lwm2m/lwm2m_al\lwm2m_al.h **** #ifdef MBEDTLS_ERR_NET_ACCEPT_FAILED
  91:C:/Users/²Ü¼ÒºÀ/.iotlink/sdk/IoT_LINK/iot_link/network/lwm2m/lwm2m_al\lwm2m_al.h ****     LWM2M_DTLS_NET_ACCEPT_FAILED        = MBEDTLS_ERR_NET_ACCEPT_FAILED,
  92:C:/Users/²Ü¼ÒºÀ/.iotlink/sdk/IoT_LINK/iot_link/network/lwm2m/lwm2m_al\lwm2m_al.h **** #endif
  93:C:/Users/²Ü¼ÒºÀ/.iotlink/sdk/IoT_LINK/iot_link/network/lwm2m/lwm2m_al\lwm2m_al.h **** #ifdef MBEDTLS_ERR_NET_RECV_FAILED
  94:C:/Users/²Ü¼ÒºÀ/.iotlink/sdk/IoT_LINK/iot_link/network/lwm2m/lwm2m_al\lwm2m_al.h ****     LWM2M_DTLS_NET_RECV_FAILED          = MBEDTLS_ERR_NET_RECV_FAILED,
  95:C:/Users/²Ü¼ÒºÀ/.iotlink/sdk/IoT_LINK/iot_link/network/lwm2m/lwm2m_al\lwm2m_al.h **** #endif
  96:C:/Users/²Ü¼ÒºÀ/.iotlink/sdk/IoT_LINK/iot_link/network/lwm2m/lwm2m_al\lwm2m_al.h **** #ifdef MBEDTLS_ERR_NET_SEND_FAILED
  97:C:/Users/²Ü¼ÒºÀ/.iotlink/sdk/IoT_LINK/iot_link/network/lwm2m/lwm2m_al\lwm2m_al.h ****     LWM2M_DTLS_NET_SEND_FAILED          = MBEDTLS_ERR_NET_SEND_FAILED,
  98:C:/Users/²Ü¼ÒºÀ/.iotlink/sdk/IoT_LINK/iot_link/network/lwm2m/lwm2m_al\lwm2m_al.h **** #endif
  99:C:/Users/²Ü¼ÒºÀ/.iotlink/sdk/IoT_LINK/iot_link/network/lwm2m/lwm2m_al\lwm2m_al.h **** #ifdef MBEDTLS_ERR_NET_CONN_RESET
 100:C:/Users/²Ü¼ÒºÀ/.iotlink/sdk/IoT_LINK/iot_link/network/lwm2m/lwm2m_al\lwm2m_al.h ****     LWM2M_DTLS_NET_CONN_RESET           = MBEDTLS_ERR_NET_CONN_RESET,
 101:C:/Users/²Ü¼ÒºÀ/.iotlink/sdk/IoT_LINK/iot_link/network/lwm2m/lwm2m_al\lwm2m_al.h **** #endif
 102:C:/Users/²Ü¼ÒºÀ/.iotlink/sdk/IoT_LINK/iot_link/network/lwm2m/lwm2m_al\lwm2m_al.h **** #ifdef MBEDTLS_ERR_NET_UNKNOWN_HOST
 103:C:/Users/²Ü¼ÒºÀ/.iotlink/sdk/IoT_LINK/iot_link/network/lwm2m/lwm2m_al\lwm2m_al.h ****     LWM2M_DTLS_NET_UNKNOWN_HOST         = MBEDTLS_ERR_NET_UNKNOWN_HOST,
 104:C:/Users/²Ü¼ÒºÀ/.iotlink/sdk/IoT_LINK/iot_link/network/lwm2m/lwm2m_al\lwm2m_al.h **** #endif
 105:C:/Users/²Ü¼ÒºÀ/.iotlink/sdk/IoT_LINK/iot_link/network/lwm2m/lwm2m_al\lwm2m_al.h **** #ifdef MBEDTLS_ERR_NET_BUFFER_TOO_SMALL
 106:C:/Users/²Ü¼ÒºÀ/.iotlink/sdk/IoT_LINK/iot_link/network/lwm2m/lwm2m_al\lwm2m_al.h ****     LWM2M_DTLS_NET_BUFFER_TOO_SMALL     = MBEDTLS_ERR_NET_BUFFER_TOO_SMALL,
 107:C:/Users/²Ü¼ÒºÀ/.iotlink/sdk/IoT_LINK/iot_link/network/lwm2m/lwm2m_al\lwm2m_al.h **** #endif
 108:C:/Users/²Ü¼ÒºÀ/.iotlink/sdk/IoT_LINK/iot_link/network/lwm2m/lwm2m_al\lwm2m_al.h **** #ifdef MBEDTLS_ERR_NET_INVALID_CONTEXT
 109:C:/Users/²Ü¼ÒºÀ/.iotlink/sdk/IoT_LINK/iot_link/network/lwm2m/lwm2m_al\lwm2m_al.h ****     LWM2M_DTLS_NET_INVALID_CONTEXT      = MBEDTLS_ERR_NET_INVALID_CONTEXT,
 110:C:/Users/²Ü¼ÒºÀ/.iotlink/sdk/IoT_LINK/iot_link/network/lwm2m/lwm2m_al\lwm2m_al.h **** #endif
 111:C:/Users/²Ü¼ÒºÀ/.iotlink/sdk/IoT_LINK/iot_link/network/lwm2m/lwm2m_al\lwm2m_al.h **** #ifdef MBEDTLS_ERR_NET_POLL_FAILED
 112:C:/Users/²Ü¼ÒºÀ/.iotlink/sdk/IoT_LINK/iot_link/network/lwm2m/lwm2m_al\lwm2m_al.h ****     LWM2M_DTLS_NET_POLL_FAILED          = MBEDTLS_ERR_NET_POLL_FAILED,
 113:C:/Users/²Ü¼ÒºÀ/.iotlink/sdk/IoT_LINK/iot_link/network/lwm2m/lwm2m_al\lwm2m_al.h **** #endif
 114:C:/Users/²Ü¼ÒºÀ/.iotlink/sdk/IoT_LINK/iot_link/network/lwm2m/lwm2m_al\lwm2m_al.h **** #ifdef MBEDTLS_ERR_NET_BAD_INPUT_DATA
 115:C:/Users/²Ü¼ÒºÀ/.iotlink/sdk/IoT_LINK/iot_link/network/lwm2m/lwm2m_al\lwm2m_al.h ****     LWM2M_DTLS_NET_BAD_INPUT_DATA       = MBEDTLS_ERR_NET_BAD_INPUT_DATA,
 116:C:/Users/²Ü¼ÒºÀ/.iotlink/sdk/IoT_LINK/iot_link/network/lwm2m/lwm2m_al\lwm2m_al.h **** #endif
 117:C:/Users/²Ü¼ÒºÀ/.iotlink/sdk/IoT_LINK/iot_link/network/lwm2m/lwm2m_al\lwm2m_al.h **** } lwm2m_errorcode_e;
 118:C:/Users/²Ü¼ÒºÀ/.iotlink/sdk/IoT_LINK/iot_link/network/lwm2m/lwm2m_al\lwm2m_al.h **** 
 119:C:/Users/²Ü¼ÒºÀ/.iotlink/sdk/IoT_LINK/iot_link/network/lwm2m/lwm2m_al\lwm2m_al.h **** typedef enum
 408              		.loc 12 119 1 discriminator 3 view .LVU248
 120:C:/Users/²Ü¼ÒºÀ/.iotlink/sdk/IoT_LINK/iot_link/network/lwm2m/lwm2m_al\lwm2m_al.h **** {
 121:C:/Users/²Ü¼ÒºÀ/.iotlink/sdk/IoT_LINK/iot_link/network/lwm2m/lwm2m_al\lwm2m_al.h ****     OBJ_SECURITY_ID = 0,
 122:C:/Users/²Ü¼ÒºÀ/.iotlink/sdk/IoT_LINK/iot_link/network/lwm2m/lwm2m_al\lwm2m_al.h ****     OBJ_SERVER_ID,
 123:C:/Users/²Ü¼ÒºÀ/.iotlink/sdk/IoT_LINK/iot_link/network/lwm2m/lwm2m_al\lwm2m_al.h ****     OBJ_ACCESS_CONTROL_ID,
 124:C:/Users/²Ü¼ÒºÀ/.iotlink/sdk/IoT_LINK/iot_link/network/lwm2m/lwm2m_al\lwm2m_al.h ****     OBJ_DEVICE_ID,
 125:C:/Users/²Ü¼ÒºÀ/.iotlink/sdk/IoT_LINK/iot_link/network/lwm2m/lwm2m_al\lwm2m_al.h ****     OBJ_CONNECTIVITY_MONITORING_ID,
 126:C:/Users/²Ü¼ÒºÀ/.iotlink/sdk/IoT_LINK/iot_link/network/lwm2m/lwm2m_al\lwm2m_al.h ****     OBJ_FIRMWARE_UPDATE_ID,
 127:C:/Users/²Ü¼ÒºÀ/.iotlink/sdk/IoT_LINK/iot_link/network/lwm2m/lwm2m_al\lwm2m_al.h ****     OBJ_LOCATION_ID,
 128:C:/Users/²Ü¼ÒºÀ/.iotlink/sdk/IoT_LINK/iot_link/network/lwm2m/lwm2m_al\lwm2m_al.h ****     OBJ_CONNECTIVITY_STATISTICS_ID,
 129:C:/Users/²Ü¼ÒºÀ/.iotlink/sdk/IoT_LINK/iot_link/network/lwm2m/lwm2m_al\lwm2m_al.h ****     OBJ_APP_DATA_ID = 19
 130:C:/Users/²Ü¼ÒºÀ/.iotlink/sdk/IoT_LINK/iot_link/network/lwm2m/lwm2m_al\lwm2m_al.h **** } lwm2m_object_id_e;
 131:C:/Users/²Ü¼ÒºÀ/.iotlink/sdk/IoT_LINK/iot_link/network/lwm2m/lwm2m_al\lwm2m_al.h **** 
 132:C:/Users/²Ü¼ÒºÀ/.iotlink/sdk/IoT_LINK/iot_link/network/lwm2m/lwm2m_al\lwm2m_al.h **** typedef struct
 409              		.loc 12 132 1 discriminator 3 view .LVU249
 133:C:/Users/²Ü¼ÒºÀ/.iotlink/sdk/IoT_LINK/iot_link/network/lwm2m/lwm2m_al\lwm2m_al.h **** {
 134:C:/Users/²Ü¼ÒºÀ/.iotlink/sdk/IoT_LINK/iot_link/network/lwm2m/lwm2m_al\lwm2m_al.h ****     uint16_t            server_id;
 135:C:/Users/²Ü¼ÒºÀ/.iotlink/sdk/IoT_LINK/iot_link/network/lwm2m/lwm2m_al\lwm2m_al.h ****     bool                is_bootstrap;
 136:C:/Users/²Ü¼ÒºÀ/.iotlink/sdk/IoT_LINK/iot_link/network/lwm2m/lwm2m_al\lwm2m_al.h ****     int                 hold_off_time;  /* bootstrap hold off time for server initiated bootstrap *
 137:C:/Users/²Ü¼ÒºÀ/.iotlink/sdk/IoT_LINK/iot_link/network/lwm2m/lwm2m_al\lwm2m_al.h ****     char               *server_ip;
ARM GAS  C:\Users\²Ü¼ÒºÀ\AppData\Local\Temp\cco1ZmL6.s 			page 31


 138:C:/Users/²Ü¼ÒºÀ/.iotlink/sdk/IoT_LINK/iot_link/network/lwm2m/lwm2m_al\lwm2m_al.h ****     char               *server_port;
 139:C:/Users/²Ü¼ÒºÀ/.iotlink/sdk/IoT_LINK/iot_link/network/lwm2m/lwm2m_al\lwm2m_al.h ****     char               *psk_id;
 140:C:/Users/²Ü¼ÒºÀ/.iotlink/sdk/IoT_LINK/iot_link/network/lwm2m/lwm2m_al\lwm2m_al.h ****     char               *psk;
 141:C:/Users/²Ü¼ÒºÀ/.iotlink/sdk/IoT_LINK/iot_link/network/lwm2m/lwm2m_al\lwm2m_al.h ****     uint16_t            psk_len;
 142:C:/Users/²Ü¼ÒºÀ/.iotlink/sdk/IoT_LINK/iot_link/network/lwm2m/lwm2m_al\lwm2m_al.h **** } lwm2m_al_sec_obj_param_t;
 143:C:/Users/²Ü¼ÒºÀ/.iotlink/sdk/IoT_LINK/iot_link/network/lwm2m/lwm2m_al\lwm2m_al.h **** 
 144:C:/Users/²Ü¼ÒºÀ/.iotlink/sdk/IoT_LINK/iot_link/network/lwm2m/lwm2m_al\lwm2m_al.h **** typedef struct
 410              		.loc 12 144 1 discriminator 3 view .LVU250
 145:C:/Users/²Ü¼ÒºÀ/.iotlink/sdk/IoT_LINK/iot_link/network/lwm2m/lwm2m_al\lwm2m_al.h **** {
 146:C:/Users/²Ü¼ÒºÀ/.iotlink/sdk/IoT_LINK/iot_link/network/lwm2m/lwm2m_al\lwm2m_al.h ****     uint16_t            server_id;
 147:C:/Users/²Ü¼ÒºÀ/.iotlink/sdk/IoT_LINK/iot_link/network/lwm2m/lwm2m_al\lwm2m_al.h ****     char               *binding;        /* support U and UQ bind mode */
 148:C:/Users/²Ü¼ÒºÀ/.iotlink/sdk/IoT_LINK/iot_link/network/lwm2m/lwm2m_al\lwm2m_al.h ****     int                 life_time;      /* required option */
 149:C:/Users/²Ü¼ÒºÀ/.iotlink/sdk/IoT_LINK/iot_link/network/lwm2m/lwm2m_al\lwm2m_al.h ****     uint32_t            storing_cnt;    /* storing count */
 150:C:/Users/²Ü¼ÒºÀ/.iotlink/sdk/IoT_LINK/iot_link/network/lwm2m/lwm2m_al\lwm2m_al.h **** } lwm2m_al_srv_obj_param_t;
 151:C:/Users/²Ü¼ÒºÀ/.iotlink/sdk/IoT_LINK/iot_link/network/lwm2m/lwm2m_al\lwm2m_al.h **** 
 152:C:/Users/²Ü¼ÒºÀ/.iotlink/sdk/IoT_LINK/iot_link/network/lwm2m/lwm2m_al\lwm2m_al.h **** typedef int (*fn_lwm2m_msg_deal)(int op, const char *uri, char *msg, int len);
 411              		.loc 12 152 1 discriminator 3 view .LVU251
 153:C:/Users/²Ü¼ÒºÀ/.iotlink/sdk/IoT_LINK/iot_link/network/lwm2m/lwm2m_al\lwm2m_al.h **** 
 154:C:/Users/²Ü¼ÒºÀ/.iotlink/sdk/IoT_LINK/iot_link/network/lwm2m/lwm2m_al\lwm2m_al.h **** typedef struct
 412              		.loc 12 154 1 discriminator 3 view .LVU252
 155:C:/Users/²Ü¼ÒºÀ/.iotlink/sdk/IoT_LINK/iot_link/network/lwm2m/lwm2m_al\lwm2m_al.h **** {
 156:C:/Users/²Ü¼ÒºÀ/.iotlink/sdk/IoT_LINK/iot_link/network/lwm2m/lwm2m_al\lwm2m_al.h ****     char               *endpoint_name;
 157:C:/Users/²Ü¼ÒºÀ/.iotlink/sdk/IoT_LINK/iot_link/network/lwm2m/lwm2m_al\lwm2m_al.h ****     fn_lwm2m_msg_deal   dealer;         /* command dealer, called to process iot platform */
 158:C:/Users/²Ü¼ÒºÀ/.iotlink/sdk/IoT_LINK/iot_link/network/lwm2m/lwm2m_al\lwm2m_al.h ****     void               *user_data;
 159:C:/Users/²Ü¼ÒºÀ/.iotlink/sdk/IoT_LINK/iot_link/network/lwm2m/lwm2m_al\lwm2m_al.h ****     int                 bootstrap_type;
 160:C:/Users/²Ü¼ÒºÀ/.iotlink/sdk/IoT_LINK/iot_link/network/lwm2m/lwm2m_al\lwm2m_al.h **** } lwm2m_al_init_param_t;
 161:C:/Users/²Ü¼ÒºÀ/.iotlink/sdk/IoT_LINK/iot_link/network/lwm2m/lwm2m_al\lwm2m_al.h **** 
 162:C:/Users/²Ü¼ÒºÀ/.iotlink/sdk/IoT_LINK/iot_link/network/lwm2m/lwm2m_al\lwm2m_al.h **** typedef struct
 413              		.loc 12 162 1 discriminator 3 view .LVU253
 163:C:/Users/²Ü¼ÒºÀ/.iotlink/sdk/IoT_LINK/iot_link/network/lwm2m/lwm2m_al\lwm2m_al.h **** {
 164:C:/Users/²Ü¼ÒºÀ/.iotlink/sdk/IoT_LINK/iot_link/network/lwm2m/lwm2m_al\lwm2m_al.h ****     int                 object_id;
 165:C:/Users/²Ü¼ÒºÀ/.iotlink/sdk/IoT_LINK/iot_link/network/lwm2m/lwm2m_al\lwm2m_al.h ****     int                 object_instance_id;
 166:C:/Users/²Ü¼ÒºÀ/.iotlink/sdk/IoT_LINK/iot_link/network/lwm2m/lwm2m_al\lwm2m_al.h ****     int                 resource_id;
 167:C:/Users/²Ü¼ÒºÀ/.iotlink/sdk/IoT_LINK/iot_link/network/lwm2m/lwm2m_al\lwm2m_al.h ****     void               *data;
 168:C:/Users/²Ü¼ÒºÀ/.iotlink/sdk/IoT_LINK/iot_link/network/lwm2m/lwm2m_al\lwm2m_al.h ****     int                 length;
 169:C:/Users/²Ü¼ÒºÀ/.iotlink/sdk/IoT_LINK/iot_link/network/lwm2m/lwm2m_al\lwm2m_al.h ****     int                 mode;           /* mode: 0-nonconfirmableï¼1-confirmable */
 170:C:/Users/²Ü¼ÒºÀ/.iotlink/sdk/IoT_LINK/iot_link/network/lwm2m/lwm2m_al\lwm2m_al.h **** } lwm2m_al_send_param_t;
 171:C:/Users/²Ü¼ÒºÀ/.iotlink/sdk/IoT_LINK/iot_link/network/lwm2m/lwm2m_al\lwm2m_al.h **** 
 172:C:/Users/²Ü¼ÒºÀ/.iotlink/sdk/IoT_LINK/iot_link/network/lwm2m/lwm2m_al\lwm2m_al.h **** /* opertate interface */
 173:C:/Users/²Ü¼ÒºÀ/.iotlink/sdk/IoT_LINK/iot_link/network/lwm2m/lwm2m_al\lwm2m_al.h **** typedef struct
 414              		.loc 12 173 1 discriminator 3 view .LVU254
 174:C:/Users/²Ü¼ÒºÀ/.iotlink/sdk/IoT_LINK/iot_link/network/lwm2m/lwm2m_al\lwm2m_al.h **** {
 175:C:/Users/²Ü¼ÒºÀ/.iotlink/sdk/IoT_LINK/iot_link/network/lwm2m/lwm2m_al\lwm2m_al.h ****     /* lwm2m config, prepare endpoint name and message deal callback */
 176:C:/Users/²Ü¼ÒºÀ/.iotlink/sdk/IoT_LINK/iot_link/network/lwm2m/lwm2m_al\lwm2m_al.h ****     int (*config)(void **handle, lwm2m_al_init_param_t *init_param);
 177:C:/Users/²Ü¼ÒºÀ/.iotlink/sdk/IoT_LINK/iot_link/network/lwm2m/lwm2m_al\lwm2m_al.h **** 
 178:C:/Users/²Ü¼ÒºÀ/.iotlink/sdk/IoT_LINK/iot_link/network/lwm2m/lwm2m_al\lwm2m_al.h ****     /* lwm2m deinit */
 179:C:/Users/²Ü¼ÒºÀ/.iotlink/sdk/IoT_LINK/iot_link/network/lwm2m/lwm2m_al\lwm2m_al.h ****     int (*deconfig)(void *handle);
 180:C:/Users/²Ü¼ÒºÀ/.iotlink/sdk/IoT_LINK/iot_link/network/lwm2m/lwm2m_al\lwm2m_al.h **** 
 181:C:/Users/²Ü¼ÒºÀ/.iotlink/sdk/IoT_LINK/iot_link/network/lwm2m/lwm2m_al\lwm2m_al.h ****     /* lwm2m add object */
 182:C:/Users/²Ü¼ÒºÀ/.iotlink/sdk/IoT_LINK/iot_link/network/lwm2m/lwm2m_al\lwm2m_al.h ****     int (*add_object)(void *handle, int object_id, int object_instance_id, int resource_id, void *p
 183:C:/Users/²Ü¼ÒºÀ/.iotlink/sdk/IoT_LINK/iot_link/network/lwm2m/lwm2m_al\lwm2m_al.h **** 
 184:C:/Users/²Ü¼ÒºÀ/.iotlink/sdk/IoT_LINK/iot_link/network/lwm2m/lwm2m_al\lwm2m_al.h ****     /* lwm2m delete object */
 185:C:/Users/²Ü¼ÒºÀ/.iotlink/sdk/IoT_LINK/iot_link/network/lwm2m/lwm2m_al\lwm2m_al.h ****     int (*delete_object)(void *handle, int object_id);
 186:C:/Users/²Ü¼ÒºÀ/.iotlink/sdk/IoT_LINK/iot_link/network/lwm2m/lwm2m_al\lwm2m_al.h **** 
 187:C:/Users/²Ü¼ÒºÀ/.iotlink/sdk/IoT_LINK/iot_link/network/lwm2m/lwm2m_al\lwm2m_al.h ****     /* lwm2m connect */
 188:C:/Users/²Ü¼ÒºÀ/.iotlink/sdk/IoT_LINK/iot_link/network/lwm2m/lwm2m_al\lwm2m_al.h ****     int (*connect)(void *handle);
 189:C:/Users/²Ü¼ÒºÀ/.iotlink/sdk/IoT_LINK/iot_link/network/lwm2m/lwm2m_al\lwm2m_al.h **** 
ARM GAS  C:\Users\²Ü¼ÒºÀ\AppData\Local\Temp\cco1ZmL6.s 			page 32


 190:C:/Users/²Ü¼ÒºÀ/.iotlink/sdk/IoT_LINK/iot_link/network/lwm2m/lwm2m_al\lwm2m_al.h ****     /* lwm2m disconnect */
 191:C:/Users/²Ü¼ÒºÀ/.iotlink/sdk/IoT_LINK/iot_link/network/lwm2m/lwm2m_al\lwm2m_al.h ****     int (*disconnect)(void *handle);
 192:C:/Users/²Ü¼ÒºÀ/.iotlink/sdk/IoT_LINK/iot_link/network/lwm2m/lwm2m_al\lwm2m_al.h **** 
 193:C:/Users/²Ü¼ÒºÀ/.iotlink/sdk/IoT_LINK/iot_link/network/lwm2m/lwm2m_al\lwm2m_al.h ****     /* lwm2m send */
 194:C:/Users/²Ü¼ÒºÀ/.iotlink/sdk/IoT_LINK/iot_link/network/lwm2m/lwm2m_al\lwm2m_al.h ****     int (*send)(void *handle, lwm2m_al_send_param_t *send_param);
 195:C:/Users/²Ü¼ÒºÀ/.iotlink/sdk/IoT_LINK/iot_link/network/lwm2m/lwm2m_al\lwm2m_al.h **** } lwm2m_al_op_t;
 196:C:/Users/²Ü¼ÒºÀ/.iotlink/sdk/IoT_LINK/iot_link/network/lwm2m/lwm2m_al\lwm2m_al.h **** 
 197:C:/Users/²Ü¼ÒºÀ/.iotlink/sdk/IoT_LINK/iot_link/network/lwm2m/lwm2m_al\lwm2m_al.h **** /**
 198:C:/Users/²Ü¼ÒºÀ/.iotlink/sdk/IoT_LINK/iot_link/network/lwm2m/lwm2m_al\lwm2m_al.h ****  * @brief     : the lwm2m service should call this function to init necessary parameters
 199:C:/Users/²Ü¼ÒºÀ/.iotlink/sdk/IoT_LINK/iot_link/network/lwm2m/lwm2m_al\lwm2m_al.h ****  *
 200:C:/Users/²Ü¼ÒºÀ/.iotlink/sdk/IoT_LINK/iot_link/network/lwm2m/lwm2m_al\lwm2m_al.h ****  *@param[in] init_param  refer to the data of lwm2m_al_init_param_t
 201:C:/Users/²Ü¼ÒºÀ/.iotlink/sdk/IoT_LINK/iot_link/network/lwm2m/lwm2m_al\lwm2m_al.h ****  *
 202:C:/Users/²Ü¼ÒºÀ/.iotlink/sdk/IoT_LINK/iot_link/network/lwm2m/lwm2m_al\lwm2m_al.h ****  * @return 0 success,otherwise it's a special error code if failed
 203:C:/Users/²Ü¼ÒºÀ/.iotlink/sdk/IoT_LINK/iot_link/network/lwm2m/lwm2m_al\lwm2m_al.h ****  */
 204:C:/Users/²Ü¼ÒºÀ/.iotlink/sdk/IoT_LINK/iot_link/network/lwm2m/lwm2m_al\lwm2m_al.h **** int lwm2m_al_config(void **handle, lwm2m_al_init_param_t *init_param);
 415              		.loc 12 204 1 discriminator 3 view .LVU255
 205:C:/Users/²Ü¼ÒºÀ/.iotlink/sdk/IoT_LINK/iot_link/network/lwm2m/lwm2m_al\lwm2m_al.h **** 
 206:C:/Users/²Ü¼ÒºÀ/.iotlink/sdk/IoT_LINK/iot_link/network/lwm2m/lwm2m_al\lwm2m_al.h **** /**
 207:C:/Users/²Ü¼ÒºÀ/.iotlink/sdk/IoT_LINK/iot_link/network/lwm2m/lwm2m_al\lwm2m_al.h ****  * @brief     : when you don't want to use the lwm2m service ,please call this function
 208:C:/Users/²Ü¼ÒºÀ/.iotlink/sdk/IoT_LINK/iot_link/network/lwm2m/lwm2m_al\lwm2m_al.h ****  *
 209:C:/Users/²Ü¼ÒºÀ/.iotlink/sdk/IoT_LINK/iot_link/network/lwm2m/lwm2m_al\lwm2m_al.h ****  *@param[in] void
 210:C:/Users/²Ü¼ÒºÀ/.iotlink/sdk/IoT_LINK/iot_link/network/lwm2m/lwm2m_al\lwm2m_al.h ****  *
 211:C:/Users/²Ü¼ÒºÀ/.iotlink/sdk/IoT_LINK/iot_link/network/lwm2m/lwm2m_al\lwm2m_al.h ****  * @return 0 success,otherwise it's a special error code if failed
 212:C:/Users/²Ü¼ÒºÀ/.iotlink/sdk/IoT_LINK/iot_link/network/lwm2m/lwm2m_al\lwm2m_al.h ****  */
 213:C:/Users/²Ü¼ÒºÀ/.iotlink/sdk/IoT_LINK/iot_link/network/lwm2m/lwm2m_al\lwm2m_al.h **** int lwm2m_al_deconfig(void *handle);
 416              		.loc 12 213 1 discriminator 3 view .LVU256
 214:C:/Users/²Ü¼ÒºÀ/.iotlink/sdk/IoT_LINK/iot_link/network/lwm2m/lwm2m_al\lwm2m_al.h **** 
 215:C:/Users/²Ü¼ÒºÀ/.iotlink/sdk/IoT_LINK/iot_link/network/lwm2m/lwm2m_al\lwm2m_al.h **** /**
 216:C:/Users/²Ü¼ÒºÀ/.iotlink/sdk/IoT_LINK/iot_link/network/lwm2m/lwm2m_al\lwm2m_al.h ****  * @brief     : the lwm2m service should call this function to add some necessary objects
 217:C:/Users/²Ü¼ÒºÀ/.iotlink/sdk/IoT_LINK/iot_link/network/lwm2m/lwm2m_al\lwm2m_al.h ****  *
 218:C:/Users/²Ü¼ÒºÀ/.iotlink/sdk/IoT_LINK/iot_link/network/lwm2m/lwm2m_al\lwm2m_al.h ****  *@param[in] op  refer to the data  lwm2m_al_op_t
 219:C:/Users/²Ü¼ÒºÀ/.iotlink/sdk/IoT_LINK/iot_link/network/lwm2m/lwm2m_al\lwm2m_al.h ****  *
 220:C:/Users/²Ü¼ÒºÀ/.iotlink/sdk/IoT_LINK/iot_link/network/lwm2m/lwm2m_al\lwm2m_al.h ****  * @return 0 success,otherwise it's a special error code if failed
 221:C:/Users/²Ü¼ÒºÀ/.iotlink/sdk/IoT_LINK/iot_link/network/lwm2m/lwm2m_al\lwm2m_al.h ****  */
 222:C:/Users/²Ü¼ÒºÀ/.iotlink/sdk/IoT_LINK/iot_link/network/lwm2m/lwm2m_al\lwm2m_al.h **** int lwm2m_al_add_object(void *handle, int object_id, int object_instance_id, int resource_id, void 
 417              		.loc 12 222 1 discriminator 3 view .LVU257
 223:C:/Users/²Ü¼ÒºÀ/.iotlink/sdk/IoT_LINK/iot_link/network/lwm2m/lwm2m_al\lwm2m_al.h **** 
 224:C:/Users/²Ü¼ÒºÀ/.iotlink/sdk/IoT_LINK/iot_link/network/lwm2m/lwm2m_al\lwm2m_al.h **** /**
 225:C:/Users/²Ü¼ÒºÀ/.iotlink/sdk/IoT_LINK/iot_link/network/lwm2m/lwm2m_al\lwm2m_al.h ****  * @brief     : you could call this function to delete the object by given object id
 226:C:/Users/²Ü¼ÒºÀ/.iotlink/sdk/IoT_LINK/iot_link/network/lwm2m/lwm2m_al\lwm2m_al.h ****  *
 227:C:/Users/²Ü¼ÒºÀ/.iotlink/sdk/IoT_LINK/iot_link/network/lwm2m/lwm2m_al\lwm2m_al.h ****  *@param[in] object_id
 228:C:/Users/²Ü¼ÒºÀ/.iotlink/sdk/IoT_LINK/iot_link/network/lwm2m/lwm2m_al\lwm2m_al.h ****  *
 229:C:/Users/²Ü¼ÒºÀ/.iotlink/sdk/IoT_LINK/iot_link/network/lwm2m/lwm2m_al\lwm2m_al.h ****  * @return 0 success,otherwise it's a special error code if failed
 230:C:/Users/²Ü¼ÒºÀ/.iotlink/sdk/IoT_LINK/iot_link/network/lwm2m/lwm2m_al\lwm2m_al.h ****  */
 231:C:/Users/²Ü¼ÒºÀ/.iotlink/sdk/IoT_LINK/iot_link/network/lwm2m/lwm2m_al\lwm2m_al.h **** int lwm2m_al_delete_object(void *handle, int object_id);
 418              		.loc 12 231 1 discriminator 3 view .LVU258
 232:C:/Users/²Ü¼ÒºÀ/.iotlink/sdk/IoT_LINK/iot_link/network/lwm2m/lwm2m_al\lwm2m_al.h **** 
 233:C:/Users/²Ü¼ÒºÀ/.iotlink/sdk/IoT_LINK/iot_link/network/lwm2m/lwm2m_al\lwm2m_al.h **** /**
 234:C:/Users/²Ü¼ÒºÀ/.iotlink/sdk/IoT_LINK/iot_link/network/lwm2m/lwm2m_al\lwm2m_al.h ****  * @brief     : you could use this function to connect to the lwm2m server
 235:C:/Users/²Ü¼ÒºÀ/.iotlink/sdk/IoT_LINK/iot_link/network/lwm2m/lwm2m_al\lwm2m_al.h ****  *
 236:C:/Users/²Ü¼ÒºÀ/.iotlink/sdk/IoT_LINK/iot_link/network/lwm2m/lwm2m_al\lwm2m_al.h ****  *@param[in] void
 237:C:/Users/²Ü¼ÒºÀ/.iotlink/sdk/IoT_LINK/iot_link/network/lwm2m/lwm2m_al\lwm2m_al.h ****  *
 238:C:/Users/²Ü¼ÒºÀ/.iotlink/sdk/IoT_LINK/iot_link/network/lwm2m/lwm2m_al\lwm2m_al.h ****  * @return 0 success,otherwise it's a special error code if failed
 239:C:/Users/²Ü¼ÒºÀ/.iotlink/sdk/IoT_LINK/iot_link/network/lwm2m/lwm2m_al\lwm2m_al.h ****  */
 240:C:/Users/²Ü¼ÒºÀ/.iotlink/sdk/IoT_LINK/iot_link/network/lwm2m/lwm2m_al\lwm2m_al.h **** int lwm2m_al_connect(void *handle);
 419              		.loc 12 240 1 discriminator 3 view .LVU259
 241:C:/Users/²Ü¼ÒºÀ/.iotlink/sdk/IoT_LINK/iot_link/network/lwm2m/lwm2m_al\lwm2m_al.h **** 
ARM GAS  C:\Users\²Ü¼ÒºÀ\AppData\Local\Temp\cco1ZmL6.s 			page 33


 242:C:/Users/²Ü¼ÒºÀ/.iotlink/sdk/IoT_LINK/iot_link/network/lwm2m/lwm2m_al\lwm2m_al.h **** /**
 243:C:/Users/²Ü¼ÒºÀ/.iotlink/sdk/IoT_LINK/iot_link/network/lwm2m/lwm2m_al\lwm2m_al.h ****  * @brief     : you could use this function to disconnect from the lwm2m server
 244:C:/Users/²Ü¼ÒºÀ/.iotlink/sdk/IoT_LINK/iot_link/network/lwm2m/lwm2m_al\lwm2m_al.h ****  *
 245:C:/Users/²Ü¼ÒºÀ/.iotlink/sdk/IoT_LINK/iot_link/network/lwm2m/lwm2m_al\lwm2m_al.h ****  *@param[in] void
 246:C:/Users/²Ü¼ÒºÀ/.iotlink/sdk/IoT_LINK/iot_link/network/lwm2m/lwm2m_al\lwm2m_al.h ****  *
 247:C:/Users/²Ü¼ÒºÀ/.iotlink/sdk/IoT_LINK/iot_link/network/lwm2m/lwm2m_al\lwm2m_al.h ****  * @return 0 success,otherwise it's a special error code if failed
 248:C:/Users/²Ü¼ÒºÀ/.iotlink/sdk/IoT_LINK/iot_link/network/lwm2m/lwm2m_al\lwm2m_al.h ****  */
 249:C:/Users/²Ü¼ÒºÀ/.iotlink/sdk/IoT_LINK/iot_link/network/lwm2m/lwm2m_al\lwm2m_al.h **** int lwm2m_al_disconnect(void *handle);
 420              		.loc 12 249 1 discriminator 3 view .LVU260
 250:C:/Users/²Ü¼ÒºÀ/.iotlink/sdk/IoT_LINK/iot_link/network/lwm2m/lwm2m_al\lwm2m_al.h **** 
 251:C:/Users/²Ü¼ÒºÀ/.iotlink/sdk/IoT_LINK/iot_link/network/lwm2m/lwm2m_al\lwm2m_al.h **** /**
 252:C:/Users/²Ü¼ÒºÀ/.iotlink/sdk/IoT_LINK/iot_link/network/lwm2m/lwm2m_al\lwm2m_al.h ****  * @brief     : you could use this function to send a message to the server
 253:C:/Users/²Ü¼ÒºÀ/.iotlink/sdk/IoT_LINK/iot_link/network/lwm2m/lwm2m_al\lwm2m_al.h ****  *
 254:C:/Users/²Ü¼ÒºÀ/.iotlink/sdk/IoT_LINK/iot_link/network/lwm2m/lwm2m_al\lwm2m_al.h ****  *@param[in] send_param refer to the data of lwm2m_al_send_param_t
 255:C:/Users/²Ü¼ÒºÀ/.iotlink/sdk/IoT_LINK/iot_link/network/lwm2m/lwm2m_al\lwm2m_al.h ****  *
 256:C:/Users/²Ü¼ÒºÀ/.iotlink/sdk/IoT_LINK/iot_link/network/lwm2m/lwm2m_al\lwm2m_al.h ****  * @return 0 success,otherwise it's a special error code if failed
 257:C:/Users/²Ü¼ÒºÀ/.iotlink/sdk/IoT_LINK/iot_link/network/lwm2m/lwm2m_al\lwm2m_al.h ****  */
 258:C:/Users/²Ü¼ÒºÀ/.iotlink/sdk/IoT_LINK/iot_link/network/lwm2m/lwm2m_al\lwm2m_al.h **** int lwm2m_al_send(void *handle, lwm2m_al_send_param_t *send_param);
 421              		.loc 12 258 1 discriminator 3 view .LVU261
 259:C:/Users/²Ü¼ÒºÀ/.iotlink/sdk/IoT_LINK/iot_link/network/lwm2m/lwm2m_al\lwm2m_al.h **** 
 260:C:/Users/²Ü¼ÒºÀ/.iotlink/sdk/IoT_LINK/iot_link/network/lwm2m/lwm2m_al\lwm2m_al.h **** /**
 261:C:/Users/²Ü¼ÒºÀ/.iotlink/sdk/IoT_LINK/iot_link/network/lwm2m/lwm2m_al\lwm2m_al.h ****  * @brief     : the lwm2m lib should call this function to register its implement as a service
 262:C:/Users/²Ü¼ÒºÀ/.iotlink/sdk/IoT_LINK/iot_link/network/lwm2m/lwm2m_al\lwm2m_al.h ****  *
 263:C:/Users/²Ü¼ÒºÀ/.iotlink/sdk/IoT_LINK/iot_link/network/lwm2m/lwm2m_al\lwm2m_al.h ****  *@param[in] op  refer to the data of lwm2m_al_op_t
 264:C:/Users/²Ü¼ÒºÀ/.iotlink/sdk/IoT_LINK/iot_link/network/lwm2m/lwm2m_al\lwm2m_al.h ****  *
 265:C:/Users/²Ü¼ÒºÀ/.iotlink/sdk/IoT_LINK/iot_link/network/lwm2m/lwm2m_al\lwm2m_al.h ****  * @return 0 success,otherwise it's a special error code if failed
 266:C:/Users/²Ü¼ÒºÀ/.iotlink/sdk/IoT_LINK/iot_link/network/lwm2m/lwm2m_al\lwm2m_al.h ****  */
 267:C:/Users/²Ü¼ÒºÀ/.iotlink/sdk/IoT_LINK/iot_link/network/lwm2m/lwm2m_al\lwm2m_al.h **** int lwm2m_al_install(lwm2m_al_op_t *op);
 422              		.loc 12 267 1 discriminator 3 view .LVU262
 268:C:/Users/²Ü¼ÒºÀ/.iotlink/sdk/IoT_LINK/iot_link/network/lwm2m/lwm2m_al\lwm2m_al.h **** 
 269:C:/Users/²Ü¼ÒºÀ/.iotlink/sdk/IoT_LINK/iot_link/network/lwm2m/lwm2m_al\lwm2m_al.h **** /**
 270:C:/Users/²Ü¼ÒºÀ/.iotlink/sdk/IoT_LINK/iot_link/network/lwm2m/lwm2m_al\lwm2m_al.h ****  * @brief     : call this function to unregister the lwm2m service
 271:C:/Users/²Ü¼ÒºÀ/.iotlink/sdk/IoT_LINK/iot_link/network/lwm2m/lwm2m_al\lwm2m_al.h ****  *
 272:C:/Users/²Ü¼ÒºÀ/.iotlink/sdk/IoT_LINK/iot_link/network/lwm2m/lwm2m_al\lwm2m_al.h ****  *@param[in] void
 273:C:/Users/²Ü¼ÒºÀ/.iotlink/sdk/IoT_LINK/iot_link/network/lwm2m/lwm2m_al\lwm2m_al.h ****  *
 274:C:/Users/²Ü¼ÒºÀ/.iotlink/sdk/IoT_LINK/iot_link/network/lwm2m/lwm2m_al\lwm2m_al.h ****  * @return 0 success,otherwise it's a special error code if failed
 275:C:/Users/²Ü¼ÒºÀ/.iotlink/sdk/IoT_LINK/iot_link/network/lwm2m/lwm2m_al\lwm2m_al.h ****  */
 276:C:/Users/²Ü¼ÒºÀ/.iotlink/sdk/IoT_LINK/iot_link/network/lwm2m/lwm2m_al\lwm2m_al.h **** int lwm2m_al_uninstall(void);
 423              		.loc 12 276 1 discriminator 3 view .LVU263
 277:C:/Users/²Ü¼ÒºÀ/.iotlink/sdk/IoT_LINK/iot_link/network/lwm2m/lwm2m_al\lwm2m_al.h **** 
 278:C:/Users/²Ü¼ÒºÀ/.iotlink/sdk/IoT_LINK/iot_link/network/lwm2m/lwm2m_al\lwm2m_al.h **** 
 279:C:/Users/²Ü¼ÒºÀ/.iotlink/sdk/IoT_LINK/iot_link/network/lwm2m/lwm2m_al\lwm2m_al.h **** /*
 280:C:/Users/²Ü¼ÒºÀ/.iotlink/sdk/IoT_LINK/iot_link/network/lwm2m/lwm2m_al\lwm2m_al.h ****  * @brief: initialize the lwm2m abstract layer
 281:C:/Users/²Ü¼ÒºÀ/.iotlink/sdk/IoT_LINK/iot_link/network/lwm2m/lwm2m_al\lwm2m_al.h ****  *
 282:C:/Users/²Ü¼ÒºÀ/.iotlink/sdk/IoT_LINK/iot_link/network/lwm2m/lwm2m_al\lwm2m_al.h ****  *         and will call the lwm2m implement internal
 283:C:/Users/²Ü¼ÒºÀ/.iotlink/sdk/IoT_LINK/iot_link/network/lwm2m/lwm2m_al\lwm2m_al.h ****  *
 284:C:/Users/²Ü¼ÒºÀ/.iotlink/sdk/IoT_LINK/iot_link/network/lwm2m/lwm2m_al\lwm2m_al.h ****  * @ return 0 success while others failed
 285:C:/Users/²Ü¼ÒºÀ/.iotlink/sdk/IoT_LINK/iot_link/network/lwm2m/lwm2m_al\lwm2m_al.h ****  * */
 286:C:/Users/²Ü¼ÒºÀ/.iotlink/sdk/IoT_LINK/iot_link/network/lwm2m/lwm2m_al\lwm2m_al.h **** 
 287:C:/Users/²Ü¼ÒºÀ/.iotlink/sdk/IoT_LINK/iot_link/network/lwm2m/lwm2m_al\lwm2m_al.h **** 
 288:C:/Users/²Ü¼ÒºÀ/.iotlink/sdk/IoT_LINK/iot_link/network/lwm2m/lwm2m_al\lwm2m_al.h **** int lwm2m_al_init(void);
 424              		.loc 12 288 1 discriminator 3 view .LVU264
 123:C:/Users/²Ü¼ÒºÀ/.iotlink/sdk/IoT_LINK/iot_link\link_main.c **** #endif
 124:C:/Users/²Ü¼ÒºÀ/.iotlink/sdk/IoT_LINK/iot_link\link_main.c **** 
 125:C:/Users/²Ü¼ÒºÀ/.iotlink/sdk/IoT_LINK/iot_link\link_main.c **** //////////////////////////  DTLS PROTOCOL  /////////////////////////////////////
 126:C:/Users/²Ü¼ÒºÀ/.iotlink/sdk/IoT_LINK/iot_link\link_main.c **** #ifdef CONFIG_DTLS_AL_ENABLE
 127:C:/Users/²Ü¼ÒºÀ/.iotlink/sdk/IoT_LINK/iot_link\link_main.c ****     #include <dtls_al.h>
ARM GAS  C:\Users\²Ü¼ÒºÀ\AppData\Local\Temp\cco1ZmL6.s 			page 34


 128:C:/Users/²Ü¼ÒºÀ/.iotlink/sdk/IoT_LINK/iot_link\link_main.c ****     (void)dtls_al_init();
 129:C:/Users/²Ü¼ÒºÀ/.iotlink/sdk/IoT_LINK/iot_link\link_main.c **** #endif
 130:C:/Users/²Ü¼ÒºÀ/.iotlink/sdk/IoT_LINK/iot_link\link_main.c **** 
 131:C:/Users/²Ü¼ÒºÀ/.iotlink/sdk/IoT_LINK/iot_link\link_main.c **** //////////////////////////  MQTT PROTOCOL  /////////////////////////////////////
 132:C:/Users/²Ü¼ÒºÀ/.iotlink/sdk/IoT_LINK/iot_link\link_main.c **** #ifdef CONFIG_MQTT_AL_ENABLE
 133:C:/Users/²Ü¼ÒºÀ/.iotlink/sdk/IoT_LINK/iot_link\link_main.c ****     #include <mqtt_al.h>
 134:C:/Users/²Ü¼ÒºÀ/.iotlink/sdk/IoT_LINK/iot_link\link_main.c ****     mqtt_al_init();
 135:C:/Users/²Ü¼ÒºÀ/.iotlink/sdk/IoT_LINK/iot_link\link_main.c **** #endif
 136:C:/Users/²Ü¼ÒºÀ/.iotlink/sdk/IoT_LINK/iot_link\link_main.c **** 
 137:C:/Users/²Ü¼ÒºÀ/.iotlink/sdk/IoT_LINK/iot_link\link_main.c **** 
 138:C:/Users/²Ü¼ÒºÀ/.iotlink/sdk/IoT_LINK/iot_link\link_main.c **** //////////////////////////  COAP PROTOCOL  /////////////////////////////////
 139:C:/Users/²Ü¼ÒºÀ/.iotlink/sdk/IoT_LINK/iot_link\link_main.c **** #ifdef CONFIG_COAP_AL_ENABLE
 140:C:/Users/²Ü¼ÒºÀ/.iotlink/sdk/IoT_LINK/iot_link\link_main.c ****     #include <coap_al.h>
 141:C:/Users/²Ü¼ÒºÀ/.iotlink/sdk/IoT_LINK/iot_link\link_main.c ****     (void)coap_al_init();
 142:C:/Users/²Ü¼ÒºÀ/.iotlink/sdk/IoT_LINK/iot_link\link_main.c **** #endif
 143:C:/Users/²Ü¼ÒºÀ/.iotlink/sdk/IoT_LINK/iot_link\link_main.c **** 
 144:C:/Users/²Ü¼ÒºÀ/.iotlink/sdk/IoT_LINK/iot_link\link_main.c **** //////////////////////////  LWM2M PROTOCOL  /////////////////////////////////
 145:C:/Users/²Ü¼ÒºÀ/.iotlink/sdk/IoT_LINK/iot_link\link_main.c **** #ifdef CONFIG_LWM2M_AL_ENABLE
 146:C:/Users/²Ü¼ÒºÀ/.iotlink/sdk/IoT_LINK/iot_link\link_main.c ****     #include <lwm2m_al.h>
 147:C:/Users/²Ü¼ÒºÀ/.iotlink/sdk/IoT_LINK/iot_link\link_main.c ****     (void)lwm2m_al_init();
 425              		.loc 1 147 5 discriminator 3 view .LVU265
 426              		.loc 1 147 11 is_stmt 0 discriminator 3 view .LVU266
 427 0068 FFF7FEFF 		bl	lwm2m_al_init
 428              	.LVL15:
 429              		.file 13 "C:/Users/\262\334\274\322\272\300/.iotlink/sdk/IoT_LINK/iot_link/oc/oc_lwm2m/oc_lwm2m_al
   1:C:/Users/²Ü¼ÒºÀ/.iotlink/sdk/IoT_LINK/iot_link/oc/oc_lwm2m/oc_lwm2m_al\oc_lwm2m_al.h **** /*----------------------------------------------------------------------------
   2:C:/Users/²Ü¼ÒºÀ/.iotlink/sdk/IoT_LINK/iot_link/oc/oc_lwm2m/oc_lwm2m_al\oc_lwm2m_al.h ****  * Copyright (c) <2018>, <Huawei Technologies Co., Ltd>
   3:C:/Users/²Ü¼ÒºÀ/.iotlink/sdk/IoT_LINK/iot_link/oc/oc_lwm2m/oc_lwm2m_al\oc_lwm2m_al.h ****  * All rights reserved.
   4:C:/Users/²Ü¼ÒºÀ/.iotlink/sdk/IoT_LINK/iot_link/oc/oc_lwm2m/oc_lwm2m_al\oc_lwm2m_al.h ****  * Redistribution and use in source and binary forms, with or without modification,
   5:C:/Users/²Ü¼ÒºÀ/.iotlink/sdk/IoT_LINK/iot_link/oc/oc_lwm2m/oc_lwm2m_al\oc_lwm2m_al.h ****  * are permitted provided that the following conditions are met:
   6:C:/Users/²Ü¼ÒºÀ/.iotlink/sdk/IoT_LINK/iot_link/oc/oc_lwm2m/oc_lwm2m_al\oc_lwm2m_al.h ****  * 1. Redistributions of source code must retain the above copyright notice, this list of
   7:C:/Users/²Ü¼ÒºÀ/.iotlink/sdk/IoT_LINK/iot_link/oc/oc_lwm2m/oc_lwm2m_al\oc_lwm2m_al.h ****  * conditions and the following disclaimer.
   8:C:/Users/²Ü¼ÒºÀ/.iotlink/sdk/IoT_LINK/iot_link/oc/oc_lwm2m/oc_lwm2m_al\oc_lwm2m_al.h ****  * 2. Redistributions in binary form must reproduce the above copyright notice, this list
   9:C:/Users/²Ü¼ÒºÀ/.iotlink/sdk/IoT_LINK/iot_link/oc/oc_lwm2m/oc_lwm2m_al\oc_lwm2m_al.h ****  * of conditions and the following disclaimer in the documentation and/or other materials
  10:C:/Users/²Ü¼ÒºÀ/.iotlink/sdk/IoT_LINK/iot_link/oc/oc_lwm2m/oc_lwm2m_al\oc_lwm2m_al.h ****  * provided with the distribution.
  11:C:/Users/²Ü¼ÒºÀ/.iotlink/sdk/IoT_LINK/iot_link/oc/oc_lwm2m/oc_lwm2m_al\oc_lwm2m_al.h ****  * 3. Neither the name of the copyright holder nor the names of its contributors may be used
  12:C:/Users/²Ü¼ÒºÀ/.iotlink/sdk/IoT_LINK/iot_link/oc/oc_lwm2m/oc_lwm2m_al\oc_lwm2m_al.h ****  * to endorse or promote products derived from this software without specific prior written
  13:C:/Users/²Ü¼ÒºÀ/.iotlink/sdk/IoT_LINK/iot_link/oc/oc_lwm2m/oc_lwm2m_al\oc_lwm2m_al.h ****  * permission.
  14:C:/Users/²Ü¼ÒºÀ/.iotlink/sdk/IoT_LINK/iot_link/oc/oc_lwm2m/oc_lwm2m_al\oc_lwm2m_al.h ****  * THIS SOFTWARE IS PROVIDED BY THE COPYRIGHT HOLDERS AND CONTRIBUTORS
  15:C:/Users/²Ü¼ÒºÀ/.iotlink/sdk/IoT_LINK/iot_link/oc/oc_lwm2m/oc_lwm2m_al\oc_lwm2m_al.h ****  * "AS IS" AND ANY EXPRESS OR IMPLIED WARRANTIES, INCLUDING, BUT NOT LIMITED TO,
  16:C:/Users/²Ü¼ÒºÀ/.iotlink/sdk/IoT_LINK/iot_link/oc/oc_lwm2m/oc_lwm2m_al\oc_lwm2m_al.h ****  * THE IMPLIED WARRANTIES OF MERCHANTABILITY AND FITNESS FOR A PARTICULAR
  17:C:/Users/²Ü¼ÒºÀ/.iotlink/sdk/IoT_LINK/iot_link/oc/oc_lwm2m/oc_lwm2m_al\oc_lwm2m_al.h ****  * PURPOSE ARE DISCLAIMED. IN NO EVENT SHALL THE COPYRIGHT HOLDER OR
  18:C:/Users/²Ü¼ÒºÀ/.iotlink/sdk/IoT_LINK/iot_link/oc/oc_lwm2m/oc_lwm2m_al\oc_lwm2m_al.h ****  * CONTRIBUTORS BE LIABLE FOR ANY DIRECT, INDIRECT, INCIDENTAL, SPECIAL,
  19:C:/Users/²Ü¼ÒºÀ/.iotlink/sdk/IoT_LINK/iot_link/oc/oc_lwm2m/oc_lwm2m_al\oc_lwm2m_al.h ****  * EXEMPLARY, OR CONSEQUENTIAL DAMAGES (INCLUDING, BUT NOT LIMITED TO,
  20:C:/Users/²Ü¼ÒºÀ/.iotlink/sdk/IoT_LINK/iot_link/oc/oc_lwm2m/oc_lwm2m_al\oc_lwm2m_al.h ****  * PROCUREMENT OF SUBSTITUTE GOODS OR SERVICES; LOSS OF USE, DATA, OR PROFITS;
  21:C:/Users/²Ü¼ÒºÀ/.iotlink/sdk/IoT_LINK/iot_link/oc/oc_lwm2m/oc_lwm2m_al\oc_lwm2m_al.h ****  * OR BUSINESS INTERRUPTION) HOWEVER CAUSED AND ON ANY THEORY OF LIABILITY,
  22:C:/Users/²Ü¼ÒºÀ/.iotlink/sdk/IoT_LINK/iot_link/oc/oc_lwm2m/oc_lwm2m_al\oc_lwm2m_al.h ****  * WHETHER IN CONTRACT, STRICT LIABILITY, OR TORT (INCLUDING NEGLIGENCE OR
  23:C:/Users/²Ü¼ÒºÀ/.iotlink/sdk/IoT_LINK/iot_link/oc/oc_lwm2m/oc_lwm2m_al\oc_lwm2m_al.h ****  * OTHERWISE) ARISING IN ANY WAY OUT OF THE USE OF THIS SOFTWARE, EVEN IF
  24:C:/Users/²Ü¼ÒºÀ/.iotlink/sdk/IoT_LINK/iot_link/oc/oc_lwm2m/oc_lwm2m_al\oc_lwm2m_al.h ****  * ADVISED OF THE POSSIBILITY OF SUCH DAMAGE.
  25:C:/Users/²Ü¼ÒºÀ/.iotlink/sdk/IoT_LINK/iot_link/oc/oc_lwm2m/oc_lwm2m_al\oc_lwm2m_al.h ****  *---------------------------------------------------------------------------*/
  26:C:/Users/²Ü¼ÒºÀ/.iotlink/sdk/IoT_LINK/iot_link/oc/oc_lwm2m/oc_lwm2m_al\oc_lwm2m_al.h **** /*----------------------------------------------------------------------------
  27:C:/Users/²Ü¼ÒºÀ/.iotlink/sdk/IoT_LINK/iot_link/oc/oc_lwm2m/oc_lwm2m_al\oc_lwm2m_al.h ****  * Notice of Export Control Law
  28:C:/Users/²Ü¼ÒºÀ/.iotlink/sdk/IoT_LINK/iot_link/oc/oc_lwm2m/oc_lwm2m_al\oc_lwm2m_al.h ****  * ===============================================
  29:C:/Users/²Ü¼ÒºÀ/.iotlink/sdk/IoT_LINK/iot_link/oc/oc_lwm2m/oc_lwm2m_al\oc_lwm2m_al.h ****  * Huawei LiteOS may be subject to applicable export control laws and regulations, which might
  30:C:/Users/²Ü¼ÒºÀ/.iotlink/sdk/IoT_LINK/iot_link/oc/oc_lwm2m/oc_lwm2m_al\oc_lwm2m_al.h ****  * include those applicable to Huawei LiteOS of U.S. and the country in which you are located.
  31:C:/Users/²Ü¼ÒºÀ/.iotlink/sdk/IoT_LINK/iot_link/oc/oc_lwm2m/oc_lwm2m_al\oc_lwm2m_al.h ****  * Import, export and usage of Huawei LiteOS in any manner by you shall be in compliance with such
  32:C:/Users/²Ü¼ÒºÀ/.iotlink/sdk/IoT_LINK/iot_link/oc/oc_lwm2m/oc_lwm2m_al\oc_lwm2m_al.h ****  * applicable export control laws and regulations.
ARM GAS  C:\Users\²Ü¼ÒºÀ\AppData\Local\Temp\cco1ZmL6.s 			page 35


  33:C:/Users/²Ü¼ÒºÀ/.iotlink/sdk/IoT_LINK/iot_link/oc/oc_lwm2m/oc_lwm2m_al\oc_lwm2m_al.h ****  *---------------------------------------------------------------------------*/
  34:C:/Users/²Ü¼ÒºÀ/.iotlink/sdk/IoT_LINK/iot_link/oc/oc_lwm2m/oc_lwm2m_al\oc_lwm2m_al.h **** /**
  35:C:/Users/²Ü¼ÒºÀ/.iotlink/sdk/IoT_LINK/iot_link/oc/oc_lwm2m/oc_lwm2m_al\oc_lwm2m_al.h ****  *  DATE                AUTHOR      INSTRUCTION
  36:C:/Users/²Ü¼ÒºÀ/.iotlink/sdk/IoT_LINK/iot_link/oc/oc_lwm2m/oc_lwm2m_al\oc_lwm2m_al.h ****  *  2019-05-14 17:22  zhangqianfu  The first version
  37:C:/Users/²Ü¼ÒºÀ/.iotlink/sdk/IoT_LINK/iot_link/oc/oc_lwm2m/oc_lwm2m_al\oc_lwm2m_al.h ****  *
  38:C:/Users/²Ü¼ÒºÀ/.iotlink/sdk/IoT_LINK/iot_link/oc/oc_lwm2m/oc_lwm2m_al\oc_lwm2m_al.h ****  */
  39:C:/Users/²Ü¼ÒºÀ/.iotlink/sdk/IoT_LINK/iot_link/oc/oc_lwm2m/oc_lwm2m_al\oc_lwm2m_al.h **** #ifndef LITEOS_LAB_IOT_LINK_OC_OC_LWM2M_OC_LWM2M_AL_OC_LWM2M_AL_H_
  40:C:/Users/²Ü¼ÒºÀ/.iotlink/sdk/IoT_LINK/iot_link/oc/oc_lwm2m/oc_lwm2m_al\oc_lwm2m_al.h **** #define LITEOS_LAB_IOT_LINK_OC_OC_LWM2M_OC_LWM2M_AL_OC_LWM2M_AL_H_
  41:C:/Users/²Ü¼ÒºÀ/.iotlink/sdk/IoT_LINK/iot_link/oc/oc_lwm2m/oc_lwm2m_al\oc_lwm2m_al.h **** 
  42:C:/Users/²Ü¼ÒºÀ/.iotlink/sdk/IoT_LINK/iot_link/oc/oc_lwm2m/oc_lwm2m_al\oc_lwm2m_al.h **** 
  43:C:/Users/²Ü¼ÒºÀ/.iotlink/sdk/IoT_LINK/iot_link/oc/oc_lwm2m/oc_lwm2m_al\oc_lwm2m_al.h **** #include <stddef.h>
  44:C:/Users/²Ü¼ÒºÀ/.iotlink/sdk/IoT_LINK/iot_link/oc/oc_lwm2m/oc_lwm2m_al\oc_lwm2m_al.h **** #include <stdint.h>
  45:C:/Users/²Ü¼ÒºÀ/.iotlink/sdk/IoT_LINK/iot_link/oc/oc_lwm2m/oc_lwm2m_al\oc_lwm2m_al.h **** 
  46:C:/Users/²Ü¼ÒºÀ/.iotlink/sdk/IoT_LINK/iot_link/oc/oc_lwm2m/oc_lwm2m_al\oc_lwm2m_al.h **** typedef struct
 430              		.loc 13 46 1 is_stmt 1 discriminator 3 view .LVU267
  47:C:/Users/²Ü¼ÒºÀ/.iotlink/sdk/IoT_LINK/iot_link/oc/oc_lwm2m/oc_lwm2m_al\oc_lwm2m_al.h **** {
  48:C:/Users/²Ü¼ÒºÀ/.iotlink/sdk/IoT_LINK/iot_link/oc/oc_lwm2m/oc_lwm2m_al\oc_lwm2m_al.h ****     char *ep_id;                  ///< endpoint identifier, which could be recognized by the server
  49:C:/Users/²Ü¼ÒºÀ/.iotlink/sdk/IoT_LINK/iot_link/oc/oc_lwm2m/oc_lwm2m_al\oc_lwm2m_al.h ****     char *address;                ///< server address,maybe domain name
  50:C:/Users/²Ü¼ÒºÀ/.iotlink/sdk/IoT_LINK/iot_link/oc/oc_lwm2m/oc_lwm2m_al\oc_lwm2m_al.h ****     char *port;                   ///< server port
  51:C:/Users/²Ü¼ÒºÀ/.iotlink/sdk/IoT_LINK/iot_link/oc/oc_lwm2m/oc_lwm2m_al\oc_lwm2m_al.h ****     char *psk_id;                 ///< server encode by psk, if not set NULL here
  52:C:/Users/²Ü¼ÒºÀ/.iotlink/sdk/IoT_LINK/iot_link/oc/oc_lwm2m/oc_lwm2m_al\oc_lwm2m_al.h ****     char *psk;
  53:C:/Users/²Ü¼ÒºÀ/.iotlink/sdk/IoT_LINK/iot_link/oc/oc_lwm2m/oc_lwm2m_al\oc_lwm2m_al.h ****     int   psk_len;
  54:C:/Users/²Ü¼ÒºÀ/.iotlink/sdk/IoT_LINK/iot_link/oc/oc_lwm2m/oc_lwm2m_al\oc_lwm2m_al.h **** } oc_server_t;
  55:C:/Users/²Ü¼ÒºÀ/.iotlink/sdk/IoT_LINK/iot_link/oc/oc_lwm2m/oc_lwm2m_al\oc_lwm2m_al.h **** 
  56:C:/Users/²Ü¼ÒºÀ/.iotlink/sdk/IoT_LINK/iot_link/oc/oc_lwm2m/oc_lwm2m_al\oc_lwm2m_al.h **** 
  57:C:/Users/²Ü¼ÒºÀ/.iotlink/sdk/IoT_LINK/iot_link/oc/oc_lwm2m/oc_lwm2m_al\oc_lwm2m_al.h **** typedef enum
 431              		.loc 13 57 1 discriminator 3 view .LVU268
  58:C:/Users/²Ü¼ÒºÀ/.iotlink/sdk/IoT_LINK/iot_link/oc/oc_lwm2m/oc_lwm2m_al\oc_lwm2m_al.h **** {
  59:C:/Users/²Ü¼ÒºÀ/.iotlink/sdk/IoT_LINK/iot_link/oc/oc_lwm2m/oc_lwm2m_al\oc_lwm2m_al.h ****     en_oc_boot_strap_mode_factory = 0,
  60:C:/Users/²Ü¼ÒºÀ/.iotlink/sdk/IoT_LINK/iot_link/oc/oc_lwm2m/oc_lwm2m_al\oc_lwm2m_al.h ****     en_oc_boot_strap_mode_client_initialize,
  61:C:/Users/²Ü¼ÒºÀ/.iotlink/sdk/IoT_LINK/iot_link/oc/oc_lwm2m/oc_lwm2m_al\oc_lwm2m_al.h ****     en_oc_boot_strap_mode_sequence,
  62:C:/Users/²Ü¼ÒºÀ/.iotlink/sdk/IoT_LINK/iot_link/oc/oc_lwm2m/oc_lwm2m_al\oc_lwm2m_al.h **** } en_oc_boot_strap_mode_t;
  63:C:/Users/²Ü¼ÒºÀ/.iotlink/sdk/IoT_LINK/iot_link/oc/oc_lwm2m/oc_lwm2m_al\oc_lwm2m_al.h **** 
  64:C:/Users/²Ü¼ÒºÀ/.iotlink/sdk/IoT_LINK/iot_link/oc/oc_lwm2m/oc_lwm2m_al\oc_lwm2m_al.h **** 
  65:C:/Users/²Ü¼ÒºÀ/.iotlink/sdk/IoT_LINK/iot_link/oc/oc_lwm2m/oc_lwm2m_al\oc_lwm2m_al.h **** typedef enum
 432              		.loc 13 65 1 discriminator 3 view .LVU269
  66:C:/Users/²Ü¼ÒºÀ/.iotlink/sdk/IoT_LINK/iot_link/oc/oc_lwm2m/oc_lwm2m_al\oc_lwm2m_al.h **** {
  67:C:/Users/²Ü¼ÒºÀ/.iotlink/sdk/IoT_LINK/iot_link/oc/oc_lwm2m/oc_lwm2m_al\oc_lwm2m_al.h ****     EN_OC_LWM2M_MSG_APPWRITE = 0,  ///< we have received the application command data
  68:C:/Users/²Ü¼ÒºÀ/.iotlink/sdk/IoT_LINK/iot_link/oc/oc_lwm2m/oc_lwm2m_al\oc_lwm2m_al.h ****     EN_OC_LWM2M_MSG_APPDISCOVER,
  69:C:/Users/²Ü¼ÒºÀ/.iotlink/sdk/IoT_LINK/iot_link/oc/oc_lwm2m/oc_lwm2m_al\oc_lwm2m_al.h ****     EN_OC_LWM2M_MSG_APPEXECUTE,
  70:C:/Users/²Ü¼ÒºÀ/.iotlink/sdk/IoT_LINK/iot_link/oc/oc_lwm2m/oc_lwm2m_al\oc_lwm2m_al.h ****     EN_OC_LWM2M_MSG_SERVERREBS,    ///<we  have received the rebootstrap command from the platform
  71:C:/Users/²Ü¼ÒºÀ/.iotlink/sdk/IoT_LINK/iot_link/oc/oc_lwm2m/oc_lwm2m_al\oc_lwm2m_al.h **** } en_oc_lwm2m_msg_t;
  72:C:/Users/²Ü¼ÒºÀ/.iotlink/sdk/IoT_LINK/iot_link/oc/oc_lwm2m/oc_lwm2m_al\oc_lwm2m_al.h **** 
  73:C:/Users/²Ü¼ÒºÀ/.iotlink/sdk/IoT_LINK/iot_link/oc/oc_lwm2m/oc_lwm2m_al\oc_lwm2m_al.h **** /** @brief this is the message dealer module for the application*/
  74:C:/Users/²Ü¼ÒºÀ/.iotlink/sdk/IoT_LINK/iot_link/oc/oc_lwm2m/oc_lwm2m_al\oc_lwm2m_al.h **** typedef int (*fn_oc_lwm2m_msg_deal)(void *usr_data, en_oc_lwm2m_msg_t type, void *msg, int len);
 433              		.loc 13 74 1 discriminator 3 view .LVU270
  75:C:/Users/²Ü¼ÒºÀ/.iotlink/sdk/IoT_LINK/iot_link/oc/oc_lwm2m/oc_lwm2m_al\oc_lwm2m_al.h **** 
  76:C:/Users/²Ü¼ÒºÀ/.iotlink/sdk/IoT_LINK/iot_link/oc/oc_lwm2m/oc_lwm2m_al\oc_lwm2m_al.h **** /** @brief this is the agent configuration */
  77:C:/Users/²Ü¼ÒºÀ/.iotlink/sdk/IoT_LINK/iot_link/oc/oc_lwm2m/oc_lwm2m_al\oc_lwm2m_al.h **** typedef struct
 434              		.loc 13 77 1 discriminator 3 view .LVU271
  78:C:/Users/²Ü¼ÒºÀ/.iotlink/sdk/IoT_LINK/iot_link/oc/oc_lwm2m/oc_lwm2m_al\oc_lwm2m_al.h **** {
  79:C:/Users/²Ü¼ÒºÀ/.iotlink/sdk/IoT_LINK/iot_link/oc/oc_lwm2m/oc_lwm2m_al\oc_lwm2m_al.h ****     en_oc_boot_strap_mode_t  boot_mode;       ///< bootmode,if boot client_initialize, then the bs 
  80:C:/Users/²Ü¼ÒºÀ/.iotlink/sdk/IoT_LINK/iot_link/oc/oc_lwm2m/oc_lwm2m_al\oc_lwm2m_al.h ****     oc_server_t              boot_server;     ///< which will be used by the bootstrap, if not, set
  81:C:/Users/²Ü¼ÒºÀ/.iotlink/sdk/IoT_LINK/iot_link/oc/oc_lwm2m/oc_lwm2m_al\oc_lwm2m_al.h ****     oc_server_t              app_server;      ///< if factory or smart boot, must be set here
  82:C:/Users/²Ü¼ÒºÀ/.iotlink/sdk/IoT_LINK/iot_link/oc/oc_lwm2m/oc_lwm2m_al\oc_lwm2m_al.h ****     fn_oc_lwm2m_msg_deal     rcv_func;        ///< receive function caller here
  83:C:/Users/²Ü¼ÒºÀ/.iotlink/sdk/IoT_LINK/iot_link/oc/oc_lwm2m/oc_lwm2m_al\oc_lwm2m_al.h ****     void                    *usr_data;        ///< used for the user
  84:C:/Users/²Ü¼ÒºÀ/.iotlink/sdk/IoT_LINK/iot_link/oc/oc_lwm2m/oc_lwm2m_al\oc_lwm2m_al.h **** } oc_config_param_t;
ARM GAS  C:\Users\²Ü¼ÒºÀ\AppData\Local\Temp\cco1ZmL6.s 			page 36


  85:C:/Users/²Ü¼ÒºÀ/.iotlink/sdk/IoT_LINK/iot_link/oc/oc_lwm2m/oc_lwm2m_al\oc_lwm2m_al.h **** 
  86:C:/Users/²Ü¼ÒºÀ/.iotlink/sdk/IoT_LINK/iot_link/oc/oc_lwm2m/oc_lwm2m_al\oc_lwm2m_al.h **** 
  87:C:/Users/²Ü¼ÒºÀ/.iotlink/sdk/IoT_LINK/iot_link/oc/oc_lwm2m/oc_lwm2m_al\oc_lwm2m_al.h **** typedef enum
 435              		.loc 13 87 1 discriminator 3 view .LVU272
  88:C:/Users/²Ü¼ÒºÀ/.iotlink/sdk/IoT_LINK/iot_link/oc/oc_lwm2m/oc_lwm2m_al\oc_lwm2m_al.h **** {
  89:C:/Users/²Ü¼ÒºÀ/.iotlink/sdk/IoT_LINK/iot_link/oc/oc_lwm2m/oc_lwm2m_al\oc_lwm2m_al.h ****     en_oc_lwm2m_err_ok          = 0,      ///< this means the status ok
  90:C:/Users/²Ü¼ÒºÀ/.iotlink/sdk/IoT_LINK/iot_link/oc/oc_lwm2m/oc_lwm2m_al\oc_lwm2m_al.h ****     en_oc_lwm2m_err_parafmt,              ///< this means the parameter err format
  91:C:/Users/²Ü¼ÒºÀ/.iotlink/sdk/IoT_LINK/iot_link/oc/oc_lwm2m/oc_lwm2m_al\oc_lwm2m_al.h ****     en_oc_lwm2m_err_network,              ///< this means the network wrong status
  92:C:/Users/²Ü¼ÒºÀ/.iotlink/sdk/IoT_LINK/iot_link/oc/oc_lwm2m/oc_lwm2m_al\oc_lwm2m_al.h ****     en_oc_lwm2m_err_conserver,            ///< this means the server refused the service for some r
  93:C:/Users/²Ü¼ÒºÀ/.iotlink/sdk/IoT_LINK/iot_link/oc/oc_lwm2m/oc_lwm2m_al\oc_lwm2m_al.h ****     en_oc_lwm2m_err_noconfigured,         ///< this means we have not configure it yet,so could not
  94:C:/Users/²Ü¼ÒºÀ/.iotlink/sdk/IoT_LINK/iot_link/oc/oc_lwm2m/oc_lwm2m_al\oc_lwm2m_al.h ****     en_oc_lwm2m_err_configured,           ///< this means we has configured it, so could not reconf
  95:C:/Users/²Ü¼ÒºÀ/.iotlink/sdk/IoT_LINK/iot_link/oc/oc_lwm2m/oc_lwm2m_al\oc_lwm2m_al.h ****     en_oc_lwm2m_err_noconected,           ///< this means the connection has not been built, so you
  96:C:/Users/²Ü¼ÒºÀ/.iotlink/sdk/IoT_LINK/iot_link/oc/oc_lwm2m/oc_lwm2m_al\oc_lwm2m_al.h ****     en_oc_lwm2m_err_gethubaddrtimeout,    ///< this means get the hub address timeout
  97:C:/Users/²Ü¼ÒºÀ/.iotlink/sdk/IoT_LINK/iot_link/oc/oc_lwm2m/oc_lwm2m_al\oc_lwm2m_al.h ****     en_oc_lwm2m_err_sysmem,               ///< this means the system memory is not enough
  98:C:/Users/²Ü¼ÒºÀ/.iotlink/sdk/IoT_LINK/iot_link/oc/oc_lwm2m/oc_lwm2m_al\oc_lwm2m_al.h ****     en_oc_lwm2m_err_system,               ///< this means that the system porting may have some pro
  99:C:/Users/²Ü¼ÒºÀ/.iotlink/sdk/IoT_LINK/iot_link/oc/oc_lwm2m/oc_lwm2m_al\oc_lwm2m_al.h ****     en_oc_lwm2m_err_last,
 100:C:/Users/²Ü¼ÒºÀ/.iotlink/sdk/IoT_LINK/iot_link/oc/oc_lwm2m/oc_lwm2m_al\oc_lwm2m_al.h **** }en_oc_lwm2m_err_code_t;
 101:C:/Users/²Ü¼ÒºÀ/.iotlink/sdk/IoT_LINK/iot_link/oc/oc_lwm2m/oc_lwm2m_al\oc_lwm2m_al.h **** 
 102:C:/Users/²Ü¼ÒºÀ/.iotlink/sdk/IoT_LINK/iot_link/oc/oc_lwm2m/oc_lwm2m_al\oc_lwm2m_al.h **** ///////////////////////////LWM2M AGENT INTERFACE////////////////////////////////
 103:C:/Users/²Ü¼ÒºÀ/.iotlink/sdk/IoT_LINK/iot_link/oc/oc_lwm2m/oc_lwm2m_al\oc_lwm2m_al.h **** typedef int (*fn_oc_lwm2m_report)(char *buf, int len, int timeout);
 436              		.loc 13 103 1 discriminator 3 view .LVU273
 104:C:/Users/²Ü¼ÒºÀ/.iotlink/sdk/IoT_LINK/iot_link/oc/oc_lwm2m/oc_lwm2m_al\oc_lwm2m_al.h **** typedef int (*fn_oc_lwm2m_config)(oc_config_param_t *param);
 437              		.loc 13 104 1 discriminator 3 view .LVU274
 105:C:/Users/²Ü¼ÒºÀ/.iotlink/sdk/IoT_LINK/iot_link/oc/oc_lwm2m/oc_lwm2m_al\oc_lwm2m_al.h **** typedef int (*fn_oc_lwm2m_deconfig)(void);
 438              		.loc 13 105 1 discriminator 3 view .LVU275
 106:C:/Users/²Ü¼ÒºÀ/.iotlink/sdk/IoT_LINK/iot_link/oc/oc_lwm2m/oc_lwm2m_al\oc_lwm2m_al.h **** /**
 107:C:/Users/²Ü¼ÒºÀ/.iotlink/sdk/IoT_LINK/iot_link/oc/oc_lwm2m/oc_lwm2m_al\oc_lwm2m_al.h ****  * @brief this data structure defines the lwm2m agent implement
 108:C:/Users/²Ü¼ÒºÀ/.iotlink/sdk/IoT_LINK/iot_link/oc/oc_lwm2m/oc_lwm2m_al\oc_lwm2m_al.h ****  */
 109:C:/Users/²Ü¼ÒºÀ/.iotlink/sdk/IoT_LINK/iot_link/oc/oc_lwm2m/oc_lwm2m_al\oc_lwm2m_al.h **** typedef struct
 439              		.loc 13 109 1 discriminator 3 view .LVU276
 110:C:/Users/²Ü¼ÒºÀ/.iotlink/sdk/IoT_LINK/iot_link/oc/oc_lwm2m/oc_lwm2m_al\oc_lwm2m_al.h **** {
 111:C:/Users/²Ü¼ÒºÀ/.iotlink/sdk/IoT_LINK/iot_link/oc/oc_lwm2m/oc_lwm2m_al\oc_lwm2m_al.h ****     fn_oc_lwm2m_config   config;   ///< this function used for the configuration
 112:C:/Users/²Ü¼ÒºÀ/.iotlink/sdk/IoT_LINK/iot_link/oc/oc_lwm2m/oc_lwm2m_al\oc_lwm2m_al.h ****     fn_oc_lwm2m_report   report;   ///< this function used for the report data to the cdp
 113:C:/Users/²Ü¼ÒºÀ/.iotlink/sdk/IoT_LINK/iot_link/oc/oc_lwm2m/oc_lwm2m_al\oc_lwm2m_al.h ****     fn_oc_lwm2m_deconfig deconfig; ///< this function used for the deconfig
 114:C:/Users/²Ü¼ÒºÀ/.iotlink/sdk/IoT_LINK/iot_link/oc/oc_lwm2m/oc_lwm2m_al\oc_lwm2m_al.h **** } oc_lwm2m_opt_t;
 115:C:/Users/²Ü¼ÒºÀ/.iotlink/sdk/IoT_LINK/iot_link/oc/oc_lwm2m/oc_lwm2m_al\oc_lwm2m_al.h **** 
 116:C:/Users/²Ü¼ÒºÀ/.iotlink/sdk/IoT_LINK/iot_link/oc/oc_lwm2m/oc_lwm2m_al\oc_lwm2m_al.h **** 
 117:C:/Users/²Ü¼ÒºÀ/.iotlink/sdk/IoT_LINK/iot_link/oc/oc_lwm2m/oc_lwm2m_al\oc_lwm2m_al.h **** /**
 118:C:/Users/²Ü¼ÒºÀ/.iotlink/sdk/IoT_LINK/iot_link/oc/oc_lwm2m/oc_lwm2m_al\oc_lwm2m_al.h ****  *@brief the lwm2m agent should use this function to register the method for the application
 119:C:/Users/²Ü¼ÒºÀ/.iotlink/sdk/IoT_LINK/iot_link/oc/oc_lwm2m/oc_lwm2m_al\oc_lwm2m_al.h ****  *
 120:C:/Users/²Ü¼ÒºÀ/.iotlink/sdk/IoT_LINK/iot_link/oc/oc_lwm2m/oc_lwm2m_al\oc_lwm2m_al.h ****  *@param[in] name, the operation method name
 121:C:/Users/²Ü¼ÒºÀ/.iotlink/sdk/IoT_LINK/iot_link/oc/oc_lwm2m/oc_lwm2m_al\oc_lwm2m_al.h ****  *@param[in] opt, the operation method implement by the lwm2m agent developer
 122:C:/Users/²Ü¼ÒºÀ/.iotlink/sdk/IoT_LINK/iot_link/oc/oc_lwm2m/oc_lwm2m_al\oc_lwm2m_al.h ****  *@return 0 success while <0 failed
 123:C:/Users/²Ü¼ÒºÀ/.iotlink/sdk/IoT_LINK/iot_link/oc/oc_lwm2m/oc_lwm2m_al\oc_lwm2m_al.h ****  */
 124:C:/Users/²Ü¼ÒºÀ/.iotlink/sdk/IoT_LINK/iot_link/oc/oc_lwm2m/oc_lwm2m_al\oc_lwm2m_al.h **** int oc_lwm2m_register(const char *name, const oc_lwm2m_opt_t *opt);
 440              		.loc 13 124 1 discriminator 3 view .LVU277
 125:C:/Users/²Ü¼ÒºÀ/.iotlink/sdk/IoT_LINK/iot_link/oc/oc_lwm2m/oc_lwm2m_al\oc_lwm2m_al.h **** 
 126:C:/Users/²Ü¼ÒºÀ/.iotlink/sdk/IoT_LINK/iot_link/oc/oc_lwm2m/oc_lwm2m_al\oc_lwm2m_al.h **** /**
 127:C:/Users/²Ü¼ÒºÀ/.iotlink/sdk/IoT_LINK/iot_link/oc/oc_lwm2m/oc_lwm2m_al\oc_lwm2m_al.h ****  *@brief the lwm2m agent should use this function to unregister the method for the application
 128:C:/Users/²Ü¼ÒºÀ/.iotlink/sdk/IoT_LINK/iot_link/oc/oc_lwm2m/oc_lwm2m_al\oc_lwm2m_al.h ****  *
 129:C:/Users/²Ü¼ÒºÀ/.iotlink/sdk/IoT_LINK/iot_link/oc/oc_lwm2m/oc_lwm2m_al\oc_lwm2m_al.h ****  *@param[in] opt, the operation method implement by the lwm2m agent developer
 130:C:/Users/²Ü¼ÒºÀ/.iotlink/sdk/IoT_LINK/iot_link/oc/oc_lwm2m/oc_lwm2m_al\oc_lwm2m_al.h ****  *@return 0 success while <0 failed
 131:C:/Users/²Ü¼ÒºÀ/.iotlink/sdk/IoT_LINK/iot_link/oc/oc_lwm2m/oc_lwm2m_al\oc_lwm2m_al.h ****  */
 132:C:/Users/²Ü¼ÒºÀ/.iotlink/sdk/IoT_LINK/iot_link/oc/oc_lwm2m/oc_lwm2m_al\oc_lwm2m_al.h **** int oc_lwm2m_unregister(const char *name);
 441              		.loc 13 132 1 discriminator 3 view .LVU278
 133:C:/Users/²Ü¼ÒºÀ/.iotlink/sdk/IoT_LINK/iot_link/oc/oc_lwm2m/oc_lwm2m_al\oc_lwm2m_al.h **** 
 134:C:/Users/²Ü¼ÒºÀ/.iotlink/sdk/IoT_LINK/iot_link/oc/oc_lwm2m/oc_lwm2m_al\oc_lwm2m_al.h **** //////////////////////////APPLICATION INTERFACE/////////////////////////////////
ARM GAS  C:\Users\²Ü¼ÒºÀ\AppData\Local\Temp\cco1ZmL6.s 			page 37


 135:C:/Users/²Ü¼ÒºÀ/.iotlink/sdk/IoT_LINK/iot_link/oc/oc_lwm2m/oc_lwm2m_al\oc_lwm2m_al.h **** /**
 136:C:/Users/²Ü¼ÒºÀ/.iotlink/sdk/IoT_LINK/iot_link/oc/oc_lwm2m/oc_lwm2m_al\oc_lwm2m_al.h ****  * @brief the application use this function to configure the lwm2m agent
 137:C:/Users/²Ü¼ÒºÀ/.iotlink/sdk/IoT_LINK/iot_link/oc/oc_lwm2m/oc_lwm2m_al\oc_lwm2m_al.h ****  * @param[in] param, refer to oc_config_param_t
 138:C:/Users/²Ü¼ÒºÀ/.iotlink/sdk/IoT_LINK/iot_link/oc/oc_lwm2m/oc_lwm2m_al\oc_lwm2m_al.h ****  * @return 0 success while others the error code described as en_oc_lwm2m_err_code_t
 139:C:/Users/²Ü¼ÒºÀ/.iotlink/sdk/IoT_LINK/iot_link/oc/oc_lwm2m/oc_lwm2m_al\oc_lwm2m_al.h ****  */
 140:C:/Users/²Ü¼ÒºÀ/.iotlink/sdk/IoT_LINK/iot_link/oc/oc_lwm2m/oc_lwm2m_al\oc_lwm2m_al.h **** int oc_lwm2m_config(oc_config_param_t *param);
 442              		.loc 13 140 1 discriminator 3 view .LVU279
 141:C:/Users/²Ü¼ÒºÀ/.iotlink/sdk/IoT_LINK/iot_link/oc/oc_lwm2m/oc_lwm2m_al\oc_lwm2m_al.h **** 
 142:C:/Users/²Ü¼ÒºÀ/.iotlink/sdk/IoT_LINK/iot_link/oc/oc_lwm2m/oc_lwm2m_al\oc_lwm2m_al.h **** /**
 143:C:/Users/²Ü¼ÒºÀ/.iotlink/sdk/IoT_LINK/iot_link/oc/oc_lwm2m/oc_lwm2m_al\oc_lwm2m_al.h ****  * @brief the application use this function to send the message to the cdp
 144:C:/Users/²Ü¼ÒºÀ/.iotlink/sdk/IoT_LINK/iot_link/oc/oc_lwm2m/oc_lwm2m_al\oc_lwm2m_al.h ****  * @param[in] buf the message to send
 145:C:/Users/²Ü¼ÒºÀ/.iotlink/sdk/IoT_LINK/iot_link/oc/oc_lwm2m/oc_lwm2m_al\oc_lwm2m_al.h ****  * @param[in] len the message length
 146:C:/Users/²Ü¼ÒºÀ/.iotlink/sdk/IoT_LINK/iot_link/oc/oc_lwm2m/oc_lwm2m_al\oc_lwm2m_al.h ****  * @param[in] timeout block time
 147:C:/Users/²Ü¼ÒºÀ/.iotlink/sdk/IoT_LINK/iot_link/oc/oc_lwm2m/oc_lwm2m_al\oc_lwm2m_al.h ****  * @return 0 success while others the error code described as en_oc_lwm2m_err_code_t
 148:C:/Users/²Ü¼ÒºÀ/.iotlink/sdk/IoT_LINK/iot_link/oc/oc_lwm2m/oc_lwm2m_al\oc_lwm2m_al.h ****  */
 149:C:/Users/²Ü¼ÒºÀ/.iotlink/sdk/IoT_LINK/iot_link/oc/oc_lwm2m/oc_lwm2m_al\oc_lwm2m_al.h **** int oc_lwm2m_report(char *buf, int len, int timeout);
 443              		.loc 13 149 1 discriminator 3 view .LVU280
 150:C:/Users/²Ü¼ÒºÀ/.iotlink/sdk/IoT_LINK/iot_link/oc/oc_lwm2m/oc_lwm2m_al\oc_lwm2m_al.h **** 
 151:C:/Users/²Ü¼ÒºÀ/.iotlink/sdk/IoT_LINK/iot_link/oc/oc_lwm2m/oc_lwm2m_al\oc_lwm2m_al.h **** /**
 152:C:/Users/²Ü¼ÒºÀ/.iotlink/sdk/IoT_LINK/iot_link/oc/oc_lwm2m/oc_lwm2m_al\oc_lwm2m_al.h ****  *@brief: the application use this function to deconfigure the lwm2m agent
 153:C:/Users/²Ü¼ÒºÀ/.iotlink/sdk/IoT_LINK/iot_link/oc/oc_lwm2m/oc_lwm2m_al\oc_lwm2m_al.h ****  *
 154:C:/Users/²Ü¼ÒºÀ/.iotlink/sdk/IoT_LINK/iot_link/oc/oc_lwm2m/oc_lwm2m_al\oc_lwm2m_al.h ****  * @return 0 success while others the error code described as en_oc_lwm2m_err_code_t
 155:C:/Users/²Ü¼ÒºÀ/.iotlink/sdk/IoT_LINK/iot_link/oc/oc_lwm2m/oc_lwm2m_al\oc_lwm2m_al.h ****  */
 156:C:/Users/²Ü¼ÒºÀ/.iotlink/sdk/IoT_LINK/iot_link/oc/oc_lwm2m/oc_lwm2m_al\oc_lwm2m_al.h **** 
 157:C:/Users/²Ü¼ÒºÀ/.iotlink/sdk/IoT_LINK/iot_link/oc/oc_lwm2m/oc_lwm2m_al\oc_lwm2m_al.h **** int oc_lwm2m_deconfig(void);
 444              		.loc 13 157 1 discriminator 3 view .LVU281
 158:C:/Users/²Ü¼ÒºÀ/.iotlink/sdk/IoT_LINK/iot_link/oc/oc_lwm2m/oc_lwm2m_al\oc_lwm2m_al.h **** 
 159:C:/Users/²Ü¼ÒºÀ/.iotlink/sdk/IoT_LINK/iot_link/oc/oc_lwm2m/oc_lwm2m_al\oc_lwm2m_al.h **** /**
 160:C:/Users/²Ü¼ÒºÀ/.iotlink/sdk/IoT_LINK/iot_link/oc/oc_lwm2m/oc_lwm2m_al\oc_lwm2m_al.h ****  *@brief this is the oc lwm2m agent initialize function,must be called first
 161:C:/Users/²Ü¼ÒºÀ/.iotlink/sdk/IoT_LINK/iot_link/oc/oc_lwm2m/oc_lwm2m_al\oc_lwm2m_al.h ****  *
 162:C:/Users/²Ü¼ÒºÀ/.iotlink/sdk/IoT_LINK/iot_link/oc/oc_lwm2m/oc_lwm2m_al\oc_lwm2m_al.h ****  *@return 0 success while <0 failed
 163:C:/Users/²Ü¼ÒºÀ/.iotlink/sdk/IoT_LINK/iot_link/oc/oc_lwm2m/oc_lwm2m_al\oc_lwm2m_al.h ****  */
 164:C:/Users/²Ü¼ÒºÀ/.iotlink/sdk/IoT_LINK/iot_link/oc/oc_lwm2m/oc_lwm2m_al\oc_lwm2m_al.h **** int oc_lwm2m_init();
 445              		.loc 13 164 1 discriminator 3 view .LVU282
 165:C:/Users/²Ü¼ÒºÀ/.iotlink/sdk/IoT_LINK/iot_link/oc/oc_lwm2m/oc_lwm2m_al\oc_lwm2m_al.h **** 
 166:C:/Users/²Ü¼ÒºÀ/.iotlink/sdk/IoT_LINK/iot_link/oc/oc_lwm2m/oc_lwm2m_al\oc_lwm2m_al.h **** /*
 167:C:/Users/²Ü¼ÒºÀ/.iotlink/sdk/IoT_LINK/iot_link/oc/oc_lwm2m/oc_lwm2m_al\oc_lwm2m_al.h ****  * @brief this is the map for the errocode
 168:C:/Users/²Ü¼ÒºÀ/.iotlink/sdk/IoT_LINK/iot_link/oc/oc_lwm2m/oc_lwm2m_al\oc_lwm2m_al.h ****  *
 169:C:/Users/²Ü¼ÒºÀ/.iotlink/sdk/IoT_LINK/iot_link/oc/oc_lwm2m/oc_lwm2m_al\oc_lwm2m_al.h ****  * @param code: the error code
 170:C:/Users/²Ü¼ÒºÀ/.iotlink/sdk/IoT_LINK/iot_link/oc/oc_lwm2m/oc_lwm2m_al\oc_lwm2m_al.h ****  *
 171:C:/Users/²Ü¼ÒºÀ/.iotlink/sdk/IoT_LINK/iot_link/oc/oc_lwm2m/oc_lwm2m_al\oc_lwm2m_al.h ****  * @return: the string of the code
 172:C:/Users/²Ü¼ÒºÀ/.iotlink/sdk/IoT_LINK/iot_link/oc/oc_lwm2m/oc_lwm2m_al\oc_lwm2m_al.h ****  *
 173:C:/Users/²Ü¼ÒºÀ/.iotlink/sdk/IoT_LINK/iot_link/oc/oc_lwm2m/oc_lwm2m_al\oc_lwm2m_al.h ****  * */
 174:C:/Users/²Ü¼ÒºÀ/.iotlink/sdk/IoT_LINK/iot_link/oc/oc_lwm2m/oc_lwm2m_al\oc_lwm2m_al.h **** const char *oc_lwm2m_errcode(en_oc_lwm2m_err_code_t code);
 446              		.loc 13 174 1 discriminator 3 view .LVU283
 148:C:/Users/²Ü¼ÒºÀ/.iotlink/sdk/IoT_LINK/iot_link\link_main.c **** #endif
 149:C:/Users/²Ü¼ÒºÀ/.iotlink/sdk/IoT_LINK/iot_link\link_main.c **** 
 150:C:/Users/²Ü¼ÒºÀ/.iotlink/sdk/IoT_LINK/iot_link\link_main.c **** //////////////////////////  OC MQTT  //////////////////////////////////
 151:C:/Users/²Ü¼ÒºÀ/.iotlink/sdk/IoT_LINK/iot_link\link_main.c **** #ifdef CONFIG_OCMQTT_ENABLE
 152:C:/Users/²Ü¼ÒºÀ/.iotlink/sdk/IoT_LINK/iot_link\link_main.c ****     #include <oc_mqtt_al.h>
 153:C:/Users/²Ü¼ÒºÀ/.iotlink/sdk/IoT_LINK/iot_link\link_main.c ****     (void)oc_mqtt_init();
 154:C:/Users/²Ü¼ÒºÀ/.iotlink/sdk/IoT_LINK/iot_link\link_main.c **** 
 155:C:/Users/²Ü¼ÒºÀ/.iotlink/sdk/IoT_LINK/iot_link\link_main.c **** #endif
 156:C:/Users/²Ü¼ÒºÀ/.iotlink/sdk/IoT_LINK/iot_link\link_main.c **** 
 157:C:/Users/²Ü¼ÒºÀ/.iotlink/sdk/IoT_LINK/iot_link\link_main.c **** ////////////////////////////  OC LWM2M /////////////////////////////////////////
 158:C:/Users/²Ü¼ÒºÀ/.iotlink/sdk/IoT_LINK/iot_link\link_main.c **** #ifdef CONFIG_OCLWM2M_ENABLE
 159:C:/Users/²Ü¼ÒºÀ/.iotlink/sdk/IoT_LINK/iot_link\link_main.c ****     #include <oc_lwm2m_al.h>
ARM GAS  C:\Users\²Ü¼ÒºÀ\AppData\Local\Temp\cco1ZmL6.s 			page 38


 160:C:/Users/²Ü¼ÒºÀ/.iotlink/sdk/IoT_LINK/iot_link\link_main.c ****     oc_lwm2m_init();
 447              		.loc 1 160 5 discriminator 3 view .LVU284
 448 006c FFF7FEFF 		bl	oc_lwm2m_init
 449              	.LVL16:
 161:C:/Users/²Ü¼ÒºÀ/.iotlink/sdk/IoT_LINK/iot_link\link_main.c **** #endif
 162:C:/Users/²Ü¼ÒºÀ/.iotlink/sdk/IoT_LINK/iot_link\link_main.c **** 
 163:C:/Users/²Ü¼ÒºÀ/.iotlink/sdk/IoT_LINK/iot_link\link_main.c **** ////////////////////////////  OC COAP //////////////////////////////////////////
 164:C:/Users/²Ü¼ÒºÀ/.iotlink/sdk/IoT_LINK/iot_link\link_main.c **** #ifdef CONFIG_OCCOAP_ENABLE
 165:C:/Users/²Ü¼ÒºÀ/.iotlink/sdk/IoT_LINK/iot_link\link_main.c **** 	#include <oc_coap_al.h>
 166:C:/Users/²Ü¼ÒºÀ/.iotlink/sdk/IoT_LINK/iot_link\link_main.c ****     oc_coap_init();
 167:C:/Users/²Ü¼ÒºÀ/.iotlink/sdk/IoT_LINK/iot_link\link_main.c **** #endif
 168:C:/Users/²Ü¼ÒºÀ/.iotlink/sdk/IoT_LINK/iot_link\link_main.c **** 
 169:C:/Users/²Ü¼ÒºÀ/.iotlink/sdk/IoT_LINK/iot_link\link_main.c **** 
 170:C:/Users/²Ü¼ÒºÀ/.iotlink/sdk/IoT_LINK/iot_link\link_main.c **** #ifdef CONFIG_AUTO_TEST
 171:C:/Users/²Ü¼ÒºÀ/.iotlink/sdk/IoT_LINK/iot_link\link_main.c ****     #include <test_case.h>
 172:C:/Users/²Ü¼ÒºÀ/.iotlink/sdk/IoT_LINK/iot_link\link_main.c ****     autotest_start();
 173:C:/Users/²Ü¼ÒºÀ/.iotlink/sdk/IoT_LINK/iot_link\link_main.c **** #endif
 174:C:/Users/²Ü¼ÒºÀ/.iotlink/sdk/IoT_LINK/iot_link\link_main.c **** 
 175:C:/Users/²Ü¼ÒºÀ/.iotlink/sdk/IoT_LINK/iot_link\link_main.c **** 
 176:C:/Users/²Ü¼ÒºÀ/.iotlink/sdk/IoT_LINK/iot_link\link_main.c **** #ifdef CONFIG_LINKDEMO_ENABLE
 177:C:/Users/²Ü¼ÒºÀ/.iotlink/sdk/IoT_LINK/iot_link\link_main.c ****     extern int standard_app_demo_main(void);
 450              		.loc 1 177 5 discriminator 3 view .LVU285
 178:C:/Users/²Ü¼ÒºÀ/.iotlink/sdk/IoT_LINK/iot_link\link_main.c ****     (void) standard_app_demo_main();
 451              		.loc 1 178 5 discriminator 3 view .LVU286
 452              		.loc 1 178 12 is_stmt 0 discriminator 3 view .LVU287
 453 0070 FFF7FEFF 		bl	standard_app_demo_main
 454              	.LVL17:
 179:C:/Users/²Ü¼ÒºÀ/.iotlink/sdk/IoT_LINK/iot_link\link_main.c **** #endif
 180:C:/Users/²Ü¼ÒºÀ/.iotlink/sdk/IoT_LINK/iot_link\link_main.c **** 
 181:C:/Users/²Ü¼ÒºÀ/.iotlink/sdk/IoT_LINK/iot_link\link_main.c ****     return 0;
 455              		.loc 1 181 5 is_stmt 1 discriminator 3 view .LVU288
 456              	.L4:
 182:C:/Users/²Ü¼ÒºÀ/.iotlink/sdk/IoT_LINK/iot_link\link_main.c **** }
 457              		.loc 1 182 1 is_stmt 0 view .LVU289
 458 0074 2046     		mov	r0, r4
 459 0076 07B0     		add	sp, sp, #28
 460              	.LCFI4:
 461              		.cfi_remember_state
 462              		.cfi_def_cfa_offset 12
 463              		@ sp needed
 464 0078 30BD     		pop	{r4, r5, pc}
 465              	.LVL18:
 466              	.L7:
 467              	.LCFI5:
 468              		.cfi_restore_state
  71:C:/Users/²Ü¼ÒºÀ/.iotlink/sdk/IoT_LINK/iot_link\link_main.c ****     }
 469              		.loc 1 71 15 view .LVU290
 470 007a 4FF0FF34 		mov	r4, #-1
 471 007e F9E7     		b	.L4
 472              	.L9:
 473              		.align	2
 474              	.L8:
 475 0080 00000000 		.word	.LANCHOR1
 476 0084 00000000 		.word	.LANCHOR2
 477 0088 00000000 		.word	.LC3
 478 008c 00000000 		.word	_impure_ptr
 479 0090 00000000 		.word	osal_free
ARM GAS  C:\Users\²Ü¼ÒºÀ\AppData\Local\Temp\cco1ZmL6.s 			page 39


 480 0094 00000000 		.word	osal_malloc
 481              		.cfi_endproc
 482              	.LFE4:
 484              		.section	.bss.s_link_mainversion,"aw",%nobits
 485              		.set	.LANCHOR0,. + 0
 488              	s_link_mainversion:
 489 0000 00000000 		.space	64
 489      00000000 
 489      00000000 
 489      00000000 
 489      00000000 
 490              		.section	.bss.s_link_start,"aw",%nobits
 491              		.align	2
 492              		.set	.LANCHOR1,. + 0
 495              	s_link_start:
 496 0000 00000000 		.space	4
 497              		.section	.rodata.__FUNCTION__.6745,"a"
 498              		.set	.LANCHOR2,. + 0
 501              	__FUNCTION__.6745:
 502 0000 6C696E6B 		.ascii	"link_main\000"
 502      5F6D6169 
 502      6E00
 503              		.text
 504              	.Letext0:
 505              		.file 14 "c:\\users\\\262\334\274\322\272\300\\.iotlink\\tools\\gcc-arm-none-eabi\\arm-none-eabi\\
 506              		.file 15 "c:\\users\\\262\334\274\322\272\300\\.iotlink\\tools\\gcc-arm-none-eabi\\lib\\gcc\\arm-n
 507              		.file 16 "c:\\users\\\262\334\274\322\272\300\\.iotlink\\tools\\gcc-arm-none-eabi\\arm-none-eabi\\
 508              		.file 17 "c:\\users\\\262\334\274\322\272\300\\.iotlink\\tools\\gcc-arm-none-eabi\\arm-none-eabi\\
 509              		.file 18 "c:\\users\\\262\334\274\322\272\300\\.iotlink\\tools\\gcc-arm-none-eabi\\arm-none-eabi\\
 510              		.file 19 "c:\\users\\\262\334\274\322\272\300\\.iotlink\\tools\\gcc-arm-none-eabi\\arm-none-eabi\\
 511              		.file 20 "c:\\users\\\262\334\274\322\272\300\\.iotlink\\tools\\gcc-arm-none-eabi\\arm-none-eabi\\
 512              		.file 21 "c:\\users\\\262\334\274\322\272\300\\.iotlink\\tools\\gcc-arm-none-eabi\\arm-none-eabi\\
 513              		.file 22 "c:\\users\\\262\334\274\322\272\300\\.iotlink\\tools\\gcc-arm-none-eabi\\arm-none-eabi\\
 514              		.file 23 "C:/Users/\262\334\274\322\272\300/.iotlink/sdk/IoT_LINK/iot_link/inc/link_log.h"
 515              		.file 24 "C:/Users/\262\334\274\322\272\300/.iotlink/sdk/IoT_LINK/iot_link/os/osal/osal.h"
 516              		.file 25 "c:\\users\\\262\334\274\322\272\300\\.iotlink\\tools\\gcc-arm-none-eabi\\arm-none-eabi\\
ARM GAS  C:\Users\²Ü¼ÒºÀ\AppData\Local\Temp\cco1ZmL6.s 			page 40

