ARM GAS  C:\Users\²Ü¼ÒºÀ\AppData\Local\Temp\cci6pW3E.s 			page 1


   1              		.cpu cortex-m4
   2              		.eabi_attribute 27, 1
   3              		.eabi_attribute 28, 1
   4              		.eabi_attribute 20, 1
   5              		.eabi_attribute 21, 1
   6              		.eabi_attribute 23, 3
   7              		.eabi_attribute 24, 1
   8              		.eabi_attribute 25, 1
   9              		.eabi_attribute 26, 1
  10              		.eabi_attribute 30, 4
  11              		.eabi_attribute 34, 1
  12              		.eabi_attribute 18, 4
  13              		.file	"esp8266_tcpip.c"
  14              		.text
  15              	.Ltext0:
  16              		.cfi_sections	.debug_frame
  17              		.section	.text.Esp8266Bind,"ax",%progbits
  18              		.align	1
  19              		.arch armv7e-m
  20              		.syntax unified
  21              		.thumb
  22              		.thumb_func
  23              		.fpu fpv4-sp-d16
  25              	Esp8266Bind:
  26              	.LVL0:
  27              	.LFB11:
  28              		.file 1 "C:/Users/\262\334\274\322\272\300/.iotlink/sdk/IoT_LINK/iot_link/network/tcpip/esp8266/es
   1:C:/Users/²Ü¼ÒºÀ/.iotlink/sdk/IoT_LINK/iot_link/network/tcpip/esp8266\esp8266_tcpip.c **** /*----------------------------------------------------------------------------
   2:C:/Users/²Ü¼ÒºÀ/.iotlink/sdk/IoT_LINK/iot_link/network/tcpip/esp8266\esp8266_tcpip.c ****  * Copyright (c) <2018>, <Huawei Technologies Co., Ltd>
   3:C:/Users/²Ü¼ÒºÀ/.iotlink/sdk/IoT_LINK/iot_link/network/tcpip/esp8266\esp8266_tcpip.c ****  * All rights reserved.
   4:C:/Users/²Ü¼ÒºÀ/.iotlink/sdk/IoT_LINK/iot_link/network/tcpip/esp8266\esp8266_tcpip.c ****  * Redistribution and use in source and binary forms, with or without modification,
   5:C:/Users/²Ü¼ÒºÀ/.iotlink/sdk/IoT_LINK/iot_link/network/tcpip/esp8266\esp8266_tcpip.c ****  * are permitted provided that the following conditions are met:
   6:C:/Users/²Ü¼ÒºÀ/.iotlink/sdk/IoT_LINK/iot_link/network/tcpip/esp8266\esp8266_tcpip.c ****  * 1. Redistributions of source code must retain the above copyright notice, this list of
   7:C:/Users/²Ü¼ÒºÀ/.iotlink/sdk/IoT_LINK/iot_link/network/tcpip/esp8266\esp8266_tcpip.c ****  * conditions and the following disclaimer.
   8:C:/Users/²Ü¼ÒºÀ/.iotlink/sdk/IoT_LINK/iot_link/network/tcpip/esp8266\esp8266_tcpip.c ****  * 2. Redistributions in binary form must reproduce the above copyright notice, this list
   9:C:/Users/²Ü¼ÒºÀ/.iotlink/sdk/IoT_LINK/iot_link/network/tcpip/esp8266\esp8266_tcpip.c ****  * of conditions and the following disclaimer in the documentation and/or other materials
  10:C:/Users/²Ü¼ÒºÀ/.iotlink/sdk/IoT_LINK/iot_link/network/tcpip/esp8266\esp8266_tcpip.c ****  * provided with the distribution.
  11:C:/Users/²Ü¼ÒºÀ/.iotlink/sdk/IoT_LINK/iot_link/network/tcpip/esp8266\esp8266_tcpip.c ****  * 3. Neither the name of the copyright holder nor the names of its contributors may be used
  12:C:/Users/²Ü¼ÒºÀ/.iotlink/sdk/IoT_LINK/iot_link/network/tcpip/esp8266\esp8266_tcpip.c ****  * to endorse or promote products derived from this software without specific prior written
  13:C:/Users/²Ü¼ÒºÀ/.iotlink/sdk/IoT_LINK/iot_link/network/tcpip/esp8266\esp8266_tcpip.c ****  * permission.
  14:C:/Users/²Ü¼ÒºÀ/.iotlink/sdk/IoT_LINK/iot_link/network/tcpip/esp8266\esp8266_tcpip.c ****  * THIS SOFTWARE IS PROVIDED BY THE COPYRIGHT HOLDERS AND CONTRIBUTORS
  15:C:/Users/²Ü¼ÒºÀ/.iotlink/sdk/IoT_LINK/iot_link/network/tcpip/esp8266\esp8266_tcpip.c ****  * "AS IS" AND ANY EXPRESS OR IMPLIED WARRANTIES, INCLUDING, BUT NOT LIMITED TO,
  16:C:/Users/²Ü¼ÒºÀ/.iotlink/sdk/IoT_LINK/iot_link/network/tcpip/esp8266\esp8266_tcpip.c ****  * THE IMPLIED WARRANTIES OF MERCHANTABILITY AND FITNESS FOR A PARTICULAR
  17:C:/Users/²Ü¼ÒºÀ/.iotlink/sdk/IoT_LINK/iot_link/network/tcpip/esp8266\esp8266_tcpip.c ****  * PURPOSE ARE DISCLAIMED. IN NO EVENT SHALL THE COPYRIGHT HOLDER OR
  18:C:/Users/²Ü¼ÒºÀ/.iotlink/sdk/IoT_LINK/iot_link/network/tcpip/esp8266\esp8266_tcpip.c ****  * CONTRIBUTORS BE LIABLE FOR ANY DIRECT, INDIRECT, INCIDENTAL, SPECIAL,
  19:C:/Users/²Ü¼ÒºÀ/.iotlink/sdk/IoT_LINK/iot_link/network/tcpip/esp8266\esp8266_tcpip.c ****  * EXEMPLARY, OR CONSEQUENTIAL DAMAGES (INCLUDING, BUT NOT LIMITED TO,
  20:C:/Users/²Ü¼ÒºÀ/.iotlink/sdk/IoT_LINK/iot_link/network/tcpip/esp8266\esp8266_tcpip.c ****  * PROCUREMENT OF SUBSTITUTE GOODS OR SERVICES; LOSS OF USE, DATA, OR PROFITS;
  21:C:/Users/²Ü¼ÒºÀ/.iotlink/sdk/IoT_LINK/iot_link/network/tcpip/esp8266\esp8266_tcpip.c ****  * OR BUSINESS INTERRUPTION) HOWEVER CAUSED AND ON ANY THEORY OF LIABILITY,
  22:C:/Users/²Ü¼ÒºÀ/.iotlink/sdk/IoT_LINK/iot_link/network/tcpip/esp8266\esp8266_tcpip.c ****  * WHETHER IN CONTRACT, STRICT LIABILITY, OR TORT (INCLUDING NEGLIGENCE OR
  23:C:/Users/²Ü¼ÒºÀ/.iotlink/sdk/IoT_LINK/iot_link/network/tcpip/esp8266\esp8266_tcpip.c ****  * OTHERWISE) ARISING IN ANY WAY OUT OF THE USE OF THIS SOFTWARE, EVEN IF
  24:C:/Users/²Ü¼ÒºÀ/.iotlink/sdk/IoT_LINK/iot_link/network/tcpip/esp8266\esp8266_tcpip.c ****  * ADVISED OF THE POSSIBILITY OF SUCH DAMAGE.
  25:C:/Users/²Ü¼ÒºÀ/.iotlink/sdk/IoT_LINK/iot_link/network/tcpip/esp8266\esp8266_tcpip.c ****  *---------------------------------------------------------------------------*/
  26:C:/Users/²Ü¼ÒºÀ/.iotlink/sdk/IoT_LINK/iot_link/network/tcpip/esp8266\esp8266_tcpip.c **** /*----------------------------------------------------------------------------
  27:C:/Users/²Ü¼ÒºÀ/.iotlink/sdk/IoT_LINK/iot_link/network/tcpip/esp8266\esp8266_tcpip.c ****  * Notice of Export Control Law
  28:C:/Users/²Ü¼ÒºÀ/.iotlink/sdk/IoT_LINK/iot_link/network/tcpip/esp8266\esp8266_tcpip.c ****  * ===============================================
  29:C:/Users/²Ü¼ÒºÀ/.iotlink/sdk/IoT_LINK/iot_link/network/tcpip/esp8266\esp8266_tcpip.c ****  * Huawei LiteOS may be subject to applicable export control laws and regulations, which might
  30:C:/Users/²Ü¼ÒºÀ/.iotlink/sdk/IoT_LINK/iot_link/network/tcpip/esp8266\esp8266_tcpip.c ****  * include those applicable to Huawei LiteOS of U.S. and the country in which you are located.
ARM GAS  C:\Users\²Ü¼ÒºÀ\AppData\Local\Temp\cci6pW3E.s 			page 2


  31:C:/Users/²Ü¼ÒºÀ/.iotlink/sdk/IoT_LINK/iot_link/network/tcpip/esp8266\esp8266_tcpip.c ****  * Import, export and usage of Huawei LiteOS in any manner by you shall be in compliance with such
  32:C:/Users/²Ü¼ÒºÀ/.iotlink/sdk/IoT_LINK/iot_link/network/tcpip/esp8266\esp8266_tcpip.c ****  * applicable export control laws and regulations.
  33:C:/Users/²Ü¼ÒºÀ/.iotlink/sdk/IoT_LINK/iot_link/network/tcpip/esp8266\esp8266_tcpip.c ****  *---------------------------------------------------------------------------*/
  34:C:/Users/²Ü¼ÒºÀ/.iotlink/sdk/IoT_LINK/iot_link/network/tcpip/esp8266\esp8266_tcpip.c **** /**
  35:C:/Users/²Ü¼ÒºÀ/.iotlink/sdk/IoT_LINK/iot_link/network/tcpip/esp8266\esp8266_tcpip.c ****  *  DATE                AUTHOR      INSTRUCTION
  36:C:/Users/²Ü¼ÒºÀ/.iotlink/sdk/IoT_LINK/iot_link/network/tcpip/esp8266\esp8266_tcpip.c ****  *  2019-08-5 15:09    yuhengP     The first version
  37:C:/Users/²Ü¼ÒºÀ/.iotlink/sdk/IoT_LINK/iot_link/network/tcpip/esp8266\esp8266_tcpip.c ****  *
  38:C:/Users/²Ü¼ÒºÀ/.iotlink/sdk/IoT_LINK/iot_link/network/tcpip/esp8266\esp8266_tcpip.c ****  *  2020-07-17         developer   Add the multi-socket mode
  39:C:/Users/²Ü¼ÒºÀ/.iotlink/sdk/IoT_LINK/iot_link/network/tcpip/esp8266\esp8266_tcpip.c ****  *
  40:C:/Users/²Ü¼ÒºÀ/.iotlink/sdk/IoT_LINK/iot_link/network/tcpip/esp8266\esp8266_tcpip.c ****  */
  41:C:/Users/²Ü¼ÒºÀ/.iotlink/sdk/IoT_LINK/iot_link/network/tcpip/esp8266\esp8266_tcpip.c **** 
  42:C:/Users/²Ü¼ÒºÀ/.iotlink/sdk/IoT_LINK/iot_link/network/tcpip/esp8266\esp8266_tcpip.c **** #include <stdio.h>
  43:C:/Users/²Ü¼ÒºÀ/.iotlink/sdk/IoT_LINK/iot_link/network/tcpip/esp8266\esp8266_tcpip.c **** #include <string.h>
  44:C:/Users/²Ü¼ÒºÀ/.iotlink/sdk/IoT_LINK/iot_link/network/tcpip/esp8266\esp8266_tcpip.c **** #include <unistd.h>
  45:C:/Users/²Ü¼ÒºÀ/.iotlink/sdk/IoT_LINK/iot_link/network/tcpip/esp8266\esp8266_tcpip.c **** 
  46:C:/Users/²Ü¼ÒºÀ/.iotlink/sdk/IoT_LINK/iot_link/network/tcpip/esp8266\esp8266_tcpip.c **** 
  47:C:/Users/²Ü¼ÒºÀ/.iotlink/sdk/IoT_LINK/iot_link/network/tcpip/esp8266\esp8266_tcpip.c **** #include <sal.h>
  48:C:/Users/²Ü¼ÒºÀ/.iotlink/sdk/IoT_LINK/iot_link/network/tcpip/esp8266\esp8266_tcpip.c **** #include <sal_imp.h>
  49:C:/Users/²Ü¼ÒºÀ/.iotlink/sdk/IoT_LINK/iot_link/network/tcpip/esp8266\esp8266_tcpip.c **** #include <sal_define.h>
  50:C:/Users/²Ü¼ÒºÀ/.iotlink/sdk/IoT_LINK/iot_link/network/tcpip/esp8266\esp8266_tcpip.c **** #include <sal_types.h>
  51:C:/Users/²Ü¼ÒºÀ/.iotlink/sdk/IoT_LINK/iot_link/network/tcpip/esp8266\esp8266_tcpip.c **** #include <at.h>
  52:C:/Users/²Ü¼ÒºÀ/.iotlink/sdk/IoT_LINK/iot_link/network/tcpip/esp8266\esp8266_tcpip.c **** #include <link_misc.h>
  53:C:/Users/²Ü¼ÒºÀ/.iotlink/sdk/IoT_LINK/iot_link/network/tcpip/esp8266\esp8266_tcpip.c **** #include <link_endian.h>
  54:C:/Users/²Ü¼ÒºÀ/.iotlink/sdk/IoT_LINK/iot_link/network/tcpip/esp8266\esp8266_tcpip.c **** #include <osal.h>
  55:C:/Users/²Ü¼ÒºÀ/.iotlink/sdk/IoT_LINK/iot_link/network/tcpip/esp8266\esp8266_tcpip.c **** #include <iot_link_config.h>
  56:C:/Users/²Ü¼ÒºÀ/.iotlink/sdk/IoT_LINK/iot_link/network/tcpip/esp8266\esp8266_tcpip.c **** 
  57:C:/Users/²Ü¼ÒºÀ/.iotlink/sdk/IoT_LINK/iot_link/network/tcpip/esp8266\esp8266_tcpip.c **** ///<anyway, you should do the config for the wifi
  58:C:/Users/²Ü¼ÒºÀ/.iotlink/sdk/IoT_LINK/iot_link/network/tcpip/esp8266\esp8266_tcpip.c **** #ifndef CONFIG_ESP8266_SSID
  59:C:/Users/²Ü¼ÒºÀ/.iotlink/sdk/IoT_LINK/iot_link/network/tcpip/esp8266\esp8266_tcpip.c **** #define CONFIG_ESP8266_SSID "IoTdebug"
  60:C:/Users/²Ü¼ÒºÀ/.iotlink/sdk/IoT_LINK/iot_link/network/tcpip/esp8266\esp8266_tcpip.c **** #endif
  61:C:/Users/²Ü¼ÒºÀ/.iotlink/sdk/IoT_LINK/iot_link/network/tcpip/esp8266\esp8266_tcpip.c **** #ifndef CONFIG_ESP8266_PWD
  62:C:/Users/²Ü¼ÒºÀ/.iotlink/sdk/IoT_LINK/iot_link/network/tcpip/esp8266\esp8266_tcpip.c **** #define CONFIG_ESP8266_PWD  "IoTdebug"
  63:C:/Users/²Ü¼ÒºÀ/.iotlink/sdk/IoT_LINK/iot_link/network/tcpip/esp8266\esp8266_tcpip.c **** #endif
  64:C:/Users/²Ü¼ÒºÀ/.iotlink/sdk/IoT_LINK/iot_link/network/tcpip/esp8266\esp8266_tcpip.c **** #ifndef CONFIG_ESP8266_RCVCACHE
  65:C:/Users/²Ü¼ÒºÀ/.iotlink/sdk/IoT_LINK/iot_link/network/tcpip/esp8266\esp8266_tcpip.c **** #define CONFIG_ESP8266_RCVCACHE      (1024)
  66:C:/Users/²Ü¼ÒºÀ/.iotlink/sdk/IoT_LINK/iot_link/network/tcpip/esp8266\esp8266_tcpip.c **** #endif
  67:C:/Users/²Ü¼ÒºÀ/.iotlink/sdk/IoT_LINK/iot_link/network/tcpip/esp8266\esp8266_tcpip.c **** #ifndef CONFIG_ESP8266_CMDTIMEOUT
  68:C:/Users/²Ü¼ÒºÀ/.iotlink/sdk/IoT_LINK/iot_link/network/tcpip/esp8266\esp8266_tcpip.c **** #define CONFIG_ESP8266_CMDTIMEOUT    (2*1000)
  69:C:/Users/²Ü¼ÒºÀ/.iotlink/sdk/IoT_LINK/iot_link/network/tcpip/esp8266\esp8266_tcpip.c **** #endif
  70:C:/Users/²Ü¼ÒºÀ/.iotlink/sdk/IoT_LINK/iot_link/network/tcpip/esp8266\esp8266_tcpip.c **** 
  71:C:/Users/²Ü¼ÒºÀ/.iotlink/sdk/IoT_LINK/iot_link/network/tcpip/esp8266\esp8266_tcpip.c **** 
  72:C:/Users/²Ü¼ÒºÀ/.iotlink/sdk/IoT_LINK/iot_link/network/tcpip/esp8266\esp8266_tcpip.c **** #define CN_ESP8266_SOCKMAX       5
  73:C:/Users/²Ü¼ÒºÀ/.iotlink/sdk/IoT_LINK/iot_link/network/tcpip/esp8266\esp8266_tcpip.c **** #define CN_ESP8266_RCVINDEX      "\r\n+IPD"
  74:C:/Users/²Ü¼ÒºÀ/.iotlink/sdk/IoT_LINK/iot_link/network/tcpip/esp8266\esp8266_tcpip.c **** #define CN_STACK_STRMAX          128
  75:C:/Users/²Ü¼ÒºÀ/.iotlink/sdk/IoT_LINK/iot_link/network/tcpip/esp8266\esp8266_tcpip.c **** 
  76:C:/Users/²Ü¼ÒºÀ/.iotlink/sdk/IoT_LINK/iot_link/network/tcpip/esp8266\esp8266_tcpip.c **** 
  77:C:/Users/²Ü¼ÒºÀ/.iotlink/sdk/IoT_LINK/iot_link/network/tcpip/esp8266\esp8266_tcpip.c **** typedef enum
  78:C:/Users/²Ü¼ÒºÀ/.iotlink/sdk/IoT_LINK/iot_link/network/tcpip/esp8266\esp8266_tcpip.c **** {
  79:C:/Users/²Ü¼ÒºÀ/.iotlink/sdk/IoT_LINK/iot_link/network/tcpip/esp8266\esp8266_tcpip.c ****     STA = 1,
  80:C:/Users/²Ü¼ÒºÀ/.iotlink/sdk/IoT_LINK/iot_link/network/tcpip/esp8266\esp8266_tcpip.c ****     AP,
  81:C:/Users/²Ü¼ÒºÀ/.iotlink/sdk/IoT_LINK/iot_link/network/tcpip/esp8266\esp8266_tcpip.c ****     STA_AP,
  82:C:/Users/²Ü¼ÒºÀ/.iotlink/sdk/IoT_LINK/iot_link/network/tcpip/esp8266\esp8266_tcpip.c **** }enum_net_mode;
  83:C:/Users/²Ü¼ÒºÀ/.iotlink/sdk/IoT_LINK/iot_link/network/tcpip/esp8266\esp8266_tcpip.c **** ///< this is the mux==1 mode
  84:C:/Users/²Ü¼ÒºÀ/.iotlink/sdk/IoT_LINK/iot_link/network/tcpip/esp8266\esp8266_tcpip.c **** typedef struct
  85:C:/Users/²Ü¼ÒºÀ/.iotlink/sdk/IoT_LINK/iot_link/network/tcpip/esp8266\esp8266_tcpip.c **** {
  86:C:/Users/²Ü¼ÒºÀ/.iotlink/sdk/IoT_LINK/iot_link/network/tcpip/esp8266\esp8266_tcpip.c ****     int sockfd;
  87:C:/Users/²Ü¼ÒºÀ/.iotlink/sdk/IoT_LINK/iot_link/network/tcpip/esp8266\esp8266_tcpip.c ****     int domain;
ARM GAS  C:\Users\²Ü¼ÒºÀ\AppData\Local\Temp\cci6pW3E.s 			page 3


  88:C:/Users/²Ü¼ÒºÀ/.iotlink/sdk/IoT_LINK/iot_link/network/tcpip/esp8266\esp8266_tcpip.c ****     int type;
  89:C:/Users/²Ü¼ÒºÀ/.iotlink/sdk/IoT_LINK/iot_link/network/tcpip/esp8266\esp8266_tcpip.c ****     int protocol;
  90:C:/Users/²Ü¼ÒºÀ/.iotlink/sdk/IoT_LINK/iot_link/network/tcpip/esp8266\esp8266_tcpip.c **** 
  91:C:/Users/²Ü¼ÒºÀ/.iotlink/sdk/IoT_LINK/iot_link/network/tcpip/esp8266\esp8266_tcpip.c ****     int isConnect;
  92:C:/Users/²Ü¼ÒºÀ/.iotlink/sdk/IoT_LINK/iot_link/network/tcpip/esp8266\esp8266_tcpip.c ****     unsigned int timeout;
  93:C:/Users/²Ü¼ÒºÀ/.iotlink/sdk/IoT_LINK/iot_link/network/tcpip/esp8266\esp8266_tcpip.c ****     tag_ring_buffer_t rcvRing;
  94:C:/Users/²Ü¼ÒºÀ/.iotlink/sdk/IoT_LINK/iot_link/network/tcpip/esp8266\esp8266_tcpip.c **** 
  95:C:/Users/²Ü¼ÒºÀ/.iotlink/sdk/IoT_LINK/iot_link/network/tcpip/esp8266\esp8266_tcpip.c ****     char oob_resp[CONFIG_ESP8266_RCVCACHE];
  96:C:/Users/²Ü¼ÒºÀ/.iotlink/sdk/IoT_LINK/iot_link/network/tcpip/esp8266\esp8266_tcpip.c ****     unsigned char esp8266_rcvbuf[CONFIG_ESP8266_RCVCACHE];
  97:C:/Users/²Ü¼ÒºÀ/.iotlink/sdk/IoT_LINK/iot_link/network/tcpip/esp8266\esp8266_tcpip.c **** }Esp8266Sock_t;
  98:C:/Users/²Ü¼ÒºÀ/.iotlink/sdk/IoT_LINK/iot_link/network/tcpip/esp8266\esp8266_tcpip.c **** 
  99:C:/Users/²Ü¼ÒºÀ/.iotlink/sdk/IoT_LINK/iot_link/network/tcpip/esp8266\esp8266_tcpip.c **** typedef struct
 100:C:/Users/²Ü¼ÒºÀ/.iotlink/sdk/IoT_LINK/iot_link/network/tcpip/esp8266\esp8266_tcpip.c **** {
 101:C:/Users/²Ü¼ÒºÀ/.iotlink/sdk/IoT_LINK/iot_link/network/tcpip/esp8266\esp8266_tcpip.c ****     osal_mutex_t     atLock;
 102:C:/Users/²Ü¼ÒºÀ/.iotlink/sdk/IoT_LINK/iot_link/network/tcpip/esp8266\esp8266_tcpip.c ****     osal_mutex_t     ioLock;
 103:C:/Users/²Ü¼ÒºÀ/.iotlink/sdk/IoT_LINK/iot_link/network/tcpip/esp8266\esp8266_tcpip.c ****     int              flagSendOKGetByOOB:1; ///< "The Send OK  appending by the oob"
 104:C:/Users/²Ü¼ÒºÀ/.iotlink/sdk/IoT_LINK/iot_link/network/tcpip/esp8266\esp8266_tcpip.c ****     int              flagSendIndexGetByOOB:1;///< "The > appending by the oob "
 105:C:/Users/²Ü¼ÒºÀ/.iotlink/sdk/IoT_LINK/iot_link/network/tcpip/esp8266\esp8266_tcpip.c ****     Esp8266Sock_t  *sockArray[CN_ESP8266_SOCKMAX];
 106:C:/Users/²Ü¼ÒºÀ/.iotlink/sdk/IoT_LINK/iot_link/network/tcpip/esp8266\esp8266_tcpip.c **** }Esp8266CB_t;
 107:C:/Users/²Ü¼ÒºÀ/.iotlink/sdk/IoT_LINK/iot_link/network/tcpip/esp8266\esp8266_tcpip.c **** static Esp8266CB_t   gEsp8266CB;    ///< This is the esp8266 control block here
 108:C:/Users/²Ü¼ÒºÀ/.iotlink/sdk/IoT_LINK/iot_link/network/tcpip/esp8266\esp8266_tcpip.c **** 
 109:C:/Users/²Ü¼ÒºÀ/.iotlink/sdk/IoT_LINK/iot_link/network/tcpip/esp8266\esp8266_tcpip.c **** static int Esp8266SockMalloc(Esp8266Sock_t *sock)
 110:C:/Users/²Ü¼ÒºÀ/.iotlink/sdk/IoT_LINK/iot_link/network/tcpip/esp8266\esp8266_tcpip.c **** {
 111:C:/Users/²Ü¼ÒºÀ/.iotlink/sdk/IoT_LINK/iot_link/network/tcpip/esp8266\esp8266_tcpip.c ****     ///< try to get one
 112:C:/Users/²Ü¼ÒºÀ/.iotlink/sdk/IoT_LINK/iot_link/network/tcpip/esp8266\esp8266_tcpip.c ****     int fd = -1;
 113:C:/Users/²Ü¼ÒºÀ/.iotlink/sdk/IoT_LINK/iot_link/network/tcpip/esp8266\esp8266_tcpip.c ****     if(osal_mutex_lock(gEsp8266CB.atLock)){
 114:C:/Users/²Ü¼ÒºÀ/.iotlink/sdk/IoT_LINK/iot_link/network/tcpip/esp8266\esp8266_tcpip.c ****         for(int i = 0;i< CN_ESP8266_SOCKMAX; i++){
 115:C:/Users/²Ü¼ÒºÀ/.iotlink/sdk/IoT_LINK/iot_link/network/tcpip/esp8266\esp8266_tcpip.c ****             if(gEsp8266CB.sockArray[i] == NULL){
 116:C:/Users/²Ü¼ÒºÀ/.iotlink/sdk/IoT_LINK/iot_link/network/tcpip/esp8266\esp8266_tcpip.c ****                 fd = i;
 117:C:/Users/²Ü¼ÒºÀ/.iotlink/sdk/IoT_LINK/iot_link/network/tcpip/esp8266\esp8266_tcpip.c ****                 sock->sockfd =fd;
 118:C:/Users/²Ü¼ÒºÀ/.iotlink/sdk/IoT_LINK/iot_link/network/tcpip/esp8266\esp8266_tcpip.c ****                 gEsp8266CB.sockArray[i] = sock;
 119:C:/Users/²Ü¼ÒºÀ/.iotlink/sdk/IoT_LINK/iot_link/network/tcpip/esp8266\esp8266_tcpip.c ****                 break;
 120:C:/Users/²Ü¼ÒºÀ/.iotlink/sdk/IoT_LINK/iot_link/network/tcpip/esp8266\esp8266_tcpip.c ****             }
 121:C:/Users/²Ü¼ÒºÀ/.iotlink/sdk/IoT_LINK/iot_link/network/tcpip/esp8266\esp8266_tcpip.c ****         }
 122:C:/Users/²Ü¼ÒºÀ/.iotlink/sdk/IoT_LINK/iot_link/network/tcpip/esp8266\esp8266_tcpip.c **** 
 123:C:/Users/²Ü¼ÒºÀ/.iotlink/sdk/IoT_LINK/iot_link/network/tcpip/esp8266\esp8266_tcpip.c ****         osal_mutex_unlock(gEsp8266CB.atLock);
 124:C:/Users/²Ü¼ÒºÀ/.iotlink/sdk/IoT_LINK/iot_link/network/tcpip/esp8266\esp8266_tcpip.c ****     }
 125:C:/Users/²Ü¼ÒºÀ/.iotlink/sdk/IoT_LINK/iot_link/network/tcpip/esp8266\esp8266_tcpip.c ****     return fd;
 126:C:/Users/²Ü¼ÒºÀ/.iotlink/sdk/IoT_LINK/iot_link/network/tcpip/esp8266\esp8266_tcpip.c **** }
 127:C:/Users/²Ü¼ÒºÀ/.iotlink/sdk/IoT_LINK/iot_link/network/tcpip/esp8266\esp8266_tcpip.c **** 
 128:C:/Users/²Ü¼ÒºÀ/.iotlink/sdk/IoT_LINK/iot_link/network/tcpip/esp8266\esp8266_tcpip.c **** static void Esp8266SockFree(int fd)
 129:C:/Users/²Ü¼ÒºÀ/.iotlink/sdk/IoT_LINK/iot_link/network/tcpip/esp8266\esp8266_tcpip.c **** {
 130:C:/Users/²Ü¼ÒºÀ/.iotlink/sdk/IoT_LINK/iot_link/network/tcpip/esp8266\esp8266_tcpip.c ****     ///< try to release one
 131:C:/Users/²Ü¼ÒºÀ/.iotlink/sdk/IoT_LINK/iot_link/network/tcpip/esp8266\esp8266_tcpip.c ****     if(osal_mutex_lock(gEsp8266CB.atLock)){
 132:C:/Users/²Ü¼ÒºÀ/.iotlink/sdk/IoT_LINK/iot_link/network/tcpip/esp8266\esp8266_tcpip.c ****             gEsp8266CB.sockArray[fd] = NULL;
 133:C:/Users/²Ü¼ÒºÀ/.iotlink/sdk/IoT_LINK/iot_link/network/tcpip/esp8266\esp8266_tcpip.c ****         osal_mutex_unlock(gEsp8266CB.atLock);
 134:C:/Users/²Ü¼ÒºÀ/.iotlink/sdk/IoT_LINK/iot_link/network/tcpip/esp8266\esp8266_tcpip.c ****     }
 135:C:/Users/²Ü¼ÒºÀ/.iotlink/sdk/IoT_LINK/iot_link/network/tcpip/esp8266\esp8266_tcpip.c ****     return;
 136:C:/Users/²Ü¼ÒºÀ/.iotlink/sdk/IoT_LINK/iot_link/network/tcpip/esp8266\esp8266_tcpip.c **** }
 137:C:/Users/²Ü¼ÒºÀ/.iotlink/sdk/IoT_LINK/iot_link/network/tcpip/esp8266\esp8266_tcpip.c **** 
 138:C:/Users/²Ü¼ÒºÀ/.iotlink/sdk/IoT_LINK/iot_link/network/tcpip/esp8266\esp8266_tcpip.c **** static Esp8266Sock_t *Esp8266SockGet(int fd)
 139:C:/Users/²Ü¼ÒºÀ/.iotlink/sdk/IoT_LINK/iot_link/network/tcpip/esp8266\esp8266_tcpip.c **** {
 140:C:/Users/²Ü¼ÒºÀ/.iotlink/sdk/IoT_LINK/iot_link/network/tcpip/esp8266\esp8266_tcpip.c ****     return gEsp8266CB.sockArray[fd];
 141:C:/Users/²Ü¼ÒºÀ/.iotlink/sdk/IoT_LINK/iot_link/network/tcpip/esp8266\esp8266_tcpip.c **** }
 142:C:/Users/²Ü¼ÒºÀ/.iotlink/sdk/IoT_LINK/iot_link/network/tcpip/esp8266\esp8266_tcpip.c **** 
 143:C:/Users/²Ü¼ÒºÀ/.iotlink/sdk/IoT_LINK/iot_link/network/tcpip/esp8266\esp8266_tcpip.c **** 
 144:C:/Users/²Ü¼ÒºÀ/.iotlink/sdk/IoT_LINK/iot_link/network/tcpip/esp8266\esp8266_tcpip.c **** //esp8266 common at command
ARM GAS  C:\Users\²Ü¼ÒºÀ\AppData\Local\Temp\cci6pW3E.s 			page 4


 145:C:/Users/²Ü¼ÒºÀ/.iotlink/sdk/IoT_LINK/iot_link/network/tcpip/esp8266\esp8266_tcpip.c **** static bool_t esp8266_atcmd(const char *cmd,const char *index)
 146:C:/Users/²Ü¼ÒºÀ/.iotlink/sdk/IoT_LINK/iot_link/network/tcpip/esp8266\esp8266_tcpip.c **** {
 147:C:/Users/²Ü¼ÒºÀ/.iotlink/sdk/IoT_LINK/iot_link/network/tcpip/esp8266\esp8266_tcpip.c ****     int ret = 0;
 148:C:/Users/²Ü¼ÒºÀ/.iotlink/sdk/IoT_LINK/iot_link/network/tcpip/esp8266\esp8266_tcpip.c ****     ret = at_command((unsigned char *)cmd,strlen(cmd),index,NULL,0,CONFIG_ESP8266_CMDTIMEOUT);
 149:C:/Users/²Ü¼ÒºÀ/.iotlink/sdk/IoT_LINK/iot_link/network/tcpip/esp8266\esp8266_tcpip.c ****     if(ret >= 0){
 150:C:/Users/²Ü¼ÒºÀ/.iotlink/sdk/IoT_LINK/iot_link/network/tcpip/esp8266\esp8266_tcpip.c ****         return true;
 151:C:/Users/²Ü¼ÒºÀ/.iotlink/sdk/IoT_LINK/iot_link/network/tcpip/esp8266\esp8266_tcpip.c ****     }
 152:C:/Users/²Ü¼ÒºÀ/.iotlink/sdk/IoT_LINK/iot_link/network/tcpip/esp8266\esp8266_tcpip.c ****     else{
 153:C:/Users/²Ü¼ÒºÀ/.iotlink/sdk/IoT_LINK/iot_link/network/tcpip/esp8266\esp8266_tcpip.c ****         return false;
 154:C:/Users/²Ü¼ÒºÀ/.iotlink/sdk/IoT_LINK/iot_link/network/tcpip/esp8266\esp8266_tcpip.c ****     }
 155:C:/Users/²Ü¼ÒºÀ/.iotlink/sdk/IoT_LINK/iot_link/network/tcpip/esp8266\esp8266_tcpip.c **** }
 156:C:/Users/²Ü¼ÒºÀ/.iotlink/sdk/IoT_LINK/iot_link/network/tcpip/esp8266\esp8266_tcpip.c **** 
 157:C:/Users/²Ü¼ÒºÀ/.iotlink/sdk/IoT_LINK/iot_link/network/tcpip/esp8266\esp8266_tcpip.c **** //at command  with response
 158:C:/Users/²Ü¼ÒºÀ/.iotlink/sdk/IoT_LINK/iot_link/network/tcpip/esp8266\esp8266_tcpip.c **** static bool_t esp8266_atcmd_response(const char *cmd,const char *index,char *buf, int len)
 159:C:/Users/²Ü¼ÒºÀ/.iotlink/sdk/IoT_LINK/iot_link/network/tcpip/esp8266\esp8266_tcpip.c **** {
 160:C:/Users/²Ü¼ÒºÀ/.iotlink/sdk/IoT_LINK/iot_link/network/tcpip/esp8266\esp8266_tcpip.c ****     int ret = 0;
 161:C:/Users/²Ü¼ÒºÀ/.iotlink/sdk/IoT_LINK/iot_link/network/tcpip/esp8266\esp8266_tcpip.c ****     ret = at_command((unsigned char *)cmd,strlen(cmd),index,(char *)buf,len,CONFIG_ESP8266_CMDTIMEO
 162:C:/Users/²Ü¼ÒºÀ/.iotlink/sdk/IoT_LINK/iot_link/network/tcpip/esp8266\esp8266_tcpip.c ****     if(ret >= 0){
 163:C:/Users/²Ü¼ÒºÀ/.iotlink/sdk/IoT_LINK/iot_link/network/tcpip/esp8266\esp8266_tcpip.c ****         return true;
 164:C:/Users/²Ü¼ÒºÀ/.iotlink/sdk/IoT_LINK/iot_link/network/tcpip/esp8266\esp8266_tcpip.c ****     }
 165:C:/Users/²Ü¼ÒºÀ/.iotlink/sdk/IoT_LINK/iot_link/network/tcpip/esp8266\esp8266_tcpip.c ****     else{
 166:C:/Users/²Ü¼ÒºÀ/.iotlink/sdk/IoT_LINK/iot_link/network/tcpip/esp8266\esp8266_tcpip.c ****         return false;
 167:C:/Users/²Ü¼ÒºÀ/.iotlink/sdk/IoT_LINK/iot_link/network/tcpip/esp8266\esp8266_tcpip.c ****     }
 168:C:/Users/²Ü¼ÒºÀ/.iotlink/sdk/IoT_LINK/iot_link/network/tcpip/esp8266\esp8266_tcpip.c **** }
 169:C:/Users/²Ü¼ÒºÀ/.iotlink/sdk/IoT_LINK/iot_link/network/tcpip/esp8266\esp8266_tcpip.c **** 
 170:C:/Users/²Ü¼ÒºÀ/.iotlink/sdk/IoT_LINK/iot_link/network/tcpip/esp8266\esp8266_tcpip.c **** ///< dataformat: +IPD,FD,LEN:PAYLOAD
 171:C:/Users/²Ü¼ÒºÀ/.iotlink/sdk/IoT_LINK/iot_link/network/tcpip/esp8266\esp8266_tcpip.c **** static char *Esp8266MsgDealSingle(char *msg,size_t len)
 172:C:/Users/²Ü¼ÒºÀ/.iotlink/sdk/IoT_LINK/iot_link/network/tcpip/esp8266\esp8266_tcpip.c **** {
 173:C:/Users/²Ü¼ÒºÀ/.iotlink/sdk/IoT_LINK/iot_link/network/tcpip/esp8266\esp8266_tcpip.c ****     unsigned short datalen;
 174:C:/Users/²Ü¼ÒºÀ/.iotlink/sdk/IoT_LINK/iot_link/network/tcpip/esp8266\esp8266_tcpip.c ****     char *data;
 175:C:/Users/²Ü¼ÒºÀ/.iotlink/sdk/IoT_LINK/iot_link/network/tcpip/esp8266\esp8266_tcpip.c ****     char  *str;
 176:C:/Users/²Ü¼ÒºÀ/.iotlink/sdk/IoT_LINK/iot_link/network/tcpip/esp8266\esp8266_tcpip.c ****     char  *ret = NULL;
 177:C:/Users/²Ü¼ÒºÀ/.iotlink/sdk/IoT_LINK/iot_link/network/tcpip/esp8266\esp8266_tcpip.c **** 
 178:C:/Users/²Ü¼ÒºÀ/.iotlink/sdk/IoT_LINK/iot_link/network/tcpip/esp8266\esp8266_tcpip.c ****     Esp8266Sock_t *sock;
 179:C:/Users/²Ü¼ÒºÀ/.iotlink/sdk/IoT_LINK/iot_link/network/tcpip/esp8266\esp8266_tcpip.c ****     int fd = 0;
 180:C:/Users/²Ü¼ÒºÀ/.iotlink/sdk/IoT_LINK/iot_link/network/tcpip/esp8266\esp8266_tcpip.c **** 
 181:C:/Users/²Ü¼ÒºÀ/.iotlink/sdk/IoT_LINK/iot_link/network/tcpip/esp8266\esp8266_tcpip.c ****     data = msg;
 182:C:/Users/²Ü¼ÒºÀ/.iotlink/sdk/IoT_LINK/iot_link/network/tcpip/esp8266\esp8266_tcpip.c ****     ret = msg + len;
 183:C:/Users/²Ü¼ÒºÀ/.iotlink/sdk/IoT_LINK/iot_link/network/tcpip/esp8266\esp8266_tcpip.c ****     if(len <strlen(CN_ESP8266_RCVINDEX)){
 184:C:/Users/²Ü¼ÒºÀ/.iotlink/sdk/IoT_LINK/iot_link/network/tcpip/esp8266\esp8266_tcpip.c ****         LINK_LOG_ERROR("invalid frame:%d byte:%s",len,(char *)data);
 185:C:/Users/²Ü¼ÒºÀ/.iotlink/sdk/IoT_LINK/iot_link/network/tcpip/esp8266\esp8266_tcpip.c ****         return ret;
 186:C:/Users/²Ü¼ÒºÀ/.iotlink/sdk/IoT_LINK/iot_link/network/tcpip/esp8266\esp8266_tcpip.c ****     }
 187:C:/Users/²Ü¼ÒºÀ/.iotlink/sdk/IoT_LINK/iot_link/network/tcpip/esp8266\esp8266_tcpip.c ****     ///< get the fd;
 188:C:/Users/²Ü¼ÒºÀ/.iotlink/sdk/IoT_LINK/iot_link/network/tcpip/esp8266\esp8266_tcpip.c ****     str = strstr((char *)data,",");
 189:C:/Users/²Ü¼ÒºÀ/.iotlink/sdk/IoT_LINK/iot_link/network/tcpip/esp8266\esp8266_tcpip.c ****     if(NULL == str){
 190:C:/Users/²Ü¼ÒºÀ/.iotlink/sdk/IoT_LINK/iot_link/network/tcpip/esp8266\esp8266_tcpip.c ****         LINK_LOG_ERROR("format error:CAN'T FIND ',fd'");
 191:C:/Users/²Ü¼ÒºÀ/.iotlink/sdk/IoT_LINK/iot_link/network/tcpip/esp8266\esp8266_tcpip.c ****         return ret; //format error
 192:C:/Users/²Ü¼ÒºÀ/.iotlink/sdk/IoT_LINK/iot_link/network/tcpip/esp8266\esp8266_tcpip.c ****     }
 193:C:/Users/²Ü¼ÒºÀ/.iotlink/sdk/IoT_LINK/iot_link/network/tcpip/esp8266\esp8266_tcpip.c ****     str++;
 194:C:/Users/²Ü¼ÒºÀ/.iotlink/sdk/IoT_LINK/iot_link/network/tcpip/esp8266\esp8266_tcpip.c ****     for (; *str <= '9' && *str >= '0' ;str++){
 195:C:/Users/²Ü¼ÒºÀ/.iotlink/sdk/IoT_LINK/iot_link/network/tcpip/esp8266\esp8266_tcpip.c ****         fd = (fd * 10 + (*str - '0'));
 196:C:/Users/²Ü¼ÒºÀ/.iotlink/sdk/IoT_LINK/iot_link/network/tcpip/esp8266\esp8266_tcpip.c ****     }
 197:C:/Users/²Ü¼ÒºÀ/.iotlink/sdk/IoT_LINK/iot_link/network/tcpip/esp8266\esp8266_tcpip.c ****     if(fd >= CN_ESP8266_SOCKMAX){
 198:C:/Users/²Ü¼ÒºÀ/.iotlink/sdk/IoT_LINK/iot_link/network/tcpip/esp8266\esp8266_tcpip.c ****         return ret;
 199:C:/Users/²Ü¼ÒºÀ/.iotlink/sdk/IoT_LINK/iot_link/network/tcpip/esp8266\esp8266_tcpip.c ****     }
 200:C:/Users/²Ü¼ÒºÀ/.iotlink/sdk/IoT_LINK/iot_link/network/tcpip/esp8266\esp8266_tcpip.c ****     sock = Esp8266SockGet(fd);
 201:C:/Users/²Ü¼ÒºÀ/.iotlink/sdk/IoT_LINK/iot_link/network/tcpip/esp8266\esp8266_tcpip.c ****     if(NULL == sock){
ARM GAS  C:\Users\²Ü¼ÒºÀ\AppData\Local\Temp\cci6pW3E.s 			page 5


 202:C:/Users/²Ü¼ÒºÀ/.iotlink/sdk/IoT_LINK/iot_link/network/tcpip/esp8266\esp8266_tcpip.c ****         return ret;
 203:C:/Users/²Ü¼ÒºÀ/.iotlink/sdk/IoT_LINK/iot_link/network/tcpip/esp8266\esp8266_tcpip.c ****     }
 204:C:/Users/²Ü¼ÒºÀ/.iotlink/sdk/IoT_LINK/iot_link/network/tcpip/esp8266\esp8266_tcpip.c ****     //now deal the datalen
 205:C:/Users/²Ü¼ÒºÀ/.iotlink/sdk/IoT_LINK/iot_link/network/tcpip/esp8266\esp8266_tcpip.c ****     str = strstr((char *)str,",");
 206:C:/Users/²Ü¼ÒºÀ/.iotlink/sdk/IoT_LINK/iot_link/network/tcpip/esp8266\esp8266_tcpip.c ****     if(NULL == str){
 207:C:/Users/²Ü¼ÒºÀ/.iotlink/sdk/IoT_LINK/iot_link/network/tcpip/esp8266\esp8266_tcpip.c ****         LINK_LOG_ERROR("format error:CAN'T FIND ',LEN'");
 208:C:/Users/²Ü¼ÒºÀ/.iotlink/sdk/IoT_LINK/iot_link/network/tcpip/esp8266\esp8266_tcpip.c ****         return ret; //format error
 209:C:/Users/²Ü¼ÒºÀ/.iotlink/sdk/IoT_LINK/iot_link/network/tcpip/esp8266\esp8266_tcpip.c ****     }
 210:C:/Users/²Ü¼ÒºÀ/.iotlink/sdk/IoT_LINK/iot_link/network/tcpip/esp8266\esp8266_tcpip.c ****     str++;
 211:C:/Users/²Ü¼ÒºÀ/.iotlink/sdk/IoT_LINK/iot_link/network/tcpip/esp8266\esp8266_tcpip.c ****     datalen = 0;
 212:C:/Users/²Ü¼ÒºÀ/.iotlink/sdk/IoT_LINK/iot_link/network/tcpip/esp8266\esp8266_tcpip.c ****     for (; *str <= '9' && *str >= '0' ;str++)
 213:C:/Users/²Ü¼ÒºÀ/.iotlink/sdk/IoT_LINK/iot_link/network/tcpip/esp8266\esp8266_tcpip.c ****     {
 214:C:/Users/²Ü¼ÒºÀ/.iotlink/sdk/IoT_LINK/iot_link/network/tcpip/esp8266\esp8266_tcpip.c ****         datalen = (datalen * 10 + (*str - '0'));
 215:C:/Users/²Ü¼ÒºÀ/.iotlink/sdk/IoT_LINK/iot_link/network/tcpip/esp8266\esp8266_tcpip.c ****     }
 216:C:/Users/²Ü¼ÒºÀ/.iotlink/sdk/IoT_LINK/iot_link/network/tcpip/esp8266\esp8266_tcpip.c ****     str++; ///<SKIP OVER THE ":"
 217:C:/Users/²Ü¼ÒºÀ/.iotlink/sdk/IoT_LINK/iot_link/network/tcpip/esp8266\esp8266_tcpip.c **** 
 218:C:/Users/²Ü¼ÒºÀ/.iotlink/sdk/IoT_LINK/iot_link/network/tcpip/esp8266\esp8266_tcpip.c ****     //now this is data payload
 219:C:/Users/²Ü¼ÒºÀ/.iotlink/sdk/IoT_LINK/iot_link/network/tcpip/esp8266\esp8266_tcpip.c ****     if(datalen > (CONFIG_ESP8266_RCVCACHE - ring_buffer_datalen(&sock->rcvRing)))
 220:C:/Users/²Ü¼ÒºÀ/.iotlink/sdk/IoT_LINK/iot_link/network/tcpip/esp8266\esp8266_tcpip.c ****     {
 221:C:/Users/²Ü¼ÒºÀ/.iotlink/sdk/IoT_LINK/iot_link/network/tcpip/esp8266\esp8266_tcpip.c ****         return ret;
 222:C:/Users/²Ü¼ÒºÀ/.iotlink/sdk/IoT_LINK/iot_link/network/tcpip/esp8266\esp8266_tcpip.c ****     }
 223:C:/Users/²Ü¼ÒºÀ/.iotlink/sdk/IoT_LINK/iot_link/network/tcpip/esp8266\esp8266_tcpip.c ****     ret = str + datalen;
 224:C:/Users/²Ü¼ÒºÀ/.iotlink/sdk/IoT_LINK/iot_link/network/tcpip/esp8266\esp8266_tcpip.c ****     if(sock->type == SOCK_DGRAM)
 225:C:/Users/²Ü¼ÒºÀ/.iotlink/sdk/IoT_LINK/iot_link/network/tcpip/esp8266\esp8266_tcpip.c ****     {
 226:C:/Users/²Ü¼ÒºÀ/.iotlink/sdk/IoT_LINK/iot_link/network/tcpip/esp8266\esp8266_tcpip.c ****         ring_buffer_write(&sock->rcvRing,(unsigned char *)&datalen,sizeof(datalen));
 227:C:/Users/²Ü¼ÒºÀ/.iotlink/sdk/IoT_LINK/iot_link/network/tcpip/esp8266\esp8266_tcpip.c ****         ring_buffer_write(&sock->rcvRing,(unsigned char *)str,datalen);
 228:C:/Users/²Ü¼ÒºÀ/.iotlink/sdk/IoT_LINK/iot_link/network/tcpip/esp8266\esp8266_tcpip.c ****     }
 229:C:/Users/²Ü¼ÒºÀ/.iotlink/sdk/IoT_LINK/iot_link/network/tcpip/esp8266\esp8266_tcpip.c ****     else if (sock->type == SOCK_STREAM)
 230:C:/Users/²Ü¼ÒºÀ/.iotlink/sdk/IoT_LINK/iot_link/network/tcpip/esp8266\esp8266_tcpip.c ****     {
 231:C:/Users/²Ü¼ÒºÀ/.iotlink/sdk/IoT_LINK/iot_link/network/tcpip/esp8266\esp8266_tcpip.c ****         ring_buffer_write(&sock->rcvRing,(unsigned char *)str,datalen);
 232:C:/Users/²Ü¼ÒºÀ/.iotlink/sdk/IoT_LINK/iot_link/network/tcpip/esp8266\esp8266_tcpip.c ****     }
 233:C:/Users/²Ü¼ÒºÀ/.iotlink/sdk/IoT_LINK/iot_link/network/tcpip/esp8266\esp8266_tcpip.c ****     ret = str + datalen;
 234:C:/Users/²Ü¼ÒºÀ/.iotlink/sdk/IoT_LINK/iot_link/network/tcpip/esp8266\esp8266_tcpip.c **** 
 235:C:/Users/²Ü¼ÒºÀ/.iotlink/sdk/IoT_LINK/iot_link/network/tcpip/esp8266\esp8266_tcpip.c ****     return ret;
 236:C:/Users/²Ü¼ÒºÀ/.iotlink/sdk/IoT_LINK/iot_link/network/tcpip/esp8266\esp8266_tcpip.c **** }
 237:C:/Users/²Ü¼ÒºÀ/.iotlink/sdk/IoT_LINK/iot_link/network/tcpip/esp8266\esp8266_tcpip.c **** 
 238:C:/Users/²Ü¼ÒºÀ/.iotlink/sdk/IoT_LINK/iot_link/network/tcpip/esp8266\esp8266_tcpip.c **** static int Esp8266MsgDeal(void *args,void *msg,size_t len)
 239:C:/Users/²Ü¼ÒºÀ/.iotlink/sdk/IoT_LINK/iot_link/network/tcpip/esp8266\esp8266_tcpip.c **** {
 240:C:/Users/²Ü¼ÒºÀ/.iotlink/sdk/IoT_LINK/iot_link/network/tcpip/esp8266\esp8266_tcpip.c ****     char *dataNxt = NULL;
 241:C:/Users/²Ü¼ÒºÀ/.iotlink/sdk/IoT_LINK/iot_link/network/tcpip/esp8266\esp8266_tcpip.c ****     int dataLeft;
 242:C:/Users/²Ü¼ÒºÀ/.iotlink/sdk/IoT_LINK/iot_link/network/tcpip/esp8266\esp8266_tcpip.c **** 
 243:C:/Users/²Ü¼ÒºÀ/.iotlink/sdk/IoT_LINK/iot_link/network/tcpip/esp8266\esp8266_tcpip.c ****     dataNxt = (char *) msg;
 244:C:/Users/²Ü¼ÒºÀ/.iotlink/sdk/IoT_LINK/iot_link/network/tcpip/esp8266\esp8266_tcpip.c ****     dataLeft = len;
 245:C:/Users/²Ü¼ÒºÀ/.iotlink/sdk/IoT_LINK/iot_link/network/tcpip/esp8266\esp8266_tcpip.c **** 
 246:C:/Users/²Ü¼ÒºÀ/.iotlink/sdk/IoT_LINK/iot_link/network/tcpip/esp8266\esp8266_tcpip.c ****     while(((uintptr_t)(dataNxt)) < ((uintptr_t)msg + len)){
 247:C:/Users/²Ü¼ÒºÀ/.iotlink/sdk/IoT_LINK/iot_link/network/tcpip/esp8266\esp8266_tcpip.c ****         if(osal_mutex_lock(gEsp8266CB.ioLock)){
 248:C:/Users/²Ü¼ÒºÀ/.iotlink/sdk/IoT_LINK/iot_link/network/tcpip/esp8266\esp8266_tcpip.c ****             dataNxt = Esp8266MsgDealSingle(dataNxt, dataLeft);
 249:C:/Users/²Ü¼ÒºÀ/.iotlink/sdk/IoT_LINK/iot_link/network/tcpip/esp8266\esp8266_tcpip.c ****             osal_mutex_unlock(gEsp8266CB.ioLock);
 250:C:/Users/²Ü¼ÒºÀ/.iotlink/sdk/IoT_LINK/iot_link/network/tcpip/esp8266\esp8266_tcpip.c ****         }
 251:C:/Users/²Ü¼ÒºÀ/.iotlink/sdk/IoT_LINK/iot_link/network/tcpip/esp8266\esp8266_tcpip.c ****         dataLeft = (uintptr_t)msg + len - (uintptr_t)dataNxt;
 252:C:/Users/²Ü¼ÒºÀ/.iotlink/sdk/IoT_LINK/iot_link/network/tcpip/esp8266\esp8266_tcpip.c ****         if(dataLeft < strlen(CN_ESP8266_RCVINDEX)){
 253:C:/Users/²Ü¼ÒºÀ/.iotlink/sdk/IoT_LINK/iot_link/network/tcpip/esp8266\esp8266_tcpip.c ****             break;
 254:C:/Users/²Ü¼ÒºÀ/.iotlink/sdk/IoT_LINK/iot_link/network/tcpip/esp8266\esp8266_tcpip.c ****         }
 255:C:/Users/²Ü¼ÒºÀ/.iotlink/sdk/IoT_LINK/iot_link/network/tcpip/esp8266\esp8266_tcpip.c ****         if(0 != memcmp(dataNxt,CN_ESP8266_RCVINDEX,strlen(CN_ESP8266_RCVINDEX))){
 256:C:/Users/²Ü¼ÒºÀ/.iotlink/sdk/IoT_LINK/iot_link/network/tcpip/esp8266\esp8266_tcpip.c ****             break;
 257:C:/Users/²Ü¼ÒºÀ/.iotlink/sdk/IoT_LINK/iot_link/network/tcpip/esp8266\esp8266_tcpip.c ****         }
 258:C:/Users/²Ü¼ÒºÀ/.iotlink/sdk/IoT_LINK/iot_link/network/tcpip/esp8266\esp8266_tcpip.c ****     }
ARM GAS  C:\Users\²Ü¼ÒºÀ\AppData\Local\Temp\cci6pW3E.s 			page 6


 259:C:/Users/²Ü¼ÒºÀ/.iotlink/sdk/IoT_LINK/iot_link/network/tcpip/esp8266\esp8266_tcpip.c ****     if(dataLeft > 0){
 260:C:/Users/²Ü¼ÒºÀ/.iotlink/sdk/IoT_LINK/iot_link/network/tcpip/esp8266\esp8266_tcpip.c ****         if(NULL != strstr(dataNxt, ">")){
 261:C:/Users/²Ü¼ÒºÀ/.iotlink/sdk/IoT_LINK/iot_link/network/tcpip/esp8266\esp8266_tcpip.c ****             gEsp8266CB.flagSendIndexGetByOOB = 1;
 262:C:/Users/²Ü¼ÒºÀ/.iotlink/sdk/IoT_LINK/iot_link/network/tcpip/esp8266\esp8266_tcpip.c ****         }
 263:C:/Users/²Ü¼ÒºÀ/.iotlink/sdk/IoT_LINK/iot_link/network/tcpip/esp8266\esp8266_tcpip.c **** 
 264:C:/Users/²Ü¼ÒºÀ/.iotlink/sdk/IoT_LINK/iot_link/network/tcpip/esp8266\esp8266_tcpip.c ****         if(NULL != strstr(dataNxt, "SEND OK")){
 265:C:/Users/²Ü¼ÒºÀ/.iotlink/sdk/IoT_LINK/iot_link/network/tcpip/esp8266\esp8266_tcpip.c ****             gEsp8266CB.flagSendOKGetByOOB = 1;
 266:C:/Users/²Ü¼ÒºÀ/.iotlink/sdk/IoT_LINK/iot_link/network/tcpip/esp8266\esp8266_tcpip.c ****         }
 267:C:/Users/²Ü¼ÒºÀ/.iotlink/sdk/IoT_LINK/iot_link/network/tcpip/esp8266\esp8266_tcpip.c ****     }
 268:C:/Users/²Ü¼ÒºÀ/.iotlink/sdk/IoT_LINK/iot_link/network/tcpip/esp8266\esp8266_tcpip.c ****     return len;
 269:C:/Users/²Ü¼ÒºÀ/.iotlink/sdk/IoT_LINK/iot_link/network/tcpip/esp8266\esp8266_tcpip.c **** }
 270:C:/Users/²Ü¼ÒºÀ/.iotlink/sdk/IoT_LINK/iot_link/network/tcpip/esp8266\esp8266_tcpip.c **** 
 271:C:/Users/²Ü¼ÒºÀ/.iotlink/sdk/IoT_LINK/iot_link/network/tcpip/esp8266\esp8266_tcpip.c **** static int Esp8266Socket(int domain, int type, int protocol)
 272:C:/Users/²Ü¼ÒºÀ/.iotlink/sdk/IoT_LINK/iot_link/network/tcpip/esp8266\esp8266_tcpip.c **** {
 273:C:/Users/²Ü¼ÒºÀ/.iotlink/sdk/IoT_LINK/iot_link/network/tcpip/esp8266\esp8266_tcpip.c **** 
 274:C:/Users/²Ü¼ÒºÀ/.iotlink/sdk/IoT_LINK/iot_link/network/tcpip/esp8266\esp8266_tcpip.c ****     int fd = -1;
 275:C:/Users/²Ü¼ÒºÀ/.iotlink/sdk/IoT_LINK/iot_link/network/tcpip/esp8266\esp8266_tcpip.c ****     Esp8266Sock_t *sock;
 276:C:/Users/²Ü¼ÒºÀ/.iotlink/sdk/IoT_LINK/iot_link/network/tcpip/esp8266\esp8266_tcpip.c **** 
 277:C:/Users/²Ü¼ÒºÀ/.iotlink/sdk/IoT_LINK/iot_link/network/tcpip/esp8266\esp8266_tcpip.c ****     sock = osal_malloc(sizeof(Esp8266Sock_t));
 278:C:/Users/²Ü¼ÒºÀ/.iotlink/sdk/IoT_LINK/iot_link/network/tcpip/esp8266\esp8266_tcpip.c ****     if(NULL == sock){
 279:C:/Users/²Ü¼ÒºÀ/.iotlink/sdk/IoT_LINK/iot_link/network/tcpip/esp8266\esp8266_tcpip.c ****         return fd;
 280:C:/Users/²Ü¼ÒºÀ/.iotlink/sdk/IoT_LINK/iot_link/network/tcpip/esp8266\esp8266_tcpip.c ****     }
 281:C:/Users/²Ü¼ÒºÀ/.iotlink/sdk/IoT_LINK/iot_link/network/tcpip/esp8266\esp8266_tcpip.c ****     ring_buffer_init(&sock->rcvRing,sock->esp8266_rcvbuf,CONFIG_ESP8266_RCVCACHE,0,0);
 282:C:/Users/²Ü¼ÒºÀ/.iotlink/sdk/IoT_LINK/iot_link/network/tcpip/esp8266\esp8266_tcpip.c ****     sock->domain = domain;
 283:C:/Users/²Ü¼ÒºÀ/.iotlink/sdk/IoT_LINK/iot_link/network/tcpip/esp8266\esp8266_tcpip.c ****     sock->type = type;
 284:C:/Users/²Ü¼ÒºÀ/.iotlink/sdk/IoT_LINK/iot_link/network/tcpip/esp8266\esp8266_tcpip.c ****     sock->protocol = protocol;
 285:C:/Users/²Ü¼ÒºÀ/.iotlink/sdk/IoT_LINK/iot_link/network/tcpip/esp8266\esp8266_tcpip.c **** 
 286:C:/Users/²Ü¼ÒºÀ/.iotlink/sdk/IoT_LINK/iot_link/network/tcpip/esp8266\esp8266_tcpip.c ****     fd = Esp8266SockMalloc(sock);
 287:C:/Users/²Ü¼ÒºÀ/.iotlink/sdk/IoT_LINK/iot_link/network/tcpip/esp8266\esp8266_tcpip.c ****     if(fd == -1)
 288:C:/Users/²Ü¼ÒºÀ/.iotlink/sdk/IoT_LINK/iot_link/network/tcpip/esp8266\esp8266_tcpip.c ****     {
 289:C:/Users/²Ü¼ÒºÀ/.iotlink/sdk/IoT_LINK/iot_link/network/tcpip/esp8266\esp8266_tcpip.c ****         osal_free(sock);
 290:C:/Users/²Ü¼ÒºÀ/.iotlink/sdk/IoT_LINK/iot_link/network/tcpip/esp8266\esp8266_tcpip.c ****     }
 291:C:/Users/²Ü¼ÒºÀ/.iotlink/sdk/IoT_LINK/iot_link/network/tcpip/esp8266\esp8266_tcpip.c **** 
 292:C:/Users/²Ü¼ÒºÀ/.iotlink/sdk/IoT_LINK/iot_link/network/tcpip/esp8266\esp8266_tcpip.c ****     return fd;
 293:C:/Users/²Ü¼ÒºÀ/.iotlink/sdk/IoT_LINK/iot_link/network/tcpip/esp8266\esp8266_tcpip.c **** }
 294:C:/Users/²Ü¼ÒºÀ/.iotlink/sdk/IoT_LINK/iot_link/network/tcpip/esp8266\esp8266_tcpip.c **** 
 295:C:/Users/²Ü¼ÒºÀ/.iotlink/sdk/IoT_LINK/iot_link/network/tcpip/esp8266\esp8266_tcpip.c **** static int Esp8266Bind(int fd, const struct sockaddr *addr, int addrlen)
 296:C:/Users/²Ü¼ÒºÀ/.iotlink/sdk/IoT_LINK/iot_link/network/tcpip/esp8266\esp8266_tcpip.c **** {
  29              		.loc 1 296 1 view -0
  30              		.cfi_startproc
  31              		@ args = 0, pretend = 0, frame = 0
  32              		@ frame_needed = 0, uses_anonymous_args = 0
  33              		@ link register save eliminated.
 297:C:/Users/²Ü¼ÒºÀ/.iotlink/sdk/IoT_LINK/iot_link/network/tcpip/esp8266\esp8266_tcpip.c ****     //not implemented for client
 298:C:/Users/²Ü¼ÒºÀ/.iotlink/sdk/IoT_LINK/iot_link/network/tcpip/esp8266\esp8266_tcpip.c ****     return -1;
  34              		.loc 1 298 5 view .LVU1
 299:C:/Users/²Ü¼ÒºÀ/.iotlink/sdk/IoT_LINK/iot_link/network/tcpip/esp8266\esp8266_tcpip.c **** }
  35              		.loc 1 299 1 is_stmt 0 view .LVU2
  36 0000 4FF0FF30 		mov	r0, #-1
  37              	.LVL1:
  38              		.loc 1 299 1 view .LVU3
  39 0004 7047     		bx	lr
  40              		.cfi_endproc
  41              	.LFE11:
  43              		.section	.text.Esp8266Listen,"ax",%progbits
  44              		.align	1
  45              		.syntax unified
ARM GAS  C:\Users\²Ü¼ÒºÀ\AppData\Local\Temp\cci6pW3E.s 			page 7


  46              		.thumb
  47              		.thumb_func
  48              		.fpu fpv4-sp-d16
  50              	Esp8266Listen:
  51              	.LVL2:
  52              	.LFB12:
 300:C:/Users/²Ü¼ÒºÀ/.iotlink/sdk/IoT_LINK/iot_link/network/tcpip/esp8266\esp8266_tcpip.c **** 
 301:C:/Users/²Ü¼ÒºÀ/.iotlink/sdk/IoT_LINK/iot_link/network/tcpip/esp8266\esp8266_tcpip.c **** static int Esp8266Listen(int fd, int backlog)
 302:C:/Users/²Ü¼ÒºÀ/.iotlink/sdk/IoT_LINK/iot_link/network/tcpip/esp8266\esp8266_tcpip.c **** {
  53              		.loc 1 302 1 is_stmt 1 view -0
  54              		.cfi_startproc
  55              		@ args = 0, pretend = 0, frame = 0
  56              		@ frame_needed = 0, uses_anonymous_args = 0
  57              		@ link register save eliminated.
 303:C:/Users/²Ü¼ÒºÀ/.iotlink/sdk/IoT_LINK/iot_link/network/tcpip/esp8266\esp8266_tcpip.c ****     //not implemented for client
 304:C:/Users/²Ü¼ÒºÀ/.iotlink/sdk/IoT_LINK/iot_link/network/tcpip/esp8266\esp8266_tcpip.c ****     return -1;
  58              		.loc 1 304 5 view .LVU5
 305:C:/Users/²Ü¼ÒºÀ/.iotlink/sdk/IoT_LINK/iot_link/network/tcpip/esp8266\esp8266_tcpip.c **** }
  59              		.loc 1 305 1 is_stmt 0 view .LVU6
  60 0000 4FF0FF30 		mov	r0, #-1
  61              	.LVL3:
  62              		.loc 1 305 1 view .LVU7
  63 0004 7047     		bx	lr
  64              		.cfi_endproc
  65              	.LFE12:
  67              		.section	.text.Esp8266SetSockOpt,"ax",%progbits
  68              		.align	1
  69              		.syntax unified
  70              		.thumb
  71              		.thumb_func
  72              		.fpu fpv4-sp-d16
  74              	Esp8266SetSockOpt:
  75              	.LVL4:
  76              	.LFB19:
 306:C:/Users/²Ü¼ÒºÀ/.iotlink/sdk/IoT_LINK/iot_link/network/tcpip/esp8266\esp8266_tcpip.c **** 
 307:C:/Users/²Ü¼ÒºÀ/.iotlink/sdk/IoT_LINK/iot_link/network/tcpip/esp8266\esp8266_tcpip.c **** static int Esp8266Accept(int fd, struct sockaddr *addr, int addrlen)
 308:C:/Users/²Ü¼ÒºÀ/.iotlink/sdk/IoT_LINK/iot_link/network/tcpip/esp8266\esp8266_tcpip.c **** {
 309:C:/Users/²Ü¼ÒºÀ/.iotlink/sdk/IoT_LINK/iot_link/network/tcpip/esp8266\esp8266_tcpip.c ****     //not implemented for client
 310:C:/Users/²Ü¼ÒºÀ/.iotlink/sdk/IoT_LINK/iot_link/network/tcpip/esp8266\esp8266_tcpip.c ****     return -1;
 311:C:/Users/²Ü¼ÒºÀ/.iotlink/sdk/IoT_LINK/iot_link/network/tcpip/esp8266\esp8266_tcpip.c **** }
 312:C:/Users/²Ü¼ÒºÀ/.iotlink/sdk/IoT_LINK/iot_link/network/tcpip/esp8266\esp8266_tcpip.c **** 
 313:C:/Users/²Ü¼ÒºÀ/.iotlink/sdk/IoT_LINK/iot_link/network/tcpip/esp8266\esp8266_tcpip.c **** static int Esp8266Connect(int fd, const struct sockaddr *addr, int addrlen)
 314:C:/Users/²Ü¼ÒºÀ/.iotlink/sdk/IoT_LINK/iot_link/network/tcpip/esp8266\esp8266_tcpip.c **** {
 315:C:/Users/²Ü¼ÒºÀ/.iotlink/sdk/IoT_LINK/iot_link/network/tcpip/esp8266\esp8266_tcpip.c ****     char cmd[CN_STACK_STRMAX];
 316:C:/Users/²Ü¼ÒºÀ/.iotlink/sdk/IoT_LINK/iot_link/network/tcpip/esp8266\esp8266_tcpip.c ****     int ret = -1;
 317:C:/Users/²Ü¼ÒºÀ/.iotlink/sdk/IoT_LINK/iot_link/network/tcpip/esp8266\esp8266_tcpip.c ****     char *ip;
 318:C:/Users/²Ü¼ÒºÀ/.iotlink/sdk/IoT_LINK/iot_link/network/tcpip/esp8266\esp8266_tcpip.c ****     Esp8266Sock_t *sock;
 319:C:/Users/²Ü¼ÒºÀ/.iotlink/sdk/IoT_LINK/iot_link/network/tcpip/esp8266\esp8266_tcpip.c ****     if((fd < 0) || (fd >= CN_ESP8266_SOCKMAX) || ((sock = Esp8266SockGet(fd))== NULL) || (addr == N
 320:C:/Users/²Ü¼ÒºÀ/.iotlink/sdk/IoT_LINK/iot_link/network/tcpip/esp8266\esp8266_tcpip.c ****     {
 321:C:/Users/²Ü¼ÒºÀ/.iotlink/sdk/IoT_LINK/iot_link/network/tcpip/esp8266\esp8266_tcpip.c ****         return ret;
 322:C:/Users/²Ü¼ÒºÀ/.iotlink/sdk/IoT_LINK/iot_link/network/tcpip/esp8266\esp8266_tcpip.c ****     }
 323:C:/Users/²Ü¼ÒºÀ/.iotlink/sdk/IoT_LINK/iot_link/network/tcpip/esp8266\esp8266_tcpip.c ****     const struct sockaddr_in *serv_addr = (const struct sockaddr_in *)addr;
 324:C:/Users/²Ü¼ÒºÀ/.iotlink/sdk/IoT_LINK/iot_link/network/tcpip/esp8266\esp8266_tcpip.c ****     uint16_t serverPort = ntohs(serv_addr->sin_port);
 325:C:/Users/²Ü¼ÒºÀ/.iotlink/sdk/IoT_LINK/iot_link/network/tcpip/esp8266\esp8266_tcpip.c ****     struct in_addr serverIp = serv_addr->sin_addr;
 326:C:/Users/²Ü¼ÒºÀ/.iotlink/sdk/IoT_LINK/iot_link/network/tcpip/esp8266\esp8266_tcpip.c ****     ip = inet_ntoa(serverIp);
 327:C:/Users/²Ü¼ÒºÀ/.iotlink/sdk/IoT_LINK/iot_link/network/tcpip/esp8266\esp8266_tcpip.c **** 
 328:C:/Users/²Ü¼ÒºÀ/.iotlink/sdk/IoT_LINK/iot_link/network/tcpip/esp8266\esp8266_tcpip.c ****     if(sock->type == SOCK_DGRAM){
ARM GAS  C:\Users\²Ü¼ÒºÀ\AppData\Local\Temp\cci6pW3E.s 			page 8


 329:C:/Users/²Ü¼ÒºÀ/.iotlink/sdk/IoT_LINK/iot_link/network/tcpip/esp8266\esp8266_tcpip.c ****         (void) snprintf(cmd,CN_STACK_STRMAX,"AT+CIPSTART=%d,\"UDP\",\"%s\",%d\r\n",fd,ip,serverPort
 330:C:/Users/²Ü¼ÒºÀ/.iotlink/sdk/IoT_LINK/iot_link/network/tcpip/esp8266\esp8266_tcpip.c ****     }
 331:C:/Users/²Ü¼ÒºÀ/.iotlink/sdk/IoT_LINK/iot_link/network/tcpip/esp8266\esp8266_tcpip.c ****     else if(sock->type == SOCK_STREAM){
 332:C:/Users/²Ü¼ÒºÀ/.iotlink/sdk/IoT_LINK/iot_link/network/tcpip/esp8266\esp8266_tcpip.c ****         (void) snprintf(cmd,CN_STACK_STRMAX,"AT+CIPSTART=%d,\"TCP\",\"%s\",%d\r\n",fd,ip,serverPort
 333:C:/Users/²Ü¼ÒºÀ/.iotlink/sdk/IoT_LINK/iot_link/network/tcpip/esp8266\esp8266_tcpip.c ****     }
 334:C:/Users/²Ü¼ÒºÀ/.iotlink/sdk/IoT_LINK/iot_link/network/tcpip/esp8266\esp8266_tcpip.c ****     else{
 335:C:/Users/²Ü¼ÒºÀ/.iotlink/sdk/IoT_LINK/iot_link/network/tcpip/esp8266\esp8266_tcpip.c ****         return ret;
 336:C:/Users/²Ü¼ÒºÀ/.iotlink/sdk/IoT_LINK/iot_link/network/tcpip/esp8266\esp8266_tcpip.c ****     }
 337:C:/Users/²Ü¼ÒºÀ/.iotlink/sdk/IoT_LINK/iot_link/network/tcpip/esp8266\esp8266_tcpip.c **** 
 338:C:/Users/²Ü¼ÒºÀ/.iotlink/sdk/IoT_LINK/iot_link/network/tcpip/esp8266\esp8266_tcpip.c ****     if(osal_mutex_lock(gEsp8266CB.atLock))
 339:C:/Users/²Ü¼ÒºÀ/.iotlink/sdk/IoT_LINK/iot_link/network/tcpip/esp8266\esp8266_tcpip.c ****     {
 340:C:/Users/²Ü¼ÒºÀ/.iotlink/sdk/IoT_LINK/iot_link/network/tcpip/esp8266\esp8266_tcpip.c ****         if(esp8266_atcmd(cmd,"OK")){
 341:C:/Users/²Ü¼ÒºÀ/.iotlink/sdk/IoT_LINK/iot_link/network/tcpip/esp8266\esp8266_tcpip.c ****             sock->isConnect = 1;
 342:C:/Users/²Ü¼ÒºÀ/.iotlink/sdk/IoT_LINK/iot_link/network/tcpip/esp8266\esp8266_tcpip.c ****             ret = 0;
 343:C:/Users/²Ü¼ÒºÀ/.iotlink/sdk/IoT_LINK/iot_link/network/tcpip/esp8266\esp8266_tcpip.c ****         }
 344:C:/Users/²Ü¼ÒºÀ/.iotlink/sdk/IoT_LINK/iot_link/network/tcpip/esp8266\esp8266_tcpip.c ****         osal_mutex_unlock(gEsp8266CB.atLock);
 345:C:/Users/²Ü¼ÒºÀ/.iotlink/sdk/IoT_LINK/iot_link/network/tcpip/esp8266\esp8266_tcpip.c ****     }
 346:C:/Users/²Ü¼ÒºÀ/.iotlink/sdk/IoT_LINK/iot_link/network/tcpip/esp8266\esp8266_tcpip.c ****     return ret;
 347:C:/Users/²Ü¼ÒºÀ/.iotlink/sdk/IoT_LINK/iot_link/network/tcpip/esp8266\esp8266_tcpip.c **** }
 348:C:/Users/²Ü¼ÒºÀ/.iotlink/sdk/IoT_LINK/iot_link/network/tcpip/esp8266\esp8266_tcpip.c **** 
 349:C:/Users/²Ü¼ÒºÀ/.iotlink/sdk/IoT_LINK/iot_link/network/tcpip/esp8266\esp8266_tcpip.c **** static int Esp8266Send(int fd, const void *buf, int len, int flags)
 350:C:/Users/²Ü¼ÒºÀ/.iotlink/sdk/IoT_LINK/iot_link/network/tcpip/esp8266\esp8266_tcpip.c **** {
 351:C:/Users/²Ü¼ÒºÀ/.iotlink/sdk/IoT_LINK/iot_link/network/tcpip/esp8266\esp8266_tcpip.c ****     int ret = -1;
 352:C:/Users/²Ü¼ÒºÀ/.iotlink/sdk/IoT_LINK/iot_link/network/tcpip/esp8266\esp8266_tcpip.c ****     char cmd[CN_STACK_STRMAX];
 353:C:/Users/²Ü¼ÒºÀ/.iotlink/sdk/IoT_LINK/iot_link/network/tcpip/esp8266\esp8266_tcpip.c ****     Esp8266Sock_t *sock;
 354:C:/Users/²Ü¼ÒºÀ/.iotlink/sdk/IoT_LINK/iot_link/network/tcpip/esp8266\esp8266_tcpip.c **** 
 355:C:/Users/²Ü¼ÒºÀ/.iotlink/sdk/IoT_LINK/iot_link/network/tcpip/esp8266\esp8266_tcpip.c ****     if((fd < 0) || (fd >= CN_ESP8266_SOCKMAX) || ((sock = Esp8266SockGet(fd))== NULL) || (buf == NU
 356:C:/Users/²Ü¼ÒºÀ/.iotlink/sdk/IoT_LINK/iot_link/network/tcpip/esp8266\esp8266_tcpip.c ****         return ret;
 357:C:/Users/²Ü¼ÒºÀ/.iotlink/sdk/IoT_LINK/iot_link/network/tcpip/esp8266\esp8266_tcpip.c ****     }
 358:C:/Users/²Ü¼ÒºÀ/.iotlink/sdk/IoT_LINK/iot_link/network/tcpip/esp8266\esp8266_tcpip.c ****     (void) memset(sock->oob_resp,0,CONFIG_ESP8266_RCVCACHE);
 359:C:/Users/²Ü¼ÒºÀ/.iotlink/sdk/IoT_LINK/iot_link/network/tcpip/esp8266\esp8266_tcpip.c **** 
 360:C:/Users/²Ü¼ÒºÀ/.iotlink/sdk/IoT_LINK/iot_link/network/tcpip/esp8266\esp8266_tcpip.c ****     if(osal_mutex_lock(gEsp8266CB.atLock))   ///< this two at command must be executed in sequence 
 361:C:/Users/²Ü¼ÒºÀ/.iotlink/sdk/IoT_LINK/iot_link/network/tcpip/esp8266\esp8266_tcpip.c ****     {
 362:C:/Users/²Ü¼ÒºÀ/.iotlink/sdk/IoT_LINK/iot_link/network/tcpip/esp8266\esp8266_tcpip.c ****         (void) snprintf(cmd,64,"AT+CIPSEND=%d,%d\r\n",fd,len);
 363:C:/Users/²Ü¼ÒºÀ/.iotlink/sdk/IoT_LINK/iot_link/network/tcpip/esp8266\esp8266_tcpip.c ****         gEsp8266CB.flagSendIndexGetByOOB = 0;
 364:C:/Users/²Ü¼ÒºÀ/.iotlink/sdk/IoT_LINK/iot_link/network/tcpip/esp8266\esp8266_tcpip.c ****         if(esp8266_atcmd(cmd,">") || gEsp8266CB.flagSendIndexGetByOOB){
 365:C:/Users/²Ü¼ÒºÀ/.iotlink/sdk/IoT_LINK/iot_link/network/tcpip/esp8266\esp8266_tcpip.c ****             gEsp8266CB.flagSendOKGetByOOB = 0;
 366:C:/Users/²Ü¼ÒºÀ/.iotlink/sdk/IoT_LINK/iot_link/network/tcpip/esp8266\esp8266_tcpip.c ****             ret = at_command((unsigned char *)buf,len,"SEND OK",(char *)sock->oob_resp,CONFIG_ESP82
 367:C:/Users/²Ü¼ÒºÀ/.iotlink/sdk/IoT_LINK/iot_link/network/tcpip/esp8266\esp8266_tcpip.c ****             if( ret > 0){
 368:C:/Users/²Ü¼ÒºÀ/.iotlink/sdk/IoT_LINK/iot_link/network/tcpip/esp8266\esp8266_tcpip.c ****                 char *str;
 369:C:/Users/²Ü¼ÒºÀ/.iotlink/sdk/IoT_LINK/iot_link/network/tcpip/esp8266\esp8266_tcpip.c ****                 str = strstr(sock->oob_resp,CN_ESP8266_RCVINDEX);  //in some cases, +IPD is not at 
 370:C:/Users/²Ü¼ÒºÀ/.iotlink/sdk/IoT_LINK/iot_link/network/tcpip/esp8266\esp8266_tcpip.c ****                 if(NULL != str){
 371:C:/Users/²Ü¼ÒºÀ/.iotlink/sdk/IoT_LINK/iot_link/network/tcpip/esp8266\esp8266_tcpip.c ****                     Esp8266MsgDeal(NULL,str,(char *)sock->oob_resp + ret - str);
 372:C:/Users/²Ü¼ÒºÀ/.iotlink/sdk/IoT_LINK/iot_link/network/tcpip/esp8266\esp8266_tcpip.c ****                 }
 373:C:/Users/²Ü¼ÒºÀ/.iotlink/sdk/IoT_LINK/iot_link/network/tcpip/esp8266\esp8266_tcpip.c ****                 ret = len;
 374:C:/Users/²Ü¼ÒºÀ/.iotlink/sdk/IoT_LINK/iot_link/network/tcpip/esp8266\esp8266_tcpip.c ****             }
 375:C:/Users/²Ü¼ÒºÀ/.iotlink/sdk/IoT_LINK/iot_link/network/tcpip/esp8266\esp8266_tcpip.c ****             else if(gEsp8266CB.flagSendOKGetByOOB){
 376:C:/Users/²Ü¼ÒºÀ/.iotlink/sdk/IoT_LINK/iot_link/network/tcpip/esp8266\esp8266_tcpip.c ****                 ret = len;
 377:C:/Users/²Ü¼ÒºÀ/.iotlink/sdk/IoT_LINK/iot_link/network/tcpip/esp8266\esp8266_tcpip.c ****             }
 378:C:/Users/²Ü¼ÒºÀ/.iotlink/sdk/IoT_LINK/iot_link/network/tcpip/esp8266\esp8266_tcpip.c **** 
 379:C:/Users/²Ü¼ÒºÀ/.iotlink/sdk/IoT_LINK/iot_link/network/tcpip/esp8266\esp8266_tcpip.c ****         }
 380:C:/Users/²Ü¼ÒºÀ/.iotlink/sdk/IoT_LINK/iot_link/network/tcpip/esp8266\esp8266_tcpip.c ****         osal_mutex_unlock(gEsp8266CB.atLock);
 381:C:/Users/²Ü¼ÒºÀ/.iotlink/sdk/IoT_LINK/iot_link/network/tcpip/esp8266\esp8266_tcpip.c ****     }
 382:C:/Users/²Ü¼ÒºÀ/.iotlink/sdk/IoT_LINK/iot_link/network/tcpip/esp8266\esp8266_tcpip.c ****     else{
 383:C:/Users/²Ü¼ÒºÀ/.iotlink/sdk/IoT_LINK/iot_link/network/tcpip/esp8266\esp8266_tcpip.c ****         LINK_LOG_ERROR("GET ATLOCK FAILED:fd:%d len:%d",fd,len);
 384:C:/Users/²Ü¼ÒºÀ/.iotlink/sdk/IoT_LINK/iot_link/network/tcpip/esp8266\esp8266_tcpip.c ****     }
 385:C:/Users/²Ü¼ÒºÀ/.iotlink/sdk/IoT_LINK/iot_link/network/tcpip/esp8266\esp8266_tcpip.c ****     if(ret <= 0){
ARM GAS  C:\Users\²Ü¼ÒºÀ\AppData\Local\Temp\cci6pW3E.s 			page 9


 386:C:/Users/²Ü¼ÒºÀ/.iotlink/sdk/IoT_LINK/iot_link/network/tcpip/esp8266\esp8266_tcpip.c ****         ret = 0;
 387:C:/Users/²Ü¼ÒºÀ/.iotlink/sdk/IoT_LINK/iot_link/network/tcpip/esp8266\esp8266_tcpip.c ****         sock->isConnect = 0; ///< i think some errors happened, maybe lost
 388:C:/Users/²Ü¼ÒºÀ/.iotlink/sdk/IoT_LINK/iot_link/network/tcpip/esp8266\esp8266_tcpip.c ****         LINK_LOG_ERROR("SEND FD:%d Len:%d Failed  and set it to disconnect",fd,len);
 389:C:/Users/²Ü¼ÒºÀ/.iotlink/sdk/IoT_LINK/iot_link/network/tcpip/esp8266\esp8266_tcpip.c ****     }
 390:C:/Users/²Ü¼ÒºÀ/.iotlink/sdk/IoT_LINK/iot_link/network/tcpip/esp8266\esp8266_tcpip.c ****     return ret;
 391:C:/Users/²Ü¼ÒºÀ/.iotlink/sdk/IoT_LINK/iot_link/network/tcpip/esp8266\esp8266_tcpip.c **** }
 392:C:/Users/²Ü¼ÒºÀ/.iotlink/sdk/IoT_LINK/iot_link/network/tcpip/esp8266\esp8266_tcpip.c **** 
 393:C:/Users/²Ü¼ÒºÀ/.iotlink/sdk/IoT_LINK/iot_link/network/tcpip/esp8266\esp8266_tcpip.c **** 
 394:C:/Users/²Ü¼ÒºÀ/.iotlink/sdk/IoT_LINK/iot_link/network/tcpip/esp8266\esp8266_tcpip.c **** static int Esp8266Sendto(int fd, const void *msg, int len, int flags, struct sockaddr *addr, int ad
 395:C:/Users/²Ü¼ÒºÀ/.iotlink/sdk/IoT_LINK/iot_link/network/tcpip/esp8266\esp8266_tcpip.c **** {
 396:C:/Users/²Ü¼ÒºÀ/.iotlink/sdk/IoT_LINK/iot_link/network/tcpip/esp8266\esp8266_tcpip.c ****     int ret = -1;
 397:C:/Users/²Ü¼ÒºÀ/.iotlink/sdk/IoT_LINK/iot_link/network/tcpip/esp8266\esp8266_tcpip.c ****     Esp8266Sock_t *sock;
 398:C:/Users/²Ü¼ÒºÀ/.iotlink/sdk/IoT_LINK/iot_link/network/tcpip/esp8266\esp8266_tcpip.c ****     if((fd < 0) || (fd >= CN_ESP8266_SOCKMAX) || ((sock = Esp8266SockGet(fd))== NULL) || (msg == NU
 399:C:/Users/²Ü¼ÒºÀ/.iotlink/sdk/IoT_LINK/iot_link/network/tcpip/esp8266\esp8266_tcpip.c ****         return ret;
 400:C:/Users/²Ü¼ÒºÀ/.iotlink/sdk/IoT_LINK/iot_link/network/tcpip/esp8266\esp8266_tcpip.c ****     }
 401:C:/Users/²Ü¼ÒºÀ/.iotlink/sdk/IoT_LINK/iot_link/network/tcpip/esp8266\esp8266_tcpip.c **** 
 402:C:/Users/²Ü¼ÒºÀ/.iotlink/sdk/IoT_LINK/iot_link/network/tcpip/esp8266\esp8266_tcpip.c ****     if (!sock->isConnect)
 403:C:/Users/²Ü¼ÒºÀ/.iotlink/sdk/IoT_LINK/iot_link/network/tcpip/esp8266\esp8266_tcpip.c ****     {
 404:C:/Users/²Ü¼ÒºÀ/.iotlink/sdk/IoT_LINK/iot_link/network/tcpip/esp8266\esp8266_tcpip.c ****         Esp8266Connect(fd,addr,addrlen);
 405:C:/Users/²Ü¼ÒºÀ/.iotlink/sdk/IoT_LINK/iot_link/network/tcpip/esp8266\esp8266_tcpip.c ****     }
 406:C:/Users/²Ü¼ÒºÀ/.iotlink/sdk/IoT_LINK/iot_link/network/tcpip/esp8266\esp8266_tcpip.c ****     return Esp8266Send(fd,msg,len,flags);
 407:C:/Users/²Ü¼ÒºÀ/.iotlink/sdk/IoT_LINK/iot_link/network/tcpip/esp8266\esp8266_tcpip.c **** }
 408:C:/Users/²Ü¼ÒºÀ/.iotlink/sdk/IoT_LINK/iot_link/network/tcpip/esp8266\esp8266_tcpip.c **** 
 409:C:/Users/²Ü¼ÒºÀ/.iotlink/sdk/IoT_LINK/iot_link/network/tcpip/esp8266\esp8266_tcpip.c **** static int Esp8266Recv(int fd,void *buf,size_t len,int flags)
 410:C:/Users/²Ü¼ÒºÀ/.iotlink/sdk/IoT_LINK/iot_link/network/tcpip/esp8266\esp8266_tcpip.c **** {
 411:C:/Users/²Ü¼ÒºÀ/.iotlink/sdk/IoT_LINK/iot_link/network/tcpip/esp8266\esp8266_tcpip.c ****     int ret = -1;
 412:C:/Users/²Ü¼ÒºÀ/.iotlink/sdk/IoT_LINK/iot_link/network/tcpip/esp8266\esp8266_tcpip.c ****     unsigned int timeout = 0;
 413:C:/Users/²Ü¼ÒºÀ/.iotlink/sdk/IoT_LINK/iot_link/network/tcpip/esp8266\esp8266_tcpip.c ****     Esp8266Sock_t *sock;
 414:C:/Users/²Ü¼ÒºÀ/.iotlink/sdk/IoT_LINK/iot_link/network/tcpip/esp8266\esp8266_tcpip.c ****     if((fd < 0) || (fd >= CN_ESP8266_SOCKMAX) || ((sock = Esp8266SockGet(fd))== NULL) || (buf == NU
 415:C:/Users/²Ü¼ÒºÀ/.iotlink/sdk/IoT_LINK/iot_link/network/tcpip/esp8266\esp8266_tcpip.c ****         return ret;
 416:C:/Users/²Ü¼ÒºÀ/.iotlink/sdk/IoT_LINK/iot_link/network/tcpip/esp8266\esp8266_tcpip.c ****     }
 417:C:/Users/²Ü¼ÒºÀ/.iotlink/sdk/IoT_LINK/iot_link/network/tcpip/esp8266\esp8266_tcpip.c **** 
 418:C:/Users/²Ü¼ÒºÀ/.iotlink/sdk/IoT_LINK/iot_link/network/tcpip/esp8266\esp8266_tcpip.c ****     timeout = sock->timeout;
 419:C:/Users/²Ü¼ÒºÀ/.iotlink/sdk/IoT_LINK/iot_link/network/tcpip/esp8266\esp8266_tcpip.c ****     do{
 420:C:/Users/²Ü¼ÒºÀ/.iotlink/sdk/IoT_LINK/iot_link/network/tcpip/esp8266\esp8266_tcpip.c ****         if(osal_mutex_lock(gEsp8266CB.ioLock))
 421:C:/Users/²Ü¼ÒºÀ/.iotlink/sdk/IoT_LINK/iot_link/network/tcpip/esp8266\esp8266_tcpip.c ****         {
 422:C:/Users/²Ü¼ÒºÀ/.iotlink/sdk/IoT_LINK/iot_link/network/tcpip/esp8266\esp8266_tcpip.c ****             if(ring_buffer_datalen(&sock->rcvRing) > 0){
 423:C:/Users/²Ü¼ÒºÀ/.iotlink/sdk/IoT_LINK/iot_link/network/tcpip/esp8266\esp8266_tcpip.c ****                 if(sock->type == SOCK_DGRAM){
 424:C:/Users/²Ü¼ÒºÀ/.iotlink/sdk/IoT_LINK/iot_link/network/tcpip/esp8266\esp8266_tcpip.c ****                     unsigned short framelen = 0;
 425:C:/Users/²Ü¼ÒºÀ/.iotlink/sdk/IoT_LINK/iot_link/network/tcpip/esp8266\esp8266_tcpip.c ****                     ret = ring_buffer_read(&sock->rcvRing,(unsigned char *)&framelen,sizeof(framele
 426:C:/Users/²Ü¼ÒºÀ/.iotlink/sdk/IoT_LINK/iot_link/network/tcpip/esp8266\esp8266_tcpip.c ****                     ret = ring_buffer_read(&sock->rcvRing,(unsigned char *)buf,framelen);
 427:C:/Users/²Ü¼ÒºÀ/.iotlink/sdk/IoT_LINK/iot_link/network/tcpip/esp8266\esp8266_tcpip.c ****                 }
 428:C:/Users/²Ü¼ÒºÀ/.iotlink/sdk/IoT_LINK/iot_link/network/tcpip/esp8266\esp8266_tcpip.c ****                 else if (sock->type == SOCK_STREAM){
 429:C:/Users/²Ü¼ÒºÀ/.iotlink/sdk/IoT_LINK/iot_link/network/tcpip/esp8266\esp8266_tcpip.c ****                     ret = ring_buffer_read(&sock->rcvRing,(unsigned char *)buf,len);
 430:C:/Users/²Ü¼ÒºÀ/.iotlink/sdk/IoT_LINK/iot_link/network/tcpip/esp8266\esp8266_tcpip.c ****                 }
 431:C:/Users/²Ü¼ÒºÀ/.iotlink/sdk/IoT_LINK/iot_link/network/tcpip/esp8266\esp8266_tcpip.c ****                 else{
 432:C:/Users/²Ü¼ÒºÀ/.iotlink/sdk/IoT_LINK/iot_link/network/tcpip/esp8266\esp8266_tcpip.c ****                 }
 433:C:/Users/²Ü¼ÒºÀ/.iotlink/sdk/IoT_LINK/iot_link/network/tcpip/esp8266\esp8266_tcpip.c ****             }
 434:C:/Users/²Ü¼ÒºÀ/.iotlink/sdk/IoT_LINK/iot_link/network/tcpip/esp8266\esp8266_tcpip.c ****             osal_mutex_unlock(gEsp8266CB.ioLock);
 435:C:/Users/²Ü¼ÒºÀ/.iotlink/sdk/IoT_LINK/iot_link/network/tcpip/esp8266\esp8266_tcpip.c ****         }
 436:C:/Users/²Ü¼ÒºÀ/.iotlink/sdk/IoT_LINK/iot_link/network/tcpip/esp8266\esp8266_tcpip.c ****         if(ret > 0){
 437:C:/Users/²Ü¼ÒºÀ/.iotlink/sdk/IoT_LINK/iot_link/network/tcpip/esp8266\esp8266_tcpip.c ****             break;
 438:C:/Users/²Ü¼ÒºÀ/.iotlink/sdk/IoT_LINK/iot_link/network/tcpip/esp8266\esp8266_tcpip.c ****         }
 439:C:/Users/²Ü¼ÒºÀ/.iotlink/sdk/IoT_LINK/iot_link/network/tcpip/esp8266\esp8266_tcpip.c ****         else if(sock->isConnect == 0){
 440:C:/Users/²Ü¼ÒºÀ/.iotlink/sdk/IoT_LINK/iot_link/network/tcpip/esp8266\esp8266_tcpip.c ****             ret = 0;
 441:C:/Users/²Ü¼ÒºÀ/.iotlink/sdk/IoT_LINK/iot_link/network/tcpip/esp8266\esp8266_tcpip.c ****             break;
 442:C:/Users/²Ü¼ÒºÀ/.iotlink/sdk/IoT_LINK/iot_link/network/tcpip/esp8266\esp8266_tcpip.c ****         }
ARM GAS  C:\Users\²Ü¼ÒºÀ\AppData\Local\Temp\cci6pW3E.s 			page 10


 443:C:/Users/²Ü¼ÒºÀ/.iotlink/sdk/IoT_LINK/iot_link/network/tcpip/esp8266\esp8266_tcpip.c ****         else{
 444:C:/Users/²Ü¼ÒºÀ/.iotlink/sdk/IoT_LINK/iot_link/network/tcpip/esp8266\esp8266_tcpip.c ****             osal_task_sleep(1);
 445:C:/Users/²Ü¼ÒºÀ/.iotlink/sdk/IoT_LINK/iot_link/network/tcpip/esp8266\esp8266_tcpip.c ****         }
 446:C:/Users/²Ü¼ÒºÀ/.iotlink/sdk/IoT_LINK/iot_link/network/tcpip/esp8266\esp8266_tcpip.c ****     }while((timeout--)> 0);
 447:C:/Users/²Ü¼ÒºÀ/.iotlink/sdk/IoT_LINK/iot_link/network/tcpip/esp8266\esp8266_tcpip.c ****     return ret;
 448:C:/Users/²Ü¼ÒºÀ/.iotlink/sdk/IoT_LINK/iot_link/network/tcpip/esp8266\esp8266_tcpip.c **** }
 449:C:/Users/²Ü¼ÒºÀ/.iotlink/sdk/IoT_LINK/iot_link/network/tcpip/esp8266\esp8266_tcpip.c **** 
 450:C:/Users/²Ü¼ÒºÀ/.iotlink/sdk/IoT_LINK/iot_link/network/tcpip/esp8266\esp8266_tcpip.c **** static int Esp8266RecvFrom(int fd, void *msg, int len, int flags, struct sockaddr *addr, socklen_t 
 451:C:/Users/²Ü¼ÒºÀ/.iotlink/sdk/IoT_LINK/iot_link/network/tcpip/esp8266\esp8266_tcpip.c **** {
 452:C:/Users/²Ü¼ÒºÀ/.iotlink/sdk/IoT_LINK/iot_link/network/tcpip/esp8266\esp8266_tcpip.c ****     return Esp8266Recv(fd,msg,len,flags);
 453:C:/Users/²Ü¼ÒºÀ/.iotlink/sdk/IoT_LINK/iot_link/network/tcpip/esp8266\esp8266_tcpip.c **** }
 454:C:/Users/²Ü¼ÒºÀ/.iotlink/sdk/IoT_LINK/iot_link/network/tcpip/esp8266\esp8266_tcpip.c **** 
 455:C:/Users/²Ü¼ÒºÀ/.iotlink/sdk/IoT_LINK/iot_link/network/tcpip/esp8266\esp8266_tcpip.c **** 
 456:C:/Users/²Ü¼ÒºÀ/.iotlink/sdk/IoT_LINK/iot_link/network/tcpip/esp8266\esp8266_tcpip.c **** static int Esp8266SetSockOpt(int fd, int level, int option, const void *option_value, int option_le
 457:C:/Users/²Ü¼ÒºÀ/.iotlink/sdk/IoT_LINK/iot_link/network/tcpip/esp8266\esp8266_tcpip.c **** {
  77              		.loc 1 457 1 is_stmt 1 view -0
  78              		.cfi_startproc
  79              		@ args = 4, pretend = 0, frame = 0
  80              		@ frame_needed = 0, uses_anonymous_args = 0
  81              		@ link register save eliminated.
 458:C:/Users/²Ü¼ÒºÀ/.iotlink/sdk/IoT_LINK/iot_link/network/tcpip/esp8266\esp8266_tcpip.c ****     int ret = -1;
  82              		.loc 1 458 5 view .LVU9
 459:C:/Users/²Ü¼ÒºÀ/.iotlink/sdk/IoT_LINK/iot_link/network/tcpip/esp8266\esp8266_tcpip.c ****     Esp8266Sock_t *sock;
  83              		.loc 1 459 5 view .LVU10
 460:C:/Users/²Ü¼ÒºÀ/.iotlink/sdk/IoT_LINK/iot_link/network/tcpip/esp8266\esp8266_tcpip.c ****     if((fd < 0) || (fd >= CN_ESP8266_SOCKMAX) || ((sock = Esp8266SockGet(fd))== NULL)){
  84              		.loc 1 460 5 view .LVU11
  85              		.loc 1 460 7 is_stmt 0 view .LVU12
  86 0000 0428     		cmp	r0, #4
  87 0002 0FD8     		bhi	.L6
  88              	.LVL5:
  89              	.LBB18:
  90              	.LBI18:
 138:C:/Users/²Ü¼ÒºÀ/.iotlink/sdk/IoT_LINK/iot_link/network/tcpip/esp8266\esp8266_tcpip.c **** {
  91              		.loc 1 138 23 is_stmt 1 view .LVU13
  92              	.LBB19:
 140:C:/Users/²Ü¼ÒºÀ/.iotlink/sdk/IoT_LINK/iot_link/network/tcpip/esp8266\esp8266_tcpip.c **** }
  93              		.loc 1 140 5 view .LVU14
 140:C:/Users/²Ü¼ÒºÀ/.iotlink/sdk/IoT_LINK/iot_link/network/tcpip/esp8266\esp8266_tcpip.c **** }
  94              		.loc 1 140 32 is_stmt 0 view .LVU15
  95 0004 094A     		ldr	r2, .L7
  96              	.LVL6:
 140:C:/Users/²Ü¼ÒºÀ/.iotlink/sdk/IoT_LINK/iot_link/network/tcpip/esp8266\esp8266_tcpip.c **** }
  97              		.loc 1 140 32 view .LVU16
  98 0006 02EB8000 		add	r0, r2, r0, lsl #2
  99              	.LVL7:
 140:C:/Users/²Ü¼ÒºÀ/.iotlink/sdk/IoT_LINK/iot_link/network/tcpip/esp8266\esp8266_tcpip.c **** }
 100              		.loc 1 140 32 view .LVU17
 101 000a C168     		ldr	r1, [r0, #12]
 102              	.LVL8:
 140:C:/Users/²Ü¼ÒºÀ/.iotlink/sdk/IoT_LINK/iot_link/network/tcpip/esp8266\esp8266_tcpip.c **** }
 103              		.loc 1 140 32 view .LVU18
 104              	.LBE19:
 105              	.LBE18:
 106              		.loc 1 460 47 view .LVU19
 107 000c 51B1     		cbz	r1, .L6
 461:C:/Users/²Ü¼ÒºÀ/.iotlink/sdk/IoT_LINK/iot_link/network/tcpip/esp8266\esp8266_tcpip.c ****         return ret;
 462:C:/Users/²Ü¼ÒºÀ/.iotlink/sdk/IoT_LINK/iot_link/network/tcpip/esp8266\esp8266_tcpip.c ****     }
ARM GAS  C:\Users\²Ü¼ÒºÀ\AppData\Local\Temp\cci6pW3E.s 			page 11


 463:C:/Users/²Ü¼ÒºÀ/.iotlink/sdk/IoT_LINK/iot_link/network/tcpip/esp8266\esp8266_tcpip.c **** 
 464:C:/Users/²Ü¼ÒºÀ/.iotlink/sdk/IoT_LINK/iot_link/network/tcpip/esp8266\esp8266_tcpip.c ****     struct timeval *timedelay = (struct timeval *)option_value;
 108              		.loc 1 464 5 is_stmt 1 view .LVU20
 109              	.LVL9:
 465:C:/Users/²Ü¼ÒºÀ/.iotlink/sdk/IoT_LINK/iot_link/network/tcpip/esp8266\esp8266_tcpip.c ****     sock->timeout = (timedelay->tv_sec * 1000) + (timedelay->tv_usec / 1000);
 110              		.loc 1 465 5 view .LVU21
 111              		.loc 1 465 48 is_stmt 0 view .LVU22
 112 000e 1A68     		ldr	r2, [r3]
 113              		.loc 1 465 70 view .LVU23
 114 0010 9B68     		ldr	r3, [r3, #8]
 115              	.LVL10:
 116              		.loc 1 465 48 view .LVU24
 117 0012 4FF47A70 		mov	r0, #1000
 118              		.loc 1 465 70 view .LVU25
 119 0016 93FBF0F3 		sdiv	r3, r3, r0
 120              		.loc 1 465 48 view .LVU26
 121 001a 00FB0233 		mla	r3, r0, r2, r3
 122              		.loc 1 465 19 view .LVU27
 123 001e 4B61     		str	r3, [r1, #20]
 466:C:/Users/²Ü¼ÒºÀ/.iotlink/sdk/IoT_LINK/iot_link/network/tcpip/esp8266\esp8266_tcpip.c ****     return 0;
 124              		.loc 1 466 5 is_stmt 1 view .LVU28
 125              		.loc 1 466 12 is_stmt 0 view .LVU29
 126 0020 0020     		movs	r0, #0
 127 0022 7047     		bx	lr
 128              	.LVL11:
 129              	.L6:
 461:C:/Users/²Ü¼ÒºÀ/.iotlink/sdk/IoT_LINK/iot_link/network/tcpip/esp8266\esp8266_tcpip.c ****         return ret;
 130              		.loc 1 461 16 view .LVU30
 131 0024 4FF0FF30 		mov	r0, #-1
 467:C:/Users/²Ü¼ÒºÀ/.iotlink/sdk/IoT_LINK/iot_link/network/tcpip/esp8266\esp8266_tcpip.c **** }
 132              		.loc 1 467 1 view .LVU31
 133 0028 7047     		bx	lr
 134              	.L8:
 135 002a 00BF     		.align	2
 136              	.L7:
 137 002c 00000000 		.word	.LANCHOR0
 138              		.cfi_endproc
 139              	.LFE19:
 141              		.section	.text.Esp8266GetSockOpt,"ax",%progbits
 142              		.align	1
 143              		.syntax unified
 144              		.thumb
 145              		.thumb_func
 146              		.fpu fpv4-sp-d16
 148              	Esp8266GetSockOpt:
 149              	.LVL12:
 150              	.LFB20:
 468:C:/Users/²Ü¼ÒºÀ/.iotlink/sdk/IoT_LINK/iot_link/network/tcpip/esp8266\esp8266_tcpip.c **** 
 469:C:/Users/²Ü¼ÒºÀ/.iotlink/sdk/IoT_LINK/iot_link/network/tcpip/esp8266\esp8266_tcpip.c **** static int Esp8266GetSockOpt(int fd, int level, int optname, const void *optval, int optlen)
 470:C:/Users/²Ü¼ÒºÀ/.iotlink/sdk/IoT_LINK/iot_link/network/tcpip/esp8266\esp8266_tcpip.c **** {
 151              		.loc 1 470 1 is_stmt 1 view -0
 152              		.cfi_startproc
 153              		@ args = 4, pretend = 0, frame = 0
 154              		@ frame_needed = 0, uses_anonymous_args = 0
 155              		@ link register save eliminated.
 471:C:/Users/²Ü¼ÒºÀ/.iotlink/sdk/IoT_LINK/iot_link/network/tcpip/esp8266\esp8266_tcpip.c ****     //not implemented
 472:C:/Users/²Ü¼ÒºÀ/.iotlink/sdk/IoT_LINK/iot_link/network/tcpip/esp8266\esp8266_tcpip.c ****     return -1;
ARM GAS  C:\Users\²Ü¼ÒºÀ\AppData\Local\Temp\cci6pW3E.s 			page 12


 156              		.loc 1 472 5 view .LVU33
 473:C:/Users/²Ü¼ÒºÀ/.iotlink/sdk/IoT_LINK/iot_link/network/tcpip/esp8266\esp8266_tcpip.c **** }
 157              		.loc 1 473 1 is_stmt 0 view .LVU34
 158 0000 4FF0FF30 		mov	r0, #-1
 159              	.LVL13:
 160              		.loc 1 473 1 view .LVU35
 161 0004 7047     		bx	lr
 162              		.cfi_endproc
 163              	.LFE20:
 165              		.section	.text.Esp8266GetSockName,"ax",%progbits
 166              		.align	1
 167              		.syntax unified
 168              		.thumb
 169              		.thumb_func
 170              		.fpu fpv4-sp-d16
 172              	Esp8266GetSockName:
 173              	.LVL14:
 174              	.LFB23:
 474:C:/Users/²Ü¼ÒºÀ/.iotlink/sdk/IoT_LINK/iot_link/network/tcpip/esp8266\esp8266_tcpip.c **** 
 475:C:/Users/²Ü¼ÒºÀ/.iotlink/sdk/IoT_LINK/iot_link/network/tcpip/esp8266\esp8266_tcpip.c **** static int Esp8266Close(int fd)
 476:C:/Users/²Ü¼ÒºÀ/.iotlink/sdk/IoT_LINK/iot_link/network/tcpip/esp8266\esp8266_tcpip.c **** {
 477:C:/Users/²Ü¼ÒºÀ/.iotlink/sdk/IoT_LINK/iot_link/network/tcpip/esp8266\esp8266_tcpip.c ****     char cmd[CN_STACK_STRMAX];
 478:C:/Users/²Ü¼ÒºÀ/.iotlink/sdk/IoT_LINK/iot_link/network/tcpip/esp8266\esp8266_tcpip.c ****     int ret = -1;
 479:C:/Users/²Ü¼ÒºÀ/.iotlink/sdk/IoT_LINK/iot_link/network/tcpip/esp8266\esp8266_tcpip.c ****     Esp8266Sock_t *sock;
 480:C:/Users/²Ü¼ÒºÀ/.iotlink/sdk/IoT_LINK/iot_link/network/tcpip/esp8266\esp8266_tcpip.c ****     if((fd < 0) || (fd >= CN_ESP8266_SOCKMAX) || ((sock = Esp8266SockGet(fd))== NULL)){
 481:C:/Users/²Ü¼ÒºÀ/.iotlink/sdk/IoT_LINK/iot_link/network/tcpip/esp8266\esp8266_tcpip.c ****         return ret;
 482:C:/Users/²Ü¼ÒºÀ/.iotlink/sdk/IoT_LINK/iot_link/network/tcpip/esp8266\esp8266_tcpip.c ****     }
 483:C:/Users/²Ü¼ÒºÀ/.iotlink/sdk/IoT_LINK/iot_link/network/tcpip/esp8266\esp8266_tcpip.c **** 
 484:C:/Users/²Ü¼ÒºÀ/.iotlink/sdk/IoT_LINK/iot_link/network/tcpip/esp8266\esp8266_tcpip.c ****     (void) snprintf(cmd,64,"AT+CIPCLOSE=%d\r\n",fd);
 485:C:/Users/²Ü¼ÒºÀ/.iotlink/sdk/IoT_LINK/iot_link/network/tcpip/esp8266\esp8266_tcpip.c **** 
 486:C:/Users/²Ü¼ÒºÀ/.iotlink/sdk/IoT_LINK/iot_link/network/tcpip/esp8266\esp8266_tcpip.c ****     if(osal_mutex_lock(gEsp8266CB.atLock))
 487:C:/Users/²Ü¼ÒºÀ/.iotlink/sdk/IoT_LINK/iot_link/network/tcpip/esp8266\esp8266_tcpip.c ****     {
 488:C:/Users/²Ü¼ÒºÀ/.iotlink/sdk/IoT_LINK/iot_link/network/tcpip/esp8266\esp8266_tcpip.c ****         if(esp8266_atcmd(cmd,"OK"))
 489:C:/Users/²Ü¼ÒºÀ/.iotlink/sdk/IoT_LINK/iot_link/network/tcpip/esp8266\esp8266_tcpip.c ****         {
 490:C:/Users/²Ü¼ÒºÀ/.iotlink/sdk/IoT_LINK/iot_link/network/tcpip/esp8266\esp8266_tcpip.c ****             LINK_LOG_ERROR("ATCLOSE:%d FAILED",fd);
 491:C:/Users/²Ü¼ÒºÀ/.iotlink/sdk/IoT_LINK/iot_link/network/tcpip/esp8266\esp8266_tcpip.c ****         }
 492:C:/Users/²Ü¼ÒºÀ/.iotlink/sdk/IoT_LINK/iot_link/network/tcpip/esp8266\esp8266_tcpip.c ****         osal_mutex_unlock(gEsp8266CB.atLock);
 493:C:/Users/²Ü¼ÒºÀ/.iotlink/sdk/IoT_LINK/iot_link/network/tcpip/esp8266\esp8266_tcpip.c ****     }
 494:C:/Users/²Ü¼ÒºÀ/.iotlink/sdk/IoT_LINK/iot_link/network/tcpip/esp8266\esp8266_tcpip.c ****     Esp8266SockFree(fd);
 495:C:/Users/²Ü¼ÒºÀ/.iotlink/sdk/IoT_LINK/iot_link/network/tcpip/esp8266\esp8266_tcpip.c ****     osal_free(sock);
 496:C:/Users/²Ü¼ÒºÀ/.iotlink/sdk/IoT_LINK/iot_link/network/tcpip/esp8266\esp8266_tcpip.c ****     ret = 0;
 497:C:/Users/²Ü¼ÒºÀ/.iotlink/sdk/IoT_LINK/iot_link/network/tcpip/esp8266\esp8266_tcpip.c ****     return ret;
 498:C:/Users/²Ü¼ÒºÀ/.iotlink/sdk/IoT_LINK/iot_link/network/tcpip/esp8266\esp8266_tcpip.c **** }
 499:C:/Users/²Ü¼ÒºÀ/.iotlink/sdk/IoT_LINK/iot_link/network/tcpip/esp8266\esp8266_tcpip.c **** 
 500:C:/Users/²Ü¼ÒºÀ/.iotlink/sdk/IoT_LINK/iot_link/network/tcpip/esp8266\esp8266_tcpip.c **** static int Esp8266Shutdown(int fd, int how)
 501:C:/Users/²Ü¼ÒºÀ/.iotlink/sdk/IoT_LINK/iot_link/network/tcpip/esp8266\esp8266_tcpip.c **** {
 502:C:/Users/²Ü¼ÒºÀ/.iotlink/sdk/IoT_LINK/iot_link/network/tcpip/esp8266\esp8266_tcpip.c ****     return -1;///< not implement
 503:C:/Users/²Ü¼ÒºÀ/.iotlink/sdk/IoT_LINK/iot_link/network/tcpip/esp8266\esp8266_tcpip.c **** }
 504:C:/Users/²Ü¼ÒºÀ/.iotlink/sdk/IoT_LINK/iot_link/network/tcpip/esp8266\esp8266_tcpip.c **** 
 505:C:/Users/²Ü¼ÒºÀ/.iotlink/sdk/IoT_LINK/iot_link/network/tcpip/esp8266\esp8266_tcpip.c **** static int Esp8266GetSockName(int fd, struct sockaddr *addr,socklen_t *addrlen)
 506:C:/Users/²Ü¼ÒºÀ/.iotlink/sdk/IoT_LINK/iot_link/network/tcpip/esp8266\esp8266_tcpip.c **** {
 175              		.loc 1 506 1 is_stmt 1 view -0
 176              		.cfi_startproc
 177              		@ args = 0, pretend = 0, frame = 0
 178              		@ frame_needed = 0, uses_anonymous_args = 0
 179              		@ link register save eliminated.
 507:C:/Users/²Ü¼ÒºÀ/.iotlink/sdk/IoT_LINK/iot_link/network/tcpip/esp8266\esp8266_tcpip.c ****     //not implemented
ARM GAS  C:\Users\²Ü¼ÒºÀ\AppData\Local\Temp\cci6pW3E.s 			page 13


 508:C:/Users/²Ü¼ÒºÀ/.iotlink/sdk/IoT_LINK/iot_link/network/tcpip/esp8266\esp8266_tcpip.c ****     return 0;
 180              		.loc 1 508 5 view .LVU37
 509:C:/Users/²Ü¼ÒºÀ/.iotlink/sdk/IoT_LINK/iot_link/network/tcpip/esp8266\esp8266_tcpip.c **** }
 181              		.loc 1 509 1 is_stmt 0 view .LVU38
 182 0000 0020     		movs	r0, #0
 183              	.LVL15:
 184              		.loc 1 509 1 view .LVU39
 185 0002 7047     		bx	lr
 186              		.cfi_endproc
 187              	.LFE23:
 189              		.section	.text.esp8266_atcmd,"ax",%progbits
 190              		.align	1
 191              		.syntax unified
 192              		.thumb
 193              		.thumb_func
 194              		.fpu fpv4-sp-d16
 196              	esp8266_atcmd:
 197              	.LVL16:
 198              	.LFB6:
 146:C:/Users/²Ü¼ÒºÀ/.iotlink/sdk/IoT_LINK/iot_link/network/tcpip/esp8266\esp8266_tcpip.c ****     int ret = 0;
 199              		.loc 1 146 1 is_stmt 1 view -0
 200              		.cfi_startproc
 201              		@ args = 0, pretend = 0, frame = 8
 202              		@ frame_needed = 0, uses_anonymous_args = 0
 147:C:/Users/²Ü¼ÒºÀ/.iotlink/sdk/IoT_LINK/iot_link/network/tcpip/esp8266\esp8266_tcpip.c ****     ret = at_command((unsigned char *)cmd,strlen(cmd),index,NULL,0,CONFIG_ESP8266_CMDTIMEOUT);
 203              		.loc 1 147 5 view .LVU41
 148:C:/Users/²Ü¼ÒºÀ/.iotlink/sdk/IoT_LINK/iot_link/network/tcpip/esp8266\esp8266_tcpip.c ****     if(ret >= 0){
 204              		.loc 1 148 5 view .LVU42
 146:C:/Users/²Ü¼ÒºÀ/.iotlink/sdk/IoT_LINK/iot_link/network/tcpip/esp8266\esp8266_tcpip.c ****     int ret = 0;
 205              		.loc 1 146 1 is_stmt 0 view .LVU43
 206 0000 1FB5     		push	{r0, r1, r2, r3, r4, lr}
 207              	.LCFI0:
 208              		.cfi_def_cfa_offset 24
 209              		.cfi_offset 4, -8
 210              		.cfi_offset 14, -4
 146:C:/Users/²Ü¼ÒºÀ/.iotlink/sdk/IoT_LINK/iot_link/network/tcpip/esp8266\esp8266_tcpip.c ****     int ret = 0;
 211              		.loc 1 146 1 view .LVU44
 212 0002 0446     		mov	r4, r0
 213 0004 0391     		str	r1, [sp, #12]
 148:C:/Users/²Ü¼ÒºÀ/.iotlink/sdk/IoT_LINK/iot_link/network/tcpip/esp8266\esp8266_tcpip.c ****     if(ret >= 0){
 214              		.loc 1 148 11 view .LVU45
 215 0006 FFF7FEFF 		bl	strlen
 216              	.LVL17:
 148:C:/Users/²Ü¼ÒºÀ/.iotlink/sdk/IoT_LINK/iot_link/network/tcpip/esp8266\esp8266_tcpip.c ****     if(ret >= 0){
 217              		.loc 1 148 11 view .LVU46
 218 000a 0023     		movs	r3, #0
 219 000c 4FF4FA62 		mov	r2, #2000
 220 0010 CDE90032 		strd	r3, r2, [sp]
 221 0014 0146     		mov	r1, r0
 222 0016 039A     		ldr	r2, [sp, #12]
 223 0018 2046     		mov	r0, r4
 224 001a FFF7FEFF 		bl	at_command
 225              	.LVL18:
 149:C:/Users/²Ü¼ÒºÀ/.iotlink/sdk/IoT_LINK/iot_link/network/tcpip/esp8266\esp8266_tcpip.c ****         return true;
 226              		.loc 1 149 5 is_stmt 1 view .LVU47
 155:C:/Users/²Ü¼ÒºÀ/.iotlink/sdk/IoT_LINK/iot_link/network/tcpip/esp8266\esp8266_tcpip.c **** 
 227              		.loc 1 155 1 is_stmt 0 view .LVU48
ARM GAS  C:\Users\²Ü¼ÒºÀ\AppData\Local\Temp\cci6pW3E.s 			page 14


 228 001e C043     		mvns	r0, r0
 229              	.LVL19:
 155:C:/Users/²Ü¼ÒºÀ/.iotlink/sdk/IoT_LINK/iot_link/network/tcpip/esp8266\esp8266_tcpip.c **** 
 230              		.loc 1 155 1 view .LVU49
 231 0020 C00F     		lsrs	r0, r0, #31
 232              	.LVL20:
 155:C:/Users/²Ü¼ÒºÀ/.iotlink/sdk/IoT_LINK/iot_link/network/tcpip/esp8266\esp8266_tcpip.c **** 
 233              		.loc 1 155 1 view .LVU50
 234 0022 04B0     		add	sp, sp, #16
 235              	.LCFI1:
 236              		.cfi_def_cfa_offset 8
 237              		@ sp needed
 238 0024 10BD     		pop	{r4, pc}
 155:C:/Users/²Ü¼ÒºÀ/.iotlink/sdk/IoT_LINK/iot_link/network/tcpip/esp8266\esp8266_tcpip.c **** 
 239              		.loc 1 155 1 view .LVU51
 240              		.cfi_endproc
 241              	.LFE6:
 243              		.section	.rodata.Esp8266Close.str1.1,"aMS",%progbits,1
 244              	.LC0:
 245 0000 41542B43 		.ascii	"AT+CIPCLOSE=%d\015\012\000"
 245      4950434C 
 245      4F53453D 
 245      25640D0A 
 245      00
 246              	.LC1:
 247 0011 4F4B00   		.ascii	"OK\000"
 248              	.LC2:
 249 0014 5B25735D 		.ascii	"[%s][%u][%s] ATCLOSE:%d FAILED\015\012\000"
 249      5B25755D 
 249      5B25735D 
 249      20415443 
 249      4C4F5345 
 250              		.section	.text.Esp8266Close,"ax",%progbits
 251              		.align	1
 252              		.syntax unified
 253              		.thumb
 254              		.thumb_func
 255              		.fpu fpv4-sp-d16
 257              	Esp8266Close:
 258              	.LVL21:
 259              	.LFB21:
 476:C:/Users/²Ü¼ÒºÀ/.iotlink/sdk/IoT_LINK/iot_link/network/tcpip/esp8266\esp8266_tcpip.c ****     char cmd[CN_STACK_STRMAX];
 260              		.loc 1 476 1 is_stmt 1 view -0
 261              		.cfi_startproc
 262              		@ args = 0, pretend = 0, frame = 128
 263              		@ frame_needed = 0, uses_anonymous_args = 0
 477:C:/Users/²Ü¼ÒºÀ/.iotlink/sdk/IoT_LINK/iot_link/network/tcpip/esp8266\esp8266_tcpip.c ****     int ret = -1;
 264              		.loc 1 477 5 view .LVU53
 478:C:/Users/²Ü¼ÒºÀ/.iotlink/sdk/IoT_LINK/iot_link/network/tcpip/esp8266\esp8266_tcpip.c ****     Esp8266Sock_t *sock;
 265              		.loc 1 478 5 view .LVU54
 479:C:/Users/²Ü¼ÒºÀ/.iotlink/sdk/IoT_LINK/iot_link/network/tcpip/esp8266\esp8266_tcpip.c ****     if((fd < 0) || (fd >= CN_ESP8266_SOCKMAX) || ((sock = Esp8266SockGet(fd))== NULL)){
 266              		.loc 1 479 5 view .LVU55
 480:C:/Users/²Ü¼ÒºÀ/.iotlink/sdk/IoT_LINK/iot_link/network/tcpip/esp8266\esp8266_tcpip.c ****         return ret;
 267              		.loc 1 480 5 view .LVU56
 476:C:/Users/²Ü¼ÒºÀ/.iotlink/sdk/IoT_LINK/iot_link/network/tcpip/esp8266\esp8266_tcpip.c ****     char cmd[CN_STACK_STRMAX];
 268              		.loc 1 476 1 is_stmt 0 view .LVU57
 269 0000 2DE9F041 		push	{r4, r5, r6, r7, r8, lr}
ARM GAS  C:\Users\²Ü¼ÒºÀ\AppData\Local\Temp\cci6pW3E.s 			page 15


 270              	.LCFI2:
 271              		.cfi_def_cfa_offset 24
 272              		.cfi_offset 4, -24
 273              		.cfi_offset 5, -20
 274              		.cfi_offset 6, -16
 275              		.cfi_offset 7, -12
 276              		.cfi_offset 8, -8
 277              		.cfi_offset 14, -4
 480:C:/Users/²Ü¼ÒºÀ/.iotlink/sdk/IoT_LINK/iot_link/network/tcpip/esp8266\esp8266_tcpip.c ****         return ret;
 278              		.loc 1 480 7 view .LVU58
 279 0004 0428     		cmp	r0, #4
 476:C:/Users/²Ü¼ÒºÀ/.iotlink/sdk/IoT_LINK/iot_link/network/tcpip/esp8266\esp8266_tcpip.c ****     char cmd[CN_STACK_STRMAX];
 280              		.loc 1 476 1 view .LVU59
 281 0006 A2B0     		sub	sp, sp, #136
 282              	.LCFI3:
 283              		.cfi_def_cfa_offset 160
 476:C:/Users/²Ü¼ÒºÀ/.iotlink/sdk/IoT_LINK/iot_link/network/tcpip/esp8266\esp8266_tcpip.c ****     char cmd[CN_STACK_STRMAX];
 284              		.loc 1 476 1 view .LVU60
 285 0008 0546     		mov	r5, r0
 480:C:/Users/²Ü¼ÒºÀ/.iotlink/sdk/IoT_LINK/iot_link/network/tcpip/esp8266\esp8266_tcpip.c ****         return ret;
 286              		.loc 1 480 7 view .LVU61
 287 000a 3ED8     		bhi	.L18
 288              	.LVL22:
 289              	.LBB24:
 290              	.LBI24:
 138:C:/Users/²Ü¼ÒºÀ/.iotlink/sdk/IoT_LINK/iot_link/network/tcpip/esp8266\esp8266_tcpip.c **** {
 291              		.loc 1 138 23 is_stmt 1 view .LVU62
 292              	.LBB25:
 140:C:/Users/²Ü¼ÒºÀ/.iotlink/sdk/IoT_LINK/iot_link/network/tcpip/esp8266\esp8266_tcpip.c **** }
 293              		.loc 1 140 5 view .LVU63
 140:C:/Users/²Ü¼ÒºÀ/.iotlink/sdk/IoT_LINK/iot_link/network/tcpip/esp8266\esp8266_tcpip.c **** }
 294              		.loc 1 140 32 is_stmt 0 view .LVU64
 295 000c 204C     		ldr	r4, .L28
 296 000e 861C     		adds	r6, r0, #2
 297 0010 04EB8603 		add	r3, r4, r6, lsl #2
 298 0014 D3F80480 		ldr	r8, [r3, #4]
 299              	.LVL23:
 140:C:/Users/²Ü¼ÒºÀ/.iotlink/sdk/IoT_LINK/iot_link/network/tcpip/esp8266\esp8266_tcpip.c **** }
 300              		.loc 1 140 32 view .LVU65
 301              	.LBE25:
 302              	.LBE24:
 480:C:/Users/²Ü¼ÒºÀ/.iotlink/sdk/IoT_LINK/iot_link/network/tcpip/esp8266\esp8266_tcpip.c ****         return ret;
 303              		.loc 1 480 47 view .LVU66
 304 0018 B8F1000F 		cmp	r8, #0
 305 001c 35D0     		beq	.L18
 484:C:/Users/²Ü¼ÒºÀ/.iotlink/sdk/IoT_LINK/iot_link/network/tcpip/esp8266\esp8266_tcpip.c **** 
 306              		.loc 1 484 5 is_stmt 1 view .LVU67
 484:C:/Users/²Ü¼ÒºÀ/.iotlink/sdk/IoT_LINK/iot_link/network/tcpip/esp8266\esp8266_tcpip.c **** 
 307              		.loc 1 484 12 is_stmt 0 view .LVU68
 308 001e 0346     		mov	r3, r0
 309 0020 1C4A     		ldr	r2, .L28+4
 310 0022 4021     		movs	r1, #64
 311 0024 02A8     		add	r0, sp, #8
 312              	.LVL24:
 484:C:/Users/²Ü¼ÒºÀ/.iotlink/sdk/IoT_LINK/iot_link/network/tcpip/esp8266\esp8266_tcpip.c **** 
 313              		.loc 1 484 12 view .LVU69
 314 0026 FFF7FEFF 		bl	snprintf
ARM GAS  C:\Users\²Ü¼ÒºÀ\AppData\Local\Temp\cci6pW3E.s 			page 16


 315              	.LVL25:
 486:C:/Users/²Ü¼ÒºÀ/.iotlink/sdk/IoT_LINK/iot_link/network/tcpip/esp8266\esp8266_tcpip.c ****     {
 316              		.loc 1 486 5 is_stmt 1 view .LVU70
 486:C:/Users/²Ü¼ÒºÀ/.iotlink/sdk/IoT_LINK/iot_link/network/tcpip/esp8266\esp8266_tcpip.c ****     {
 317              		.loc 1 486 8 is_stmt 0 view .LVU71
 318 002a 2068     		ldr	r0, [r4]
 319 002c FFF7FEFF 		bl	osal_mutex_lock
 320              	.LVL26:
 486:C:/Users/²Ü¼ÒºÀ/.iotlink/sdk/IoT_LINK/iot_link/network/tcpip/esp8266\esp8266_tcpip.c ****     {
 321              		.loc 1 486 7 view .LVU72
 322 0030 C8B1     		cbz	r0, .L14
 488:C:/Users/²Ü¼ÒºÀ/.iotlink/sdk/IoT_LINK/iot_link/network/tcpip/esp8266\esp8266_tcpip.c ****         {
 323              		.loc 1 488 9 is_stmt 1 view .LVU73
 488:C:/Users/²Ü¼ÒºÀ/.iotlink/sdk/IoT_LINK/iot_link/network/tcpip/esp8266\esp8266_tcpip.c ****         {
 324              		.loc 1 488 12 is_stmt 0 view .LVU74
 325 0032 1949     		ldr	r1, .L28+8
 326 0034 02A8     		add	r0, sp, #8
 327 0036 FFF7FEFF 		bl	esp8266_atcmd
 328              	.LVL27:
 488:C:/Users/²Ü¼ÒºÀ/.iotlink/sdk/IoT_LINK/iot_link/network/tcpip/esp8266\esp8266_tcpip.c ****         {
 329              		.loc 1 488 11 view .LVU75
 330 003a 88B1     		cbz	r0, .L15
 490:C:/Users/²Ü¼ÒºÀ/.iotlink/sdk/IoT_LINK/iot_link/network/tcpip/esp8266\esp8266_tcpip.c ****         }
 331              		.loc 1 490 13 is_stmt 1 view .LVU76
 490:C:/Users/²Ü¼ÒºÀ/.iotlink/sdk/IoT_LINK/iot_link/network/tcpip/esp8266\esp8266_tcpip.c ****         }
 332              		.loc 1 490 13 view .LVU77
 490:C:/Users/²Ü¼ÒºÀ/.iotlink/sdk/IoT_LINK/iot_link/network/tcpip/esp8266\esp8266_tcpip.c ****         }
 333              		.loc 1 490 13 view .LVU78
 334 003c 0420     		movs	r0, #4
 335 003e FFF7FEFF 		bl	link_log_level_name
 336              	.LVL28:
 337 0042 0746     		mov	r7, r0
 338 0044 FFF7FEFF 		bl	osal_sys_time
 339              	.LVL29:
 340 0048 144B     		ldr	r3, .L28+12
 341 004a 0095     		str	r5, [sp]
 342 004c 0246     		mov	r2, r0
 343 004e 3946     		mov	r1, r7
 344 0050 1348     		ldr	r0, .L28+16
 345 0052 FFF7FEFF 		bl	printf
 346              	.LVL30:
 490:C:/Users/²Ü¼ÒºÀ/.iotlink/sdk/IoT_LINK/iot_link/network/tcpip/esp8266\esp8266_tcpip.c ****         }
 347              		.loc 1 490 13 view .LVU79
 348 0056 134B     		ldr	r3, .L28+20
 349 0058 1B68     		ldr	r3, [r3]
 350 005a 9868     		ldr	r0, [r3, #8]
 351 005c FFF7FEFF 		bl	fflush
 352              	.LVL31:
 353              	.L15:
 490:C:/Users/²Ü¼ÒºÀ/.iotlink/sdk/IoT_LINK/iot_link/network/tcpip/esp8266\esp8266_tcpip.c ****         }
 354              		.loc 1 490 13 discriminator 1 view .LVU80
 490:C:/Users/²Ü¼ÒºÀ/.iotlink/sdk/IoT_LINK/iot_link/network/tcpip/esp8266\esp8266_tcpip.c ****         }
 355              		.loc 1 490 13 discriminator 1 view .LVU81
 492:C:/Users/²Ü¼ÒºÀ/.iotlink/sdk/IoT_LINK/iot_link/network/tcpip/esp8266\esp8266_tcpip.c ****     }
 356              		.loc 1 492 9 discriminator 1 view .LVU82
 357 0060 2068     		ldr	r0, [r4]
 358 0062 FFF7FEFF 		bl	osal_mutex_unlock
ARM GAS  C:\Users\²Ü¼ÒºÀ\AppData\Local\Temp\cci6pW3E.s 			page 17


 359              	.LVL32:
 360              	.L14:
 494:C:/Users/²Ü¼ÒºÀ/.iotlink/sdk/IoT_LINK/iot_link/network/tcpip/esp8266\esp8266_tcpip.c ****     osal_free(sock);
 361              		.loc 1 494 5 view .LVU83
 362              	.LBB26:
 363              	.LBI26:
 128:C:/Users/²Ü¼ÒºÀ/.iotlink/sdk/IoT_LINK/iot_link/network/tcpip/esp8266\esp8266_tcpip.c **** {
 364              		.loc 1 128 13 view .LVU84
 365              	.LBB27:
 131:C:/Users/²Ü¼ÒºÀ/.iotlink/sdk/IoT_LINK/iot_link/network/tcpip/esp8266\esp8266_tcpip.c ****             gEsp8266CB.sockArray[fd] = NULL;
 366              		.loc 1 131 5 view .LVU85
 131:C:/Users/²Ü¼ÒºÀ/.iotlink/sdk/IoT_LINK/iot_link/network/tcpip/esp8266\esp8266_tcpip.c ****             gEsp8266CB.sockArray[fd] = NULL;
 367              		.loc 1 131 8 is_stmt 0 view .LVU86
 368 0066 2068     		ldr	r0, [r4]
 369 0068 FFF7FEFF 		bl	osal_mutex_lock
 370              	.LVL33:
 131:C:/Users/²Ü¼ÒºÀ/.iotlink/sdk/IoT_LINK/iot_link/network/tcpip/esp8266\esp8266_tcpip.c ****             gEsp8266CB.sockArray[fd] = NULL;
 371              		.loc 1 131 7 view .LVU87
 372 006c 30B1     		cbz	r0, .L16
 132:C:/Users/²Ü¼ÒºÀ/.iotlink/sdk/IoT_LINK/iot_link/network/tcpip/esp8266\esp8266_tcpip.c ****         osal_mutex_unlock(gEsp8266CB.atLock);
 373              		.loc 1 132 13 is_stmt 1 view .LVU88
 132:C:/Users/²Ü¼ÒºÀ/.iotlink/sdk/IoT_LINK/iot_link/network/tcpip/esp8266\esp8266_tcpip.c ****         osal_mutex_unlock(gEsp8266CB.atLock);
 374              		.loc 1 132 38 is_stmt 0 view .LVU89
 375 006e 04EB8606 		add	r6, r4, r6, lsl #2
 376 0072 0023     		movs	r3, #0
 133:C:/Users/²Ü¼ÒºÀ/.iotlink/sdk/IoT_LINK/iot_link/network/tcpip/esp8266\esp8266_tcpip.c ****     }
 377              		.loc 1 133 9 view .LVU90
 378 0074 2068     		ldr	r0, [r4]
 132:C:/Users/²Ü¼ÒºÀ/.iotlink/sdk/IoT_LINK/iot_link/network/tcpip/esp8266\esp8266_tcpip.c ****         osal_mutex_unlock(gEsp8266CB.atLock);
 379              		.loc 1 132 38 view .LVU91
 380 0076 7360     		str	r3, [r6, #4]
 133:C:/Users/²Ü¼ÒºÀ/.iotlink/sdk/IoT_LINK/iot_link/network/tcpip/esp8266\esp8266_tcpip.c ****     }
 381              		.loc 1 133 9 is_stmt 1 view .LVU92
 382 0078 FFF7FEFF 		bl	osal_mutex_unlock
 383              	.LVL34:
 384              	.L16:
 135:C:/Users/²Ü¼ÒºÀ/.iotlink/sdk/IoT_LINK/iot_link/network/tcpip/esp8266\esp8266_tcpip.c **** }
 385              		.loc 1 135 5 view .LVU93
 135:C:/Users/²Ü¼ÒºÀ/.iotlink/sdk/IoT_LINK/iot_link/network/tcpip/esp8266\esp8266_tcpip.c **** }
 386              		.loc 1 135 5 is_stmt 0 view .LVU94
 387              	.LBE27:
 388              	.LBE26:
 495:C:/Users/²Ü¼ÒºÀ/.iotlink/sdk/IoT_LINK/iot_link/network/tcpip/esp8266\esp8266_tcpip.c ****     ret = 0;
 389              		.loc 1 495 5 is_stmt 1 view .LVU95
 390 007c 4046     		mov	r0, r8
 391 007e FFF7FEFF 		bl	osal_free
 392              	.LVL35:
 496:C:/Users/²Ü¼ÒºÀ/.iotlink/sdk/IoT_LINK/iot_link/network/tcpip/esp8266\esp8266_tcpip.c ****     return ret;
 393              		.loc 1 496 5 view .LVU96
 497:C:/Users/²Ü¼ÒºÀ/.iotlink/sdk/IoT_LINK/iot_link/network/tcpip/esp8266\esp8266_tcpip.c **** }
 394              		.loc 1 497 5 view .LVU97
 497:C:/Users/²Ü¼ÒºÀ/.iotlink/sdk/IoT_LINK/iot_link/network/tcpip/esp8266\esp8266_tcpip.c **** }
 395              		.loc 1 497 12 is_stmt 0 view .LVU98
 396 0082 0020     		movs	r0, #0
 397              	.LVL36:
 398              	.L12:
 498:C:/Users/²Ü¼ÒºÀ/.iotlink/sdk/IoT_LINK/iot_link/network/tcpip/esp8266\esp8266_tcpip.c **** 
ARM GAS  C:\Users\²Ü¼ÒºÀ\AppData\Local\Temp\cci6pW3E.s 			page 18


 399              		.loc 1 498 1 view .LVU99
 400 0084 22B0     		add	sp, sp, #136
 401              	.LCFI4:
 402              		.cfi_remember_state
 403              		.cfi_def_cfa_offset 24
 404              		@ sp needed
 405 0086 BDE8F081 		pop	{r4, r5, r6, r7, r8, pc}
 406              	.LVL37:
 407              	.L18:
 408              	.LCFI5:
 409              		.cfi_restore_state
 481:C:/Users/²Ü¼ÒºÀ/.iotlink/sdk/IoT_LINK/iot_link/network/tcpip/esp8266\esp8266_tcpip.c ****     }
 410              		.loc 1 481 16 view .LVU100
 411 008a 4FF0FF30 		mov	r0, #-1
 412              	.LVL38:
 481:C:/Users/²Ü¼ÒºÀ/.iotlink/sdk/IoT_LINK/iot_link/network/tcpip/esp8266\esp8266_tcpip.c ****     }
 413              		.loc 1 481 16 view .LVU101
 414 008e F9E7     		b	.L12
 415              	.L29:
 416              		.align	2
 417              	.L28:
 418 0090 00000000 		.word	.LANCHOR0
 419 0094 00000000 		.word	.LC0
 420 0098 11000000 		.word	.LC1
 421 009c 00000000 		.word	.LANCHOR1
 422 00a0 14000000 		.word	.LC2
 423 00a4 00000000 		.word	_impure_ptr
 424              		.cfi_endproc
 425              	.LFE21:
 427              		.section	.text.Esp8266Recv,"ax",%progbits
 428              		.align	1
 429              		.syntax unified
 430              		.thumb
 431              		.thumb_func
 432              		.fpu fpv4-sp-d16
 434              	Esp8266Recv:
 435              	.LVL39:
 436              	.LFB17:
 410:C:/Users/²Ü¼ÒºÀ/.iotlink/sdk/IoT_LINK/iot_link/network/tcpip/esp8266\esp8266_tcpip.c ****     int ret = -1;
 437              		.loc 1 410 1 is_stmt 1 view -0
 438              		.cfi_startproc
 439              		@ args = 0, pretend = 0, frame = 8
 440              		@ frame_needed = 0, uses_anonymous_args = 0
 411:C:/Users/²Ü¼ÒºÀ/.iotlink/sdk/IoT_LINK/iot_link/network/tcpip/esp8266\esp8266_tcpip.c ****     unsigned int timeout = 0;
 441              		.loc 1 411 5 view .LVU103
 412:C:/Users/²Ü¼ÒºÀ/.iotlink/sdk/IoT_LINK/iot_link/network/tcpip/esp8266\esp8266_tcpip.c ****     Esp8266Sock_t *sock;
 442              		.loc 1 412 5 view .LVU104
 413:C:/Users/²Ü¼ÒºÀ/.iotlink/sdk/IoT_LINK/iot_link/network/tcpip/esp8266\esp8266_tcpip.c ****     if((fd < 0) || (fd >= CN_ESP8266_SOCKMAX) || ((sock = Esp8266SockGet(fd))== NULL) || (buf == NU
 443              		.loc 1 413 5 view .LVU105
 414:C:/Users/²Ü¼ÒºÀ/.iotlink/sdk/IoT_LINK/iot_link/network/tcpip/esp8266\esp8266_tcpip.c ****         return ret;
 444              		.loc 1 414 5 view .LVU106
 414:C:/Users/²Ü¼ÒºÀ/.iotlink/sdk/IoT_LINK/iot_link/network/tcpip/esp8266\esp8266_tcpip.c ****         return ret;
 445              		.loc 1 414 7 is_stmt 0 view .LVU107
 446 0000 0428     		cmp	r0, #4
 410:C:/Users/²Ü¼ÒºÀ/.iotlink/sdk/IoT_LINK/iot_link/network/tcpip/esp8266\esp8266_tcpip.c ****     int ret = -1;
 447              		.loc 1 410 1 view .LVU108
 448 0002 2DE9F74F 		push	{r0, r1, r2, r4, r5, r6, r7, r8, r9, r10, fp, lr}
ARM GAS  C:\Users\²Ü¼ÒºÀ\AppData\Local\Temp\cci6pW3E.s 			page 19


 449              	.LCFI6:
 450              		.cfi_def_cfa_offset 48
 451              		.cfi_offset 4, -36
 452              		.cfi_offset 5, -32
 453              		.cfi_offset 6, -28
 454              		.cfi_offset 7, -24
 455              		.cfi_offset 8, -20
 456              		.cfi_offset 9, -16
 457              		.cfi_offset 10, -12
 458              		.cfi_offset 11, -8
 459              		.cfi_offset 14, -4
 410:C:/Users/²Ü¼ÒºÀ/.iotlink/sdk/IoT_LINK/iot_link/network/tcpip/esp8266\esp8266_tcpip.c ****     int ret = -1;
 460              		.loc 1 410 1 view .LVU109
 461 0006 0E46     		mov	r6, r1
 462 0008 9046     		mov	r8, r2
 414:C:/Users/²Ü¼ÒºÀ/.iotlink/sdk/IoT_LINK/iot_link/network/tcpip/esp8266\esp8266_tcpip.c ****         return ret;
 463              		.loc 1 414 7 view .LVU110
 464 000a 44D8     		bhi	.L39
 465              	.LVL40:
 466              	.LBB28:
 467              	.LBI28:
 138:C:/Users/²Ü¼ÒºÀ/.iotlink/sdk/IoT_LINK/iot_link/network/tcpip/esp8266\esp8266_tcpip.c **** {
 468              		.loc 1 138 23 is_stmt 1 view .LVU111
 469              	.LBB29:
 140:C:/Users/²Ü¼ÒºÀ/.iotlink/sdk/IoT_LINK/iot_link/network/tcpip/esp8266\esp8266_tcpip.c **** }
 470              		.loc 1 140 5 view .LVU112
 140:C:/Users/²Ü¼ÒºÀ/.iotlink/sdk/IoT_LINK/iot_link/network/tcpip/esp8266\esp8266_tcpip.c **** }
 471              		.loc 1 140 32 is_stmt 0 view .LVU113
 472 000c 244F     		ldr	r7, .L46
 473 000e 07EB8000 		add	r0, r7, r0, lsl #2
 474              	.LVL41:
 140:C:/Users/²Ü¼ÒºÀ/.iotlink/sdk/IoT_LINK/iot_link/network/tcpip/esp8266\esp8266_tcpip.c **** }
 475              		.loc 1 140 32 view .LVU114
 476 0012 C568     		ldr	r5, [r0, #12]
 477              	.LVL42:
 140:C:/Users/²Ü¼ÒºÀ/.iotlink/sdk/IoT_LINK/iot_link/network/tcpip/esp8266\esp8266_tcpip.c **** }
 478              		.loc 1 140 32 view .LVU115
 479              	.LBE29:
 480              	.LBE28:
 414:C:/Users/²Ü¼ÒºÀ/.iotlink/sdk/IoT_LINK/iot_link/network/tcpip/esp8266\esp8266_tcpip.c ****         return ret;
 481              		.loc 1 414 47 view .LVU116
 482 0014 002D     		cmp	r5, #0
 483 0016 3ED0     		beq	.L39
 414:C:/Users/²Ü¼ÒºÀ/.iotlink/sdk/IoT_LINK/iot_link/network/tcpip/esp8266\esp8266_tcpip.c ****         return ret;
 484              		.loc 1 414 87 discriminator 2 view .LVU117
 485 0018 0029     		cmp	r1, #0
 486 001a 3CD0     		beq	.L39
 414:C:/Users/²Ü¼ÒºÀ/.iotlink/sdk/IoT_LINK/iot_link/network/tcpip/esp8266\esp8266_tcpip.c ****         return ret;
 487              		.loc 1 414 104 discriminator 3 view .LVU118
 488 001c 002A     		cmp	r2, #0
 489 001e 3AD0     		beq	.L39
 418:C:/Users/²Ü¼ÒºÀ/.iotlink/sdk/IoT_LINK/iot_link/network/tcpip/esp8266\esp8266_tcpip.c ****     do{
 490              		.loc 1 418 5 is_stmt 1 view .LVU119
 418:C:/Users/²Ü¼ÒºÀ/.iotlink/sdk/IoT_LINK/iot_link/network/tcpip/esp8266\esp8266_tcpip.c ****     do{
 491              		.loc 1 418 13 is_stmt 0 view .LVU120
 492 0020 D5F814A0 		ldr	r10, [r5, #20]
 493              	.LVL43:
ARM GAS  C:\Users\²Ü¼ÒºÀ\AppData\Local\Temp\cci6pW3E.s 			page 20


 411:C:/Users/²Ü¼ÒºÀ/.iotlink/sdk/IoT_LINK/iot_link/network/tcpip/esp8266\esp8266_tcpip.c ****     unsigned int timeout = 0;
 494              		.loc 1 411 9 view .LVU121
 495 0024 4FF0FF34 		mov	r4, #-1
 422:C:/Users/²Ü¼ÒºÀ/.iotlink/sdk/IoT_LINK/iot_link/network/tcpip/esp8266\esp8266_tcpip.c ****                 if(sock->type == SOCK_DGRAM){
 496              		.loc 1 422 16 view .LVU122
 497 0028 05F11809 		add	r9, r5, #24
 498              	.LBB30:
 424:C:/Users/²Ü¼ÒºÀ/.iotlink/sdk/IoT_LINK/iot_link/network/tcpip/esp8266\esp8266_tcpip.c ****                     ret = ring_buffer_read(&sock->rcvRing,(unsigned char *)&framelen,sizeof(framele
 499              		.loc 1 424 36 view .LVU123
 500 002c 4FF0000B 		mov	fp, #0
 501              	.LVL44:
 502              	.L35:
 424:C:/Users/²Ü¼ÒºÀ/.iotlink/sdk/IoT_LINK/iot_link/network/tcpip/esp8266\esp8266_tcpip.c ****                     ret = ring_buffer_read(&sock->rcvRing,(unsigned char *)&framelen,sizeof(framele
 503              		.loc 1 424 36 view .LVU124
 504              	.LBE30:
 419:C:/Users/²Ü¼ÒºÀ/.iotlink/sdk/IoT_LINK/iot_link/network/tcpip/esp8266\esp8266_tcpip.c ****         if(osal_mutex_lock(gEsp8266CB.ioLock))
 505              		.loc 1 419 5 is_stmt 1 view .LVU125
 420:C:/Users/²Ü¼ÒºÀ/.iotlink/sdk/IoT_LINK/iot_link/network/tcpip/esp8266\esp8266_tcpip.c ****         {
 506              		.loc 1 420 9 view .LVU126
 420:C:/Users/²Ü¼ÒºÀ/.iotlink/sdk/IoT_LINK/iot_link/network/tcpip/esp8266\esp8266_tcpip.c ****         {
 507              		.loc 1 420 12 is_stmt 0 view .LVU127
 508 0030 7868     		ldr	r0, [r7, #4]
 509 0032 FFF7FEFF 		bl	osal_mutex_lock
 510              	.LVL45:
 420:C:/Users/²Ü¼ÒºÀ/.iotlink/sdk/IoT_LINK/iot_link/network/tcpip/esp8266\esp8266_tcpip.c ****         {
 511              		.loc 1 420 11 view .LVU128
 512 0036 D0B1     		cbz	r0, .L32
 422:C:/Users/²Ü¼ÒºÀ/.iotlink/sdk/IoT_LINK/iot_link/network/tcpip/esp8266\esp8266_tcpip.c ****                 if(sock->type == SOCK_DGRAM){
 513              		.loc 1 422 13 is_stmt 1 view .LVU129
 422:C:/Users/²Ü¼ÒºÀ/.iotlink/sdk/IoT_LINK/iot_link/network/tcpip/esp8266\esp8266_tcpip.c ****                 if(sock->type == SOCK_DGRAM){
 514              		.loc 1 422 16 is_stmt 0 view .LVU130
 515 0038 4846     		mov	r0, r9
 516 003a FFF7FEFF 		bl	ring_buffer_datalen
 517              	.LVL46:
 422:C:/Users/²Ü¼ÒºÀ/.iotlink/sdk/IoT_LINK/iot_link/network/tcpip/esp8266\esp8266_tcpip.c ****                 if(sock->type == SOCK_DGRAM){
 518              		.loc 1 422 15 view .LVU131
 519 003e 0028     		cmp	r0, #0
 520 0040 10DD     		ble	.L33
 423:C:/Users/²Ü¼ÒºÀ/.iotlink/sdk/IoT_LINK/iot_link/network/tcpip/esp8266\esp8266_tcpip.c ****                     unsigned short framelen = 0;
 521              		.loc 1 423 17 is_stmt 1 view .LVU132
 423:C:/Users/²Ü¼ÒºÀ/.iotlink/sdk/IoT_LINK/iot_link/network/tcpip/esp8266\esp8266_tcpip.c ****                     unsigned short framelen = 0;
 522              		.loc 1 423 24 is_stmt 0 view .LVU133
 523 0042 AA68     		ldr	r2, [r5, #8]
 423:C:/Users/²Ü¼ÒºÀ/.iotlink/sdk/IoT_LINK/iot_link/network/tcpip/esp8266\esp8266_tcpip.c ****                     unsigned short framelen = 0;
 524              		.loc 1 423 19 view .LVU134
 525 0044 022A     		cmp	r2, #2
 526 0046 22D1     		bne	.L34
 527              	.LBB31:
 424:C:/Users/²Ü¼ÒºÀ/.iotlink/sdk/IoT_LINK/iot_link/network/tcpip/esp8266\esp8266_tcpip.c ****                     ret = ring_buffer_read(&sock->rcvRing,(unsigned char *)&framelen,sizeof(framele
 528              		.loc 1 424 21 is_stmt 1 view .LVU135
 425:C:/Users/²Ü¼ÒºÀ/.iotlink/sdk/IoT_LINK/iot_link/network/tcpip/esp8266\esp8266_tcpip.c ****                     ret = ring_buffer_read(&sock->rcvRing,(unsigned char *)buf,framelen);
 529              		.loc 1 425 27 is_stmt 0 view .LVU136
 530 0048 0DF10601 		add	r1, sp, #6
 531 004c 4846     		mov	r0, r9
 424:C:/Users/²Ü¼ÒºÀ/.iotlink/sdk/IoT_LINK/iot_link/network/tcpip/esp8266\esp8266_tcpip.c ****                     ret = ring_buffer_read(&sock->rcvRing,(unsigned char *)&framelen,sizeof(framele
 532              		.loc 1 424 36 view .LVU137
 533 004e ADF806B0 		strh	fp, [sp, #6]	@ movhi
ARM GAS  C:\Users\²Ü¼ÒºÀ\AppData\Local\Temp\cci6pW3E.s 			page 21


 425:C:/Users/²Ü¼ÒºÀ/.iotlink/sdk/IoT_LINK/iot_link/network/tcpip/esp8266\esp8266_tcpip.c ****                     ret = ring_buffer_read(&sock->rcvRing,(unsigned char *)buf,framelen);
 534              		.loc 1 425 21 is_stmt 1 view .LVU138
 425:C:/Users/²Ü¼ÒºÀ/.iotlink/sdk/IoT_LINK/iot_link/network/tcpip/esp8266\esp8266_tcpip.c ****                     ret = ring_buffer_read(&sock->rcvRing,(unsigned char *)buf,framelen);
 535              		.loc 1 425 27 is_stmt 0 view .LVU139
 536 0052 FFF7FEFF 		bl	ring_buffer_read
 537              	.LVL47:
 426:C:/Users/²Ü¼ÒºÀ/.iotlink/sdk/IoT_LINK/iot_link/network/tcpip/esp8266\esp8266_tcpip.c ****                 }
 538              		.loc 1 426 21 is_stmt 1 view .LVU140
 426:C:/Users/²Ü¼ÒºÀ/.iotlink/sdk/IoT_LINK/iot_link/network/tcpip/esp8266\esp8266_tcpip.c ****                 }
 539              		.loc 1 426 27 is_stmt 0 view .LVU141
 540 0056 BDF80620 		ldrh	r2, [sp, #6]
 541              	.L45:
 542              	.LBE31:
 429:C:/Users/²Ü¼ÒºÀ/.iotlink/sdk/IoT_LINK/iot_link/network/tcpip/esp8266\esp8266_tcpip.c ****                 }
 543              		.loc 1 429 27 view .LVU142
 544 005a 3146     		mov	r1, r6
 545 005c 4846     		mov	r0, r9
 546 005e FFF7FEFF 		bl	ring_buffer_read
 547              	.LVL48:
 548 0062 0446     		mov	r4, r0
 549              	.LVL49:
 550              	.L33:
 432:C:/Users/²Ü¼ÒºÀ/.iotlink/sdk/IoT_LINK/iot_link/network/tcpip/esp8266\esp8266_tcpip.c ****             }
 551              		.loc 1 432 17 is_stmt 1 view .LVU143
 434:C:/Users/²Ü¼ÒºÀ/.iotlink/sdk/IoT_LINK/iot_link/network/tcpip/esp8266\esp8266_tcpip.c ****         }
 552              		.loc 1 434 13 view .LVU144
 553 0064 7868     		ldr	r0, [r7, #4]
 554 0066 FFF7FEFF 		bl	osal_mutex_unlock
 555              	.LVL50:
 436:C:/Users/²Ü¼ÒºÀ/.iotlink/sdk/IoT_LINK/iot_link/network/tcpip/esp8266\esp8266_tcpip.c ****             break;
 556              		.loc 1 436 9 view .LVU145
 436:C:/Users/²Ü¼ÒºÀ/.iotlink/sdk/IoT_LINK/iot_link/network/tcpip/esp8266\esp8266_tcpip.c ****             break;
 557              		.loc 1 436 11 is_stmt 0 view .LVU146
 558 006a 002C     		cmp	r4, #0
 559 006c 09DC     		bgt	.L30
 560              	.L32:
 439:C:/Users/²Ü¼ÒºÀ/.iotlink/sdk/IoT_LINK/iot_link/network/tcpip/esp8266\esp8266_tcpip.c ****             ret = 0;
 561              		.loc 1 439 14 is_stmt 1 view .LVU147
 439:C:/Users/²Ü¼ÒºÀ/.iotlink/sdk/IoT_LINK/iot_link/network/tcpip/esp8266\esp8266_tcpip.c ****             ret = 0;
 562              		.loc 1 439 21 is_stmt 0 view .LVU148
 563 006e 2B69     		ldr	r3, [r5, #16]
 439:C:/Users/²Ü¼ÒºÀ/.iotlink/sdk/IoT_LINK/iot_link/network/tcpip/esp8266\esp8266_tcpip.c ****             ret = 0;
 564              		.loc 1 439 16 view .LVU149
 565 0070 A3B1     		cbz	r3, .L40
 444:C:/Users/²Ü¼ÒºÀ/.iotlink/sdk/IoT_LINK/iot_link/network/tcpip/esp8266\esp8266_tcpip.c ****         }
 566              		.loc 1 444 13 is_stmt 1 view .LVU150
 567 0072 0120     		movs	r0, #1
 568 0074 FFF7FEFF 		bl	osal_task_sleep
 569              	.LVL51:
 446:C:/Users/²Ü¼ÒºÀ/.iotlink/sdk/IoT_LINK/iot_link/network/tcpip/esp8266\esp8266_tcpip.c ****     return ret;
 570              		.loc 1 446 11 view .LVU151
 446:C:/Users/²Ü¼ÒºÀ/.iotlink/sdk/IoT_LINK/iot_link/network/tcpip/esp8266\esp8266_tcpip.c ****     return ret;
 571              		.loc 1 446 20 is_stmt 0 view .LVU152
 572 0078 0AF1FF33 		add	r3, r10, #-1
 573              	.LVL52:
 446:C:/Users/²Ü¼ÒºÀ/.iotlink/sdk/IoT_LINK/iot_link/network/tcpip/esp8266\esp8266_tcpip.c ****     return ret;
 574              		.loc 1 446 5 view .LVU153
ARM GAS  C:\Users\²Ü¼ÒºÀ\AppData\Local\Temp\cci6pW3E.s 			page 22


 575 007c BAF1000F 		cmp	r10, #0
 576 0080 03D1     		bne	.L41
 577              	.LVL53:
 578              	.L30:
 448:C:/Users/²Ü¼ÒºÀ/.iotlink/sdk/IoT_LINK/iot_link/network/tcpip/esp8266\esp8266_tcpip.c **** 
 579              		.loc 1 448 1 view .LVU154
 580 0082 2046     		mov	r0, r4
 581 0084 03B0     		add	sp, sp, #12
 582              	.LCFI7:
 583              		.cfi_remember_state
 584              		.cfi_def_cfa_offset 36
 585              		@ sp needed
 586 0086 BDE8F08F 		pop	{r4, r5, r6, r7, r8, r9, r10, fp, pc}
 587              	.LVL54:
 588              	.L41:
 589              	.LCFI8:
 590              		.cfi_restore_state
 448:C:/Users/²Ü¼ÒºÀ/.iotlink/sdk/IoT_LINK/iot_link/network/tcpip/esp8266\esp8266_tcpip.c **** 
 591              		.loc 1 448 1 view .LVU155
 592 008a 9A46     		mov	r10, r3
 593 008c D0E7     		b	.L35
 594              	.LVL55:
 595              	.L34:
 428:C:/Users/²Ü¼ÒºÀ/.iotlink/sdk/IoT_LINK/iot_link/network/tcpip/esp8266\esp8266_tcpip.c ****                     ret = ring_buffer_read(&sock->rcvRing,(unsigned char *)buf,len);
 596              		.loc 1 428 22 is_stmt 1 view .LVU156
 428:C:/Users/²Ü¼ÒºÀ/.iotlink/sdk/IoT_LINK/iot_link/network/tcpip/esp8266\esp8266_tcpip.c ****                     ret = ring_buffer_read(&sock->rcvRing,(unsigned char *)buf,len);
 597              		.loc 1 428 25 is_stmt 0 view .LVU157
 598 008e 012A     		cmp	r2, #1
 599 0090 E8D1     		bne	.L33
 429:C:/Users/²Ü¼ÒºÀ/.iotlink/sdk/IoT_LINK/iot_link/network/tcpip/esp8266\esp8266_tcpip.c ****                 }
 600              		.loc 1 429 21 is_stmt 1 view .LVU158
 429:C:/Users/²Ü¼ÒºÀ/.iotlink/sdk/IoT_LINK/iot_link/network/tcpip/esp8266\esp8266_tcpip.c ****                 }
 601              		.loc 1 429 27 is_stmt 0 view .LVU159
 602 0092 4246     		mov	r2, r8
 603 0094 E1E7     		b	.L45
 604              	.LVL56:
 605              	.L39:
 415:C:/Users/²Ü¼ÒºÀ/.iotlink/sdk/IoT_LINK/iot_link/network/tcpip/esp8266\esp8266_tcpip.c ****     }
 606              		.loc 1 415 16 view .LVU160
 607 0096 4FF0FF34 		mov	r4, #-1
 608 009a F2E7     		b	.L30
 609              	.LVL57:
 610              	.L40:
 440:C:/Users/²Ü¼ÒºÀ/.iotlink/sdk/IoT_LINK/iot_link/network/tcpip/esp8266\esp8266_tcpip.c ****             break;
 611              		.loc 1 440 17 view .LVU161
 612 009c 1C46     		mov	r4, r3
 613              	.LVL58:
 440:C:/Users/²Ü¼ÒºÀ/.iotlink/sdk/IoT_LINK/iot_link/network/tcpip/esp8266\esp8266_tcpip.c ****             break;
 614              		.loc 1 440 17 view .LVU162
 615 009e F0E7     		b	.L30
 616              	.L47:
 617              		.align	2
 618              	.L46:
 619 00a0 00000000 		.word	.LANCHOR0
 620              		.cfi_endproc
 621              	.LFE17:
 623              		.section	.text.Esp8266RecvFrom,"ax",%progbits
ARM GAS  C:\Users\²Ü¼ÒºÀ\AppData\Local\Temp\cci6pW3E.s 			page 23


 624              		.align	1
 625              		.syntax unified
 626              		.thumb
 627              		.thumb_func
 628              		.fpu fpv4-sp-d16
 630              	Esp8266RecvFrom:
 631              	.LVL59:
 632              	.LFB18:
 451:C:/Users/²Ü¼ÒºÀ/.iotlink/sdk/IoT_LINK/iot_link/network/tcpip/esp8266\esp8266_tcpip.c ****     return Esp8266Recv(fd,msg,len,flags);
 633              		.loc 1 451 1 is_stmt 1 view -0
 634              		.cfi_startproc
 635              		@ args = 8, pretend = 0, frame = 0
 636              		@ frame_needed = 0, uses_anonymous_args = 0
 637              		@ link register save eliminated.
 452:C:/Users/²Ü¼ÒºÀ/.iotlink/sdk/IoT_LINK/iot_link/network/tcpip/esp8266\esp8266_tcpip.c **** }
 638              		.loc 1 452 5 view .LVU164
 452:C:/Users/²Ü¼ÒºÀ/.iotlink/sdk/IoT_LINK/iot_link/network/tcpip/esp8266\esp8266_tcpip.c **** }
 639              		.loc 1 452 12 is_stmt 0 view .LVU165
 640 0000 FFF7FEBF 		b	Esp8266Recv
 641              	.LVL60:
 452:C:/Users/²Ü¼ÒºÀ/.iotlink/sdk/IoT_LINK/iot_link/network/tcpip/esp8266\esp8266_tcpip.c **** }
 642              		.loc 1 452 12 view .LVU166
 643              		.cfi_endproc
 644              	.LFE18:
 646              		.section	.rodata.Esp8266Connect.str1.1,"aMS",%progbits,1
 647              	.LC3:
 648 0000 41542B43 		.ascii	"AT+CIPSTART=%d,\"UDP\",\"%s\",%d\015\012\000"
 648      49505354 
 648      4152543D 
 648      25642C22 
 648      55445022 
 649              	.LC4:
 650 001f 41542B43 		.ascii	"AT+CIPSTART=%d,\"TCP\",\"%s\",%d\015\012\000"
 650      49505354 
 650      4152543D 
 650      25642C22 
 650      54435022 
 651              		.section	.text.Esp8266Connect,"ax",%progbits
 652              		.align	1
 653              		.syntax unified
 654              		.thumb
 655              		.thumb_func
 656              		.fpu fpv4-sp-d16
 658              	Esp8266Connect:
 659              	.LVL61:
 660              	.LFB14:
 314:C:/Users/²Ü¼ÒºÀ/.iotlink/sdk/IoT_LINK/iot_link/network/tcpip/esp8266\esp8266_tcpip.c ****     char cmd[CN_STACK_STRMAX];
 661              		.loc 1 314 1 is_stmt 1 view -0
 662              		.cfi_startproc
 663              		@ args = 0, pretend = 0, frame = 128
 664              		@ frame_needed = 0, uses_anonymous_args = 0
 315:C:/Users/²Ü¼ÒºÀ/.iotlink/sdk/IoT_LINK/iot_link/network/tcpip/esp8266\esp8266_tcpip.c ****     int ret = -1;
 665              		.loc 1 315 5 view .LVU168
 316:C:/Users/²Ü¼ÒºÀ/.iotlink/sdk/IoT_LINK/iot_link/network/tcpip/esp8266\esp8266_tcpip.c ****     char *ip;
 666              		.loc 1 316 5 view .LVU169
 317:C:/Users/²Ü¼ÒºÀ/.iotlink/sdk/IoT_LINK/iot_link/network/tcpip/esp8266\esp8266_tcpip.c ****     Esp8266Sock_t *sock;
 667              		.loc 1 317 5 view .LVU170
ARM GAS  C:\Users\²Ü¼ÒºÀ\AppData\Local\Temp\cci6pW3E.s 			page 24


 318:C:/Users/²Ü¼ÒºÀ/.iotlink/sdk/IoT_LINK/iot_link/network/tcpip/esp8266\esp8266_tcpip.c ****     if((fd < 0) || (fd >= CN_ESP8266_SOCKMAX) || ((sock = Esp8266SockGet(fd))== NULL) || (addr == N
 668              		.loc 1 318 5 view .LVU171
 319:C:/Users/²Ü¼ÒºÀ/.iotlink/sdk/IoT_LINK/iot_link/network/tcpip/esp8266\esp8266_tcpip.c ****     {
 669              		.loc 1 319 5 view .LVU172
 314:C:/Users/²Ü¼ÒºÀ/.iotlink/sdk/IoT_LINK/iot_link/network/tcpip/esp8266\esp8266_tcpip.c ****     char cmd[CN_STACK_STRMAX];
 670              		.loc 1 314 1 is_stmt 0 view .LVU173
 671 0000 F0B5     		push	{r4, r5, r6, r7, lr}
 672              	.LCFI9:
 673              		.cfi_def_cfa_offset 20
 674              		.cfi_offset 4, -20
 675              		.cfi_offset 5, -16
 676              		.cfi_offset 6, -12
 677              		.cfi_offset 7, -8
 678              		.cfi_offset 14, -4
 319:C:/Users/²Ü¼ÒºÀ/.iotlink/sdk/IoT_LINK/iot_link/network/tcpip/esp8266\esp8266_tcpip.c ****     {
 679              		.loc 1 319 7 view .LVU174
 680 0002 0428     		cmp	r0, #4
 314:C:/Users/²Ü¼ÒºÀ/.iotlink/sdk/IoT_LINK/iot_link/network/tcpip/esp8266\esp8266_tcpip.c ****     char cmd[CN_STACK_STRMAX];
 681              		.loc 1 314 1 view .LVU175
 682 0004 A3B0     		sub	sp, sp, #140
 683              	.LCFI10:
 684              		.cfi_def_cfa_offset 160
 314:C:/Users/²Ü¼ÒºÀ/.iotlink/sdk/IoT_LINK/iot_link/network/tcpip/esp8266\esp8266_tcpip.c ****     char cmd[CN_STACK_STRMAX];
 685              		.loc 1 314 1 view .LVU176
 686 0006 0446     		mov	r4, r0
 319:C:/Users/²Ü¼ÒºÀ/.iotlink/sdk/IoT_LINK/iot_link/network/tcpip/esp8266\esp8266_tcpip.c ****     {
 687              		.loc 1 319 7 view .LVU177
 688 0008 04D9     		bls	.L50
 689              	.LVL62:
 690              	.L52:
 321:C:/Users/²Ü¼ÒºÀ/.iotlink/sdk/IoT_LINK/iot_link/network/tcpip/esp8266\esp8266_tcpip.c ****     }
 691              		.loc 1 321 16 view .LVU178
 692 000a 4FF0FF34 		mov	r4, #-1
 693              	.LVL63:
 694              	.L49:
 347:C:/Users/²Ü¼ÒºÀ/.iotlink/sdk/IoT_LINK/iot_link/network/tcpip/esp8266\esp8266_tcpip.c **** 
 695              		.loc 1 347 1 view .LVU179
 696 000e 2046     		mov	r0, r4
 697 0010 23B0     		add	sp, sp, #140
 698              	.LCFI11:
 699              		.cfi_remember_state
 700              		.cfi_def_cfa_offset 20
 701              		@ sp needed
 702 0012 F0BD     		pop	{r4, r5, r6, r7, pc}
 703              	.LVL64:
 704              	.L50:
 705              	.LCFI12:
 706              		.cfi_restore_state
 707              	.LBB32:
 708              	.LBI32:
 138:C:/Users/²Ü¼ÒºÀ/.iotlink/sdk/IoT_LINK/iot_link/network/tcpip/esp8266\esp8266_tcpip.c **** {
 709              		.loc 1 138 23 is_stmt 1 view .LVU180
 710              	.LBB33:
 140:C:/Users/²Ü¼ÒºÀ/.iotlink/sdk/IoT_LINK/iot_link/network/tcpip/esp8266\esp8266_tcpip.c **** }
 711              		.loc 1 140 5 view .LVU181
 140:C:/Users/²Ü¼ÒºÀ/.iotlink/sdk/IoT_LINK/iot_link/network/tcpip/esp8266\esp8266_tcpip.c **** }
 712              		.loc 1 140 32 is_stmt 0 view .LVU182
ARM GAS  C:\Users\²Ü¼ÒºÀ\AppData\Local\Temp\cci6pW3E.s 			page 25


 713 0014 1A4E     		ldr	r6, .L67
 714 0016 06EB8003 		add	r3, r6, r0, lsl #2
 715 001a DF68     		ldr	r7, [r3, #12]
 716              	.LVL65:
 140:C:/Users/²Ü¼ÒºÀ/.iotlink/sdk/IoT_LINK/iot_link/network/tcpip/esp8266\esp8266_tcpip.c **** }
 717              		.loc 1 140 32 view .LVU183
 718              	.LBE33:
 719              	.LBE32:
 319:C:/Users/²Ü¼ÒºÀ/.iotlink/sdk/IoT_LINK/iot_link/network/tcpip/esp8266\esp8266_tcpip.c ****     {
 720              		.loc 1 319 47 view .LVU184
 721 001c 002F     		cmp	r7, #0
 722 001e F4D0     		beq	.L52
 319:C:/Users/²Ü¼ÒºÀ/.iotlink/sdk/IoT_LINK/iot_link/network/tcpip/esp8266\esp8266_tcpip.c ****     {
 723              		.loc 1 319 87 discriminator 2 view .LVU185
 724 0020 0029     		cmp	r1, #0
 725 0022 F2D0     		beq	.L52
 323:C:/Users/²Ü¼ÒºÀ/.iotlink/sdk/IoT_LINK/iot_link/network/tcpip/esp8266\esp8266_tcpip.c ****     uint16_t serverPort = ntohs(serv_addr->sin_port);
 726              		.loc 1 323 5 is_stmt 1 view .LVU186
 727              	.LVL66:
 324:C:/Users/²Ü¼ÒºÀ/.iotlink/sdk/IoT_LINK/iot_link/network/tcpip/esp8266\esp8266_tcpip.c ****     struct in_addr serverIp = serv_addr->sin_addr;
 728              		.loc 1 324 5 view .LVU187
 324:C:/Users/²Ü¼ÒºÀ/.iotlink/sdk/IoT_LINK/iot_link/network/tcpip/esp8266\esp8266_tcpip.c ****     struct in_addr serverIp = serv_addr->sin_addr;
 729              		.loc 1 324 27 is_stmt 0 view .LVU188
 730 0024 4B88     		ldrh	r3, [r1, #2]
 326:C:/Users/²Ü¼ÒºÀ/.iotlink/sdk/IoT_LINK/iot_link/network/tcpip/esp8266\esp8266_tcpip.c **** 
 731              		.loc 1 326 10 view .LVU189
 732 0026 4868     		ldr	r0, [r1, #4]
 733              	.LVL67:
 324:C:/Users/²Ü¼ÒºÀ/.iotlink/sdk/IoT_LINK/iot_link/network/tcpip/esp8266\esp8266_tcpip.c ****     struct in_addr serverIp = serv_addr->sin_addr;
 734              		.loc 1 324 27 view .LVU190
 735 0028 1D02     		lsls	r5, r3, #8
 736 002a 45EA1325 		orr	r5, r5, r3, lsr #8
 326:C:/Users/²Ü¼ÒºÀ/.iotlink/sdk/IoT_LINK/iot_link/network/tcpip/esp8266\esp8266_tcpip.c **** 
 737              		.loc 1 326 10 view .LVU191
 738 002e FFF7FEFF 		bl	inet_ntoa
 739              	.LVL68:
 328:C:/Users/²Ü¼ÒºÀ/.iotlink/sdk/IoT_LINK/iot_link/network/tcpip/esp8266\esp8266_tcpip.c ****         (void) snprintf(cmd,CN_STACK_STRMAX,"AT+CIPSTART=%d,\"UDP\",\"%s\",%d\r\n",fd,ip,serverPort
 740              		.loc 1 328 12 view .LVU192
 741 0032 BB68     		ldr	r3, [r7, #8]
 328:C:/Users/²Ü¼ÒºÀ/.iotlink/sdk/IoT_LINK/iot_link/network/tcpip/esp8266\esp8266_tcpip.c ****         (void) snprintf(cmd,CN_STACK_STRMAX,"AT+CIPSTART=%d,\"UDP\",\"%s\",%d\r\n",fd,ip,serverPort
 742              		.loc 1 328 7 view .LVU193
 743 0034 022B     		cmp	r3, #2
 324:C:/Users/²Ü¼ÒºÀ/.iotlink/sdk/IoT_LINK/iot_link/network/tcpip/esp8266\esp8266_tcpip.c ****     struct in_addr serverIp = serv_addr->sin_addr;
 744              		.loc 1 324 14 view .LVU194
 745 0036 ADB2     		uxth	r5, r5
 746              	.LVL69:
 325:C:/Users/²Ü¼ÒºÀ/.iotlink/sdk/IoT_LINK/iot_link/network/tcpip/esp8266\esp8266_tcpip.c ****     ip = inet_ntoa(serverIp);
 747              		.loc 1 325 5 is_stmt 1 view .LVU195
 326:C:/Users/²Ü¼ÒºÀ/.iotlink/sdk/IoT_LINK/iot_link/network/tcpip/esp8266\esp8266_tcpip.c **** 
 748              		.loc 1 326 5 view .LVU196
 328:C:/Users/²Ü¼ÒºÀ/.iotlink/sdk/IoT_LINK/iot_link/network/tcpip/esp8266\esp8266_tcpip.c ****         (void) snprintf(cmd,CN_STACK_STRMAX,"AT+CIPSTART=%d,\"UDP\",\"%s\",%d\r\n",fd,ip,serverPort
 749              		.loc 1 328 5 view .LVU197
 328:C:/Users/²Ü¼ÒºÀ/.iotlink/sdk/IoT_LINK/iot_link/network/tcpip/esp8266\esp8266_tcpip.c ****         (void) snprintf(cmd,CN_STACK_STRMAX,"AT+CIPSTART=%d,\"UDP\",\"%s\",%d\r\n",fd,ip,serverPort
 750              		.loc 1 328 7 is_stmt 0 view .LVU198
 751 0038 18D1     		bne	.L53
 329:C:/Users/²Ü¼ÒºÀ/.iotlink/sdk/IoT_LINK/iot_link/network/tcpip/esp8266\esp8266_tcpip.c ****     }
 752              		.loc 1 329 9 is_stmt 1 view .LVU199
ARM GAS  C:\Users\²Ü¼ÒºÀ\AppData\Local\Temp\cci6pW3E.s 			page 26


 329:C:/Users/²Ü¼ÒºÀ/.iotlink/sdk/IoT_LINK/iot_link/network/tcpip/esp8266\esp8266_tcpip.c ****     }
 753              		.loc 1 329 16 is_stmt 0 view .LVU200
 754 003a CDE90005 		strd	r0, r5, [sp]
 755 003e 114A     		ldr	r2, .L67+4
 756 0040 2346     		mov	r3, r4
 757              	.LVL70:
 758              	.L66:
 332:C:/Users/²Ü¼ÒºÀ/.iotlink/sdk/IoT_LINK/iot_link/network/tcpip/esp8266\esp8266_tcpip.c ****     }
 759              		.loc 1 332 16 view .LVU201
 760 0042 8021     		movs	r1, #128
 761 0044 02A8     		add	r0, sp, #8
 762              	.LVL71:
 332:C:/Users/²Ü¼ÒºÀ/.iotlink/sdk/IoT_LINK/iot_link/network/tcpip/esp8266\esp8266_tcpip.c ****     }
 763              		.loc 1 332 16 view .LVU202
 764 0046 FFF7FEFF 		bl	snprintf
 765              	.LVL72:
 338:C:/Users/²Ü¼ÒºÀ/.iotlink/sdk/IoT_LINK/iot_link/network/tcpip/esp8266\esp8266_tcpip.c ****     {
 766              		.loc 1 338 5 is_stmt 1 view .LVU203
 338:C:/Users/²Ü¼ÒºÀ/.iotlink/sdk/IoT_LINK/iot_link/network/tcpip/esp8266\esp8266_tcpip.c ****     {
 767              		.loc 1 338 8 is_stmt 0 view .LVU204
 768 004a 3068     		ldr	r0, [r6]
 769 004c FFF7FEFF 		bl	osal_mutex_lock
 770              	.LVL73:
 338:C:/Users/²Ü¼ÒºÀ/.iotlink/sdk/IoT_LINK/iot_link/network/tcpip/esp8266\esp8266_tcpip.c ****     {
 771              		.loc 1 338 7 view .LVU205
 772 0050 0028     		cmp	r0, #0
 773 0052 DAD0     		beq	.L52
 340:C:/Users/²Ü¼ÒºÀ/.iotlink/sdk/IoT_LINK/iot_link/network/tcpip/esp8266\esp8266_tcpip.c ****             sock->isConnect = 1;
 774              		.loc 1 340 9 is_stmt 1 view .LVU206
 340:C:/Users/²Ü¼ÒºÀ/.iotlink/sdk/IoT_LINK/iot_link/network/tcpip/esp8266\esp8266_tcpip.c ****             sock->isConnect = 1;
 775              		.loc 1 340 12 is_stmt 0 view .LVU207
 776 0054 0C49     		ldr	r1, .L67+8
 777 0056 02A8     		add	r0, sp, #8
 778 0058 FFF7FEFF 		bl	esp8266_atcmd
 779              	.LVL74:
 340:C:/Users/²Ü¼ÒºÀ/.iotlink/sdk/IoT_LINK/iot_link/network/tcpip/esp8266\esp8266_tcpip.c ****             sock->isConnect = 1;
 780              		.loc 1 340 11 view .LVU208
 781 005c 68B1     		cbz	r0, .L56
 341:C:/Users/²Ü¼ÒºÀ/.iotlink/sdk/IoT_LINK/iot_link/network/tcpip/esp8266\esp8266_tcpip.c ****             ret = 0;
 782              		.loc 1 341 13 is_stmt 1 view .LVU209
 341:C:/Users/²Ü¼ÒºÀ/.iotlink/sdk/IoT_LINK/iot_link/network/tcpip/esp8266\esp8266_tcpip.c ****             ret = 0;
 783              		.loc 1 341 29 is_stmt 0 view .LVU210
 784 005e 0123     		movs	r3, #1
 785 0060 3B61     		str	r3, [r7, #16]
 342:C:/Users/²Ü¼ÒºÀ/.iotlink/sdk/IoT_LINK/iot_link/network/tcpip/esp8266\esp8266_tcpip.c ****         }
 786              		.loc 1 342 13 is_stmt 1 view .LVU211
 787              	.LVL75:
 342:C:/Users/²Ü¼ÒºÀ/.iotlink/sdk/IoT_LINK/iot_link/network/tcpip/esp8266\esp8266_tcpip.c ****         }
 788              		.loc 1 342 17 is_stmt 0 view .LVU212
 789 0062 0024     		movs	r4, #0
 790              	.LVL76:
 791              	.L55:
 344:C:/Users/²Ü¼ÒºÀ/.iotlink/sdk/IoT_LINK/iot_link/network/tcpip/esp8266\esp8266_tcpip.c ****     }
 792              		.loc 1 344 9 is_stmt 1 view .LVU213
 793 0064 3068     		ldr	r0, [r6]
 794 0066 FFF7FEFF 		bl	osal_mutex_unlock
 795              	.LVL77:
ARM GAS  C:\Users\²Ü¼ÒºÀ\AppData\Local\Temp\cci6pW3E.s 			page 27


 344:C:/Users/²Ü¼ÒºÀ/.iotlink/sdk/IoT_LINK/iot_link/network/tcpip/esp8266\esp8266_tcpip.c ****     }
 796              		.loc 1 344 9 is_stmt 0 view .LVU214
 797 006a D0E7     		b	.L49
 798              	.LVL78:
 799              	.L53:
 331:C:/Users/²Ü¼ÒºÀ/.iotlink/sdk/IoT_LINK/iot_link/network/tcpip/esp8266\esp8266_tcpip.c ****         (void) snprintf(cmd,CN_STACK_STRMAX,"AT+CIPSTART=%d,\"TCP\",\"%s\",%d\r\n",fd,ip,serverPort
 800              		.loc 1 331 10 is_stmt 1 view .LVU215
 331:C:/Users/²Ü¼ÒºÀ/.iotlink/sdk/IoT_LINK/iot_link/network/tcpip/esp8266\esp8266_tcpip.c ****         (void) snprintf(cmd,CN_STACK_STRMAX,"AT+CIPSTART=%d,\"TCP\",\"%s\",%d\r\n",fd,ip,serverPort
 801              		.loc 1 331 12 is_stmt 0 view .LVU216
 802 006c 012B     		cmp	r3, #1
 803 006e CCD1     		bne	.L52
 332:C:/Users/²Ü¼ÒºÀ/.iotlink/sdk/IoT_LINK/iot_link/network/tcpip/esp8266\esp8266_tcpip.c ****     }
 804              		.loc 1 332 9 is_stmt 1 view .LVU217
 332:C:/Users/²Ü¼ÒºÀ/.iotlink/sdk/IoT_LINK/iot_link/network/tcpip/esp8266\esp8266_tcpip.c ****     }
 805              		.loc 1 332 16 is_stmt 0 view .LVU218
 806 0070 CDE90005 		strd	r0, r5, [sp]
 807 0074 054A     		ldr	r2, .L67+12
 808 0076 2346     		mov	r3, r4
 809 0078 E3E7     		b	.L66
 810              	.LVL79:
 811              	.L56:
 316:C:/Users/²Ü¼ÒºÀ/.iotlink/sdk/IoT_LINK/iot_link/network/tcpip/esp8266\esp8266_tcpip.c ****     char *ip;
 812              		.loc 1 316 9 view .LVU219
 813 007a 4FF0FF34 		mov	r4, #-1
 814              	.LVL80:
 316:C:/Users/²Ü¼ÒºÀ/.iotlink/sdk/IoT_LINK/iot_link/network/tcpip/esp8266\esp8266_tcpip.c ****     char *ip;
 815              		.loc 1 316 9 view .LVU220
 816 007e F1E7     		b	.L55
 817              	.L68:
 818              		.align	2
 819              	.L67:
 820 0080 00000000 		.word	.LANCHOR0
 821 0084 00000000 		.word	.LC3
 822 0088 11000000 		.word	.LC1
 823 008c 1F000000 		.word	.LC4
 824              		.cfi_endproc
 825              	.LFE14:
 827              		.section	.text.Esp8266Socket,"ax",%progbits
 828              		.align	1
 829              		.syntax unified
 830              		.thumb
 831              		.thumb_func
 832              		.fpu fpv4-sp-d16
 834              	Esp8266Socket:
 835              	.LVL81:
 836              	.LFB10:
 272:C:/Users/²Ü¼ÒºÀ/.iotlink/sdk/IoT_LINK/iot_link/network/tcpip/esp8266\esp8266_tcpip.c **** 
 837              		.loc 1 272 1 is_stmt 1 view -0
 838              		.cfi_startproc
 839              		@ args = 0, pretend = 0, frame = 0
 840              		@ frame_needed = 0, uses_anonymous_args = 0
 274:C:/Users/²Ü¼ÒºÀ/.iotlink/sdk/IoT_LINK/iot_link/network/tcpip/esp8266\esp8266_tcpip.c ****     Esp8266Sock_t *sock;
 841              		.loc 1 274 5 view .LVU222
 275:C:/Users/²Ü¼ÒºÀ/.iotlink/sdk/IoT_LINK/iot_link/network/tcpip/esp8266\esp8266_tcpip.c **** 
 842              		.loc 1 275 5 view .LVU223
 277:C:/Users/²Ü¼ÒºÀ/.iotlink/sdk/IoT_LINK/iot_link/network/tcpip/esp8266\esp8266_tcpip.c ****     if(NULL == sock){
 843              		.loc 1 277 5 view .LVU224
ARM GAS  C:\Users\²Ü¼ÒºÀ\AppData\Local\Temp\cci6pW3E.s 			page 28


 272:C:/Users/²Ü¼ÒºÀ/.iotlink/sdk/IoT_LINK/iot_link/network/tcpip/esp8266\esp8266_tcpip.c **** 
 844              		.loc 1 272 1 is_stmt 0 view .LVU225
 845 0000 2DE9F341 		push	{r0, r1, r4, r5, r6, r7, r8, lr}
 846              	.LCFI13:
 847              		.cfi_def_cfa_offset 32
 848              		.cfi_offset 4, -24
 849              		.cfi_offset 5, -20
 850              		.cfi_offset 6, -16
 851              		.cfi_offset 7, -12
 852              		.cfi_offset 8, -8
 853              		.cfi_offset 14, -4
 272:C:/Users/²Ü¼ÒºÀ/.iotlink/sdk/IoT_LINK/iot_link/network/tcpip/esp8266\esp8266_tcpip.c **** 
 854              		.loc 1 272 1 view .LVU226
 855 0004 8046     		mov	r8, r0
 277:C:/Users/²Ü¼ÒºÀ/.iotlink/sdk/IoT_LINK/iot_link/network/tcpip/esp8266\esp8266_tcpip.c ****     if(NULL == sock){
 856              		.loc 1 277 12 view .LVU227
 857 0006 40F62800 		movw	r0, #2088
 858              	.LVL82:
 272:C:/Users/²Ü¼ÒºÀ/.iotlink/sdk/IoT_LINK/iot_link/network/tcpip/esp8266\esp8266_tcpip.c **** 
 859              		.loc 1 272 1 view .LVU228
 860 000a 0F46     		mov	r7, r1
 861 000c 1646     		mov	r6, r2
 277:C:/Users/²Ü¼ÒºÀ/.iotlink/sdk/IoT_LINK/iot_link/network/tcpip/esp8266\esp8266_tcpip.c ****     if(NULL == sock){
 862              		.loc 1 277 12 view .LVU229
 863 000e FFF7FEFF 		bl	osal_malloc
 864              	.LVL83:
 278:C:/Users/²Ü¼ÒºÀ/.iotlink/sdk/IoT_LINK/iot_link/network/tcpip/esp8266\esp8266_tcpip.c ****         return fd;
 865              		.loc 1 278 5 is_stmt 1 view .LVU230
 278:C:/Users/²Ü¼ÒºÀ/.iotlink/sdk/IoT_LINK/iot_link/network/tcpip/esp8266\esp8266_tcpip.c ****         return fd;
 866              		.loc 1 278 7 is_stmt 0 view .LVU231
 867 0012 0546     		mov	r5, r0
 868 0014 A8B1     		cbz	r0, .L76
 281:C:/Users/²Ü¼ÒºÀ/.iotlink/sdk/IoT_LINK/iot_link/network/tcpip/esp8266\esp8266_tcpip.c ****     sock->domain = domain;
 869              		.loc 1 281 5 is_stmt 1 view .LVU232
 870 0016 0024     		movs	r4, #0
 871 0018 2346     		mov	r3, r4
 872 001a 00F58561 		add	r1, r0, #1064
 873 001e 4FF48062 		mov	r2, #1024
 874 0022 0094     		str	r4, [sp]
 875 0024 1830     		adds	r0, r0, #24
 876              	.LVL84:
 281:C:/Users/²Ü¼ÒºÀ/.iotlink/sdk/IoT_LINK/iot_link/network/tcpip/esp8266\esp8266_tcpip.c ****     sock->domain = domain;
 877              		.loc 1 281 5 is_stmt 0 view .LVU233
 878 0026 FFF7FEFF 		bl	ring_buffer_init
 879              	.LVL85:
 282:C:/Users/²Ü¼ÒºÀ/.iotlink/sdk/IoT_LINK/iot_link/network/tcpip/esp8266\esp8266_tcpip.c ****     sock->type = type;
 880              		.loc 1 282 5 is_stmt 1 view .LVU234
 284:C:/Users/²Ü¼ÒºÀ/.iotlink/sdk/IoT_LINK/iot_link/network/tcpip/esp8266\esp8266_tcpip.c **** 
 881              		.loc 1 284 20 is_stmt 0 view .LVU235
 882 002a EE60     		str	r6, [r5, #12]
 883              	.LBB37:
 884              	.LBB38:
 113:C:/Users/²Ü¼ÒºÀ/.iotlink/sdk/IoT_LINK/iot_link/network/tcpip/esp8266\esp8266_tcpip.c ****         for(int i = 0;i< CN_ESP8266_SOCKMAX; i++){
 885              		.loc 1 113 8 view .LVU236
 886 002c 124E     		ldr	r6, .L81
 887              	.LVL86:
 113:C:/Users/²Ü¼ÒºÀ/.iotlink/sdk/IoT_LINK/iot_link/network/tcpip/esp8266\esp8266_tcpip.c ****         for(int i = 0;i< CN_ESP8266_SOCKMAX; i++){
ARM GAS  C:\Users\²Ü¼ÒºÀ\AppData\Local\Temp\cci6pW3E.s 			page 29


 888              		.loc 1 113 8 view .LVU237
 889              	.LBE38:
 890              	.LBE37:
 283:C:/Users/²Ü¼ÒºÀ/.iotlink/sdk/IoT_LINK/iot_link/network/tcpip/esp8266\esp8266_tcpip.c ****     sock->protocol = protocol;
 891              		.loc 1 283 16 view .LVU238
 892 002e C5E90187 		strd	r8, r7, [r5, #4]
 284:C:/Users/²Ü¼ÒºÀ/.iotlink/sdk/IoT_LINK/iot_link/network/tcpip/esp8266\esp8266_tcpip.c **** 
 893              		.loc 1 284 5 is_stmt 1 view .LVU239
 286:C:/Users/²Ü¼ÒºÀ/.iotlink/sdk/IoT_LINK/iot_link/network/tcpip/esp8266\esp8266_tcpip.c ****     if(fd == -1)
 894              		.loc 1 286 5 view .LVU240
 895              	.LVL87:
 896              	.LBB44:
 897              	.LBI37:
 109:C:/Users/²Ü¼ÒºÀ/.iotlink/sdk/IoT_LINK/iot_link/network/tcpip/esp8266\esp8266_tcpip.c **** {
 898              		.loc 1 109 12 view .LVU241
 899              	.LBB41:
 112:C:/Users/²Ü¼ÒºÀ/.iotlink/sdk/IoT_LINK/iot_link/network/tcpip/esp8266\esp8266_tcpip.c ****     if(osal_mutex_lock(gEsp8266CB.atLock)){
 900              		.loc 1 112 5 view .LVU242
 113:C:/Users/²Ü¼ÒºÀ/.iotlink/sdk/IoT_LINK/iot_link/network/tcpip/esp8266\esp8266_tcpip.c ****         for(int i = 0;i< CN_ESP8266_SOCKMAX; i++){
 901              		.loc 1 113 5 view .LVU243
 113:C:/Users/²Ü¼ÒºÀ/.iotlink/sdk/IoT_LINK/iot_link/network/tcpip/esp8266\esp8266_tcpip.c ****         for(int i = 0;i< CN_ESP8266_SOCKMAX; i++){
 902              		.loc 1 113 8 is_stmt 0 view .LVU244
 903 0032 3068     		ldr	r0, [r6]
 904 0034 FFF7FEFF 		bl	osal_mutex_lock
 905              	.LVL88:
 113:C:/Users/²Ü¼ÒºÀ/.iotlink/sdk/IoT_LINK/iot_link/network/tcpip/esp8266\esp8266_tcpip.c ****         for(int i = 0;i< CN_ESP8266_SOCKMAX; i++){
 906              		.loc 1 113 8 view .LVU245
 907 0038 3346     		mov	r3, r6
 113:C:/Users/²Ü¼ÒºÀ/.iotlink/sdk/IoT_LINK/iot_link/network/tcpip/esp8266\esp8266_tcpip.c ****         for(int i = 0;i< CN_ESP8266_SOCKMAX; i++){
 908              		.loc 1 113 7 view .LVU246
 909 003a 28B9     		cbnz	r0, .L71
 910              	.LVL89:
 911              	.L75:
 113:C:/Users/²Ü¼ÒºÀ/.iotlink/sdk/IoT_LINK/iot_link/network/tcpip/esp8266\esp8266_tcpip.c ****         for(int i = 0;i< CN_ESP8266_SOCKMAX; i++){
 912              		.loc 1 113 7 view .LVU247
 913              	.LBE41:
 914              	.LBE44:
 289:C:/Users/²Ü¼ÒºÀ/.iotlink/sdk/IoT_LINK/iot_link/network/tcpip/esp8266\esp8266_tcpip.c ****     }
 915              		.loc 1 289 9 is_stmt 1 view .LVU248
 916 003c 2846     		mov	r0, r5
 917 003e FFF7FEFF 		bl	osal_free
 918              	.LVL90:
 919              	.L76:
 279:C:/Users/²Ü¼ÒºÀ/.iotlink/sdk/IoT_LINK/iot_link/network/tcpip/esp8266\esp8266_tcpip.c ****     }
 920              		.loc 1 279 16 is_stmt 0 view .LVU249
 921 0042 4FF0FF34 		mov	r4, #-1
 922 0046 0DE0     		b	.L69
 923              	.LVL91:
 924              	.L71:
 279:C:/Users/²Ü¼ÒºÀ/.iotlink/sdk/IoT_LINK/iot_link/network/tcpip/esp8266\esp8266_tcpip.c ****     }
 925              		.loc 1 279 16 view .LVU250
 926 0048 06F10C02 		add	r2, r6, #12
 927              	.L74:
 928              	.LVL92:
 929              	.LBB45:
 930              	.LBB42:
 931              	.LBB39:
ARM GAS  C:\Users\²Ü¼ÒºÀ\AppData\Local\Temp\cci6pW3E.s 			page 30


 115:C:/Users/²Ü¼ÒºÀ/.iotlink/sdk/IoT_LINK/iot_link/network/tcpip/esp8266\esp8266_tcpip.c ****                 fd = i;
 932              		.loc 1 115 13 is_stmt 1 view .LVU251
 115:C:/Users/²Ü¼ÒºÀ/.iotlink/sdk/IoT_LINK/iot_link/network/tcpip/esp8266\esp8266_tcpip.c ****                 fd = i;
 933              		.loc 1 115 36 is_stmt 0 view .LVU252
 934 004c 52F8041B 		ldr	r1, [r2], #4
 115:C:/Users/²Ü¼ÒºÀ/.iotlink/sdk/IoT_LINK/iot_link/network/tcpip/esp8266\esp8266_tcpip.c ****                 fd = i;
 935              		.loc 1 115 15 view .LVU253
 936 0050 61B9     		cbnz	r1, .L72
 116:C:/Users/²Ü¼ÒºÀ/.iotlink/sdk/IoT_LINK/iot_link/network/tcpip/esp8266\esp8266_tcpip.c ****                 sock->sockfd =fd;
 937              		.loc 1 116 17 is_stmt 1 view .LVU254
 938              	.LVL93:
 117:C:/Users/²Ü¼ÒºÀ/.iotlink/sdk/IoT_LINK/iot_link/network/tcpip/esp8266\esp8266_tcpip.c ****                 gEsp8266CB.sockArray[i] = sock;
 939              		.loc 1 117 17 view .LVU255
 118:C:/Users/²Ü¼ÒºÀ/.iotlink/sdk/IoT_LINK/iot_link/network/tcpip/esp8266\esp8266_tcpip.c ****                 break;
 940              		.loc 1 118 41 is_stmt 0 view .LVU256
 941 0052 03EB8402 		add	r2, r3, r4, lsl #2
 117:C:/Users/²Ü¼ÒºÀ/.iotlink/sdk/IoT_LINK/iot_link/network/tcpip/esp8266\esp8266_tcpip.c ****                 gEsp8266CB.sockArray[i] = sock;
 942              		.loc 1 117 30 view .LVU257
 943 0056 2C60     		str	r4, [r5]
 118:C:/Users/²Ü¼ÒºÀ/.iotlink/sdk/IoT_LINK/iot_link/network/tcpip/esp8266\esp8266_tcpip.c ****                 break;
 944              		.loc 1 118 17 is_stmt 1 view .LVU258
 118:C:/Users/²Ü¼ÒºÀ/.iotlink/sdk/IoT_LINK/iot_link/network/tcpip/esp8266\esp8266_tcpip.c ****                 break;
 945              		.loc 1 118 41 is_stmt 0 view .LVU259
 946 0058 D560     		str	r5, [r2, #12]
 119:C:/Users/²Ü¼ÒºÀ/.iotlink/sdk/IoT_LINK/iot_link/network/tcpip/esp8266\esp8266_tcpip.c ****             }
 947              		.loc 1 119 17 is_stmt 1 view .LVU260
 948              	.LVL94:
 949              	.L73:
 119:C:/Users/²Ü¼ÒºÀ/.iotlink/sdk/IoT_LINK/iot_link/network/tcpip/esp8266\esp8266_tcpip.c ****             }
 950              		.loc 1 119 17 is_stmt 0 view .LVU261
 951              	.LBE39:
 123:C:/Users/²Ü¼ÒºÀ/.iotlink/sdk/IoT_LINK/iot_link/network/tcpip/esp8266\esp8266_tcpip.c ****     }
 952              		.loc 1 123 9 is_stmt 1 view .LVU262
 953 005a 1868     		ldr	r0, [r3]
 954 005c FFF7FEFF 		bl	osal_mutex_unlock
 955              	.LVL95:
 125:C:/Users/²Ü¼ÒºÀ/.iotlink/sdk/IoT_LINK/iot_link/network/tcpip/esp8266\esp8266_tcpip.c **** }
 956              		.loc 1 125 5 view .LVU263
 125:C:/Users/²Ü¼ÒºÀ/.iotlink/sdk/IoT_LINK/iot_link/network/tcpip/esp8266\esp8266_tcpip.c **** }
 957              		.loc 1 125 5 is_stmt 0 view .LVU264
 958              	.LBE42:
 959              	.LBE45:
 287:C:/Users/²Ü¼ÒºÀ/.iotlink/sdk/IoT_LINK/iot_link/network/tcpip/esp8266\esp8266_tcpip.c ****     {
 960              		.loc 1 287 5 is_stmt 1 view .LVU265
 287:C:/Users/²Ü¼ÒºÀ/.iotlink/sdk/IoT_LINK/iot_link/network/tcpip/esp8266\esp8266_tcpip.c ****     {
 961              		.loc 1 287 7 is_stmt 0 view .LVU266
 962 0060 631C     		adds	r3, r4, #1
 963 0062 EBD0     		beq	.L75
 964              	.LVL96:
 965              	.L69:
 293:C:/Users/²Ü¼ÒºÀ/.iotlink/sdk/IoT_LINK/iot_link/network/tcpip/esp8266\esp8266_tcpip.c **** 
 966              		.loc 1 293 1 view .LVU267
 967 0064 2046     		mov	r0, r4
 968 0066 02B0     		add	sp, sp, #8
 969              	.LCFI14:
 970              		.cfi_remember_state
 971              		.cfi_def_cfa_offset 24
ARM GAS  C:\Users\²Ü¼ÒºÀ\AppData\Local\Temp\cci6pW3E.s 			page 31


 972              		@ sp needed
 973 0068 BDE8F081 		pop	{r4, r5, r6, r7, r8, pc}
 974              	.LVL97:
 975              	.L72:
 976              	.LCFI15:
 977              		.cfi_restore_state
 978              	.LBB46:
 979              	.LBB43:
 980              	.LBB40:
 114:C:/Users/²Ü¼ÒºÀ/.iotlink/sdk/IoT_LINK/iot_link/network/tcpip/esp8266\esp8266_tcpip.c ****             if(gEsp8266CB.sockArray[i] == NULL){
 981              		.loc 1 114 46 is_stmt 1 view .LVU268
 114:C:/Users/²Ü¼ÒºÀ/.iotlink/sdk/IoT_LINK/iot_link/network/tcpip/esp8266\esp8266_tcpip.c ****             if(gEsp8266CB.sockArray[i] == NULL){
 982              		.loc 1 114 47 is_stmt 0 view .LVU269
 983 006c 0134     		adds	r4, r4, #1
 984              	.LVL98:
 114:C:/Users/²Ü¼ÒºÀ/.iotlink/sdk/IoT_LINK/iot_link/network/tcpip/esp8266\esp8266_tcpip.c ****             if(gEsp8266CB.sockArray[i] == NULL){
 985              		.loc 1 114 23 is_stmt 1 view .LVU270
 114:C:/Users/²Ü¼ÒºÀ/.iotlink/sdk/IoT_LINK/iot_link/network/tcpip/esp8266\esp8266_tcpip.c ****             if(gEsp8266CB.sockArray[i] == NULL){
 986              		.loc 1 114 9 is_stmt 0 view .LVU271
 987 006e 052C     		cmp	r4, #5
 988 0070 ECD1     		bne	.L74
 989              	.LBE40:
 112:C:/Users/²Ü¼ÒºÀ/.iotlink/sdk/IoT_LINK/iot_link/network/tcpip/esp8266\esp8266_tcpip.c ****     if(osal_mutex_lock(gEsp8266CB.atLock)){
 990              		.loc 1 112 9 view .LVU272
 991 0072 4FF0FF34 		mov	r4, #-1
 992              	.LVL99:
 112:C:/Users/²Ü¼ÒºÀ/.iotlink/sdk/IoT_LINK/iot_link/network/tcpip/esp8266\esp8266_tcpip.c ****     if(osal_mutex_lock(gEsp8266CB.atLock)){
 993              		.loc 1 112 9 view .LVU273
 994 0076 F0E7     		b	.L73
 995              	.L82:
 996              		.align	2
 997              	.L81:
 998 0078 00000000 		.word	.LANCHOR0
 999              	.LBE43:
 1000              	.LBE46:
 1001              		.cfi_endproc
 1002              	.LFE10:
 1004              		.section	.rodata.Esp8266MsgDeal.str1.1,"aMS",%progbits,1
 1005              	.LC5:
 1006 0000 5B25735D 		.ascii	"[%s][%u][%s] invalid frame:%d byte:%s\015\012\000"
 1006      5B25755D 
 1006      5B25735D 
 1006      20696E76 
 1006      616C6964 
 1007              	.LC6:
 1008 0028 5B25735D 		.ascii	"[%s][%u][%s] format error:CAN'T FIND ',fd'\015\012\000"
 1008      5B25755D 
 1008      5B25735D 
 1008      20666F72 
 1008      6D617420 
 1009              	.LC7:
 1010 0055 5B25735D 		.ascii	"[%s][%u][%s] format error:CAN'T FIND ',LEN'\015\012"
 1010      5B25755D 
 1010      5B25735D 
 1010      20666F72 
 1010      6D617420 
 1011 0082 00       		.ascii	"\000"
ARM GAS  C:\Users\²Ü¼ÒºÀ\AppData\Local\Temp\cci6pW3E.s 			page 32


 1012              	.LC8:
 1013 0083 0D0A2B49 		.ascii	"\015\012+IPD\000"
 1013      504400
 1014              	.LC9:
 1015 008a 53454E44 		.ascii	"SEND OK\000"
 1015      204F4B00 
 1016              		.section	.text.Esp8266MsgDeal,"ax",%progbits
 1017              		.align	1
 1018              		.syntax unified
 1019              		.thumb
 1020              		.thumb_func
 1021              		.fpu fpv4-sp-d16
 1023              	Esp8266MsgDeal:
 1024              	.LVL100:
 1025              	.LFB9:
 239:C:/Users/²Ü¼ÒºÀ/.iotlink/sdk/IoT_LINK/iot_link/network/tcpip/esp8266\esp8266_tcpip.c ****     char *dataNxt = NULL;
 1026              		.loc 1 239 1 is_stmt 1 view -0
 1027              		.cfi_startproc
 1028              		@ args = 0, pretend = 0, frame = 16
 1029              		@ frame_needed = 0, uses_anonymous_args = 0
 240:C:/Users/²Ü¼ÒºÀ/.iotlink/sdk/IoT_LINK/iot_link/network/tcpip/esp8266\esp8266_tcpip.c ****     int dataLeft;
 1030              		.loc 1 240 5 view .LVU275
 241:C:/Users/²Ü¼ÒºÀ/.iotlink/sdk/IoT_LINK/iot_link/network/tcpip/esp8266\esp8266_tcpip.c **** 
 1031              		.loc 1 241 5 view .LVU276
 243:C:/Users/²Ü¼ÒºÀ/.iotlink/sdk/IoT_LINK/iot_link/network/tcpip/esp8266\esp8266_tcpip.c ****     dataLeft = len;
 1032              		.loc 1 243 5 view .LVU277
 239:C:/Users/²Ü¼ÒºÀ/.iotlink/sdk/IoT_LINK/iot_link/network/tcpip/esp8266\esp8266_tcpip.c ****     char *dataNxt = NULL;
 1033              		.loc 1 239 1 is_stmt 0 view .LVU278
 1034 0000 2DE9F04F 		push	{r4, r5, r6, r7, r8, r9, r10, fp, lr}
 1035              	.LCFI16:
 1036              		.cfi_def_cfa_offset 36
 1037              		.cfi_offset 4, -36
 1038              		.cfi_offset 5, -32
 1039              		.cfi_offset 6, -28
 1040              		.cfi_offset 7, -24
 1041              		.cfi_offset 8, -20
 1042              		.cfi_offset 9, -16
 1043              		.cfi_offset 10, -12
 1044              		.cfi_offset 11, -8
 1045              		.cfi_offset 14, -4
 1046 0004 87B0     		sub	sp, sp, #28
 1047              	.LCFI17:
 1048              		.cfi_def_cfa_offset 64
 1049              	.LVL101:
 244:C:/Users/²Ü¼ÒºÀ/.iotlink/sdk/IoT_LINK/iot_link/network/tcpip/esp8266\esp8266_tcpip.c **** 
 1050              		.loc 1 244 5 is_stmt 1 view .LVU279
 246:C:/Users/²Ü¼ÒºÀ/.iotlink/sdk/IoT_LINK/iot_link/network/tcpip/esp8266\esp8266_tcpip.c ****         if(osal_mutex_lock(gEsp8266CB.ioLock)){
 1051              		.loc 1 246 5 view .LVU280
 247:C:/Users/²Ü¼ÒºÀ/.iotlink/sdk/IoT_LINK/iot_link/network/tcpip/esp8266\esp8266_tcpip.c ****             dataNxt = Esp8266MsgDealSingle(dataNxt, dataLeft);
 1052              		.loc 1 247 12 is_stmt 0 view .LVU281
 1053 0006 DFF89481 		ldr	r8, .L121+12
 1054              	.LBB51:
 1055              	.LBB52:
 207:C:/Users/²Ü¼ÒºÀ/.iotlink/sdk/IoT_LINK/iot_link/network/tcpip/esp8266\esp8266_tcpip.c ****         return ret; //format error
 1056              		.loc 1 207 9 view .LVU282
 1057 000a DFF8A091 		ldr	r9, .L121+28
 1058              	.LBE52:
ARM GAS  C:\Users\²Ü¼ÒºÀ\AppData\Local\Temp\cci6pW3E.s 			page 33


 1059              	.LBE51:
 239:C:/Users/²Ü¼ÒºÀ/.iotlink/sdk/IoT_LINK/iot_link/network/tcpip/esp8266\esp8266_tcpip.c ****     char *dataNxt = NULL;
 1060              		.loc 1 239 1 view .LVU283
 1061 000e 0291     		str	r1, [sp, #8]
 1062              	.LVL102:
 239:C:/Users/²Ü¼ÒºÀ/.iotlink/sdk/IoT_LINK/iot_link/network/tcpip/esp8266\esp8266_tcpip.c ****     char *dataNxt = NULL;
 1063              		.loc 1 239 1 view .LVU284
 1064 0010 1546     		mov	r5, r2
 244:C:/Users/²Ü¼ÒºÀ/.iotlink/sdk/IoT_LINK/iot_link/network/tcpip/esp8266\esp8266_tcpip.c **** 
 1065              		.loc 1 244 14 view .LVU285
 1066 0012 1646     		mov	r6, r2
 243:C:/Users/²Ü¼ÒºÀ/.iotlink/sdk/IoT_LINK/iot_link/network/tcpip/esp8266\esp8266_tcpip.c ****     dataLeft = len;
 1067              		.loc 1 243 13 view .LVU286
 1068 0014 0C46     		mov	r4, r1
 1069              	.LVL103:
 1070              	.L84:
 246:C:/Users/²Ü¼ÒºÀ/.iotlink/sdk/IoT_LINK/iot_link/network/tcpip/esp8266\esp8266_tcpip.c ****         if(osal_mutex_lock(gEsp8266CB.ioLock)){
 1071              		.loc 1 246 10 is_stmt 1 view .LVU287
 246:C:/Users/²Ü¼ÒºÀ/.iotlink/sdk/IoT_LINK/iot_link/network/tcpip/esp8266\esp8266_tcpip.c ****         if(osal_mutex_lock(gEsp8266CB.ioLock)){
 1072              		.loc 1 246 52 is_stmt 0 view .LVU288
 1073 0016 029B     		ldr	r3, [sp, #8]
 1074 0018 03EB050A 		add	r10, r3, r5
 246:C:/Users/²Ü¼ÒºÀ/.iotlink/sdk/IoT_LINK/iot_link/network/tcpip/esp8266\esp8266_tcpip.c ****         if(osal_mutex_lock(gEsp8266CB.ioLock)){
 1075              		.loc 1 246 10 view .LVU289
 1076 001c 5445     		cmp	r4, r10
 1077 001e 2BD2     		bcs	.L97
 247:C:/Users/²Ü¼ÒºÀ/.iotlink/sdk/IoT_LINK/iot_link/network/tcpip/esp8266\esp8266_tcpip.c ****             dataNxt = Esp8266MsgDealSingle(dataNxt, dataLeft);
 1078              		.loc 1 247 9 is_stmt 1 view .LVU290
 247:C:/Users/²Ü¼ÒºÀ/.iotlink/sdk/IoT_LINK/iot_link/network/tcpip/esp8266\esp8266_tcpip.c ****             dataNxt = Esp8266MsgDealSingle(dataNxt, dataLeft);
 1079              		.loc 1 247 12 is_stmt 0 view .LVU291
 1080 0020 D8F80400 		ldr	r0, [r8, #4]
 1081 0024 FFF7FEFF 		bl	osal_mutex_lock
 1082              	.LVL104:
 247:C:/Users/²Ü¼ÒºÀ/.iotlink/sdk/IoT_LINK/iot_link/network/tcpip/esp8266\esp8266_tcpip.c ****             dataNxt = Esp8266MsgDealSingle(dataNxt, dataLeft);
 1083              		.loc 1 247 11 view .LVU292
 1084 0028 D8B1     		cbz	r0, .L85
 248:C:/Users/²Ü¼ÒºÀ/.iotlink/sdk/IoT_LINK/iot_link/network/tcpip/esp8266\esp8266_tcpip.c ****             osal_mutex_unlock(gEsp8266CB.ioLock);
 1085              		.loc 1 248 13 is_stmt 1 view .LVU293
 1086              	.LVL105:
 1087              	.LBB57:
 1088              	.LBI51:
 171:C:/Users/²Ü¼ÒºÀ/.iotlink/sdk/IoT_LINK/iot_link/network/tcpip/esp8266\esp8266_tcpip.c **** {
 1089              		.loc 1 171 14 view .LVU294
 1090              	.LBB55:
 173:C:/Users/²Ü¼ÒºÀ/.iotlink/sdk/IoT_LINK/iot_link/network/tcpip/esp8266\esp8266_tcpip.c ****     char *data;
 1091              		.loc 1 173 5 view .LVU295
 174:C:/Users/²Ü¼ÒºÀ/.iotlink/sdk/IoT_LINK/iot_link/network/tcpip/esp8266\esp8266_tcpip.c ****     char  *str;
 1092              		.loc 1 174 5 view .LVU296
 175:C:/Users/²Ü¼ÒºÀ/.iotlink/sdk/IoT_LINK/iot_link/network/tcpip/esp8266\esp8266_tcpip.c ****     char  *ret = NULL;
 1093              		.loc 1 175 5 view .LVU297
 176:C:/Users/²Ü¼ÒºÀ/.iotlink/sdk/IoT_LINK/iot_link/network/tcpip/esp8266\esp8266_tcpip.c **** 
 1094              		.loc 1 176 5 view .LVU298
 178:C:/Users/²Ü¼ÒºÀ/.iotlink/sdk/IoT_LINK/iot_link/network/tcpip/esp8266\esp8266_tcpip.c ****     int fd = 0;
 1095              		.loc 1 178 5 view .LVU299
 179:C:/Users/²Ü¼ÒºÀ/.iotlink/sdk/IoT_LINK/iot_link/network/tcpip/esp8266\esp8266_tcpip.c **** 
 1096              		.loc 1 179 5 view .LVU300
 181:C:/Users/²Ü¼ÒºÀ/.iotlink/sdk/IoT_LINK/iot_link/network/tcpip/esp8266\esp8266_tcpip.c ****     ret = msg + len;
ARM GAS  C:\Users\²Ü¼ÒºÀ\AppData\Local\Temp\cci6pW3E.s 			page 34


 1097              		.loc 1 181 5 view .LVU301
 182:C:/Users/²Ü¼ÒºÀ/.iotlink/sdk/IoT_LINK/iot_link/network/tcpip/esp8266\esp8266_tcpip.c ****     if(len <strlen(CN_ESP8266_RCVINDEX)){
 1098              		.loc 1 182 5 view .LVU302
 183:C:/Users/²Ü¼ÒºÀ/.iotlink/sdk/IoT_LINK/iot_link/network/tcpip/esp8266\esp8266_tcpip.c ****         LINK_LOG_ERROR("invalid frame:%d byte:%s",len,(char *)data);
 1099              		.loc 1 183 7 is_stmt 0 view .LVU303
 1100 002a 052E     		cmp	r6, #5
 182:C:/Users/²Ü¼ÒºÀ/.iotlink/sdk/IoT_LINK/iot_link/network/tcpip/esp8266\esp8266_tcpip.c ****     if(len <strlen(CN_ESP8266_RCVINDEX)){
 1101              		.loc 1 182 9 view .LVU304
 1102 002c 04EB0607 		add	r7, r4, r6
 1103              	.LVL106:
 183:C:/Users/²Ü¼ÒºÀ/.iotlink/sdk/IoT_LINK/iot_link/network/tcpip/esp8266\esp8266_tcpip.c ****         LINK_LOG_ERROR("invalid frame:%d byte:%s",len,(char *)data);
 1104              		.loc 1 183 5 is_stmt 1 view .LVU305
 183:C:/Users/²Ü¼ÒºÀ/.iotlink/sdk/IoT_LINK/iot_link/network/tcpip/esp8266\esp8266_tcpip.c ****         LINK_LOG_ERROR("invalid frame:%d byte:%s",len,(char *)data);
 1105              		.loc 1 183 7 is_stmt 0 view .LVU306
 1106 0030 3CD8     		bhi	.L86
 184:C:/Users/²Ü¼ÒºÀ/.iotlink/sdk/IoT_LINK/iot_link/network/tcpip/esp8266\esp8266_tcpip.c ****         return ret;
 1107              		.loc 1 184 9 is_stmt 1 view .LVU307
 184:C:/Users/²Ü¼ÒºÀ/.iotlink/sdk/IoT_LINK/iot_link/network/tcpip/esp8266\esp8266_tcpip.c ****         return ret;
 1108              		.loc 1 184 9 view .LVU308
 184:C:/Users/²Ü¼ÒºÀ/.iotlink/sdk/IoT_LINK/iot_link/network/tcpip/esp8266\esp8266_tcpip.c ****         return ret;
 1109              		.loc 1 184 9 view .LVU309
 1110 0032 0420     		movs	r0, #4
 1111 0034 FFF7FEFF 		bl	link_log_level_name
 1112              	.LVL107:
 1113 0038 8346     		mov	fp, r0
 1114 003a FFF7FEFF 		bl	osal_sys_time
 1115              	.LVL108:
 1116 003e CDE90064 		strd	r6, r4, [sp]
 1117 0042 0246     		mov	r2, r0
 1118 0044 4B46     		mov	r3, r9
 1119 0046 5248     		ldr	r0, .L121
 1120 0048 5946     		mov	r1, fp
 1121 004a FFF7FEFF 		bl	printf
 1122              	.LVL109:
 184:C:/Users/²Ü¼ÒºÀ/.iotlink/sdk/IoT_LINK/iot_link/network/tcpip/esp8266\esp8266_tcpip.c ****         return ret;
 1123              		.loc 1 184 9 view .LVU310
 1124              	.L119:
 190:C:/Users/²Ü¼ÒºÀ/.iotlink/sdk/IoT_LINK/iot_link/network/tcpip/esp8266\esp8266_tcpip.c ****         return ret; //format error
 1125              		.loc 1 190 9 view .LVU311
 1126 004e 514B     		ldr	r3, .L121+4
 1127 0050 1B68     		ldr	r3, [r3]
 1128 0052 9868     		ldr	r0, [r3, #8]
 1129 0054 FFF7FEFF 		bl	fflush
 1130              	.LVL110:
 190:C:/Users/²Ü¼ÒºÀ/.iotlink/sdk/IoT_LINK/iot_link/network/tcpip/esp8266\esp8266_tcpip.c ****         return ret; //format error
 1131              		.loc 1 190 9 view .LVU312
 190:C:/Users/²Ü¼ÒºÀ/.iotlink/sdk/IoT_LINK/iot_link/network/tcpip/esp8266\esp8266_tcpip.c ****         return ret; //format error
 1132              		.loc 1 190 9 view .LVU313
 191:C:/Users/²Ü¼ÒºÀ/.iotlink/sdk/IoT_LINK/iot_link/network/tcpip/esp8266\esp8266_tcpip.c ****     }
 1133              		.loc 1 191 9 view .LVU314
 1134              	.L87:
 191:C:/Users/²Ü¼ÒºÀ/.iotlink/sdk/IoT_LINK/iot_link/network/tcpip/esp8266\esp8266_tcpip.c ****     }
 1135              		.loc 1 191 9 is_stmt 0 view .LVU315
 1136              	.LBE55:
 1137              	.LBE57:
 249:C:/Users/²Ü¼ÒºÀ/.iotlink/sdk/IoT_LINK/iot_link/network/tcpip/esp8266\esp8266_tcpip.c ****         }
 1138              		.loc 1 249 13 is_stmt 1 view .LVU316
ARM GAS  C:\Users\²Ü¼ÒºÀ\AppData\Local\Temp\cci6pW3E.s 			page 35


 1139 0058 D8F80400 		ldr	r0, [r8, #4]
 1140 005c FFF7FEFF 		bl	osal_mutex_unlock
 1141              	.LVL111:
 248:C:/Users/²Ü¼ÒºÀ/.iotlink/sdk/IoT_LINK/iot_link/network/tcpip/esp8266\esp8266_tcpip.c ****             osal_mutex_unlock(gEsp8266CB.ioLock);
 1142              		.loc 1 248 23 is_stmt 0 view .LVU317
 1143 0060 3C46     		mov	r4, r7
 1144              	.LVL112:
 1145              	.L85:
 251:C:/Users/²Ü¼ÒºÀ/.iotlink/sdk/IoT_LINK/iot_link/network/tcpip/esp8266\esp8266_tcpip.c ****         if(dataLeft < strlen(CN_ESP8266_RCVINDEX)){
 1146              		.loc 1 251 9 is_stmt 1 view .LVU318
 251:C:/Users/²Ü¼ÒºÀ/.iotlink/sdk/IoT_LINK/iot_link/network/tcpip/esp8266\esp8266_tcpip.c ****         if(dataLeft < strlen(CN_ESP8266_RCVINDEX)){
 1147              		.loc 1 251 41 is_stmt 0 view .LVU319
 1148 0062 AAEB0406 		sub	r6, r10, r4
 1149              	.LVL113:
 252:C:/Users/²Ü¼ÒºÀ/.iotlink/sdk/IoT_LINK/iot_link/network/tcpip/esp8266\esp8266_tcpip.c ****             break;
 1150              		.loc 1 252 9 is_stmt 1 view .LVU320
 252:C:/Users/²Ü¼ÒºÀ/.iotlink/sdk/IoT_LINK/iot_link/network/tcpip/esp8266\esp8266_tcpip.c ****             break;
 1151              		.loc 1 252 11 is_stmt 0 view .LVU321
 1152 0066 052E     		cmp	r6, #5
 1153 0068 06D9     		bls	.L97
 255:C:/Users/²Ü¼ÒºÀ/.iotlink/sdk/IoT_LINK/iot_link/network/tcpip/esp8266\esp8266_tcpip.c ****             break;
 1154              		.loc 1 255 9 is_stmt 1 view .LVU322
 255:C:/Users/²Ü¼ÒºÀ/.iotlink/sdk/IoT_LINK/iot_link/network/tcpip/esp8266\esp8266_tcpip.c ****             break;
 1155              		.loc 1 255 17 is_stmt 0 view .LVU323
 1156 006a 4B49     		ldr	r1, .L121+8
 1157 006c 0622     		movs	r2, #6
 1158 006e 2046     		mov	r0, r4
 1159 0070 FFF7FEFF 		bl	memcmp
 1160              	.LVL114:
 255:C:/Users/²Ü¼ÒºÀ/.iotlink/sdk/IoT_LINK/iot_link/network/tcpip/esp8266\esp8266_tcpip.c ****             break;
 1161              		.loc 1 255 11 view .LVU324
 1162 0074 0028     		cmp	r0, #0
 1163 0076 CED0     		beq	.L84
 1164              	.L97:
 259:C:/Users/²Ü¼ÒºÀ/.iotlink/sdk/IoT_LINK/iot_link/network/tcpip/esp8266\esp8266_tcpip.c ****         if(NULL != strstr(dataNxt, ">")){
 1165              		.loc 1 259 5 is_stmt 1 view .LVU325
 259:C:/Users/²Ü¼ÒºÀ/.iotlink/sdk/IoT_LINK/iot_link/network/tcpip/esp8266\esp8266_tcpip.c ****         if(NULL != strstr(dataNxt, ">")){
 1166              		.loc 1 259 7 is_stmt 0 view .LVU326
 1167 0078 002E     		cmp	r6, #0
 1168 007a 13DD     		ble	.L83
 260:C:/Users/²Ü¼ÒºÀ/.iotlink/sdk/IoT_LINK/iot_link/network/tcpip/esp8266\esp8266_tcpip.c ****             gEsp8266CB.flagSendIndexGetByOOB = 1;
 1169              		.loc 1 260 9 is_stmt 1 view .LVU327
 260:C:/Users/²Ü¼ÒºÀ/.iotlink/sdk/IoT_LINK/iot_link/network/tcpip/esp8266\esp8266_tcpip.c ****             gEsp8266CB.flagSendIndexGetByOOB = 1;
 1170              		.loc 1 260 20 is_stmt 0 view .LVU328
 1171 007c 3E21     		movs	r1, #62
 1172 007e 2046     		mov	r0, r4
 1173 0080 FFF7FEFF 		bl	strchr
 1174              	.LVL115:
 260:C:/Users/²Ü¼ÒºÀ/.iotlink/sdk/IoT_LINK/iot_link/network/tcpip/esp8266\esp8266_tcpip.c ****             gEsp8266CB.flagSendIndexGetByOOB = 1;
 1175              		.loc 1 260 11 view .LVU329
 1176 0084 20B1     		cbz	r0, .L101
 261:C:/Users/²Ü¼ÒºÀ/.iotlink/sdk/IoT_LINK/iot_link/network/tcpip/esp8266\esp8266_tcpip.c ****         }
 1177              		.loc 1 261 13 is_stmt 1 view .LVU330
 261:C:/Users/²Ü¼ÒºÀ/.iotlink/sdk/IoT_LINK/iot_link/network/tcpip/esp8266\esp8266_tcpip.c ****         }
 1178              		.loc 1 261 46 is_stmt 0 view .LVU331
 1179 0086 454A     		ldr	r2, .L121+12
 1180 0088 137A     		ldrb	r3, [r2, #8]	@ zero_extendqisi2
ARM GAS  C:\Users\²Ü¼ÒºÀ\AppData\Local\Temp\cci6pW3E.s 			page 36


 1181 008a 43F00203 		orr	r3, r3, #2
 1182 008e 1372     		strb	r3, [r2, #8]
 1183              	.L101:
 264:C:/Users/²Ü¼ÒºÀ/.iotlink/sdk/IoT_LINK/iot_link/network/tcpip/esp8266\esp8266_tcpip.c ****             gEsp8266CB.flagSendOKGetByOOB = 1;
 1184              		.loc 1 264 9 is_stmt 1 view .LVU332
 264:C:/Users/²Ü¼ÒºÀ/.iotlink/sdk/IoT_LINK/iot_link/network/tcpip/esp8266\esp8266_tcpip.c ****             gEsp8266CB.flagSendOKGetByOOB = 1;
 1185              		.loc 1 264 20 is_stmt 0 view .LVU333
 1186 0090 4349     		ldr	r1, .L121+16
 1187 0092 2046     		mov	r0, r4
 1188 0094 FFF7FEFF 		bl	strstr
 1189              	.LVL116:
 264:C:/Users/²Ü¼ÒºÀ/.iotlink/sdk/IoT_LINK/iot_link/network/tcpip/esp8266\esp8266_tcpip.c ****             gEsp8266CB.flagSendOKGetByOOB = 1;
 1190              		.loc 1 264 11 view .LVU334
 1191 0098 20B1     		cbz	r0, .L83
 265:C:/Users/²Ü¼ÒºÀ/.iotlink/sdk/IoT_LINK/iot_link/network/tcpip/esp8266\esp8266_tcpip.c ****         }
 1192              		.loc 1 265 13 is_stmt 1 view .LVU335
 265:C:/Users/²Ü¼ÒºÀ/.iotlink/sdk/IoT_LINK/iot_link/network/tcpip/esp8266\esp8266_tcpip.c ****         }
 1193              		.loc 1 265 43 is_stmt 0 view .LVU336
 1194 009a 404A     		ldr	r2, .L121+12
 1195 009c 137A     		ldrb	r3, [r2, #8]	@ zero_extendqisi2
 1196 009e 43F00103 		orr	r3, r3, #1
 1197 00a2 1372     		strb	r3, [r2, #8]
 268:C:/Users/²Ü¼ÒºÀ/.iotlink/sdk/IoT_LINK/iot_link/network/tcpip/esp8266\esp8266_tcpip.c **** }
 1198              		.loc 1 268 5 is_stmt 1 view .LVU337
 1199              	.L83:
 269:C:/Users/²Ü¼ÒºÀ/.iotlink/sdk/IoT_LINK/iot_link/network/tcpip/esp8266\esp8266_tcpip.c **** 
 1200              		.loc 1 269 1 is_stmt 0 view .LVU338
 1201 00a4 2846     		mov	r0, r5
 1202 00a6 07B0     		add	sp, sp, #28
 1203              	.LCFI18:
 1204              		.cfi_remember_state
 1205              		.cfi_def_cfa_offset 36
 1206              		@ sp needed
 1207 00a8 BDE8F08F 		pop	{r4, r5, r6, r7, r8, r9, r10, fp, pc}
 1208              	.LVL117:
 1209              	.L86:
 1210              	.LCFI19:
 1211              		.cfi_restore_state
 1212              	.LBB58:
 1213              	.LBB56:
 188:C:/Users/²Ü¼ÒºÀ/.iotlink/sdk/IoT_LINK/iot_link/network/tcpip/esp8266\esp8266_tcpip.c ****     if(NULL == str){
 1214              		.loc 1 188 5 is_stmt 1 view .LVU339
 188:C:/Users/²Ü¼ÒºÀ/.iotlink/sdk/IoT_LINK/iot_link/network/tcpip/esp8266\esp8266_tcpip.c ****     if(NULL == str){
 1215              		.loc 1 188 11 is_stmt 0 view .LVU340
 1216 00ac 2C21     		movs	r1, #44
 1217 00ae 2046     		mov	r0, r4
 1218 00b0 FFF7FEFF 		bl	strchr
 1219              	.LVL118:
 189:C:/Users/²Ü¼ÒºÀ/.iotlink/sdk/IoT_LINK/iot_link/network/tcpip/esp8266\esp8266_tcpip.c ****         LINK_LOG_ERROR("format error:CAN'T FIND ',fd'");
 1220              		.loc 1 189 5 is_stmt 1 view .LVU341
 189:C:/Users/²Ü¼ÒºÀ/.iotlink/sdk/IoT_LINK/iot_link/network/tcpip/esp8266\esp8266_tcpip.c ****         LINK_LOG_ERROR("format error:CAN'T FIND ',fd'");
 1221              		.loc 1 189 7 is_stmt 0 view .LVU342
 1222 00b4 60B9     		cbnz	r0, .L88
 190:C:/Users/²Ü¼ÒºÀ/.iotlink/sdk/IoT_LINK/iot_link/network/tcpip/esp8266\esp8266_tcpip.c ****         return ret; //format error
 1223              		.loc 1 190 9 is_stmt 1 view .LVU343
 190:C:/Users/²Ü¼ÒºÀ/.iotlink/sdk/IoT_LINK/iot_link/network/tcpip/esp8266\esp8266_tcpip.c ****         return ret; //format error
 1224              		.loc 1 190 9 view .LVU344
ARM GAS  C:\Users\²Ü¼ÒºÀ\AppData\Local\Temp\cci6pW3E.s 			page 37


 190:C:/Users/²Ü¼ÒºÀ/.iotlink/sdk/IoT_LINK/iot_link/network/tcpip/esp8266\esp8266_tcpip.c ****         return ret; //format error
 1225              		.loc 1 190 9 view .LVU345
 1226 00b6 0420     		movs	r0, #4
 1227              	.LVL119:
 190:C:/Users/²Ü¼ÒºÀ/.iotlink/sdk/IoT_LINK/iot_link/network/tcpip/esp8266\esp8266_tcpip.c ****         return ret; //format error
 1228              		.loc 1 190 9 is_stmt 0 view .LVU346
 1229 00b8 FFF7FEFF 		bl	link_log_level_name
 1230              	.LVL120:
 1231 00bc 0446     		mov	r4, r0
 1232              	.LVL121:
 190:C:/Users/²Ü¼ÒºÀ/.iotlink/sdk/IoT_LINK/iot_link/network/tcpip/esp8266\esp8266_tcpip.c ****         return ret; //format error
 1233              		.loc 1 190 9 view .LVU347
 1234 00be FFF7FEFF 		bl	osal_sys_time
 1235              	.LVL122:
 1236 00c2 0246     		mov	r2, r0
 1237 00c4 3748     		ldr	r0, .L121+20
 1238 00c6 4B46     		mov	r3, r9
 1239 00c8 2146     		mov	r1, r4
 1240              	.LVL123:
 1241              	.L120:
 190:C:/Users/²Ü¼ÒºÀ/.iotlink/sdk/IoT_LINK/iot_link/network/tcpip/esp8266\esp8266_tcpip.c ****         return ret; //format error
 1242              		.loc 1 190 9 view .LVU348
 1243 00ca FFF7FEFF 		bl	printf
 1244              	.LVL124:
 1245 00ce BEE7     		b	.L119
 1246              	.LVL125:
 1247              	.L88:
 193:C:/Users/²Ü¼ÒºÀ/.iotlink/sdk/IoT_LINK/iot_link/network/tcpip/esp8266\esp8266_tcpip.c ****     for (; *str <= '9' && *str >= '0' ;str++){
 1248              		.loc 1 193 5 is_stmt 1 view .LVU349
 194:C:/Users/²Ü¼ÒºÀ/.iotlink/sdk/IoT_LINK/iot_link/network/tcpip/esp8266\esp8266_tcpip.c ****         fd = (fd * 10 + (*str - '0'));
 1249              		.loc 1 194 5 view .LVU350
 193:C:/Users/²Ü¼ÒºÀ/.iotlink/sdk/IoT_LINK/iot_link/network/tcpip/esp8266\esp8266_tcpip.c ****     for (; *str <= '9' && *str >= '0' ;str++){
 1250              		.loc 1 193 8 is_stmt 0 view .LVU351
 1251 00d0 431C     		adds	r3, r0, #1
 1252              	.LVL126:
 179:C:/Users/²Ü¼ÒºÀ/.iotlink/sdk/IoT_LINK/iot_link/network/tcpip/esp8266\esp8266_tcpip.c **** 
 1253              		.loc 1 179 9 view .LVU352
 1254 00d2 0022     		movs	r2, #0
 195:C:/Users/²Ü¼ÒºÀ/.iotlink/sdk/IoT_LINK/iot_link/network/tcpip/esp8266\esp8266_tcpip.c ****     }
 1255              		.loc 1 195 18 view .LVU353
 1256 00d4 4FF00A0C 		mov	ip, #10
 1257              	.LVL127:
 1258              	.L89:
 195:C:/Users/²Ü¼ÒºÀ/.iotlink/sdk/IoT_LINK/iot_link/network/tcpip/esp8266\esp8266_tcpip.c ****     }
 1259              		.loc 1 195 18 view .LVU354
 1260 00d8 1846     		mov	r0, r3
 1261              	.LVL128:
 194:C:/Users/²Ü¼ÒºÀ/.iotlink/sdk/IoT_LINK/iot_link/network/tcpip/esp8266\esp8266_tcpip.c ****         fd = (fd * 10 + (*str - '0'));
 1262              		.loc 1 194 12 is_stmt 1 view .LVU355
 1263 00da 13F8011B 		ldrb	r1, [r3], #1	@ zero_extendqisi2
 194:C:/Users/²Ü¼ÒºÀ/.iotlink/sdk/IoT_LINK/iot_link/network/tcpip/esp8266\esp8266_tcpip.c ****         fd = (fd * 10 + (*str - '0'));
 1264              		.loc 1 194 24 is_stmt 0 view .LVU356
 1265 00de 3039     		subs	r1, r1, #48
 194:C:/Users/²Ü¼ÒºÀ/.iotlink/sdk/IoT_LINK/iot_link/network/tcpip/esp8266\esp8266_tcpip.c ****         fd = (fd * 10 + (*str - '0'));
 1266              		.loc 1 194 5 view .LVU357
 1267 00e0 CCB2     		uxtb	r4, r1
 1268 00e2 092C     		cmp	r4, #9
ARM GAS  C:\Users\²Ü¼ÒºÀ\AppData\Local\Temp\cci6pW3E.s 			page 38


 1269 00e4 17D9     		bls	.L90
 197:C:/Users/²Ü¼ÒºÀ/.iotlink/sdk/IoT_LINK/iot_link/network/tcpip/esp8266\esp8266_tcpip.c ****         return ret;
 1270              		.loc 1 197 5 is_stmt 1 view .LVU358
 197:C:/Users/²Ü¼ÒºÀ/.iotlink/sdk/IoT_LINK/iot_link/network/tcpip/esp8266\esp8266_tcpip.c ****         return ret;
 1271              		.loc 1 197 7 is_stmt 0 view .LVU359
 1272 00e6 042A     		cmp	r2, #4
 1273 00e8 B6DC     		bgt	.L87
 200:C:/Users/²Ü¼ÒºÀ/.iotlink/sdk/IoT_LINK/iot_link/network/tcpip/esp8266\esp8266_tcpip.c ****     if(NULL == sock){
 1274              		.loc 1 200 5 is_stmt 1 view .LVU360
 1275              	.LVL129:
 1276              	.LBB53:
 1277              	.LBI53:
 138:C:/Users/²Ü¼ÒºÀ/.iotlink/sdk/IoT_LINK/iot_link/network/tcpip/esp8266\esp8266_tcpip.c **** {
 1278              		.loc 1 138 23 view .LVU361
 1279              	.LBB54:
 140:C:/Users/²Ü¼ÒºÀ/.iotlink/sdk/IoT_LINK/iot_link/network/tcpip/esp8266\esp8266_tcpip.c **** }
 1280              		.loc 1 140 5 view .LVU362
 140:C:/Users/²Ü¼ÒºÀ/.iotlink/sdk/IoT_LINK/iot_link/network/tcpip/esp8266\esp8266_tcpip.c **** }
 1281              		.loc 1 140 32 is_stmt 0 view .LVU363
 1282 00ea 08EB8202 		add	r2, r8, r2, lsl #2
 1283              	.LVL130:
 140:C:/Users/²Ü¼ÒºÀ/.iotlink/sdk/IoT_LINK/iot_link/network/tcpip/esp8266\esp8266_tcpip.c **** }
 1284              		.loc 1 140 32 view .LVU364
 1285 00ee D2F80CB0 		ldr	fp, [r2, #12]
 1286              	.LVL131:
 140:C:/Users/²Ü¼ÒºÀ/.iotlink/sdk/IoT_LINK/iot_link/network/tcpip/esp8266\esp8266_tcpip.c **** }
 1287              		.loc 1 140 32 view .LVU365
 1288              	.LBE54:
 1289              	.LBE53:
 201:C:/Users/²Ü¼ÒºÀ/.iotlink/sdk/IoT_LINK/iot_link/network/tcpip/esp8266\esp8266_tcpip.c ****         return ret;
 1290              		.loc 1 201 5 is_stmt 1 view .LVU366
 201:C:/Users/²Ü¼ÒºÀ/.iotlink/sdk/IoT_LINK/iot_link/network/tcpip/esp8266\esp8266_tcpip.c ****         return ret;
 1291              		.loc 1 201 7 is_stmt 0 view .LVU367
 1292 00f2 BBF1000F 		cmp	fp, #0
 1293 00f6 AFD0     		beq	.L87
 205:C:/Users/²Ü¼ÒºÀ/.iotlink/sdk/IoT_LINK/iot_link/network/tcpip/esp8266\esp8266_tcpip.c ****     if(NULL == str){
 1294              		.loc 1 205 5 is_stmt 1 view .LVU368
 205:C:/Users/²Ü¼ÒºÀ/.iotlink/sdk/IoT_LINK/iot_link/network/tcpip/esp8266\esp8266_tcpip.c ****     if(NULL == str){
 1295              		.loc 1 205 11 is_stmt 0 view .LVU369
 1296 00f8 2C21     		movs	r1, #44
 1297 00fa FFF7FEFF 		bl	strchr
 1298              	.LVL132:
 206:C:/Users/²Ü¼ÒºÀ/.iotlink/sdk/IoT_LINK/iot_link/network/tcpip/esp8266\esp8266_tcpip.c ****         LINK_LOG_ERROR("format error:CAN'T FIND ',LEN'");
 1299              		.loc 1 206 5 is_stmt 1 view .LVU370
 206:C:/Users/²Ü¼ÒºÀ/.iotlink/sdk/IoT_LINK/iot_link/network/tcpip/esp8266\esp8266_tcpip.c ****         LINK_LOG_ERROR("format error:CAN'T FIND ',LEN'");
 1300              		.loc 1 206 7 is_stmt 0 view .LVU371
 1301 00fe 68B9     		cbnz	r0, .L91
 207:C:/Users/²Ü¼ÒºÀ/.iotlink/sdk/IoT_LINK/iot_link/network/tcpip/esp8266\esp8266_tcpip.c ****         return ret; //format error
 1302              		.loc 1 207 9 is_stmt 1 view .LVU372
 207:C:/Users/²Ü¼ÒºÀ/.iotlink/sdk/IoT_LINK/iot_link/network/tcpip/esp8266\esp8266_tcpip.c ****         return ret; //format error
 1303              		.loc 1 207 9 view .LVU373
 207:C:/Users/²Ü¼ÒºÀ/.iotlink/sdk/IoT_LINK/iot_link/network/tcpip/esp8266\esp8266_tcpip.c ****         return ret; //format error
 1304              		.loc 1 207 9 view .LVU374
 1305 0100 0420     		movs	r0, #4
 1306              	.LVL133:
 207:C:/Users/²Ü¼ÒºÀ/.iotlink/sdk/IoT_LINK/iot_link/network/tcpip/esp8266\esp8266_tcpip.c ****         return ret; //format error
 1307              		.loc 1 207 9 is_stmt 0 view .LVU375
ARM GAS  C:\Users\²Ü¼ÒºÀ\AppData\Local\Temp\cci6pW3E.s 			page 39


 1308 0102 FFF7FEFF 		bl	link_log_level_name
 1309              	.LVL134:
 1310 0106 0446     		mov	r4, r0
 1311 0108 FFF7FEFF 		bl	osal_sys_time
 1312              	.LVL135:
 1313 010c 4B46     		mov	r3, r9
 1314 010e 0246     		mov	r2, r0
 1315 0110 2146     		mov	r1, r4
 1316 0112 2548     		ldr	r0, .L121+24
 1317 0114 D9E7     		b	.L120
 1318              	.LVL136:
 1319              	.L90:
 195:C:/Users/²Ü¼ÒºÀ/.iotlink/sdk/IoT_LINK/iot_link/network/tcpip/esp8266\esp8266_tcpip.c ****     }
 1320              		.loc 1 195 9 is_stmt 1 view .LVU376
 195:C:/Users/²Ü¼ÒºÀ/.iotlink/sdk/IoT_LINK/iot_link/network/tcpip/esp8266\esp8266_tcpip.c ****     }
 1321              		.loc 1 195 12 is_stmt 0 view .LVU377
 1322 0116 0CFB0212 		mla	r2, ip, r2, r1
 1323              	.LVL137:
 194:C:/Users/²Ü¼ÒºÀ/.iotlink/sdk/IoT_LINK/iot_link/network/tcpip/esp8266\esp8266_tcpip.c ****         fd = (fd * 10 + (*str - '0'));
 1324              		.loc 1 194 40 is_stmt 1 view .LVU378
 194:C:/Users/²Ü¼ÒºÀ/.iotlink/sdk/IoT_LINK/iot_link/network/tcpip/esp8266\esp8266_tcpip.c ****         fd = (fd * 10 + (*str - '0'));
 1325              		.loc 1 194 40 is_stmt 0 view .LVU379
 1326 011a DDE7     		b	.L89
 1327              	.LVL138:
 1328              	.L91:
 210:C:/Users/²Ü¼ÒºÀ/.iotlink/sdk/IoT_LINK/iot_link/network/tcpip/esp8266\esp8266_tcpip.c ****     datalen = 0;
 1329              		.loc 1 210 5 is_stmt 1 view .LVU380
 211:C:/Users/²Ü¼ÒºÀ/.iotlink/sdk/IoT_LINK/iot_link/network/tcpip/esp8266\esp8266_tcpip.c ****     for (; *str <= '9' && *str >= '0' ;str++)
 1330              		.loc 1 211 13 is_stmt 0 view .LVU381
 1331 011c 0022     		movs	r2, #0
 210:C:/Users/²Ü¼ÒºÀ/.iotlink/sdk/IoT_LINK/iot_link/network/tcpip/esp8266\esp8266_tcpip.c ****     datalen = 0;
 1332              		.loc 1 210 8 view .LVU382
 1333 011e 441C     		adds	r4, r0, #1
 1334              	.LVL139:
 211:C:/Users/²Ü¼ÒºÀ/.iotlink/sdk/IoT_LINK/iot_link/network/tcpip/esp8266\esp8266_tcpip.c ****     for (; *str <= '9' && *str >= '0' ;str++)
 1335              		.loc 1 211 5 is_stmt 1 view .LVU383
 211:C:/Users/²Ü¼ÒºÀ/.iotlink/sdk/IoT_LINK/iot_link/network/tcpip/esp8266\esp8266_tcpip.c ****     for (; *str <= '9' && *str >= '0' ;str++)
 1336              		.loc 1 211 13 is_stmt 0 view .LVU384
 1337 0120 ADF81620 		strh	r2, [sp, #22]	@ movhi
 212:C:/Users/²Ü¼ÒºÀ/.iotlink/sdk/IoT_LINK/iot_link/network/tcpip/esp8266\esp8266_tcpip.c ****     {
 1338              		.loc 1 212 5 is_stmt 1 view .LVU385
 1339 0124 1346     		mov	r3, r2
 1340              	.LVL140:
 1341              	.L92:
 212:C:/Users/²Ü¼ÒºÀ/.iotlink/sdk/IoT_LINK/iot_link/network/tcpip/esp8266\esp8266_tcpip.c ****     {
 1342              		.loc 1 212 12 view .LVU386
 1343 0126 14F8011B 		ldrb	r1, [r4], #1	@ zero_extendqisi2
 1344              	.LVL141:
 212:C:/Users/²Ü¼ÒºÀ/.iotlink/sdk/IoT_LINK/iot_link/network/tcpip/esp8266\esp8266_tcpip.c ****     {
 1345              		.loc 1 212 5 is_stmt 0 view .LVU387
 1346 012a A1F13000 		sub	r0, r1, #48
 1347 012e 0928     		cmp	r0, #9
 1348 0130 1FD9     		bls	.L93
 1349 0132 0AB1     		cbz	r2, .L94
 1350 0134 ADF81630 		strh	r3, [sp, #22]	@ movhi
 1351              	.L94:
 216:C:/Users/²Ü¼ÒºÀ/.iotlink/sdk/IoT_LINK/iot_link/network/tcpip/esp8266\esp8266_tcpip.c **** 
ARM GAS  C:\Users\²Ü¼ÒºÀ\AppData\Local\Temp\cci6pW3E.s 			page 40


 1352              		.loc 1 216 5 is_stmt 1 view .LVU388
 1353              	.LVL142:
 219:C:/Users/²Ü¼ÒºÀ/.iotlink/sdk/IoT_LINK/iot_link/network/tcpip/esp8266\esp8266_tcpip.c ****     {
 1354              		.loc 1 219 5 view .LVU389
 219:C:/Users/²Ü¼ÒºÀ/.iotlink/sdk/IoT_LINK/iot_link/network/tcpip/esp8266\esp8266_tcpip.c ****     {
 1355              		.loc 1 219 45 is_stmt 0 view .LVU390
 1356 0138 0BF11806 		add	r6, fp, #24
 1357              	.LVL143:
 219:C:/Users/²Ü¼ÒºÀ/.iotlink/sdk/IoT_LINK/iot_link/network/tcpip/esp8266\esp8266_tcpip.c ****     {
 1358              		.loc 1 219 16 view .LVU391
 1359 013c BDF81620 		ldrh	r2, [sp, #22]
 1360 0140 0392     		str	r2, [sp, #12]
 219:C:/Users/²Ü¼ÒºÀ/.iotlink/sdk/IoT_LINK/iot_link/network/tcpip/esp8266\esp8266_tcpip.c ****     {
 1361              		.loc 1 219 45 view .LVU392
 1362 0142 3046     		mov	r0, r6
 1363 0144 FFF7FEFF 		bl	ring_buffer_datalen
 1364              	.LVL144:
 219:C:/Users/²Ü¼ÒºÀ/.iotlink/sdk/IoT_LINK/iot_link/network/tcpip/esp8266\esp8266_tcpip.c ****     {
 1365              		.loc 1 219 7 view .LVU393
 1366 0148 039A     		ldr	r2, [sp, #12]
 219:C:/Users/²Ü¼ÒºÀ/.iotlink/sdk/IoT_LINK/iot_link/network/tcpip/esp8266\esp8266_tcpip.c ****     {
 1367              		.loc 1 219 43 view .LVU394
 1368 014a C0F58060 		rsb	r0, r0, #1024
 219:C:/Users/²Ü¼ÒºÀ/.iotlink/sdk/IoT_LINK/iot_link/network/tcpip/esp8266\esp8266_tcpip.c ****     {
 1369              		.loc 1 219 7 view .LVU395
 1370 014e 8242     		cmp	r2, r0
 1371 0150 82DC     		bgt	.L87
 223:C:/Users/²Ü¼ÒºÀ/.iotlink/sdk/IoT_LINK/iot_link/network/tcpip/esp8266\esp8266_tcpip.c ****     if(sock->type == SOCK_DGRAM)
 1372              		.loc 1 223 5 is_stmt 1 view .LVU396
 1373              	.LVL145:
 224:C:/Users/²Ü¼ÒºÀ/.iotlink/sdk/IoT_LINK/iot_link/network/tcpip/esp8266\esp8266_tcpip.c ****     {
 1374              		.loc 1 224 5 view .LVU397
 224:C:/Users/²Ü¼ÒºÀ/.iotlink/sdk/IoT_LINK/iot_link/network/tcpip/esp8266\esp8266_tcpip.c ****     {
 1375              		.loc 1 224 12 is_stmt 0 view .LVU398
 1376 0152 DBF80820 		ldr	r2, [fp, #8]
 224:C:/Users/²Ü¼ÒºÀ/.iotlink/sdk/IoT_LINK/iot_link/network/tcpip/esp8266\esp8266_tcpip.c ****     {
 1377              		.loc 1 224 7 view .LVU399
 1378 0156 022A     		cmp	r2, #2
 1379 0158 13D1     		bne	.L95
 226:C:/Users/²Ü¼ÒºÀ/.iotlink/sdk/IoT_LINK/iot_link/network/tcpip/esp8266\esp8266_tcpip.c ****         ring_buffer_write(&sock->rcvRing,(unsigned char *)str,datalen);
 1380              		.loc 1 226 9 is_stmt 1 view .LVU400
 1381 015a 0DF11601 		add	r1, sp, #22
 1382              	.LVL146:
 226:C:/Users/²Ü¼ÒºÀ/.iotlink/sdk/IoT_LINK/iot_link/network/tcpip/esp8266\esp8266_tcpip.c ****         ring_buffer_write(&sock->rcvRing,(unsigned char *)str,datalen);
 1383              		.loc 1 226 9 is_stmt 0 view .LVU401
 1384 015e 3046     		mov	r0, r6
 1385 0160 FFF7FEFF 		bl	ring_buffer_write
 1386              	.LVL147:
 227:C:/Users/²Ü¼ÒºÀ/.iotlink/sdk/IoT_LINK/iot_link/network/tcpip/esp8266\esp8266_tcpip.c ****     }
 1387              		.loc 1 227 9 is_stmt 1 view .LVU402
 1388              	.L118:
 231:C:/Users/²Ü¼ÒºÀ/.iotlink/sdk/IoT_LINK/iot_link/network/tcpip/esp8266\esp8266_tcpip.c ****     }
 1389              		.loc 1 231 9 view .LVU403
 1390 0164 BDF81620 		ldrh	r2, [sp, #22]
 1391 0168 2146     		mov	r1, r4
 1392 016a 3046     		mov	r0, r6
 1393 016c FFF7FEFF 		bl	ring_buffer_write
ARM GAS  C:\Users\²Ü¼ÒºÀ\AppData\Local\Temp\cci6pW3E.s 			page 41


 1394              	.LVL148:
 1395 0170 09E0     		b	.L96
 1396              	.LVL149:
 1397              	.L93:
 214:C:/Users/²Ü¼ÒºÀ/.iotlink/sdk/IoT_LINK/iot_link/network/tcpip/esp8266\esp8266_tcpip.c ****     }
 1398              		.loc 1 214 9 view .LVU404
 214:C:/Users/²Ü¼ÒºÀ/.iotlink/sdk/IoT_LINK/iot_link/network/tcpip/esp8266\esp8266_tcpip.c ****     }
 1399              		.loc 1 214 33 is_stmt 0 view .LVU405
 1400 0172 03EB8303 		add	r3, r3, r3, lsl #2
 1401 0176 01EB4303 		add	r3, r1, r3, lsl #1
 1402 017a 303B     		subs	r3, r3, #48
 1403 017c 9BB2     		uxth	r3, r3
 212:C:/Users/²Ü¼ÒºÀ/.iotlink/sdk/IoT_LINK/iot_link/network/tcpip/esp8266\esp8266_tcpip.c ****     {
 1404              		.loc 1 212 40 is_stmt 1 view .LVU406
 1405              	.LVL150:
 214:C:/Users/²Ü¼ÒºÀ/.iotlink/sdk/IoT_LINK/iot_link/network/tcpip/esp8266\esp8266_tcpip.c ****     }
 1406              		.loc 1 214 33 is_stmt 0 view .LVU407
 1407 017e 0122     		movs	r2, #1
 1408 0180 D1E7     		b	.L92
 1409              	.LVL151:
 1410              	.L95:
 229:C:/Users/²Ü¼ÒºÀ/.iotlink/sdk/IoT_LINK/iot_link/network/tcpip/esp8266\esp8266_tcpip.c ****     {
 1411              		.loc 1 229 10 is_stmt 1 view .LVU408
 229:C:/Users/²Ü¼ÒºÀ/.iotlink/sdk/IoT_LINK/iot_link/network/tcpip/esp8266\esp8266_tcpip.c ****     {
 1412              		.loc 1 229 13 is_stmt 0 view .LVU409
 1413 0182 012A     		cmp	r2, #1
 1414 0184 EED0     		beq	.L118
 1415              	.LVL152:
 1416              	.L96:
 233:C:/Users/²Ü¼ÒºÀ/.iotlink/sdk/IoT_LINK/iot_link/network/tcpip/esp8266\esp8266_tcpip.c **** 
 1417              		.loc 1 233 5 is_stmt 1 view .LVU410
 233:C:/Users/²Ü¼ÒºÀ/.iotlink/sdk/IoT_LINK/iot_link/network/tcpip/esp8266\esp8266_tcpip.c **** 
 1418              		.loc 1 233 15 is_stmt 0 view .LVU411
 1419 0186 BDF81670 		ldrh	r7, [sp, #22]
 233:C:/Users/²Ü¼ÒºÀ/.iotlink/sdk/IoT_LINK/iot_link/network/tcpip/esp8266\esp8266_tcpip.c **** 
 1420              		.loc 1 233 9 view .LVU412
 1421 018a 2744     		add	r7, r7, r4
 1422              	.LVL153:
 235:C:/Users/²Ü¼ÒºÀ/.iotlink/sdk/IoT_LINK/iot_link/network/tcpip/esp8266\esp8266_tcpip.c **** }
 1423              		.loc 1 235 5 is_stmt 1 view .LVU413
 235:C:/Users/²Ü¼ÒºÀ/.iotlink/sdk/IoT_LINK/iot_link/network/tcpip/esp8266\esp8266_tcpip.c **** }
 1424              		.loc 1 235 12 is_stmt 0 view .LVU414
 1425 018c 64E7     		b	.L87
 1426              	.L122:
 1427 018e 00BF     		.align	2
 1428              	.L121:
 1429 0190 00000000 		.word	.LC5
 1430 0194 00000000 		.word	_impure_ptr
 1431 0198 83000000 		.word	.LC8
 1432 019c 00000000 		.word	.LANCHOR0
 1433 01a0 8A000000 		.word	.LC9
 1434 01a4 28000000 		.word	.LC6
 1435 01a8 55000000 		.word	.LC7
 1436 01ac 00000000 		.word	.LANCHOR2
 1437              	.LBE56:
 1438              	.LBE58:
 1439              		.cfi_endproc
ARM GAS  C:\Users\²Ü¼ÒºÀ\AppData\Local\Temp\cci6pW3E.s 			page 42


 1440              	.LFE9:
 1442              		.section	.rodata.Esp8266Send.str1.1,"aMS",%progbits,1
 1443              	.LC10:
 1444 0000 41542B43 		.ascii	"AT+CIPSEND=%d,%d\015\012\000"
 1444      49505345 
 1444      4E443D25 
 1444      642C2564 
 1444      0D0A00
 1445              	.LC11:
 1446 0013 3E00     		.ascii	">\000"
 1447              	.LC12:
 1448 0015 5B25735D 		.ascii	"[%s][%u][%s] GET ATLOCK FAILED:fd:%d len:%d\015\012"
 1448      5B25755D 
 1448      5B25735D 
 1448      20474554 
 1448      2041544C 
 1449 0042 00       		.ascii	"\000"
 1450              	.LC13:
 1451 0043 5B25735D 		.ascii	"[%s][%u][%s] SEND FD:%d Len:%d Failed  and set it t"
 1451      5B25755D 
 1451      5B25735D 
 1451      2053454E 
 1451      44204644 
 1452 0076 6F206469 		.ascii	"o disconnect\015\012\000"
 1452      73636F6E 
 1452      6E656374 
 1452      0D0A00
 1453              		.section	.text.Esp8266Send,"ax",%progbits
 1454              		.align	1
 1455              		.syntax unified
 1456              		.thumb
 1457              		.thumb_func
 1458              		.fpu fpv4-sp-d16
 1460              	Esp8266Send:
 1461              	.LVL154:
 1462              	.LFB15:
 350:C:/Users/²Ü¼ÒºÀ/.iotlink/sdk/IoT_LINK/iot_link/network/tcpip/esp8266\esp8266_tcpip.c ****     int ret = -1;
 1463              		.loc 1 350 1 is_stmt 1 view -0
 1464              		.cfi_startproc
 1465              		@ args = 0, pretend = 0, frame = 128
 1466              		@ frame_needed = 0, uses_anonymous_args = 0
 351:C:/Users/²Ü¼ÒºÀ/.iotlink/sdk/IoT_LINK/iot_link/network/tcpip/esp8266\esp8266_tcpip.c ****     char cmd[CN_STACK_STRMAX];
 1467              		.loc 1 351 5 view .LVU416
 352:C:/Users/²Ü¼ÒºÀ/.iotlink/sdk/IoT_LINK/iot_link/network/tcpip/esp8266\esp8266_tcpip.c ****     Esp8266Sock_t *sock;
 1468              		.loc 1 352 5 view .LVU417
 353:C:/Users/²Ü¼ÒºÀ/.iotlink/sdk/IoT_LINK/iot_link/network/tcpip/esp8266\esp8266_tcpip.c **** 
 1469              		.loc 1 353 5 view .LVU418
 355:C:/Users/²Ü¼ÒºÀ/.iotlink/sdk/IoT_LINK/iot_link/network/tcpip/esp8266\esp8266_tcpip.c ****         return ret;
 1470              		.loc 1 355 5 view .LVU419
 350:C:/Users/²Ü¼ÒºÀ/.iotlink/sdk/IoT_LINK/iot_link/network/tcpip/esp8266\esp8266_tcpip.c ****     int ret = -1;
 1471              		.loc 1 350 1 is_stmt 0 view .LVU420
 1472 0000 2DE9F043 		push	{r4, r5, r6, r7, r8, r9, lr}
 1473              	.LCFI20:
 1474              		.cfi_def_cfa_offset 28
 1475              		.cfi_offset 4, -28
 1476              		.cfi_offset 5, -24
 1477              		.cfi_offset 6, -20
ARM GAS  C:\Users\²Ü¼ÒºÀ\AppData\Local\Temp\cci6pW3E.s 			page 43


 1478              		.cfi_offset 7, -16
 1479              		.cfi_offset 8, -12
 1480              		.cfi_offset 9, -8
 1481              		.cfi_offset 14, -4
 355:C:/Users/²Ü¼ÒºÀ/.iotlink/sdk/IoT_LINK/iot_link/network/tcpip/esp8266\esp8266_tcpip.c ****         return ret;
 1482              		.loc 1 355 7 view .LVU421
 1483 0004 0428     		cmp	r0, #4
 350:C:/Users/²Ü¼ÒºÀ/.iotlink/sdk/IoT_LINK/iot_link/network/tcpip/esp8266\esp8266_tcpip.c ****     int ret = -1;
 1484              		.loc 1 350 1 view .LVU422
 1485 0006 A3B0     		sub	sp, sp, #140
 1486              	.LCFI21:
 1487              		.cfi_def_cfa_offset 168
 350:C:/Users/²Ü¼ÒºÀ/.iotlink/sdk/IoT_LINK/iot_link/network/tcpip/esp8266\esp8266_tcpip.c ****     int ret = -1;
 1488              		.loc 1 350 1 view .LVU423
 1489 0008 0746     		mov	r7, r0
 1490 000a 0C46     		mov	r4, r1
 1491 000c 1646     		mov	r6, r2
 355:C:/Users/²Ü¼ÒºÀ/.iotlink/sdk/IoT_LINK/iot_link/network/tcpip/esp8266\esp8266_tcpip.c ****         return ret;
 1492              		.loc 1 355 7 view .LVU424
 1493 000e 00F28780 		bhi	.L133
 1494              	.LVL155:
 1495              	.LBB59:
 1496              	.LBI59:
 138:C:/Users/²Ü¼ÒºÀ/.iotlink/sdk/IoT_LINK/iot_link/network/tcpip/esp8266\esp8266_tcpip.c **** {
 1497              		.loc 1 138 23 is_stmt 1 view .LVU425
 1498              	.LBB60:
 140:C:/Users/²Ü¼ÒºÀ/.iotlink/sdk/IoT_LINK/iot_link/network/tcpip/esp8266\esp8266_tcpip.c **** }
 1499              		.loc 1 140 5 view .LVU426
 140:C:/Users/²Ü¼ÒºÀ/.iotlink/sdk/IoT_LINK/iot_link/network/tcpip/esp8266\esp8266_tcpip.c **** }
 1500              		.loc 1 140 32 is_stmt 0 view .LVU427
 1501 0012 454D     		ldr	r5, .L137
 1502 0014 05EB8003 		add	r3, r5, r0, lsl #2
 1503              	.LVL156:
 140:C:/Users/²Ü¼ÒºÀ/.iotlink/sdk/IoT_LINK/iot_link/network/tcpip/esp8266\esp8266_tcpip.c **** }
 1504              		.loc 1 140 32 view .LVU428
 1505 0018 D3F80C90 		ldr	r9, [r3, #12]
 1506              	.LVL157:
 140:C:/Users/²Ü¼ÒºÀ/.iotlink/sdk/IoT_LINK/iot_link/network/tcpip/esp8266\esp8266_tcpip.c **** }
 1507              		.loc 1 140 32 view .LVU429
 1508              	.LBE60:
 1509              	.LBE59:
 355:C:/Users/²Ü¼ÒºÀ/.iotlink/sdk/IoT_LINK/iot_link/network/tcpip/esp8266\esp8266_tcpip.c ****         return ret;
 1510              		.loc 1 355 47 view .LVU430
 1511 001c B9F1000F 		cmp	r9, #0
 1512 0020 7ED0     		beq	.L133
 355:C:/Users/²Ü¼ÒºÀ/.iotlink/sdk/IoT_LINK/iot_link/network/tcpip/esp8266\esp8266_tcpip.c ****         return ret;
 1513              		.loc 1 355 87 discriminator 2 view .LVU431
 1514 0022 0029     		cmp	r1, #0
 1515 0024 7CD0     		beq	.L133
 355:C:/Users/²Ü¼ÒºÀ/.iotlink/sdk/IoT_LINK/iot_link/network/tcpip/esp8266\esp8266_tcpip.c ****         return ret;
 1516              		.loc 1 355 104 discriminator 3 view .LVU432
 1517 0026 002A     		cmp	r2, #0
 1518 0028 7ADD     		ble	.L133
 358:C:/Users/²Ü¼ÒºÀ/.iotlink/sdk/IoT_LINK/iot_link/network/tcpip/esp8266\esp8266_tcpip.c **** 
 1519              		.loc 1 358 5 is_stmt 1 view .LVU433
 358:C:/Users/²Ü¼ÒºÀ/.iotlink/sdk/IoT_LINK/iot_link/network/tcpip/esp8266\esp8266_tcpip.c **** 
 1520              		.loc 1 358 23 is_stmt 0 view .LVU434
ARM GAS  C:\Users\²Ü¼ÒºÀ\AppData\Local\Temp\cci6pW3E.s 			page 44


 1521 002a 09F12808 		add	r8, r9, #40
 358:C:/Users/²Ü¼ÒºÀ/.iotlink/sdk/IoT_LINK/iot_link/network/tcpip/esp8266\esp8266_tcpip.c **** 
 1522              		.loc 1 358 12 view .LVU435
 1523 002e 4FF48062 		mov	r2, #1024
 1524              	.LVL158:
 358:C:/Users/²Ü¼ÒºÀ/.iotlink/sdk/IoT_LINK/iot_link/network/tcpip/esp8266\esp8266_tcpip.c **** 
 1525              		.loc 1 358 12 view .LVU436
 1526 0032 0021     		movs	r1, #0
 1527              	.LVL159:
 358:C:/Users/²Ü¼ÒºÀ/.iotlink/sdk/IoT_LINK/iot_link/network/tcpip/esp8266\esp8266_tcpip.c **** 
 1528              		.loc 1 358 12 view .LVU437
 1529 0034 4046     		mov	r0, r8
 1530              	.LVL160:
 358:C:/Users/²Ü¼ÒºÀ/.iotlink/sdk/IoT_LINK/iot_link/network/tcpip/esp8266\esp8266_tcpip.c **** 
 1531              		.loc 1 358 12 view .LVU438
 1532 0036 FFF7FEFF 		bl	memset
 1533              	.LVL161:
 360:C:/Users/²Ü¼ÒºÀ/.iotlink/sdk/IoT_LINK/iot_link/network/tcpip/esp8266\esp8266_tcpip.c ****     {
 1534              		.loc 1 360 5 is_stmt 1 view .LVU439
 360:C:/Users/²Ü¼ÒºÀ/.iotlink/sdk/IoT_LINK/iot_link/network/tcpip/esp8266\esp8266_tcpip.c ****     {
 1535              		.loc 1 360 8 is_stmt 0 view .LVU440
 1536 003a 2868     		ldr	r0, [r5]
 1537 003c FFF7FEFF 		bl	osal_mutex_lock
 1538              	.LVL162:
 360:C:/Users/²Ü¼ÒºÀ/.iotlink/sdk/IoT_LINK/iot_link/network/tcpip/esp8266\esp8266_tcpip.c ****     {
 1539              		.loc 1 360 7 view .LVU441
 1540 0040 0028     		cmp	r0, #0
 1541 0042 59D0     		beq	.L125
 362:C:/Users/²Ü¼ÒºÀ/.iotlink/sdk/IoT_LINK/iot_link/network/tcpip/esp8266\esp8266_tcpip.c ****         gEsp8266CB.flagSendIndexGetByOOB = 0;
 1542              		.loc 1 362 9 is_stmt 1 view .LVU442
 362:C:/Users/²Ü¼ÒºÀ/.iotlink/sdk/IoT_LINK/iot_link/network/tcpip/esp8266\esp8266_tcpip.c ****         gEsp8266CB.flagSendIndexGetByOOB = 0;
 1543              		.loc 1 362 16 is_stmt 0 view .LVU443
 1544 0044 3B46     		mov	r3, r7
 1545 0046 4021     		movs	r1, #64
 1546 0048 384A     		ldr	r2, .L137+4
 1547 004a 0096     		str	r6, [sp]
 1548 004c 02A8     		add	r0, sp, #8
 1549 004e FFF7FEFF 		bl	snprintf
 1550              	.LVL163:
 363:C:/Users/²Ü¼ÒºÀ/.iotlink/sdk/IoT_LINK/iot_link/network/tcpip/esp8266\esp8266_tcpip.c ****         if(esp8266_atcmd(cmd,">") || gEsp8266CB.flagSendIndexGetByOOB){
 1551              		.loc 1 363 9 is_stmt 1 view .LVU444
 363:C:/Users/²Ü¼ÒºÀ/.iotlink/sdk/IoT_LINK/iot_link/network/tcpip/esp8266\esp8266_tcpip.c ****         if(esp8266_atcmd(cmd,">") || gEsp8266CB.flagSendIndexGetByOOB){
 1552              		.loc 1 363 42 is_stmt 0 view .LVU445
 1553 0052 2B7A     		ldrb	r3, [r5, #8]	@ zero_extendqisi2
 364:C:/Users/²Ü¼ÒºÀ/.iotlink/sdk/IoT_LINK/iot_link/network/tcpip/esp8266\esp8266_tcpip.c ****             gEsp8266CB.flagSendOKGetByOOB = 0;
 1554              		.loc 1 364 12 view .LVU446
 1555 0054 3649     		ldr	r1, .L137+8
 363:C:/Users/²Ü¼ÒºÀ/.iotlink/sdk/IoT_LINK/iot_link/network/tcpip/esp8266\esp8266_tcpip.c ****         if(esp8266_atcmd(cmd,">") || gEsp8266CB.flagSendIndexGetByOOB){
 1556              		.loc 1 363 42 view .LVU447
 1557 0056 6FF34103 		bfc	r3, #1, #1
 364:C:/Users/²Ü¼ÒºÀ/.iotlink/sdk/IoT_LINK/iot_link/network/tcpip/esp8266\esp8266_tcpip.c ****             gEsp8266CB.flagSendOKGetByOOB = 0;
 1558              		.loc 1 364 12 view .LVU448
 1559 005a 02A8     		add	r0, sp, #8
 363:C:/Users/²Ü¼ÒºÀ/.iotlink/sdk/IoT_LINK/iot_link/network/tcpip/esp8266\esp8266_tcpip.c ****         if(esp8266_atcmd(cmd,">") || gEsp8266CB.flagSendIndexGetByOOB){
 1560              		.loc 1 363 42 view .LVU449
 1561 005c 2B72     		strb	r3, [r5, #8]
 364:C:/Users/²Ü¼ÒºÀ/.iotlink/sdk/IoT_LINK/iot_link/network/tcpip/esp8266\esp8266_tcpip.c ****             gEsp8266CB.flagSendOKGetByOOB = 0;
ARM GAS  C:\Users\²Ü¼ÒºÀ\AppData\Local\Temp\cci6pW3E.s 			page 45


 1562              		.loc 1 364 9 is_stmt 1 view .LVU450
 364:C:/Users/²Ü¼ÒºÀ/.iotlink/sdk/IoT_LINK/iot_link/network/tcpip/esp8266\esp8266_tcpip.c ****             gEsp8266CB.flagSendOKGetByOOB = 0;
 1563              		.loc 1 364 12 is_stmt 0 view .LVU451
 1564 005e FFF7FEFF 		bl	esp8266_atcmd
 1565              	.LVL164:
 364:C:/Users/²Ü¼ÒºÀ/.iotlink/sdk/IoT_LINK/iot_link/network/tcpip/esp8266\esp8266_tcpip.c ****             gEsp8266CB.flagSendOKGetByOOB = 0;
 1566              		.loc 1 364 11 view .LVU452
 1567 0062 10B9     		cbnz	r0, .L126
 364:C:/Users/²Ü¼ÒºÀ/.iotlink/sdk/IoT_LINK/iot_link/network/tcpip/esp8266\esp8266_tcpip.c ****             gEsp8266CB.flagSendOKGetByOOB = 0;
 1568              		.loc 1 364 35 discriminator 1 view .LVU453
 1569 0064 2B7A     		ldrb	r3, [r5, #8]	@ zero_extendqisi2
 1570 0066 9907     		lsls	r1, r3, #30
 1571 0068 43D5     		bpl	.L134
 1572              	.L126:
 365:C:/Users/²Ü¼ÒºÀ/.iotlink/sdk/IoT_LINK/iot_link/network/tcpip/esp8266\esp8266_tcpip.c ****             ret = at_command((unsigned char *)buf,len,"SEND OK",(char *)sock->oob_resp,CONFIG_ESP82
 1573              		.loc 1 365 13 is_stmt 1 view .LVU454
 365:C:/Users/²Ü¼ÒºÀ/.iotlink/sdk/IoT_LINK/iot_link/network/tcpip/esp8266\esp8266_tcpip.c ****             ret = at_command((unsigned char *)buf,len,"SEND OK",(char *)sock->oob_resp,CONFIG_ESP82
 1574              		.loc 1 365 43 is_stmt 0 view .LVU455
 1575 006a 2B7A     		ldrb	r3, [r5, #8]	@ zero_extendqisi2
 1576 006c 6FF30003 		bfc	r3, #0, #1
 1577 0070 2B72     		strb	r3, [r5, #8]
 366:C:/Users/²Ü¼ÒºÀ/.iotlink/sdk/IoT_LINK/iot_link/network/tcpip/esp8266\esp8266_tcpip.c ****             if( ret > 0){
 1578              		.loc 1 366 13 is_stmt 1 view .LVU456
 366:C:/Users/²Ü¼ÒºÀ/.iotlink/sdk/IoT_LINK/iot_link/network/tcpip/esp8266\esp8266_tcpip.c ****             if( ret > 0){
 1579              		.loc 1 366 19 is_stmt 0 view .LVU457
 1580 0072 4FF4FA62 		mov	r2, #2000
 1581 0076 4FF48063 		mov	r3, #1024
 1582 007a CDE90032 		strd	r3, r2, [sp]
 1583 007e 2046     		mov	r0, r4
 1584 0080 2C4A     		ldr	r2, .L137+12
 1585 0082 4346     		mov	r3, r8
 1586 0084 3146     		mov	r1, r6
 1587 0086 FFF7FEFF 		bl	at_command
 1588              	.LVL165:
 367:C:/Users/²Ü¼ÒºÀ/.iotlink/sdk/IoT_LINK/iot_link/network/tcpip/esp8266\esp8266_tcpip.c ****                 char *str;
 1589              		.loc 1 367 13 is_stmt 1 view .LVU458
 367:C:/Users/²Ü¼ÒºÀ/.iotlink/sdk/IoT_LINK/iot_link/network/tcpip/esp8266\esp8266_tcpip.c ****                 char *str;
 1590              		.loc 1 367 15 is_stmt 0 view .LVU459
 1591 008a 041E     		subs	r4, r0, #0
 1592              	.LVL166:
 367:C:/Users/²Ü¼ÒºÀ/.iotlink/sdk/IoT_LINK/iot_link/network/tcpip/esp8266\esp8266_tcpip.c ****                 char *str;
 1593              		.loc 1 367 15 view .LVU460
 1594 008c 0DDD     		ble	.L128
 1595              	.LBB61:
 368:C:/Users/²Ü¼ÒºÀ/.iotlink/sdk/IoT_LINK/iot_link/network/tcpip/esp8266\esp8266_tcpip.c ****                 str = strstr(sock->oob_resp,CN_ESP8266_RCVINDEX);  //in some cases, +IPD is not at 
 1596              		.loc 1 368 17 is_stmt 1 view .LVU461
 369:C:/Users/²Ü¼ÒºÀ/.iotlink/sdk/IoT_LINK/iot_link/network/tcpip/esp8266\esp8266_tcpip.c ****                 if(NULL != str){
 1597              		.loc 1 369 17 view .LVU462
 369:C:/Users/²Ü¼ÒºÀ/.iotlink/sdk/IoT_LINK/iot_link/network/tcpip/esp8266\esp8266_tcpip.c ****                 if(NULL != str){
 1598              		.loc 1 369 23 is_stmt 0 view .LVU463
 1599 008e 2A49     		ldr	r1, .L137+16
 1600 0090 4046     		mov	r0, r8
 1601              	.LVL167:
 369:C:/Users/²Ü¼ÒºÀ/.iotlink/sdk/IoT_LINK/iot_link/network/tcpip/esp8266\esp8266_tcpip.c ****                 if(NULL != str){
 1602              		.loc 1 369 23 view .LVU464
 1603 0092 FFF7FEFF 		bl	strstr
 1604              	.LVL168:
ARM GAS  C:\Users\²Ü¼ÒºÀ\AppData\Local\Temp\cci6pW3E.s 			page 46


 370:C:/Users/²Ü¼ÒºÀ/.iotlink/sdk/IoT_LINK/iot_link/network/tcpip/esp8266\esp8266_tcpip.c ****                     Esp8266MsgDeal(NULL,str,(char *)sock->oob_resp + ret - str);
 1605              		.loc 1 370 17 is_stmt 1 view .LVU465
 370:C:/Users/²Ü¼ÒºÀ/.iotlink/sdk/IoT_LINK/iot_link/network/tcpip/esp8266\esp8266_tcpip.c ****                     Esp8266MsgDeal(NULL,str,(char *)sock->oob_resp + ret - str);
 1606              		.loc 1 370 19 is_stmt 0 view .LVU466
 1607 0096 0146     		mov	r1, r0
 1608 0098 28B1     		cbz	r0, .L135
 371:C:/Users/²Ü¼ÒºÀ/.iotlink/sdk/IoT_LINK/iot_link/network/tcpip/esp8266\esp8266_tcpip.c ****                 }
 1609              		.loc 1 371 21 is_stmt 1 view .LVU467
 371:C:/Users/²Ü¼ÒºÀ/.iotlink/sdk/IoT_LINK/iot_link/network/tcpip/esp8266\esp8266_tcpip.c ****                 }
 1610              		.loc 1 371 68 is_stmt 0 view .LVU468
 1611 009a 08EB0402 		add	r2, r8, r4
 371:C:/Users/²Ü¼ÒºÀ/.iotlink/sdk/IoT_LINK/iot_link/network/tcpip/esp8266\esp8266_tcpip.c ****                 }
 1612              		.loc 1 371 21 view .LVU469
 1613 009e 121A     		subs	r2, r2, r0
 1614 00a0 0020     		movs	r0, #0
 1615              	.LVL169:
 371:C:/Users/²Ü¼ÒºÀ/.iotlink/sdk/IoT_LINK/iot_link/network/tcpip/esp8266\esp8266_tcpip.c ****                 }
 1616              		.loc 1 371 21 view .LVU470
 1617 00a2 FFF7FEFF 		bl	Esp8266MsgDeal
 1618              	.LVL170:
 1619              	.L135:
 371:C:/Users/²Ü¼ÒºÀ/.iotlink/sdk/IoT_LINK/iot_link/network/tcpip/esp8266\esp8266_tcpip.c ****                 }
 1620              		.loc 1 371 21 view .LVU471
 1621 00a6 3446     		mov	r4, r6
 1622              	.LVL171:
 371:C:/Users/²Ü¼ÒºÀ/.iotlink/sdk/IoT_LINK/iot_link/network/tcpip/esp8266\esp8266_tcpip.c ****                 }
 1623              		.loc 1 371 21 view .LVU472
 1624 00a8 04E0     		b	.L127
 1625              	.LVL172:
 1626              	.L128:
 371:C:/Users/²Ü¼ÒºÀ/.iotlink/sdk/IoT_LINK/iot_link/network/tcpip/esp8266\esp8266_tcpip.c ****                 }
 1627              		.loc 1 371 21 view .LVU473
 1628              	.LBE61:
 375:C:/Users/²Ü¼ÒºÀ/.iotlink/sdk/IoT_LINK/iot_link/network/tcpip/esp8266\esp8266_tcpip.c ****                 ret = len;
 1629              		.loc 1 375 18 is_stmt 1 view .LVU474
 375:C:/Users/²Ü¼ÒºÀ/.iotlink/sdk/IoT_LINK/iot_link/network/tcpip/esp8266\esp8266_tcpip.c ****                 ret = len;
 1630              		.loc 1 375 21 is_stmt 0 view .LVU475
 1631 00aa 2B7A     		ldrb	r3, [r5, #8]	@ zero_extendqisi2
 1632 00ac 13F0010F 		tst	r3, #1
 1633 00b0 18BF     		it	ne
 1634 00b2 3446     		movne	r4, r6
 1635              	.LVL173:
 1636              	.L127:
 380:C:/Users/²Ü¼ÒºÀ/.iotlink/sdk/IoT_LINK/iot_link/network/tcpip/esp8266\esp8266_tcpip.c ****     }
 1637              		.loc 1 380 9 is_stmt 1 view .LVU476
 1638 00b4 2868     		ldr	r0, [r5]
 1639 00b6 FFF7FEFF 		bl	osal_mutex_unlock
 1640              	.LVL174:
 383:C:/Users/²Ü¼ÒºÀ/.iotlink/sdk/IoT_LINK/iot_link/network/tcpip/esp8266\esp8266_tcpip.c ****     }
 1641              		.loc 1 383 9 view .LVU477
 383:C:/Users/²Ü¼ÒºÀ/.iotlink/sdk/IoT_LINK/iot_link/network/tcpip/esp8266\esp8266_tcpip.c ****     }
 1642              		.loc 1 383 9 view .LVU478
 385:C:/Users/²Ü¼ÒºÀ/.iotlink/sdk/IoT_LINK/iot_link/network/tcpip/esp8266\esp8266_tcpip.c ****         ret = 0;
 1643              		.loc 1 385 5 view .LVU479
 385:C:/Users/²Ü¼ÒºÀ/.iotlink/sdk/IoT_LINK/iot_link/network/tcpip/esp8266\esp8266_tcpip.c ****         ret = 0;
 1644              		.loc 1 385 7 is_stmt 0 view .LVU480
 1645 00ba 002C     		cmp	r4, #0
ARM GAS  C:\Users\²Ü¼ÒºÀ\AppData\Local\Temp\cci6pW3E.s 			page 47


 1646 00bc 15DC     		bgt	.L123
 1647              	.LVL175:
 1648              	.L129:
 386:C:/Users/²Ü¼ÒºÀ/.iotlink/sdk/IoT_LINK/iot_link/network/tcpip/esp8266\esp8266_tcpip.c ****         sock->isConnect = 0; ///< i think some errors happened, maybe lost
 1649              		.loc 1 386 9 is_stmt 1 view .LVU481
 387:C:/Users/²Ü¼ÒºÀ/.iotlink/sdk/IoT_LINK/iot_link/network/tcpip/esp8266\esp8266_tcpip.c ****         LINK_LOG_ERROR("SEND FD:%d Len:%d Failed  and set it to disconnect",fd,len);
 1650              		.loc 1 387 9 view .LVU482
 387:C:/Users/²Ü¼ÒºÀ/.iotlink/sdk/IoT_LINK/iot_link/network/tcpip/esp8266\esp8266_tcpip.c ****         LINK_LOG_ERROR("SEND FD:%d Len:%d Failed  and set it to disconnect",fd,len);
 1651              		.loc 1 387 25 is_stmt 0 view .LVU483
 1652 00be 0024     		movs	r4, #0
 1653 00c0 C9F81040 		str	r4, [r9, #16]
 388:C:/Users/²Ü¼ÒºÀ/.iotlink/sdk/IoT_LINK/iot_link/network/tcpip/esp8266\esp8266_tcpip.c ****     }
 1654              		.loc 1 388 9 is_stmt 1 view .LVU484
 388:C:/Users/²Ü¼ÒºÀ/.iotlink/sdk/IoT_LINK/iot_link/network/tcpip/esp8266\esp8266_tcpip.c ****     }
 1655              		.loc 1 388 9 view .LVU485
 388:C:/Users/²Ü¼ÒºÀ/.iotlink/sdk/IoT_LINK/iot_link/network/tcpip/esp8266\esp8266_tcpip.c ****     }
 1656              		.loc 1 388 9 view .LVU486
 1657 00c4 0420     		movs	r0, #4
 1658 00c6 FFF7FEFF 		bl	link_log_level_name
 1659              	.LVL176:
 1660 00ca 0546     		mov	r5, r0
 1661 00cc FFF7FEFF 		bl	osal_sys_time
 1662              	.LVL177:
 1663 00d0 1A4B     		ldr	r3, .L137+20
 1664 00d2 0246     		mov	r2, r0
 1665 00d4 CDE90076 		strd	r7, r6, [sp]
 1666 00d8 1948     		ldr	r0, .L137+24
 1667 00da 2946     		mov	r1, r5
 1668 00dc FFF7FEFF 		bl	printf
 1669              	.LVL178:
 388:C:/Users/²Ü¼ÒºÀ/.iotlink/sdk/IoT_LINK/iot_link/network/tcpip/esp8266\esp8266_tcpip.c ****     }
 1670              		.loc 1 388 9 view .LVU487
 1671 00e0 184B     		ldr	r3, .L137+28
 1672 00e2 1B68     		ldr	r3, [r3]
 1673 00e4 9868     		ldr	r0, [r3, #8]
 1674 00e6 FFF7FEFF 		bl	fflush
 1675              	.LVL179:
 1676              	.L123:
 391:C:/Users/²Ü¼ÒºÀ/.iotlink/sdk/IoT_LINK/iot_link/network/tcpip/esp8266\esp8266_tcpip.c **** 
 1677              		.loc 1 391 1 is_stmt 0 view .LVU488
 1678 00ea 2046     		mov	r0, r4
 1679 00ec 23B0     		add	sp, sp, #140
 1680              	.LCFI22:
 1681              		.cfi_remember_state
 1682              		.cfi_def_cfa_offset 28
 1683              		@ sp needed
 1684 00ee BDE8F083 		pop	{r4, r5, r6, r7, r8, r9, pc}
 1685              	.LVL180:
 1686              	.L134:
 1687              	.LCFI23:
 1688              		.cfi_restore_state
 351:C:/Users/²Ü¼ÒºÀ/.iotlink/sdk/IoT_LINK/iot_link/network/tcpip/esp8266\esp8266_tcpip.c ****     char cmd[CN_STACK_STRMAX];
 1689              		.loc 1 351 9 view .LVU489
 1690 00f2 4FF0FF34 		mov	r4, #-1
 1691              	.LVL181:
 351:C:/Users/²Ü¼ÒºÀ/.iotlink/sdk/IoT_LINK/iot_link/network/tcpip/esp8266\esp8266_tcpip.c ****     char cmd[CN_STACK_STRMAX];
 1692              		.loc 1 351 9 view .LVU490
ARM GAS  C:\Users\²Ü¼ÒºÀ\AppData\Local\Temp\cci6pW3E.s 			page 48


 1693 00f6 DDE7     		b	.L127
 1694              	.LVL182:
 1695              	.L125:
 383:C:/Users/²Ü¼ÒºÀ/.iotlink/sdk/IoT_LINK/iot_link/network/tcpip/esp8266\esp8266_tcpip.c ****     }
 1696              		.loc 1 383 9 is_stmt 1 view .LVU491
 383:C:/Users/²Ü¼ÒºÀ/.iotlink/sdk/IoT_LINK/iot_link/network/tcpip/esp8266\esp8266_tcpip.c ****     }
 1697              		.loc 1 383 9 view .LVU492
 383:C:/Users/²Ü¼ÒºÀ/.iotlink/sdk/IoT_LINK/iot_link/network/tcpip/esp8266\esp8266_tcpip.c ****     }
 1698              		.loc 1 383 9 view .LVU493
 1699 00f8 0420     		movs	r0, #4
 1700 00fa FFF7FEFF 		bl	link_log_level_name
 1701              	.LVL183:
 1702 00fe 0446     		mov	r4, r0
 1703              	.LVL184:
 383:C:/Users/²Ü¼ÒºÀ/.iotlink/sdk/IoT_LINK/iot_link/network/tcpip/esp8266\esp8266_tcpip.c ****     }
 1704              		.loc 1 383 9 is_stmt 0 view .LVU494
 1705 0100 FFF7FEFF 		bl	osal_sys_time
 1706              	.LVL185:
 1707 0104 CDE90076 		strd	r7, r6, [sp]
 1708 0108 0246     		mov	r2, r0
 1709 010a 0C4B     		ldr	r3, .L137+20
 1710 010c 0E48     		ldr	r0, .L137+32
 1711 010e 2146     		mov	r1, r4
 1712 0110 FFF7FEFF 		bl	printf
 1713              	.LVL186:
 383:C:/Users/²Ü¼ÒºÀ/.iotlink/sdk/IoT_LINK/iot_link/network/tcpip/esp8266\esp8266_tcpip.c ****     }
 1714              		.loc 1 383 9 is_stmt 1 view .LVU495
 1715 0114 0B4B     		ldr	r3, .L137+28
 1716 0116 1B68     		ldr	r3, [r3]
 1717 0118 9868     		ldr	r0, [r3, #8]
 1718 011a FFF7FEFF 		bl	fflush
 1719              	.LVL187:
 383:C:/Users/²Ü¼ÒºÀ/.iotlink/sdk/IoT_LINK/iot_link/network/tcpip/esp8266\esp8266_tcpip.c ****     }
 1720              		.loc 1 383 9 view .LVU496
 383:C:/Users/²Ü¼ÒºÀ/.iotlink/sdk/IoT_LINK/iot_link/network/tcpip/esp8266\esp8266_tcpip.c ****     }
 1721              		.loc 1 383 9 view .LVU497
 385:C:/Users/²Ü¼ÒºÀ/.iotlink/sdk/IoT_LINK/iot_link/network/tcpip/esp8266\esp8266_tcpip.c ****         ret = 0;
 1722              		.loc 1 385 5 view .LVU498
 1723 011e CEE7     		b	.L129
 1724              	.LVL188:
 1725              	.L133:
 356:C:/Users/²Ü¼ÒºÀ/.iotlink/sdk/IoT_LINK/iot_link/network/tcpip/esp8266\esp8266_tcpip.c ****     }
 1726              		.loc 1 356 16 is_stmt 0 view .LVU499
 1727 0120 4FF0FF34 		mov	r4, #-1
 1728              	.LVL189:
 356:C:/Users/²Ü¼ÒºÀ/.iotlink/sdk/IoT_LINK/iot_link/network/tcpip/esp8266\esp8266_tcpip.c ****     }
 1729              		.loc 1 356 16 view .LVU500
 1730 0124 E1E7     		b	.L123
 1731              	.L138:
 1732 0126 00BF     		.align	2
 1733              	.L137:
 1734 0128 00000000 		.word	.LANCHOR0
 1735 012c 00000000 		.word	.LC10
 1736 0130 13000000 		.word	.LC11
 1737 0134 8A000000 		.word	.LC9
 1738 0138 83000000 		.word	.LC8
 1739 013c 00000000 		.word	.LANCHOR3
ARM GAS  C:\Users\²Ü¼ÒºÀ\AppData\Local\Temp\cci6pW3E.s 			page 49


 1740 0140 43000000 		.word	.LC13
 1741 0144 00000000 		.word	_impure_ptr
 1742 0148 15000000 		.word	.LC12
 1743              		.cfi_endproc
 1744              	.LFE15:
 1746              		.section	.text.Esp8266Sendto,"ax",%progbits
 1747              		.align	1
 1748              		.syntax unified
 1749              		.thumb
 1750              		.thumb_func
 1751              		.fpu fpv4-sp-d16
 1753              	Esp8266Sendto:
 1754              	.LVL190:
 1755              	.LFB16:
 395:C:/Users/²Ü¼ÒºÀ/.iotlink/sdk/IoT_LINK/iot_link/network/tcpip/esp8266\esp8266_tcpip.c ****     int ret = -1;
 1756              		.loc 1 395 1 is_stmt 1 view -0
 1757              		.cfi_startproc
 1758              		@ args = 8, pretend = 0, frame = 8
 1759              		@ frame_needed = 0, uses_anonymous_args = 0
 396:C:/Users/²Ü¼ÒºÀ/.iotlink/sdk/IoT_LINK/iot_link/network/tcpip/esp8266\esp8266_tcpip.c ****     Esp8266Sock_t *sock;
 1760              		.loc 1 396 5 view .LVU502
 397:C:/Users/²Ü¼ÒºÀ/.iotlink/sdk/IoT_LINK/iot_link/network/tcpip/esp8266\esp8266_tcpip.c ****     if((fd < 0) || (fd >= CN_ESP8266_SOCKMAX) || ((sock = Esp8266SockGet(fd))== NULL) || (msg == NU
 1761              		.loc 1 397 5 view .LVU503
 398:C:/Users/²Ü¼ÒºÀ/.iotlink/sdk/IoT_LINK/iot_link/network/tcpip/esp8266\esp8266_tcpip.c ****         return ret;
 1762              		.loc 1 398 5 view .LVU504
 395:C:/Users/²Ü¼ÒºÀ/.iotlink/sdk/IoT_LINK/iot_link/network/tcpip/esp8266\esp8266_tcpip.c ****     int ret = -1;
 1763              		.loc 1 395 1 is_stmt 0 view .LVU505
 1764 0000 F7B5     		push	{r0, r1, r2, r4, r5, r6, r7, lr}
 1765              	.LCFI24:
 1766              		.cfi_def_cfa_offset 32
 1767              		.cfi_offset 4, -20
 1768              		.cfi_offset 5, -16
 1769              		.cfi_offset 6, -12
 1770              		.cfi_offset 7, -8
 1771              		.cfi_offset 14, -4
 398:C:/Users/²Ü¼ÒºÀ/.iotlink/sdk/IoT_LINK/iot_link/network/tcpip/esp8266\esp8266_tcpip.c ****         return ret;
 1772              		.loc 1 398 7 view .LVU506
 1773 0002 0428     		cmp	r0, #4
 395:C:/Users/²Ü¼ÒºÀ/.iotlink/sdk/IoT_LINK/iot_link/network/tcpip/esp8266\esp8266_tcpip.c ****     int ret = -1;
 1774              		.loc 1 395 1 view .LVU507
 1775 0004 0D46     		mov	r5, r1
 1776 0006 1646     		mov	r6, r2
 1777 0008 0446     		mov	r4, r0
 1778 000a DDE90812 		ldrd	r1, r2, [sp, #32]
 1779              	.LVL191:
 398:C:/Users/²Ü¼ÒºÀ/.iotlink/sdk/IoT_LINK/iot_link/network/tcpip/esp8266\esp8266_tcpip.c ****         return ret;
 1780              		.loc 1 398 7 view .LVU508
 1781 000e 15D8     		bhi	.L139
 1782              	.LVL192:
 1783              	.LBB62:
 1784              	.LBI62:
 138:C:/Users/²Ü¼ÒºÀ/.iotlink/sdk/IoT_LINK/iot_link/network/tcpip/esp8266\esp8266_tcpip.c **** {
 1785              		.loc 1 138 23 is_stmt 1 view .LVU509
 1786              	.LBB63:
 140:C:/Users/²Ü¼ÒºÀ/.iotlink/sdk/IoT_LINK/iot_link/network/tcpip/esp8266\esp8266_tcpip.c **** }
 1787              		.loc 1 140 5 view .LVU510
 140:C:/Users/²Ü¼ÒºÀ/.iotlink/sdk/IoT_LINK/iot_link/network/tcpip/esp8266\esp8266_tcpip.c **** }
ARM GAS  C:\Users\²Ü¼ÒºÀ\AppData\Local\Temp\cci6pW3E.s 			page 50


 1788              		.loc 1 140 32 is_stmt 0 view .LVU511
 1789 0010 0C4F     		ldr	r7, .L148
 1790 0012 07EB8007 		add	r7, r7, r0, lsl #2
 1791 0016 FF68     		ldr	r7, [r7, #12]
 1792              	.LVL193:
 140:C:/Users/²Ü¼ÒºÀ/.iotlink/sdk/IoT_LINK/iot_link/network/tcpip/esp8266\esp8266_tcpip.c **** }
 1793              		.loc 1 140 32 view .LVU512
 1794              	.LBE63:
 1795              	.LBE62:
 398:C:/Users/²Ü¼ÒºÀ/.iotlink/sdk/IoT_LINK/iot_link/network/tcpip/esp8266\esp8266_tcpip.c ****         return ret;
 1796              		.loc 1 398 47 view .LVU513
 1797 0018 87B1     		cbz	r7, .L139
 398:C:/Users/²Ü¼ÒºÀ/.iotlink/sdk/IoT_LINK/iot_link/network/tcpip/esp8266\esp8266_tcpip.c ****         return ret;
 1798              		.loc 1 398 87 discriminator 2 view .LVU514
 1799 001a 7DB1     		cbz	r5, .L139
 398:C:/Users/²Ü¼ÒºÀ/.iotlink/sdk/IoT_LINK/iot_link/network/tcpip/esp8266\esp8266_tcpip.c ****         return ret;
 1800              		.loc 1 398 104 discriminator 3 view .LVU515
 1801 001c 002E     		cmp	r6, #0
 1802 001e 0DDD     		ble	.L139
 402:C:/Users/²Ü¼ÒºÀ/.iotlink/sdk/IoT_LINK/iot_link/network/tcpip/esp8266\esp8266_tcpip.c ****     {
 1803              		.loc 1 402 5 is_stmt 1 view .LVU516
 402:C:/Users/²Ü¼ÒºÀ/.iotlink/sdk/IoT_LINK/iot_link/network/tcpip/esp8266\esp8266_tcpip.c ****     {
 1804              		.loc 1 402 8 is_stmt 0 view .LVU517
 1805 0020 3F69     		ldr	r7, [r7, #16]
 1806              	.LVL194:
 402:C:/Users/²Ü¼ÒºÀ/.iotlink/sdk/IoT_LINK/iot_link/network/tcpip/esp8266\esp8266_tcpip.c ****     {
 1807              		.loc 1 402 8 view .LVU518
 1808 0022 1FB9     		cbnz	r7, .L141
 1809 0024 0193     		str	r3, [sp, #4]
 404:C:/Users/²Ü¼ÒºÀ/.iotlink/sdk/IoT_LINK/iot_link/network/tcpip/esp8266\esp8266_tcpip.c ****     }
 1810              		.loc 1 404 9 is_stmt 1 view .LVU519
 1811 0026 FFF7FEFF 		bl	Esp8266Connect
 1812              	.LVL195:
 404:C:/Users/²Ü¼ÒºÀ/.iotlink/sdk/IoT_LINK/iot_link/network/tcpip/esp8266\esp8266_tcpip.c ****     }
 1813              		.loc 1 404 9 is_stmt 0 view .LVU520
 1814 002a 019B     		ldr	r3, [sp, #4]
 1815              	.LVL196:
 1816              	.L141:
 406:C:/Users/²Ü¼ÒºÀ/.iotlink/sdk/IoT_LINK/iot_link/network/tcpip/esp8266\esp8266_tcpip.c **** }
 1817              		.loc 1 406 5 is_stmt 1 view .LVU521
 406:C:/Users/²Ü¼ÒºÀ/.iotlink/sdk/IoT_LINK/iot_link/network/tcpip/esp8266\esp8266_tcpip.c **** }
 1818              		.loc 1 406 12 is_stmt 0 view .LVU522
 1819 002c 3246     		mov	r2, r6
 1820 002e 2946     		mov	r1, r5
 1821 0030 2046     		mov	r0, r4
 407:C:/Users/²Ü¼ÒºÀ/.iotlink/sdk/IoT_LINK/iot_link/network/tcpip/esp8266\esp8266_tcpip.c **** 
 1822              		.loc 1 407 1 view .LVU523
 1823 0032 03B0     		add	sp, sp, #12
 1824              	.LCFI25:
 1825              		.cfi_remember_state
 1826              		.cfi_def_cfa_offset 20
 1827              		@ sp needed
 1828 0034 BDE8F040 		pop	{r4, r5, r6, r7, lr}
 1829              	.LCFI26:
 1830              		.cfi_restore 14
 1831              		.cfi_restore 7
 1832              		.cfi_restore 6
ARM GAS  C:\Users\²Ü¼ÒºÀ\AppData\Local\Temp\cci6pW3E.s 			page 51


 1833              		.cfi_restore 5
 1834              		.cfi_restore 4
 1835              		.cfi_def_cfa_offset 0
 1836              	.LVL197:
 406:C:/Users/²Ü¼ÒºÀ/.iotlink/sdk/IoT_LINK/iot_link/network/tcpip/esp8266\esp8266_tcpip.c **** }
 1837              		.loc 1 406 12 view .LVU524
 1838 0038 FFF7FEBF 		b	Esp8266Send
 1839              	.LVL198:
 1840              	.L139:
 1841              	.LCFI27:
 1842              		.cfi_restore_state
 407:C:/Users/²Ü¼ÒºÀ/.iotlink/sdk/IoT_LINK/iot_link/network/tcpip/esp8266\esp8266_tcpip.c **** 
 1843              		.loc 1 407 1 view .LVU525
 1844 003c 4FF0FF30 		mov	r0, #-1
 1845              	.LVL199:
 407:C:/Users/²Ü¼ÒºÀ/.iotlink/sdk/IoT_LINK/iot_link/network/tcpip/esp8266\esp8266_tcpip.c **** 
 1846              		.loc 1 407 1 view .LVU526
 1847 0040 03B0     		add	sp, sp, #12
 1848              	.LCFI28:
 1849              		.cfi_def_cfa_offset 20
 1850              		@ sp needed
 1851 0042 F0BD     		pop	{r4, r5, r6, r7, pc}
 1852              	.LVL200:
 1853              	.L149:
 407:C:/Users/²Ü¼ÒºÀ/.iotlink/sdk/IoT_LINK/iot_link/network/tcpip/esp8266\esp8266_tcpip.c **** 
 1854              		.loc 1 407 1 view .LVU527
 1855              		.align	2
 1856              	.L148:
 1857 0044 00000000 		.word	.LANCHOR0
 1858              		.cfi_endproc
 1859              	.LFE16:
 1861              		.section	.text.Esp8266GetPeerName,"ax",%progbits
 1862              		.align	1
 1863              		.syntax unified
 1864              		.thumb
 1865              		.thumb_func
 1866              		.fpu fpv4-sp-d16
 1868              	Esp8266GetPeerName:
 1869              	.LFB38:
 1870              		.cfi_startproc
 1871              		@ args = 0, pretend = 0, frame = 0
 1872              		@ frame_needed = 0, uses_anonymous_args = 0
 1873              		@ link register save eliminated.
 1874 0000 0020     		movs	r0, #0
 1875 0002 7047     		bx	lr
 1876              		.cfi_endproc
 1877              	.LFE38:
 1879              		.section	.text.Esp8266Accept,"ax",%progbits
 1880              		.align	1
 1881              		.syntax unified
 1882              		.thumb
 1883              		.thumb_func
 1884              		.fpu fpv4-sp-d16
 1886              	Esp8266Accept:
 1887              	.LFB34:
 1888              		.cfi_startproc
 1889              		@ args = 0, pretend = 0, frame = 0
ARM GAS  C:\Users\²Ü¼ÒºÀ\AppData\Local\Temp\cci6pW3E.s 			page 52


 1890              		@ frame_needed = 0, uses_anonymous_args = 0
 1891              		@ link register save eliminated.
 1892 0000 4FF0FF30 		mov	r0, #-1
 1893 0004 7047     		bx	lr
 1894              		.cfi_endproc
 1895              	.LFE34:
 1897              		.section	.rodata.Esp8266GetHostByName.str1.1,"aMS",%progbits,1
 1898              	.LC14:
 1899 0000 41542B43 		.ascii	"AT+CIPDOMAIN=\"%s\"\015\012\000"
 1899      4950444F 
 1899      4D41494E 
 1899      3D222573 
 1899      220D0A00 
 1900              	.LC15:
 1901 0014 2B434950 		.ascii	"+CIPDOMAIN\000"
 1901      444F4D41 
 1901      494E00
 1902              	.LC16:
 1903 001f 25642E25 		.ascii	"%d.%d.%d.%d\000"
 1903      642E2564 
 1903      2E256400 
 1904              		.section	.text.Esp8266GetHostByName,"ax",%progbits
 1905              		.align	1
 1906              		.syntax unified
 1907              		.thumb
 1908              		.thumb_func
 1909              		.fpu fpv4-sp-d16
 1911              	Esp8266GetHostByName:
 1912              	.LVL201:
 1913              	.LFB25:
 510:C:/Users/²Ü¼ÒºÀ/.iotlink/sdk/IoT_LINK/iot_link/network/tcpip/esp8266\esp8266_tcpip.c **** 
 511:C:/Users/²Ü¼ÒºÀ/.iotlink/sdk/IoT_LINK/iot_link/network/tcpip/esp8266\esp8266_tcpip.c **** static int Esp8266GetPeerName(int fd, struct sockaddr *addr,socklen_t *addrlen)
 512:C:/Users/²Ü¼ÒºÀ/.iotlink/sdk/IoT_LINK/iot_link/network/tcpip/esp8266\esp8266_tcpip.c **** {
 513:C:/Users/²Ü¼ÒºÀ/.iotlink/sdk/IoT_LINK/iot_link/network/tcpip/esp8266\esp8266_tcpip.c ****     //not implemented
 514:C:/Users/²Ü¼ÒºÀ/.iotlink/sdk/IoT_LINK/iot_link/network/tcpip/esp8266\esp8266_tcpip.c ****     return 0;
 515:C:/Users/²Ü¼ÒºÀ/.iotlink/sdk/IoT_LINK/iot_link/network/tcpip/esp8266\esp8266_tcpip.c **** }
 516:C:/Users/²Ü¼ÒºÀ/.iotlink/sdk/IoT_LINK/iot_link/network/tcpip/esp8266\esp8266_tcpip.c **** 
 517:C:/Users/²Ü¼ÒºÀ/.iotlink/sdk/IoT_LINK/iot_link/network/tcpip/esp8266\esp8266_tcpip.c **** ///< here we must make sure that the hostent returned by gethostbyname won't be freeed, and
 518:C:/Users/²Ü¼ÒºÀ/.iotlink/sdk/IoT_LINK/iot_link/network/tcpip/esp8266\esp8266_tcpip.c **** ///< this data structure must be a static one, so we set it as a local global one
 519:C:/Users/²Ü¼ÒºÀ/.iotlink/sdk/IoT_LINK/iot_link/network/tcpip/esp8266\esp8266_tcpip.c **** 
 520:C:/Users/²Ü¼ÒºÀ/.iotlink/sdk/IoT_LINK/iot_link/network/tcpip/esp8266\esp8266_tcpip.c **** static struct hostent gEsp8266HostEnt;
 521:C:/Users/²Ü¼ÒºÀ/.iotlink/sdk/IoT_LINK/iot_link/network/tcpip/esp8266\esp8266_tcpip.c **** static uint8_t        s_esp8266_ipv4_addr[4];
 522:C:/Users/²Ü¼ÒºÀ/.iotlink/sdk/IoT_LINK/iot_link/network/tcpip/esp8266\esp8266_tcpip.c **** static char          *s_esp8266_ipv4_lst[2];    ///< must be 2 or more because it terminated by NUL
 523:C:/Users/²Ü¼ÒºÀ/.iotlink/sdk/IoT_LINK/iot_link/network/tcpip/esp8266\esp8266_tcpip.c **** static struct hostent *Esp8266GetHostByName(const char *name)
 524:C:/Users/²Ü¼ÒºÀ/.iotlink/sdk/IoT_LINK/iot_link/network/tcpip/esp8266\esp8266_tcpip.c **** {
 1914              		.loc 1 524 1 is_stmt 1 view -0
 1915              		.cfi_startproc
 1916              		@ args = 0, pretend = 0, frame = 272
 1917              		@ frame_needed = 0, uses_anonymous_args = 0
 525:C:/Users/²Ü¼ÒºÀ/.iotlink/sdk/IoT_LINK/iot_link/network/tcpip/esp8266\esp8266_tcpip.c ****     char cmd[CN_STACK_STRMAX];
 1918              		.loc 1 525 5 view .LVU529
 526:C:/Users/²Ü¼ÒºÀ/.iotlink/sdk/IoT_LINK/iot_link/network/tcpip/esp8266\esp8266_tcpip.c ****     char resp[CN_STACK_STRMAX];
 1919              		.loc 1 526 5 view .LVU530
 527:C:/Users/²Ü¼ÒºÀ/.iotlink/sdk/IoT_LINK/iot_link/network/tcpip/esp8266\esp8266_tcpip.c **** 
 528:C:/Users/²Ü¼ÒºÀ/.iotlink/sdk/IoT_LINK/iot_link/network/tcpip/esp8266\esp8266_tcpip.c ****     char *str;
 1920              		.loc 1 528 5 view .LVU531
 529:C:/Users/²Ü¼ÒºÀ/.iotlink/sdk/IoT_LINK/iot_link/network/tcpip/esp8266\esp8266_tcpip.c ****     int ipv4[4];
ARM GAS  C:\Users\²Ü¼ÒºÀ\AppData\Local\Temp\cci6pW3E.s 			page 53


 1921              		.loc 1 529 5 view .LVU532
 530:C:/Users/²Ü¼ÒºÀ/.iotlink/sdk/IoT_LINK/iot_link/network/tcpip/esp8266\esp8266_tcpip.c ****     int fmt_num;
 1922              		.loc 1 530 5 view .LVU533
 531:C:/Users/²Ü¼ÒºÀ/.iotlink/sdk/IoT_LINK/iot_link/network/tcpip/esp8266\esp8266_tcpip.c **** 
 532:C:/Users/²Ü¼ÒºÀ/.iotlink/sdk/IoT_LINK/iot_link/network/tcpip/esp8266\esp8266_tcpip.c ****     struct hostent *hptr = NULL;
 1923              		.loc 1 532 5 view .LVU534
 533:C:/Users/²Ü¼ÒºÀ/.iotlink/sdk/IoT_LINK/iot_link/network/tcpip/esp8266\esp8266_tcpip.c **** 
 534:C:/Users/²Ü¼ÒºÀ/.iotlink/sdk/IoT_LINK/iot_link/network/tcpip/esp8266\esp8266_tcpip.c ****     (void) memset(resp,0,CN_STACK_STRMAX);
 1924              		.loc 1 534 5 view .LVU535
 524:C:/Users/²Ü¼ÒºÀ/.iotlink/sdk/IoT_LINK/iot_link/network/tcpip/esp8266\esp8266_tcpip.c ****     char cmd[CN_STACK_STRMAX];
 1925              		.loc 1 524 1 is_stmt 0 view .LVU536
 1926 0000 F0B5     		push	{r4, r5, r6, r7, lr}
 1927              	.LCFI29:
 1928              		.cfi_def_cfa_offset 20
 1929              		.cfi_offset 4, -20
 1930              		.cfi_offset 5, -16
 1931              		.cfi_offset 6, -12
 1932              		.cfi_offset 7, -8
 1933              		.cfi_offset 14, -4
 1934              		.loc 1 534 12 view .LVU537
 1935 0002 8024     		movs	r4, #128
 524:C:/Users/²Ü¼ÒºÀ/.iotlink/sdk/IoT_LINK/iot_link/network/tcpip/esp8266\esp8266_tcpip.c ****     char cmd[CN_STACK_STRMAX];
 1936              		.loc 1 524 1 view .LVU538
 1937 0004 C7B0     		sub	sp, sp, #284
 1938              	.LCFI30:
 1939              		.cfi_def_cfa_offset 304
 1940              		.loc 1 534 12 view .LVU539
 1941 0006 2246     		mov	r2, r4
 524:C:/Users/²Ü¼ÒºÀ/.iotlink/sdk/IoT_LINK/iot_link/network/tcpip/esp8266\esp8266_tcpip.c ****     char cmd[CN_STACK_STRMAX];
 1942              		.loc 1 524 1 view .LVU540
 1943 0008 0546     		mov	r5, r0
 1944              		.loc 1 534 12 view .LVU541
 1945 000a 0021     		movs	r1, #0
 1946 000c 26A8     		add	r0, sp, #152
 1947              	.LVL202:
 1948              		.loc 1 534 12 view .LVU542
 1949 000e FFF7FEFF 		bl	memset
 1950              	.LVL203:
 535:C:/Users/²Ü¼ÒºÀ/.iotlink/sdk/IoT_LINK/iot_link/network/tcpip/esp8266\esp8266_tcpip.c ****     (void) snprintf(cmd,CN_STACK_STRMAX,"AT+CIPDOMAIN=\"%s\"\r\n",name);
 1951              		.loc 1 535 5 is_stmt 1 view .LVU543
 1952              		.loc 1 535 12 is_stmt 0 view .LVU544
 1953 0012 2146     		mov	r1, r4
 1954 0014 264A     		ldr	r2, .L158
 1955 0016 2B46     		mov	r3, r5
 1956 0018 06A8     		add	r0, sp, #24
 1957 001a FFF7FEFF 		bl	snprintf
 1958              	.LVL204:
 536:C:/Users/²Ü¼ÒºÀ/.iotlink/sdk/IoT_LINK/iot_link/network/tcpip/esp8266\esp8266_tcpip.c ****     if(false == esp8266_atcmd_response(cmd,"+CIPDOMAIN",resp,CN_STACK_STRMAX))
 1959              		.loc 1 536 5 is_stmt 1 view .LVU545
 1960              	.LBB66:
 1961              	.LBI66:
 158:C:/Users/²Ü¼ÒºÀ/.iotlink/sdk/IoT_LINK/iot_link/network/tcpip/esp8266\esp8266_tcpip.c **** {
 1962              		.loc 1 158 15 view .LVU546
 1963              	.LBB67:
 160:C:/Users/²Ü¼ÒºÀ/.iotlink/sdk/IoT_LINK/iot_link/network/tcpip/esp8266\esp8266_tcpip.c ****     ret = at_command((unsigned char *)cmd,strlen(cmd),index,(char *)buf,len,CONFIG_ESP8266_CMDTIMEO
 1964              		.loc 1 160 5 view .LVU547
 161:C:/Users/²Ü¼ÒºÀ/.iotlink/sdk/IoT_LINK/iot_link/network/tcpip/esp8266\esp8266_tcpip.c ****     if(ret >= 0){
ARM GAS  C:\Users\²Ü¼ÒºÀ\AppData\Local\Temp\cci6pW3E.s 			page 54


 1965              		.loc 1 161 5 view .LVU548
 161:C:/Users/²Ü¼ÒºÀ/.iotlink/sdk/IoT_LINK/iot_link/network/tcpip/esp8266\esp8266_tcpip.c ****     if(ret >= 0){
 1966              		.loc 1 161 11 is_stmt 0 view .LVU549
 1967 001e 06A8     		add	r0, sp, #24
 1968              	.LVL205:
 161:C:/Users/²Ü¼ÒºÀ/.iotlink/sdk/IoT_LINK/iot_link/network/tcpip/esp8266\esp8266_tcpip.c ****     if(ret >= 0){
 1969              		.loc 1 161 11 view .LVU550
 1970 0020 FFF7FEFF 		bl	strlen
 1971              	.LVL206:
 161:C:/Users/²Ü¼ÒºÀ/.iotlink/sdk/IoT_LINK/iot_link/network/tcpip/esp8266\esp8266_tcpip.c ****     if(ret >= 0){
 1972              		.loc 1 161 11 view .LVU551
 1973 0024 4FF4FA63 		mov	r3, #2000
 1974 0028 CDE90043 		strd	r4, r3, [sp]
 1975 002c 0146     		mov	r1, r0
 1976 002e 214A     		ldr	r2, .L158+4
 1977 0030 214C     		ldr	r4, .L158+8
 1978 0032 26AB     		add	r3, sp, #152
 1979              	.LVL207:
 161:C:/Users/²Ü¼ÒºÀ/.iotlink/sdk/IoT_LINK/iot_link/network/tcpip/esp8266\esp8266_tcpip.c ****     if(ret >= 0){
 1980              		.loc 1 161 11 view .LVU552
 1981 0034 06A8     		add	r0, sp, #24
 1982              	.LVL208:
 161:C:/Users/²Ü¼ÒºÀ/.iotlink/sdk/IoT_LINK/iot_link/network/tcpip/esp8266\esp8266_tcpip.c ****     if(ret >= 0){
 1983              		.loc 1 161 11 view .LVU553
 1984 0036 FFF7FEFF 		bl	at_command
 1985              	.LVL209:
 162:C:/Users/²Ü¼ÒºÀ/.iotlink/sdk/IoT_LINK/iot_link/network/tcpip/esp8266\esp8266_tcpip.c ****         return true;
 1986              		.loc 1 162 5 is_stmt 1 view .LVU554
 162:C:/Users/²Ü¼ÒºÀ/.iotlink/sdk/IoT_LINK/iot_link/network/tcpip/esp8266\esp8266_tcpip.c ****         return true;
 1987              		.loc 1 162 7 is_stmt 0 view .LVU555
 1988 003a 0028     		cmp	r0, #0
 1989 003c 05AF     		add	r7, sp, #20
 1990 003e 04AE     		add	r6, sp, #16
 1991 0040 16DB     		blt	.L153
 1992              	.LVL210:
 162:C:/Users/²Ü¼ÒºÀ/.iotlink/sdk/IoT_LINK/iot_link/network/tcpip/esp8266\esp8266_tcpip.c ****         return true;
 1993              		.loc 1 162 7 view .LVU556
 1994              	.LBE67:
 1995              	.LBE66:
 537:C:/Users/²Ü¼ÒºÀ/.iotlink/sdk/IoT_LINK/iot_link/network/tcpip/esp8266\esp8266_tcpip.c ****     {
 538:C:/Users/²Ü¼ÒºÀ/.iotlink/sdk/IoT_LINK/iot_link/network/tcpip/esp8266\esp8266_tcpip.c ****         hptr = &gEsp8266HostEnt;
 539:C:/Users/²Ü¼ÒºÀ/.iotlink/sdk/IoT_LINK/iot_link/network/tcpip/esp8266\esp8266_tcpip.c ****         (void) memset(hptr,0,sizeof(struct hostent));
 540:C:/Users/²Ü¼ÒºÀ/.iotlink/sdk/IoT_LINK/iot_link/network/tcpip/esp8266\esp8266_tcpip.c ****         ///< we could not resolve it by the at device, so we check if your address if dot point
 541:C:/Users/²Ü¼ÒºÀ/.iotlink/sdk/IoT_LINK/iot_link/network/tcpip/esp8266\esp8266_tcpip.c ****         fmt_num = sscanf(name,"%d.%d.%d.%d",&ipv4[0],&ipv4[1],&ipv4[2],&ipv4[3]);
 542:C:/Users/²Ü¼ÒºÀ/.iotlink/sdk/IoT_LINK/iot_link/network/tcpip/esp8266\esp8266_tcpip.c ****         if(fmt_num > 0)
 543:C:/Users/²Ü¼ÒºÀ/.iotlink/sdk/IoT_LINK/iot_link/network/tcpip/esp8266\esp8266_tcpip.c ****         {
 544:C:/Users/²Ü¼ÒºÀ/.iotlink/sdk/IoT_LINK/iot_link/network/tcpip/esp8266\esp8266_tcpip.c ****             hptr->h_addrtype = AF_INET;
 545:C:/Users/²Ü¼ÒºÀ/.iotlink/sdk/IoT_LINK/iot_link/network/tcpip/esp8266\esp8266_tcpip.c ****             hptr->h_length = 4;
 546:C:/Users/²Ü¼ÒºÀ/.iotlink/sdk/IoT_LINK/iot_link/network/tcpip/esp8266\esp8266_tcpip.c ****             s_esp8266_ipv4_addr[0] = ipv4[0];
 547:C:/Users/²Ü¼ÒºÀ/.iotlink/sdk/IoT_LINK/iot_link/network/tcpip/esp8266\esp8266_tcpip.c ****             s_esp8266_ipv4_addr[1] = ipv4[1];
 548:C:/Users/²Ü¼ÒºÀ/.iotlink/sdk/IoT_LINK/iot_link/network/tcpip/esp8266\esp8266_tcpip.c ****             s_esp8266_ipv4_addr[2] = ipv4[2];
 549:C:/Users/²Ü¼ÒºÀ/.iotlink/sdk/IoT_LINK/iot_link/network/tcpip/esp8266\esp8266_tcpip.c ****             s_esp8266_ipv4_addr[3] = ipv4[3];
 550:C:/Users/²Ü¼ÒºÀ/.iotlink/sdk/IoT_LINK/iot_link/network/tcpip/esp8266\esp8266_tcpip.c **** 
 551:C:/Users/²Ü¼ÒºÀ/.iotlink/sdk/IoT_LINK/iot_link/network/tcpip/esp8266\esp8266_tcpip.c ****             s_esp8266_ipv4_lst[0] = (char *)&s_esp8266_ipv4_addr[0];
 552:C:/Users/²Ü¼ÒºÀ/.iotlink/sdk/IoT_LINK/iot_link/network/tcpip/esp8266\esp8266_tcpip.c ****             s_esp8266_ipv4_lst[1] = NULL;
 553:C:/Users/²Ü¼ÒºÀ/.iotlink/sdk/IoT_LINK/iot_link/network/tcpip/esp8266\esp8266_tcpip.c **** 
 554:C:/Users/²Ü¼ÒºÀ/.iotlink/sdk/IoT_LINK/iot_link/network/tcpip/esp8266\esp8266_tcpip.c ****             hptr->h_addr_list = &s_esp8266_ipv4_lst[0];
ARM GAS  C:\Users\²Ü¼ÒºÀ\AppData\Local\Temp\cci6pW3E.s 			page 55


 555:C:/Users/²Ü¼ÒºÀ/.iotlink/sdk/IoT_LINK/iot_link/network/tcpip/esp8266\esp8266_tcpip.c ****             return hptr;
 556:C:/Users/²Ü¼ÒºÀ/.iotlink/sdk/IoT_LINK/iot_link/network/tcpip/esp8266\esp8266_tcpip.c ****         }
 557:C:/Users/²Ü¼ÒºÀ/.iotlink/sdk/IoT_LINK/iot_link/network/tcpip/esp8266\esp8266_tcpip.c ****         else{
 558:C:/Users/²Ü¼ÒºÀ/.iotlink/sdk/IoT_LINK/iot_link/network/tcpip/esp8266\esp8266_tcpip.c ****             return NULL;
 559:C:/Users/²Ü¼ÒºÀ/.iotlink/sdk/IoT_LINK/iot_link/network/tcpip/esp8266\esp8266_tcpip.c ****         }
 560:C:/Users/²Ü¼ÒºÀ/.iotlink/sdk/IoT_LINK/iot_link/network/tcpip/esp8266\esp8266_tcpip.c ****     }
 561:C:/Users/²Ü¼ÒºÀ/.iotlink/sdk/IoT_LINK/iot_link/network/tcpip/esp8266\esp8266_tcpip.c ****     else  ///< decode it by the response
 562:C:/Users/²Ü¼ÒºÀ/.iotlink/sdk/IoT_LINK/iot_link/network/tcpip/esp8266\esp8266_tcpip.c ****     {
 563:C:/Users/²Ü¼ÒºÀ/.iotlink/sdk/IoT_LINK/iot_link/network/tcpip/esp8266\esp8266_tcpip.c ****         str = strstr(resp,":");
 1996              		.loc 1 563 9 is_stmt 1 view .LVU557
 1997              		.loc 1 563 15 is_stmt 0 view .LVU558
 1998 0042 3A21     		movs	r1, #58
 1999 0044 26A8     		add	r0, sp, #152
 2000 0046 FFF7FEFF 		bl	strchr
 2001              	.LVL211:
 564:C:/Users/²Ü¼ÒºÀ/.iotlink/sdk/IoT_LINK/iot_link/network/tcpip/esp8266\esp8266_tcpip.c ****         str++;
 565:C:/Users/²Ü¼ÒºÀ/.iotlink/sdk/IoT_LINK/iot_link/network/tcpip/esp8266\esp8266_tcpip.c **** 
 566:C:/Users/²Ü¼ÒºÀ/.iotlink/sdk/IoT_LINK/iot_link/network/tcpip/esp8266\esp8266_tcpip.c ****         hptr = &gEsp8266HostEnt;
 567:C:/Users/²Ü¼ÒºÀ/.iotlink/sdk/IoT_LINK/iot_link/network/tcpip/esp8266\esp8266_tcpip.c ****         (void) memset(hptr,0,sizeof(struct hostent));
 2002              		.loc 1 567 16 view .LVU559
 2003 004a 1422     		movs	r2, #20
 563:C:/Users/²Ü¼ÒºÀ/.iotlink/sdk/IoT_LINK/iot_link/network/tcpip/esp8266\esp8266_tcpip.c ****         str++;
 2004              		.loc 1 563 15 view .LVU560
 2005 004c 0546     		mov	r5, r0
 2006              	.LVL212:
 564:C:/Users/²Ü¼ÒºÀ/.iotlink/sdk/IoT_LINK/iot_link/network/tcpip/esp8266\esp8266_tcpip.c ****         str++;
 2007              		.loc 1 564 9 is_stmt 1 view .LVU561
 566:C:/Users/²Ü¼ÒºÀ/.iotlink/sdk/IoT_LINK/iot_link/network/tcpip/esp8266\esp8266_tcpip.c ****         (void) memset(hptr,0,sizeof(struct hostent));
 2008              		.loc 1 566 9 view .LVU562
 2009              		.loc 1 567 9 view .LVU563
 2010              		.loc 1 567 16 is_stmt 0 view .LVU564
 2011 004e 0021     		movs	r1, #0
 2012 0050 2046     		mov	r0, r4
 2013              	.LVL213:
 2014              		.loc 1 567 16 view .LVU565
 2015 0052 FFF7FEFF 		bl	memset
 2016              	.LVL214:
 568:C:/Users/²Ü¼ÒºÀ/.iotlink/sdk/IoT_LINK/iot_link/network/tcpip/esp8266\esp8266_tcpip.c ****         fmt_num = sscanf(str,"%d.%d.%d.%d",&ipv4[0],&ipv4[1],&ipv4[2],&ipv4[3]);
 2017              		.loc 1 568 9 is_stmt 1 view .LVU566
 2018              		.loc 1 568 19 is_stmt 0 view .LVU567
 2019 0056 CDE90067 		strd	r6, r7, [sp]
 2020 005a 1849     		ldr	r1, .L158+12
 2021 005c 03AB     		add	r3, sp, #12
 2022 005e 02AA     		add	r2, sp, #8
 2023 0060 681C     		adds	r0, r5, #1
 2024              	.LVL215:
 2025              	.L157:
 2026              		.loc 1 568 19 view .LVU568
 2027 0062 FFF7FEFF 		bl	sscanf
 2028              	.LVL216:
 569:C:/Users/²Ü¼ÒºÀ/.iotlink/sdk/IoT_LINK/iot_link/network/tcpip/esp8266\esp8266_tcpip.c ****         if(fmt_num > 0)
 2029              		.loc 1 569 9 is_stmt 1 view .LVU569
 2030              		.loc 1 569 11 is_stmt 0 view .LVU570
 2031 0066 0028     		cmp	r0, #0
 2032 0068 0EDC     		bgt	.L154
 570:C:/Users/²Ü¼ÒºÀ/.iotlink/sdk/IoT_LINK/iot_link/network/tcpip/esp8266\esp8266_tcpip.c ****         {
 571:C:/Users/²Ü¼ÒºÀ/.iotlink/sdk/IoT_LINK/iot_link/network/tcpip/esp8266\esp8266_tcpip.c ****             hptr->h_addrtype = AF_INET;
ARM GAS  C:\Users\²Ü¼ÒºÀ\AppData\Local\Temp\cci6pW3E.s 			page 56


 572:C:/Users/²Ü¼ÒºÀ/.iotlink/sdk/IoT_LINK/iot_link/network/tcpip/esp8266\esp8266_tcpip.c ****             hptr->h_length = 4;
 573:C:/Users/²Ü¼ÒºÀ/.iotlink/sdk/IoT_LINK/iot_link/network/tcpip/esp8266\esp8266_tcpip.c ****             s_esp8266_ipv4_addr[0] = ipv4[0];
 574:C:/Users/²Ü¼ÒºÀ/.iotlink/sdk/IoT_LINK/iot_link/network/tcpip/esp8266\esp8266_tcpip.c ****             s_esp8266_ipv4_addr[1] = ipv4[1];
 575:C:/Users/²Ü¼ÒºÀ/.iotlink/sdk/IoT_LINK/iot_link/network/tcpip/esp8266\esp8266_tcpip.c ****             s_esp8266_ipv4_addr[2] = ipv4[2];
 576:C:/Users/²Ü¼ÒºÀ/.iotlink/sdk/IoT_LINK/iot_link/network/tcpip/esp8266\esp8266_tcpip.c ****             s_esp8266_ipv4_addr[3] = ipv4[3];
 577:C:/Users/²Ü¼ÒºÀ/.iotlink/sdk/IoT_LINK/iot_link/network/tcpip/esp8266\esp8266_tcpip.c **** 
 578:C:/Users/²Ü¼ÒºÀ/.iotlink/sdk/IoT_LINK/iot_link/network/tcpip/esp8266\esp8266_tcpip.c ****             s_esp8266_ipv4_lst[0] = (char *)&s_esp8266_ipv4_addr[0];
 579:C:/Users/²Ü¼ÒºÀ/.iotlink/sdk/IoT_LINK/iot_link/network/tcpip/esp8266\esp8266_tcpip.c ****             s_esp8266_ipv4_lst[1] = NULL;
 580:C:/Users/²Ü¼ÒºÀ/.iotlink/sdk/IoT_LINK/iot_link/network/tcpip/esp8266\esp8266_tcpip.c **** 
 581:C:/Users/²Ü¼ÒºÀ/.iotlink/sdk/IoT_LINK/iot_link/network/tcpip/esp8266\esp8266_tcpip.c ****             hptr->h_addr_list = &s_esp8266_ipv4_lst[0];
 582:C:/Users/²Ü¼ÒºÀ/.iotlink/sdk/IoT_LINK/iot_link/network/tcpip/esp8266\esp8266_tcpip.c ****             return hptr;
 583:C:/Users/²Ü¼ÒºÀ/.iotlink/sdk/IoT_LINK/iot_link/network/tcpip/esp8266\esp8266_tcpip.c ****         }
 584:C:/Users/²Ü¼ÒºÀ/.iotlink/sdk/IoT_LINK/iot_link/network/tcpip/esp8266\esp8266_tcpip.c ****         else
 585:C:/Users/²Ü¼ÒºÀ/.iotlink/sdk/IoT_LINK/iot_link/network/tcpip/esp8266\esp8266_tcpip.c ****         {
 586:C:/Users/²Ü¼ÒºÀ/.iotlink/sdk/IoT_LINK/iot_link/network/tcpip/esp8266\esp8266_tcpip.c ****             return NULL;
 2033              		.loc 1 586 20 view .LVU571
 2034 006a 0020     		movs	r0, #0
 2035              	.LVL217:
 2036              	.L152:
 587:C:/Users/²Ü¼ÒºÀ/.iotlink/sdk/IoT_LINK/iot_link/network/tcpip/esp8266\esp8266_tcpip.c ****         }
 588:C:/Users/²Ü¼ÒºÀ/.iotlink/sdk/IoT_LINK/iot_link/network/tcpip/esp8266\esp8266_tcpip.c ****     }
 589:C:/Users/²Ü¼ÒºÀ/.iotlink/sdk/IoT_LINK/iot_link/network/tcpip/esp8266\esp8266_tcpip.c **** }
 2037              		.loc 1 589 1 view .LVU572
 2038 006c 47B0     		add	sp, sp, #284
 2039              	.LCFI31:
 2040              		.cfi_remember_state
 2041              		.cfi_def_cfa_offset 20
 2042              		@ sp needed
 2043 006e F0BD     		pop	{r4, r5, r6, r7, pc}
 2044              	.LVL218:
 2045              	.L153:
 2046              	.LCFI32:
 2047              		.cfi_restore_state
 2048              	.LBB69:
 2049              	.LBB68:
 166:C:/Users/²Ü¼ÒºÀ/.iotlink/sdk/IoT_LINK/iot_link/network/tcpip/esp8266\esp8266_tcpip.c ****     }
 2050              		.loc 1 166 9 is_stmt 1 view .LVU573
 166:C:/Users/²Ü¼ÒºÀ/.iotlink/sdk/IoT_LINK/iot_link/network/tcpip/esp8266\esp8266_tcpip.c ****     }
 2051              		.loc 1 166 9 is_stmt 0 view .LVU574
 2052              	.LBE68:
 2053              	.LBE69:
 538:C:/Users/²Ü¼ÒºÀ/.iotlink/sdk/IoT_LINK/iot_link/network/tcpip/esp8266\esp8266_tcpip.c ****         (void) memset(hptr,0,sizeof(struct hostent));
 2054              		.loc 1 538 9 is_stmt 1 view .LVU575
 539:C:/Users/²Ü¼ÒºÀ/.iotlink/sdk/IoT_LINK/iot_link/network/tcpip/esp8266\esp8266_tcpip.c ****         ///< we could not resolve it by the at device, so we check if your address if dot point
 2055              		.loc 1 539 9 view .LVU576
 539:C:/Users/²Ü¼ÒºÀ/.iotlink/sdk/IoT_LINK/iot_link/network/tcpip/esp8266\esp8266_tcpip.c ****         ///< we could not resolve it by the at device, so we check if your address if dot point
 2056              		.loc 1 539 16 is_stmt 0 view .LVU577
 2057 0070 1422     		movs	r2, #20
 2058 0072 0021     		movs	r1, #0
 2059 0074 2046     		mov	r0, r4
 2060 0076 FFF7FEFF 		bl	memset
 2061              	.LVL219:
 541:C:/Users/²Ü¼ÒºÀ/.iotlink/sdk/IoT_LINK/iot_link/network/tcpip/esp8266\esp8266_tcpip.c ****         if(fmt_num > 0)
 2062              		.loc 1 541 9 is_stmt 1 view .LVU578
 541:C:/Users/²Ü¼ÒºÀ/.iotlink/sdk/IoT_LINK/iot_link/network/tcpip/esp8266\esp8266_tcpip.c ****         if(fmt_num > 0)
 2063              		.loc 1 541 19 is_stmt 0 view .LVU579
 2064 007a CDE90067 		strd	r6, r7, [sp]
ARM GAS  C:\Users\²Ü¼ÒºÀ\AppData\Local\Temp\cci6pW3E.s 			page 57


 2065 007e 0F49     		ldr	r1, .L158+12
 2066 0080 03AB     		add	r3, sp, #12
 2067 0082 02AA     		add	r2, sp, #8
 2068 0084 2846     		mov	r0, r5
 2069 0086 ECE7     		b	.L157
 2070              	.LVL220:
 2071              	.L154:
 571:C:/Users/²Ü¼ÒºÀ/.iotlink/sdk/IoT_LINK/iot_link/network/tcpip/esp8266\esp8266_tcpip.c ****             hptr->h_length = 4;
 2072              		.loc 1 571 13 is_stmt 1 view .LVU580
 572:C:/Users/²Ü¼ÒºÀ/.iotlink/sdk/IoT_LINK/iot_link/network/tcpip/esp8266\esp8266_tcpip.c ****             s_esp8266_ipv4_addr[0] = ipv4[0];
 2073              		.loc 1 572 28 is_stmt 0 view .LVU581
 2074 0088 0222     		movs	r2, #2
 2075 008a 0423     		movs	r3, #4
 2076 008c C4E90223 		strd	r2, r3, [r4, #8]
 573:C:/Users/²Ü¼ÒºÀ/.iotlink/sdk/IoT_LINK/iot_link/network/tcpip/esp8266\esp8266_tcpip.c ****             s_esp8266_ipv4_addr[1] = ipv4[1];
 2077              		.loc 1 573 13 is_stmt 1 view .LVU582
 573:C:/Users/²Ü¼ÒºÀ/.iotlink/sdk/IoT_LINK/iot_link/network/tcpip/esp8266\esp8266_tcpip.c ****             s_esp8266_ipv4_addr[1] = ipv4[1];
 2078              		.loc 1 573 36 is_stmt 0 view .LVU583
 2079 0090 0B4B     		ldr	r3, .L158+16
 2080 0092 029A     		ldr	r2, [sp, #8]
 2081 0094 1A70     		strb	r2, [r3]
 574:C:/Users/²Ü¼ÒºÀ/.iotlink/sdk/IoT_LINK/iot_link/network/tcpip/esp8266\esp8266_tcpip.c ****             s_esp8266_ipv4_addr[2] = ipv4[2];
 2082              		.loc 1 574 13 is_stmt 1 view .LVU584
 574:C:/Users/²Ü¼ÒºÀ/.iotlink/sdk/IoT_LINK/iot_link/network/tcpip/esp8266\esp8266_tcpip.c ****             s_esp8266_ipv4_addr[2] = ipv4[2];
 2083              		.loc 1 574 36 is_stmt 0 view .LVU585
 2084 0096 039A     		ldr	r2, [sp, #12]
 2085 0098 5A70     		strb	r2, [r3, #1]
 575:C:/Users/²Ü¼ÒºÀ/.iotlink/sdk/IoT_LINK/iot_link/network/tcpip/esp8266\esp8266_tcpip.c ****             s_esp8266_ipv4_addr[3] = ipv4[3];
 2086              		.loc 1 575 13 is_stmt 1 view .LVU586
 575:C:/Users/²Ü¼ÒºÀ/.iotlink/sdk/IoT_LINK/iot_link/network/tcpip/esp8266\esp8266_tcpip.c ****             s_esp8266_ipv4_addr[3] = ipv4[3];
 2087              		.loc 1 575 36 is_stmt 0 view .LVU587
 2088 009a 049A     		ldr	r2, [sp, #16]
 2089 009c 9A70     		strb	r2, [r3, #2]
 576:C:/Users/²Ü¼ÒºÀ/.iotlink/sdk/IoT_LINK/iot_link/network/tcpip/esp8266\esp8266_tcpip.c **** 
 2090              		.loc 1 576 13 is_stmt 1 view .LVU588
 576:C:/Users/²Ü¼ÒºÀ/.iotlink/sdk/IoT_LINK/iot_link/network/tcpip/esp8266\esp8266_tcpip.c **** 
 2091              		.loc 1 576 36 is_stmt 0 view .LVU589
 2092 009e 059A     		ldr	r2, [sp, #20]
 2093 00a0 DA70     		strb	r2, [r3, #3]
 578:C:/Users/²Ü¼ÒºÀ/.iotlink/sdk/IoT_LINK/iot_link/network/tcpip/esp8266\esp8266_tcpip.c ****             s_esp8266_ipv4_lst[1] = NULL;
 2094              		.loc 1 578 13 is_stmt 1 view .LVU590
 578:C:/Users/²Ü¼ÒºÀ/.iotlink/sdk/IoT_LINK/iot_link/network/tcpip/esp8266\esp8266_tcpip.c ****             s_esp8266_ipv4_lst[1] = NULL;
 2095              		.loc 1 578 35 is_stmt 0 view .LVU591
 2096 00a2 084A     		ldr	r2, .L158+20
 581:C:/Users/²Ü¼ÒºÀ/.iotlink/sdk/IoT_LINK/iot_link/network/tcpip/esp8266\esp8266_tcpip.c ****             return hptr;
 2097              		.loc 1 581 31 view .LVU592
 2098 00a4 2261     		str	r2, [r4, #16]
 578:C:/Users/²Ü¼ÒºÀ/.iotlink/sdk/IoT_LINK/iot_link/network/tcpip/esp8266\esp8266_tcpip.c ****             s_esp8266_ipv4_lst[1] = NULL;
 2099              		.loc 1 578 35 view .LVU593
 2100 00a6 1360     		str	r3, [r2]
 579:C:/Users/²Ü¼ÒºÀ/.iotlink/sdk/IoT_LINK/iot_link/network/tcpip/esp8266\esp8266_tcpip.c **** 
 2101              		.loc 1 579 13 is_stmt 1 view .LVU594
 579:C:/Users/²Ü¼ÒºÀ/.iotlink/sdk/IoT_LINK/iot_link/network/tcpip/esp8266\esp8266_tcpip.c **** 
 2102              		.loc 1 579 35 is_stmt 0 view .LVU595
 2103 00a8 0023     		movs	r3, #0
 2104 00aa 5360     		str	r3, [r2, #4]
 581:C:/Users/²Ü¼ÒºÀ/.iotlink/sdk/IoT_LINK/iot_link/network/tcpip/esp8266\esp8266_tcpip.c ****             return hptr;
ARM GAS  C:\Users\²Ü¼ÒºÀ\AppData\Local\Temp\cci6pW3E.s 			page 58


 2105              		.loc 1 581 13 is_stmt 1 view .LVU596
 582:C:/Users/²Ü¼ÒºÀ/.iotlink/sdk/IoT_LINK/iot_link/network/tcpip/esp8266\esp8266_tcpip.c ****         }
 2106              		.loc 1 582 13 view .LVU597
 582:C:/Users/²Ü¼ÒºÀ/.iotlink/sdk/IoT_LINK/iot_link/network/tcpip/esp8266\esp8266_tcpip.c ****         }
 2107              		.loc 1 582 20 is_stmt 0 view .LVU598
 2108 00ac 2046     		mov	r0, r4
 2109              	.LVL221:
 582:C:/Users/²Ü¼ÒºÀ/.iotlink/sdk/IoT_LINK/iot_link/network/tcpip/esp8266\esp8266_tcpip.c ****         }
 2110              		.loc 1 582 20 view .LVU599
 2111 00ae DDE7     		b	.L152
 2112              	.L159:
 2113              		.align	2
 2114              	.L158:
 2115 00b0 00000000 		.word	.LC14
 2116 00b4 14000000 		.word	.LC15
 2117 00b8 00000000 		.word	.LANCHOR4
 2118 00bc 1F000000 		.word	.LC16
 2119 00c0 00000000 		.word	.LANCHOR5
 2120 00c4 00000000 		.word	.LANCHOR6
 2121              		.cfi_endproc
 2122              	.LFE25:
 2124              		.section	.text.Esp8266Shutdown,"ax",%progbits
 2125              		.align	1
 2126              		.syntax unified
 2127              		.thumb
 2128              		.thumb_func
 2129              		.fpu fpv4-sp-d16
 2131              	Esp8266Shutdown:
 2132              	.LFB36:
 2133              		.cfi_startproc
 2134              		@ args = 0, pretend = 0, frame = 0
 2135              		@ frame_needed = 0, uses_anonymous_args = 0
 2136              		@ link register save eliminated.
 2137 0000 4FF0FF30 		mov	r0, #-1
 2138 0004 7047     		bx	lr
 2139              		.cfi_endproc
 2140              	.LFE36:
 2142              		.section	.rodata.link_tcpip_imp_init.str1.1,"aMS",%progbits,1
 2143              	.LC17:
 2144 0000 5B25735D 		.ascii	"[%s][%u][%s] AT MUTEX COULD NOT CREATED\015\012\000"
 2144      5B25755D 
 2144      5B25735D 
 2144      20415420 
 2144      4D555445 
 2145              	.LC18:
 2146 002a 5B25735D 		.ascii	"[%s][%u][%s] ESP8266 CONFIGURE:SSID:%s PWD:%s RCVCA"
 2146      5B25755D 
 2146      5B25735D 
 2146      20455350 
 2146      38323636 
 2147 005d 4348453A 		.ascii	"CHE:%d(Byte) CMDTIMEOUT:%d(ms)\015\012\000"
 2147      25642842 
 2147      79746529 
 2147      20434D44 
 2147      54494D45 
 2148              	.LC19:
 2149 007e 31323334 		.ascii	"1234567890\000"
ARM GAS  C:\Users\²Ü¼ÒºÀ\AppData\Local\Temp\cci6pW3E.s 			page 59


 2149      35363738 
 2149      393000
 2150              	.LC20:
 2151 0089 4D00     		.ascii	"M\000"
 2152              	.LC21:
 2153 008b 65737038 		.ascii	"esp8266rcv\000"
 2153      32363672 
 2153      637600
 2154              	.LC22:
 2155 0096 5B25735D 		.ascii	"[%s][%u][%s] Try to connect ap..\015\012\000"
 2155      5B25755D 
 2155      5B25735D 
 2155      20547279 
 2155      20746F20 
 2156              	.LC23:
 2157 00b9 72656164 		.ascii	"ready\000"
 2157      7900
 2158              	.LC24:
 2159 00bf 41542B52 		.ascii	"AT+RST\015\012\000"
 2159      53540D0A 
 2159      00
 2160              	.LC25:
 2161 00c8 41544530 		.ascii	"ATE0\015\012\000"
 2161      0D0A00
 2162              	.LC26:
 2163 00cf 41542B43 		.ascii	"AT+CIPDINFO=%d\015\012\000"
 2163      49504449 
 2163      4E464F3D 
 2163      25640D0A 
 2163      00
 2164              	.LC27:
 2165 00e0 41542B43 		.ascii	"AT+CWMODE_CUR=%d\015\012\000"
 2165      574D4F44 
 2165      455F4355 
 2165      523D2564 
 2165      0D0A00
 2166              	.LC28:
 2167 00f3 41542B43 		.ascii	"AT+CIPMUX=%d\015\012\000"
 2167      49504D55 
 2167      583D2564 
 2167      0D0A00
 2168              	.LC29:
 2169 0102 41542B43 		.ascii	"AT+CWJAP_CUR=\"%s\",\"%s\"\015\012\000"
 2169      574A4150 
 2169      5F435552 
 2169      3D222573 
 2169      222C2225 
 2170              	.LC30:
 2171 011b 5B25735D 		.ascii	"[%s][%u][%s] REGISTER ESP8266 TO TCPIP FAILED\015\012"
 2171      5B25755D 
 2171      5B25735D 
 2171      20524547 
 2171      49535445 
 2172 014a 00       		.ascii	"\000"
 2173              		.section	.text.link_tcpip_imp_init,"ax",%progbits
 2174              		.align	1
 2175              		.global	link_tcpip_imp_init
ARM GAS  C:\Users\²Ü¼ÒºÀ\AppData\Local\Temp\cci6pW3E.s 			page 60


 2176              		.syntax unified
 2177              		.thumb
 2178              		.thumb_func
 2179              		.fpu fpv4-sp-d16
 2181              	link_tcpip_imp_init:
 2182              	.LFB32:
 590:C:/Users/²Ü¼ÒºÀ/.iotlink/sdk/IoT_LINK/iot_link/network/tcpip/esp8266\esp8266_tcpip.c **** 
 591:C:/Users/²Ü¼ÒºÀ/.iotlink/sdk/IoT_LINK/iot_link/network/tcpip/esp8266\esp8266_tcpip.c **** static const tag_tcpip_ops s_tcpip_socket_ops =
 592:C:/Users/²Ü¼ÒºÀ/.iotlink/sdk/IoT_LINK/iot_link/network/tcpip/esp8266\esp8266_tcpip.c **** {
 593:C:/Users/²Ü¼ÒºÀ/.iotlink/sdk/IoT_LINK/iot_link/network/tcpip/esp8266\esp8266_tcpip.c ****    .socket = (fn_sal_socket)Esp8266Socket,
 594:C:/Users/²Ü¼ÒºÀ/.iotlink/sdk/IoT_LINK/iot_link/network/tcpip/esp8266\esp8266_tcpip.c ****    .bind = (fn_sal_bind)Esp8266Bind,
 595:C:/Users/²Ü¼ÒºÀ/.iotlink/sdk/IoT_LINK/iot_link/network/tcpip/esp8266\esp8266_tcpip.c ****    .listen = (fn_sal_listen)Esp8266Listen,
 596:C:/Users/²Ü¼ÒºÀ/.iotlink/sdk/IoT_LINK/iot_link/network/tcpip/esp8266\esp8266_tcpip.c ****    .connect = (fn_sal_connect)Esp8266Connect,
 597:C:/Users/²Ü¼ÒºÀ/.iotlink/sdk/IoT_LINK/iot_link/network/tcpip/esp8266\esp8266_tcpip.c ****    .accept = (fn_sal_accept)Esp8266Accept,
 598:C:/Users/²Ü¼ÒºÀ/.iotlink/sdk/IoT_LINK/iot_link/network/tcpip/esp8266\esp8266_tcpip.c ****    .send = (fn_sal_send)Esp8266Send,
 599:C:/Users/²Ü¼ÒºÀ/.iotlink/sdk/IoT_LINK/iot_link/network/tcpip/esp8266\esp8266_tcpip.c ****    .sendto = (fn_sal_sendto)Esp8266Sendto,
 600:C:/Users/²Ü¼ÒºÀ/.iotlink/sdk/IoT_LINK/iot_link/network/tcpip/esp8266\esp8266_tcpip.c ****    .recv = (fn_sal_recv)Esp8266Recv,
 601:C:/Users/²Ü¼ÒºÀ/.iotlink/sdk/IoT_LINK/iot_link/network/tcpip/esp8266\esp8266_tcpip.c ****    .recvfrom = (fn_sal_recvfrom)Esp8266RecvFrom,
 602:C:/Users/²Ü¼ÒºÀ/.iotlink/sdk/IoT_LINK/iot_link/network/tcpip/esp8266\esp8266_tcpip.c ****    .setsockopt = (fn_sal_setsockopt)Esp8266SetSockOpt,
 603:C:/Users/²Ü¼ÒºÀ/.iotlink/sdk/IoT_LINK/iot_link/network/tcpip/esp8266\esp8266_tcpip.c ****    .getsockopt = (fn_sal_getsockopt)Esp8266GetSockOpt,
 604:C:/Users/²Ü¼ÒºÀ/.iotlink/sdk/IoT_LINK/iot_link/network/tcpip/esp8266\esp8266_tcpip.c ****    .shutdown =(fn_sal_shutdown)Esp8266Shutdown,
 605:C:/Users/²Ü¼ÒºÀ/.iotlink/sdk/IoT_LINK/iot_link/network/tcpip/esp8266\esp8266_tcpip.c ****    .closesocket =(fn_sal_closesocket)Esp8266Close,
 606:C:/Users/²Ü¼ÒºÀ/.iotlink/sdk/IoT_LINK/iot_link/network/tcpip/esp8266\esp8266_tcpip.c ****    .getpeername =(fn_sal_getpeername)Esp8266GetPeerName,
 607:C:/Users/²Ü¼ÒºÀ/.iotlink/sdk/IoT_LINK/iot_link/network/tcpip/esp8266\esp8266_tcpip.c ****    .getsockname = (fn_sal_getsockname)Esp8266GetSockName,
 608:C:/Users/²Ü¼ÒºÀ/.iotlink/sdk/IoT_LINK/iot_link/network/tcpip/esp8266\esp8266_tcpip.c ****    .gethostbyname = (fn_sal_gethostbyname)Esp8266GetHostByName,
 609:C:/Users/²Ü¼ÒºÀ/.iotlink/sdk/IoT_LINK/iot_link/network/tcpip/esp8266\esp8266_tcpip.c **** };
 610:C:/Users/²Ü¼ÒºÀ/.iotlink/sdk/IoT_LINK/iot_link/network/tcpip/esp8266\esp8266_tcpip.c **** 
 611:C:/Users/²Ü¼ÒºÀ/.iotlink/sdk/IoT_LINK/iot_link/network/tcpip/esp8266\esp8266_tcpip.c **** static const tag_tcpip_domain s_tcpip_socket =
 612:C:/Users/²Ü¼ÒºÀ/.iotlink/sdk/IoT_LINK/iot_link/network/tcpip/esp8266\esp8266_tcpip.c **** {
 613:C:/Users/²Ü¼ÒºÀ/.iotlink/sdk/IoT_LINK/iot_link/network/tcpip/esp8266\esp8266_tcpip.c ****     .name = "esp8266 socket",
 614:C:/Users/²Ü¼ÒºÀ/.iotlink/sdk/IoT_LINK/iot_link/network/tcpip/esp8266\esp8266_tcpip.c ****     .domain = AF_INET,
 615:C:/Users/²Ü¼ÒºÀ/.iotlink/sdk/IoT_LINK/iot_link/network/tcpip/esp8266\esp8266_tcpip.c ****     .ops = &s_tcpip_socket_ops,
 616:C:/Users/²Ü¼ÒºÀ/.iotlink/sdk/IoT_LINK/iot_link/network/tcpip/esp8266\esp8266_tcpip.c **** };
 617:C:/Users/²Ü¼ÒºÀ/.iotlink/sdk/IoT_LINK/iot_link/network/tcpip/esp8266\esp8266_tcpip.c **** 
 618:C:/Users/²Ü¼ÒºÀ/.iotlink/sdk/IoT_LINK/iot_link/network/tcpip/esp8266\esp8266_tcpip.c **** 
 619:C:/Users/²Ü¼ÒºÀ/.iotlink/sdk/IoT_LINK/iot_link/network/tcpip/esp8266\esp8266_tcpip.c **** 
 620:C:/Users/²Ü¼ÒºÀ/.iotlink/sdk/IoT_LINK/iot_link/network/tcpip/esp8266\esp8266_tcpip.c **** static bool_t esp8266_reset(void)
 621:C:/Users/²Ü¼ÒºÀ/.iotlink/sdk/IoT_LINK/iot_link/network/tcpip/esp8266\esp8266_tcpip.c **** {
 622:C:/Users/²Ü¼ÒºÀ/.iotlink/sdk/IoT_LINK/iot_link/network/tcpip/esp8266\esp8266_tcpip.c ****     return esp8266_atcmd("AT+RST\r\n","ready");
 623:C:/Users/²Ü¼ÒºÀ/.iotlink/sdk/IoT_LINK/iot_link/network/tcpip/esp8266\esp8266_tcpip.c **** }
 624:C:/Users/²Ü¼ÒºÀ/.iotlink/sdk/IoT_LINK/iot_link/network/tcpip/esp8266\esp8266_tcpip.c **** 
 625:C:/Users/²Ü¼ÒºÀ/.iotlink/sdk/IoT_LINK/iot_link/network/tcpip/esp8266\esp8266_tcpip.c **** static bool_t esp8266_echo_off(void)
 626:C:/Users/²Ü¼ÒºÀ/.iotlink/sdk/IoT_LINK/iot_link/network/tcpip/esp8266\esp8266_tcpip.c **** {
 627:C:/Users/²Ü¼ÒºÀ/.iotlink/sdk/IoT_LINK/iot_link/network/tcpip/esp8266\esp8266_tcpip.c ****     return esp8266_atcmd("ATE0\r\n","OK");
 628:C:/Users/²Ü¼ÒºÀ/.iotlink/sdk/IoT_LINK/iot_link/network/tcpip/esp8266\esp8266_tcpip.c **** }
 629:C:/Users/²Ü¼ÒºÀ/.iotlink/sdk/IoT_LINK/iot_link/network/tcpip/esp8266\esp8266_tcpip.c **** 
 630:C:/Users/²Ü¼ÒºÀ/.iotlink/sdk/IoT_LINK/iot_link/network/tcpip/esp8266\esp8266_tcpip.c **** static bool_t esp8266_show_dinfo(int flag)
 631:C:/Users/²Ü¼ÒºÀ/.iotlink/sdk/IoT_LINK/iot_link/network/tcpip/esp8266\esp8266_tcpip.c **** {
 632:C:/Users/²Ü¼ÒºÀ/.iotlink/sdk/IoT_LINK/iot_link/network/tcpip/esp8266\esp8266_tcpip.c ****     char cmd[64];
 633:C:/Users/²Ü¼ÒºÀ/.iotlink/sdk/IoT_LINK/iot_link/network/tcpip/esp8266\esp8266_tcpip.c ****     (void) memset(cmd,0,64);
 634:C:/Users/²Ü¼ÒºÀ/.iotlink/sdk/IoT_LINK/iot_link/network/tcpip/esp8266\esp8266_tcpip.c ****     (void) snprintf(cmd,64,"AT+CIPDINFO=%d\r\n",flag);
 635:C:/Users/²Ü¼ÒºÀ/.iotlink/sdk/IoT_LINK/iot_link/network/tcpip/esp8266\esp8266_tcpip.c ****     return esp8266_atcmd(cmd,"OK");
 636:C:/Users/²Ü¼ÒºÀ/.iotlink/sdk/IoT_LINK/iot_link/network/tcpip/esp8266\esp8266_tcpip.c **** }
 637:C:/Users/²Ü¼ÒºÀ/.iotlink/sdk/IoT_LINK/iot_link/network/tcpip/esp8266\esp8266_tcpip.c **** 
 638:C:/Users/²Ü¼ÒºÀ/.iotlink/sdk/IoT_LINK/iot_link/network/tcpip/esp8266\esp8266_tcpip.c **** static bool_t esp8266_set_mode(enum_net_mode mode)
 639:C:/Users/²Ü¼ÒºÀ/.iotlink/sdk/IoT_LINK/iot_link/network/tcpip/esp8266\esp8266_tcpip.c **** {
 640:C:/Users/²Ü¼ÒºÀ/.iotlink/sdk/IoT_LINK/iot_link/network/tcpip/esp8266\esp8266_tcpip.c ****     char cmd[64];
ARM GAS  C:\Users\²Ü¼ÒºÀ\AppData\Local\Temp\cci6pW3E.s 			page 61


 641:C:/Users/²Ü¼ÒºÀ/.iotlink/sdk/IoT_LINK/iot_link/network/tcpip/esp8266\esp8266_tcpip.c ****     (void) memset(cmd,0,64);
 642:C:/Users/²Ü¼ÒºÀ/.iotlink/sdk/IoT_LINK/iot_link/network/tcpip/esp8266\esp8266_tcpip.c ****     (void) snprintf(cmd,64,"AT+CWMODE_CUR=%d\r\n",(int)mode);
 643:C:/Users/²Ü¼ÒºÀ/.iotlink/sdk/IoT_LINK/iot_link/network/tcpip/esp8266\esp8266_tcpip.c ****     return esp8266_atcmd(cmd,"OK");
 644:C:/Users/²Ü¼ÒºÀ/.iotlink/sdk/IoT_LINK/iot_link/network/tcpip/esp8266\esp8266_tcpip.c **** }
 645:C:/Users/²Ü¼ÒºÀ/.iotlink/sdk/IoT_LINK/iot_link/network/tcpip/esp8266\esp8266_tcpip.c **** 
 646:C:/Users/²Ü¼ÒºÀ/.iotlink/sdk/IoT_LINK/iot_link/network/tcpip/esp8266\esp8266_tcpip.c **** static bool_t esp8266_joinap(char *ssid, char *passwd)
 647:C:/Users/²Ü¼ÒºÀ/.iotlink/sdk/IoT_LINK/iot_link/network/tcpip/esp8266\esp8266_tcpip.c **** {
 648:C:/Users/²Ü¼ÒºÀ/.iotlink/sdk/IoT_LINK/iot_link/network/tcpip/esp8266\esp8266_tcpip.c ****     int ret;
 649:C:/Users/²Ü¼ÒºÀ/.iotlink/sdk/IoT_LINK/iot_link/network/tcpip/esp8266\esp8266_tcpip.c ****     char cmd[CN_STACK_STRMAX];
 650:C:/Users/²Ü¼ÒºÀ/.iotlink/sdk/IoT_LINK/iot_link/network/tcpip/esp8266\esp8266_tcpip.c ****     (void) snprintf(cmd,CN_STACK_STRMAX,"AT+CWJAP_CUR=\"%s\",\"%s\"\r\n",ssid, passwd);
 651:C:/Users/²Ü¼ÒºÀ/.iotlink/sdk/IoT_LINK/iot_link/network/tcpip/esp8266\esp8266_tcpip.c ****     ret = at_command((unsigned char *)cmd,strlen(cmd),"OK",NULL,0,CONFIG_ESP8266_CMDTIMEOUT*5);
 652:C:/Users/²Ü¼ÒºÀ/.iotlink/sdk/IoT_LINK/iot_link/network/tcpip/esp8266\esp8266_tcpip.c ****     if(ret >= 0){
 653:C:/Users/²Ü¼ÒºÀ/.iotlink/sdk/IoT_LINK/iot_link/network/tcpip/esp8266\esp8266_tcpip.c ****         return true;
 654:C:/Users/²Ü¼ÒºÀ/.iotlink/sdk/IoT_LINK/iot_link/network/tcpip/esp8266\esp8266_tcpip.c ****     }
 655:C:/Users/²Ü¼ÒºÀ/.iotlink/sdk/IoT_LINK/iot_link/network/tcpip/esp8266\esp8266_tcpip.c ****     else{
 656:C:/Users/²Ü¼ÒºÀ/.iotlink/sdk/IoT_LINK/iot_link/network/tcpip/esp8266\esp8266_tcpip.c ****         return false;
 657:C:/Users/²Ü¼ÒºÀ/.iotlink/sdk/IoT_LINK/iot_link/network/tcpip/esp8266\esp8266_tcpip.c ****     }
 658:C:/Users/²Ü¼ÒºÀ/.iotlink/sdk/IoT_LINK/iot_link/network/tcpip/esp8266\esp8266_tcpip.c **** }
 659:C:/Users/²Ü¼ÒºÀ/.iotlink/sdk/IoT_LINK/iot_link/network/tcpip/esp8266\esp8266_tcpip.c **** 
 660:C:/Users/²Ü¼ÒºÀ/.iotlink/sdk/IoT_LINK/iot_link/network/tcpip/esp8266\esp8266_tcpip.c **** static bool_t esp8266_set_mux(int mux)
 661:C:/Users/²Ü¼ÒºÀ/.iotlink/sdk/IoT_LINK/iot_link/network/tcpip/esp8266\esp8266_tcpip.c **** {
 662:C:/Users/²Ü¼ÒºÀ/.iotlink/sdk/IoT_LINK/iot_link/network/tcpip/esp8266\esp8266_tcpip.c ****     char cmd[64];
 663:C:/Users/²Ü¼ÒºÀ/.iotlink/sdk/IoT_LINK/iot_link/network/tcpip/esp8266\esp8266_tcpip.c ****     (void) memset(cmd,0,64);
 664:C:/Users/²Ü¼ÒºÀ/.iotlink/sdk/IoT_LINK/iot_link/network/tcpip/esp8266\esp8266_tcpip.c ****     (void) snprintf(cmd,64,"AT+CIPMUX=%d\r\n",mux);
 665:C:/Users/²Ü¼ÒºÀ/.iotlink/sdk/IoT_LINK/iot_link/network/tcpip/esp8266\esp8266_tcpip.c ****     return esp8266_atcmd(cmd,"OK");
 666:C:/Users/²Ü¼ÒºÀ/.iotlink/sdk/IoT_LINK/iot_link/network/tcpip/esp8266\esp8266_tcpip.c **** }
 667:C:/Users/²Ü¼ÒºÀ/.iotlink/sdk/IoT_LINK/iot_link/network/tcpip/esp8266\esp8266_tcpip.c **** 
 668:C:/Users/²Ü¼ÒºÀ/.iotlink/sdk/IoT_LINK/iot_link/network/tcpip/esp8266\esp8266_tcpip.c **** int link_tcpip_imp_init(void)
 669:C:/Users/²Ü¼ÒºÀ/.iotlink/sdk/IoT_LINK/iot_link/network/tcpip/esp8266\esp8266_tcpip.c **** {
 2183              		.loc 1 669 1 is_stmt 1 view -0
 2184              		.cfi_startproc
 2185              		@ args = 0, pretend = 0, frame = 128
 2186              		@ frame_needed = 0, uses_anonymous_args = 0
 670:C:/Users/²Ü¼ÒºÀ/.iotlink/sdk/IoT_LINK/iot_link/network/tcpip/esp8266\esp8266_tcpip.c ****     int ret = -1;
 2187              		.loc 1 670 5 view .LVU601
 2188              	.LVL222:
 671:C:/Users/²Ü¼ÒºÀ/.iotlink/sdk/IoT_LINK/iot_link/network/tcpip/esp8266\esp8266_tcpip.c **** 
 672:C:/Users/²Ü¼ÒºÀ/.iotlink/sdk/IoT_LINK/iot_link/network/tcpip/esp8266\esp8266_tcpip.c ****     if(false == osal_mutex_create(&gEsp8266CB.atLock)){
 2189              		.loc 1 672 5 view .LVU602
 669:C:/Users/²Ü¼ÒºÀ/.iotlink/sdk/IoT_LINK/iot_link/network/tcpip/esp8266\esp8266_tcpip.c ****     int ret = -1;
 2190              		.loc 1 669 1 is_stmt 0 view .LVU603
 2191 0000 2DE9F041 		push	{r4, r5, r6, r7, r8, lr}
 2192              	.LCFI33:
 2193              		.cfi_def_cfa_offset 24
 2194              		.cfi_offset 4, -24
 2195              		.cfi_offset 5, -20
 2196              		.cfi_offset 6, -16
 2197              		.cfi_offset 7, -12
 2198              		.cfi_offset 8, -8
 2199              		.cfi_offset 14, -4
 2200              		.loc 1 672 17 view .LVU604
 2201 0004 7148     		ldr	r0, .L172
 2202 0006 714C     		ldr	r4, .L172
 669:C:/Users/²Ü¼ÒºÀ/.iotlink/sdk/IoT_LINK/iot_link/network/tcpip/esp8266\esp8266_tcpip.c ****     int ret = -1;
 2203              		.loc 1 669 1 view .LVU605
 2204 0008 A4B0     		sub	sp, sp, #144
 2205              	.LCFI34:
ARM GAS  C:\Users\²Ü¼ÒºÀ\AppData\Local\Temp\cci6pW3E.s 			page 62


 2206              		.cfi_def_cfa_offset 168
 2207              		.loc 1 672 17 view .LVU606
 2208 000a FFF7FEFF 		bl	osal_mutex_create
 2209              	.LVL223:
 2210              		.loc 1 672 7 view .LVU607
 2211 000e B0B9     		cbnz	r0, .L162
 673:C:/Users/²Ü¼ÒºÀ/.iotlink/sdk/IoT_LINK/iot_link/network/tcpip/esp8266\esp8266_tcpip.c ****         LINK_LOG_ERROR("AT MUTEX COULD NOT CREATED");
 2212              		.loc 1 673 9 is_stmt 1 view .LVU608
 2213              		.loc 1 673 9 view .LVU609
 2214              		.loc 1 673 9 view .LVU610
 2215 0010 0420     		movs	r0, #4
 2216 0012 FFF7FEFF 		bl	link_log_level_name
 2217              	.LVL224:
 2218 0016 0546     		mov	r5, r0
 2219 0018 FFF7FEFF 		bl	osal_sys_time
 2220              	.LVL225:
 2221 001c 6C4B     		ldr	r3, .L172+4
 2222 001e 0246     		mov	r2, r0
 2223 0020 2946     		mov	r1, r5
 2224 0022 6C48     		ldr	r0, .L172+8
 2225 0024 FFF7FEFF 		bl	printf
 2226              	.LVL226:
 2227              		.loc 1 673 9 view .LVU611
 2228 0028 6B4B     		ldr	r3, .L172+12
 2229 002a 1B68     		ldr	r3, [r3]
 2230 002c 9868     		ldr	r0, [r3, #8]
 2231 002e FFF7FEFF 		bl	fflush
 2232              	.LVL227:
 2233              		.loc 1 673 9 view .LVU612
 2234              		.loc 1 673 9 view .LVU613
 674:C:/Users/²Ü¼ÒºÀ/.iotlink/sdk/IoT_LINK/iot_link/network/tcpip/esp8266\esp8266_tcpip.c ****         goto EXIT_ATMUTEX;
 2235              		.loc 1 674 9 view .LVU614
 2236              	.L163:
 675:C:/Users/²Ü¼ÒºÀ/.iotlink/sdk/IoT_LINK/iot_link/network/tcpip/esp8266\esp8266_tcpip.c ****     }
 676:C:/Users/²Ü¼ÒºÀ/.iotlink/sdk/IoT_LINK/iot_link/network/tcpip/esp8266\esp8266_tcpip.c ****     if(false == osal_mutex_create(&gEsp8266CB.ioLock)){
 677:C:/Users/²Ü¼ÒºÀ/.iotlink/sdk/IoT_LINK/iot_link/network/tcpip/esp8266\esp8266_tcpip.c ****         LINK_LOG_ERROR("AT MUTEX COULD NOT CREATED");
 678:C:/Users/²Ü¼ÒºÀ/.iotlink/sdk/IoT_LINK/iot_link/network/tcpip/esp8266\esp8266_tcpip.c ****         goto EXIT_IOMUTEX;
 679:C:/Users/²Ü¼ÒºÀ/.iotlink/sdk/IoT_LINK/iot_link/network/tcpip/esp8266\esp8266_tcpip.c ****     }
 680:C:/Users/²Ü¼ÒºÀ/.iotlink/sdk/IoT_LINK/iot_link/network/tcpip/esp8266\esp8266_tcpip.c **** 
 681:C:/Users/²Ü¼ÒºÀ/.iotlink/sdk/IoT_LINK/iot_link/network/tcpip/esp8266\esp8266_tcpip.c ****     LINK_LOG_DEBUG("ESP8266 CONFIGURE:SSID:%s PWD:%s RCVCACHE:%d(Byte) CMDTIMEOUT:%d(ms)",\
 682:C:/Users/²Ü¼ÒºÀ/.iotlink/sdk/IoT_LINK/iot_link/network/tcpip/esp8266\esp8266_tcpip.c ****             CONFIG_ESP8266_SSID, CONFIG_ESP8266_PWD,CONFIG_ESP8266_RCVCACHE,CONFIG_ESP8266_CMDTIMEO
 683:C:/Users/²Ü¼ÒºÀ/.iotlink/sdk/IoT_LINK/iot_link/network/tcpip/esp8266\esp8266_tcpip.c **** 
 684:C:/Users/²Ü¼ÒºÀ/.iotlink/sdk/IoT_LINK/iot_link/network/tcpip/esp8266\esp8266_tcpip.c ****     at_oobregister("esp8266rcv",CN_ESP8266_RCVINDEX,strlen(CN_ESP8266_RCVINDEX),Esp8266MsgDeal,NULL
 685:C:/Users/²Ü¼ÒºÀ/.iotlink/sdk/IoT_LINK/iot_link/network/tcpip/esp8266\esp8266_tcpip.c **** 
 686:C:/Users/²Ü¼ÒºÀ/.iotlink/sdk/IoT_LINK/iot_link/network/tcpip/esp8266\esp8266_tcpip.c ****     do{
 687:C:/Users/²Ü¼ÒºÀ/.iotlink/sdk/IoT_LINK/iot_link/network/tcpip/esp8266\esp8266_tcpip.c **** 
 688:C:/Users/²Ü¼ÒºÀ/.iotlink/sdk/IoT_LINK/iot_link/network/tcpip/esp8266\esp8266_tcpip.c ****         LINK_LOG_DEBUG("Try to connect ap..");
 689:C:/Users/²Ü¼ÒºÀ/.iotlink/sdk/IoT_LINK/iot_link/network/tcpip/esp8266\esp8266_tcpip.c ****         osal_task_sleep(1000);
 690:C:/Users/²Ü¼ÒºÀ/.iotlink/sdk/IoT_LINK/iot_link/network/tcpip/esp8266\esp8266_tcpip.c ****         esp8266_reset();
 691:C:/Users/²Ü¼ÒºÀ/.iotlink/sdk/IoT_LINK/iot_link/network/tcpip/esp8266\esp8266_tcpip.c ****         esp8266_echo_off();
 692:C:/Users/²Ü¼ÒºÀ/.iotlink/sdk/IoT_LINK/iot_link/network/tcpip/esp8266\esp8266_tcpip.c ****         esp8266_show_dinfo(0);
 693:C:/Users/²Ü¼ÒºÀ/.iotlink/sdk/IoT_LINK/iot_link/network/tcpip/esp8266\esp8266_tcpip.c ****         esp8266_set_mode(STA);
 694:C:/Users/²Ü¼ÒºÀ/.iotlink/sdk/IoT_LINK/iot_link/network/tcpip/esp8266\esp8266_tcpip.c ****         esp8266_set_mux(1);
 695:C:/Users/²Ü¼ÒºÀ/.iotlink/sdk/IoT_LINK/iot_link/network/tcpip/esp8266\esp8266_tcpip.c **** 
 696:C:/Users/²Ü¼ÒºÀ/.iotlink/sdk/IoT_LINK/iot_link/network/tcpip/esp8266\esp8266_tcpip.c ****     }while(false == esp8266_joinap(CONFIG_ESP8266_SSID, CONFIG_ESP8266_PWD));
 697:C:/Users/²Ü¼ÒºÀ/.iotlink/sdk/IoT_LINK/iot_link/network/tcpip/esp8266\esp8266_tcpip.c ****     at_debugclose();
 698:C:/Users/²Ü¼ÒºÀ/.iotlink/sdk/IoT_LINK/iot_link/network/tcpip/esp8266\esp8266_tcpip.c ****    //reach here means everything is ok, we can go now
ARM GAS  C:\Users\²Ü¼ÒºÀ\AppData\Local\Temp\cci6pW3E.s 			page 63


 699:C:/Users/²Ü¼ÒºÀ/.iotlink/sdk/IoT_LINK/iot_link/network/tcpip/esp8266\esp8266_tcpip.c ****     ret = link_sal_install(&s_tcpip_socket);
 700:C:/Users/²Ü¼ÒºÀ/.iotlink/sdk/IoT_LINK/iot_link/network/tcpip/esp8266\esp8266_tcpip.c ****     if(0 != ret){
 701:C:/Users/²Ü¼ÒºÀ/.iotlink/sdk/IoT_LINK/iot_link/network/tcpip/esp8266\esp8266_tcpip.c ****         LINK_LOG_ERROR("REGISTER ESP8266 TO TCPIP FAILED");
 702:C:/Users/²Ü¼ÒºÀ/.iotlink/sdk/IoT_LINK/iot_link/network/tcpip/esp8266\esp8266_tcpip.c ****         goto EXIT_TCPIP;
 703:C:/Users/²Ü¼ÒºÀ/.iotlink/sdk/IoT_LINK/iot_link/network/tcpip/esp8266\esp8266_tcpip.c ****     }
 704:C:/Users/²Ü¼ÒºÀ/.iotlink/sdk/IoT_LINK/iot_link/network/tcpip/esp8266\esp8266_tcpip.c ****     return 0;
 705:C:/Users/²Ü¼ÒºÀ/.iotlink/sdk/IoT_LINK/iot_link/network/tcpip/esp8266\esp8266_tcpip.c **** 
 706:C:/Users/²Ü¼ÒºÀ/.iotlink/sdk/IoT_LINK/iot_link/network/tcpip/esp8266\esp8266_tcpip.c **** 
 707:C:/Users/²Ü¼ÒºÀ/.iotlink/sdk/IoT_LINK/iot_link/network/tcpip/esp8266\esp8266_tcpip.c **** EXIT_TCPIP:
 708:C:/Users/²Ü¼ÒºÀ/.iotlink/sdk/IoT_LINK/iot_link/network/tcpip/esp8266\esp8266_tcpip.c ****     osal_mutex_del(gEsp8266CB.ioLock);
 709:C:/Users/²Ü¼ÒºÀ/.iotlink/sdk/IoT_LINK/iot_link/network/tcpip/esp8266\esp8266_tcpip.c **** EXIT_IOMUTEX:
 710:C:/Users/²Ü¼ÒºÀ/.iotlink/sdk/IoT_LINK/iot_link/network/tcpip/esp8266\esp8266_tcpip.c ****     gEsp8266CB.ioLock = cn_mutex_invalid;
 711:C:/Users/²Ü¼ÒºÀ/.iotlink/sdk/IoT_LINK/iot_link/network/tcpip/esp8266\esp8266_tcpip.c ****     osal_mutex_del(gEsp8266CB.atLock);
 712:C:/Users/²Ü¼ÒºÀ/.iotlink/sdk/IoT_LINK/iot_link/network/tcpip/esp8266\esp8266_tcpip.c **** EXIT_ATMUTEX:
 713:C:/Users/²Ü¼ÒºÀ/.iotlink/sdk/IoT_LINK/iot_link/network/tcpip/esp8266\esp8266_tcpip.c ****     gEsp8266CB.atLock = cn_mutex_invalid;
 2237              		.loc 1 713 5 view .LVU615
 2238              		.loc 1 713 23 is_stmt 0 view .LVU616
 2239 0032 4FF0FF30 		mov	r0, #-1
 2240 0036 2060     		str	r0, [r4]
 714:C:/Users/²Ü¼ÒºÀ/.iotlink/sdk/IoT_LINK/iot_link/network/tcpip/esp8266\esp8266_tcpip.c ****     return -1;
 2241              		.loc 1 714 5 is_stmt 1 view .LVU617
 2242              	.L161:
 715:C:/Users/²Ü¼ÒºÀ/.iotlink/sdk/IoT_LINK/iot_link/network/tcpip/esp8266\esp8266_tcpip.c **** }
 2243              		.loc 1 715 1 is_stmt 0 view .LVU618
 2244 0038 24B0     		add	sp, sp, #144
 2245              	.LCFI35:
 2246              		.cfi_remember_state
 2247              		.cfi_def_cfa_offset 24
 2248              		@ sp needed
 2249 003a BDE8F081 		pop	{r4, r5, r6, r7, r8, pc}
 2250              	.LVL228:
 2251              	.L162:
 2252              	.LCFI36:
 2253              		.cfi_restore_state
 676:C:/Users/²Ü¼ÒºÀ/.iotlink/sdk/IoT_LINK/iot_link/network/tcpip/esp8266\esp8266_tcpip.c ****         LINK_LOG_ERROR("AT MUTEX COULD NOT CREATED");
 2254              		.loc 1 676 5 is_stmt 1 view .LVU619
 676:C:/Users/²Ü¼ÒºÀ/.iotlink/sdk/IoT_LINK/iot_link/network/tcpip/esp8266\esp8266_tcpip.c ****         LINK_LOG_ERROR("AT MUTEX COULD NOT CREATED");
 2255              		.loc 1 676 17 is_stmt 0 view .LVU620
 2256 003e 201D     		adds	r0, r4, #4
 2257 0040 FFF7FEFF 		bl	osal_mutex_create
 2258              	.LVL229:
 676:C:/Users/²Ü¼ÒºÀ/.iotlink/sdk/IoT_LINK/iot_link/network/tcpip/esp8266\esp8266_tcpip.c ****         LINK_LOG_ERROR("AT MUTEX COULD NOT CREATED");
 2259              		.loc 1 676 7 view .LVU621
 2260 0044 B8B9     		cbnz	r0, .L164
 677:C:/Users/²Ü¼ÒºÀ/.iotlink/sdk/IoT_LINK/iot_link/network/tcpip/esp8266\esp8266_tcpip.c ****         goto EXIT_IOMUTEX;
 2261              		.loc 1 677 9 is_stmt 1 view .LVU622
 677:C:/Users/²Ü¼ÒºÀ/.iotlink/sdk/IoT_LINK/iot_link/network/tcpip/esp8266\esp8266_tcpip.c ****         goto EXIT_IOMUTEX;
 2262              		.loc 1 677 9 view .LVU623
 677:C:/Users/²Ü¼ÒºÀ/.iotlink/sdk/IoT_LINK/iot_link/network/tcpip/esp8266\esp8266_tcpip.c ****         goto EXIT_IOMUTEX;
 2263              		.loc 1 677 9 view .LVU624
 2264 0046 0420     		movs	r0, #4
 2265 0048 FFF7FEFF 		bl	link_log_level_name
 2266              	.LVL230:
 2267 004c 0546     		mov	r5, r0
 2268 004e FFF7FEFF 		bl	osal_sys_time
 2269              	.LVL231:
 2270 0052 5F4B     		ldr	r3, .L172+4
ARM GAS  C:\Users\²Ü¼ÒºÀ\AppData\Local\Temp\cci6pW3E.s 			page 64


 2271 0054 0246     		mov	r2, r0
 2272 0056 2946     		mov	r1, r5
 2273 0058 5E48     		ldr	r0, .L172+8
 2274 005a FFF7FEFF 		bl	printf
 2275              	.LVL232:
 677:C:/Users/²Ü¼ÒºÀ/.iotlink/sdk/IoT_LINK/iot_link/network/tcpip/esp8266\esp8266_tcpip.c ****         goto EXIT_IOMUTEX;
 2276              		.loc 1 677 9 view .LVU625
 2277 005e 5E4B     		ldr	r3, .L172+12
 2278 0060 1B68     		ldr	r3, [r3]
 2279 0062 9868     		ldr	r0, [r3, #8]
 2280 0064 FFF7FEFF 		bl	fflush
 2281              	.LVL233:
 677:C:/Users/²Ü¼ÒºÀ/.iotlink/sdk/IoT_LINK/iot_link/network/tcpip/esp8266\esp8266_tcpip.c ****         goto EXIT_IOMUTEX;
 2282              		.loc 1 677 9 view .LVU626
