ARM GAS  C:\Users\²Ü¼ÒºÀ\AppData\Local\Temp\ccXR3g3j.s 			page 1


   1              		.cpu cortex-m4
   2              		.eabi_attribute 27, 1
   3              		.eabi_attribute 28, 1
   4              		.eabi_attribute 20, 1
   5              		.eabi_attribute 21, 1
   6              		.eabi_attribute 23, 3
   7              		.eabi_attribute 24, 1
   8              		.eabi_attribute 25, 1
   9              		.eabi_attribute 26, 1
  10              		.eabi_attribute 30, 4
  11              		.eabi_attribute 34, 1
  12              		.eabi_attribute 18, 4
  13              		.file	"los_slab.c"
  14              		.text
  15              	.Ltext0:
  16              		.cfi_sections	.debug_frame
  17              		.section	.text.osAtomicBitsetInit,"ax",%progbits
  18              		.align	1
  19              		.global	osAtomicBitsetInit
  20              		.arch armv7e-m
  21              		.syntax unified
  22              		.thumb
  23              		.thumb_func
  24              		.fpu fpv4-sp-d16
  26              	osAtomicBitsetInit:
  27              	.LVL0:
  28              	.LFB287:
  29              		.file 1 "C:/Users/\262\334\274\322\272\300/.iotlink/sdk/IoT_LINK/iot_link/os/liteos/base/mem/commo
   1:C:/Users/²Ü¼ÒºÀ/.iotlink/sdk/IoT_LINK/iot_link/os/liteos/base/mem/common\los_slab.c **** /*----------------------------------------------------------------------------
   2:C:/Users/²Ü¼ÒºÀ/.iotlink/sdk/IoT_LINK/iot_link/os/liteos/base/mem/common\los_slab.c ****  * Copyright (c) <2013-2017>, <Huawei Technologies Co., Ltd>
   3:C:/Users/²Ü¼ÒºÀ/.iotlink/sdk/IoT_LINK/iot_link/os/liteos/base/mem/common\los_slab.c ****  * All rights reserved.
   4:C:/Users/²Ü¼ÒºÀ/.iotlink/sdk/IoT_LINK/iot_link/os/liteos/base/mem/common\los_slab.c ****  * Redistribution and use in source and binary forms, with or without modification,
   5:C:/Users/²Ü¼ÒºÀ/.iotlink/sdk/IoT_LINK/iot_link/os/liteos/base/mem/common\los_slab.c ****  * are permitted provided that the following conditions are met:
   6:C:/Users/²Ü¼ÒºÀ/.iotlink/sdk/IoT_LINK/iot_link/os/liteos/base/mem/common\los_slab.c ****  * 1. Redistributions of source code must retain the above copyright notice, this list of
   7:C:/Users/²Ü¼ÒºÀ/.iotlink/sdk/IoT_LINK/iot_link/os/liteos/base/mem/common\los_slab.c ****  * conditions and the following disclaimer.
   8:C:/Users/²Ü¼ÒºÀ/.iotlink/sdk/IoT_LINK/iot_link/os/liteos/base/mem/common\los_slab.c ****  * 2. Redistributions in binary form must reproduce the above copyright notice, this list
   9:C:/Users/²Ü¼ÒºÀ/.iotlink/sdk/IoT_LINK/iot_link/os/liteos/base/mem/common\los_slab.c ****  * of conditions and the following disclaimer in the documentation and/or other materials
  10:C:/Users/²Ü¼ÒºÀ/.iotlink/sdk/IoT_LINK/iot_link/os/liteos/base/mem/common\los_slab.c ****  * provided with the distribution.
  11:C:/Users/²Ü¼ÒºÀ/.iotlink/sdk/IoT_LINK/iot_link/os/liteos/base/mem/common\los_slab.c ****  * 3. Neither the name of the copyright holder nor the names of its contributors may be used
  12:C:/Users/²Ü¼ÒºÀ/.iotlink/sdk/IoT_LINK/iot_link/os/liteos/base/mem/common\los_slab.c ****  * to endorse or promote products derived from this software without specific prior written
  13:C:/Users/²Ü¼ÒºÀ/.iotlink/sdk/IoT_LINK/iot_link/os/liteos/base/mem/common\los_slab.c ****  * permission.
  14:C:/Users/²Ü¼ÒºÀ/.iotlink/sdk/IoT_LINK/iot_link/os/liteos/base/mem/common\los_slab.c ****  * THIS SOFTWARE IS PROVIDED BY THE COPYRIGHT HOLDERS AND CONTRIBUTORS
  15:C:/Users/²Ü¼ÒºÀ/.iotlink/sdk/IoT_LINK/iot_link/os/liteos/base/mem/common\los_slab.c ****  * "AS IS" AND ANY EXPRESS OR IMPLIED WARRANTIES, INCLUDING, BUT NOT LIMITED TO,
  16:C:/Users/²Ü¼ÒºÀ/.iotlink/sdk/IoT_LINK/iot_link/os/liteos/base/mem/common\los_slab.c ****  * THE IMPLIED WARRANTIES OF MERCHANTABILITY AND FITNESS FOR A PARTICULAR
  17:C:/Users/²Ü¼ÒºÀ/.iotlink/sdk/IoT_LINK/iot_link/os/liteos/base/mem/common\los_slab.c ****  * PURPOSE ARE DISCLAIMED. IN NO EVENT SHALL THE COPYRIGHT HOLDER OR
  18:C:/Users/²Ü¼ÒºÀ/.iotlink/sdk/IoT_LINK/iot_link/os/liteos/base/mem/common\los_slab.c ****  * CONTRIBUTORS BE LIABLE FOR ANY DIRECT, INDIRECT, INCIDENTAL, SPECIAL,
  19:C:/Users/²Ü¼ÒºÀ/.iotlink/sdk/IoT_LINK/iot_link/os/liteos/base/mem/common\los_slab.c ****  * EXEMPLARY, OR CONSEQUENTIAL DAMAGES (INCLUDING, BUT NOT LIMITED TO,
  20:C:/Users/²Ü¼ÒºÀ/.iotlink/sdk/IoT_LINK/iot_link/os/liteos/base/mem/common\los_slab.c ****  * PROCUREMENT OF SUBSTITUTE GOODS OR SERVICES; LOSS OF USE, DATA, OR PROFITS;
  21:C:/Users/²Ü¼ÒºÀ/.iotlink/sdk/IoT_LINK/iot_link/os/liteos/base/mem/common\los_slab.c ****  * OR BUSINESS INTERRUPTION) HOWEVER CAUSED AND ON ANY THEORY OF LIABILITY,
  22:C:/Users/²Ü¼ÒºÀ/.iotlink/sdk/IoT_LINK/iot_link/os/liteos/base/mem/common\los_slab.c ****  * WHETHER IN CONTRACT, STRICT LIABILITY, OR TORT (INCLUDING NEGLIGENCE OR
  23:C:/Users/²Ü¼ÒºÀ/.iotlink/sdk/IoT_LINK/iot_link/os/liteos/base/mem/common\los_slab.c ****  * OTHERWISE) ARISING IN ANY WAY OUT OF THE USE OF THIS SOFTWARE, EVEN IF
  24:C:/Users/²Ü¼ÒºÀ/.iotlink/sdk/IoT_LINK/iot_link/os/liteos/base/mem/common\los_slab.c ****  * ADVISED OF THE POSSIBILITY OF SUCH DAMAGE.
  25:C:/Users/²Ü¼ÒºÀ/.iotlink/sdk/IoT_LINK/iot_link/os/liteos/base/mem/common\los_slab.c ****  *---------------------------------------------------------------------------*/
  26:C:/Users/²Ü¼ÒºÀ/.iotlink/sdk/IoT_LINK/iot_link/os/liteos/base/mem/common\los_slab.c **** /*----------------------------------------------------------------------------
  27:C:/Users/²Ü¼ÒºÀ/.iotlink/sdk/IoT_LINK/iot_link/os/liteos/base/mem/common\los_slab.c ****  * Notice of Export Control Law
  28:C:/Users/²Ü¼ÒºÀ/.iotlink/sdk/IoT_LINK/iot_link/os/liteos/base/mem/common\los_slab.c ****  * ===============================================
  29:C:/Users/²Ü¼ÒºÀ/.iotlink/sdk/IoT_LINK/iot_link/os/liteos/base/mem/common\los_slab.c ****  * Huawei LiteOS may be subject to applicable export control laws and regulations, which might
ARM GAS  C:\Users\²Ü¼ÒºÀ\AppData\Local\Temp\ccXR3g3j.s 			page 2


  30:C:/Users/²Ü¼ÒºÀ/.iotlink/sdk/IoT_LINK/iot_link/os/liteos/base/mem/common\los_slab.c ****  * include those applicable to Huawei LiteOS of U.S. and the country in which you are located.
  31:C:/Users/²Ü¼ÒºÀ/.iotlink/sdk/IoT_LINK/iot_link/os/liteos/base/mem/common\los_slab.c ****  * Import, export and usage of Huawei LiteOS in any manner by you shall be in compliance with such
  32:C:/Users/²Ü¼ÒºÀ/.iotlink/sdk/IoT_LINK/iot_link/os/liteos/base/mem/common\los_slab.c ****  * applicable export control laws and regulations.
  33:C:/Users/²Ü¼ÒºÀ/.iotlink/sdk/IoT_LINK/iot_link/os/liteos/base/mem/common\los_slab.c ****  *---------------------------------------------------------------------------*/
  34:C:/Users/²Ü¼ÒºÀ/.iotlink/sdk/IoT_LINK/iot_link/os/liteos/base/mem/common\los_slab.c **** #include <string.h>
  35:C:/Users/²Ü¼ÒºÀ/.iotlink/sdk/IoT_LINK/iot_link/os/liteos/base/mem/common\los_slab.c **** #include <stdint.h>
  36:C:/Users/²Ü¼ÒºÀ/.iotlink/sdk/IoT_LINK/iot_link/os/liteos/base/mem/common\los_slab.c **** #include <los_slab.ph>
  37:C:/Users/²Ü¼ÒºÀ/.iotlink/sdk/IoT_LINK/iot_link/os/liteos/base/mem/common\los_slab.c **** 
  38:C:/Users/²Ü¼ÒºÀ/.iotlink/sdk/IoT_LINK/iot_link/os/liteos/base/mem/common\los_slab.c **** extern VOID* osHeapAlloc(VOID *pPool, UINT32 uwSz);
  39:C:/Users/²Ü¼ÒºÀ/.iotlink/sdk/IoT_LINK/iot_link/os/liteos/base/mem/common\los_slab.c **** extern BOOL osHeapFree(VOID *pPool, VOID* pPtr);
  40:C:/Users/²Ü¼ÒºÀ/.iotlink/sdk/IoT_LINK/iot_link/os/liteos/base/mem/common\los_slab.c **** 
  41:C:/Users/²Ü¼ÒºÀ/.iotlink/sdk/IoT_LINK/iot_link/os/liteos/base/mem/common\los_slab.c **** VOID osAtomicBitsetInit(struct AtomicBitset *pstSet, UINT32 uwNumBits)
  42:C:/Users/²Ü¼ÒºÀ/.iotlink/sdk/IoT_LINK/iot_link/os/liteos/base/mem/common\los_slab.c **** {
  30              		.loc 1 42 1 view -0
  31              		.cfi_startproc
  32              		@ args = 0, pretend = 0, frame = 0
  33              		@ frame_needed = 0, uses_anonymous_args = 0
  43:C:/Users/²Ü¼ÒºÀ/.iotlink/sdk/IoT_LINK/iot_link/os/liteos/base/mem/common\los_slab.c ****     pstSet->numBits = uwNumBits;
  34              		.loc 1 43 5 view .LVU1
  44:C:/Users/²Ü¼ÒºÀ/.iotlink/sdk/IoT_LINK/iot_link/os/liteos/base/mem/common\los_slab.c ****     memset(pstSet->words, 0, (uwNumBits + 31) / 8);
  35              		.loc 1 44 41 is_stmt 0 view .LVU2
  36 0000 01F11F02 		add	r2, r1, #31
  42:C:/Users/²Ü¼ÒºÀ/.iotlink/sdk/IoT_LINK/iot_link/os/liteos/base/mem/common\los_slab.c ****     pstSet->numBits = uwNumBits;
  37              		.loc 1 42 1 view .LVU3
  38 0004 38B5     		push	{r3, r4, r5, lr}
  39              	.LCFI0:
  40              		.cfi_def_cfa_offset 16
  41              		.cfi_offset 3, -16
  42              		.cfi_offset 4, -12
  43              		.cfi_offset 5, -8
  44              		.cfi_offset 14, -4
  45              		.loc 1 44 5 view .LVU4
  46 0006 D208     		lsrs	r2, r2, #3
  42:C:/Users/²Ü¼ÒºÀ/.iotlink/sdk/IoT_LINK/iot_link/os/liteos/base/mem/common\los_slab.c ****     pstSet->numBits = uwNumBits;
  47              		.loc 1 42 1 view .LVU5
  48 0008 0546     		mov	r5, r0
  49 000a 0C46     		mov	r4, r1
  43:C:/Users/²Ü¼ÒºÀ/.iotlink/sdk/IoT_LINK/iot_link/os/liteos/base/mem/common\los_slab.c ****     pstSet->numBits = uwNumBits;
  50              		.loc 1 43 21 view .LVU6
  51 000c 40F8041B 		str	r1, [r0], #4
  52              	.LVL1:
  53              		.loc 1 44 5 is_stmt 1 view .LVU7
  54 0010 0021     		movs	r1, #0
  55              	.LVL2:
  56              		.loc 1 44 5 is_stmt 0 view .LVU8
  57 0012 FFF7FEFF 		bl	memset
  58              	.LVL3:
  45:C:/Users/²Ü¼ÒºÀ/.iotlink/sdk/IoT_LINK/iot_link/os/liteos/base/mem/common\los_slab.c ****     if (uwNumBits & 31) //mark all high bits so that osAtomicBitsetFindClearAndSet() is simpler
  59              		.loc 1 45 5 is_stmt 1 view .LVU9
  60              		.loc 1 45 8 is_stmt 0 view .LVU10
  61 0016 14F01F02 		ands	r2, r4, #31
  62 001a 06D0     		beq	.L1
  46:C:/Users/²Ü¼ÒºÀ/.iotlink/sdk/IoT_LINK/iot_link/os/liteos/base/mem/common\los_slab.c ****     {
  47:C:/Users/²Ü¼ÒºÀ/.iotlink/sdk/IoT_LINK/iot_link/os/liteos/base/mem/common\los_slab.c ****         pstSet->words[uwNumBits / 32] = ((UINT32)((INT32)-1LL)) << (uwNumBits & 31);
  63              		.loc 1 47 9 is_stmt 1 view .LVU11
  64              		.loc 1 47 33 is_stmt 0 view .LVU12
  65 001c 6409     		lsrs	r4, r4, #5
ARM GAS  C:\Users\²Ü¼ÒºÀ\AppData\Local\Temp\ccXR3g3j.s 			page 3


  66              	.LVL4:
  67              		.loc 1 47 39 view .LVU13
  68 001e 05EB8404 		add	r4, r5, r4, lsl #2
  69              		.loc 1 47 65 view .LVU14
  70 0022 4FF0FF33 		mov	r3, #-1
  71 0026 9340     		lsls	r3, r3, r2
  72              		.loc 1 47 39 view .LVU15
  73 0028 6360     		str	r3, [r4, #4]
  74              	.L1:
  48:C:/Users/²Ü¼ÒºÀ/.iotlink/sdk/IoT_LINK/iot_link/os/liteos/base/mem/common\los_slab.c ****     }
  49:C:/Users/²Ü¼ÒºÀ/.iotlink/sdk/IoT_LINK/iot_link/os/liteos/base/mem/common\los_slab.c **** }
  75              		.loc 1 49 1 view .LVU16
  76 002a 38BD     		pop	{r3, r4, r5, pc}
  77              		.loc 1 49 1 view .LVU17
  78              		.cfi_endproc
  79              	.LFE287:
  81              		.section	.text.osAtomicBitsetGetNumBits,"ax",%progbits
  82              		.align	1
  83              		.global	osAtomicBitsetGetNumBits
  84              		.syntax unified
  85              		.thumb
  86              		.thumb_func
  87              		.fpu fpv4-sp-d16
  89              	osAtomicBitsetGetNumBits:
  90              	.LVL5:
  91              	.LFB288:
  50:C:/Users/²Ü¼ÒºÀ/.iotlink/sdk/IoT_LINK/iot_link/os/liteos/base/mem/common\los_slab.c **** 
  51:C:/Users/²Ü¼ÒºÀ/.iotlink/sdk/IoT_LINK/iot_link/os/liteos/base/mem/common\los_slab.c **** inline UINT32 osAtomicBitsetGetNumBits(const struct AtomicBitset *pstSet)
  52:C:/Users/²Ü¼ÒºÀ/.iotlink/sdk/IoT_LINK/iot_link/os/liteos/base/mem/common\los_slab.c **** {
  92              		.loc 1 52 1 is_stmt 1 view -0
  93              		.cfi_startproc
  94              		@ args = 0, pretend = 0, frame = 0
  95              		@ frame_needed = 0, uses_anonymous_args = 0
  96              		@ link register save eliminated.
  53:C:/Users/²Ü¼ÒºÀ/.iotlink/sdk/IoT_LINK/iot_link/os/liteos/base/mem/common\los_slab.c ****     return pstSet->numBits;
  97              		.loc 1 53 5 view .LVU19
  54:C:/Users/²Ü¼ÒºÀ/.iotlink/sdk/IoT_LINK/iot_link/os/liteos/base/mem/common\los_slab.c **** }
  98              		.loc 1 54 1 is_stmt 0 view .LVU20
  99 0000 0068     		ldr	r0, [r0]
 100              	.LVL6:
 101              		.loc 1 54 1 view .LVU21
 102 0002 7047     		bx	lr
 103              		.cfi_endproc
 104              	.LFE288:
 106              		.section	.text.osAtomicBitsetGetBit,"ax",%progbits
 107              		.align	1
 108              		.global	osAtomicBitsetGetBit
 109              		.syntax unified
 110              		.thumb
 111              		.thumb_func
 112              		.fpu fpv4-sp-d16
 114              	osAtomicBitsetGetBit:
 115              	.LVL7:
 116              	.LFB289:
  55:C:/Users/²Ü¼ÒºÀ/.iotlink/sdk/IoT_LINK/iot_link/os/liteos/base/mem/common\los_slab.c **** 
  56:C:/Users/²Ü¼ÒºÀ/.iotlink/sdk/IoT_LINK/iot_link/os/liteos/base/mem/common\los_slab.c **** BOOL osAtomicBitsetGetBit(const struct AtomicBitset *pstSet, UINT32 uwNum)
  57:C:/Users/²Ü¼ÒºÀ/.iotlink/sdk/IoT_LINK/iot_link/os/liteos/base/mem/common\los_slab.c **** {
ARM GAS  C:\Users\²Ü¼ÒºÀ\AppData\Local\Temp\ccXR3g3j.s 			page 4


 117              		.loc 1 57 1 is_stmt 1 view -0
 118              		.cfi_startproc
 119              		@ args = 0, pretend = 0, frame = 0
 120              		@ frame_needed = 0, uses_anonymous_args = 0
 121              		@ link register save eliminated.
  58:C:/Users/²Ü¼ÒºÀ/.iotlink/sdk/IoT_LINK/iot_link/os/liteos/base/mem/common\los_slab.c ****     if (uwNum >= pstSet->numBits) /* any value is as good as the next */
 122              		.loc 1 58 5 view .LVU23
 123              		.loc 1 58 8 is_stmt 0 view .LVU24
 124 0000 0368     		ldr	r3, [r0]
 125 0002 8B42     		cmp	r3, r1
 126              	.LVL8:
 127              	.LBB14:
 128              	.LBI14:
  56:C:/Users/²Ü¼ÒºÀ/.iotlink/sdk/IoT_LINK/iot_link/os/liteos/base/mem/common\los_slab.c **** {
 129              		.loc 1 56 6 is_stmt 1 view .LVU25
 130              	.LBB15:
  59:C:/Users/²Ü¼ÒºÀ/.iotlink/sdk/IoT_LINK/iot_link/os/liteos/base/mem/common\los_slab.c ****     {
  60:C:/Users/²Ü¼ÒºÀ/.iotlink/sdk/IoT_LINK/iot_link/os/liteos/base/mem/common\los_slab.c ****         return FALSE;
  61:C:/Users/²Ü¼ÒºÀ/.iotlink/sdk/IoT_LINK/iot_link/os/liteos/base/mem/common\los_slab.c ****     }
  62:C:/Users/²Ü¼ÒºÀ/.iotlink/sdk/IoT_LINK/iot_link/os/liteos/base/mem/common\los_slab.c ****     return !!((pstSet->words[uwNum / 32]) & (1UL << (uwNum & 31)));
 131              		.loc 1 62 5 view .LVU26
 132              		.loc 1 62 36 is_stmt 0 view .LVU27
 133 0004 81BF     		itttt	hi
 134 0006 4B09     		lsrhi	r3, r1, #5
 135              		.loc 1 62 29 view .LVU28
 136 0008 00EB8300 		addhi	r0, r0, r3, lsl #2
 137              	.LVL9:
 138              		.loc 1 62 60 view .LVU29
 139 000c 01F01F01 		andhi	r1, r1, #31
 140              	.LVL10:
 141              		.loc 1 62 12 view .LVU30
 142 0010 4068     		ldrhi	r0, [r0, #4]
 143 0012 86BF     		itte	hi
 144 0014 20FA01F1 		lsrhi	r1, r0, r1
 145 0018 01F00100 		andhi	r0, r1, #1
 146              	.LVL11:
 147              		.loc 1 62 12 view .LVU31
 148              	.LBE15:
 149              	.LBE14:
  60:C:/Users/²Ü¼ÒºÀ/.iotlink/sdk/IoT_LINK/iot_link/os/liteos/base/mem/common\los_slab.c ****     }
 150              		.loc 1 60 16 view .LVU32
 151 001c 0020     		movls	r0, #0
  63:C:/Users/²Ü¼ÒºÀ/.iotlink/sdk/IoT_LINK/iot_link/os/liteos/base/mem/common\los_slab.c **** }
 152              		.loc 1 63 1 view .LVU33
 153 001e 7047     		bx	lr
 154              		.cfi_endproc
 155              	.LFE289:
 157              		.section	.text.osAtomicBitsetClearBit,"ax",%progbits
 158              		.align	1
 159              		.global	osAtomicBitsetClearBit
 160              		.syntax unified
 161              		.thumb
 162              		.thumb_func
 163              		.fpu fpv4-sp-d16
 165              	osAtomicBitsetClearBit:
 166              	.LVL12:
 167              	.LFB290:
ARM GAS  C:\Users\²Ü¼ÒºÀ\AppData\Local\Temp\ccXR3g3j.s 			page 5


  64:C:/Users/²Ü¼ÒºÀ/.iotlink/sdk/IoT_LINK/iot_link/os/liteos/base/mem/common\los_slab.c **** 
  65:C:/Users/²Ü¼ÒºÀ/.iotlink/sdk/IoT_LINK/iot_link/os/liteos/base/mem/common\los_slab.c **** VOID osAtomicBitsetClearBit(struct AtomicBitset *pstSet, UINT32 uwNum)
  66:C:/Users/²Ü¼ÒºÀ/.iotlink/sdk/IoT_LINK/iot_link/os/liteos/base/mem/common\los_slab.c **** {
 168              		.loc 1 66 1 is_stmt 1 view -0
 169              		.cfi_startproc
 170              		@ args = 0, pretend = 0, frame = 0
 171              		@ frame_needed = 0, uses_anonymous_args = 0
 172              		@ link register save eliminated.
  67:C:/Users/²Ü¼ÒºÀ/.iotlink/sdk/IoT_LINK/iot_link/os/liteos/base/mem/common\los_slab.c ****     UINT32 *puwWordPtr = pstSet->words + uwNum / 32;
 173              		.loc 1 67 5 view .LVU35
  68:C:/Users/²Ü¼ÒºÀ/.iotlink/sdk/IoT_LINK/iot_link/os/liteos/base/mem/common\los_slab.c **** 
  69:C:/Users/²Ü¼ÒºÀ/.iotlink/sdk/IoT_LINK/iot_link/os/liteos/base/mem/common\los_slab.c ****     if (uwNum >= pstSet->numBits)
 174              		.loc 1 69 5 view .LVU36
 175              		.loc 1 69 8 is_stmt 0 view .LVU37
 176 0000 0368     		ldr	r3, [r0]
 177 0002 8B42     		cmp	r3, r1
 178 0004 0CD9     		bls	.L10
  67:C:/Users/²Ü¼ÒºÀ/.iotlink/sdk/IoT_LINK/iot_link/os/liteos/base/mem/common\los_slab.c ****     UINT32 *puwWordPtr = pstSet->words + uwNum / 32;
 179              		.loc 1 67 48 view .LVU38
 180 0006 4A09     		lsrs	r2, r1, #5
 181              	.LVL13:
  70:C:/Users/²Ü¼ÒºÀ/.iotlink/sdk/IoT_LINK/iot_link/os/liteos/base/mem/common\los_slab.c ****     {
  71:C:/Users/²Ü¼ÒºÀ/.iotlink/sdk/IoT_LINK/iot_link/os/liteos/base/mem/common\los_slab.c ****         return;
  72:C:/Users/²Ü¼ÒºÀ/.iotlink/sdk/IoT_LINK/iot_link/os/liteos/base/mem/common\los_slab.c ****     }
  73:C:/Users/²Ü¼ÒºÀ/.iotlink/sdk/IoT_LINK/iot_link/os/liteos/base/mem/common\los_slab.c ****     (*puwWordPtr) &= ~(1UL << (uwNum & 31));
 182              		.loc 1 73 5 is_stmt 1 view .LVU39
  67:C:/Users/²Ü¼ÒºÀ/.iotlink/sdk/IoT_LINK/iot_link/os/liteos/base/mem/common\los_slab.c **** 
 183              		.loc 1 67 26 is_stmt 0 view .LVU40
 184 0008 0430     		adds	r0, r0, #4
 185              	.LVL14:
 186              		.loc 1 73 28 view .LVU41
 187 000a 0123     		movs	r3, #1
 188              		.loc 1 73 38 view .LVU42
 189 000c 01F01F01 		and	r1, r1, #31
 190              	.LVL15:
 191              		.loc 1 73 28 view .LVU43
 192 0010 03FA01F1 		lsl	r1, r3, r1
 193              		.loc 1 73 19 view .LVU44
 194 0014 50F82230 		ldr	r3, [r0, r2, lsl #2]
 195 0018 23EA0103 		bic	r3, r3, r1
 196 001c 40F82230 		str	r3, [r0, r2, lsl #2]
 197              	.LVL16:
 198              	.L10:
  74:C:/Users/²Ü¼ÒºÀ/.iotlink/sdk/IoT_LINK/iot_link/os/liteos/base/mem/common\los_slab.c **** }
 199              		.loc 1 74 1 view .LVU45
 200 0020 7047     		bx	lr
 201              		.cfi_endproc
 202              	.LFE290:
 204              		.section	.text.osAtomicBitsetFindClearAndSet,"ax",%progbits
 205              		.align	1
 206              		.global	osAtomicBitsetFindClearAndSet
 207              		.syntax unified
 208              		.thumb
 209              		.thumb_func
 210              		.fpu fpv4-sp-d16
 212              	osAtomicBitsetFindClearAndSet:
 213              	.LVL17:
ARM GAS  C:\Users\²Ü¼ÒºÀ\AppData\Local\Temp\ccXR3g3j.s 			page 6


 214              	.LFB291:
  75:C:/Users/²Ü¼ÒºÀ/.iotlink/sdk/IoT_LINK/iot_link/os/liteos/base/mem/common\los_slab.c **** 
  76:C:/Users/²Ü¼ÒºÀ/.iotlink/sdk/IoT_LINK/iot_link/os/liteos/base/mem/common\los_slab.c **** /* find from the high bit to high bit£¬return the address of the first available bit */
  77:C:/Users/²Ü¼ÒºÀ/.iotlink/sdk/IoT_LINK/iot_link/os/liteos/base/mem/common\los_slab.c **** INT32 osAtomicBitsetFindClearAndSet(struct AtomicBitset *pstSet)
  78:C:/Users/²Ü¼ÒºÀ/.iotlink/sdk/IoT_LINK/iot_link/os/liteos/base/mem/common\los_slab.c **** {
 215              		.loc 1 78 1 is_stmt 1 view -0
 216              		.cfi_startproc
 217              		@ args = 0, pretend = 0, frame = 0
 218              		@ frame_needed = 0, uses_anonymous_args = 0
  79:C:/Users/²Ü¼ÒºÀ/.iotlink/sdk/IoT_LINK/iot_link/os/liteos/base/mem/common\los_slab.c ****     UINT32 uwIdx, uwNumWords = (pstSet->numBits + 31) / 32;
 219              		.loc 1 79 5 view .LVU47
  78:C:/Users/²Ü¼ÒºÀ/.iotlink/sdk/IoT_LINK/iot_link/os/liteos/base/mem/common\los_slab.c ****     UINT32 uwIdx, uwNumWords = (pstSet->numBits + 31) / 32;
 220              		.loc 1 78 1 is_stmt 0 view .LVU48
 221 0000 30B5     		push	{r4, r5, lr}
 222              	.LCFI1:
 223              		.cfi_def_cfa_offset 12
 224              		.cfi_offset 4, -12
 225              		.cfi_offset 5, -8
 226              		.cfi_offset 14, -4
 227              		.loc 1 79 49 view .LVU49
 228 0002 50F8043B 		ldr	r3, [r0], #4
 229              	.LVL18:
 230              		.loc 1 79 49 view .LVU50
 231 0006 1F33     		adds	r3, r3, #31
 232              		.loc 1 79 19 view .LVU51
 233 0008 5B09     		lsrs	r3, r3, #5
 234              	.LVL19:
  80:C:/Users/²Ü¼ÒºÀ/.iotlink/sdk/IoT_LINK/iot_link/os/liteos/base/mem/common\los_slab.c ****     UINT32 *puwWordPtr = pstSet->words;
 235              		.loc 1 80 5 is_stmt 1 view .LVU52
  81:C:/Users/²Ü¼ÒºÀ/.iotlink/sdk/IoT_LINK/iot_link/os/liteos/base/mem/common\los_slab.c ****     UINT32 uwTmpWord;
 236              		.loc 1 81 5 view .LVU53
  82:C:/Users/²Ü¼ÒºÀ/.iotlink/sdk/IoT_LINK/iot_link/os/liteos/base/mem/common\los_slab.c ****     INT32 swCnt = 0;
 237              		.loc 1 82 5 view .LVU54
  83:C:/Users/²Ü¼ÒºÀ/.iotlink/sdk/IoT_LINK/iot_link/os/liteos/base/mem/common\los_slab.c **** 
  84:C:/Users/²Ü¼ÒºÀ/.iotlink/sdk/IoT_LINK/iot_link/os/liteos/base/mem/common\los_slab.c ****     for (uwIdx = 0; uwIdx < uwNumWords; uwIdx++, puwWordPtr++)
 238              		.loc 1 84 5 view .LVU55
 239              		.loc 1 84 16 is_stmt 0 view .LVU56
 240 000a 0022     		movs	r2, #0
 241              	.LVL20:
 242              	.L13:
 243              		.loc 1 84 5 discriminator 1 view .LVU57
 244 000c 9A42     		cmp	r2, r3
 245 000e 0546     		mov	r5, r0
 246              	.LVL21:
 247              		.loc 1 84 21 is_stmt 1 discriminator 1 view .LVU58
 248              		.loc 1 84 5 is_stmt 0 discriminator 1 view .LVU59
 249 0010 02D1     		bne	.L17
  85:C:/Users/²Ü¼ÒºÀ/.iotlink/sdk/IoT_LINK/iot_link/os/liteos/base/mem/common\los_slab.c ****     {
  86:C:/Users/²Ü¼ÒºÀ/.iotlink/sdk/IoT_LINK/iot_link/os/liteos/base/mem/common\los_slab.c ****         if (*puwWordPtr == 0xFFFFFFFF)
  87:C:/Users/²Ü¼ÒºÀ/.iotlink/sdk/IoT_LINK/iot_link/os/liteos/base/mem/common\los_slab.c ****         {
  88:C:/Users/²Ü¼ÒºÀ/.iotlink/sdk/IoT_LINK/iot_link/os/liteos/base/mem/common\los_slab.c ****             continue;
  89:C:/Users/²Ü¼ÒºÀ/.iotlink/sdk/IoT_LINK/iot_link/os/liteos/base/mem/common\los_slab.c ****         }
  90:C:/Users/²Ü¼ÒºÀ/.iotlink/sdk/IoT_LINK/iot_link/os/liteos/base/mem/common\los_slab.c **** 
  91:C:/Users/²Ü¼ÒºÀ/.iotlink/sdk/IoT_LINK/iot_link/os/liteos/base/mem/common\los_slab.c ****         uwTmpWord = ~(*puwWordPtr);
  92:C:/Users/²Ü¼ÒºÀ/.iotlink/sdk/IoT_LINK/iot_link/os/liteos/base/mem/common\los_slab.c **** 
  93:C:/Users/²Ü¼ÒºÀ/.iotlink/sdk/IoT_LINK/iot_link/os/liteos/base/mem/common\los_slab.c ****         while(uwTmpWord)
  94:C:/Users/²Ü¼ÒºÀ/.iotlink/sdk/IoT_LINK/iot_link/os/liteos/base/mem/common\los_slab.c ****         {
ARM GAS  C:\Users\²Ü¼ÒºÀ\AppData\Local\Temp\ccXR3g3j.s 			page 7


  95:C:/Users/²Ü¼ÒºÀ/.iotlink/sdk/IoT_LINK/iot_link/os/liteos/base/mem/common\los_slab.c ****             uwTmpWord = uwTmpWord >> 1UL;
  96:C:/Users/²Ü¼ÒºÀ/.iotlink/sdk/IoT_LINK/iot_link/os/liteos/base/mem/common\los_slab.c ****             swCnt++;
  97:C:/Users/²Ü¼ÒºÀ/.iotlink/sdk/IoT_LINK/iot_link/os/liteos/base/mem/common\los_slab.c ****         }
  98:C:/Users/²Ü¼ÒºÀ/.iotlink/sdk/IoT_LINK/iot_link/os/liteos/base/mem/common\los_slab.c **** 
  99:C:/Users/²Ü¼ÒºÀ/.iotlink/sdk/IoT_LINK/iot_link/os/liteos/base/mem/common\los_slab.c ****         *puwWordPtr |= (1UL << (swCnt - 1));
 100:C:/Users/²Ü¼ÒºÀ/.iotlink/sdk/IoT_LINK/iot_link/os/liteos/base/mem/common\los_slab.c **** 
 101:C:/Users/²Ü¼ÒºÀ/.iotlink/sdk/IoT_LINK/iot_link/os/liteos/base/mem/common\los_slab.c ****         return (INT32)(uwIdx * 32 + swCnt - 1);
 102:C:/Users/²Ü¼ÒºÀ/.iotlink/sdk/IoT_LINK/iot_link/os/liteos/base/mem/common\los_slab.c ****     }
 103:C:/Users/²Ü¼ÒºÀ/.iotlink/sdk/IoT_LINK/iot_link/os/liteos/base/mem/common\los_slab.c **** 
 104:C:/Users/²Ü¼ÒºÀ/.iotlink/sdk/IoT_LINK/iot_link/os/liteos/base/mem/common\los_slab.c ****     return -1;
 250              		.loc 1 104 12 view .LVU60
 251 0012 4FF0FF30 		mov	r0, #-1
 252              	.LVL22:
 253              		.loc 1 104 12 view .LVU61
 254 0016 12E0     		b	.L12
 255              	.LVL23:
 256              	.L17:
  86:C:/Users/²Ü¼ÒºÀ/.iotlink/sdk/IoT_LINK/iot_link/os/liteos/base/mem/common\los_slab.c ****         {
 257              		.loc 1 86 9 is_stmt 1 view .LVU62
  86:C:/Users/²Ü¼ÒºÀ/.iotlink/sdk/IoT_LINK/iot_link/os/liteos/base/mem/common\los_slab.c ****         {
 258              		.loc 1 86 13 is_stmt 0 view .LVU63
 259 0018 50F8041B 		ldr	r1, [r0], #4
 260              	.LVL24:
  86:C:/Users/²Ü¼ÒºÀ/.iotlink/sdk/IoT_LINK/iot_link/os/liteos/base/mem/common\los_slab.c ****         {
 261              		.loc 1 86 12 view .LVU64
 262 001c 4C1C     		adds	r4, r1, #1
 263 001e 01D1     		bne	.L14
  88:C:/Users/²Ü¼ÒºÀ/.iotlink/sdk/IoT_LINK/iot_link/os/liteos/base/mem/common\los_slab.c ****         }
 264              		.loc 1 88 13 is_stmt 1 view .LVU65
  84:C:/Users/²Ü¼ÒºÀ/.iotlink/sdk/IoT_LINK/iot_link/os/liteos/base/mem/common\los_slab.c ****     {
 265              		.loc 1 84 41 view .LVU66
  84:C:/Users/²Ü¼ÒºÀ/.iotlink/sdk/IoT_LINK/iot_link/os/liteos/base/mem/common\los_slab.c ****     {
 266              		.loc 1 84 46 is_stmt 0 view .LVU67
 267 0020 0132     		adds	r2, r2, #1
 268              	.LVL25:
  84:C:/Users/²Ü¼ÒºÀ/.iotlink/sdk/IoT_LINK/iot_link/os/liteos/base/mem/common\los_slab.c ****     {
 269              		.loc 1 84 46 view .LVU68
 270 0022 F3E7     		b	.L13
 271              	.LVL26:
 272              	.L14:
  91:C:/Users/²Ü¼ÒºÀ/.iotlink/sdk/IoT_LINK/iot_link/os/liteos/base/mem/common\los_slab.c **** 
 273              		.loc 1 91 9 is_stmt 1 view .LVU69
  91:C:/Users/²Ü¼ÒºÀ/.iotlink/sdk/IoT_LINK/iot_link/os/liteos/base/mem/common\los_slab.c **** 
 274              		.loc 1 91 19 is_stmt 0 view .LVU70
 275 0024 CB43     		mvns	r3, r1
 276              	.LVL27:
  93:C:/Users/²Ü¼ÒºÀ/.iotlink/sdk/IoT_LINK/iot_link/os/liteos/base/mem/common\los_slab.c ****         {
 277              		.loc 1 93 9 is_stmt 1 view .LVU71
  93:C:/Users/²Ü¼ÒºÀ/.iotlink/sdk/IoT_LINK/iot_link/os/liteos/base/mem/common\los_slab.c ****         {
 278              		.loc 1 93 14 view .LVU72
  82:C:/Users/²Ü¼ÒºÀ/.iotlink/sdk/IoT_LINK/iot_link/os/liteos/base/mem/common\los_slab.c **** 
 279              		.loc 1 82 11 is_stmt 0 view .LVU73
 280 0026 0024     		movs	r4, #0
 281              	.LVL28:
 282              	.L15:
  95:C:/Users/²Ü¼ÒºÀ/.iotlink/sdk/IoT_LINK/iot_link/os/liteos/base/mem/common\los_slab.c ****             swCnt++;
 283              		.loc 1 95 13 is_stmt 1 view .LVU74
ARM GAS  C:\Users\²Ü¼ÒºÀ\AppData\Local\Temp\ccXR3g3j.s 			page 8


  96:C:/Users/²Ü¼ÒºÀ/.iotlink/sdk/IoT_LINK/iot_link/os/liteos/base/mem/common\los_slab.c ****         }
 284              		.loc 1 96 13 view .LVU75
  93:C:/Users/²Ü¼ÒºÀ/.iotlink/sdk/IoT_LINK/iot_link/os/liteos/base/mem/common\los_slab.c ****         {
 285              		.loc 1 93 14 is_stmt 0 view .LVU76
 286 0028 5B08     		lsrs	r3, r3, #1
 287              	.LVL29:
  93:C:/Users/²Ü¼ÒºÀ/.iotlink/sdk/IoT_LINK/iot_link/os/liteos/base/mem/common\los_slab.c ****         {
 288              		.loc 1 93 14 view .LVU77
 289 002a 2046     		mov	r0, r4
  96:C:/Users/²Ü¼ÒºÀ/.iotlink/sdk/IoT_LINK/iot_link/os/liteos/base/mem/common\los_slab.c ****         }
 290              		.loc 1 96 18 view .LVU78
 291 002c 04F10104 		add	r4, r4, #1
 292              	.LVL30:
  93:C:/Users/²Ü¼ÒºÀ/.iotlink/sdk/IoT_LINK/iot_link/os/liteos/base/mem/common\los_slab.c ****         {
 293              		.loc 1 93 14 is_stmt 1 view .LVU79
 294 0030 FAD1     		bne	.L15
  99:C:/Users/²Ü¼ÒºÀ/.iotlink/sdk/IoT_LINK/iot_link/os/liteos/base/mem/common\los_slab.c **** 
 295              		.loc 1 99 9 view .LVU80
  99:C:/Users/²Ü¼ÒºÀ/.iotlink/sdk/IoT_LINK/iot_link/os/liteos/base/mem/common\los_slab.c **** 
 296              		.loc 1 99 29 is_stmt 0 view .LVU81
 297 0032 0123     		movs	r3, #1
 298 0034 8340     		lsls	r3, r3, r0
  99:C:/Users/²Ü¼ÒºÀ/.iotlink/sdk/IoT_LINK/iot_link/os/liteos/base/mem/common\los_slab.c **** 
 299              		.loc 1 99 21 view .LVU82
 300 0036 0B43     		orrs	r3, r3, r1
 301 0038 2B60     		str	r3, [r5]
 302              	.LVL31:
 101:C:/Users/²Ü¼ÒºÀ/.iotlink/sdk/IoT_LINK/iot_link/os/liteos/base/mem/common\los_slab.c ****     }
 303              		.loc 1 101 9 is_stmt 1 view .LVU83
 101:C:/Users/²Ü¼ÒºÀ/.iotlink/sdk/IoT_LINK/iot_link/os/liteos/base/mem/common\los_slab.c ****     }
 304              		.loc 1 101 43 is_stmt 0 view .LVU84
 305 003a 00EB4210 		add	r0, r0, r2, lsl #5
 306              	.LVL32:
 307              	.L12:
 105:C:/Users/²Ü¼ÒºÀ/.iotlink/sdk/IoT_LINK/iot_link/os/liteos/base/mem/common\los_slab.c **** }
 308              		.loc 1 105 1 view .LVU85
 309 003e 30BD     		pop	{r4, r5, pc}
 310              		.loc 1 105 1 view .LVU86
 311              		.cfi_endproc
 312              	.LFE291:
 314              		.section	.text.osAtomicBitsetIdxChgToNatural,"ax",%progbits
 315              		.align	1
 316              		.global	osAtomicBitsetIdxChgToNatural
 317              		.syntax unified
 318              		.thumb
 319              		.thumb_func
 320              		.fpu fpv4-sp-d16
 322              	osAtomicBitsetIdxChgToNatural:
 323              	.LVL33:
 324              	.LFB292:
 106:C:/Users/²Ü¼ÒºÀ/.iotlink/sdk/IoT_LINK/iot_link/os/liteos/base/mem/common\los_slab.c **** 
 107:C:/Users/²Ü¼ÒºÀ/.iotlink/sdk/IoT_LINK/iot_link/os/liteos/base/mem/common\los_slab.c **** /* change the order of the output idx of osAtomicBitsetFindClearAndSet to order of natural numbers 
 108:C:/Users/²Ü¼ÒºÀ/.iotlink/sdk/IoT_LINK/iot_link/os/liteos/base/mem/common\los_slab.c **** INT32 osAtomicBitsetIdxChgToNatural(struct AtomicBitset *pstBitset, INT32 swIdx)
 109:C:/Users/²Ü¼ÒºÀ/.iotlink/sdk/IoT_LINK/iot_link/os/liteos/base/mem/common\los_slab.c **** {
 325              		.loc 1 109 1 is_stmt 1 view -0
 326              		.cfi_startproc
 327              		@ args = 0, pretend = 0, frame = 0
ARM GAS  C:\Users\²Ü¼ÒºÀ\AppData\Local\Temp\ccXR3g3j.s 			page 9


 328              		@ frame_needed = 0, uses_anonymous_args = 0
 329              		@ link register save eliminated.
 110:C:/Users/²Ü¼ÒºÀ/.iotlink/sdk/IoT_LINK/iot_link/os/liteos/base/mem/common\los_slab.c ****     UINT32 uwRet, uwB;
 330              		.loc 1 110 5 view .LVU88
 111:C:/Users/²Ü¼ÒºÀ/.iotlink/sdk/IoT_LINK/iot_link/os/liteos/base/mem/common\los_slab.c ****     if (swIdx < 0)
 331              		.loc 1 111 5 view .LVU89
 332              		.loc 1 111 8 is_stmt 0 view .LVU90
 333 0000 0029     		cmp	r1, #0
 334              		.loc 1 111 8 view .LVU91
 335 0002 0BDB     		blt	.L20
 112:C:/Users/²Ü¼ÒºÀ/.iotlink/sdk/IoT_LINK/iot_link/os/liteos/base/mem/common\los_slab.c ****     {
 113:C:/Users/²Ü¼ÒºÀ/.iotlink/sdk/IoT_LINK/iot_link/os/liteos/base/mem/common\los_slab.c ****         return swIdx;
 114:C:/Users/²Ü¼ÒºÀ/.iotlink/sdk/IoT_LINK/iot_link/os/liteos/base/mem/common\los_slab.c ****     }
 115:C:/Users/²Ü¼ÒºÀ/.iotlink/sdk/IoT_LINK/iot_link/os/liteos/base/mem/common\los_slab.c ****     uwB = 31 + (swIdx & ~31);
 336              		.loc 1 115 5 is_stmt 1 view .LVU92
 116:C:/Users/²Ü¼ÒºÀ/.iotlink/sdk/IoT_LINK/iot_link/os/liteos/base/mem/common\los_slab.c ****     if (uwB > pstBitset->numBits - 1)
 337              		.loc 1 116 34 is_stmt 0 view .LVU93
 338 0004 0368     		ldr	r3, [r0]
 115:C:/Users/²Ü¼ÒºÀ/.iotlink/sdk/IoT_LINK/iot_link/os/liteos/base/mem/common\los_slab.c ****     if (uwB > pstBitset->numBits - 1)
 339              		.loc 1 115 14 view .LVU94
 340 0006 41F01F02 		orr	r2, r1, #31
 341              	.LVL34:
 342              		.loc 1 116 5 is_stmt 1 view .LVU95
 117:C:/Users/²Ü¼ÒºÀ/.iotlink/sdk/IoT_LINK/iot_link/os/liteos/base/mem/common\los_slab.c ****     {
 118:C:/Users/²Ü¼ÒºÀ/.iotlink/sdk/IoT_LINK/iot_link/os/liteos/base/mem/common\los_slab.c ****         uwB = pstBitset->numBits - 1;
 119:C:/Users/²Ü¼ÒºÀ/.iotlink/sdk/IoT_LINK/iot_link/os/liteos/base/mem/common\los_slab.c ****     }
 120:C:/Users/²Ü¼ÒºÀ/.iotlink/sdk/IoT_LINK/iot_link/os/liteos/base/mem/common\los_slab.c ****     uwRet = uwB - (swIdx & 31);
 343              		.loc 1 120 5 view .LVU96
 121:C:/Users/²Ü¼ÒºÀ/.iotlink/sdk/IoT_LINK/iot_link/os/liteos/base/mem/common\los_slab.c ****     return uwRet;
 344              		.loc 1 121 5 view .LVU97
 116:C:/Users/²Ü¼ÒºÀ/.iotlink/sdk/IoT_LINK/iot_link/os/liteos/base/mem/common\los_slab.c ****     {
 345              		.loc 1 116 34 is_stmt 0 view .LVU98
 346 000a 013B     		subs	r3, r3, #1
 347              	.LVL35:
 120:C:/Users/²Ü¼ÒºÀ/.iotlink/sdk/IoT_LINK/iot_link/os/liteos/base/mem/common\los_slab.c ****     return uwRet;
 348              		.loc 1 120 26 view .LVU99
 349 000c 01F01F01 		and	r1, r1, #31
 350              	.LVL36:
 120:C:/Users/²Ü¼ÒºÀ/.iotlink/sdk/IoT_LINK/iot_link/os/liteos/base/mem/common\los_slab.c ****     return uwRet;
 351              		.loc 1 120 11 view .LVU100
 352 0010 9342     		cmp	r3, r2
 353 0012 94BF     		ite	ls
 354 0014 C1EB0301 		rsbls	r1, r1, r3
 355 0018 C1EB0201 		rsbhi	r1, r1, r2
 356              	.LVL37:
 357              	.L20:
 122:C:/Users/²Ü¼ÒºÀ/.iotlink/sdk/IoT_LINK/iot_link/os/liteos/base/mem/common\los_slab.c **** }
 358              		.loc 1 122 1 view .LVU101
 359 001c 0846     		mov	r0, r1
 360              	.LVL38:
 361              		.loc 1 122 1 view .LVU102
 362 001e 7047     		bx	lr
 363              		.cfi_endproc
 364              	.LFE292:
 366              		.section	.text.osAtomicBitsetEmpty,"ax",%progbits
 367              		.align	1
 368              		.global	osAtomicBitsetEmpty
ARM GAS  C:\Users\²Ü¼ÒºÀ\AppData\Local\Temp\ccXR3g3j.s 			page 10


 369              		.syntax unified
 370              		.thumb
 371              		.thumb_func
 372              		.fpu fpv4-sp-d16
 374              	osAtomicBitsetEmpty:
 375              	.LVL39:
 376              	.LFB293:
 123:C:/Users/²Ü¼ÒºÀ/.iotlink/sdk/IoT_LINK/iot_link/os/liteos/base/mem/common\los_slab.c **** 
 124:C:/Users/²Ü¼ÒºÀ/.iotlink/sdk/IoT_LINK/iot_link/os/liteos/base/mem/common\los_slab.c **** BOOL osAtomicBitsetEmpty(struct AtomicBitset *pstBitset)
 125:C:/Users/²Ü¼ÒºÀ/.iotlink/sdk/IoT_LINK/iot_link/os/liteos/base/mem/common\los_slab.c **** {
 377              		.loc 1 125 1 is_stmt 1 view -0
 378              		.cfi_startproc
 379              		@ args = 0, pretend = 0, frame = 0
 380              		@ frame_needed = 0, uses_anonymous_args = 0
 126:C:/Users/²Ü¼ÒºÀ/.iotlink/sdk/IoT_LINK/iot_link/os/liteos/base/mem/common\los_slab.c ****     UINT32 uwIdx = 0;
 381              		.loc 1 126 5 view .LVU104
 127:C:/Users/²Ü¼ÒºÀ/.iotlink/sdk/IoT_LINK/iot_link/os/liteos/base/mem/common\los_slab.c ****     for (uwIdx = 0; uwIdx < pstBitset->numBits / 32;)
 382              		.loc 1 127 5 view .LVU105
 383              		.loc 1 127 38 is_stmt 0 view .LVU106
 384 0000 0246     		mov	r2, r0
 125:C:/Users/²Ü¼ÒºÀ/.iotlink/sdk/IoT_LINK/iot_link/os/liteos/base/mem/common\los_slab.c ****     UINT32 uwIdx = 0;
 385              		.loc 1 125 1 view .LVU107
 386 0002 30B5     		push	{r4, r5, lr}
 387              	.LCFI2:
 388              		.cfi_def_cfa_offset 12
 389              		.cfi_offset 4, -12
 390              		.cfi_offset 5, -8
 391              		.cfi_offset 14, -4
 392              		.loc 1 127 38 view .LVU108
 393 0004 52F8043B 		ldr	r3, [r2], #4
 394              		.loc 1 127 16 view .LVU109
 395 0008 0021     		movs	r1, #0
 396              		.loc 1 127 48 view .LVU110
 397 000a 5C09     		lsrs	r4, r3, #5
 398              	.LVL40:
 399              	.L22:
 400              		.loc 1 127 21 is_stmt 1 discriminator 1 view .LVU111
 401              		.loc 1 127 5 is_stmt 0 discriminator 1 view .LVU112
 402 000c 8C42     		cmp	r4, r1
 403 000e 0FD1     		bne	.L24
 128:C:/Users/²Ü¼ÒºÀ/.iotlink/sdk/IoT_LINK/iot_link/os/liteos/base/mem/common\los_slab.c ****     {
 129:C:/Users/²Ü¼ÒºÀ/.iotlink/sdk/IoT_LINK/iot_link/os/liteos/base/mem/common\los_slab.c ****         if (pstBitset->words[uwIdx] != 0)
 130:C:/Users/²Ü¼ÒºÀ/.iotlink/sdk/IoT_LINK/iot_link/os/liteos/base/mem/common\los_slab.c ****         {
 131:C:/Users/²Ü¼ÒºÀ/.iotlink/sdk/IoT_LINK/iot_link/os/liteos/base/mem/common\los_slab.c ****             return FALSE;
 132:C:/Users/²Ü¼ÒºÀ/.iotlink/sdk/IoT_LINK/iot_link/os/liteos/base/mem/common\los_slab.c ****         }
 133:C:/Users/²Ü¼ÒºÀ/.iotlink/sdk/IoT_LINK/iot_link/os/liteos/base/mem/common\los_slab.c ****         uwIdx++;
 134:C:/Users/²Ü¼ÒºÀ/.iotlink/sdk/IoT_LINK/iot_link/os/liteos/base/mem/common\los_slab.c ****     }
 135:C:/Users/²Ü¼ÒºÀ/.iotlink/sdk/IoT_LINK/iot_link/os/liteos/base/mem/common\los_slab.c ****     if (pstBitset->numBits & 31)
 404              		.loc 1 135 5 is_stmt 1 view .LVU113
 405              		.loc 1 135 8 is_stmt 0 view .LVU114
 406 0010 13F01F03 		ands	r3, r3, #31
 407 0014 13D0     		beq	.L26
 136:C:/Users/²Ü¼ÒºÀ/.iotlink/sdk/IoT_LINK/iot_link/os/liteos/base/mem/common\los_slab.c ****     {
 137:C:/Users/²Ü¼ÒºÀ/.iotlink/sdk/IoT_LINK/iot_link/os/liteos/base/mem/common\los_slab.c ****         if (pstBitset->words[uwIdx] & ~(0xFFFFFFFF << (pstBitset->numBits & 31)))
 408              		.loc 1 137 9 is_stmt 1 view .LVU115
 409              		.loc 1 137 29 is_stmt 0 view .LVU116
 410 0016 00EB8400 		add	r0, r0, r4, lsl #2
ARM GAS  C:\Users\²Ü¼ÒºÀ\AppData\Local\Temp\ccXR3g3j.s 			page 11


 411              	.LVL41:
 412              		.loc 1 137 52 view .LVU117
 413 001a 4FF0FF32 		mov	r2, #-1
 414 001e 02FA03F3 		lsl	r3, r2, r3
 415              		.loc 1 137 37 view .LVU118
 416 0022 4268     		ldr	r2, [r0, #4]
 417              		.loc 1 137 12 view .LVU119
 418 0024 32EA0303 		bics	r3, r2, r3
 419 0028 0CBF     		ite	eq
 420 002a 0120     		moveq	r0, #1
 421 002c 0020     		movne	r0, #0
 422              	.L21:
 138:C:/Users/²Ü¼ÒºÀ/.iotlink/sdk/IoT_LINK/iot_link/os/liteos/base/mem/common\los_slab.c ****         {
 139:C:/Users/²Ü¼ÒºÀ/.iotlink/sdk/IoT_LINK/iot_link/os/liteos/base/mem/common\los_slab.c ****             return FALSE;
 140:C:/Users/²Ü¼ÒºÀ/.iotlink/sdk/IoT_LINK/iot_link/os/liteos/base/mem/common\los_slab.c ****         }
 141:C:/Users/²Ü¼ÒºÀ/.iotlink/sdk/IoT_LINK/iot_link/os/liteos/base/mem/common\los_slab.c ****     }
 142:C:/Users/²Ü¼ÒºÀ/.iotlink/sdk/IoT_LINK/iot_link/os/liteos/base/mem/common\los_slab.c ****     return TRUE;
 143:C:/Users/²Ü¼ÒºÀ/.iotlink/sdk/IoT_LINK/iot_link/os/liteos/base/mem/common\los_slab.c **** }
 423              		.loc 1 143 1 view .LVU120
 424 002e 30BD     		pop	{r4, r5, pc}
 425              	.LVL42:
 426              	.L24:
 129:C:/Users/²Ü¼ÒºÀ/.iotlink/sdk/IoT_LINK/iot_link/os/liteos/base/mem/common\los_slab.c ****         {
 427              		.loc 1 129 9 is_stmt 1 view .LVU121
 129:C:/Users/²Ü¼ÒºÀ/.iotlink/sdk/IoT_LINK/iot_link/os/liteos/base/mem/common\los_slab.c ****         {
 428              		.loc 1 129 29 is_stmt 0 view .LVU122
 429 0030 52F8045B 		ldr	r5, [r2], #4
 129:C:/Users/²Ü¼ÒºÀ/.iotlink/sdk/IoT_LINK/iot_link/os/liteos/base/mem/common\los_slab.c ****         {
 430              		.loc 1 129 12 view .LVU123
 431 0034 0DB9     		cbnz	r5, .L25
 133:C:/Users/²Ü¼ÒºÀ/.iotlink/sdk/IoT_LINK/iot_link/os/liteos/base/mem/common\los_slab.c ****     }
 432              		.loc 1 133 9 is_stmt 1 view .LVU124
 133:C:/Users/²Ü¼ÒºÀ/.iotlink/sdk/IoT_LINK/iot_link/os/liteos/base/mem/common\los_slab.c ****     }
 433              		.loc 1 133 14 is_stmt 0 view .LVU125
 434 0036 0131     		adds	r1, r1, #1
 435              	.LVL43:
 133:C:/Users/²Ü¼ÒºÀ/.iotlink/sdk/IoT_LINK/iot_link/os/liteos/base/mem/common\los_slab.c ****     }
 436              		.loc 1 133 14 view .LVU126
 437 0038 E8E7     		b	.L22
 438              	.L25:
 131:C:/Users/²Ü¼ÒºÀ/.iotlink/sdk/IoT_LINK/iot_link/os/liteos/base/mem/common\los_slab.c ****         }
 439              		.loc 1 131 20 view .LVU127
 440 003a 0020     		movs	r0, #0
 441              	.LVL44:
 131:C:/Users/²Ü¼ÒºÀ/.iotlink/sdk/IoT_LINK/iot_link/os/liteos/base/mem/common\los_slab.c ****         }
 442              		.loc 1 131 20 view .LVU128
 443 003c F7E7     		b	.L21
 444              	.LVL45:
 445              	.L26:
 142:C:/Users/²Ü¼ÒºÀ/.iotlink/sdk/IoT_LINK/iot_link/os/liteos/base/mem/common\los_slab.c **** }
 446              		.loc 1 142 12 view .LVU129
 447 003e 0120     		movs	r0, #1
 448              	.LVL46:
 142:C:/Users/²Ü¼ÒºÀ/.iotlink/sdk/IoT_LINK/iot_link/os/liteos/base/mem/common\los_slab.c **** }
 449              		.loc 1 142 12 view .LVU130
 450 0040 F5E7     		b	.L21
 451              		.cfi_endproc
ARM GAS  C:\Users\²Ü¼ÒºÀ\AppData\Local\Temp\ccXR3g3j.s 			page 12


 452              	.LFE293:
 454              		.section	.text.osSlabAllocatorNew,"ax",%progbits
 455              		.align	1
 456              		.global	osSlabAllocatorNew
 457              		.syntax unified
 458              		.thumb
 459              		.thumb_func
 460              		.fpu fpv4-sp-d16
 462              	osSlabAllocatorNew:
 463              	.LVL47:
 464              	.LFB294:
 144:C:/Users/²Ü¼ÒºÀ/.iotlink/sdk/IoT_LINK/iot_link/os/liteos/base/mem/common\los_slab.c **** 
 145:C:/Users/²Ü¼ÒºÀ/.iotlink/sdk/IoT_LINK/iot_link/os/liteos/base/mem/common\los_slab.c **** OS_SLAB_ALLOCATOR* osSlabAllocatorNew(VOID *pPool, UINT32 uwItemSz, UINT32 uwItemAlign, UINT32 uwNu
 146:C:/Users/²Ü¼ÒºÀ/.iotlink/sdk/IoT_LINK/iot_link/os/liteos/base/mem/common\los_slab.c **** {
 465              		.loc 1 146 1 is_stmt 1 view -0
 466              		.cfi_startproc
 467              		@ args = 0, pretend = 0, frame = 0
 468              		@ frame_needed = 0, uses_anonymous_args = 0
 147:C:/Users/²Ü¼ÒºÀ/.iotlink/sdk/IoT_LINK/iot_link/os/liteos/base/mem/common\los_slab.c ****     OS_SLAB_ALLOCATOR *pstAllocator;
 469              		.loc 1 147 5 view .LVU132
 148:C:/Users/²Ü¼ÒºÀ/.iotlink/sdk/IoT_LINK/iot_link/os/liteos/base/mem/common\los_slab.c ****     UINT32 uwBitsetSz, uwDataSz;
 470              		.loc 1 148 5 view .LVU133
 149:C:/Users/²Ü¼ÒºÀ/.iotlink/sdk/IoT_LINK/iot_link/os/liteos/base/mem/common\los_slab.c **** 
 150:C:/Users/²Ü¼ÒºÀ/.iotlink/sdk/IoT_LINK/iot_link/os/liteos/base/mem/common\los_slab.c ****     /* calcualte size */
 151:C:/Users/²Ü¼ÒºÀ/.iotlink/sdk/IoT_LINK/iot_link/os/liteos/base/mem/common\los_slab.c ****     uwBitsetSz = ATOMIC_BITSET_SZ(uwNumItems);
 471              		.loc 1 151 5 view .LVU134
 146:C:/Users/²Ü¼ÒºÀ/.iotlink/sdk/IoT_LINK/iot_link/os/liteos/base/mem/common\los_slab.c ****     OS_SLAB_ALLOCATOR *pstAllocator;
 472              		.loc 1 146 1 is_stmt 0 view .LVU135
 473 0000 F8B5     		push	{r3, r4, r5, r6, r7, lr}
 474              	.LCFI3:
 475              		.cfi_def_cfa_offset 24
 476              		.cfi_offset 3, -24
 477              		.cfi_offset 4, -20
 478              		.cfi_offset 5, -16
 479              		.cfi_offset 6, -12
 480              		.cfi_offset 7, -8
 481              		.cfi_offset 14, -4
 146:C:/Users/²Ü¼ÒºÀ/.iotlink/sdk/IoT_LINK/iot_link/os/liteos/base/mem/common\los_slab.c ****     OS_SLAB_ALLOCATOR *pstAllocator;
 482              		.loc 1 146 1 view .LVU136
 483 0002 1E46     		mov	r6, r3
 484              	.LVL48:
 152:C:/Users/²Ü¼ÒºÀ/.iotlink/sdk/IoT_LINK/iot_link/os/liteos/base/mem/common\los_slab.c **** 
 153:C:/Users/²Ü¼ÒºÀ/.iotlink/sdk/IoT_LINK/iot_link/os/liteos/base/mem/common\los_slab.c ****     uwBitsetSz = (uwBitsetSz + uwItemAlign - 1) & ~(uwItemAlign - 1);
 485              		.loc 1 153 5 is_stmt 1 view .LVU137
 151:C:/Users/²Ü¼ÒºÀ/.iotlink/sdk/IoT_LINK/iot_link/os/liteos/base/mem/common\los_slab.c **** 
 486              		.loc 1 151 18 is_stmt 0 view .LVU138
 487 0004 06F11F05 		add	r5, r6, #31
 488              		.loc 1 153 44 view .LVU139
 489 0008 D41C     		adds	r4, r2, #3
 154:C:/Users/²Ü¼ÒºÀ/.iotlink/sdk/IoT_LINK/iot_link/os/liteos/base/mem/common\los_slab.c ****     uwItemSz = (uwItemSz + uwItemAlign - 1) & ~(uwItemAlign - 1);
 490              		.loc 1 154 40 view .LVU140
 491 000a 0139     		subs	r1, r1, #1
 492              	.LVL49:
 153:C:/Users/²Ü¼ÒºÀ/.iotlink/sdk/IoT_LINK/iot_link/os/liteos/base/mem/common\los_slab.c ****     uwItemSz = (uwItemSz + uwItemAlign - 1) & ~(uwItemAlign - 1);
 493              		.loc 1 153 51 view .LVU141
 494 000c 5342     		rsbs	r3, r2, #0
 495              	.LVL50:
ARM GAS  C:\Users\²Ü¼ÒºÀ\AppData\Local\Temp\ccXR3g3j.s 			page 13


 496              		.loc 1 154 40 view .LVU142
 497 000e 8F18     		adds	r7, r1, r2
 153:C:/Users/²Ü¼ÒºÀ/.iotlink/sdk/IoT_LINK/iot_link/os/liteos/base/mem/common\los_slab.c ****     uwItemSz = (uwItemSz + uwItemAlign - 1) & ~(uwItemAlign - 1);
 498              		.loc 1 153 44 view .LVU143
 499 0010 04EBD504 		add	r4, r4, r5, lsr #3
 153:C:/Users/²Ü¼ÒºÀ/.iotlink/sdk/IoT_LINK/iot_link/os/liteos/base/mem/common\los_slab.c ****     uwItemSz = (uwItemSz + uwItemAlign - 1) & ~(uwItemAlign - 1);
 500              		.loc 1 153 16 view .LVU144
 501 0014 1C40     		ands	r4, r4, r3
 502              	.LVL51:
 503              		.loc 1 154 5 is_stmt 1 view .LVU145
 504              		.loc 1 154 14 is_stmt 0 view .LVU146
 505 0016 1F40     		ands	r7, r7, r3
 506              	.LVL52:
 155:C:/Users/²Ü¼ÒºÀ/.iotlink/sdk/IoT_LINK/iot_link/os/liteos/base/mem/common\los_slab.c ****     uwDataSz = uwItemSz * uwNumItems;
 507              		.loc 1 155 5 is_stmt 1 view .LVU147
 156:C:/Users/²Ü¼ÒºÀ/.iotlink/sdk/IoT_LINK/iot_link/os/liteos/base/mem/common\los_slab.c **** 
 157:C:/Users/²Ü¼ÒºÀ/.iotlink/sdk/IoT_LINK/iot_link/os/liteos/base/mem/common\los_slab.c ****     pstAllocator = (OS_SLAB_ALLOCATOR*)osHeapAlloc(pPool, sizeof(OS_SLAB_ALLOCATOR) + uwBitsetSz + 
 508              		.loc 1 157 5 view .LVU148
 509              		.loc 1 157 40 is_stmt 0 view .LVU149
 510 0018 07FB0641 		mla	r1, r7, r6, r4
 511 001c 0C31     		adds	r1, r1, #12
 512 001e FFF7FEFF 		bl	osHeapAlloc
 513              	.LVL53:
 158:C:/Users/²Ü¼ÒºÀ/.iotlink/sdk/IoT_LINK/iot_link/os/liteos/base/mem/common\los_slab.c **** 
 159:C:/Users/²Ü¼ÒºÀ/.iotlink/sdk/IoT_LINK/iot_link/os/liteos/base/mem/common\los_slab.c ****     if (pstAllocator)
 514              		.loc 1 159 5 is_stmt 1 view .LVU150
 515              		.loc 1 159 8 is_stmt 0 view .LVU151
 516 0022 0546     		mov	r5, r0
 517 0024 38B1     		cbz	r0, .L27
 160:C:/Users/²Ü¼ÒºÀ/.iotlink/sdk/IoT_LINK/iot_link/os/liteos/base/mem/common\los_slab.c ****     {
 161:C:/Users/²Ü¼ÒºÀ/.iotlink/sdk/IoT_LINK/iot_link/os/liteos/base/mem/common\los_slab.c ****         pstAllocator->uwItemSz = uwItemSz;
 518              		.loc 1 161 9 is_stmt 1 view .LVU152
 519              		.loc 1 161 32 is_stmt 0 view .LVU153
 520 0026 40F80C7B 		str	r7, [r0], #12
 521              	.LVL54:
 162:C:/Users/²Ü¼ÒºÀ/.iotlink/sdk/IoT_LINK/iot_link/os/liteos/base/mem/common\los_slab.c **** 
 163:C:/Users/²Ü¼ÒºÀ/.iotlink/sdk/IoT_LINK/iot_link/os/liteos/base/mem/common\los_slab.c ****         pstAllocator->bitset = (struct AtomicBitset *)((UINT8*)pstAllocator + sizeof(OS_SLAB_ALLOCA
 522              		.loc 1 163 9 is_stmt 1 view .LVU154
 164:C:/Users/²Ü¼ÒºÀ/.iotlink/sdk/IoT_LINK/iot_link/os/liteos/base/mem/common\los_slab.c ****         pstAllocator->ucDataChunks = ((UINT8*)pstAllocator->bitset) + uwBitsetSz;
 523              		.loc 1 164 69 is_stmt 0 view .LVU155
 524 002a 0444     		add	r4, r4, r0
 525              	.LVL55:
 163:C:/Users/²Ü¼ÒºÀ/.iotlink/sdk/IoT_LINK/iot_link/os/liteos/base/mem/common\los_slab.c ****         pstAllocator->ucDataChunks = ((UINT8*)pstAllocator->bitset) + uwBitsetSz;
 526              		.loc 1 163 30 view .LVU156
 527 002c A860     		str	r0, [r5, #8]
 528              		.loc 1 164 9 is_stmt 1 view .LVU157
 529              		.loc 1 164 36 is_stmt 0 view .LVU158
 530 002e 6C60     		str	r4, [r5, #4]
 165:C:/Users/²Ü¼ÒºÀ/.iotlink/sdk/IoT_LINK/iot_link/os/liteos/base/mem/common\los_slab.c ****         osAtomicBitsetInit(pstAllocator->bitset, uwNumItems);
 531              		.loc 1 165 9 is_stmt 1 view .LVU159
 532 0030 3146     		mov	r1, r6
 533 0032 FFF7FEFF 		bl	osAtomicBitsetInit
 534              	.LVL56:
 166:C:/Users/²Ü¼ÒºÀ/.iotlink/sdk/IoT_LINK/iot_link/os/liteos/base/mem/common\los_slab.c ****     }
 167:C:/Users/²Ü¼ÒºÀ/.iotlink/sdk/IoT_LINK/iot_link/os/liteos/base/mem/common\los_slab.c **** 
 168:C:/Users/²Ü¼ÒºÀ/.iotlink/sdk/IoT_LINK/iot_link/os/liteos/base/mem/common\los_slab.c ****     return pstAllocator;
 535              		.loc 1 168 5 view .LVU160
ARM GAS  C:\Users\²Ü¼ÒºÀ\AppData\Local\Temp\ccXR3g3j.s 			page 14


 536              	.L27:
 169:C:/Users/²Ü¼ÒºÀ/.iotlink/sdk/IoT_LINK/iot_link/os/liteos/base/mem/common\los_slab.c **** }
 537              		.loc 1 169 1 is_stmt 0 view .LVU161
 538 0036 2846     		mov	r0, r5
 539 0038 F8BD     		pop	{r3, r4, r5, r6, r7, pc}
 540              		.loc 1 169 1 view .LVU162
 541              		.cfi_endproc
 542              	.LFE294:
 544              		.section	.text.osSlabAllocatorDestroy,"ax",%progbits
 545              		.align	1
 546              		.global	osSlabAllocatorDestroy
 547              		.syntax unified
 548              		.thumb
 549              		.thumb_func
 550              		.fpu fpv4-sp-d16
 552              	osSlabAllocatorDestroy:
 553              	.LVL57:
 554              	.LFB295:
 170:C:/Users/²Ü¼ÒºÀ/.iotlink/sdk/IoT_LINK/iot_link/os/liteos/base/mem/common\los_slab.c **** 
 171:C:/Users/²Ü¼ÒºÀ/.iotlink/sdk/IoT_LINK/iot_link/os/liteos/base/mem/common\los_slab.c **** 
 172:C:/Users/²Ü¼ÒºÀ/.iotlink/sdk/IoT_LINK/iot_link/os/liteos/base/mem/common\los_slab.c **** VOID osSlabAllocatorDestroy(VOID *pPool, OS_SLAB_ALLOCATOR *pstAllocator)
 173:C:/Users/²Ü¼ÒºÀ/.iotlink/sdk/IoT_LINK/iot_link/os/liteos/base/mem/common\los_slab.c **** {
 555              		.loc 1 173 1 is_stmt 1 view -0
 556              		.cfi_startproc
 557              		@ args = 0, pretend = 0, frame = 0
 558              		@ frame_needed = 0, uses_anonymous_args = 0
 559              		@ link register save eliminated.
 174:C:/Users/²Ü¼ÒºÀ/.iotlink/sdk/IoT_LINK/iot_link/os/liteos/base/mem/common\los_slab.c ****     (VOID)osHeapFree(pPool, pstAllocator);
 560              		.loc 1 174 5 view .LVU164
 561              		.loc 1 174 11 is_stmt 0 view .LVU165
 562 0000 FFF7FEBF 		b	osHeapFree
 563              	.LVL58:
 564              		.loc 1 174 11 view .LVU166
 565              		.cfi_endproc
 566              	.LFE295:
 568              		.section	.text.osSlabAllocatorAlloc,"ax",%progbits
 569              		.align	1
 570              		.global	osSlabAllocatorAlloc
 571              		.syntax unified
 572              		.thumb
 573              		.thumb_func
 574              		.fpu fpv4-sp-d16
 576              	osSlabAllocatorAlloc:
 577              	.LVL59:
 578              	.LFB296:
 175:C:/Users/²Ü¼ÒºÀ/.iotlink/sdk/IoT_LINK/iot_link/os/liteos/base/mem/common\los_slab.c **** }
 176:C:/Users/²Ü¼ÒºÀ/.iotlink/sdk/IoT_LINK/iot_link/os/liteos/base/mem/common\los_slab.c **** 
 177:C:/Users/²Ü¼ÒºÀ/.iotlink/sdk/IoT_LINK/iot_link/os/liteos/base/mem/common\los_slab.c **** VOID* osSlabAllocatorAlloc(OS_SLAB_ALLOCATOR *pstAllocator)
 178:C:/Users/²Ü¼ÒºÀ/.iotlink/sdk/IoT_LINK/iot_link/os/liteos/base/mem/common\los_slab.c **** {
 579              		.loc 1 178 1 is_stmt 1 view -0
 580              		.cfi_startproc
 581              		@ args = 0, pretend = 0, frame = 0
 582              		@ frame_needed = 0, uses_anonymous_args = 0
 179:C:/Users/²Ü¼ÒºÀ/.iotlink/sdk/IoT_LINK/iot_link/os/liteos/base/mem/common\los_slab.c ****     INT32 swItemIdx = osAtomicBitsetFindClearAndSet(pstAllocator->bitset);
 583              		.loc 1 179 5 view .LVU168
 178:C:/Users/²Ü¼ÒºÀ/.iotlink/sdk/IoT_LINK/iot_link/os/liteos/base/mem/common\los_slab.c ****     INT32 swItemIdx = osAtomicBitsetFindClearAndSet(pstAllocator->bitset);
 584              		.loc 1 178 1 is_stmt 0 view .LVU169
ARM GAS  C:\Users\²Ü¼ÒºÀ\AppData\Local\Temp\ccXR3g3j.s 			page 15


 585 0000 10B5     		push	{r4, lr}
 586              	.LCFI4:
 587              		.cfi_def_cfa_offset 8
 588              		.cfi_offset 4, -8
 589              		.cfi_offset 14, -4
 178:C:/Users/²Ü¼ÒºÀ/.iotlink/sdk/IoT_LINK/iot_link/os/liteos/base/mem/common\los_slab.c ****     INT32 swItemIdx = osAtomicBitsetFindClearAndSet(pstAllocator->bitset);
 590              		.loc 1 178 1 view .LVU170
 591 0002 0446     		mov	r4, r0
 592              		.loc 1 179 23 view .LVU171
 593 0004 8068     		ldr	r0, [r0, #8]
 594              	.LVL60:
 595              		.loc 1 179 23 view .LVU172
 596 0006 FFF7FEFF 		bl	osAtomicBitsetFindClearAndSet
 597              	.LVL61:
 180:C:/Users/²Ü¼ÒºÀ/.iotlink/sdk/IoT_LINK/iot_link/os/liteos/base/mem/common\los_slab.c ****     if (swItemIdx < 0)
 598              		.loc 1 180 5 is_stmt 1 view .LVU173
 599              		.loc 1 180 8 is_stmt 0 view .LVU174
 600 000a 031E     		subs	r3, r0, #0
 181:C:/Users/²Ü¼ÒºÀ/.iotlink/sdk/IoT_LINK/iot_link/os/liteos/base/mem/common\los_slab.c ****         return NULL;
 182:C:/Users/²Ü¼ÒºÀ/.iotlink/sdk/IoT_LINK/iot_link/os/liteos/base/mem/common\los_slab.c **** 
 183:C:/Users/²Ü¼ÒºÀ/.iotlink/sdk/IoT_LINK/iot_link/os/liteos/base/mem/common\los_slab.c ****     return pstAllocator->ucDataChunks + pstAllocator->uwItemSz * swItemIdx;
 601              		.loc 1 183 5 is_stmt 1 view .LVU175
 602              		.loc 1 183 39 is_stmt 0 view .LVU176
 603 000c AABF     		itet	ge
 604 000e D4E90020 		ldrdge	r2, r0, [r4]
 605              	.LVL62:
 181:C:/Users/²Ü¼ÒºÀ/.iotlink/sdk/IoT_LINK/iot_link/os/liteos/base/mem/common\los_slab.c ****         return NULL;
 606              		.loc 1 181 16 view .LVU177
 607 0012 0020     		movlt	r0, #0
 608              		.loc 1 183 39 view .LVU178
 609 0014 02FB0300 		mlage	r0, r2, r3, r0
 184:C:/Users/²Ü¼ÒºÀ/.iotlink/sdk/IoT_LINK/iot_link/os/liteos/base/mem/common\los_slab.c **** }
 610              		.loc 1 184 1 view .LVU179
 611 0018 10BD     		pop	{r4, pc}
 612              		.loc 1 184 1 view .LVU180
 613              		.cfi_endproc
 614              	.LFE296:
 616              		.section	.text.osSlabAllocatorFree,"ax",%progbits
 617              		.align	1
 618              		.global	osSlabAllocatorFree
 619              		.syntax unified
 620              		.thumb
 621              		.thumb_func
 622              		.fpu fpv4-sp-d16
 624              	osSlabAllocatorFree:
 625              	.LVL63:
 626              	.LFB297:
 185:C:/Users/²Ü¼ÒºÀ/.iotlink/sdk/IoT_LINK/iot_link/os/liteos/base/mem/common\los_slab.c **** 
 186:C:/Users/²Ü¼ÒºÀ/.iotlink/sdk/IoT_LINK/iot_link/os/liteos/base/mem/common\los_slab.c **** BOOL osSlabAllocatorFree(OS_SLAB_ALLOCATOR *pstAllocator, VOID* ptrP)
 187:C:/Users/²Ü¼ÒºÀ/.iotlink/sdk/IoT_LINK/iot_link/os/liteos/base/mem/common\los_slab.c **** {
 627              		.loc 1 187 1 is_stmt 1 view -0
 628              		.cfi_startproc
 629              		@ args = 0, pretend = 0, frame = 0
 630              		@ frame_needed = 0, uses_anonymous_args = 0
 188:C:/Users/²Ü¼ÒºÀ/.iotlink/sdk/IoT_LINK/iot_link/os/liteos/base/mem/common\los_slab.c ****     UINT8 *ptr = (UINT8*)ptrP;
 631              		.loc 1 188 5 view .LVU182
 189:C:/Users/²Ü¼ÒºÀ/.iotlink/sdk/IoT_LINK/iot_link/os/liteos/base/mem/common\los_slab.c ****     UINT32 uwItemOffset = ptr - pstAllocator->ucDataChunks;
ARM GAS  C:\Users\²Ü¼ÒºÀ\AppData\Local\Temp\ccXR3g3j.s 			page 16


 632              		.loc 1 189 5 view .LVU183
 187:C:/Users/²Ü¼ÒºÀ/.iotlink/sdk/IoT_LINK/iot_link/os/liteos/base/mem/common\los_slab.c ****     UINT8 *ptr = (UINT8*)ptrP;
 633              		.loc 1 187 1 is_stmt 0 view .LVU184
 634 0000 0246     		mov	r2, r0
 635              		.loc 1 189 31 view .LVU185
 636 0002 4068     		ldr	r0, [r0, #4]
 637              	.LVL64:
 638              		.loc 1 189 31 view .LVU186
 639 0004 091A     		subs	r1, r1, r0
 640              	.LVL65:
 190:C:/Users/²Ü¼ÒºÀ/.iotlink/sdk/IoT_LINK/iot_link/os/liteos/base/mem/common\los_slab.c ****     UINT32 uwItemIdx = uwItemOffset / pstAllocator->uwItemSz;
 641              		.loc 1 190 5 is_stmt 1 view .LVU187
 642              		.loc 1 190 51 is_stmt 0 view .LVU188
 643 0006 1068     		ldr	r0, [r2]
 644              	.LVL66:
 191:C:/Users/²Ü¼ÒºÀ/.iotlink/sdk/IoT_LINK/iot_link/os/liteos/base/mem/common\los_slab.c **** 
 192:C:/Users/²Ü¼ÒºÀ/.iotlink/sdk/IoT_LINK/iot_link/os/liteos/base/mem/common\los_slab.c ****     //check for invalid inputs
 193:C:/Users/²Ü¼ÒºÀ/.iotlink/sdk/IoT_LINK/iot_link/os/liteos/base/mem/common\los_slab.c ****     if ((uwItemOffset % pstAllocator->uwItemSz) || (uwItemIdx >= osAtomicBitsetGetNumBits(pstAlloca
 645              		.loc 1 193 5 is_stmt 1 view .LVU189
 187:C:/Users/²Ü¼ÒºÀ/.iotlink/sdk/IoT_LINK/iot_link/os/liteos/base/mem/common\los_slab.c ****     UINT8 *ptr = (UINT8*)ptrP;
 646              		.loc 1 187 1 is_stmt 0 view .LVU190
 647 0008 10B5     		push	{r4, lr}
 648              	.LCFI5:
 649              		.cfi_def_cfa_offset 8
 650              		.cfi_offset 4, -8
 651              		.cfi_offset 14, -4
 652              		.loc 1 193 23 view .LVU191
 653 000a B1FBF0F4 		udiv	r4, r1, r0
 654              	.LVL67:
 655              		.loc 1 193 23 view .LVU192
 656 000e 00FB1410 		mls	r0, r0, r4, r1
 657              		.loc 1 193 8 view .LVU193
 658 0012 70B9     		cbnz	r0, .L38
 659              		.loc 1 193 103 discriminator 1 view .LVU194
 660 0014 9268     		ldr	r2, [r2, #8]
 661              	.LVL68:
 662              	.LBB16:
 663              	.LBI16:
  51:C:/Users/²Ü¼ÒºÀ/.iotlink/sdk/IoT_LINK/iot_link/os/liteos/base/mem/common\los_slab.c **** {
 664              		.loc 1 51 15 is_stmt 1 discriminator 1 view .LVU195
 665              	.LBB17:
  53:C:/Users/²Ü¼ÒºÀ/.iotlink/sdk/IoT_LINK/iot_link/os/liteos/base/mem/common\los_slab.c **** }
 666              		.loc 1 53 5 discriminator 1 view .LVU196
  53:C:/Users/²Ü¼ÒºÀ/.iotlink/sdk/IoT_LINK/iot_link/os/liteos/base/mem/common\los_slab.c **** }
 667              		.loc 1 53 5 is_stmt 0 discriminator 1 view .LVU197
 668              	.LBE17:
 669              	.LBE16:
 670              		.loc 1 193 49 discriminator 1 view .LVU198
 671 0016 1368     		ldr	r3, [r2]
 672 0018 9C42     		cmp	r4, r3
 673 001a 09D2     		bcs	.L36
 674              		.loc 1 193 118 discriminator 2 view .LVU199
 675 001c 2146     		mov	r1, r4
 676              	.LVL69:
 677              		.loc 1 193 118 discriminator 2 view .LVU200
 678 001e 1046     		mov	r0, r2
 679 0020 FFF7FEFF 		bl	osAtomicBitsetGetBit
ARM GAS  C:\Users\²Ü¼ÒºÀ\AppData\Local\Temp\ccXR3g3j.s 			page 17


 680              	.LVL70:
 681              		.loc 1 193 114 discriminator 2 view .LVU201
 682 0024 20B1     		cbz	r0, .L36
 194:C:/Users/²Ü¼ÒºÀ/.iotlink/sdk/IoT_LINK/iot_link/os/liteos/base/mem/common\los_slab.c ****         return FALSE;
 195:C:/Users/²Ü¼ÒºÀ/.iotlink/sdk/IoT_LINK/iot_link/os/liteos/base/mem/common\los_slab.c **** 
 196:C:/Users/²Ü¼ÒºÀ/.iotlink/sdk/IoT_LINK/iot_link/os/liteos/base/mem/common\los_slab.c ****     osAtomicBitsetClearBit(pstAllocator->bitset, uwItemIdx);
 683              		.loc 1 196 5 is_stmt 1 view .LVU202
 684 0026 1046     		mov	r0, r2
 685 0028 2146     		mov	r1, r4
 686 002a FFF7FEFF 		bl	osAtomicBitsetClearBit
 687              	.LVL71:
 197:C:/Users/²Ü¼ÒºÀ/.iotlink/sdk/IoT_LINK/iot_link/os/liteos/base/mem/common\los_slab.c ****     return TRUE;
 688              		.loc 1 197 5 view .LVU203
 689              		.loc 1 197 12 is_stmt 0 view .LVU204
 690 002e 0120     		movs	r0, #1
 691              	.L36:
 198:C:/Users/²Ü¼ÒºÀ/.iotlink/sdk/IoT_LINK/iot_link/os/liteos/base/mem/common\los_slab.c **** }
 692              		.loc 1 198 1 view .LVU205
 693 0030 10BD     		pop	{r4, pc}
 694              	.LVL72:
 695              	.L38:
 194:C:/Users/²Ü¼ÒºÀ/.iotlink/sdk/IoT_LINK/iot_link/os/liteos/base/mem/common\los_slab.c ****         return FALSE;
 696              		.loc 1 194 16 view .LVU206
 697 0032 0020     		movs	r0, #0
 698 0034 FCE7     		b	.L36
 699              		.cfi_endproc
 700              	.LFE297:
 702              		.section	.text.osSlabAllocatorGetNth,"ax",%progbits
 703              		.align	1
 704              		.global	osSlabAllocatorGetNth
 705              		.syntax unified
 706              		.thumb
 707              		.thumb_func
 708              		.fpu fpv4-sp-d16
 710              	osSlabAllocatorGetNth:
 711              	.LVL73:
 712              	.LFB298:
 199:C:/Users/²Ü¼ÒºÀ/.iotlink/sdk/IoT_LINK/iot_link/os/liteos/base/mem/common\los_slab.c **** 
 200:C:/Users/²Ü¼ÒºÀ/.iotlink/sdk/IoT_LINK/iot_link/os/liteos/base/mem/common\los_slab.c **** VOID* osSlabAllocatorGetNth(OS_SLAB_ALLOCATOR *pstAllocator, UINT32 uwIdx)
 201:C:/Users/²Ü¼ÒºÀ/.iotlink/sdk/IoT_LINK/iot_link/os/liteos/base/mem/common\los_slab.c **** {
 713              		.loc 1 201 1 is_stmt 1 view -0
 714              		.cfi_startproc
 715              		@ args = 0, pretend = 0, frame = 0
 716              		@ frame_needed = 0, uses_anonymous_args = 0
 202:C:/Users/²Ü¼ÒºÀ/.iotlink/sdk/IoT_LINK/iot_link/os/liteos/base/mem/common\los_slab.c ****     if (!osAtomicBitsetGetBit(pstAllocator->bitset, uwIdx))
 717              		.loc 1 202 5 view .LVU208
 201:C:/Users/²Ü¼ÒºÀ/.iotlink/sdk/IoT_LINK/iot_link/os/liteos/base/mem/common\los_slab.c ****     if (!osAtomicBitsetGetBit(pstAllocator->bitset, uwIdx))
 718              		.loc 1 201 1 is_stmt 0 view .LVU209
 719 0000 10B5     		push	{r4, lr}
 720              	.LCFI6:
 721              		.cfi_def_cfa_offset 8
 722              		.cfi_offset 4, -8
 723              		.cfi_offset 14, -4
 201:C:/Users/²Ü¼ÒºÀ/.iotlink/sdk/IoT_LINK/iot_link/os/liteos/base/mem/common\los_slab.c ****     if (!osAtomicBitsetGetBit(pstAllocator->bitset, uwIdx))
 724              		.loc 1 201 1 view .LVU210
 725 0002 0246     		mov	r2, r0
 726              		.loc 1 202 10 view .LVU211
ARM GAS  C:\Users\²Ü¼ÒºÀ\AppData\Local\Temp\ccXR3g3j.s 			page 18


 727 0004 8068     		ldr	r0, [r0, #8]
 728              	.LVL74:
 201:C:/Users/²Ü¼ÒºÀ/.iotlink/sdk/IoT_LINK/iot_link/os/liteos/base/mem/common\los_slab.c ****     if (!osAtomicBitsetGetBit(pstAllocator->bitset, uwIdx))
 729              		.loc 1 201 1 view .LVU212
 730 0006 0C46     		mov	r4, r1
 731              		.loc 1 202 10 view .LVU213
 732 0008 FFF7FEFF 		bl	osAtomicBitsetGetBit
 733              	.LVL75:
 734              		.loc 1 202 8 view .LVU214
 735 000c 18B1     		cbz	r0, .L42
 203:C:/Users/²Ü¼ÒºÀ/.iotlink/sdk/IoT_LINK/iot_link/os/liteos/base/mem/common\los_slab.c ****         return NULL;
 204:C:/Users/²Ü¼ÒºÀ/.iotlink/sdk/IoT_LINK/iot_link/os/liteos/base/mem/common\los_slab.c **** 
 205:C:/Users/²Ü¼ÒºÀ/.iotlink/sdk/IoT_LINK/iot_link/os/liteos/base/mem/common\los_slab.c ****     return pstAllocator->ucDataChunks + pstAllocator->uwItemSz * uwIdx;
 736              		.loc 1 205 5 is_stmt 1 view .LVU215
 737              		.loc 1 205 39 is_stmt 0 view .LVU216
 738 000e D2E90030 		ldrd	r3, r0, [r2]
 739 0012 03FB0400 		mla	r0, r3, r4, r0
 740              	.L42:
 206:C:/Users/²Ü¼ÒºÀ/.iotlink/sdk/IoT_LINK/iot_link/os/liteos/base/mem/common\los_slab.c **** }
 741              		.loc 1 206 1 view .LVU217
 742 0016 10BD     		pop	{r4, pc}
 743              		.loc 1 206 1 view .LVU218
 744              		.cfi_endproc
 745              	.LFE298:
 747              		.section	.text.osSlabAllocatorGetIdxP,"ax",%progbits
 748              		.align	1
 749              		.global	osSlabAllocatorGetIdxP
 750              		.syntax unified
 751              		.thumb
 752              		.thumb_func
 753              		.fpu fpv4-sp-d16
 755              	osSlabAllocatorGetIdxP:
 756              	.LVL76:
 757              	.LFB299:
 207:C:/Users/²Ü¼ÒºÀ/.iotlink/sdk/IoT_LINK/iot_link/os/liteos/base/mem/common\los_slab.c **** 
 208:C:/Users/²Ü¼ÒºÀ/.iotlink/sdk/IoT_LINK/iot_link/os/liteos/base/mem/common\los_slab.c **** VOID* osSlabAllocatorGetIdxP(OS_SLAB_ALLOCATOR *pstAllocator, UINT32 uwIdx)
 209:C:/Users/²Ü¼ÒºÀ/.iotlink/sdk/IoT_LINK/iot_link/os/liteos/base/mem/common\los_slab.c **** {
 758              		.loc 1 209 1 is_stmt 1 view -0
 759              		.cfi_startproc
 760              		@ args = 0, pretend = 0, frame = 0
 761              		@ frame_needed = 0, uses_anonymous_args = 0
 762              		@ link register save eliminated.
 210:C:/Users/²Ü¼ÒºÀ/.iotlink/sdk/IoT_LINK/iot_link/os/liteos/base/mem/common\los_slab.c ****     return pstAllocator->ucDataChunks + pstAllocator->uwItemSz * uwIdx;
 763              		.loc 1 210 5 view .LVU220
 764              		.loc 1 210 39 is_stmt 0 view .LVU221
 765 0000 D0E90020 		ldrd	r2, r0, [r0]
 766              	.LVL77:
 211:C:/Users/²Ü¼ÒºÀ/.iotlink/sdk/IoT_LINK/iot_link/os/liteos/base/mem/common\los_slab.c **** }
 767              		.loc 1 211 1 view .LVU222
 768 0004 02FB0100 		mla	r0, r2, r1, r0
 769 0008 7047     		bx	lr
 770              		.cfi_endproc
 771              	.LFE299:
 773              		.section	.text.osSlabAllocatorGetIndex,"ax",%progbits
 774              		.align	1
 775              		.global	osSlabAllocatorGetIndex
 776              		.syntax unified
ARM GAS  C:\Users\²Ü¼ÒºÀ\AppData\Local\Temp\ccXR3g3j.s 			page 19


 777              		.thumb
 778              		.thumb_func
 779              		.fpu fpv4-sp-d16
 781              	osSlabAllocatorGetIndex:
 782              	.LVL78:
 783              	.LFB300:
 212:C:/Users/²Ü¼ÒºÀ/.iotlink/sdk/IoT_LINK/iot_link/os/liteos/base/mem/common\los_slab.c **** 
 213:C:/Users/²Ü¼ÒºÀ/.iotlink/sdk/IoT_LINK/iot_link/os/liteos/base/mem/common\los_slab.c **** UINT32 osSlabAllocatorGetIndex(OS_SLAB_ALLOCATOR *pstAllocator, VOID* ptrP)
 214:C:/Users/²Ü¼ÒºÀ/.iotlink/sdk/IoT_LINK/iot_link/os/liteos/base/mem/common\los_slab.c **** {
 784              		.loc 1 214 1 is_stmt 1 view -0
 785              		.cfi_startproc
 786              		@ args = 0, pretend = 0, frame = 0
 787              		@ frame_needed = 0, uses_anonymous_args = 0
 215:C:/Users/²Ü¼ÒºÀ/.iotlink/sdk/IoT_LINK/iot_link/os/liteos/base/mem/common\los_slab.c ****     UINT8 *ptr = (UINT8*)ptrP;
 788              		.loc 1 215 5 view .LVU224
 216:C:/Users/²Ü¼ÒºÀ/.iotlink/sdk/IoT_LINK/iot_link/os/liteos/base/mem/common\los_slab.c ****     UINT32 uwItemOffset = ptr - pstAllocator->ucDataChunks;
 789              		.loc 1 216 5 view .LVU225
 214:C:/Users/²Ü¼ÒºÀ/.iotlink/sdk/IoT_LINK/iot_link/os/liteos/base/mem/common\los_slab.c ****     UINT8 *ptr = (UINT8*)ptrP;
 790              		.loc 1 214 1 is_stmt 0 view .LVU226
 791 0000 08B5     		push	{r3, lr}
 792              	.LCFI7:
 793              		.cfi_def_cfa_offset 8
 794              		.cfi_offset 3, -8
 795              		.cfi_offset 14, -4
 796              		.loc 1 216 31 view .LVU227
 797 0002 4368     		ldr	r3, [r0, #4]
 798 0004 C91A     		subs	r1, r1, r3
 799              	.LVL79:
 217:C:/Users/²Ü¼ÒºÀ/.iotlink/sdk/IoT_LINK/iot_link/os/liteos/base/mem/common\los_slab.c ****     UINT32 uwItemIdx = uwItemOffset / pstAllocator->uwItemSz;
 800              		.loc 1 217 5 is_stmt 1 view .LVU228
 801              		.loc 1 217 51 is_stmt 0 view .LVU229
 802 0006 0368     		ldr	r3, [r0]
 803              		.loc 1 217 12 view .LVU230
 804 0008 B1FBF3F2 		udiv	r2, r1, r3
 805              	.LVL80:
 218:C:/Users/²Ü¼ÒºÀ/.iotlink/sdk/IoT_LINK/iot_link/os/liteos/base/mem/common\los_slab.c **** 
 219:C:/Users/²Ü¼ÒºÀ/.iotlink/sdk/IoT_LINK/iot_link/os/liteos/base/mem/common\los_slab.c ****     if ((uwItemOffset % pstAllocator->uwItemSz) || (uwItemIdx >= osAtomicBitsetGetNumBits(pstAlloca
 806              		.loc 1 219 5 is_stmt 1 view .LVU231
 807              		.loc 1 219 23 is_stmt 0 view .LVU232
 808 000c 03FB1213 		mls	r3, r3, r2, r1
 809              		.loc 1 219 8 view .LVU233
 810 0010 63B9     		cbnz	r3, .L49
 811              		.loc 1 219 103 discriminator 1 view .LVU234
 812 0012 8068     		ldr	r0, [r0, #8]
 813              	.LVL81:
 814              	.LBB18:
 815              	.LBI18:
  51:C:/Users/²Ü¼ÒºÀ/.iotlink/sdk/IoT_LINK/iot_link/os/liteos/base/mem/common\los_slab.c **** {
 816              		.loc 1 51 15 is_stmt 1 discriminator 1 view .LVU235
 817              	.LBB19:
  53:C:/Users/²Ü¼ÒºÀ/.iotlink/sdk/IoT_LINK/iot_link/os/liteos/base/mem/common\los_slab.c **** }
 818              		.loc 1 53 5 discriminator 1 view .LVU236
  53:C:/Users/²Ü¼ÒºÀ/.iotlink/sdk/IoT_LINK/iot_link/os/liteos/base/mem/common\los_slab.c **** }
 819              		.loc 1 53 5 is_stmt 0 discriminator 1 view .LVU237
 820              	.LBE19:
 821              	.LBE18:
 822              		.loc 1 219 49 discriminator 1 view .LVU238
ARM GAS  C:\Users\²Ü¼ÒºÀ\AppData\Local\Temp\ccXR3g3j.s 			page 20


 823 0014 0368     		ldr	r3, [r0]
 824 0016 9A42     		cmp	r2, r3
 825 0018 08D2     		bcs	.L49
 826              		.loc 1 219 118 discriminator 2 view .LVU239
 827 001a 1146     		mov	r1, r2
 828              	.LVL82:
 829              		.loc 1 219 118 discriminator 2 view .LVU240
 830 001c FFF7FEFF 		bl	osAtomicBitsetGetBit
 831              	.LVL83:
 832              		.loc 1 219 114 discriminator 2 view .LVU241
 833 0020 0028     		cmp	r0, #0
 220:C:/Users/²Ü¼ÒºÀ/.iotlink/sdk/IoT_LINK/iot_link/os/liteos/base/mem/common\los_slab.c ****         return (UINT32)(-1);
 834              		.loc 1 220 16 discriminator 2 view .LVU242
 835 0022 08BF     		it	eq
 836 0024 4FF0FF32 		moveq	r2, #-1
 837              	.LVL84:
 838              	.L46:
 221:C:/Users/²Ü¼ÒºÀ/.iotlink/sdk/IoT_LINK/iot_link/os/liteos/base/mem/common\los_slab.c **** 
 222:C:/Users/²Ü¼ÒºÀ/.iotlink/sdk/IoT_LINK/iot_link/os/liteos/base/mem/common\los_slab.c ****     return uwItemIdx;
 223:C:/Users/²Ü¼ÒºÀ/.iotlink/sdk/IoT_LINK/iot_link/os/liteos/base/mem/common\los_slab.c **** }
 839              		.loc 1 223 1 view .LVU243
 840 0028 1046     		mov	r0, r2
 841 002a 08BD     		pop	{r3, pc}
 842              	.LVL85:
 843              	.L49:
 220:C:/Users/²Ü¼ÒºÀ/.iotlink/sdk/IoT_LINK/iot_link/os/liteos/base/mem/common\los_slab.c ****         return (UINT32)(-1);
 844              		.loc 1 220 16 view .LVU244
 845 002c 4FF0FF32 		mov	r2, #-1
 846              	.LVL86:
 220:C:/Users/²Ü¼ÒºÀ/.iotlink/sdk/IoT_LINK/iot_link/os/liteos/base/mem/common\los_slab.c ****         return (UINT32)(-1);
 847              		.loc 1 220 16 view .LVU245
 848 0030 FAE7     		b	.L46
 849              		.cfi_endproc
 850              	.LFE300:
 852              		.section	.text.osSlabAllocatorGetNumItems,"ax",%progbits
 853              		.align	1
 854              		.global	osSlabAllocatorGetNumItems
 855              		.syntax unified
 856              		.thumb
 857              		.thumb_func
 858              		.fpu fpv4-sp-d16
 860              	osSlabAllocatorGetNumItems:
 861              	.LVL87:
 862              	.LFB301:
 224:C:/Users/²Ü¼ÒºÀ/.iotlink/sdk/IoT_LINK/iot_link/os/liteos/base/mem/common\los_slab.c **** 
 225:C:/Users/²Ü¼ÒºÀ/.iotlink/sdk/IoT_LINK/iot_link/os/liteos/base/mem/common\los_slab.c **** UINT32 osSlabAllocatorGetNumItems(OS_SLAB_ALLOCATOR *pstAllocator)
 226:C:/Users/²Ü¼ÒºÀ/.iotlink/sdk/IoT_LINK/iot_link/os/liteos/base/mem/common\los_slab.c **** {
 863              		.loc 1 226 1 is_stmt 1 view -0
 864              		.cfi_startproc
 865              		@ args = 0, pretend = 0, frame = 0
 866              		@ frame_needed = 0, uses_anonymous_args = 0
 867              		@ link register save eliminated.
 227:C:/Users/²Ü¼ÒºÀ/.iotlink/sdk/IoT_LINK/iot_link/os/liteos/base/mem/common\los_slab.c ****     return osAtomicBitsetGetNumBits(pstAllocator->bitset);
 868              		.loc 1 227 5 view .LVU247
 869              	.LBB20:
 870              	.LBI20:
  51:C:/Users/²Ü¼ÒºÀ/.iotlink/sdk/IoT_LINK/iot_link/os/liteos/base/mem/common\los_slab.c **** {
ARM GAS  C:\Users\²Ü¼ÒºÀ\AppData\Local\Temp\ccXR3g3j.s 			page 21


 871              		.loc 1 51 15 view .LVU248
 872              	.LBB21:
  53:C:/Users/²Ü¼ÒºÀ/.iotlink/sdk/IoT_LINK/iot_link/os/liteos/base/mem/common\los_slab.c **** }
 873              		.loc 1 53 5 view .LVU249
  53:C:/Users/²Ü¼ÒºÀ/.iotlink/sdk/IoT_LINK/iot_link/os/liteos/base/mem/common\los_slab.c **** }
 874              		.loc 1 53 18 is_stmt 0 view .LVU250
 875 0000 8368     		ldr	r3, [r0, #8]
 876              	.LBE21:
 877              	.LBE20:
 228:C:/Users/²Ü¼ÒºÀ/.iotlink/sdk/IoT_LINK/iot_link/os/liteos/base/mem/common\los_slab.c **** }
 878              		.loc 1 228 1 view .LVU251
 879 0002 1868     		ldr	r0, [r3]
 880              	.LVL88:
 881              		.loc 1 228 1 view .LVU252
 882 0004 7047     		bx	lr
 883              		.cfi_endproc
 884              	.LFE301:
 886              		.section	.text.osSlabAllocatorEmpty,"ax",%progbits
 887              		.align	1
 888              		.global	osSlabAllocatorEmpty
 889              		.syntax unified
 890              		.thumb
 891              		.thumb_func
 892              		.fpu fpv4-sp-d16
 894              	osSlabAllocatorEmpty:
 895              	.LVL89:
 896              	.LFB302:
 229:C:/Users/²Ü¼ÒºÀ/.iotlink/sdk/IoT_LINK/iot_link/os/liteos/base/mem/common\los_slab.c **** 
 230:C:/Users/²Ü¼ÒºÀ/.iotlink/sdk/IoT_LINK/iot_link/os/liteos/base/mem/common\los_slab.c **** BOOL osSlabAllocatorEmpty(OS_SLAB_ALLOCATOR *pstAllocator)
 231:C:/Users/²Ü¼ÒºÀ/.iotlink/sdk/IoT_LINK/iot_link/os/liteos/base/mem/common\los_slab.c **** {
 897              		.loc 1 231 1 is_stmt 1 view -0
 898              		.cfi_startproc
 899              		@ args = 0, pretend = 0, frame = 0
 900              		@ frame_needed = 0, uses_anonymous_args = 0
 901              		@ link register save eliminated.
 232:C:/Users/²Ü¼ÒºÀ/.iotlink/sdk/IoT_LINK/iot_link/os/liteos/base/mem/common\los_slab.c ****     return osAtomicBitsetEmpty(pstAllocator->bitset);
 902              		.loc 1 232 5 view .LVU254
 903              		.loc 1 232 12 is_stmt 0 view .LVU255
 904 0000 8068     		ldr	r0, [r0, #8]
 905              	.LVL90:
 906              		.loc 1 232 12 view .LVU256
 907 0002 FFF7FEBF 		b	osAtomicBitsetEmpty
 908              	.LVL91:
 909              		.cfi_endproc
 910              	.LFE302:
 912              		.section	.text.osSlabAllocatorGetUsedItemCnt,"ax",%progbits
 913              		.align	1
 914              		.global	osSlabAllocatorGetUsedItemCnt
 915              		.syntax unified
 916              		.thumb
 917              		.thumb_func
 918              		.fpu fpv4-sp-d16
 920              	osSlabAllocatorGetUsedItemCnt:
 921              	.LVL92:
 922              	.LFB303:
 233:C:/Users/²Ü¼ÒºÀ/.iotlink/sdk/IoT_LINK/iot_link/os/liteos/base/mem/common\los_slab.c **** }
 234:C:/Users/²Ü¼ÒºÀ/.iotlink/sdk/IoT_LINK/iot_link/os/liteos/base/mem/common\los_slab.c **** 
ARM GAS  C:\Users\²Ü¼ÒºÀ\AppData\Local\Temp\ccXR3g3j.s 			page 22


 235:C:/Users/²Ü¼ÒºÀ/.iotlink/sdk/IoT_LINK/iot_link/os/liteos/base/mem/common\los_slab.c **** UINT32 osSlabAllocatorGetUsedItemCnt(OS_SLAB_ALLOCATOR *pstAllocator)
 236:C:/Users/²Ü¼ÒºÀ/.iotlink/sdk/IoT_LINK/iot_link/os/liteos/base/mem/common\los_slab.c **** {
 923              		.loc 1 236 1 is_stmt 1 view -0
 924              		.cfi_startproc
 925              		@ args = 0, pretend = 0, frame = 0
 926              		@ frame_needed = 0, uses_anonymous_args = 0
 237:C:/Users/²Ü¼ÒºÀ/.iotlink/sdk/IoT_LINK/iot_link/os/liteos/base/mem/common\los_slab.c ****     UINT32 uwUsed, uwIdx;
 927              		.loc 1 237 5 view .LVU258
 238:C:/Users/²Ü¼ÒºÀ/.iotlink/sdk/IoT_LINK/iot_link/os/liteos/base/mem/common\los_slab.c ****     struct AtomicBitset *p_bitset = pstAllocator->bitset;
 928              		.loc 1 238 5 view .LVU259
 236:C:/Users/²Ü¼ÒºÀ/.iotlink/sdk/IoT_LINK/iot_link/os/liteos/base/mem/common\los_slab.c ****     UINT32 uwUsed, uwIdx;
 929              		.loc 1 236 1 is_stmt 0 view .LVU260
 930 0000 70B5     		push	{r4, r5, r6, lr}
 931              	.LCFI8:
 932              		.cfi_def_cfa_offset 16
 933              		.cfi_offset 4, -16
 934              		.cfi_offset 5, -12
 935              		.cfi_offset 6, -8
 936              		.cfi_offset 14, -4
 937              		.loc 1 238 26 view .LVU261
 938 0002 8568     		ldr	r5, [r0, #8]
 939              	.LVL93:
 239:C:/Users/²Ü¼ÒºÀ/.iotlink/sdk/IoT_LINK/iot_link/os/liteos/base/mem/common\los_slab.c ****     for (uwUsed = 0, uwIdx = 0; uwIdx < p_bitset->numBits; uwIdx++)
 940              		.loc 1 239 5 is_stmt 1 view .LVU262
 941              		.loc 1 239 28 is_stmt 0 view .LVU263
 942 0004 0022     		movs	r2, #0
 943              		.loc 1 239 49 view .LVU264
 944 0006 2E68     		ldr	r6, [r5]
 945              		.loc 1 239 17 view .LVU265
 946 0008 1446     		mov	r4, r2
 947              	.LVL94:
 948              	.L54:
 949              		.loc 1 239 33 is_stmt 1 discriminator 1 view .LVU266
 950              		.loc 1 239 5 is_stmt 0 discriminator 1 view .LVU267
 951 000a 9642     		cmp	r6, r2
 952 000c 01D1     		bne	.L56
 240:C:/Users/²Ü¼ÒºÀ/.iotlink/sdk/IoT_LINK/iot_link/os/liteos/base/mem/common\los_slab.c ****     {
 241:C:/Users/²Ü¼ÒºÀ/.iotlink/sdk/IoT_LINK/iot_link/os/liteos/base/mem/common\los_slab.c ****         if (osAtomicBitsetGetBit(p_bitset, uwIdx))
 242:C:/Users/²Ü¼ÒºÀ/.iotlink/sdk/IoT_LINK/iot_link/os/liteos/base/mem/common\los_slab.c ****         {
 243:C:/Users/²Ü¼ÒºÀ/.iotlink/sdk/IoT_LINK/iot_link/os/liteos/base/mem/common\los_slab.c ****             uwUsed ++;
 244:C:/Users/²Ü¼ÒºÀ/.iotlink/sdk/IoT_LINK/iot_link/os/liteos/base/mem/common\los_slab.c ****         }
 245:C:/Users/²Ü¼ÒºÀ/.iotlink/sdk/IoT_LINK/iot_link/os/liteos/base/mem/common\los_slab.c ****     }
 246:C:/Users/²Ü¼ÒºÀ/.iotlink/sdk/IoT_LINK/iot_link/os/liteos/base/mem/common\los_slab.c ****     return uwUsed;
 953              		.loc 1 246 5 is_stmt 1 view .LVU268
 247:C:/Users/²Ü¼ÒºÀ/.iotlink/sdk/IoT_LINK/iot_link/os/liteos/base/mem/common\los_slab.c **** }
 954              		.loc 1 247 1 is_stmt 0 view .LVU269
 955 000e 2046     		mov	r0, r4
 956 0010 70BD     		pop	{r4, r5, r6, pc}
 957              	.LVL95:
 958              	.L56:
 241:C:/Users/²Ü¼ÒºÀ/.iotlink/sdk/IoT_LINK/iot_link/os/liteos/base/mem/common\los_slab.c ****         {
 959              		.loc 1 241 9 is_stmt 1 view .LVU270
 241:C:/Users/²Ü¼ÒºÀ/.iotlink/sdk/IoT_LINK/iot_link/os/liteos/base/mem/common\los_slab.c ****         {
 960              		.loc 1 241 13 is_stmt 0 view .LVU271
 961 0012 1146     		mov	r1, r2
 962 0014 2846     		mov	r0, r5
 963 0016 FFF7FEFF 		bl	osAtomicBitsetGetBit
ARM GAS  C:\Users\²Ü¼ÒºÀ\AppData\Local\Temp\ccXR3g3j.s 			page 23


 964              	.LVL96:
 241:C:/Users/²Ü¼ÒºÀ/.iotlink/sdk/IoT_LINK/iot_link/os/liteos/base/mem/common\los_slab.c ****         {
 965              		.loc 1 241 12 view .LVU272
 966 001a 00B1     		cbz	r0, .L55
 243:C:/Users/²Ü¼ÒºÀ/.iotlink/sdk/IoT_LINK/iot_link/os/liteos/base/mem/common\los_slab.c ****         }
 967              		.loc 1 243 13 is_stmt 1 view .LVU273
 243:C:/Users/²Ü¼ÒºÀ/.iotlink/sdk/IoT_LINK/iot_link/os/liteos/base/mem/common\los_slab.c ****         }
 968              		.loc 1 243 20 is_stmt 0 view .LVU274
 969 001c 0134     		adds	r4, r4, #1
 970              	.LVL97:
 971              	.L55:
 239:C:/Users/²Ü¼ÒºÀ/.iotlink/sdk/IoT_LINK/iot_link/os/liteos/base/mem/common\los_slab.c ****     {
 972              		.loc 1 239 60 is_stmt 1 discriminator 2 view .LVU275
 239:C:/Users/²Ü¼ÒºÀ/.iotlink/sdk/IoT_LINK/iot_link/os/liteos/base/mem/common\los_slab.c ****     {
 973              		.loc 1 239 65 is_stmt 0 discriminator 2 view .LVU276
 974 001e 0132     		adds	r2, r2, #1
 975              	.LVL98:
 239:C:/Users/²Ü¼ÒºÀ/.iotlink/sdk/IoT_LINK/iot_link/os/liteos/base/mem/common\los_slab.c ****     {
 976              		.loc 1 239 65 discriminator 2 view .LVU277
 977 0020 F3E7     		b	.L54
 978              		.cfi_endproc
 979              	.LFE303:
 981              		.section	.text.osSlabAllocatorGetSlabInfo,"ax",%progbits
 982              		.align	1
 983              		.global	osSlabAllocatorGetSlabInfo
 984              		.syntax unified
 985              		.thumb
 986              		.thumb_func
 987              		.fpu fpv4-sp-d16
 989              	osSlabAllocatorGetSlabInfo:
 990              	.LVL99:
 991              	.LFB304:
 248:C:/Users/²Ü¼ÒºÀ/.iotlink/sdk/IoT_LINK/iot_link/os/liteos/base/mem/common\los_slab.c **** 
 249:C:/Users/²Ü¼ÒºÀ/.iotlink/sdk/IoT_LINK/iot_link/os/liteos/base/mem/common\los_slab.c **** VOID osSlabAllocatorGetSlabInfo(OS_SLAB_ALLOCATOR *pstAllocator, UINT32 *puwItemSz, UINT32 *puwItem
 250:C:/Users/²Ü¼ÒºÀ/.iotlink/sdk/IoT_LINK/iot_link/os/liteos/base/mem/common\los_slab.c **** {
 992              		.loc 1 250 1 is_stmt 1 view -0
 993              		.cfi_startproc
 994              		@ args = 0, pretend = 0, frame = 0
 995              		@ frame_needed = 0, uses_anonymous_args = 0
 251:C:/Users/²Ü¼ÒºÀ/.iotlink/sdk/IoT_LINK/iot_link/os/liteos/base/mem/common\los_slab.c ****     *puwItemSz = pstAllocator->uwItemSz;
 996              		.loc 1 251 5 view .LVU279
 250:C:/Users/²Ü¼ÒºÀ/.iotlink/sdk/IoT_LINK/iot_link/os/liteos/base/mem/common\los_slab.c ****     *puwItemSz = pstAllocator->uwItemSz;
 997              		.loc 1 250 1 is_stmt 0 view .LVU280
 998 0000 38B5     		push	{r3, r4, r5, lr}
 999              	.LCFI9:
 1000              		.cfi_def_cfa_offset 16
 1001              		.cfi_offset 3, -16
 1002              		.cfi_offset 4, -12
 1003              		.cfi_offset 5, -8
 1004              		.cfi_offset 14, -4
 250:C:/Users/²Ü¼ÒºÀ/.iotlink/sdk/IoT_LINK/iot_link/os/liteos/base/mem/common\los_slab.c ****     *puwItemSz = pstAllocator->uwItemSz;
 1005              		.loc 1 250 1 view .LVU281
 1006 0002 1D46     		mov	r5, r3
 1007              		.loc 1 251 30 view .LVU282
 1008 0004 0368     		ldr	r3, [r0]
 1009              	.LVL100:
 1010              		.loc 1 251 16 view .LVU283
ARM GAS  C:\Users\²Ü¼ÒºÀ\AppData\Local\Temp\ccXR3g3j.s 			page 24


 1011 0006 0B60     		str	r3, [r1]
 252:C:/Users/²Ü¼ÒºÀ/.iotlink/sdk/IoT_LINK/iot_link/os/liteos/base/mem/common\los_slab.c ****     *puwItemCnt = osAtomicBitsetGetNumBits(pstAllocator->bitset);
 1012              		.loc 1 252 5 is_stmt 1 view .LVU284
 1013              	.LVL101:
 1014              	.LBB22:
 1015              	.LBI22:
  51:C:/Users/²Ü¼ÒºÀ/.iotlink/sdk/IoT_LINK/iot_link/os/liteos/base/mem/common\los_slab.c **** {
 1016              		.loc 1 51 15 view .LVU285
 1017              	.LBB23:
  53:C:/Users/²Ü¼ÒºÀ/.iotlink/sdk/IoT_LINK/iot_link/os/liteos/base/mem/common\los_slab.c **** }
 1018              		.loc 1 53 5 view .LVU286
  53:C:/Users/²Ü¼ÒºÀ/.iotlink/sdk/IoT_LINK/iot_link/os/liteos/base/mem/common\los_slab.c **** }
 1019              		.loc 1 53 18 is_stmt 0 view .LVU287
 1020 0008 8368     		ldr	r3, [r0, #8]
 1021 000a 1B68     		ldr	r3, [r3]
 1022              	.LVL102:
  53:C:/Users/²Ü¼ÒºÀ/.iotlink/sdk/IoT_LINK/iot_link/os/liteos/base/mem/common\los_slab.c **** }
 1023              		.loc 1 53 18 view .LVU288
 1024              	.LBE23:
 1025              	.LBE22:
 1026              		.loc 1 252 17 view .LVU289
 1027 000c 1360     		str	r3, [r2]
 253:C:/Users/²Ü¼ÒºÀ/.iotlink/sdk/IoT_LINK/iot_link/os/liteos/base/mem/common\los_slab.c ****     *puwCurUsage = osSlabAllocatorGetUsedItemCnt(pstAllocator);
 1028              		.loc 1 253 5 is_stmt 1 view .LVU290
 1029              		.loc 1 253 20 is_stmt 0 view .LVU291
 1030 000e FFF7FEFF 		bl	osSlabAllocatorGetUsedItemCnt
 1031              	.LVL103:
 1032              		.loc 1 253 18 view .LVU292
 1033 0012 2860     		str	r0, [r5]
 254:C:/Users/²Ü¼ÒºÀ/.iotlink/sdk/IoT_LINK/iot_link/os/liteos/base/mem/common\los_slab.c **** }
 1034              		.loc 1 254 1 view .LVU293
 1035 0014 38BD     		pop	{r3, r4, r5, pc}
 1036              		.loc 1 254 1 view .LVU294
 1037              		.cfi_endproc
 1038              	.LFE304:
 1040              		.section	.text.osSlabAllocatorCheck,"ax",%progbits
 1041              		.align	1
 1042              		.global	osSlabAllocatorCheck
 1043              		.syntax unified
 1044              		.thumb
 1045              		.thumb_func
 1046              		.fpu fpv4-sp-d16
 1048              	osSlabAllocatorCheck:
 1049              	.LVL104:
 1050              	.LFB305:
 255:C:/Users/²Ü¼ÒºÀ/.iotlink/sdk/IoT_LINK/iot_link/os/liteos/base/mem/common\los_slab.c **** 
 256:C:/Users/²Ü¼ÒºÀ/.iotlink/sdk/IoT_LINK/iot_link/os/liteos/base/mem/common\los_slab.c **** BOOL osSlabAllocatorCheck(OS_SLAB_ALLOCATOR *pstAllocator, VOID* ptrP)
 257:C:/Users/²Ü¼ÒºÀ/.iotlink/sdk/IoT_LINK/iot_link/os/liteos/base/mem/common\los_slab.c **** {
 1051              		.loc 1 257 1 is_stmt 1 view -0
 1052              		.cfi_startproc
 1053              		@ args = 0, pretend = 0, frame = 0
 1054              		@ frame_needed = 0, uses_anonymous_args = 0
 258:C:/Users/²Ü¼ÒºÀ/.iotlink/sdk/IoT_LINK/iot_link/os/liteos/base/mem/common\los_slab.c ****     UINT8 *ptr = (UINT8*)ptrP;
 1055              		.loc 1 258 5 view .LVU296
 259:C:/Users/²Ü¼ÒºÀ/.iotlink/sdk/IoT_LINK/iot_link/os/liteos/base/mem/common\los_slab.c ****     UINT32 uwItemOffset = ptr - pstAllocator->ucDataChunks;
 1056              		.loc 1 259 5 view .LVU297
 257:C:/Users/²Ü¼ÒºÀ/.iotlink/sdk/IoT_LINK/iot_link/os/liteos/base/mem/common\los_slab.c ****     UINT8 *ptr = (UINT8*)ptrP;
ARM GAS  C:\Users\²Ü¼ÒºÀ\AppData\Local\Temp\ccXR3g3j.s 			page 25


 1057              		.loc 1 257 1 is_stmt 0 view .LVU298
 1058 0000 08B5     		push	{r3, lr}
 1059              	.LCFI10:
 1060              		.cfi_def_cfa_offset 8
 1061              		.cfi_offset 3, -8
 1062              		.cfi_offset 14, -4
 1063              		.loc 1 259 31 view .LVU299
 1064 0002 4368     		ldr	r3, [r0, #4]
 1065 0004 CA1A     		subs	r2, r1, r3
 1066              	.LVL105:
 260:C:/Users/²Ü¼ÒºÀ/.iotlink/sdk/IoT_LINK/iot_link/os/liteos/base/mem/common\los_slab.c ****     UINT32 uwItemIdx = uwItemOffset / pstAllocator->uwItemSz;
 1067              		.loc 1 260 5 is_stmt 1 view .LVU300
 1068              		.loc 1 260 51 is_stmt 0 view .LVU301
 1069 0006 0368     		ldr	r3, [r0]
 1070              	.LVL106:
 261:C:/Users/²Ü¼ÒºÀ/.iotlink/sdk/IoT_LINK/iot_link/os/liteos/base/mem/common\los_slab.c **** 
 262:C:/Users/²Ü¼ÒºÀ/.iotlink/sdk/IoT_LINK/iot_link/os/liteos/base/mem/common\los_slab.c ****     //check for invalid inputs
 263:C:/Users/²Ü¼ÒºÀ/.iotlink/sdk/IoT_LINK/iot_link/os/liteos/base/mem/common\los_slab.c **** 
 264:C:/Users/²Ü¼ÒºÀ/.iotlink/sdk/IoT_LINK/iot_link/os/liteos/base/mem/common\los_slab.c ****     if ((uwItemOffset % pstAllocator->uwItemSz) || (uwItemIdx >= osAtomicBitsetGetNumBits(pstAlloca
 1071              		.loc 1 264 5 is_stmt 1 view .LVU302
 1072              		.loc 1 264 23 is_stmt 0 view .LVU303
 1073 0008 B2FBF3F1 		udiv	r1, r2, r3
 1074              	.LVL107:
 1075              		.loc 1 264 23 view .LVU304
 1076 000c 03FB1123 		mls	r3, r3, r1, r2
 1077              		.loc 1 264 8 view .LVU305
 1078 0010 53B9     		cbnz	r3, .L63
 1079              		.loc 1 264 103 discriminator 1 view .LVU306
 1080 0012 8068     		ldr	r0, [r0, #8]
 1081              	.LVL108:
 1082              	.LBB24:
 1083              	.LBI24:
  51:C:/Users/²Ü¼ÒºÀ/.iotlink/sdk/IoT_LINK/iot_link/os/liteos/base/mem/common\los_slab.c **** {
 1084              		.loc 1 51 15 is_stmt 1 discriminator 1 view .LVU307
 1085              	.LBB25:
  53:C:/Users/²Ü¼ÒºÀ/.iotlink/sdk/IoT_LINK/iot_link/os/liteos/base/mem/common\los_slab.c **** }
 1086              		.loc 1 53 5 discriminator 1 view .LVU308
  53:C:/Users/²Ü¼ÒºÀ/.iotlink/sdk/IoT_LINK/iot_link/os/liteos/base/mem/common\los_slab.c **** }
 1087              		.loc 1 53 5 is_stmt 0 discriminator 1 view .LVU309
 1088              	.LBE25:
 1089              	.LBE24:
 1090              		.loc 1 264 49 discriminator 1 view .LVU310
 1091 0014 0268     		ldr	r2, [r0]
 1092              	.LVL109:
 1093              		.loc 1 264 49 discriminator 1 view .LVU311
 1094 0016 9142     		cmp	r1, r2
 1095 0018 04D2     		bcs	.L61
 265:C:/Users/²Ü¼ÒºÀ/.iotlink/sdk/IoT_LINK/iot_link/os/liteos/base/mem/common\los_slab.c ****         || !osAtomicBitsetGetBit(pstAllocator->bitset, uwItemIdx))
 1096              		.loc 1 265 13 view .LVU312
 1097 001a FFF7FEFF 		bl	osAtomicBitsetGetBit
 1098              	.LVL110:
 1099              		.loc 1 265 9 view .LVU313
 1100 001e 031E     		subs	r3, r0, #0
 1101 0020 18BF     		it	ne
 1102 0022 0123     		movne	r3, #1
 1103              	.L61:
 266:C:/Users/²Ü¼ÒºÀ/.iotlink/sdk/IoT_LINK/iot_link/os/liteos/base/mem/common\los_slab.c ****         return FALSE;
ARM GAS  C:\Users\²Ü¼ÒºÀ\AppData\Local\Temp\ccXR3g3j.s 			page 26


 267:C:/Users/²Ü¼ÒºÀ/.iotlink/sdk/IoT_LINK/iot_link/os/liteos/base/mem/common\los_slab.c **** 
 268:C:/Users/²Ü¼ÒºÀ/.iotlink/sdk/IoT_LINK/iot_link/os/liteos/base/mem/common\los_slab.c ****     return TRUE;
 269:C:/Users/²Ü¼ÒºÀ/.iotlink/sdk/IoT_LINK/iot_link/os/liteos/base/mem/common\los_slab.c **** }
 1104              		.loc 1 269 1 view .LVU314
 1105 0024 1846     		mov	r0, r3
 1106 0026 08BD     		pop	{r3, pc}
 1107              	.LVL111:
 1108              	.L63:
 266:C:/Users/²Ü¼ÒºÀ/.iotlink/sdk/IoT_LINK/iot_link/os/liteos/base/mem/common\los_slab.c ****         return FALSE;
 1109              		.loc 1 266 16 view .LVU315
 1110 0028 0023     		movs	r3, #0
 1111 002a FBE7     		b	.L61
 1112              		.cfi_endproc
 1113              	.LFE305:
 1115              		.text
 1116              	.Letext0:
 1117              		.file 2 "c:\\users\\\262\334\274\322\272\300\\.iotlink\\tools\\gcc-arm-none-eabi\\arm-none-eabi\\i
 1118              		.file 3 "c:\\users\\\262\334\274\322\272\300\\.iotlink\\tools\\gcc-arm-none-eabi\\arm-none-eabi\\i
 1119              		.file 4 "c:\\users\\\262\334\274\322\272\300\\.iotlink\\tools\\gcc-arm-none-eabi\\arm-none-eabi\\i
 1120              		.file 5 "c:\\users\\\262\334\274\322\272\300\\.iotlink\\tools\\gcc-arm-none-eabi\\lib\\gcc\\arm-no
 1121              		.file 6 "c:\\users\\\262\334\274\322\272\300\\.iotlink\\tools\\gcc-arm-none-eabi\\arm-none-eabi\\i
 1122              		.file 7 "c:\\users\\\262\334\274\322\272\300\\.iotlink\\tools\\gcc-arm-none-eabi\\arm-none-eabi\\i
 1123              		.file 8 "C:/Users/\262\334\274\322\272\300/.iotlink/sdk/IoT_LINK/iot_link/os/liteos/include/los_ty
 1124              		.file 9 "C:/Users/\262\334\274\322\272\300/.iotlink/sdk/IoT_LINK/iot_link/os/liteos/arch/arm/commo
 1125              		.file 10 "d:/liteos/code/WIFI2/Inc/system_stm32l4xx.h"
 1126              		.file 11 "C:/Users/\262\334\274\322\272\300/.iotlink/sdk/IoT_LINK/iot_link/os/liteos/arch/arm/arm-
 1127              		.file 12 "C:/Users/\262\334\274\322\272\300/.iotlink/sdk/IoT_LINK/iot_link/os/liteos/include/los_c
 1128              		.file 13 "C:/Users/\262\334\274\322\272\300/.iotlink/sdk/IoT_LINK/iot_link/os/liteos/include/los_e
 1129              		.file 14 "C:/Users/\262\334\274\322\272\300/.iotlink/sdk/IoT_LINK/iot_link/os/liteos/base/include/
 1130              		.file 15 "<built-in>"
ARM GAS  C:\Users\²Ü¼ÒºÀ\AppData\Local\Temp\ccXR3g3j.s 			page 27

