ARM GAS  C:\Users\²Ü¼ÒºÀ\AppData\Local\Temp\ccZfpNTa.s 			page 1


   1              		.cpu cortex-m4
   2              		.eabi_attribute 27, 1
   3              		.eabi_attribute 28, 1
   4              		.eabi_attribute 20, 1
   5              		.eabi_attribute 21, 1
   6              		.eabi_attribute 23, 3
   7              		.eabi_attribute 24, 1
   8              		.eabi_attribute 25, 1
   9              		.eabi_attribute 26, 1
  10              		.eabi_attribute 30, 4
  11              		.eabi_attribute 34, 1
  12              		.eabi_attribute 18, 4
  13              		.file	"dwt.c"
  14              		.text
  15              	.Ltext0:
  16              		.cfi_sections	.debug_frame
  17              		.section	.text.dwt_delay_init,"ax",%progbits
  18              		.align	1
  19              		.global	dwt_delay_init
  20              		.arch armv7e-m
  21              		.syntax unified
  22              		.thumb
  23              		.thumb_func
  24              		.fpu fpv4-sp-d16
  26              	dwt_delay_init:
  27              	.LVL0:
  28              	.LFB287:
  29              		.file 1 "d:/liteos/code/WIFI2/Src/dwt.c"
   1:d:/liteos/code/WIFI2/Src\dwt.c **** /*----------------------------------------------------------------------------
   2:d:/liteos/code/WIFI2/Src\dwt.c ****  * Copyright (c) <2016-2018>, <Huawei Technologies Co., Ltd>
   3:d:/liteos/code/WIFI2/Src\dwt.c ****  * All rights reserved.
   4:d:/liteos/code/WIFI2/Src\dwt.c ****  * Redistribution and use in source and binary forms, with or without modification,
   5:d:/liteos/code/WIFI2/Src\dwt.c ****  * are permitted provided that the following conditions are met:
   6:d:/liteos/code/WIFI2/Src\dwt.c ****  * 1. Redistributions of source code must retain the above copyright notice, this list of
   7:d:/liteos/code/WIFI2/Src\dwt.c ****  * conditions and the following disclaimer.
   8:d:/liteos/code/WIFI2/Src\dwt.c ****  * 2. Redistributions in binary form must reproduce the above copyright notice, this list
   9:d:/liteos/code/WIFI2/Src\dwt.c ****  * of conditions and the following disclaimer in the documentation and/or other materials
  10:d:/liteos/code/WIFI2/Src\dwt.c ****  * provided with the distribution.
  11:d:/liteos/code/WIFI2/Src\dwt.c ****  * 3. Neither the name of the copyright holder nor the names of its contributors may be used
  12:d:/liteos/code/WIFI2/Src\dwt.c ****  * to endorse or promote products derived from this software without specific prior written
  13:d:/liteos/code/WIFI2/Src\dwt.c ****  * permission.
  14:d:/liteos/code/WIFI2/Src\dwt.c ****  * THIS SOFTWARE IS PROVIDED BY THE COPYRIGHT HOLDERS AND CONTRIBUTORS
  15:d:/liteos/code/WIFI2/Src\dwt.c ****  * "AS IS" AND ANY EXPRESS OR IMPLIED WARRANTIES, INCLUDING, BUT NOT LIMITED TO,
  16:d:/liteos/code/WIFI2/Src\dwt.c ****  * THE IMPLIED WARRANTIES OF MERCHANTABILITY AND FITNESS FOR A PARTICULAR
  17:d:/liteos/code/WIFI2/Src\dwt.c ****  * PURPOSE ARE DISCLAIMED. IN NO EVENT SHALL THE COPYRIGHT HOLDER OR
  18:d:/liteos/code/WIFI2/Src\dwt.c ****  * CONTRIBUTORS BE LIABLE FOR ANY DIRECT, INDIRECT, INCIDENTAL, SPECIAL,
  19:d:/liteos/code/WIFI2/Src\dwt.c ****  * EXEMPLARY, OR CONSEQUENTIAL DAMAGES (INCLUDING, BUT NOT LIMITED TO,
  20:d:/liteos/code/WIFI2/Src\dwt.c ****  * PROCUREMENT OF SUBSTITUTE GOODS OR SERVICES; LOSS OF USE, DATA, OR PROFITS;
  21:d:/liteos/code/WIFI2/Src\dwt.c ****  * OR BUSINESS INTERRUPTION) HOWEVER CAUSED AND ON ANY THEORY OF LIABILITY,
  22:d:/liteos/code/WIFI2/Src\dwt.c ****  * WHETHER IN CONTRACT, STRICT LIABILITY, OR TORT (INCLUDING NEGLIGENCE OR
  23:d:/liteos/code/WIFI2/Src\dwt.c ****  * OTHERWISE) ARISING IN ANY WAY OUT OF THE USE OF THIS SOFTWARE, EVEN IF
  24:d:/liteos/code/WIFI2/Src\dwt.c ****  * ADVISED OF THE POSSIBILITY OF SUCH DAMAGE.
  25:d:/liteos/code/WIFI2/Src\dwt.c ****  *---------------------------------------------------------------------------*/
  26:d:/liteos/code/WIFI2/Src\dwt.c **** /*----------------------------------------------------------------------------
  27:d:/liteos/code/WIFI2/Src\dwt.c ****  * Notice of Export Control Law
  28:d:/liteos/code/WIFI2/Src\dwt.c ****  * ===============================================
  29:d:/liteos/code/WIFI2/Src\dwt.c ****  * Huawei LiteOS may be subject to applicable export control laws and regulations, which might
ARM GAS  C:\Users\²Ü¼ÒºÀ\AppData\Local\Temp\ccZfpNTa.s 			page 2


  30:d:/liteos/code/WIFI2/Src\dwt.c ****  * include those applicable to Huawei LiteOS of U.S. and the country in which you are located.
  31:d:/liteos/code/WIFI2/Src\dwt.c ****  * Import, export and usage of Huawei LiteOS in any manner by you shall be in compliance with such
  32:d:/liteos/code/WIFI2/Src\dwt.c ****  * applicable export control laws and regulations.
  33:d:/liteos/code/WIFI2/Src\dwt.c ****  *---------------------------------------------------------------------------*/
  34:d:/liteos/code/WIFI2/Src\dwt.c **** 
  35:d:/liteos/code/WIFI2/Src\dwt.c **** #include "dwt.h"
  36:d:/liteos/code/WIFI2/Src\dwt.c **** 
  37:d:/liteos/code/WIFI2/Src\dwt.c **** static uint32_t cpuclkfeq;
  38:d:/liteos/code/WIFI2/Src\dwt.c **** 
  39:d:/liteos/code/WIFI2/Src\dwt.c **** void dwt_delay_init(uint32_t clk)
  40:d:/liteos/code/WIFI2/Src\dwt.c **** {
  30              		.loc 1 40 1 view -0
  31              		.cfi_startproc
  32              		@ args = 0, pretend = 0, frame = 0
  33              		@ frame_needed = 0, uses_anonymous_args = 0
  34              		@ link register save eliminated.
  41:d:/liteos/code/WIFI2/Src\dwt.c ****     cpuclkfeq = clk;
  35              		.loc 1 41 5 view .LVU1
  36              		.loc 1 41 15 is_stmt 0 view .LVU2
  37 0000 064B     		ldr	r3, .L2
  42:d:/liteos/code/WIFI2/Src\dwt.c ****     DEM_CR         |=  DEM_CR_TRCENA;
  38              		.loc 1 42 20 view .LVU3
  39 0002 074A     		ldr	r2, .L2+4
  41:d:/liteos/code/WIFI2/Src\dwt.c ****     cpuclkfeq = clk;
  40              		.loc 1 41 15 view .LVU4
  41 0004 1860     		str	r0, [r3]
  42              		.loc 1 42 5 is_stmt 1 view .LVU5
  43              		.loc 1 42 20 is_stmt 0 view .LVU6
  44 0006 1368     		ldr	r3, [r2]
  45 0008 43F08073 		orr	r3, r3, #16777216
  46 000c 1360     		str	r3, [r2]
  43:d:/liteos/code/WIFI2/Src\dwt.c ****     //DWT_CYCCNT      = 0u;
  44:d:/liteos/code/WIFI2/Src\dwt.c ****     DWT_CR         |= DWT_CR_CYCCNTENA;
  47              		.loc 1 44 5 is_stmt 1 view .LVU7
  48              		.loc 1 44 20 is_stmt 0 view .LVU8
  49 000e 054A     		ldr	r2, .L2+8
  50 0010 1368     		ldr	r3, [r2]
  51 0012 43F00103 		orr	r3, r3, #1
  52 0016 1360     		str	r3, [r2]
  45:d:/liteos/code/WIFI2/Src\dwt.c **** }
  53              		.loc 1 45 1 view .LVU9
  54 0018 7047     		bx	lr
  55              	.L3:
  56 001a 00BF     		.align	2
  57              	.L2:
  58 001c 00000000 		.word	.LANCHOR0
  59 0020 FCED00E0 		.word	-536809988
  60 0024 001000E0 		.word	-536866816
  61              		.cfi_endproc
  62              	.LFE287:
  64              		.section	.text.delayus,"ax",%progbits
  65              		.align	1
  66              		.global	delayus
  67              		.syntax unified
  68              		.thumb
  69              		.thumb_func
  70              		.fpu fpv4-sp-d16
ARM GAS  C:\Users\²Ü¼ÒºÀ\AppData\Local\Temp\ccZfpNTa.s 			page 3


  72              	delayus:
  73              	.LVL1:
  74              	.LFB288:
  46:d:/liteos/code/WIFI2/Src\dwt.c **** 
  47:d:/liteos/code/WIFI2/Src\dwt.c **** void delayus(uint32_t usec)
  48:d:/liteos/code/WIFI2/Src\dwt.c **** 
  49:d:/liteos/code/WIFI2/Src\dwt.c **** {
  75              		.loc 1 49 1 is_stmt 1 view -0
  76              		.cfi_startproc
  77              		@ args = 0, pretend = 0, frame = 0
  78              		@ frame_needed = 0, uses_anonymous_args = 0
  50:d:/liteos/code/WIFI2/Src\dwt.c ****     uint32_t startts, endts, ts;
  79              		.loc 1 50 5 view .LVU11
  51:d:/liteos/code/WIFI2/Src\dwt.c ****     UINT32 uwIntSave;
  80              		.loc 1 51 5 view .LVU12
  52:d:/liteos/code/WIFI2/Src\dwt.c ****     startts = DWT_CYCCNT;
  81              		.loc 1 52 5 view .LVU13
  49:d:/liteos/code/WIFI2/Src\dwt.c ****     uint32_t startts, endts, ts;
  82              		.loc 1 49 1 is_stmt 0 view .LVU14
  83 0000 70B5     		push	{r4, r5, r6, lr}
  84              	.LCFI0:
  85              		.cfi_def_cfa_offset 16
  86              		.cfi_offset 4, -16
  87              		.cfi_offset 5, -12
  88              		.cfi_offset 6, -8
  89              		.cfi_offset 14, -4
  90              		.loc 1 52 13 view .LVU15
  91 0002 0E4D     		ldr	r5, .L13
  53:d:/liteos/code/WIFI2/Src\dwt.c **** 
  54:d:/liteos/code/WIFI2/Src\dwt.c ****     ts =  usec * (cpuclkfeq / (1000 * 1000));
  92              		.loc 1 54 29 view .LVU16
  93 0004 0E4B     		ldr	r3, .L13+4
  52:d:/liteos/code/WIFI2/Src\dwt.c **** 
  94              		.loc 1 52 13 view .LVU17
  95 0006 2E68     		ldr	r6, [r5]
  96              	.LVL2:
  97              		.loc 1 54 5 is_stmt 1 view .LVU18
  55:d:/liteos/code/WIFI2/Src\dwt.c ****     endts = startts + ts;
  98              		.loc 1 55 5 view .LVU19
  54:d:/liteos/code/WIFI2/Src\dwt.c ****     endts = startts + ts;
  99              		.loc 1 54 29 is_stmt 0 view .LVU20
 100 0008 1B68     		ldr	r3, [r3]
 101 000a 0E4C     		ldr	r4, .L13+8
 102 000c B3FBF4F3 		udiv	r3, r3, r4
 103              		.loc 1 55 11 view .LVU21
 104 0010 00FB0364 		mla	r4, r0, r3, r6
 105              	.LVL3:
  56:d:/liteos/code/WIFI2/Src\dwt.c ****     uwIntSave = LOS_IntLock();
 106              		.loc 1 56 5 is_stmt 1 view .LVU22
 107              		.loc 1 56 17 is_stmt 0 view .LVU23
 108 0014 FFF7FEFF 		bl	LOS_IntLock
 109              	.LVL4:
  57:d:/liteos/code/WIFI2/Src\dwt.c ****     if(endts > startts)
 110              		.loc 1 57 5 is_stmt 1 view .LVU24
 111              		.loc 1 57 7 is_stmt 0 view .LVU25
 112 0018 A642     		cmp	r6, r4
 113 001a 2B46     		mov	r3, r5
ARM GAS  C:\Users\²Ü¼ÒºÀ\AppData\Local\Temp\ccZfpNTa.s 			page 4


 114 001c 06D2     		bcs	.L5
 115              	.L6:
  58:d:/liteos/code/WIFI2/Src\dwt.c ****     {
  59:d:/liteos/code/WIFI2/Src\dwt.c ****         while(DWT_CYCCNT < endts);
 116              		.loc 1 59 34 is_stmt 1 discriminator 1 view .LVU26
 117              		.loc 1 59 14 discriminator 1 view .LVU27
 118              		.loc 1 59 15 is_stmt 0 discriminator 1 view .LVU28
 119 001e 1A68     		ldr	r2, [r3]
 120              		.loc 1 59 14 discriminator 1 view .LVU29
 121 0020 A242     		cmp	r2, r4
 122 0022 FCD3     		bcc	.L6
 123              	.L7:
  60:d:/liteos/code/WIFI2/Src\dwt.c ****     }
  61:d:/liteos/code/WIFI2/Src\dwt.c ****     else
  62:d:/liteos/code/WIFI2/Src\dwt.c ****     {
  63:d:/liteos/code/WIFI2/Src\dwt.c ****         while(DWT_CYCCNT > endts);
  64:d:/liteos/code/WIFI2/Src\dwt.c ****         while(DWT_CYCCNT < endts);
  65:d:/liteos/code/WIFI2/Src\dwt.c ****     }
  66:d:/liteos/code/WIFI2/Src\dwt.c ****     (VOID)LOS_IntRestore(uwIntSave);
 124              		.loc 1 66 5 is_stmt 1 view .LVU30
  67:d:/liteos/code/WIFI2/Src\dwt.c **** }
 125              		.loc 1 67 1 is_stmt 0 view .LVU31
 126 0024 BDE87040 		pop	{r4, r5, r6, lr}
 127              	.LCFI1:
 128              		.cfi_remember_state
 129              		.cfi_restore 14
 130              		.cfi_restore 6
 131              		.cfi_restore 5
 132              		.cfi_restore 4
 133              		.cfi_def_cfa_offset 0
 134              	.LVL5:
  66:d:/liteos/code/WIFI2/Src\dwt.c **** }
 135              		.loc 1 66 5 view .LVU32
 136 0028 FFF7FEBF 		b	LOS_IntRestore
 137              	.LVL6:
 138              	.L5:
 139              	.LCFI2:
 140              		.cfi_restore_state
  63:d:/liteos/code/WIFI2/Src\dwt.c ****         while(DWT_CYCCNT < endts);
 141              		.loc 1 63 34 is_stmt 1 discriminator 1 view .LVU33
  63:d:/liteos/code/WIFI2/Src\dwt.c ****         while(DWT_CYCCNT < endts);
 142              		.loc 1 63 14 discriminator 1 view .LVU34
  63:d:/liteos/code/WIFI2/Src\dwt.c ****         while(DWT_CYCCNT < endts);
 143              		.loc 1 63 15 is_stmt 0 discriminator 1 view .LVU35
 144 002c 1A68     		ldr	r2, [r3]
  63:d:/liteos/code/WIFI2/Src\dwt.c ****         while(DWT_CYCCNT < endts);
 145              		.loc 1 63 14 discriminator 1 view .LVU36
 146 002e A242     		cmp	r2, r4
 147 0030 FCD8     		bhi	.L5
 148              	.L8:
  64:d:/liteos/code/WIFI2/Src\dwt.c ****     }
 149              		.loc 1 64 34 is_stmt 1 discriminator 1 view .LVU37
  64:d:/liteos/code/WIFI2/Src\dwt.c ****     }
 150              		.loc 1 64 14 discriminator 1 view .LVU38
  64:d:/liteos/code/WIFI2/Src\dwt.c ****     }
 151              		.loc 1 64 15 is_stmt 0 discriminator 1 view .LVU39
 152 0032 1A68     		ldr	r2, [r3]
ARM GAS  C:\Users\²Ü¼ÒºÀ\AppData\Local\Temp\ccZfpNTa.s 			page 5


  64:d:/liteos/code/WIFI2/Src\dwt.c ****     }
 153              		.loc 1 64 14 discriminator 1 view .LVU40
 154 0034 A242     		cmp	r2, r4
 155 0036 FCD3     		bcc	.L8
 156 0038 F4E7     		b	.L7
 157              	.L14:
 158 003a 00BF     		.align	2
 159              	.L13:
 160 003c 041000E0 		.word	-536866812
 161 0040 00000000 		.word	.LANCHOR0
 162 0044 40420F00 		.word	1000000
 163              		.cfi_endproc
 164              	.LFE288:
 166              		.section	.text.delay10ms,"ax",%progbits
 167              		.align	1
 168              		.global	delay10ms
 169              		.syntax unified
 170              		.thumb
 171              		.thumb_func
 172              		.fpu fpv4-sp-d16
 174              	delay10ms:
 175              	.LVL7:
 176              	.LFB289:
  68:d:/liteos/code/WIFI2/Src\dwt.c **** 
  69:d:/liteos/code/WIFI2/Src\dwt.c **** void delay10ms(__IO uint32_t nTime)
  70:d:/liteos/code/WIFI2/Src\dwt.c **** {
 177              		.loc 1 70 1 is_stmt 1 view -0
 178              		.cfi_startproc
 179              		@ args = 0, pretend = 0, frame = 8
 180              		@ frame_needed = 0, uses_anonymous_args = 0
 181              		@ link register save eliminated.
  71:d:/liteos/code/WIFI2/Src\dwt.c ****     delayus(1000 * nTime);
 182              		.loc 1 71 5 view .LVU42
  70:d:/liteos/code/WIFI2/Src\dwt.c ****     delayus(1000 * nTime);
 183              		.loc 1 70 1 is_stmt 0 view .LVU43
 184 0000 82B0     		sub	sp, sp, #8
 185              	.LCFI3:
 186              		.cfi_def_cfa_offset 8
  70:d:/liteos/code/WIFI2/Src\dwt.c ****     delayus(1000 * nTime);
 187              		.loc 1 70 1 view .LVU44
 188 0002 0190     		str	r0, [sp, #4]
 189              		.loc 1 71 5 view .LVU45
 190 0004 019B     		ldr	r3, [sp, #4]
 191 0006 4FF47A70 		mov	r0, #1000
 192              	.LVL8:
 193              		.loc 1 71 5 view .LVU46
 194 000a 5843     		muls	r0, r3, r0
  72:d:/liteos/code/WIFI2/Src\dwt.c **** }
 195              		.loc 1 72 1 view .LVU47
 196 000c 02B0     		add	sp, sp, #8
 197              	.LCFI4:
 198              		.cfi_def_cfa_offset 0
 199              	.LVL9:
 200              		.loc 1 72 1 view .LVU48
 201              		@ sp needed
  71:d:/liteos/code/WIFI2/Src\dwt.c ****     delayus(1000 * nTime);
 202              		.loc 1 71 5 view .LVU49
ARM GAS  C:\Users\²Ü¼ÒºÀ\AppData\Local\Temp\ccZfpNTa.s 			page 6


 203 000e FFF7FEBF 		b	delayus
 204              	.LVL10:
 205              		.cfi_endproc
 206              	.LFE289:
 208              		.section	.bss.cpuclkfeq,"aw",%nobits
 209              		.align	2
 210              		.set	.LANCHOR0,. + 0
 213              	cpuclkfeq:
 214 0000 00000000 		.space	4
 215              		.text
 216              	.Letext0:
 217              		.file 2 "c:\\users\\\262\334\274\322\272\300\\.iotlink\\tools\\gcc-arm-none-eabi\\arm-none-eabi\\i
 218              		.file 3 "c:\\users\\\262\334\274\322\272\300\\.iotlink\\tools\\gcc-arm-none-eabi\\arm-none-eabi\\i
 219              		.file 4 "C:/Users/\262\334\274\322\272\300/.iotlink/sdk/IoT_LINK/iot_link/os/liteos/arch/arm/commo
 220              		.file 5 "d:/liteos/code/WIFI2/Inc/system_stm32l4xx.h"
 221              		.file 6 "c:\\users\\\262\334\274\322\272\300\\.iotlink\\tools\\gcc-arm-none-eabi\\arm-none-eabi\\i
 222              		.file 7 "c:\\users\\\262\334\274\322\272\300\\.iotlink\\tools\\gcc-arm-none-eabi\\arm-none-eabi\\i
 223              		.file 8 "c:\\users\\\262\334\274\322\272\300\\.iotlink\\tools\\gcc-arm-none-eabi\\lib\\gcc\\arm-no
 224              		.file 9 "c:\\users\\\262\334\274\322\272\300\\.iotlink\\tools\\gcc-arm-none-eabi\\arm-none-eabi\\i
 225              		.file 10 "C:/Users/\262\334\274\322\272\300/.iotlink/sdk/IoT_LINK/iot_link/os/liteos/include/los_t
 226              		.file 11 "C:/Users/\262\334\274\322\272\300/.iotlink/sdk/IoT_LINK/iot_link/os/liteos/include/los_c
 227              		.file 12 "C:/Users/\262\334\274\322\272\300/.iotlink/sdk/IoT_LINK/iot_link/os/liteos/include/los_e
 228              		.file 13 "C:/Users/\262\334\274\322\272\300/.iotlink/sdk/IoT_LINK/iot_link/os/liteos/arch/arm/arm-
ARM GAS  C:\Users\²Ü¼ÒºÀ\AppData\Local\Temp\ccZfpNTa.s 			page 7

