ARM GAS  C:\Users\²Ü¼ÒºÀ\AppData\Local\Temp\cc2xoMwd.s 			page 1


   1              		.cpu cortex-m4
   2              		.eabi_attribute 27, 1
   3              		.eabi_attribute 28, 1
   4              		.eabi_attribute 20, 1
   5              		.eabi_attribute 21, 1
   6              		.eabi_attribute 23, 3
   7              		.eabi_attribute 24, 1
   8              		.eabi_attribute 25, 1
   9              		.eabi_attribute 26, 1
  10              		.eabi_attribute 30, 4
  11              		.eabi_attribute 34, 1
  12              		.eabi_attribute 18, 4
  13              		.file	"data.c"
  14              		.text
  15              	.Ltext0:
  16              		.cfi_sections	.debug_frame
  17              		.section	.text.prv_setBuffer,"ax",%progbits
  18              		.align	1
  19              		.arch armv7e-m
  20              		.syntax unified
  21              		.thumb
  22              		.thumb_func
  23              		.fpu fpv4-sp-d16
  25              	prv_setBuffer:
  26              	.LVL0:
  27              	.LFB6:
  28              		.file 1 "C:/Users/\262\334\274\322\272\300/.iotlink/sdk/IoT_LINK/iot_link/network/lwm2m/wakaama_lw
   1:C:/Users/²Ü¼ÒºÀ/.iotlink/sdk/IoT_LINK/iot_link/network/lwm2m/wakaama_lwm2m/wakaama-master/core\data.c **** /*----------------------------------------------------------------------------
   2:C:/Users/²Ü¼ÒºÀ/.iotlink/sdk/IoT_LINK/iot_link/network/lwm2m/wakaama_lwm2m/wakaama-master/core\data.c ****  * Copyright (c) <2016-2018>, <Huawei Technologies Co., Ltd>
   3:C:/Users/²Ü¼ÒºÀ/.iotlink/sdk/IoT_LINK/iot_link/network/lwm2m/wakaama_lwm2m/wakaama-master/core\data.c ****  * All rights reserved.
   4:C:/Users/²Ü¼ÒºÀ/.iotlink/sdk/IoT_LINK/iot_link/network/lwm2m/wakaama_lwm2m/wakaama-master/core\data.c ****  * Redistribution and use in source and binary forms, with or without modification,
   5:C:/Users/²Ü¼ÒºÀ/.iotlink/sdk/IoT_LINK/iot_link/network/lwm2m/wakaama_lwm2m/wakaama-master/core\data.c ****  * are permitted provided that the following conditions are met:
   6:C:/Users/²Ü¼ÒºÀ/.iotlink/sdk/IoT_LINK/iot_link/network/lwm2m/wakaama_lwm2m/wakaama-master/core\data.c ****  * 1. Redistributions of source code must retain the above copyright notice, this list of
   7:C:/Users/²Ü¼ÒºÀ/.iotlink/sdk/IoT_LINK/iot_link/network/lwm2m/wakaama_lwm2m/wakaama-master/core\data.c ****  * conditions and the following disclaimer.
   8:C:/Users/²Ü¼ÒºÀ/.iotlink/sdk/IoT_LINK/iot_link/network/lwm2m/wakaama_lwm2m/wakaama-master/core\data.c ****  * 2. Redistributions in binary form must reproduce the above copyright notice, this list
   9:C:/Users/²Ü¼ÒºÀ/.iotlink/sdk/IoT_LINK/iot_link/network/lwm2m/wakaama_lwm2m/wakaama-master/core\data.c ****  * of conditions and the following disclaimer in the documentation and/or other materials
  10:C:/Users/²Ü¼ÒºÀ/.iotlink/sdk/IoT_LINK/iot_link/network/lwm2m/wakaama_lwm2m/wakaama-master/core\data.c ****  * provided with the distribution.
  11:C:/Users/²Ü¼ÒºÀ/.iotlink/sdk/IoT_LINK/iot_link/network/lwm2m/wakaama_lwm2m/wakaama-master/core\data.c ****  * 3. Neither the name of the copyright holder nor the names of its contributors may be used
  12:C:/Users/²Ü¼ÒºÀ/.iotlink/sdk/IoT_LINK/iot_link/network/lwm2m/wakaama_lwm2m/wakaama-master/core\data.c ****  * to endorse or promote products derived from this software without specific prior written
  13:C:/Users/²Ü¼ÒºÀ/.iotlink/sdk/IoT_LINK/iot_link/network/lwm2m/wakaama_lwm2m/wakaama-master/core\data.c ****  * permission.
  14:C:/Users/²Ü¼ÒºÀ/.iotlink/sdk/IoT_LINK/iot_link/network/lwm2m/wakaama_lwm2m/wakaama-master/core\data.c ****  * THIS SOFTWARE IS PROVIDED BY THE COPYRIGHT HOLDERS AND CONTRIBUTORS
  15:C:/Users/²Ü¼ÒºÀ/.iotlink/sdk/IoT_LINK/iot_link/network/lwm2m/wakaama_lwm2m/wakaama-master/core\data.c ****  * "AS IS" AND ANY EXPRESS OR IMPLIED WARRANTIES, INCLUDING, BUT NOT LIMITED TO,
  16:C:/Users/²Ü¼ÒºÀ/.iotlink/sdk/IoT_LINK/iot_link/network/lwm2m/wakaama_lwm2m/wakaama-master/core\data.c ****  * THE IMPLIED WARRANTIES OF MERCHANTABILITY AND FITNESS FOR A PARTICULAR
  17:C:/Users/²Ü¼ÒºÀ/.iotlink/sdk/IoT_LINK/iot_link/network/lwm2m/wakaama_lwm2m/wakaama-master/core\data.c ****  * PURPOSE ARE DISCLAIMED. IN NO EVENT SHALL THE COPYRIGHT HOLDER OR
  18:C:/Users/²Ü¼ÒºÀ/.iotlink/sdk/IoT_LINK/iot_link/network/lwm2m/wakaama_lwm2m/wakaama-master/core\data.c ****  * CONTRIBUTORS BE LIABLE FOR ANY DIRECT, INDIRECT, INCIDENTAL, SPECIAL,
  19:C:/Users/²Ü¼ÒºÀ/.iotlink/sdk/IoT_LINK/iot_link/network/lwm2m/wakaama_lwm2m/wakaama-master/core\data.c ****  * EXEMPLARY, OR CONSEQUENTIAL DAMAGES (INCLUDING, BUT NOT LIMITED TO,
  20:C:/Users/²Ü¼ÒºÀ/.iotlink/sdk/IoT_LINK/iot_link/network/lwm2m/wakaama_lwm2m/wakaama-master/core\data.c ****  * PROCUREMENT OF SUBSTITUTE GOODS OR SERVICES; LOSS OF USE, DATA, OR PROFITS;
  21:C:/Users/²Ü¼ÒºÀ/.iotlink/sdk/IoT_LINK/iot_link/network/lwm2m/wakaama_lwm2m/wakaama-master/core\data.c ****  * OR BUSINESS INTERRUPTION) HOWEVER CAUSED AND ON ANY THEORY OF LIABILITY,
  22:C:/Users/²Ü¼ÒºÀ/.iotlink/sdk/IoT_LINK/iot_link/network/lwm2m/wakaama_lwm2m/wakaama-master/core\data.c ****  * WHETHER IN CONTRACT, STRICT LIABILITY, OR TORT (INCLUDING NEGLIGENCE OR
  23:C:/Users/²Ü¼ÒºÀ/.iotlink/sdk/IoT_LINK/iot_link/network/lwm2m/wakaama_lwm2m/wakaama-master/core\data.c ****  * OTHERWISE) ARISING IN ANY WAY OUT OF THE USE OF THIS SOFTWARE, EVEN IF
  24:C:/Users/²Ü¼ÒºÀ/.iotlink/sdk/IoT_LINK/iot_link/network/lwm2m/wakaama_lwm2m/wakaama-master/core\data.c ****  * ADVISED OF THE POSSIBILITY OF SUCH DAMAGE.
  25:C:/Users/²Ü¼ÒºÀ/.iotlink/sdk/IoT_LINK/iot_link/network/lwm2m/wakaama_lwm2m/wakaama-master/core\data.c ****  *---------------------------------------------------------------------------*/
  26:C:/Users/²Ü¼ÒºÀ/.iotlink/sdk/IoT_LINK/iot_link/network/lwm2m/wakaama_lwm2m/wakaama-master/core\data.c **** /*----------------------------------------------------------------------------
  27:C:/Users/²Ü¼ÒºÀ/.iotlink/sdk/IoT_LINK/iot_link/network/lwm2m/wakaama_lwm2m/wakaama-master/core\data.c ****  * Notice of Export Control Law
  28:C:/Users/²Ü¼ÒºÀ/.iotlink/sdk/IoT_LINK/iot_link/network/lwm2m/wakaama_lwm2m/wakaama-master/core\data.c ****  * ===============================================
  29:C:/Users/²Ü¼ÒºÀ/.iotlink/sdk/IoT_LINK/iot_link/network/lwm2m/wakaama_lwm2m/wakaama-master/core\data.c ****  * Huawei LiteOS may be subject to applicable export control laws and regulations, which might
  30:C:/Users/²Ü¼ÒºÀ/.iotlink/sdk/IoT_LINK/iot_link/network/lwm2m/wakaama_lwm2m/wakaama-master/core\data.c ****  * include those applicable to Huawei LiteOS of U.S. and the country in which you are located.
ARM GAS  C:\Users\²Ü¼ÒºÀ\AppData\Local\Temp\cc2xoMwd.s 			page 2


  31:C:/Users/²Ü¼ÒºÀ/.iotlink/sdk/IoT_LINK/iot_link/network/lwm2m/wakaama_lwm2m/wakaama-master/core\data.c ****  * Import, export and usage of Huawei LiteOS in any manner by you shall be in compliance with such
  32:C:/Users/²Ü¼ÒºÀ/.iotlink/sdk/IoT_LINK/iot_link/network/lwm2m/wakaama_lwm2m/wakaama-master/core\data.c ****  * applicable export control laws and regulations.
  33:C:/Users/²Ü¼ÒºÀ/.iotlink/sdk/IoT_LINK/iot_link/network/lwm2m/wakaama_lwm2m/wakaama-master/core\data.c ****  *---------------------------------------------------------------------------*/
  34:C:/Users/²Ü¼ÒºÀ/.iotlink/sdk/IoT_LINK/iot_link/network/lwm2m/wakaama_lwm2m/wakaama-master/core\data.c **** 
  35:C:/Users/²Ü¼ÒºÀ/.iotlink/sdk/IoT_LINK/iot_link/network/lwm2m/wakaama_lwm2m/wakaama-master/core\data.c **** /*******************************************************************************
  36:C:/Users/²Ü¼ÒºÀ/.iotlink/sdk/IoT_LINK/iot_link/network/lwm2m/wakaama_lwm2m/wakaama-master/core\data.c **** *
  37:C:/Users/²Ü¼ÒºÀ/.iotlink/sdk/IoT_LINK/iot_link/network/lwm2m/wakaama_lwm2m/wakaama-master/core\data.c **** * Copyright (c) 2013, 2014 Intel Corporation and others.
  38:C:/Users/²Ü¼ÒºÀ/.iotlink/sdk/IoT_LINK/iot_link/network/lwm2m/wakaama_lwm2m/wakaama-master/core\data.c **** * All rights reserved. This program and the accompanying materials
  39:C:/Users/²Ü¼ÒºÀ/.iotlink/sdk/IoT_LINK/iot_link/network/lwm2m/wakaama_lwm2m/wakaama-master/core\data.c **** * are made available under the terms of the Eclipse Public License v1.0
  40:C:/Users/²Ü¼ÒºÀ/.iotlink/sdk/IoT_LINK/iot_link/network/lwm2m/wakaama_lwm2m/wakaama-master/core\data.c **** * and Eclipse Distribution License v1.0 which accompany this distribution.
  41:C:/Users/²Ü¼ÒºÀ/.iotlink/sdk/IoT_LINK/iot_link/network/lwm2m/wakaama_lwm2m/wakaama-master/core\data.c **** *
  42:C:/Users/²Ü¼ÒºÀ/.iotlink/sdk/IoT_LINK/iot_link/network/lwm2m/wakaama_lwm2m/wakaama-master/core\data.c **** * The Eclipse Public License is available at
  43:C:/Users/²Ü¼ÒºÀ/.iotlink/sdk/IoT_LINK/iot_link/network/lwm2m/wakaama_lwm2m/wakaama-master/core\data.c **** *    http://www.eclipse.org/legal/epl-v10.html
  44:C:/Users/²Ü¼ÒºÀ/.iotlink/sdk/IoT_LINK/iot_link/network/lwm2m/wakaama_lwm2m/wakaama-master/core\data.c **** * The Eclipse Distribution License is available at
  45:C:/Users/²Ü¼ÒºÀ/.iotlink/sdk/IoT_LINK/iot_link/network/lwm2m/wakaama_lwm2m/wakaama-master/core\data.c **** *    http://www.eclipse.org/org/documents/edl-v10.php.
  46:C:/Users/²Ü¼ÒºÀ/.iotlink/sdk/IoT_LINK/iot_link/network/lwm2m/wakaama_lwm2m/wakaama-master/core\data.c **** *
  47:C:/Users/²Ü¼ÒºÀ/.iotlink/sdk/IoT_LINK/iot_link/network/lwm2m/wakaama_lwm2m/wakaama-master/core\data.c **** * Contributors:
  48:C:/Users/²Ü¼ÒºÀ/.iotlink/sdk/IoT_LINK/iot_link/network/lwm2m/wakaama_lwm2m/wakaama-master/core\data.c **** *    David Navarro, Intel Corporation - initial API and implementation
  49:C:/Users/²Ü¼ÒºÀ/.iotlink/sdk/IoT_LINK/iot_link/network/lwm2m/wakaama_lwm2m/wakaama-master/core\data.c **** *    Fabien Fleutot - Please refer to git log
  50:C:/Users/²Ü¼ÒºÀ/.iotlink/sdk/IoT_LINK/iot_link/network/lwm2m/wakaama_lwm2m/wakaama-master/core\data.c **** *    Bosch Software Innovations GmbH - Please refer to git log
  51:C:/Users/²Ü¼ÒºÀ/.iotlink/sdk/IoT_LINK/iot_link/network/lwm2m/wakaama_lwm2m/wakaama-master/core\data.c **** *
  52:C:/Users/²Ü¼ÒºÀ/.iotlink/sdk/IoT_LINK/iot_link/network/lwm2m/wakaama_lwm2m/wakaama-master/core\data.c **** *******************************************************************************/
  53:C:/Users/²Ü¼ÒºÀ/.iotlink/sdk/IoT_LINK/iot_link/network/lwm2m/wakaama_lwm2m/wakaama-master/core\data.c **** 
  54:C:/Users/²Ü¼ÒºÀ/.iotlink/sdk/IoT_LINK/iot_link/network/lwm2m/wakaama_lwm2m/wakaama-master/core\data.c **** #include "internals.h"
  55:C:/Users/²Ü¼ÒºÀ/.iotlink/sdk/IoT_LINK/iot_link/network/lwm2m/wakaama_lwm2m/wakaama-master/core\data.c **** #include <float.h>
  56:C:/Users/²Ü¼ÒºÀ/.iotlink/sdk/IoT_LINK/iot_link/network/lwm2m/wakaama_lwm2m/wakaama-master/core\data.c **** 
  57:C:/Users/²Ü¼ÒºÀ/.iotlink/sdk/IoT_LINK/iot_link/network/lwm2m/wakaama_lwm2m/wakaama-master/core\data.c **** #define _PRV_STR_LENGTH 32
  58:C:/Users/²Ü¼ÒºÀ/.iotlink/sdk/IoT_LINK/iot_link/network/lwm2m/wakaama_lwm2m/wakaama-master/core\data.c **** 
  59:C:/Users/²Ü¼ÒºÀ/.iotlink/sdk/IoT_LINK/iot_link/network/lwm2m/wakaama_lwm2m/wakaama-master/core\data.c **** 
  60:C:/Users/²Ü¼ÒºÀ/.iotlink/sdk/IoT_LINK/iot_link/network/lwm2m/wakaama_lwm2m/wakaama-master/core\data.c **** void lwm2m_data_decode_opaque(const lwm2m_data_t *dataP,
  61:C:/Users/²Ü¼ÒºÀ/.iotlink/sdk/IoT_LINK/iot_link/network/lwm2m/wakaama_lwm2m/wakaama-master/core\data.c ****                               int8_t *valueP)
  62:C:/Users/²Ü¼ÒºÀ/.iotlink/sdk/IoT_LINK/iot_link/network/lwm2m/wakaama_lwm2m/wakaama-master/core\data.c **** {
  63:C:/Users/²Ü¼ÒºÀ/.iotlink/sdk/IoT_LINK/iot_link/network/lwm2m/wakaama_lwm2m/wakaama-master/core\data.c ****     memcpy(valueP, dataP->value.asBuffer.buffer, dataP->value.asBuffer.length);
  64:C:/Users/²Ü¼ÒºÀ/.iotlink/sdk/IoT_LINK/iot_link/network/lwm2m/wakaama_lwm2m/wakaama-master/core\data.c **** }
  65:C:/Users/²Ü¼ÒºÀ/.iotlink/sdk/IoT_LINK/iot_link/network/lwm2m/wakaama_lwm2m/wakaama-master/core\data.c **** 
  66:C:/Users/²Ü¼ÒºÀ/.iotlink/sdk/IoT_LINK/iot_link/network/lwm2m/wakaama_lwm2m/wakaama-master/core\data.c **** // dataP array length is assumed to be 1.
  67:C:/Users/²Ü¼ÒºÀ/.iotlink/sdk/IoT_LINK/iot_link/network/lwm2m/wakaama_lwm2m/wakaama-master/core\data.c **** static int prv_textSerialize(lwm2m_data_t *dataP,
  68:C:/Users/²Ü¼ÒºÀ/.iotlink/sdk/IoT_LINK/iot_link/network/lwm2m/wakaama_lwm2m/wakaama-master/core\data.c ****                              uint8_t **bufferP)
  69:C:/Users/²Ü¼ÒºÀ/.iotlink/sdk/IoT_LINK/iot_link/network/lwm2m/wakaama_lwm2m/wakaama-master/core\data.c **** {
  70:C:/Users/²Ü¼ÒºÀ/.iotlink/sdk/IoT_LINK/iot_link/network/lwm2m/wakaama_lwm2m/wakaama-master/core\data.c ****     size_t res;
  71:C:/Users/²Ü¼ÒºÀ/.iotlink/sdk/IoT_LINK/iot_link/network/lwm2m/wakaama_lwm2m/wakaama-master/core\data.c **** 
  72:C:/Users/²Ü¼ÒºÀ/.iotlink/sdk/IoT_LINK/iot_link/network/lwm2m/wakaama_lwm2m/wakaama-master/core\data.c ****     switch (dataP->type)
  73:C:/Users/²Ü¼ÒºÀ/.iotlink/sdk/IoT_LINK/iot_link/network/lwm2m/wakaama_lwm2m/wakaama-master/core\data.c ****     {
  74:C:/Users/²Ü¼ÒºÀ/.iotlink/sdk/IoT_LINK/iot_link/network/lwm2m/wakaama_lwm2m/wakaama-master/core\data.c ****     case LWM2M_TYPE_STRING:
  75:C:/Users/²Ü¼ÒºÀ/.iotlink/sdk/IoT_LINK/iot_link/network/lwm2m/wakaama_lwm2m/wakaama-master/core\data.c ****         *bufferP = (uint8_t *)lwm2m_malloc(dataP->value.asBuffer.length);
  76:C:/Users/²Ü¼ÒºÀ/.iotlink/sdk/IoT_LINK/iot_link/network/lwm2m/wakaama_lwm2m/wakaama-master/core\data.c ****         if (*bufferP == NULL) return 0;
  77:C:/Users/²Ü¼ÒºÀ/.iotlink/sdk/IoT_LINK/iot_link/network/lwm2m/wakaama_lwm2m/wakaama-master/core\data.c ****         memcpy(*bufferP, dataP->value.asBuffer.buffer, dataP->value.asBuffer.length);
  78:C:/Users/²Ü¼ÒºÀ/.iotlink/sdk/IoT_LINK/iot_link/network/lwm2m/wakaama_lwm2m/wakaama-master/core\data.c ****         return (int)dataP->value.asBuffer.length;
  79:C:/Users/²Ü¼ÒºÀ/.iotlink/sdk/IoT_LINK/iot_link/network/lwm2m/wakaama_lwm2m/wakaama-master/core\data.c **** 
  80:C:/Users/²Ü¼ÒºÀ/.iotlink/sdk/IoT_LINK/iot_link/network/lwm2m/wakaama_lwm2m/wakaama-master/core\data.c ****     case LWM2M_TYPE_INTEGER:
  81:C:/Users/²Ü¼ÒºÀ/.iotlink/sdk/IoT_LINK/iot_link/network/lwm2m/wakaama_lwm2m/wakaama-master/core\data.c ****     {
  82:C:/Users/²Ü¼ÒºÀ/.iotlink/sdk/IoT_LINK/iot_link/network/lwm2m/wakaama_lwm2m/wakaama-master/core\data.c ****         uint8_t intString[_PRV_STR_LENGTH];
  83:C:/Users/²Ü¼ÒºÀ/.iotlink/sdk/IoT_LINK/iot_link/network/lwm2m/wakaama_lwm2m/wakaama-master/core\data.c **** 
  84:C:/Users/²Ü¼ÒºÀ/.iotlink/sdk/IoT_LINK/iot_link/network/lwm2m/wakaama_lwm2m/wakaama-master/core\data.c ****         res = utils_intToText(dataP->value.asInteger, intString, _PRV_STR_LENGTH);
  85:C:/Users/²Ü¼ÒºÀ/.iotlink/sdk/IoT_LINK/iot_link/network/lwm2m/wakaama_lwm2m/wakaama-master/core\data.c ****         if (res == 0) return -1;
  86:C:/Users/²Ü¼ÒºÀ/.iotlink/sdk/IoT_LINK/iot_link/network/lwm2m/wakaama_lwm2m/wakaama-master/core\data.c **** 
  87:C:/Users/²Ü¼ÒºÀ/.iotlink/sdk/IoT_LINK/iot_link/network/lwm2m/wakaama_lwm2m/wakaama-master/core\data.c ****         *bufferP = (uint8_t *)lwm2m_malloc(res);
ARM GAS  C:\Users\²Ü¼ÒºÀ\AppData\Local\Temp\cc2xoMwd.s 			page 3


  88:C:/Users/²Ü¼ÒºÀ/.iotlink/sdk/IoT_LINK/iot_link/network/lwm2m/wakaama_lwm2m/wakaama-master/core\data.c ****         if (NULL == *bufferP) return -1;
  89:C:/Users/²Ü¼ÒºÀ/.iotlink/sdk/IoT_LINK/iot_link/network/lwm2m/wakaama_lwm2m/wakaama-master/core\data.c **** 
  90:C:/Users/²Ü¼ÒºÀ/.iotlink/sdk/IoT_LINK/iot_link/network/lwm2m/wakaama_lwm2m/wakaama-master/core\data.c ****         memcpy(*bufferP, intString, res);
  91:C:/Users/²Ü¼ÒºÀ/.iotlink/sdk/IoT_LINK/iot_link/network/lwm2m/wakaama_lwm2m/wakaama-master/core\data.c **** 
  92:C:/Users/²Ü¼ÒºÀ/.iotlink/sdk/IoT_LINK/iot_link/network/lwm2m/wakaama_lwm2m/wakaama-master/core\data.c ****         return (int)res;
  93:C:/Users/²Ü¼ÒºÀ/.iotlink/sdk/IoT_LINK/iot_link/network/lwm2m/wakaama_lwm2m/wakaama-master/core\data.c ****     }
  94:C:/Users/²Ü¼ÒºÀ/.iotlink/sdk/IoT_LINK/iot_link/network/lwm2m/wakaama_lwm2m/wakaama-master/core\data.c **** 
  95:C:/Users/²Ü¼ÒºÀ/.iotlink/sdk/IoT_LINK/iot_link/network/lwm2m/wakaama_lwm2m/wakaama-master/core\data.c ****     case LWM2M_TYPE_FLOAT:
  96:C:/Users/²Ü¼ÒºÀ/.iotlink/sdk/IoT_LINK/iot_link/network/lwm2m/wakaama_lwm2m/wakaama-master/core\data.c ****     {
  97:C:/Users/²Ü¼ÒºÀ/.iotlink/sdk/IoT_LINK/iot_link/network/lwm2m/wakaama_lwm2m/wakaama-master/core\data.c ****         uint8_t floatString[_PRV_STR_LENGTH * 2];
  98:C:/Users/²Ü¼ÒºÀ/.iotlink/sdk/IoT_LINK/iot_link/network/lwm2m/wakaama_lwm2m/wakaama-master/core\data.c **** 
  99:C:/Users/²Ü¼ÒºÀ/.iotlink/sdk/IoT_LINK/iot_link/network/lwm2m/wakaama_lwm2m/wakaama-master/core\data.c ****         res = utils_floatToText(dataP->value.asFloat, floatString, _PRV_STR_LENGTH * 2);
 100:C:/Users/²Ü¼ÒºÀ/.iotlink/sdk/IoT_LINK/iot_link/network/lwm2m/wakaama_lwm2m/wakaama-master/core\data.c ****         if (res == 0) return -1;
 101:C:/Users/²Ü¼ÒºÀ/.iotlink/sdk/IoT_LINK/iot_link/network/lwm2m/wakaama_lwm2m/wakaama-master/core\data.c **** 
 102:C:/Users/²Ü¼ÒºÀ/.iotlink/sdk/IoT_LINK/iot_link/network/lwm2m/wakaama_lwm2m/wakaama-master/core\data.c ****         *bufferP = (uint8_t *)lwm2m_malloc(res);
 103:C:/Users/²Ü¼ÒºÀ/.iotlink/sdk/IoT_LINK/iot_link/network/lwm2m/wakaama_lwm2m/wakaama-master/core\data.c ****         if (NULL == *bufferP) return -1;
 104:C:/Users/²Ü¼ÒºÀ/.iotlink/sdk/IoT_LINK/iot_link/network/lwm2m/wakaama_lwm2m/wakaama-master/core\data.c **** 
 105:C:/Users/²Ü¼ÒºÀ/.iotlink/sdk/IoT_LINK/iot_link/network/lwm2m/wakaama_lwm2m/wakaama-master/core\data.c ****         memcpy(*bufferP, floatString, res);
 106:C:/Users/²Ü¼ÒºÀ/.iotlink/sdk/IoT_LINK/iot_link/network/lwm2m/wakaama_lwm2m/wakaama-master/core\data.c **** 
 107:C:/Users/²Ü¼ÒºÀ/.iotlink/sdk/IoT_LINK/iot_link/network/lwm2m/wakaama_lwm2m/wakaama-master/core\data.c ****         return (int)res;
 108:C:/Users/²Ü¼ÒºÀ/.iotlink/sdk/IoT_LINK/iot_link/network/lwm2m/wakaama_lwm2m/wakaama-master/core\data.c ****     }
 109:C:/Users/²Ü¼ÒºÀ/.iotlink/sdk/IoT_LINK/iot_link/network/lwm2m/wakaama_lwm2m/wakaama-master/core\data.c **** 
 110:C:/Users/²Ü¼ÒºÀ/.iotlink/sdk/IoT_LINK/iot_link/network/lwm2m/wakaama_lwm2m/wakaama-master/core\data.c ****     case LWM2M_TYPE_BOOLEAN:
 111:C:/Users/²Ü¼ÒºÀ/.iotlink/sdk/IoT_LINK/iot_link/network/lwm2m/wakaama_lwm2m/wakaama-master/core\data.c ****         *bufferP = (uint8_t *)lwm2m_malloc(1);
 112:C:/Users/²Ü¼ÒºÀ/.iotlink/sdk/IoT_LINK/iot_link/network/lwm2m/wakaama_lwm2m/wakaama-master/core\data.c ****         if (NULL == *bufferP) return -1;
 113:C:/Users/²Ü¼ÒºÀ/.iotlink/sdk/IoT_LINK/iot_link/network/lwm2m/wakaama_lwm2m/wakaama-master/core\data.c **** 
 114:C:/Users/²Ü¼ÒºÀ/.iotlink/sdk/IoT_LINK/iot_link/network/lwm2m/wakaama_lwm2m/wakaama-master/core\data.c ****         *bufferP[0] = dataP->value.asBoolean ? '1' : '0';
 115:C:/Users/²Ü¼ÒºÀ/.iotlink/sdk/IoT_LINK/iot_link/network/lwm2m/wakaama_lwm2m/wakaama-master/core\data.c **** 
 116:C:/Users/²Ü¼ÒºÀ/.iotlink/sdk/IoT_LINK/iot_link/network/lwm2m/wakaama_lwm2m/wakaama-master/core\data.c ****         return 1;
 117:C:/Users/²Ü¼ÒºÀ/.iotlink/sdk/IoT_LINK/iot_link/network/lwm2m/wakaama_lwm2m/wakaama-master/core\data.c **** 
 118:C:/Users/²Ü¼ÒºÀ/.iotlink/sdk/IoT_LINK/iot_link/network/lwm2m/wakaama_lwm2m/wakaama-master/core\data.c ****     case LWM2M_TYPE_OBJECT_LINK:
 119:C:/Users/²Ü¼ÒºÀ/.iotlink/sdk/IoT_LINK/iot_link/network/lwm2m/wakaama_lwm2m/wakaama-master/core\data.c ****     {
 120:C:/Users/²Ü¼ÒºÀ/.iotlink/sdk/IoT_LINK/iot_link/network/lwm2m/wakaama_lwm2m/wakaama-master/core\data.c ****         char stringBuffer[11];
 121:C:/Users/²Ü¼ÒºÀ/.iotlink/sdk/IoT_LINK/iot_link/network/lwm2m/wakaama_lwm2m/wakaama-master/core\data.c ****         size_t length;
 122:C:/Users/²Ü¼ÒºÀ/.iotlink/sdk/IoT_LINK/iot_link/network/lwm2m/wakaama_lwm2m/wakaama-master/core\data.c **** 
 123:C:/Users/²Ü¼ÒºÀ/.iotlink/sdk/IoT_LINK/iot_link/network/lwm2m/wakaama_lwm2m/wakaama-master/core\data.c ****         length = utils_intToText(dataP->value.asObjLink.objectId, (uint8_t *)stringBuffer, 5);
 124:C:/Users/²Ü¼ÒºÀ/.iotlink/sdk/IoT_LINK/iot_link/network/lwm2m/wakaama_lwm2m/wakaama-master/core\data.c ****         if (length == 0) return -1;
 125:C:/Users/²Ü¼ÒºÀ/.iotlink/sdk/IoT_LINK/iot_link/network/lwm2m/wakaama_lwm2m/wakaama-master/core\data.c **** 
 126:C:/Users/²Ü¼ÒºÀ/.iotlink/sdk/IoT_LINK/iot_link/network/lwm2m/wakaama_lwm2m/wakaama-master/core\data.c ****         stringBuffer[5] = ':';
 127:C:/Users/²Ü¼ÒºÀ/.iotlink/sdk/IoT_LINK/iot_link/network/lwm2m/wakaama_lwm2m/wakaama-master/core\data.c ****         res = length + 1;
 128:C:/Users/²Ü¼ÒºÀ/.iotlink/sdk/IoT_LINK/iot_link/network/lwm2m/wakaama_lwm2m/wakaama-master/core\data.c **** 
 129:C:/Users/²Ü¼ÒºÀ/.iotlink/sdk/IoT_LINK/iot_link/network/lwm2m/wakaama_lwm2m/wakaama-master/core\data.c ****         length = utils_intToText(dataP->value.asObjLink.objectInstanceId, (uint8_t *)stringBuffer +
 130:C:/Users/²Ü¼ÒºÀ/.iotlink/sdk/IoT_LINK/iot_link/network/lwm2m/wakaama_lwm2m/wakaama-master/core\data.c ****         if (length == 0) return -1;
 131:C:/Users/²Ü¼ÒºÀ/.iotlink/sdk/IoT_LINK/iot_link/network/lwm2m/wakaama_lwm2m/wakaama-master/core\data.c **** 
 132:C:/Users/²Ü¼ÒºÀ/.iotlink/sdk/IoT_LINK/iot_link/network/lwm2m/wakaama_lwm2m/wakaama-master/core\data.c ****         res += length;
 133:C:/Users/²Ü¼ÒºÀ/.iotlink/sdk/IoT_LINK/iot_link/network/lwm2m/wakaama_lwm2m/wakaama-master/core\data.c **** 
 134:C:/Users/²Ü¼ÒºÀ/.iotlink/sdk/IoT_LINK/iot_link/network/lwm2m/wakaama_lwm2m/wakaama-master/core\data.c ****         *bufferP = (uint8_t *)lwm2m_malloc(res);
 135:C:/Users/²Ü¼ÒºÀ/.iotlink/sdk/IoT_LINK/iot_link/network/lwm2m/wakaama_lwm2m/wakaama-master/core\data.c ****         if (*bufferP == NULL) return -1;
 136:C:/Users/²Ü¼ÒºÀ/.iotlink/sdk/IoT_LINK/iot_link/network/lwm2m/wakaama_lwm2m/wakaama-master/core\data.c **** 
 137:C:/Users/²Ü¼ÒºÀ/.iotlink/sdk/IoT_LINK/iot_link/network/lwm2m/wakaama_lwm2m/wakaama-master/core\data.c ****         memcpy(*bufferP, stringBuffer, res);
 138:C:/Users/²Ü¼ÒºÀ/.iotlink/sdk/IoT_LINK/iot_link/network/lwm2m/wakaama_lwm2m/wakaama-master/core\data.c **** 
 139:C:/Users/²Ü¼ÒºÀ/.iotlink/sdk/IoT_LINK/iot_link/network/lwm2m/wakaama_lwm2m/wakaama-master/core\data.c ****         return res;
 140:C:/Users/²Ü¼ÒºÀ/.iotlink/sdk/IoT_LINK/iot_link/network/lwm2m/wakaama_lwm2m/wakaama-master/core\data.c ****     }
 141:C:/Users/²Ü¼ÒºÀ/.iotlink/sdk/IoT_LINK/iot_link/network/lwm2m/wakaama_lwm2m/wakaama-master/core\data.c **** 
 142:C:/Users/²Ü¼ÒºÀ/.iotlink/sdk/IoT_LINK/iot_link/network/lwm2m/wakaama_lwm2m/wakaama-master/core\data.c ****     case LWM2M_TYPE_OPAQUE:
 143:C:/Users/²Ü¼ÒºÀ/.iotlink/sdk/IoT_LINK/iot_link/network/lwm2m/wakaama_lwm2m/wakaama-master/core\data.c ****     {
 144:C:/Users/²Ü¼ÒºÀ/.iotlink/sdk/IoT_LINK/iot_link/network/lwm2m/wakaama_lwm2m/wakaama-master/core\data.c ****         size_t length;
ARM GAS  C:\Users\²Ü¼ÒºÀ\AppData\Local\Temp\cc2xoMwd.s 			page 4


 145:C:/Users/²Ü¼ÒºÀ/.iotlink/sdk/IoT_LINK/iot_link/network/lwm2m/wakaama_lwm2m/wakaama-master/core\data.c **** 
 146:C:/Users/²Ü¼ÒºÀ/.iotlink/sdk/IoT_LINK/iot_link/network/lwm2m/wakaama_lwm2m/wakaama-master/core\data.c ****         length = utils_base64GetSize(dataP->value.asBuffer.length);
 147:C:/Users/²Ü¼ÒºÀ/.iotlink/sdk/IoT_LINK/iot_link/network/lwm2m/wakaama_lwm2m/wakaama-master/core\data.c ****         *bufferP = (uint8_t *)lwm2m_malloc(length);
 148:C:/Users/²Ü¼ÒºÀ/.iotlink/sdk/IoT_LINK/iot_link/network/lwm2m/wakaama_lwm2m/wakaama-master/core\data.c ****         if (*bufferP == NULL) return 0;
 149:C:/Users/²Ü¼ÒºÀ/.iotlink/sdk/IoT_LINK/iot_link/network/lwm2m/wakaama_lwm2m/wakaama-master/core\data.c ****         length = utils_base64Encode(dataP->value.asBuffer.buffer, dataP->value.asBuffer.length, *bu
 150:C:/Users/²Ü¼ÒºÀ/.iotlink/sdk/IoT_LINK/iot_link/network/lwm2m/wakaama_lwm2m/wakaama-master/core\data.c ****         if (length == 0)
 151:C:/Users/²Ü¼ÒºÀ/.iotlink/sdk/IoT_LINK/iot_link/network/lwm2m/wakaama_lwm2m/wakaama-master/core\data.c ****         {
 152:C:/Users/²Ü¼ÒºÀ/.iotlink/sdk/IoT_LINK/iot_link/network/lwm2m/wakaama_lwm2m/wakaama-master/core\data.c ****             lwm2m_free(*bufferP);
 153:C:/Users/²Ü¼ÒºÀ/.iotlink/sdk/IoT_LINK/iot_link/network/lwm2m/wakaama_lwm2m/wakaama-master/core\data.c ****             *bufferP = NULL;
 154:C:/Users/²Ü¼ÒºÀ/.iotlink/sdk/IoT_LINK/iot_link/network/lwm2m/wakaama_lwm2m/wakaama-master/core\data.c ****             return 0;
 155:C:/Users/²Ü¼ÒºÀ/.iotlink/sdk/IoT_LINK/iot_link/network/lwm2m/wakaama_lwm2m/wakaama-master/core\data.c ****         }
 156:C:/Users/²Ü¼ÒºÀ/.iotlink/sdk/IoT_LINK/iot_link/network/lwm2m/wakaama_lwm2m/wakaama-master/core\data.c ****         return (int)length;
 157:C:/Users/²Ü¼ÒºÀ/.iotlink/sdk/IoT_LINK/iot_link/network/lwm2m/wakaama_lwm2m/wakaama-master/core\data.c ****     }
 158:C:/Users/²Ü¼ÒºÀ/.iotlink/sdk/IoT_LINK/iot_link/network/lwm2m/wakaama_lwm2m/wakaama-master/core\data.c **** 
 159:C:/Users/²Ü¼ÒºÀ/.iotlink/sdk/IoT_LINK/iot_link/network/lwm2m/wakaama_lwm2m/wakaama-master/core\data.c ****     case LWM2M_TYPE_UNDEFINED:
 160:C:/Users/²Ü¼ÒºÀ/.iotlink/sdk/IoT_LINK/iot_link/network/lwm2m/wakaama_lwm2m/wakaama-master/core\data.c ****     default:
 161:C:/Users/²Ü¼ÒºÀ/.iotlink/sdk/IoT_LINK/iot_link/network/lwm2m/wakaama_lwm2m/wakaama-master/core\data.c ****         return -1;
 162:C:/Users/²Ü¼ÒºÀ/.iotlink/sdk/IoT_LINK/iot_link/network/lwm2m/wakaama_lwm2m/wakaama-master/core\data.c ****     }
 163:C:/Users/²Ü¼ÒºÀ/.iotlink/sdk/IoT_LINK/iot_link/network/lwm2m/wakaama_lwm2m/wakaama-master/core\data.c **** }
 164:C:/Users/²Ü¼ÒºÀ/.iotlink/sdk/IoT_LINK/iot_link/network/lwm2m/wakaama_lwm2m/wakaama-master/core\data.c **** 
 165:C:/Users/²Ü¼ÒºÀ/.iotlink/sdk/IoT_LINK/iot_link/network/lwm2m/wakaama_lwm2m/wakaama-master/core\data.c **** static int prv_setBuffer(lwm2m_data_t *dataP,
 166:C:/Users/²Ü¼ÒºÀ/.iotlink/sdk/IoT_LINK/iot_link/network/lwm2m/wakaama_lwm2m/wakaama-master/core\data.c ****                          uint8_t *buffer,
 167:C:/Users/²Ü¼ÒºÀ/.iotlink/sdk/IoT_LINK/iot_link/network/lwm2m/wakaama_lwm2m/wakaama-master/core\data.c ****                          size_t bufferLen)
 168:C:/Users/²Ü¼ÒºÀ/.iotlink/sdk/IoT_LINK/iot_link/network/lwm2m/wakaama_lwm2m/wakaama-master/core\data.c **** {
  29              		.loc 1 168 1 view -0
  30              		.cfi_startproc
  31              		@ args = 0, pretend = 0, frame = 8
  32              		@ frame_needed = 0, uses_anonymous_args = 0
 169:C:/Users/²Ü¼ÒºÀ/.iotlink/sdk/IoT_LINK/iot_link/network/lwm2m/wakaama_lwm2m/wakaama-master/core\data.c ****     dataP->value.asBuffer.buffer = (uint8_t *)lwm2m_malloc(bufferLen);
  33              		.loc 1 169 5 view .LVU1
 168:C:/Users/²Ü¼ÒºÀ/.iotlink/sdk/IoT_LINK/iot_link/network/lwm2m/wakaama_lwm2m/wakaama-master/core\data.c ****     dataP->value.asBuffer.buffer = (uint8_t *)lwm2m_malloc(bufferLen);
  34              		.loc 1 168 1 is_stmt 0 view .LVU2
  35 0000 13B5     		push	{r0, r1, r4, lr}
  36              	.LCFI0:
  37              		.cfi_def_cfa_offset 16
  38              		.cfi_offset 4, -8
  39              		.cfi_offset 14, -4
 168:C:/Users/²Ü¼ÒºÀ/.iotlink/sdk/IoT_LINK/iot_link/network/lwm2m/wakaama_lwm2m/wakaama-master/core\data.c ****     dataP->value.asBuffer.buffer = (uint8_t *)lwm2m_malloc(bufferLen);
  40              		.loc 1 168 1 view .LVU3
  41 0002 0446     		mov	r4, r0
  42              		.loc 1 169 47 view .LVU4
  43 0004 1046     		mov	r0, r2
  44              	.LVL1:
 168:C:/Users/²Ü¼ÒºÀ/.iotlink/sdk/IoT_LINK/iot_link/network/lwm2m/wakaama_lwm2m/wakaama-master/core\data.c ****     dataP->value.asBuffer.buffer = (uint8_t *)lwm2m_malloc(bufferLen);
  45              		.loc 1 168 1 view .LVU5
  46 0006 0191     		str	r1, [sp, #4]
  47              		.loc 1 169 47 view .LVU6
  48 0008 0092     		str	r2, [sp]
  49 000a FFF7FEFF 		bl	lwm2m_malloc
  50              	.LVL2:
  51              		.loc 1 169 34 view .LVU7
  52 000e E060     		str	r0, [r4, #12]
 170:C:/Users/²Ü¼ÒºÀ/.iotlink/sdk/IoT_LINK/iot_link/network/lwm2m/wakaama_lwm2m/wakaama-master/core\data.c ****     if (dataP->value.asBuffer.buffer == NULL)
  53              		.loc 1 170 5 is_stmt 1 view .LVU8
  54              		.loc 1 170 8 is_stmt 0 view .LVU9
  55 0010 28B1     		cbz	r0, .L1
 171:C:/Users/²Ü¼ÒºÀ/.iotlink/sdk/IoT_LINK/iot_link/network/lwm2m/wakaama_lwm2m/wakaama-master/core\data.c ****     {
ARM GAS  C:\Users\²Ü¼ÒºÀ\AppData\Local\Temp\cc2xoMwd.s 			page 5


 172:C:/Users/²Ü¼ÒºÀ/.iotlink/sdk/IoT_LINK/iot_link/network/lwm2m/wakaama_lwm2m/wakaama-master/core\data.c ****         return 0;
 173:C:/Users/²Ü¼ÒºÀ/.iotlink/sdk/IoT_LINK/iot_link/network/lwm2m/wakaama_lwm2m/wakaama-master/core\data.c ****     }
 174:C:/Users/²Ü¼ÒºÀ/.iotlink/sdk/IoT_LINK/iot_link/network/lwm2m/wakaama_lwm2m/wakaama-master/core\data.c ****     dataP->value.asBuffer.length = bufferLen;
  56              		.loc 1 174 5 is_stmt 1 view .LVU10
  57              		.loc 1 174 34 is_stmt 0 view .LVU11
  58 0012 009A     		ldr	r2, [sp]
 175:C:/Users/²Ü¼ÒºÀ/.iotlink/sdk/IoT_LINK/iot_link/network/lwm2m/wakaama_lwm2m/wakaama-master/core\data.c ****     memcpy(dataP->value.asBuffer.buffer, buffer, bufferLen);
  59              		.loc 1 175 5 view .LVU12
  60 0014 0199     		ldr	r1, [sp, #4]
 174:C:/Users/²Ü¼ÒºÀ/.iotlink/sdk/IoT_LINK/iot_link/network/lwm2m/wakaama_lwm2m/wakaama-master/core\data.c ****     memcpy(dataP->value.asBuffer.buffer, buffer, bufferLen);
  61              		.loc 1 174 34 view .LVU13
  62 0016 A260     		str	r2, [r4, #8]
  63              		.loc 1 175 5 is_stmt 1 view .LVU14
  64 0018 FFF7FEFF 		bl	memcpy
  65              	.LVL3:
 176:C:/Users/²Ü¼ÒºÀ/.iotlink/sdk/IoT_LINK/iot_link/network/lwm2m/wakaama_lwm2m/wakaama-master/core\data.c **** 
 177:C:/Users/²Ü¼ÒºÀ/.iotlink/sdk/IoT_LINK/iot_link/network/lwm2m/wakaama_lwm2m/wakaama-master/core\data.c ****     return 1;
  66              		.loc 1 177 5 view .LVU15
  67              		.loc 1 177 12 is_stmt 0 view .LVU16
  68 001c 0120     		movs	r0, #1
  69              	.L1:
 178:C:/Users/²Ü¼ÒºÀ/.iotlink/sdk/IoT_LINK/iot_link/network/lwm2m/wakaama_lwm2m/wakaama-master/core\data.c **** }
  70              		.loc 1 178 1 view .LVU17
  71 001e 02B0     		add	sp, sp, #8
  72              	.LCFI1:
  73              		.cfi_def_cfa_offset 8
  74              	.LVL4:
  75              		.loc 1 178 1 view .LVU18
  76              		@ sp needed
  77 0020 10BD     		pop	{r4, pc}
  78              		.loc 1 178 1 view .LVU19
  79              		.cfi_endproc
  80              	.LFE6:
  82              		.section	.text.lwm2m_data_decode_opaque,"ax",%progbits
  83              		.align	1
  84              		.global	lwm2m_data_decode_opaque
  85              		.syntax unified
  86              		.thumb
  87              		.thumb_func
  88              		.fpu fpv4-sp-d16
  90              	lwm2m_data_decode_opaque:
  91              	.LVL5:
  92              	.LFB4:
  62:C:/Users/²Ü¼ÒºÀ/.iotlink/sdk/IoT_LINK/iot_link/network/lwm2m/wakaama_lwm2m/wakaama-master/core\data.c ****     memcpy(valueP, dataP->value.asBuffer.buffer, dataP->value.asBuffer.length);
  93              		.loc 1 62 1 is_stmt 1 view -0
  94              		.cfi_startproc
  95              		@ args = 0, pretend = 0, frame = 0
  96              		@ frame_needed = 0, uses_anonymous_args = 0
  97              		@ link register save eliminated.
  63:C:/Users/²Ü¼ÒºÀ/.iotlink/sdk/IoT_LINK/iot_link/network/lwm2m/wakaama_lwm2m/wakaama-master/core\data.c **** }
  98              		.loc 1 63 5 view .LVU21
  62:C:/Users/²Ü¼ÒºÀ/.iotlink/sdk/IoT_LINK/iot_link/network/lwm2m/wakaama_lwm2m/wakaama-master/core\data.c ****     memcpy(valueP, dataP->value.asBuffer.buffer, dataP->value.asBuffer.length);
  99              		.loc 1 62 1 is_stmt 0 view .LVU22
 100 0000 0346     		mov	r3, r0
 101 0002 0846     		mov	r0, r1
 102              	.LVL6:
  63:C:/Users/²Ü¼ÒºÀ/.iotlink/sdk/IoT_LINK/iot_link/network/lwm2m/wakaama_lwm2m/wakaama-master/core\data.c **** }
ARM GAS  C:\Users\²Ü¼ÒºÀ\AppData\Local\Temp\cc2xoMwd.s 			page 6


 103              		.loc 1 63 5 view .LVU23
 104 0004 D3E90221 		ldrd	r2, r1, [r3, #8]
 105              	.LVL7:
  63:C:/Users/²Ü¼ÒºÀ/.iotlink/sdk/IoT_LINK/iot_link/network/lwm2m/wakaama_lwm2m/wakaama-master/core\data.c **** }
 106              		.loc 1 63 5 view .LVU24
 107 0008 FFF7FEBF 		b	memcpy
 108              	.LVL8:
  63:C:/Users/²Ü¼ÒºÀ/.iotlink/sdk/IoT_LINK/iot_link/network/lwm2m/wakaama_lwm2m/wakaama-master/core\data.c **** }
 109              		.loc 1 63 5 view .LVU25
 110              		.cfi_endproc
 111              	.LFE4:
 113              		.section	.rodata.lwm2m_data_new.str1.1,"aMS",%progbits,1
 114              	.LC0:
 115 0000 5B25735D 		.ascii	"[%s][%u][%s] [%d][%s:%d] size: %d\015\012\015\012\000"
 115      5B25755D 
 115      5B25735D 
 115      205B2564 
 115      5D5B2573 
 116              		.section	.text.lwm2m_data_new,"ax",%progbits
 117              		.align	1
 118              		.global	lwm2m_data_new
 119              		.syntax unified
 120              		.thumb
 121              		.thumb_func
 122              		.fpu fpv4-sp-d16
 124              	lwm2m_data_new:
 125              	.LVL9:
 126              	.LFB7:
 179:C:/Users/²Ü¼ÒºÀ/.iotlink/sdk/IoT_LINK/iot_link/network/lwm2m/wakaama_lwm2m/wakaama-master/core\data.c **** 
 180:C:/Users/²Ü¼ÒºÀ/.iotlink/sdk/IoT_LINK/iot_link/network/lwm2m/wakaama_lwm2m/wakaama-master/core\data.c **** lwm2m_data_t *lwm2m_data_new(int size)
 181:C:/Users/²Ü¼ÒºÀ/.iotlink/sdk/IoT_LINK/iot_link/network/lwm2m/wakaama_lwm2m/wakaama-master/core\data.c **** {
 127              		.loc 1 181 1 is_stmt 1 view -0
 128              		.cfi_startproc
 129              		@ args = 0, pretend = 0, frame = 8
 130              		@ frame_needed = 0, uses_anonymous_args = 0
 182:C:/Users/²Ü¼ÒºÀ/.iotlink/sdk/IoT_LINK/iot_link/network/lwm2m/wakaama_lwm2m/wakaama-master/core\data.c ****     lwm2m_data_t *dataP;
 131              		.loc 1 182 5 view .LVU27
 183:C:/Users/²Ü¼ÒºÀ/.iotlink/sdk/IoT_LINK/iot_link/network/lwm2m/wakaama_lwm2m/wakaama-master/core\data.c **** 
 184:C:/Users/²Ü¼ÒºÀ/.iotlink/sdk/IoT_LINK/iot_link/network/lwm2m/wakaama_lwm2m/wakaama-master/core\data.c ****     LOG_ARG("size: %d", size);
 132              		.loc 1 184 5 view .LVU28
 133              		.loc 1 184 5 view .LVU29
 181:C:/Users/²Ü¼ÒºÀ/.iotlink/sdk/IoT_LINK/iot_link/network/lwm2m/wakaama_lwm2m/wakaama-master/core\data.c ****     lwm2m_data_t *dataP;
 134              		.loc 1 181 1 is_stmt 0 view .LVU30
 135 0000 30B5     		push	{r4, r5, lr}
 136              	.LCFI2:
 137              		.cfi_def_cfa_offset 12
 138              		.cfi_offset 4, -12
 139              		.cfi_offset 5, -8
 140              		.cfi_offset 14, -4
 141 0002 87B0     		sub	sp, sp, #28
 142              	.LCFI3:
 143              		.cfi_def_cfa_offset 40
 181:C:/Users/²Ü¼ÒºÀ/.iotlink/sdk/IoT_LINK/iot_link/network/lwm2m/wakaama_lwm2m/wakaama-master/core\data.c ****     lwm2m_data_t *dataP;
 144              		.loc 1 181 1 view .LVU31
 145 0004 0446     		mov	r4, r0
 146              		.loc 1 184 5 view .LVU32
 147 0006 FFF7FEFF 		bl	link_log_level_get
ARM GAS  C:\Users\²Ü¼ÒºÀ\AppData\Local\Temp\cc2xoMwd.s 			page 7


 148              	.LVL10:
 149              		.loc 1 184 5 view .LVU33
 150 000a 0128     		cmp	r0, #1
 151 000c 19D8     		bhi	.L6
 152              		.loc 1 184 5 is_stmt 1 discriminator 1 view .LVU34
 153              		.loc 1 184 5 discriminator 1 view .LVU35
 154              		.loc 1 184 5 discriminator 1 view .LVU36
 155 000e 0120     		movs	r0, #1
 156 0010 FFF7FEFF 		bl	link_log_level_name
 157              	.LVL11:
 158 0014 0546     		mov	r5, r0
 159 0016 FFF7FEFF 		bl	osal_sys_time
 160              	.LVL12:
 161 001a 0590     		str	r0, [sp, #20]
 162 001c FFF7FEFF 		bl	lwm2m_gettime
 163              	.LVL13:
 164 0020 B823     		movs	r3, #184
 165 0022 0293     		str	r3, [sp, #8]
 166 0024 104B     		ldr	r3, .L12
 167 0026 059A     		ldr	r2, [sp, #20]
 168 0028 0394     		str	r4, [sp, #12]
 169 002a CDE90003 		strd	r0, r3, [sp]
 170 002e 2946     		mov	r1, r5
 171 0030 0E4B     		ldr	r3, .L12+4
 172 0032 0F48     		ldr	r0, .L12+8
 173 0034 FFF7FEFF 		bl	printf
 174              	.LVL14:
 175              		.loc 1 184 5 discriminator 1 view .LVU37
 176 0038 0E4B     		ldr	r3, .L12+12
 177 003a 1B68     		ldr	r3, [r3]
 178 003c 9868     		ldr	r0, [r3, #8]
 179 003e FFF7FEFF 		bl	fflush
 180              	.LVL15:
 181              	.L6:
 182              		.loc 1 184 5 discriminator 3 view .LVU38
 183              		.loc 1 184 5 discriminator 3 view .LVU39
 184              		.loc 1 184 5 discriminator 3 view .LVU40
 185:C:/Users/²Ü¼ÒºÀ/.iotlink/sdk/IoT_LINK/iot_link/network/lwm2m/wakaama_lwm2m/wakaama-master/core\data.c ****     if (size <= 0) return NULL;
 185              		.loc 1 185 5 discriminator 3 view .LVU41
 186              		.loc 1 185 8 is_stmt 0 discriminator 3 view .LVU42
 187 0042 002C     		cmp	r4, #0
 188 0044 0DDD     		ble	.L8
 186:C:/Users/²Ü¼ÒºÀ/.iotlink/sdk/IoT_LINK/iot_link/network/lwm2m/wakaama_lwm2m/wakaama-master/core\data.c **** 
 187:C:/Users/²Ü¼ÒºÀ/.iotlink/sdk/IoT_LINK/iot_link/network/lwm2m/wakaama_lwm2m/wakaama-master/core\data.c ****     dataP = (lwm2m_data_t *)lwm2m_malloc(size * sizeof(lwm2m_data_t));
 189              		.loc 1 187 5 is_stmt 1 view .LVU43
 190              		.loc 1 187 29 is_stmt 0 view .LVU44
 191 0046 2201     		lsls	r2, r4, #4
 192 0048 1046     		mov	r0, r2
 193 004a 0592     		str	r2, [sp, #20]
 194 004c FFF7FEFF 		bl	lwm2m_malloc
 195              	.LVL16:
 188:C:/Users/²Ü¼ÒºÀ/.iotlink/sdk/IoT_LINK/iot_link/network/lwm2m/wakaama_lwm2m/wakaama-master/core\data.c **** 
 189:C:/Users/²Ü¼ÒºÀ/.iotlink/sdk/IoT_LINK/iot_link/network/lwm2m/wakaama_lwm2m/wakaama-master/core\data.c ****     if (dataP != NULL)
 196              		.loc 1 189 5 is_stmt 1 view .LVU45
 197              		.loc 1 189 8 is_stmt 0 view .LVU46
 198 0050 0446     		mov	r4, r0
 199              	.LVL17:
ARM GAS  C:\Users\²Ü¼ÒºÀ\AppData\Local\Temp\cc2xoMwd.s 			page 8


 200              		.loc 1 189 8 view .LVU47
 201 0052 18B1     		cbz	r0, .L5
 190:C:/Users/²Ü¼ÒºÀ/.iotlink/sdk/IoT_LINK/iot_link/network/lwm2m/wakaama_lwm2m/wakaama-master/core\data.c ****     {
 191:C:/Users/²Ü¼ÒºÀ/.iotlink/sdk/IoT_LINK/iot_link/network/lwm2m/wakaama_lwm2m/wakaama-master/core\data.c ****         memset(dataP, 0, size * sizeof(lwm2m_data_t));
 202              		.loc 1 191 9 is_stmt 1 view .LVU48
 203 0054 059A     		ldr	r2, [sp, #20]
 204 0056 0021     		movs	r1, #0
 205 0058 FFF7FEFF 		bl	memset
 206              	.LVL18:
 207              	.L5:
 192:C:/Users/²Ü¼ÒºÀ/.iotlink/sdk/IoT_LINK/iot_link/network/lwm2m/wakaama_lwm2m/wakaama-master/core\data.c ****     }
 193:C:/Users/²Ü¼ÒºÀ/.iotlink/sdk/IoT_LINK/iot_link/network/lwm2m/wakaama_lwm2m/wakaama-master/core\data.c **** 
 194:C:/Users/²Ü¼ÒºÀ/.iotlink/sdk/IoT_LINK/iot_link/network/lwm2m/wakaama_lwm2m/wakaama-master/core\data.c ****     return dataP;
 195:C:/Users/²Ü¼ÒºÀ/.iotlink/sdk/IoT_LINK/iot_link/network/lwm2m/wakaama_lwm2m/wakaama-master/core\data.c **** }
 208              		.loc 1 195 1 is_stmt 0 view .LVU49
 209 005c 2046     		mov	r0, r4
 210 005e 07B0     		add	sp, sp, #28
 211              	.LCFI4:
 212              		.cfi_remember_state
 213              		.cfi_def_cfa_offset 12
 214              		@ sp needed
 215 0060 30BD     		pop	{r4, r5, pc}
 216              	.LVL19:
 217              	.L8:
 218              	.LCFI5:
 219              		.cfi_restore_state
 185:C:/Users/²Ü¼ÒºÀ/.iotlink/sdk/IoT_LINK/iot_link/network/lwm2m/wakaama_lwm2m/wakaama-master/core\data.c **** 
 220              		.loc 1 185 27 view .LVU50
 221 0062 0024     		movs	r4, #0
 222              	.LVL20:
 185:C:/Users/²Ü¼ÒºÀ/.iotlink/sdk/IoT_LINK/iot_link/network/lwm2m/wakaama_lwm2m/wakaama-master/core\data.c **** 
 223              		.loc 1 185 27 view .LVU51
 224 0064 FAE7     		b	.L5
 225              	.L13:
 226 0066 00BF     		.align	2
 227              	.L12:
 228 0068 00000000 		.word	.LANCHOR1
 229 006c 00000000 		.word	.LANCHOR0
 230 0070 00000000 		.word	.LC0
 231 0074 00000000 		.word	_impure_ptr
 232              		.cfi_endproc
 233              	.LFE7:
 235              		.section	.text.lwm2m_data_free,"ax",%progbits
 236              		.align	1
 237              		.global	lwm2m_data_free
 238              		.syntax unified
 239              		.thumb
 240              		.thumb_func
 241              		.fpu fpv4-sp-d16
 243              	lwm2m_data_free:
 244              	.LVL21:
 245              	.LFB8:
 196:C:/Users/²Ü¼ÒºÀ/.iotlink/sdk/IoT_LINK/iot_link/network/lwm2m/wakaama_lwm2m/wakaama-master/core\data.c **** 
 197:C:/Users/²Ü¼ÒºÀ/.iotlink/sdk/IoT_LINK/iot_link/network/lwm2m/wakaama_lwm2m/wakaama-master/core\data.c **** void lwm2m_data_free(int size,
 198:C:/Users/²Ü¼ÒºÀ/.iotlink/sdk/IoT_LINK/iot_link/network/lwm2m/wakaama_lwm2m/wakaama-master/core\data.c ****                      lwm2m_data_t *dataP)
 199:C:/Users/²Ü¼ÒºÀ/.iotlink/sdk/IoT_LINK/iot_link/network/lwm2m/wakaama_lwm2m/wakaama-master/core\data.c **** {
 246              		.loc 1 199 1 is_stmt 1 view -0
ARM GAS  C:\Users\²Ü¼ÒºÀ\AppData\Local\Temp\cc2xoMwd.s 			page 9


 247              		.cfi_startproc
 248              		@ args = 0, pretend = 0, frame = 8
 249              		@ frame_needed = 0, uses_anonymous_args = 0
 200:C:/Users/²Ü¼ÒºÀ/.iotlink/sdk/IoT_LINK/iot_link/network/lwm2m/wakaama_lwm2m/wakaama-master/core\data.c ****     int i;
 250              		.loc 1 200 5 view .LVU53
 201:C:/Users/²Ü¼ÒºÀ/.iotlink/sdk/IoT_LINK/iot_link/network/lwm2m/wakaama_lwm2m/wakaama-master/core\data.c **** 
 202:C:/Users/²Ü¼ÒºÀ/.iotlink/sdk/IoT_LINK/iot_link/network/lwm2m/wakaama_lwm2m/wakaama-master/core\data.c ****     LOG_ARG("size: %d", size);
 251              		.loc 1 202 5 view .LVU54
 252              		.loc 1 202 5 view .LVU55
 199:C:/Users/²Ü¼ÒºÀ/.iotlink/sdk/IoT_LINK/iot_link/network/lwm2m/wakaama_lwm2m/wakaama-master/core\data.c ****     int i;
 253              		.loc 1 199 1 is_stmt 0 view .LVU56
 254 0000 F0B5     		push	{r4, r5, r6, r7, lr}
 255              	.LCFI6:
 256              		.cfi_def_cfa_offset 20
 257              		.cfi_offset 4, -20
 258              		.cfi_offset 5, -16
 259              		.cfi_offset 6, -12
 260              		.cfi_offset 7, -8
 261              		.cfi_offset 14, -4
 262 0002 87B0     		sub	sp, sp, #28
 263              	.LCFI7:
 264              		.cfi_def_cfa_offset 48
 199:C:/Users/²Ü¼ÒºÀ/.iotlink/sdk/IoT_LINK/iot_link/network/lwm2m/wakaama_lwm2m/wakaama-master/core\data.c ****     int i;
 265              		.loc 1 199 1 view .LVU57
 266 0004 0646     		mov	r6, r0
 267 0006 0D46     		mov	r5, r1
 268              		.loc 1 202 5 view .LVU58
 269 0008 FFF7FEFF 		bl	link_log_level_get
 270              	.LVL22:
 271              		.loc 1 202 5 view .LVU59
 272 000c 0128     		cmp	r0, #1
 273 000e 19D8     		bhi	.L15
 274              		.loc 1 202 5 is_stmt 1 discriminator 1 view .LVU60
 275              		.loc 1 202 5 discriminator 1 view .LVU61
 276              		.loc 1 202 5 discriminator 1 view .LVU62
 277 0010 0120     		movs	r0, #1
 278 0012 FFF7FEFF 		bl	link_log_level_name
 279              	.LVL23:
 280 0016 0446     		mov	r4, r0
 281 0018 FFF7FEFF 		bl	osal_sys_time
 282              	.LVL24:
 283 001c 0590     		str	r0, [sp, #20]
 284 001e FFF7FEFF 		bl	lwm2m_gettime
 285              	.LVL25:
 286 0022 CA23     		movs	r3, #202
 287 0024 0293     		str	r3, [sp, #8]
 288 0026 194B     		ldr	r3, .L33
 289 0028 059A     		ldr	r2, [sp, #20]
 290 002a 0396     		str	r6, [sp, #12]
 291 002c CDE90003 		strd	r0, r3, [sp]
 292 0030 2146     		mov	r1, r4
 293 0032 174B     		ldr	r3, .L33+4
 294 0034 1748     		ldr	r0, .L33+8
 295 0036 FFF7FEFF 		bl	printf
 296              	.LVL26:
 297              		.loc 1 202 5 discriminator 1 view .LVU63
 298 003a 174B     		ldr	r3, .L33+12
ARM GAS  C:\Users\²Ü¼ÒºÀ\AppData\Local\Temp\cc2xoMwd.s 			page 10


 299 003c 1B68     		ldr	r3, [r3]
 300 003e 9868     		ldr	r0, [r3, #8]
 301 0040 FFF7FEFF 		bl	fflush
 302              	.LVL27:
 303              	.L15:
 304              		.loc 1 202 5 discriminator 3 view .LVU64
 305              		.loc 1 202 5 discriminator 3 view .LVU65
 306              		.loc 1 202 5 discriminator 3 view .LVU66
 203:C:/Users/²Ü¼ÒºÀ/.iotlink/sdk/IoT_LINK/iot_link/network/lwm2m/wakaama_lwm2m/wakaama-master/core\data.c ****     if (size == 0 || dataP == NULL) return;
 307              		.loc 1 203 5 discriminator 3 view .LVU67
 308              		.loc 1 203 8 is_stmt 0 discriminator 3 view .LVU68
 309 0044 FEB1     		cbz	r6, .L14
 310              		.loc 1 203 19 discriminator 2 view .LVU69
 311 0046 F5B1     		cbz	r5, .L14
 312 0048 2C46     		mov	r4, r5
 313              	.LBB7:
 314              	.LBB8:
 204:C:/Users/²Ü¼ÒºÀ/.iotlink/sdk/IoT_LINK/iot_link/network/lwm2m/wakaama_lwm2m/wakaama-master/core\data.c **** 
 205:C:/Users/²Ü¼ÒºÀ/.iotlink/sdk/IoT_LINK/iot_link/network/lwm2m/wakaama_lwm2m/wakaama-master/core\data.c ****     for (i = 0; i < size; i++)
 315              		.loc 1 205 12 view .LVU70
 316 004a 0027     		movs	r7, #0
 317              	.L17:
 318              	.LVL28:
 319              		.loc 1 205 17 is_stmt 1 view .LVU71
 320              		.loc 1 205 5 is_stmt 0 view .LVU72
 321 004c BE42     		cmp	r6, r7
 322 004e 05DC     		bgt	.L22
 206:C:/Users/²Ü¼ÒºÀ/.iotlink/sdk/IoT_LINK/iot_link/network/lwm2m/wakaama_lwm2m/wakaama-master/core\data.c ****     {
 207:C:/Users/²Ü¼ÒºÀ/.iotlink/sdk/IoT_LINK/iot_link/network/lwm2m/wakaama_lwm2m/wakaama-master/core\data.c ****         switch (dataP[i].type)
 208:C:/Users/²Ü¼ÒºÀ/.iotlink/sdk/IoT_LINK/iot_link/network/lwm2m/wakaama_lwm2m/wakaama-master/core\data.c ****         {
 209:C:/Users/²Ü¼ÒºÀ/.iotlink/sdk/IoT_LINK/iot_link/network/lwm2m/wakaama_lwm2m/wakaama-master/core\data.c ****         case LWM2M_TYPE_MULTIPLE_RESOURCE:
 210:C:/Users/²Ü¼ÒºÀ/.iotlink/sdk/IoT_LINK/iot_link/network/lwm2m/wakaama_lwm2m/wakaama-master/core\data.c ****         case LWM2M_TYPE_OBJECT_INSTANCE:
 211:C:/Users/²Ü¼ÒºÀ/.iotlink/sdk/IoT_LINK/iot_link/network/lwm2m/wakaama_lwm2m/wakaama-master/core\data.c ****         case LWM2M_TYPE_OBJECT:
 212:C:/Users/²Ü¼ÒºÀ/.iotlink/sdk/IoT_LINK/iot_link/network/lwm2m/wakaama_lwm2m/wakaama-master/core\data.c ****             lwm2m_data_free(dataP[i].value.asChildren.count, dataP[i].value.asChildren.array);
 213:C:/Users/²Ü¼ÒºÀ/.iotlink/sdk/IoT_LINK/iot_link/network/lwm2m/wakaama_lwm2m/wakaama-master/core\data.c ****             break;
 214:C:/Users/²Ü¼ÒºÀ/.iotlink/sdk/IoT_LINK/iot_link/network/lwm2m/wakaama_lwm2m/wakaama-master/core\data.c **** 
 215:C:/Users/²Ü¼ÒºÀ/.iotlink/sdk/IoT_LINK/iot_link/network/lwm2m/wakaama_lwm2m/wakaama-master/core\data.c ****         case LWM2M_TYPE_STRING:
 216:C:/Users/²Ü¼ÒºÀ/.iotlink/sdk/IoT_LINK/iot_link/network/lwm2m/wakaama_lwm2m/wakaama-master/core\data.c ****         case LWM2M_TYPE_OPAQUE:
 217:C:/Users/²Ü¼ÒºÀ/.iotlink/sdk/IoT_LINK/iot_link/network/lwm2m/wakaama_lwm2m/wakaama-master/core\data.c ****             if (dataP[i].value.asBuffer.buffer != NULL)
 218:C:/Users/²Ü¼ÒºÀ/.iotlink/sdk/IoT_LINK/iot_link/network/lwm2m/wakaama_lwm2m/wakaama-master/core\data.c ****             {
 219:C:/Users/²Ü¼ÒºÀ/.iotlink/sdk/IoT_LINK/iot_link/network/lwm2m/wakaama_lwm2m/wakaama-master/core\data.c ****                 lwm2m_free(dataP[i].value.asBuffer.buffer);
 220:C:/Users/²Ü¼ÒºÀ/.iotlink/sdk/IoT_LINK/iot_link/network/lwm2m/wakaama_lwm2m/wakaama-master/core\data.c ****             }
 221:C:/Users/²Ü¼ÒºÀ/.iotlink/sdk/IoT_LINK/iot_link/network/lwm2m/wakaama_lwm2m/wakaama-master/core\data.c **** 
 222:C:/Users/²Ü¼ÒºÀ/.iotlink/sdk/IoT_LINK/iot_link/network/lwm2m/wakaama_lwm2m/wakaama-master/core\data.c ****         default:
 223:C:/Users/²Ü¼ÒºÀ/.iotlink/sdk/IoT_LINK/iot_link/network/lwm2m/wakaama_lwm2m/wakaama-master/core\data.c ****             // do nothing
 224:C:/Users/²Ü¼ÒºÀ/.iotlink/sdk/IoT_LINK/iot_link/network/lwm2m/wakaama_lwm2m/wakaama-master/core\data.c ****             break;
 225:C:/Users/²Ü¼ÒºÀ/.iotlink/sdk/IoT_LINK/iot_link/network/lwm2m/wakaama_lwm2m/wakaama-master/core\data.c ****         }
 226:C:/Users/²Ü¼ÒºÀ/.iotlink/sdk/IoT_LINK/iot_link/network/lwm2m/wakaama_lwm2m/wakaama-master/core\data.c ****     }
 227:C:/Users/²Ü¼ÒºÀ/.iotlink/sdk/IoT_LINK/iot_link/network/lwm2m/wakaama_lwm2m/wakaama-master/core\data.c ****     lwm2m_free(dataP);
 323              		.loc 1 227 5 is_stmt 1 view .LVU73
 324 0050 2846     		mov	r0, r5
 325              	.LBE8:
 326              	.LBE7:
 228:C:/Users/²Ü¼ÒºÀ/.iotlink/sdk/IoT_LINK/iot_link/network/lwm2m/wakaama_lwm2m/wakaama-master/core\data.c **** }
 327              		.loc 1 228 1 is_stmt 0 view .LVU74
 328 0052 07B0     		add	sp, sp, #28
 329              	.LCFI8:
ARM GAS  C:\Users\²Ü¼ÒºÀ\AppData\Local\Temp\cc2xoMwd.s 			page 11


 330              		.cfi_remember_state
 331              		.cfi_def_cfa_offset 20
 332              		@ sp needed
 333 0054 BDE8F040 		pop	{r4, r5, r6, r7, lr}
 334              	.LCFI9:
 335              		.cfi_restore 14
 336              		.cfi_restore 7
 337              		.cfi_restore 6
 338              		.cfi_restore 5
 339              		.cfi_restore 4
 340              		.cfi_def_cfa_offset 0
 341              	.LVL29:
 342              	.LBB10:
 343              	.LBB9:
 227:C:/Users/²Ü¼ÒºÀ/.iotlink/sdk/IoT_LINK/iot_link/network/lwm2m/wakaama_lwm2m/wakaama-master/core\data.c **** }
 344              		.loc 1 227 5 view .LVU75
 345 0058 FFF7FEBF 		b	lwm2m_free
 346              	.LVL30:
 347              	.L22:
 348              	.LCFI10:
 349              		.cfi_restore_state
 207:C:/Users/²Ü¼ÒºÀ/.iotlink/sdk/IoT_LINK/iot_link/network/lwm2m/wakaama_lwm2m/wakaama-master/core\data.c ****         {
 350              		.loc 1 207 9 is_stmt 1 view .LVU76
 207:C:/Users/²Ü¼ÒºÀ/.iotlink/sdk/IoT_LINK/iot_link/network/lwm2m/wakaama_lwm2m/wakaama-master/core\data.c ****         {
 351              		.loc 1 207 25 is_stmt 0 view .LVU77
 352 005c 2378     		ldrb	r3, [r4]	@ zero_extendqisi2
 207:C:/Users/²Ü¼ÒºÀ/.iotlink/sdk/IoT_LINK/iot_link/network/lwm2m/wakaama_lwm2m/wakaama-master/core\data.c ****         {
 353              		.loc 1 207 9 view .LVU78
 354 005e 032B     		cmp	r3, #3
 355 0060 05D8     		bhi	.L18
 356 0062 3BB1     		cbz	r3, .L20
 212:C:/Users/²Ü¼ÒºÀ/.iotlink/sdk/IoT_LINK/iot_link/network/lwm2m/wakaama_lwm2m/wakaama-master/core\data.c ****             break;
 357              		.loc 1 212 13 is_stmt 1 view .LVU79
 358 0064 D4E90201 		ldrd	r0, r1, [r4, #8]
 359 0068 FFF7FEFF 		bl	lwm2m_data_free
 360              	.LVL31:
 213:C:/Users/²Ü¼ÒºÀ/.iotlink/sdk/IoT_LINK/iot_link/network/lwm2m/wakaama_lwm2m/wakaama-master/core\data.c **** 
 361              		.loc 1 213 13 view .LVU80
 362 006c 02E0     		b	.L20
 363              	.L18:
 207:C:/Users/²Ü¼ÒºÀ/.iotlink/sdk/IoT_LINK/iot_link/network/lwm2m/wakaama_lwm2m/wakaama-master/core\data.c ****         {
 364              		.loc 1 207 9 is_stmt 0 view .LVU81
 365 006e 043B     		subs	r3, r3, #4
 366 0070 012B     		cmp	r3, #1
 367 0072 02D9     		bls	.L32
 368              	.L20:
 205:C:/Users/²Ü¼ÒºÀ/.iotlink/sdk/IoT_LINK/iot_link/network/lwm2m/wakaama_lwm2m/wakaama-master/core\data.c ****     {
 369              		.loc 1 205 27 is_stmt 1 view .LVU82
 205:C:/Users/²Ü¼ÒºÀ/.iotlink/sdk/IoT_LINK/iot_link/network/lwm2m/wakaama_lwm2m/wakaama-master/core\data.c ****     {
 370              		.loc 1 205 28 is_stmt 0 view .LVU83
 371 0074 0137     		adds	r7, r7, #1
 372              	.LVL32:
 205:C:/Users/²Ü¼ÒºÀ/.iotlink/sdk/IoT_LINK/iot_link/network/lwm2m/wakaama_lwm2m/wakaama-master/core\data.c ****     {
 373              		.loc 1 205 28 view .LVU84
 374 0076 1034     		adds	r4, r4, #16
 375 0078 E8E7     		b	.L17
 376              	.L32:
ARM GAS  C:\Users\²Ü¼ÒºÀ\AppData\Local\Temp\cc2xoMwd.s 			page 12


 217:C:/Users/²Ü¼ÒºÀ/.iotlink/sdk/IoT_LINK/iot_link/network/lwm2m/wakaama_lwm2m/wakaama-master/core\data.c ****             {
 377              		.loc 1 217 13 is_stmt 1 view .LVU85
 217:C:/Users/²Ü¼ÒºÀ/.iotlink/sdk/IoT_LINK/iot_link/network/lwm2m/wakaama_lwm2m/wakaama-master/core\data.c ****             {
 378              		.loc 1 217 40 is_stmt 0 view .LVU86
 379 007a E068     		ldr	r0, [r4, #12]
 217:C:/Users/²Ü¼ÒºÀ/.iotlink/sdk/IoT_LINK/iot_link/network/lwm2m/wakaama_lwm2m/wakaama-master/core\data.c ****             {
 380              		.loc 1 217 16 view .LVU87
 381 007c 0028     		cmp	r0, #0
 382 007e F9D0     		beq	.L20
 219:C:/Users/²Ü¼ÒºÀ/.iotlink/sdk/IoT_LINK/iot_link/network/lwm2m/wakaama_lwm2m/wakaama-master/core\data.c ****             }
 383              		.loc 1 219 17 is_stmt 1 view .LVU88
 384 0080 FFF7FEFF 		bl	lwm2m_free
 385              	.LVL33:
 386 0084 F6E7     		b	.L20
 387              	.LVL34:
 388              	.L14:
 219:C:/Users/²Ü¼ÒºÀ/.iotlink/sdk/IoT_LINK/iot_link/network/lwm2m/wakaama_lwm2m/wakaama-master/core\data.c ****             }
 389              		.loc 1 219 17 is_stmt 0 view .LVU89
 390              	.LBE9:
 391              	.LBE10:
 392              		.loc 1 228 1 view .LVU90
 393 0086 07B0     		add	sp, sp, #28
 394              	.LCFI11:
 395              		.cfi_def_cfa_offset 20
 396              		@ sp needed
 397 0088 F0BD     		pop	{r4, r5, r6, r7, pc}
 398              	.LVL35:
 399              	.L34:
 400              		.loc 1 228 1 view .LVU91
 401 008a 00BF     		.align	2
 402              	.L33:
 403 008c 00000000 		.word	.LANCHOR3
 404 0090 00000000 		.word	.LANCHOR2
 405 0094 00000000 		.word	.LC0
 406 0098 00000000 		.word	_impure_ptr
 407              		.cfi_endproc
 408              	.LFE8:
 410              		.section	.rodata.lwm2m_data_encode_string.str1.1,"aMS",%progbits,1
 411              	.LC1:
 412 0000 5B25735D 		.ascii	"[%s][%u][%s] [%d][%s:%d] \"%s\"\015\012\015\012\000"
 412      5B25755D 
 412      5B25735D 
 412      205B2564 
 412      5D5B2573 
 413              		.section	.text.lwm2m_data_encode_string,"ax",%progbits
 414              		.align	1
 415              		.global	lwm2m_data_encode_string
 416              		.syntax unified
 417              		.thumb
 418              		.thumb_func
 419              		.fpu fpv4-sp-d16
 421              	lwm2m_data_encode_string:
 422              	.LVL36:
 423              	.LFB9:
 229:C:/Users/²Ü¼ÒºÀ/.iotlink/sdk/IoT_LINK/iot_link/network/lwm2m/wakaama_lwm2m/wakaama-master/core\data.c **** 
 230:C:/Users/²Ü¼ÒºÀ/.iotlink/sdk/IoT_LINK/iot_link/network/lwm2m/wakaama_lwm2m/wakaama-master/core\data.c **** void lwm2m_data_encode_string(const char *string,
 231:C:/Users/²Ü¼ÒºÀ/.iotlink/sdk/IoT_LINK/iot_link/network/lwm2m/wakaama_lwm2m/wakaama-master/core\data.c ****                               lwm2m_data_t *dataP)
ARM GAS  C:\Users\²Ü¼ÒºÀ\AppData\Local\Temp\cc2xoMwd.s 			page 13


 232:C:/Users/²Ü¼ÒºÀ/.iotlink/sdk/IoT_LINK/iot_link/network/lwm2m/wakaama_lwm2m/wakaama-master/core\data.c **** {
 424              		.loc 1 232 1 is_stmt 1 view -0
 425              		.cfi_startproc
 426              		@ args = 0, pretend = 0, frame = 8
 427              		@ frame_needed = 0, uses_anonymous_args = 0
 233:C:/Users/²Ü¼ÒºÀ/.iotlink/sdk/IoT_LINK/iot_link/network/lwm2m/wakaama_lwm2m/wakaama-master/core\data.c ****     size_t len;
 428              		.loc 1 233 5 view .LVU93
 234:C:/Users/²Ü¼ÒºÀ/.iotlink/sdk/IoT_LINK/iot_link/network/lwm2m/wakaama_lwm2m/wakaama-master/core\data.c ****     int res;
 429              		.loc 1 234 5 view .LVU94
 235:C:/Users/²Ü¼ÒºÀ/.iotlink/sdk/IoT_LINK/iot_link/network/lwm2m/wakaama_lwm2m/wakaama-master/core\data.c **** 
 236:C:/Users/²Ü¼ÒºÀ/.iotlink/sdk/IoT_LINK/iot_link/network/lwm2m/wakaama_lwm2m/wakaama-master/core\data.c ****     LOG_ARG("\"%s\"", string);
 430              		.loc 1 236 5 view .LVU95
 431              		.loc 1 236 5 view .LVU96
 232:C:/Users/²Ü¼ÒºÀ/.iotlink/sdk/IoT_LINK/iot_link/network/lwm2m/wakaama_lwm2m/wakaama-master/core\data.c ****     size_t len;
 432              		.loc 1 232 1 is_stmt 0 view .LVU97
 433 0000 70B5     		push	{r4, r5, r6, lr}
 434              	.LCFI12:
 435              		.cfi_def_cfa_offset 16
 436              		.cfi_offset 4, -16
 437              		.cfi_offset 5, -12
 438              		.cfi_offset 6, -8
 439              		.cfi_offset 14, -4
 440 0002 86B0     		sub	sp, sp, #24
 441              	.LCFI13:
 442              		.cfi_def_cfa_offset 40
 232:C:/Users/²Ü¼ÒºÀ/.iotlink/sdk/IoT_LINK/iot_link/network/lwm2m/wakaama_lwm2m/wakaama-master/core\data.c ****     size_t len;
 443              		.loc 1 232 1 view .LVU98
 444 0004 0546     		mov	r5, r0
 445 0006 0C46     		mov	r4, r1
 446              		.loc 1 236 5 view .LVU99
 447 0008 FFF7FEFF 		bl	link_log_level_get
 448              	.LVL37:
 449              		.loc 1 236 5 view .LVU100
 450 000c 0128     		cmp	r0, #1
 451 000e 19D8     		bhi	.L36
 452              		.loc 1 236 5 is_stmt 1 discriminator 1 view .LVU101
 453              		.loc 1 236 5 discriminator 1 view .LVU102
 454              		.loc 1 236 5 discriminator 1 view .LVU103
 455 0010 0120     		movs	r0, #1
 456 0012 FFF7FEFF 		bl	link_log_level_name
 457              	.LVL38:
 458 0016 0646     		mov	r6, r0
 459 0018 FFF7FEFF 		bl	osal_sys_time
 460              	.LVL39:
 461 001c 0590     		str	r0, [sp, #20]
 462 001e FFF7FEFF 		bl	lwm2m_gettime
 463              	.LVL40:
 464 0022 EC23     		movs	r3, #236
 465 0024 0293     		str	r3, [sp, #8]
 466 0026 124B     		ldr	r3, .L45
 467 0028 059A     		ldr	r2, [sp, #20]
 468 002a 0395     		str	r5, [sp, #12]
 469 002c CDE90003 		strd	r0, r3, [sp]
 470 0030 3146     		mov	r1, r6
 471 0032 104B     		ldr	r3, .L45+4
 472 0034 1048     		ldr	r0, .L45+8
 473 0036 FFF7FEFF 		bl	printf
ARM GAS  C:\Users\²Ü¼ÒºÀ\AppData\Local\Temp\cc2xoMwd.s 			page 14


 474              	.LVL41:
 475              		.loc 1 236 5 discriminator 1 view .LVU104
 476 003a 104B     		ldr	r3, .L45+12
 477 003c 1B68     		ldr	r3, [r3]
 478 003e 9868     		ldr	r0, [r3, #8]
 479 0040 FFF7FEFF 		bl	fflush
 480              	.LVL42:
 481              	.L36:
 482              		.loc 1 236 5 discriminator 3 view .LVU105
 483              		.loc 1 236 5 discriminator 3 view .LVU106
 484              		.loc 1 236 5 discriminator 3 view .LVU107
 237:C:/Users/²Ü¼ÒºÀ/.iotlink/sdk/IoT_LINK/iot_link/network/lwm2m/wakaama_lwm2m/wakaama-master/core\data.c ****     if (string == NULL)
 485              		.loc 1 237 5 discriminator 3 view .LVU108
 486              		.loc 1 237 8 is_stmt 0 discriminator 3 view .LVU109
 487 0044 1DB1     		cbz	r5, .L37
 238:C:/Users/²Ü¼ÒºÀ/.iotlink/sdk/IoT_LINK/iot_link/network/lwm2m/wakaama_lwm2m/wakaama-master/core\data.c ****     {
 239:C:/Users/²Ü¼ÒºÀ/.iotlink/sdk/IoT_LINK/iot_link/network/lwm2m/wakaama_lwm2m/wakaama-master/core\data.c ****         len = 0;
 240:C:/Users/²Ü¼ÒºÀ/.iotlink/sdk/IoT_LINK/iot_link/network/lwm2m/wakaama_lwm2m/wakaama-master/core\data.c ****     }
 241:C:/Users/²Ü¼ÒºÀ/.iotlink/sdk/IoT_LINK/iot_link/network/lwm2m/wakaama_lwm2m/wakaama-master/core\data.c ****     else
 242:C:/Users/²Ü¼ÒºÀ/.iotlink/sdk/IoT_LINK/iot_link/network/lwm2m/wakaama_lwm2m/wakaama-master/core\data.c ****     {
 243:C:/Users/²Ü¼ÒºÀ/.iotlink/sdk/IoT_LINK/iot_link/network/lwm2m/wakaama_lwm2m/wakaama-master/core\data.c ****         for (len = 0; string[len] != 0; len++);
 488              		.loc 1 243 18 view .LVU110
 489 0046 0022     		movs	r2, #0
 490              	.L38:
 491              	.LVL43:
 492              		.loc 1 243 23 is_stmt 1 discriminator 1 view .LVU111
 493              		.loc 1 243 29 is_stmt 0 discriminator 1 view .LVU112
 494 0048 AE5C     		ldrb	r6, [r5, r2]	@ zero_extendqisi2
 495              		.loc 1 243 9 discriminator 1 view .LVU113
 496 004a 3EB9     		cbnz	r6, .L39
 244:C:/Users/²Ü¼ÒºÀ/.iotlink/sdk/IoT_LINK/iot_link/network/lwm2m/wakaama_lwm2m/wakaama-master/core\data.c ****     }
 245:C:/Users/²Ü¼ÒºÀ/.iotlink/sdk/IoT_LINK/iot_link/network/lwm2m/wakaama_lwm2m/wakaama-master/core\data.c **** 
 246:C:/Users/²Ü¼ÒºÀ/.iotlink/sdk/IoT_LINK/iot_link/network/lwm2m/wakaama_lwm2m/wakaama-master/core\data.c ****     if (len == 0)
 497              		.loc 1 246 5 is_stmt 1 view .LVU114
 498              		.loc 1 246 8 is_stmt 0 view .LVU115
 499 004c 42B9     		cbnz	r2, .L40
 500              	.LVL44:
 501              	.L37:
 247:C:/Users/²Ü¼ÒºÀ/.iotlink/sdk/IoT_LINK/iot_link/network/lwm2m/wakaama_lwm2m/wakaama-master/core\data.c ****     {
 248:C:/Users/²Ü¼ÒºÀ/.iotlink/sdk/IoT_LINK/iot_link/network/lwm2m/wakaama_lwm2m/wakaama-master/core\data.c ****         dataP->value.asBuffer.length = 0;
 502              		.loc 1 248 9 is_stmt 1 view .LVU116
 503              		.loc 1 248 38 is_stmt 0 view .LVU117
 504 004e 0023     		movs	r3, #0
 249:C:/Users/²Ü¼ÒºÀ/.iotlink/sdk/IoT_LINK/iot_link/network/lwm2m/wakaama_lwm2m/wakaama-master/core\data.c ****         dataP->value.asBuffer.buffer = NULL;
 505              		.loc 1 249 38 view .LVU118
 506 0050 C4E90233 		strd	r3, r3, [r4, #8]
 250:C:/Users/²Ü¼ÒºÀ/.iotlink/sdk/IoT_LINK/iot_link/network/lwm2m/wakaama_lwm2m/wakaama-master/core\data.c ****         res = 1;
 507              		.loc 1 250 9 is_stmt 1 view .LVU119
 508              	.LVL45:
 251:C:/Users/²Ü¼ÒºÀ/.iotlink/sdk/IoT_LINK/iot_link/network/lwm2m/wakaama_lwm2m/wakaama-master/core\data.c ****     }
 252:C:/Users/²Ü¼ÒºÀ/.iotlink/sdk/IoT_LINK/iot_link/network/lwm2m/wakaama_lwm2m/wakaama-master/core\data.c ****     else
 253:C:/Users/²Ü¼ÒºÀ/.iotlink/sdk/IoT_LINK/iot_link/network/lwm2m/wakaama_lwm2m/wakaama-master/core\data.c ****     {
 254:C:/Users/²Ü¼ÒºÀ/.iotlink/sdk/IoT_LINK/iot_link/network/lwm2m/wakaama_lwm2m/wakaama-master/core\data.c ****         res = prv_setBuffer(dataP, (uint8_t *)string, len);
 255:C:/Users/²Ü¼ÒºÀ/.iotlink/sdk/IoT_LINK/iot_link/network/lwm2m/wakaama_lwm2m/wakaama-master/core\data.c ****     }
 256:C:/Users/²Ü¼ÒºÀ/.iotlink/sdk/IoT_LINK/iot_link/network/lwm2m/wakaama_lwm2m/wakaama-master/core\data.c **** 
 257:C:/Users/²Ü¼ÒºÀ/.iotlink/sdk/IoT_LINK/iot_link/network/lwm2m/wakaama_lwm2m/wakaama-master/core\data.c ****     if (res == 1)
 509              		.loc 1 257 5 view .LVU120
ARM GAS  C:\Users\²Ü¼ÒºÀ\AppData\Local\Temp\cc2xoMwd.s 			page 15


 258:C:/Users/²Ü¼ÒºÀ/.iotlink/sdk/IoT_LINK/iot_link/network/lwm2m/wakaama_lwm2m/wakaama-master/core\data.c ****     {
 259:C:/Users/²Ü¼ÒºÀ/.iotlink/sdk/IoT_LINK/iot_link/network/lwm2m/wakaama_lwm2m/wakaama-master/core\data.c ****         dataP->type = LWM2M_TYPE_STRING;
 510              		.loc 1 259 21 is_stmt 0 view .LVU121
 511 0054 0426     		movs	r6, #4
 512              	.LVL46:
 513              	.L41:
 514              		.loc 1 259 21 view .LVU122
 515 0056 2670     		strb	r6, [r4]
 260:C:/Users/²Ü¼ÒºÀ/.iotlink/sdk/IoT_LINK/iot_link/network/lwm2m/wakaama_lwm2m/wakaama-master/core\data.c ****     }
 261:C:/Users/²Ü¼ÒºÀ/.iotlink/sdk/IoT_LINK/iot_link/network/lwm2m/wakaama_lwm2m/wakaama-master/core\data.c ****     else
 262:C:/Users/²Ü¼ÒºÀ/.iotlink/sdk/IoT_LINK/iot_link/network/lwm2m/wakaama_lwm2m/wakaama-master/core\data.c ****     {
 263:C:/Users/²Ü¼ÒºÀ/.iotlink/sdk/IoT_LINK/iot_link/network/lwm2m/wakaama_lwm2m/wakaama-master/core\data.c ****         dataP->type = LWM2M_TYPE_UNDEFINED;
 264:C:/Users/²Ü¼ÒºÀ/.iotlink/sdk/IoT_LINK/iot_link/network/lwm2m/wakaama_lwm2m/wakaama-master/core\data.c ****     }
 265:C:/Users/²Ü¼ÒºÀ/.iotlink/sdk/IoT_LINK/iot_link/network/lwm2m/wakaama_lwm2m/wakaama-master/core\data.c **** }
 516              		.loc 1 265 1 view .LVU123
 517 0058 06B0     		add	sp, sp, #24
 518              	.LCFI14:
 519              		.cfi_remember_state
 520              		.cfi_def_cfa_offset 16
 521              		@ sp needed
 522 005a 70BD     		pop	{r4, r5, r6, pc}
 523              	.LVL47:
 524              	.L39:
 525              	.LCFI15:
 526              		.cfi_restore_state
 243:C:/Users/²Ü¼ÒºÀ/.iotlink/sdk/IoT_LINK/iot_link/network/lwm2m/wakaama_lwm2m/wakaama-master/core\data.c ****     }
 527              		.loc 1 243 47 is_stmt 1 discriminator 3 view .LVU124
 243:C:/Users/²Ü¼ÒºÀ/.iotlink/sdk/IoT_LINK/iot_link/network/lwm2m/wakaama_lwm2m/wakaama-master/core\data.c ****     }
 528              		.loc 1 243 41 discriminator 3 view .LVU125
 243:C:/Users/²Ü¼ÒºÀ/.iotlink/sdk/IoT_LINK/iot_link/network/lwm2m/wakaama_lwm2m/wakaama-master/core\data.c ****     }
 529              		.loc 1 243 44 is_stmt 0 discriminator 3 view .LVU126
 530 005c 0132     		adds	r2, r2, #1
 531              	.LVL48:
 243:C:/Users/²Ü¼ÒºÀ/.iotlink/sdk/IoT_LINK/iot_link/network/lwm2m/wakaama_lwm2m/wakaama-master/core\data.c ****     }
 532              		.loc 1 243 44 discriminator 3 view .LVU127
 533 005e F3E7     		b	.L38
 534              	.L40:
 254:C:/Users/²Ü¼ÒºÀ/.iotlink/sdk/IoT_LINK/iot_link/network/lwm2m/wakaama_lwm2m/wakaama-master/core\data.c ****     }
 535              		.loc 1 254 9 is_stmt 1 view .LVU128
 254:C:/Users/²Ü¼ÒºÀ/.iotlink/sdk/IoT_LINK/iot_link/network/lwm2m/wakaama_lwm2m/wakaama-master/core\data.c ****     }
 536              		.loc 1 254 15 is_stmt 0 view .LVU129
 537 0060 2946     		mov	r1, r5
 538 0062 2046     		mov	r0, r4
 539 0064 FFF7FEFF 		bl	prv_setBuffer
 540              	.LVL49:
 257:C:/Users/²Ü¼ÒºÀ/.iotlink/sdk/IoT_LINK/iot_link/network/lwm2m/wakaama_lwm2m/wakaama-master/core\data.c ****     {
 541              		.loc 1 257 5 is_stmt 1 view .LVU130
 259:C:/Users/²Ü¼ÒºÀ/.iotlink/sdk/IoT_LINK/iot_link/network/lwm2m/wakaama_lwm2m/wakaama-master/core\data.c ****     }
 542              		.loc 1 259 21 is_stmt 0 view .LVU131
 543 0068 0128     		cmp	r0, #1
 544 006a 08BF     		it	eq
 545 006c 0426     		moveq	r6, #4
 546 006e F2E7     		b	.L41
 547              	.L46:
 548              		.align	2
 549              	.L45:
 550 0070 00000000 		.word	.LANCHOR5
ARM GAS  C:\Users\²Ü¼ÒºÀ\AppData\Local\Temp\cc2xoMwd.s 			page 16


 551 0074 00000000 		.word	.LANCHOR4
 552 0078 00000000 		.word	.LC1
 553 007c 00000000 		.word	_impure_ptr
 554              		.cfi_endproc
 555              	.LFE9:
 557              		.section	.rodata.lwm2m_data_encode_opaque.str1.1,"aMS",%progbits,1
 558              	.LC2:
 559 0000 5B25735D 		.ascii	"[%s][%u][%s] [%d][%s:%d] length: %d\015\012\015\012"
 559      5B25755D 
 559      5B25735D 
 559      205B2564 
 559      5D5B2573 
 560 0027 00       		.ascii	"\000"
 561              		.section	.text.lwm2m_data_encode_opaque,"ax",%progbits
 562              		.align	1
 563              		.global	lwm2m_data_encode_opaque
 564              		.syntax unified
 565              		.thumb
 566              		.thumb_func
 567              		.fpu fpv4-sp-d16
 569              	lwm2m_data_encode_opaque:
 570              	.LVL50:
 571              	.LFB10:
 266:C:/Users/²Ü¼ÒºÀ/.iotlink/sdk/IoT_LINK/iot_link/network/lwm2m/wakaama_lwm2m/wakaama-master/core\data.c **** 
 267:C:/Users/²Ü¼ÒºÀ/.iotlink/sdk/IoT_LINK/iot_link/network/lwm2m/wakaama_lwm2m/wakaama-master/core\data.c **** void lwm2m_data_encode_opaque(uint8_t *buffer,
 268:C:/Users/²Ü¼ÒºÀ/.iotlink/sdk/IoT_LINK/iot_link/network/lwm2m/wakaama_lwm2m/wakaama-master/core\data.c ****                               size_t length,
 269:C:/Users/²Ü¼ÒºÀ/.iotlink/sdk/IoT_LINK/iot_link/network/lwm2m/wakaama_lwm2m/wakaama-master/core\data.c ****                               lwm2m_data_t *dataP)
 270:C:/Users/²Ü¼ÒºÀ/.iotlink/sdk/IoT_LINK/iot_link/network/lwm2m/wakaama_lwm2m/wakaama-master/core\data.c **** {
 572              		.loc 1 270 1 is_stmt 1 view -0
 573              		.cfi_startproc
 574              		@ args = 0, pretend = 0, frame = 8
 575              		@ frame_needed = 0, uses_anonymous_args = 0
 271:C:/Users/²Ü¼ÒºÀ/.iotlink/sdk/IoT_LINK/iot_link/network/lwm2m/wakaama_lwm2m/wakaama-master/core\data.c ****     int res;
 576              		.loc 1 271 5 view .LVU133
 272:C:/Users/²Ü¼ÒºÀ/.iotlink/sdk/IoT_LINK/iot_link/network/lwm2m/wakaama_lwm2m/wakaama-master/core\data.c **** 
 273:C:/Users/²Ü¼ÒºÀ/.iotlink/sdk/IoT_LINK/iot_link/network/lwm2m/wakaama_lwm2m/wakaama-master/core\data.c ****     LOG_ARG("length: %d", length);
 577              		.loc 1 273 5 view .LVU134
 578              		.loc 1 273 5 view .LVU135
 270:C:/Users/²Ü¼ÒºÀ/.iotlink/sdk/IoT_LINK/iot_link/network/lwm2m/wakaama_lwm2m/wakaama-master/core\data.c ****     int res;
 579              		.loc 1 270 1 is_stmt 0 view .LVU136
 580 0000 F0B5     		push	{r4, r5, r6, r7, lr}
 581              	.LCFI16:
 582              		.cfi_def_cfa_offset 20
 583              		.cfi_offset 4, -20
 584              		.cfi_offset 5, -16
 585              		.cfi_offset 6, -12
 586              		.cfi_offset 7, -8
 587              		.cfi_offset 14, -4
 588 0002 87B0     		sub	sp, sp, #28
 589              	.LCFI17:
 590              		.cfi_def_cfa_offset 48
 270:C:/Users/²Ü¼ÒºÀ/.iotlink/sdk/IoT_LINK/iot_link/network/lwm2m/wakaama_lwm2m/wakaama-master/core\data.c ****     int res;
 591              		.loc 1 270 1 view .LVU137
 592 0004 0646     		mov	r6, r0
 593 0006 0C46     		mov	r4, r1
 594 0008 1546     		mov	r5, r2
 595              		.loc 1 273 5 view .LVU138
ARM GAS  C:\Users\²Ü¼ÒºÀ\AppData\Local\Temp\cc2xoMwd.s 			page 17


 596 000a FFF7FEFF 		bl	link_log_level_get
 597              	.LVL51:
 598              		.loc 1 273 5 view .LVU139
 599 000e 0128     		cmp	r0, #1
 600 0010 1AD8     		bhi	.L48
 601              		.loc 1 273 5 is_stmt 1 discriminator 1 view .LVU140
 602              		.loc 1 273 5 discriminator 1 view .LVU141
 603              		.loc 1 273 5 discriminator 1 view .LVU142
 604 0012 0120     		movs	r0, #1
 605 0014 FFF7FEFF 		bl	link_log_level_name
 606              	.LVL52:
 607 0018 0746     		mov	r7, r0
 608 001a FFF7FEFF 		bl	osal_sys_time
 609              	.LVL53:
 610 001e 0590     		str	r0, [sp, #20]
 611 0020 FFF7FEFF 		bl	lwm2m_gettime
 612              	.LVL54:
 613 0024 40F21113 		movw	r3, #273
 614 0028 0293     		str	r3, [sp, #8]
 615 002a 104B     		ldr	r3, .L52
 616 002c 059A     		ldr	r2, [sp, #20]
 617 002e 0394     		str	r4, [sp, #12]
 618 0030 CDE90003 		strd	r0, r3, [sp]
 619 0034 3946     		mov	r1, r7
 620 0036 0E4B     		ldr	r3, .L52+4
 621 0038 0E48     		ldr	r0, .L52+8
 622 003a FFF7FEFF 		bl	printf
 623              	.LVL55:
 624              		.loc 1 273 5 discriminator 1 view .LVU143
 625 003e 0E4B     		ldr	r3, .L52+12
 626 0040 1B68     		ldr	r3, [r3]
 627 0042 9868     		ldr	r0, [r3, #8]
 628 0044 FFF7FEFF 		bl	fflush
 629              	.LVL56:
 630              	.L48:
 631              		.loc 1 273 5 discriminator 3 view .LVU144
 632              		.loc 1 273 5 discriminator 3 view .LVU145
 633              		.loc 1 273 5 discriminator 3 view .LVU146
 274:C:/Users/²Ü¼ÒºÀ/.iotlink/sdk/IoT_LINK/iot_link/network/lwm2m/wakaama_lwm2m/wakaama-master/core\data.c ****     if (length == 0)
 634              		.loc 1 274 5 discriminator 3 view .LVU147
 635              		.loc 1 274 8 is_stmt 0 discriminator 3 view .LVU148
 636 0048 2CB9     		cbnz	r4, .L49
 275:C:/Users/²Ü¼ÒºÀ/.iotlink/sdk/IoT_LINK/iot_link/network/lwm2m/wakaama_lwm2m/wakaama-master/core\data.c ****     {
 276:C:/Users/²Ü¼ÒºÀ/.iotlink/sdk/IoT_LINK/iot_link/network/lwm2m/wakaama_lwm2m/wakaama-master/core\data.c ****         dataP->value.asBuffer.length = 0;
 637              		.loc 1 276 9 is_stmt 1 view .LVU149
 277:C:/Users/²Ü¼ÒºÀ/.iotlink/sdk/IoT_LINK/iot_link/network/lwm2m/wakaama_lwm2m/wakaama-master/core\data.c ****         dataP->value.asBuffer.buffer = NULL;
 638              		.loc 1 277 38 is_stmt 0 view .LVU150
 639 004a C5E90244 		strd	r4, r4, [r5, #8]
 278:C:/Users/²Ü¼ÒºÀ/.iotlink/sdk/IoT_LINK/iot_link/network/lwm2m/wakaama_lwm2m/wakaama-master/core\data.c ****         res = 1;
 640              		.loc 1 278 9 is_stmt 1 view .LVU151
 641              	.LVL57:
 279:C:/Users/²Ü¼ÒºÀ/.iotlink/sdk/IoT_LINK/iot_link/network/lwm2m/wakaama_lwm2m/wakaama-master/core\data.c ****     }
 280:C:/Users/²Ü¼ÒºÀ/.iotlink/sdk/IoT_LINK/iot_link/network/lwm2m/wakaama_lwm2m/wakaama-master/core\data.c ****     else
 281:C:/Users/²Ü¼ÒºÀ/.iotlink/sdk/IoT_LINK/iot_link/network/lwm2m/wakaama_lwm2m/wakaama-master/core\data.c ****     {
 282:C:/Users/²Ü¼ÒºÀ/.iotlink/sdk/IoT_LINK/iot_link/network/lwm2m/wakaama_lwm2m/wakaama-master/core\data.c ****         res = prv_setBuffer(dataP, buffer, length);
 283:C:/Users/²Ü¼ÒºÀ/.iotlink/sdk/IoT_LINK/iot_link/network/lwm2m/wakaama_lwm2m/wakaama-master/core\data.c ****     }
 284:C:/Users/²Ü¼ÒºÀ/.iotlink/sdk/IoT_LINK/iot_link/network/lwm2m/wakaama_lwm2m/wakaama-master/core\data.c **** 
ARM GAS  C:\Users\²Ü¼ÒºÀ\AppData\Local\Temp\cc2xoMwd.s 			page 18


 285:C:/Users/²Ü¼ÒºÀ/.iotlink/sdk/IoT_LINK/iot_link/network/lwm2m/wakaama_lwm2m/wakaama-master/core\data.c ****     if (res == 1)
 642              		.loc 1 285 5 view .LVU152
 286:C:/Users/²Ü¼ÒºÀ/.iotlink/sdk/IoT_LINK/iot_link/network/lwm2m/wakaama_lwm2m/wakaama-master/core\data.c ****     {
 287:C:/Users/²Ü¼ÒºÀ/.iotlink/sdk/IoT_LINK/iot_link/network/lwm2m/wakaama_lwm2m/wakaama-master/core\data.c ****         dataP->type = LWM2M_TYPE_OPAQUE;
 643              		.loc 1 287 21 is_stmt 0 view .LVU153
 644 004e 0523     		movs	r3, #5
 645              	.LVL58:
 646              	.L50:
 647              		.loc 1 287 21 view .LVU154
 648 0050 2B70     		strb	r3, [r5]
 288:C:/Users/²Ü¼ÒºÀ/.iotlink/sdk/IoT_LINK/iot_link/network/lwm2m/wakaama_lwm2m/wakaama-master/core\data.c ****     }
 289:C:/Users/²Ü¼ÒºÀ/.iotlink/sdk/IoT_LINK/iot_link/network/lwm2m/wakaama_lwm2m/wakaama-master/core\data.c ****     else
 290:C:/Users/²Ü¼ÒºÀ/.iotlink/sdk/IoT_LINK/iot_link/network/lwm2m/wakaama_lwm2m/wakaama-master/core\data.c ****     {
 291:C:/Users/²Ü¼ÒºÀ/.iotlink/sdk/IoT_LINK/iot_link/network/lwm2m/wakaama_lwm2m/wakaama-master/core\data.c ****         dataP->type = LWM2M_TYPE_UNDEFINED;
 292:C:/Users/²Ü¼ÒºÀ/.iotlink/sdk/IoT_LINK/iot_link/network/lwm2m/wakaama_lwm2m/wakaama-master/core\data.c ****     }
 293:C:/Users/²Ü¼ÒºÀ/.iotlink/sdk/IoT_LINK/iot_link/network/lwm2m/wakaama_lwm2m/wakaama-master/core\data.c **** }
 649              		.loc 1 293 1 view .LVU155
 650 0052 07B0     		add	sp, sp, #28
 651              	.LCFI18:
 652              		.cfi_remember_state
 653              		.cfi_def_cfa_offset 20
 654              		@ sp needed
 655 0054 F0BD     		pop	{r4, r5, r6, r7, pc}
 656              	.LVL59:
 657              	.L49:
 658              	.LCFI19:
 659              		.cfi_restore_state
 282:C:/Users/²Ü¼ÒºÀ/.iotlink/sdk/IoT_LINK/iot_link/network/lwm2m/wakaama_lwm2m/wakaama-master/core\data.c ****     }
 660              		.loc 1 282 9 is_stmt 1 view .LVU156
 282:C:/Users/²Ü¼ÒºÀ/.iotlink/sdk/IoT_LINK/iot_link/network/lwm2m/wakaama_lwm2m/wakaama-master/core\data.c ****     }
 661              		.loc 1 282 15 is_stmt 0 view .LVU157
 662 0056 2246     		mov	r2, r4
 663 0058 3146     		mov	r1, r6
 664 005a 2846     		mov	r0, r5
 665 005c FFF7FEFF 		bl	prv_setBuffer
 666              	.LVL60:
 285:C:/Users/²Ü¼ÒºÀ/.iotlink/sdk/IoT_LINK/iot_link/network/lwm2m/wakaama_lwm2m/wakaama-master/core\data.c ****     {
 667              		.loc 1 285 5 is_stmt 1 view .LVU158
 285:C:/Users/²Ü¼ÒºÀ/.iotlink/sdk/IoT_LINK/iot_link/network/lwm2m/wakaama_lwm2m/wakaama-master/core\data.c ****     {
 668              		.loc 1 285 8 is_stmt 0 view .LVU159
 669 0060 0128     		cmp	r0, #1
 287:C:/Users/²Ü¼ÒºÀ/.iotlink/sdk/IoT_LINK/iot_link/network/lwm2m/wakaama_lwm2m/wakaama-master/core\data.c ****     }
 670              		.loc 1 287 21 view .LVU160
 671 0062 14BF     		ite	ne
 672 0064 0023     		movne	r3, #0
 673 0066 0523     		moveq	r3, #5
 674 0068 F2E7     		b	.L50
 675              	.L53:
 676 006a 00BF     		.align	2
 677              	.L52:
 678 006c 00000000 		.word	.LANCHOR7
 679 0070 00000000 		.word	.LANCHOR6
 680 0074 00000000 		.word	.LC2
 681 0078 00000000 		.word	_impure_ptr
 682              		.cfi_endproc
 683              	.LFE10:
 685              		.section	.rodata.lwm2m_data_encode_nstring.str1.1,"aMS",%progbits,1
ARM GAS  C:\Users\²Ü¼ÒºÀ\AppData\Local\Temp\cc2xoMwd.s 			page 19


 686              	.LC3:
 687 0000 5B25735D 		.ascii	"[%s][%u][%s] [%d][%s:%d] length: %d, string: \"%s\""
 687      5B25755D 
 687      5B25735D 
 687      205B2564 
 687      5D5B2573 
 688 0031 0D0A0D0A 		.ascii	"\015\012\015\012\000"
 688      00
 689              		.section	.text.lwm2m_data_encode_nstring,"ax",%progbits
 690              		.align	1
 691              		.global	lwm2m_data_encode_nstring
 692              		.syntax unified
 693              		.thumb
 694              		.thumb_func
 695              		.fpu fpv4-sp-d16
 697              	lwm2m_data_encode_nstring:
 698              	.LVL61:
 699              	.LFB11:
 294:C:/Users/²Ü¼ÒºÀ/.iotlink/sdk/IoT_LINK/iot_link/network/lwm2m/wakaama_lwm2m/wakaama-master/core\data.c **** 
 295:C:/Users/²Ü¼ÒºÀ/.iotlink/sdk/IoT_LINK/iot_link/network/lwm2m/wakaama_lwm2m/wakaama-master/core\data.c **** void lwm2m_data_encode_nstring(const char *string,
 296:C:/Users/²Ü¼ÒºÀ/.iotlink/sdk/IoT_LINK/iot_link/network/lwm2m/wakaama_lwm2m/wakaama-master/core\data.c ****                                size_t length,
 297:C:/Users/²Ü¼ÒºÀ/.iotlink/sdk/IoT_LINK/iot_link/network/lwm2m/wakaama_lwm2m/wakaama-master/core\data.c ****                                lwm2m_data_t *dataP)
 298:C:/Users/²Ü¼ÒºÀ/.iotlink/sdk/IoT_LINK/iot_link/network/lwm2m/wakaama_lwm2m/wakaama-master/core\data.c **** {
 700              		.loc 1 298 1 is_stmt 1 view -0
 701              		.cfi_startproc
 702              		@ args = 0, pretend = 0, frame = 8
 703              		@ frame_needed = 0, uses_anonymous_args = 0
 299:C:/Users/²Ü¼ÒºÀ/.iotlink/sdk/IoT_LINK/iot_link/network/lwm2m/wakaama_lwm2m/wakaama-master/core\data.c ****     LOG_ARG("length: %d, string: \"%s\"", length, string);
 704              		.loc 1 299 5 view .LVU162
 705              		.loc 1 299 5 view .LVU163
 298:C:/Users/²Ü¼ÒºÀ/.iotlink/sdk/IoT_LINK/iot_link/network/lwm2m/wakaama_lwm2m/wakaama-master/core\data.c ****     LOG_ARG("length: %d, string: \"%s\"", length, string);
 706              		.loc 1 298 1 is_stmt 0 view .LVU164
 707 0000 F0B5     		push	{r4, r5, r6, r7, lr}
 708              	.LCFI20:
 709              		.cfi_def_cfa_offset 20
 710              		.cfi_offset 4, -20
 711              		.cfi_offset 5, -16
 712              		.cfi_offset 6, -12
 713              		.cfi_offset 7, -8
 714              		.cfi_offset 14, -4
 715 0002 89B0     		sub	sp, sp, #36
 716              	.LCFI21:
 717              		.cfi_def_cfa_offset 56
 298:C:/Users/²Ü¼ÒºÀ/.iotlink/sdk/IoT_LINK/iot_link/network/lwm2m/wakaama_lwm2m/wakaama-master/core\data.c ****     LOG_ARG("length: %d, string: \"%s\"", length, string);
 718              		.loc 1 298 1 view .LVU165
 719 0004 0546     		mov	r5, r0
 720 0006 0E46     		mov	r6, r1
 721 0008 1446     		mov	r4, r2
 722              		.loc 1 299 5 view .LVU166
 723 000a FFF7FEFF 		bl	link_log_level_get
 724              	.LVL62:
 725              		.loc 1 299 5 view .LVU167
 726 000e 0128     		cmp	r0, #1
 727 0010 1BD8     		bhi	.L55
 728              		.loc 1 299 5 is_stmt 1 discriminator 1 view .LVU168
 729              		.loc 1 299 5 discriminator 1 view .LVU169
 730              		.loc 1 299 5 discriminator 1 view .LVU170
ARM GAS  C:\Users\²Ü¼ÒºÀ\AppData\Local\Temp\cc2xoMwd.s 			page 20


 731 0012 0120     		movs	r0, #1
 732 0014 FFF7FEFF 		bl	link_log_level_name
 733              	.LVL63:
 734 0018 0746     		mov	r7, r0
 735 001a FFF7FEFF 		bl	osal_sys_time
 736              	.LVL64:
 737 001e 0790     		str	r0, [sp, #28]
 738 0020 FFF7FEFF 		bl	lwm2m_gettime
 739              	.LVL65:
 740 0024 40F22B13 		movw	r3, #299
 741 0028 0293     		str	r3, [sp, #8]
 742 002a 0E4B     		ldr	r3, .L57
 743 002c 079A     		ldr	r2, [sp, #28]
 744 002e CDE90003 		strd	r0, r3, [sp]
 745 0032 CDE90365 		strd	r6, r5, [sp, #12]
 746 0036 0C4B     		ldr	r3, .L57+4
 747 0038 0C48     		ldr	r0, .L57+8
 748 003a 3946     		mov	r1, r7
 749 003c FFF7FEFF 		bl	printf
 750              	.LVL66:
 751              		.loc 1 299 5 discriminator 1 view .LVU171
 752 0040 0B4B     		ldr	r3, .L57+12
 753 0042 1B68     		ldr	r3, [r3]
 754 0044 9868     		ldr	r0, [r3, #8]
 755 0046 FFF7FEFF 		bl	fflush
 756              	.LVL67:
 757              	.L55:
 758              		.loc 1 299 5 discriminator 3 view .LVU172
 759              		.loc 1 299 5 discriminator 3 view .LVU173
 760              		.loc 1 299 5 discriminator 3 view .LVU174
 300:C:/Users/²Ü¼ÒºÀ/.iotlink/sdk/IoT_LINK/iot_link/network/lwm2m/wakaama_lwm2m/wakaama-master/core\data.c ****     lwm2m_data_encode_opaque((uint8_t *)string, length, dataP);
 761              		.loc 1 300 5 discriminator 3 view .LVU175
 762 004a 2246     		mov	r2, r4
 763 004c 3146     		mov	r1, r6
 764 004e 2846     		mov	r0, r5
 765 0050 FFF7FEFF 		bl	lwm2m_data_encode_opaque
 766              	.LVL68:
 301:C:/Users/²Ü¼ÒºÀ/.iotlink/sdk/IoT_LINK/iot_link/network/lwm2m/wakaama_lwm2m/wakaama-master/core\data.c **** 
 302:C:/Users/²Ü¼ÒºÀ/.iotlink/sdk/IoT_LINK/iot_link/network/lwm2m/wakaama_lwm2m/wakaama-master/core\data.c ****     if (dataP->type == LWM2M_TYPE_OPAQUE)
 767              		.loc 1 302 5 discriminator 3 view .LVU176
 768              		.loc 1 302 8 is_stmt 0 discriminator 3 view .LVU177
 769 0054 2378     		ldrb	r3, [r4]	@ zero_extendqisi2
 770 0056 052B     		cmp	r3, #5
 303:C:/Users/²Ü¼ÒºÀ/.iotlink/sdk/IoT_LINK/iot_link/network/lwm2m/wakaama_lwm2m/wakaama-master/core\data.c ****     {
 304:C:/Users/²Ü¼ÒºÀ/.iotlink/sdk/IoT_LINK/iot_link/network/lwm2m/wakaama_lwm2m/wakaama-master/core\data.c ****         dataP->type = LWM2M_TYPE_STRING;
 771              		.loc 1 304 9 is_stmt 1 discriminator 3 view .LVU178
 772              		.loc 1 304 21 is_stmt 0 discriminator 3 view .LVU179
 773 0058 04BF     		itt	eq
 774 005a 0423     		moveq	r3, #4
 775 005c 2370     		strbeq	r3, [r4]
 305:C:/Users/²Ü¼ÒºÀ/.iotlink/sdk/IoT_LINK/iot_link/network/lwm2m/wakaama_lwm2m/wakaama-master/core\data.c ****     }
 306:C:/Users/²Ü¼ÒºÀ/.iotlink/sdk/IoT_LINK/iot_link/network/lwm2m/wakaama_lwm2m/wakaama-master/core\data.c **** }
 776              		.loc 1 306 1 discriminator 3 view .LVU180
 777 005e 09B0     		add	sp, sp, #36
 778              	.LCFI22:
 779              		.cfi_def_cfa_offset 20
 780              		@ sp needed
ARM GAS  C:\Users\²Ü¼ÒºÀ\AppData\Local\Temp\cc2xoMwd.s 			page 21


 781 0060 F0BD     		pop	{r4, r5, r6, r7, pc}
 782              	.LVL69:
 783              	.L58:
 784              		.loc 1 306 1 discriminator 3 view .LVU181
 785 0062 00BF     		.align	2
 786              	.L57:
 787 0064 00000000 		.word	.LANCHOR9
 788 0068 00000000 		.word	.LANCHOR8
 789 006c 00000000 		.word	.LC3
 790 0070 00000000 		.word	_impure_ptr
 791              		.cfi_endproc
 792              	.LFE11:
 794              		.section	.rodata.lwm2m_data_encode_int.str1.1,"aMS",%progbits,1
 795              	.LC4:
 796 0000 5B25735D 		.ascii	"[%s][%u][%s] [%d][%s:%d] value: %lld\015\012\015\012"
 796      5B25755D 
 796      5B25735D 
 796      205B2564 
 796      5D5B2573 
 797 0028 00       		.ascii	"\000"
 798              		.section	.text.lwm2m_data_encode_int,"ax",%progbits
 799              		.align	1
 800              		.global	lwm2m_data_encode_int
 801              		.syntax unified
 802              		.thumb
 803              		.thumb_func
 804              		.fpu fpv4-sp-d16
 806              	lwm2m_data_encode_int:
 807              	.LVL70:
 808              	.LFB12:
 307:C:/Users/²Ü¼ÒºÀ/.iotlink/sdk/IoT_LINK/iot_link/network/lwm2m/wakaama_lwm2m/wakaama-master/core\data.c **** 
 308:C:/Users/²Ü¼ÒºÀ/.iotlink/sdk/IoT_LINK/iot_link/network/lwm2m/wakaama_lwm2m/wakaama-master/core\data.c **** void lwm2m_data_encode_int(int64_t value,
 309:C:/Users/²Ü¼ÒºÀ/.iotlink/sdk/IoT_LINK/iot_link/network/lwm2m/wakaama_lwm2m/wakaama-master/core\data.c ****                            lwm2m_data_t *dataP)
 310:C:/Users/²Ü¼ÒºÀ/.iotlink/sdk/IoT_LINK/iot_link/network/lwm2m/wakaama_lwm2m/wakaama-master/core\data.c **** {
 809              		.loc 1 310 1 is_stmt 1 view -0
 810              		.cfi_startproc
 811              		@ args = 0, pretend = 0, frame = 8
 812              		@ frame_needed = 0, uses_anonymous_args = 0
 311:C:/Users/²Ü¼ÒºÀ/.iotlink/sdk/IoT_LINK/iot_link/network/lwm2m/wakaama_lwm2m/wakaama-master/core\data.c ****     LOG_ARG("value: %" PRId64 "", value);
 813              		.loc 1 311 5 view .LVU183
 814              		.loc 1 311 5 view .LVU184
 310:C:/Users/²Ü¼ÒºÀ/.iotlink/sdk/IoT_LINK/iot_link/network/lwm2m/wakaama_lwm2m/wakaama-master/core\data.c ****     LOG_ARG("value: %" PRId64 "", value);
 815              		.loc 1 310 1 is_stmt 0 view .LVU185
 816 0000 F0B5     		push	{r4, r5, r6, r7, lr}
 817              	.LCFI23:
 818              		.cfi_def_cfa_offset 20
 819              		.cfi_offset 4, -20
 820              		.cfi_offset 5, -16
 821              		.cfi_offset 6, -12
 822              		.cfi_offset 7, -8
 823              		.cfi_offset 14, -4
 824 0002 89B0     		sub	sp, sp, #36
 825              	.LCFI24:
 826              		.cfi_def_cfa_offset 56
 310:C:/Users/²Ü¼ÒºÀ/.iotlink/sdk/IoT_LINK/iot_link/network/lwm2m/wakaama_lwm2m/wakaama-master/core\data.c ****     LOG_ARG("value: %" PRId64 "", value);
 827              		.loc 1 310 1 view .LVU186
 828 0004 0646     		mov	r6, r0
ARM GAS  C:\Users\²Ü¼ÒºÀ\AppData\Local\Temp\cc2xoMwd.s 			page 22


 829 0006 0D46     		mov	r5, r1
 830 0008 1446     		mov	r4, r2
 831              		.loc 1 311 5 view .LVU187
 832 000a FFF7FEFF 		bl	link_log_level_get
 833              	.LVL71:
 834              		.loc 1 311 5 view .LVU188
 835 000e 0128     		cmp	r0, #1
 836 0010 1BD8     		bhi	.L60
 837              		.loc 1 311 5 is_stmt 1 discriminator 1 view .LVU189
 838              		.loc 1 311 5 discriminator 1 view .LVU190
 839              		.loc 1 311 5 discriminator 1 view .LVU191
 840 0012 0120     		movs	r0, #1
 841 0014 FFF7FEFF 		bl	link_log_level_name
 842              	.LVL72:
 843 0018 0746     		mov	r7, r0
 844 001a FFF7FEFF 		bl	osal_sys_time
 845              	.LVL73:
 846 001e 0790     		str	r0, [sp, #28]
 847 0020 FFF7FEFF 		bl	lwm2m_gettime
 848              	.LVL74:
 849 0024 40F23713 		movw	r3, #311
 850 0028 0293     		str	r3, [sp, #8]
 851 002a 0B4B     		ldr	r3, .L61
 852 002c 079A     		ldr	r2, [sp, #28]
 853 002e CDE90003 		strd	r0, r3, [sp]
 854 0032 CDE90465 		strd	r6, r5, [sp, #16]
 855 0036 094B     		ldr	r3, .L61+4
 856 0038 0948     		ldr	r0, .L61+8
 857 003a 3946     		mov	r1, r7
 858 003c FFF7FEFF 		bl	printf
 859              	.LVL75:
 860              		.loc 1 311 5 discriminator 1 view .LVU192
 861 0040 084B     		ldr	r3, .L61+12
 862 0042 1B68     		ldr	r3, [r3]
 863 0044 9868     		ldr	r0, [r3, #8]
 864 0046 FFF7FEFF 		bl	fflush
 865              	.LVL76:
 866              	.L60:
 867              		.loc 1 311 5 discriminator 3 view .LVU193
 868              		.loc 1 311 5 discriminator 3 view .LVU194
 869              		.loc 1 311 5 discriminator 3 view .LVU195
 312:C:/Users/²Ü¼ÒºÀ/.iotlink/sdk/IoT_LINK/iot_link/network/lwm2m/wakaama_lwm2m/wakaama-master/core\data.c ****     dataP->type = LWM2M_TYPE_INTEGER;
 870              		.loc 1 312 5 discriminator 3 view .LVU196
 871              		.loc 1 312 17 is_stmt 0 discriminator 3 view .LVU197
 872 004a 0623     		movs	r3, #6
 313:C:/Users/²Ü¼ÒºÀ/.iotlink/sdk/IoT_LINK/iot_link/network/lwm2m/wakaama_lwm2m/wakaama-master/core\data.c ****     dataP->value.asInteger = value;
 873              		.loc 1 313 28 discriminator 3 view .LVU198
 874 004c C4E90265 		strd	r6, r5, [r4, #8]
 312:C:/Users/²Ü¼ÒºÀ/.iotlink/sdk/IoT_LINK/iot_link/network/lwm2m/wakaama_lwm2m/wakaama-master/core\data.c ****     dataP->type = LWM2M_TYPE_INTEGER;
 875              		.loc 1 312 17 discriminator 3 view .LVU199
 876 0050 2370     		strb	r3, [r4]
 877              		.loc 1 313 5 is_stmt 1 discriminator 3 view .LVU200
 314:C:/Users/²Ü¼ÒºÀ/.iotlink/sdk/IoT_LINK/iot_link/network/lwm2m/wakaama_lwm2m/wakaama-master/core\data.c **** }
 878              		.loc 1 314 1 is_stmt 0 discriminator 3 view .LVU201
 879 0052 09B0     		add	sp, sp, #36
 880              	.LCFI25:
 881              		.cfi_def_cfa_offset 20
ARM GAS  C:\Users\²Ü¼ÒºÀ\AppData\Local\Temp\cc2xoMwd.s 			page 23


 882              		@ sp needed
 883 0054 F0BD     		pop	{r4, r5, r6, r7, pc}
 884              	.LVL77:
 885              	.L62:
 886              		.loc 1 314 1 discriminator 3 view .LVU202
 887 0056 00BF     		.align	2
 888              	.L61:
 889 0058 00000000 		.word	.LANCHOR11
 890 005c 00000000 		.word	.LANCHOR10
 891 0060 00000000 		.word	.LC4
 892 0064 00000000 		.word	_impure_ptr
 893              		.cfi_endproc
 894              	.LFE12:
 896              		.section	.rodata.lwm2m_data_decode_int.str1.1,"aMS",%progbits,1
 897              	.LC5:
 898 0000 5B25735D 		.ascii	"[%s][%u][%s] [%d][%s:%d] Entering\015\012\015\012\000"
 898      5B25755D 
 898      5B25735D 
 898      205B2564 
 898      5D5B2573 
 899              	.LC6:
 900 0026 5B25735D 		.ascii	"[%s][%u][%s] [%d][%s:%d] result: %d, value: %lld\015"
 900      5B25755D 
 900      5B25735D 
 900      205B2564 
 900      5D5B2573 
 901 0057 0A0D0A00 		.ascii	"\012\015\012\000"
 902              		.section	.text.lwm2m_data_decode_int,"ax",%progbits
 903              		.align	1
 904              		.global	lwm2m_data_decode_int
 905              		.syntax unified
 906              		.thumb
 907              		.thumb_func
 908              		.fpu fpv4-sp-d16
 910              	lwm2m_data_decode_int:
 911              	.LVL78:
 912              	.LFB13:
 315:C:/Users/²Ü¼ÒºÀ/.iotlink/sdk/IoT_LINK/iot_link/network/lwm2m/wakaama_lwm2m/wakaama-master/core\data.c **** 
 316:C:/Users/²Ü¼ÒºÀ/.iotlink/sdk/IoT_LINK/iot_link/network/lwm2m/wakaama_lwm2m/wakaama-master/core\data.c **** int lwm2m_data_decode_int(const lwm2m_data_t *dataP,
 317:C:/Users/²Ü¼ÒºÀ/.iotlink/sdk/IoT_LINK/iot_link/network/lwm2m/wakaama_lwm2m/wakaama-master/core\data.c ****                           int64_t *valueP)
 318:C:/Users/²Ü¼ÒºÀ/.iotlink/sdk/IoT_LINK/iot_link/network/lwm2m/wakaama_lwm2m/wakaama-master/core\data.c **** {
 913              		.loc 1 318 1 is_stmt 1 view -0
 914              		.cfi_startproc
 915              		@ args = 0, pretend = 0, frame = 16
 916              		@ frame_needed = 0, uses_anonymous_args = 0
 319:C:/Users/²Ü¼ÒºÀ/.iotlink/sdk/IoT_LINK/iot_link/network/lwm2m/wakaama_lwm2m/wakaama-master/core\data.c ****     int result;
 917              		.loc 1 319 5 view .LVU204
 320:C:/Users/²Ü¼ÒºÀ/.iotlink/sdk/IoT_LINK/iot_link/network/lwm2m/wakaama_lwm2m/wakaama-master/core\data.c **** 
 321:C:/Users/²Ü¼ÒºÀ/.iotlink/sdk/IoT_LINK/iot_link/network/lwm2m/wakaama_lwm2m/wakaama-master/core\data.c ****     LOG("Entering");
 918              		.loc 1 321 5 view .LVU205
 919              		.loc 1 321 5 view .LVU206
 318:C:/Users/²Ü¼ÒºÀ/.iotlink/sdk/IoT_LINK/iot_link/network/lwm2m/wakaama_lwm2m/wakaama-master/core\data.c ****     int result;
 920              		.loc 1 318 1 is_stmt 0 view .LVU207
 921 0000 2DE97043 		push	{r4, r5, r6, r8, r9, lr}
 922              	.LCFI26:
 923              		.cfi_def_cfa_offset 24
 924              		.cfi_offset 4, -24
ARM GAS  C:\Users\²Ü¼ÒºÀ\AppData\Local\Temp\cc2xoMwd.s 			page 24


 925              		.cfi_offset 5, -20
 926              		.cfi_offset 6, -16
 927              		.cfi_offset 8, -12
 928              		.cfi_offset 9, -8
 929              		.cfi_offset 14, -4
 930 0004 8AB0     		sub	sp, sp, #40
 931              	.LCFI27:
 932              		.cfi_def_cfa_offset 64
 318:C:/Users/²Ü¼ÒºÀ/.iotlink/sdk/IoT_LINK/iot_link/network/lwm2m/wakaama_lwm2m/wakaama-master/core\data.c ****     int result;
 933              		.loc 1 318 1 view .LVU208
 934 0006 0446     		mov	r4, r0
 935 0008 0D46     		mov	r5, r1
 936              		.loc 1 321 5 view .LVU209
 937 000a FFF7FEFF 		bl	link_log_level_get
 938              	.LVL79:
 939              		.loc 1 321 5 view .LVU210
 940 000e 0128     		cmp	r0, #1
 941 0010 19D8     		bhi	.L64
 942              		.loc 1 321 5 is_stmt 1 discriminator 1 view .LVU211
 943              		.loc 1 321 5 discriminator 1 view .LVU212
 944              		.loc 1 321 5 discriminator 1 view .LVU213
 945 0012 0120     		movs	r0, #1
 946 0014 FFF7FEFF 		bl	link_log_level_name
 947              	.LVL80:
 948 0018 0646     		mov	r6, r0
 949 001a FFF7FEFF 		bl	osal_sys_time
 950              	.LVL81:
 951 001e 0790     		str	r0, [sp, #28]
 952 0020 FFF7FEFF 		bl	lwm2m_gettime
 953              	.LVL82:
 954 0024 40F24113 		movw	r3, #321
 955 0028 0293     		str	r3, [sp, #8]
 956 002a 384B     		ldr	r3, .L79
 957 002c 079A     		ldr	r2, [sp, #28]
 958 002e CDE90003 		strd	r0, r3, [sp]
 959 0032 3146     		mov	r1, r6
 960 0034 364B     		ldr	r3, .L79+4
 961 0036 3748     		ldr	r0, .L79+8
 962 0038 FFF7FEFF 		bl	printf
 963              	.LVL83:
 964              		.loc 1 321 5 discriminator 1 view .LVU214
 965 003c 364B     		ldr	r3, .L79+12
 966 003e 1B68     		ldr	r3, [r3]
 967 0040 9868     		ldr	r0, [r3, #8]
 968 0042 FFF7FEFF 		bl	fflush
 969              	.LVL84:
 970              	.L64:
 971              		.loc 1 321 5 discriminator 3 view .LVU215
 972              		.loc 1 321 5 discriminator 3 view .LVU216
 973              		.loc 1 321 5 discriminator 3 view .LVU217
 322:C:/Users/²Ü¼ÒºÀ/.iotlink/sdk/IoT_LINK/iot_link/network/lwm2m/wakaama_lwm2m/wakaama-master/core\data.c ****     switch (dataP->type)
 974              		.loc 1 322 5 discriminator 3 view .LVU218
 975              		.loc 1 322 18 is_stmt 0 discriminator 3 view .LVU219
 976 0046 2378     		ldrb	r3, [r4]	@ zero_extendqisi2
 977              		.loc 1 322 5 discriminator 3 view .LVU220
 978 0048 052B     		cmp	r3, #5
 979 004a 38D0     		beq	.L65
ARM GAS  C:\Users\²Ü¼ÒºÀ\AppData\Local\Temp\cc2xoMwd.s 			page 25


 980              		.loc 1 322 5 view .LVU221
 981 004c 062B     		cmp	r3, #6
 982 004e 06D0     		beq	.L66
 983 0050 042B     		cmp	r3, #4
 984 0052 0AD0     		beq	.L67
 985 0054 0024     		movs	r4, #0
 986              	.LVL85:
 987              	.L63:
 323:C:/Users/²Ü¼ÒºÀ/.iotlink/sdk/IoT_LINK/iot_link/network/lwm2m/wakaama_lwm2m/wakaama-master/core\data.c ****     {
 324:C:/Users/²Ü¼ÒºÀ/.iotlink/sdk/IoT_LINK/iot_link/network/lwm2m/wakaama_lwm2m/wakaama-master/core\data.c ****     case LWM2M_TYPE_INTEGER:
 325:C:/Users/²Ü¼ÒºÀ/.iotlink/sdk/IoT_LINK/iot_link/network/lwm2m/wakaama_lwm2m/wakaama-master/core\data.c ****         *valueP = dataP->value.asInteger;
 326:C:/Users/²Ü¼ÒºÀ/.iotlink/sdk/IoT_LINK/iot_link/network/lwm2m/wakaama_lwm2m/wakaama-master/core\data.c ****         result = 1;
 327:C:/Users/²Ü¼ÒºÀ/.iotlink/sdk/IoT_LINK/iot_link/network/lwm2m/wakaama_lwm2m/wakaama-master/core\data.c ****         break;
 328:C:/Users/²Ü¼ÒºÀ/.iotlink/sdk/IoT_LINK/iot_link/network/lwm2m/wakaama_lwm2m/wakaama-master/core\data.c **** 
 329:C:/Users/²Ü¼ÒºÀ/.iotlink/sdk/IoT_LINK/iot_link/network/lwm2m/wakaama_lwm2m/wakaama-master/core\data.c ****     case LWM2M_TYPE_STRING:
 330:C:/Users/²Ü¼ÒºÀ/.iotlink/sdk/IoT_LINK/iot_link/network/lwm2m/wakaama_lwm2m/wakaama-master/core\data.c ****         result = utils_textToInt(dataP->value.asBuffer.buffer, dataP->value.asBuffer.length, valueP
 331:C:/Users/²Ü¼ÒºÀ/.iotlink/sdk/IoT_LINK/iot_link/network/lwm2m/wakaama_lwm2m/wakaama-master/core\data.c ****         break;
 332:C:/Users/²Ü¼ÒºÀ/.iotlink/sdk/IoT_LINK/iot_link/network/lwm2m/wakaama_lwm2m/wakaama-master/core\data.c **** 
 333:C:/Users/²Ü¼ÒºÀ/.iotlink/sdk/IoT_LINK/iot_link/network/lwm2m/wakaama_lwm2m/wakaama-master/core\data.c ****     case LWM2M_TYPE_OPAQUE:
 334:C:/Users/²Ü¼ÒºÀ/.iotlink/sdk/IoT_LINK/iot_link/network/lwm2m/wakaama_lwm2m/wakaama-master/core\data.c ****         switch (dataP->value.asBuffer.length)
 335:C:/Users/²Ü¼ÒºÀ/.iotlink/sdk/IoT_LINK/iot_link/network/lwm2m/wakaama_lwm2m/wakaama-master/core\data.c ****         {
 336:C:/Users/²Ü¼ÒºÀ/.iotlink/sdk/IoT_LINK/iot_link/network/lwm2m/wakaama_lwm2m/wakaama-master/core\data.c ****         case 1:
 337:C:/Users/²Ü¼ÒºÀ/.iotlink/sdk/IoT_LINK/iot_link/network/lwm2m/wakaama_lwm2m/wakaama-master/core\data.c ****             *valueP = (int8_t)dataP->value.asBuffer.buffer[0];
 338:C:/Users/²Ü¼ÒºÀ/.iotlink/sdk/IoT_LINK/iot_link/network/lwm2m/wakaama_lwm2m/wakaama-master/core\data.c ****             result = 1;
 339:C:/Users/²Ü¼ÒºÀ/.iotlink/sdk/IoT_LINK/iot_link/network/lwm2m/wakaama_lwm2m/wakaama-master/core\data.c ****             break;
 340:C:/Users/²Ü¼ÒºÀ/.iotlink/sdk/IoT_LINK/iot_link/network/lwm2m/wakaama_lwm2m/wakaama-master/core\data.c **** 
 341:C:/Users/²Ü¼ÒºÀ/.iotlink/sdk/IoT_LINK/iot_link/network/lwm2m/wakaama_lwm2m/wakaama-master/core\data.c ****         case 2:
 342:C:/Users/²Ü¼ÒºÀ/.iotlink/sdk/IoT_LINK/iot_link/network/lwm2m/wakaama_lwm2m/wakaama-master/core\data.c ****         {
 343:C:/Users/²Ü¼ÒºÀ/.iotlink/sdk/IoT_LINK/iot_link/network/lwm2m/wakaama_lwm2m/wakaama-master/core\data.c ****             int16_t value;
 344:C:/Users/²Ü¼ÒºÀ/.iotlink/sdk/IoT_LINK/iot_link/network/lwm2m/wakaama_lwm2m/wakaama-master/core\data.c **** 
 345:C:/Users/²Ü¼ÒºÀ/.iotlink/sdk/IoT_LINK/iot_link/network/lwm2m/wakaama_lwm2m/wakaama-master/core\data.c ****             utils_copyValue(&value, dataP->value.asBuffer.buffer, dataP->value.asBuffer.length);
 346:C:/Users/²Ü¼ÒºÀ/.iotlink/sdk/IoT_LINK/iot_link/network/lwm2m/wakaama_lwm2m/wakaama-master/core\data.c **** 
 347:C:/Users/²Ü¼ÒºÀ/.iotlink/sdk/IoT_LINK/iot_link/network/lwm2m/wakaama_lwm2m/wakaama-master/core\data.c ****             *valueP = value;
 348:C:/Users/²Ü¼ÒºÀ/.iotlink/sdk/IoT_LINK/iot_link/network/lwm2m/wakaama_lwm2m/wakaama-master/core\data.c ****             result = 1;
 349:C:/Users/²Ü¼ÒºÀ/.iotlink/sdk/IoT_LINK/iot_link/network/lwm2m/wakaama_lwm2m/wakaama-master/core\data.c ****             break;
 350:C:/Users/²Ü¼ÒºÀ/.iotlink/sdk/IoT_LINK/iot_link/network/lwm2m/wakaama_lwm2m/wakaama-master/core\data.c ****         }
 351:C:/Users/²Ü¼ÒºÀ/.iotlink/sdk/IoT_LINK/iot_link/network/lwm2m/wakaama_lwm2m/wakaama-master/core\data.c **** 
 352:C:/Users/²Ü¼ÒºÀ/.iotlink/sdk/IoT_LINK/iot_link/network/lwm2m/wakaama_lwm2m/wakaama-master/core\data.c ****         case 4:
 353:C:/Users/²Ü¼ÒºÀ/.iotlink/sdk/IoT_LINK/iot_link/network/lwm2m/wakaama_lwm2m/wakaama-master/core\data.c ****         {
 354:C:/Users/²Ü¼ÒºÀ/.iotlink/sdk/IoT_LINK/iot_link/network/lwm2m/wakaama_lwm2m/wakaama-master/core\data.c ****             int32_t value;
 355:C:/Users/²Ü¼ÒºÀ/.iotlink/sdk/IoT_LINK/iot_link/network/lwm2m/wakaama_lwm2m/wakaama-master/core\data.c **** 
 356:C:/Users/²Ü¼ÒºÀ/.iotlink/sdk/IoT_LINK/iot_link/network/lwm2m/wakaama_lwm2m/wakaama-master/core\data.c ****             utils_copyValue(&value, dataP->value.asBuffer.buffer, dataP->value.asBuffer.length);
 357:C:/Users/²Ü¼ÒºÀ/.iotlink/sdk/IoT_LINK/iot_link/network/lwm2m/wakaama_lwm2m/wakaama-master/core\data.c **** 
 358:C:/Users/²Ü¼ÒºÀ/.iotlink/sdk/IoT_LINK/iot_link/network/lwm2m/wakaama_lwm2m/wakaama-master/core\data.c ****             *valueP = value;
 359:C:/Users/²Ü¼ÒºÀ/.iotlink/sdk/IoT_LINK/iot_link/network/lwm2m/wakaama_lwm2m/wakaama-master/core\data.c ****             result = 1;
 360:C:/Users/²Ü¼ÒºÀ/.iotlink/sdk/IoT_LINK/iot_link/network/lwm2m/wakaama_lwm2m/wakaama-master/core\data.c ****             break;
 361:C:/Users/²Ü¼ÒºÀ/.iotlink/sdk/IoT_LINK/iot_link/network/lwm2m/wakaama_lwm2m/wakaama-master/core\data.c ****         }
 362:C:/Users/²Ü¼ÒºÀ/.iotlink/sdk/IoT_LINK/iot_link/network/lwm2m/wakaama_lwm2m/wakaama-master/core\data.c **** 
 363:C:/Users/²Ü¼ÒºÀ/.iotlink/sdk/IoT_LINK/iot_link/network/lwm2m/wakaama_lwm2m/wakaama-master/core\data.c ****         case 8:
 364:C:/Users/²Ü¼ÒºÀ/.iotlink/sdk/IoT_LINK/iot_link/network/lwm2m/wakaama_lwm2m/wakaama-master/core\data.c ****             utils_copyValue(valueP, dataP->value.asBuffer.buffer, dataP->value.asBuffer.length);
 365:C:/Users/²Ü¼ÒºÀ/.iotlink/sdk/IoT_LINK/iot_link/network/lwm2m/wakaama_lwm2m/wakaama-master/core\data.c ****             result = 1;
 366:C:/Users/²Ü¼ÒºÀ/.iotlink/sdk/IoT_LINK/iot_link/network/lwm2m/wakaama_lwm2m/wakaama-master/core\data.c ****             break;
 367:C:/Users/²Ü¼ÒºÀ/.iotlink/sdk/IoT_LINK/iot_link/network/lwm2m/wakaama_lwm2m/wakaama-master/core\data.c **** 
 368:C:/Users/²Ü¼ÒºÀ/.iotlink/sdk/IoT_LINK/iot_link/network/lwm2m/wakaama_lwm2m/wakaama-master/core\data.c ****         default:
 369:C:/Users/²Ü¼ÒºÀ/.iotlink/sdk/IoT_LINK/iot_link/network/lwm2m/wakaama_lwm2m/wakaama-master/core\data.c ****             result = 0;
 370:C:/Users/²Ü¼ÒºÀ/.iotlink/sdk/IoT_LINK/iot_link/network/lwm2m/wakaama_lwm2m/wakaama-master/core\data.c ****         }
 371:C:/Users/²Ü¼ÒºÀ/.iotlink/sdk/IoT_LINK/iot_link/network/lwm2m/wakaama_lwm2m/wakaama-master/core\data.c ****         break;
ARM GAS  C:\Users\²Ü¼ÒºÀ\AppData\Local\Temp\cc2xoMwd.s 			page 26


 372:C:/Users/²Ü¼ÒºÀ/.iotlink/sdk/IoT_LINK/iot_link/network/lwm2m/wakaama_lwm2m/wakaama-master/core\data.c **** 
 373:C:/Users/²Ü¼ÒºÀ/.iotlink/sdk/IoT_LINK/iot_link/network/lwm2m/wakaama_lwm2m/wakaama-master/core\data.c ****     default:
 374:C:/Users/²Ü¼ÒºÀ/.iotlink/sdk/IoT_LINK/iot_link/network/lwm2m/wakaama_lwm2m/wakaama-master/core\data.c ****         return 0;
 375:C:/Users/²Ü¼ÒºÀ/.iotlink/sdk/IoT_LINK/iot_link/network/lwm2m/wakaama_lwm2m/wakaama-master/core\data.c ****     }
 376:C:/Users/²Ü¼ÒºÀ/.iotlink/sdk/IoT_LINK/iot_link/network/lwm2m/wakaama_lwm2m/wakaama-master/core\data.c ****     LOG_ARG("result: %d, value: %" PRId64, result, *valueP);
 377:C:/Users/²Ü¼ÒºÀ/.iotlink/sdk/IoT_LINK/iot_link/network/lwm2m/wakaama_lwm2m/wakaama-master/core\data.c **** 
 378:C:/Users/²Ü¼ÒºÀ/.iotlink/sdk/IoT_LINK/iot_link/network/lwm2m/wakaama_lwm2m/wakaama-master/core\data.c ****     return result;
 379:C:/Users/²Ü¼ÒºÀ/.iotlink/sdk/IoT_LINK/iot_link/network/lwm2m/wakaama_lwm2m/wakaama-master/core\data.c **** }
 988              		.loc 1 379 1 view .LVU222
 989 0056 2046     		mov	r0, r4
 990 0058 0AB0     		add	sp, sp, #40
 991              	.LCFI28:
 992              		.cfi_remember_state
 993              		.cfi_def_cfa_offset 24
 994              		@ sp needed
 995 005a BDE87083 		pop	{r4, r5, r6, r8, r9, pc}
 996              	.LVL86:
 997              	.L66:
 998              	.LCFI29:
 999              		.cfi_restore_state
 325:C:/Users/²Ü¼ÒºÀ/.iotlink/sdk/IoT_LINK/iot_link/network/lwm2m/wakaama_lwm2m/wakaama-master/core\data.c ****         result = 1;
 1000              		.loc 1 325 9 is_stmt 1 view .LVU223
 325:C:/Users/²Ü¼ÒºÀ/.iotlink/sdk/IoT_LINK/iot_link/network/lwm2m/wakaama_lwm2m/wakaama-master/core\data.c ****         result = 1;
 1001              		.loc 1 325 31 is_stmt 0 view .LVU224
 1002 005e D4E90223 		ldrd	r2, [r4, #8]
 1003              	.L77:
 1004              	.LBB11:
 358:C:/Users/²Ü¼ÒºÀ/.iotlink/sdk/IoT_LINK/iot_link/network/lwm2m/wakaama_lwm2m/wakaama-master/core\data.c ****             result = 1;
 1005              		.loc 1 358 21 view .LVU225
 1006 0062 C5E90023 		strd	r2, [r5]
 359:C:/Users/²Ü¼ÒºÀ/.iotlink/sdk/IoT_LINK/iot_link/network/lwm2m/wakaama_lwm2m/wakaama-master/core\data.c ****             break;
 1007              		.loc 1 359 13 is_stmt 1 view .LVU226
 1008              	.LVL87:
 360:C:/Users/²Ü¼ÒºÀ/.iotlink/sdk/IoT_LINK/iot_link/network/lwm2m/wakaama_lwm2m/wakaama-master/core\data.c ****         }
 1009              		.loc 1 360 13 view .LVU227
 1010              	.L76:
 360:C:/Users/²Ü¼ÒºÀ/.iotlink/sdk/IoT_LINK/iot_link/network/lwm2m/wakaama_lwm2m/wakaama-master/core\data.c ****         }
 1011              		.loc 1 360 13 is_stmt 0 view .LVU228
 1012              	.LBE11:
 365:C:/Users/²Ü¼ÒºÀ/.iotlink/sdk/IoT_LINK/iot_link/network/lwm2m/wakaama_lwm2m/wakaama-master/core\data.c ****             break;
 1013              		.loc 1 365 13 is_stmt 1 view .LVU229
 366:C:/Users/²Ü¼ÒºÀ/.iotlink/sdk/IoT_LINK/iot_link/network/lwm2m/wakaama_lwm2m/wakaama-master/core\data.c **** 
 1014              		.loc 1 366 13 view .LVU230
 365:C:/Users/²Ü¼ÒºÀ/.iotlink/sdk/IoT_LINK/iot_link/network/lwm2m/wakaama_lwm2m/wakaama-master/core\data.c ****             break;
 1015              		.loc 1 365 20 is_stmt 0 view .LVU231
 1016 0066 0124     		movs	r4, #1
 1017              	.LVL88:
 366:C:/Users/²Ü¼ÒºÀ/.iotlink/sdk/IoT_LINK/iot_link/network/lwm2m/wakaama_lwm2m/wakaama-master/core\data.c **** 
 1018              		.loc 1 366 13 view .LVU232
 1019 0068 05E0     		b	.L69
 1020              	.LVL89:
 1021              	.L67:
 330:C:/Users/²Ü¼ÒºÀ/.iotlink/sdk/IoT_LINK/iot_link/network/lwm2m/wakaama_lwm2m/wakaama-master/core\data.c ****         break;
 1022              		.loc 1 330 9 is_stmt 1 view .LVU233
 330:C:/Users/²Ü¼ÒºÀ/.iotlink/sdk/IoT_LINK/iot_link/network/lwm2m/wakaama_lwm2m/wakaama-master/core\data.c ****         break;
 1023              		.loc 1 330 18 is_stmt 0 view .LVU234
 1024 006a D4E90210 		ldrd	r1, r0, [r4, #8]
ARM GAS  C:\Users\²Ü¼ÒºÀ\AppData\Local\Temp\cc2xoMwd.s 			page 27


 1025 006e 2A46     		mov	r2, r5
 1026 0070 FFF7FEFF 		bl	utils_textToInt
 1027              	.LVL90:
 1028 0074 0446     		mov	r4, r0
 1029              	.LVL91:
 331:C:/Users/²Ü¼ÒºÀ/.iotlink/sdk/IoT_LINK/iot_link/network/lwm2m/wakaama_lwm2m/wakaama-master/core\data.c **** 
 1030              		.loc 1 331 9 is_stmt 1 view .LVU235
 1031              	.L69:
 376:C:/Users/²Ü¼ÒºÀ/.iotlink/sdk/IoT_LINK/iot_link/network/lwm2m/wakaama_lwm2m/wakaama-master/core\data.c **** 
 1032              		.loc 1 376 5 view .LVU236
 376:C:/Users/²Ü¼ÒºÀ/.iotlink/sdk/IoT_LINK/iot_link/network/lwm2m/wakaama_lwm2m/wakaama-master/core\data.c **** 
 1033              		.loc 1 376 5 view .LVU237
 1034 0076 FFF7FEFF 		bl	link_log_level_get
 1035              	.LVL92:
 1036 007a 0128     		cmp	r0, #1
 1037 007c EBD8     		bhi	.L63
 376:C:/Users/²Ü¼ÒºÀ/.iotlink/sdk/IoT_LINK/iot_link/network/lwm2m/wakaama_lwm2m/wakaama-master/core\data.c **** 
 1038              		.loc 1 376 5 discriminator 1 view .LVU238
 376:C:/Users/²Ü¼ÒºÀ/.iotlink/sdk/IoT_LINK/iot_link/network/lwm2m/wakaama_lwm2m/wakaama-master/core\data.c **** 
 1039              		.loc 1 376 5 discriminator 1 view .LVU239
 376:C:/Users/²Ü¼ÒºÀ/.iotlink/sdk/IoT_LINK/iot_link/network/lwm2m/wakaama_lwm2m/wakaama-master/core\data.c **** 
 1040              		.loc 1 376 5 discriminator 1 view .LVU240
 1041 007e 0120     		movs	r0, #1
 1042 0080 FFF7FEFF 		bl	link_log_level_name
 1043              	.LVL93:
 1044 0084 0646     		mov	r6, r0
 1045 0086 FFF7FEFF 		bl	osal_sys_time
 1046              	.LVL94:
 1047 008a 0790     		str	r0, [sp, #28]
 1048 008c FFF7FEFF 		bl	lwm2m_gettime
 1049              	.LVL95:
 1050 0090 D5E90089 		ldrd	r8, [r5]
 1051 0094 4FF4BC73 		mov	r3, #376
 1052 0098 0293     		str	r3, [sp, #8]
 1053 009a 1C4B     		ldr	r3, .L79
 1054 009c 079A     		ldr	r2, [sp, #28]
 1055 009e 0394     		str	r4, [sp, #12]
 1056 00a0 CDE90003 		strd	r0, r3, [sp]
 1057 00a4 CDE90489 		strd	r8, [sp, #16]
 1058 00a8 194B     		ldr	r3, .L79+4
 1059 00aa 1C48     		ldr	r0, .L79+16
 1060 00ac 3146     		mov	r1, r6
 1061 00ae FFF7FEFF 		bl	printf
 1062              	.LVL96:
 376:C:/Users/²Ü¼ÒºÀ/.iotlink/sdk/IoT_LINK/iot_link/network/lwm2m/wakaama_lwm2m/wakaama-master/core\data.c **** 
 1063              		.loc 1 376 5 discriminator 1 view .LVU241
 1064 00b2 194B     		ldr	r3, .L79+12
 1065 00b4 1B68     		ldr	r3, [r3]
 1066 00b6 9868     		ldr	r0, [r3, #8]
 1067 00b8 FFF7FEFF 		bl	fflush
 1068              	.LVL97:
 1069 00bc CBE7     		b	.L63
 1070              	.LVL98:
 1071              	.L65:
 334:C:/Users/²Ü¼ÒºÀ/.iotlink/sdk/IoT_LINK/iot_link/network/lwm2m/wakaama_lwm2m/wakaama-master/core\data.c ****         {
 1072              		.loc 1 334 9 view .LVU242
 1073 00be A368     		ldr	r3, [r4, #8]
ARM GAS  C:\Users\²Ü¼ÒºÀ\AppData\Local\Temp\cc2xoMwd.s 			page 28


 1074 00c0 013B     		subs	r3, r3, #1
 1075 00c2 072B     		cmp	r3, #7
 1076 00c4 1FD8     		bhi	.L75
 1077 00c6 DFE803F0 		tbb	[pc, r3]
 1078              	.L71:
 1079 00ca 04       		.byte	(.L74-.L71)/2
 1080 00cb 09       		.byte	(.L73-.L71)/2
 1081 00cc 1E       		.byte	(.L75-.L71)/2
 1082 00cd 11       		.byte	(.L72-.L71)/2
 1083 00ce 1E       		.byte	(.L75-.L71)/2
 1084 00cf 1E       		.byte	(.L75-.L71)/2
 1085 00d0 1E       		.byte	(.L75-.L71)/2
 1086 00d1 18       		.byte	(.L70-.L71)/2
 1087              		.p2align 1
 1088              	.L74:
 337:C:/Users/²Ü¼ÒºÀ/.iotlink/sdk/IoT_LINK/iot_link/network/lwm2m/wakaama_lwm2m/wakaama-master/core\data.c ****             result = 1;
 1089              		.loc 1 337 13 view .LVU243
 337:C:/Users/²Ü¼ÒºÀ/.iotlink/sdk/IoT_LINK/iot_link/network/lwm2m/wakaama_lwm2m/wakaama-master/core\data.c ****             result = 1;
 1090              		.loc 1 337 59 is_stmt 0 view .LVU244
 1091 00d2 E368     		ldr	r3, [r4, #12]
 337:C:/Users/²Ü¼ÒºÀ/.iotlink/sdk/IoT_LINK/iot_link/network/lwm2m/wakaama_lwm2m/wakaama-master/core\data.c ****             result = 1;
 1092              		.loc 1 337 23 view .LVU245
 1093 00d4 93F90020 		ldrsb	r2, [r3]
 1094              	.L78:
 1095              	.LBB12:
 358:C:/Users/²Ü¼ÒºÀ/.iotlink/sdk/IoT_LINK/iot_link/network/lwm2m/wakaama_lwm2m/wakaama-master/core\data.c ****             result = 1;
 1096              		.loc 1 358 21 view .LVU246
 1097 00d8 D317     		asrs	r3, r2, #31
 1098 00da C2E7     		b	.L77
 1099              	.L73:
 1100              	.LBE12:
 1101              	.LBB13:
 343:C:/Users/²Ü¼ÒºÀ/.iotlink/sdk/IoT_LINK/iot_link/network/lwm2m/wakaama_lwm2m/wakaama-master/core\data.c **** 
 1102              		.loc 1 343 13 is_stmt 1 view .LVU247
 345:C:/Users/²Ü¼ÒºÀ/.iotlink/sdk/IoT_LINK/iot_link/network/lwm2m/wakaama_lwm2m/wakaama-master/core\data.c **** 
 1103              		.loc 1 345 13 view .LVU248
 1104 00dc 0222     		movs	r2, #2
 1105 00de E168     		ldr	r1, [r4, #12]
 1106 00e0 09A8     		add	r0, sp, #36
 1107 00e2 FFF7FEFF 		bl	utils_copyValue
 1108              	.LVL99:
 347:C:/Users/²Ü¼ÒºÀ/.iotlink/sdk/IoT_LINK/iot_link/network/lwm2m/wakaama_lwm2m/wakaama-master/core\data.c ****             result = 1;
 1109              		.loc 1 347 13 view .LVU249
 347:C:/Users/²Ü¼ÒºÀ/.iotlink/sdk/IoT_LINK/iot_link/network/lwm2m/wakaama_lwm2m/wakaama-master/core\data.c ****             result = 1;
 1110              		.loc 1 347 21 is_stmt 0 view .LVU250
 1111 00e6 BDF92420 		ldrsh	r2, [sp, #36]
 1112 00ea F5E7     		b	.L78
 1113              	.L72:
 347:C:/Users/²Ü¼ÒºÀ/.iotlink/sdk/IoT_LINK/iot_link/network/lwm2m/wakaama_lwm2m/wakaama-master/core\data.c ****             result = 1;
 1114              		.loc 1 347 21 view .LVU251
 1115              	.LBE13:
 1116              	.LBB14:
 354:C:/Users/²Ü¼ÒºÀ/.iotlink/sdk/IoT_LINK/iot_link/network/lwm2m/wakaama_lwm2m/wakaama-master/core\data.c **** 
 1117              		.loc 1 354 13 is_stmt 1 view .LVU252
 356:C:/Users/²Ü¼ÒºÀ/.iotlink/sdk/IoT_LINK/iot_link/network/lwm2m/wakaama_lwm2m/wakaama-master/core\data.c **** 
 1118              		.loc 1 356 13 view .LVU253
 1119 00ec 0422     		movs	r2, #4
ARM GAS  C:\Users\²Ü¼ÒºÀ\AppData\Local\Temp\cc2xoMwd.s 			page 29


 1120 00ee E168     		ldr	r1, [r4, #12]
 1121 00f0 09A8     		add	r0, sp, #36
 1122 00f2 FFF7FEFF 		bl	utils_copyValue
 1123              	.LVL100:
 358:C:/Users/²Ü¼ÒºÀ/.iotlink/sdk/IoT_LINK/iot_link/network/lwm2m/wakaama_lwm2m/wakaama-master/core\data.c ****             result = 1;
 1124              		.loc 1 358 13 view .LVU254
 358:C:/Users/²Ü¼ÒºÀ/.iotlink/sdk/IoT_LINK/iot_link/network/lwm2m/wakaama_lwm2m/wakaama-master/core\data.c ****             result = 1;
 1125              		.loc 1 358 21 is_stmt 0 view .LVU255
 1126 00f6 099A     		ldr	r2, [sp, #36]
 1127 00f8 EEE7     		b	.L78
 1128              	.L70:
 358:C:/Users/²Ü¼ÒºÀ/.iotlink/sdk/IoT_LINK/iot_link/network/lwm2m/wakaama_lwm2m/wakaama-master/core\data.c ****             result = 1;
 1129              		.loc 1 358 21 view .LVU256
 1130              	.LBE14:
 364:C:/Users/²Ü¼ÒºÀ/.iotlink/sdk/IoT_LINK/iot_link/network/lwm2m/wakaama_lwm2m/wakaama-master/core\data.c ****             result = 1;
 1131              		.loc 1 364 13 is_stmt 1 view .LVU257
 1132 00fa E168     		ldr	r1, [r4, #12]
 1133 00fc 0822     		movs	r2, #8
 1134 00fe 2846     		mov	r0, r5
 1135 0100 FFF7FEFF 		bl	utils_copyValue
 1136              	.LVL101:
 1137 0104 AFE7     		b	.L76
 1138              	.L75:
 334:C:/Users/²Ü¼ÒºÀ/.iotlink/sdk/IoT_LINK/iot_link/network/lwm2m/wakaama_lwm2m/wakaama-master/core\data.c ****         {
 1139              		.loc 1 334 38 is_stmt 0 view .LVU258
 1140 0106 0024     		movs	r4, #0
 1141              	.LVL102:
 334:C:/Users/²Ü¼ÒºÀ/.iotlink/sdk/IoT_LINK/iot_link/network/lwm2m/wakaama_lwm2m/wakaama-master/core\data.c ****         {
 1142              		.loc 1 334 38 view .LVU259
 1143 0108 B5E7     		b	.L69
 1144              	.L80:
 1145 010a 00BF     		.align	2
 1146              	.L79:
 1147 010c 00000000 		.word	.LANCHOR13
 1148 0110 00000000 		.word	.LANCHOR12
 1149 0114 00000000 		.word	.LC5
 1150 0118 00000000 		.word	_impure_ptr
 1151 011c 26000000 		.word	.LC6
 1152              		.cfi_endproc
 1153              	.LFE13:
 1155              		.section	.rodata.lwm2m_data_encode_float.str1.1,"aMS",%progbits,1
 1156              	.LC7:
 1157 0000 5B25735D 		.ascii	"[%s][%u][%s] [%d][%s:%d] value: %f\015\012\015\012\000"
 1157      5B25755D 
 1157      5B25735D 
 1157      205B2564 
 1157      5D5B2573 
 1158              		.section	.text.lwm2m_data_encode_float,"ax",%progbits
 1159              		.align	1
 1160              		.global	lwm2m_data_encode_float
 1161              		.syntax unified
 1162              		.thumb
 1163              		.thumb_func
 1164              		.fpu fpv4-sp-d16
 1166              	lwm2m_data_encode_float:
 1167              	.LVL103:
 1168              	.LFB14:
ARM GAS  C:\Users\²Ü¼ÒºÀ\AppData\Local\Temp\cc2xoMwd.s 			page 30


 380:C:/Users/²Ü¼ÒºÀ/.iotlink/sdk/IoT_LINK/iot_link/network/lwm2m/wakaama_lwm2m/wakaama-master/core\data.c **** 
 381:C:/Users/²Ü¼ÒºÀ/.iotlink/sdk/IoT_LINK/iot_link/network/lwm2m/wakaama_lwm2m/wakaama-master/core\data.c **** void lwm2m_data_encode_float(double value,
 382:C:/Users/²Ü¼ÒºÀ/.iotlink/sdk/IoT_LINK/iot_link/network/lwm2m/wakaama_lwm2m/wakaama-master/core\data.c ****                              lwm2m_data_t *dataP)
 383:C:/Users/²Ü¼ÒºÀ/.iotlink/sdk/IoT_LINK/iot_link/network/lwm2m/wakaama_lwm2m/wakaama-master/core\data.c **** {
 1169              		.loc 1 383 1 is_stmt 1 view -0
 1170              		.cfi_startproc
 1171              		@ args = 0, pretend = 0, frame = 8
 1172              		@ frame_needed = 0, uses_anonymous_args = 0
 384:C:/Users/²Ü¼ÒºÀ/.iotlink/sdk/IoT_LINK/iot_link/network/lwm2m/wakaama_lwm2m/wakaama-master/core\data.c ****     LOG_ARG("value: %f", value);
 1173              		.loc 1 384 5 view .LVU261
 1174              		.loc 1 384 5 view .LVU262
 383:C:/Users/²Ü¼ÒºÀ/.iotlink/sdk/IoT_LINK/iot_link/network/lwm2m/wakaama_lwm2m/wakaama-master/core\data.c ****     LOG_ARG("value: %f", value);
 1175              		.loc 1 383 1 is_stmt 0 view .LVU263
 1176 0000 30B5     		push	{r4, r5, lr}
 1177              	.LCFI30:
 1178              		.cfi_def_cfa_offset 12
 1179              		.cfi_offset 4, -12
 1180              		.cfi_offset 5, -8
 1181              		.cfi_offset 14, -4
 1182 0002 2DED028B 		vpush.64	{d8}
 1183              	.LCFI31:
 1184              		.cfi_def_cfa_offset 20
 1185              		.cfi_offset 80, -20
 1186              		.cfi_offset 81, -16
 1187 0006 B0EE408A 		vmov.f32	s16, s0
 1188 000a F0EE608A 		vmov.f32	s17, s1
 1189 000e 89B0     		sub	sp, sp, #36
 1190              	.LCFI32:
 1191              		.cfi_def_cfa_offset 56
 383:C:/Users/²Ü¼ÒºÀ/.iotlink/sdk/IoT_LINK/iot_link/network/lwm2m/wakaama_lwm2m/wakaama-master/core\data.c ****     LOG_ARG("value: %f", value);
 1192              		.loc 1 383 1 view .LVU264
 1193 0010 0446     		mov	r4, r0
 1194              		.loc 1 384 5 view .LVU265
 1195 0012 FFF7FEFF 		bl	link_log_level_get
 1196              	.LVL104:
 1197              		.loc 1 384 5 view .LVU266
 1198 0016 0128     		cmp	r0, #1
 1199 0018 1BD8     		bhi	.L82
 1200              		.loc 1 384 5 is_stmt 1 discriminator 1 view .LVU267
 1201              		.loc 1 384 5 discriminator 1 view .LVU268
 1202              		.loc 1 384 5 discriminator 1 view .LVU269
 1203 001a 0120     		movs	r0, #1
 1204 001c FFF7FEFF 		bl	link_log_level_name
 1205              	.LVL105:
 1206 0020 0546     		mov	r5, r0
 1207 0022 FFF7FEFF 		bl	osal_sys_time
 1208              	.LVL106:
 1209 0026 0790     		str	r0, [sp, #28]
 1210 0028 FFF7FEFF 		bl	lwm2m_gettime
 1211              	.LVL107:
 1212 002c 4FF4C073 		mov	r3, #384
 1213 0030 0293     		str	r3, [sp, #8]
 1214 0032 0C4B     		ldr	r3, .L83
 1215 0034 079A     		ldr	r2, [sp, #28]
 1216 0036 CDE90003 		strd	r0, r3, [sp]
 1217 003a 8DED048B 		vstr.64	d8, [sp, #16]
 1218 003e 0A4B     		ldr	r3, .L83+4
ARM GAS  C:\Users\²Ü¼ÒºÀ\AppData\Local\Temp\cc2xoMwd.s 			page 31


 1219 0040 0A48     		ldr	r0, .L83+8
 1220 0042 2946     		mov	r1, r5
 1221 0044 FFF7FEFF 		bl	printf
 1222              	.LVL108:
 1223              		.loc 1 384 5 discriminator 1 view .LVU270
 1224 0048 094B     		ldr	r3, .L83+12
 1225 004a 1B68     		ldr	r3, [r3]
 1226 004c 9868     		ldr	r0, [r3, #8]
 1227 004e FFF7FEFF 		bl	fflush
 1228              	.LVL109:
 1229              	.L82:
 1230              		.loc 1 384 5 discriminator 3 view .LVU271
 1231              		.loc 1 384 5 discriminator 3 view .LVU272
 1232              		.loc 1 384 5 discriminator 3 view .LVU273
 385:C:/Users/²Ü¼ÒºÀ/.iotlink/sdk/IoT_LINK/iot_link/network/lwm2m/wakaama_lwm2m/wakaama-master/core\data.c ****     dataP->type = LWM2M_TYPE_FLOAT;
 1233              		.loc 1 385 5 discriminator 3 view .LVU274
 1234              		.loc 1 385 17 is_stmt 0 discriminator 3 view .LVU275
 1235 0052 0723     		movs	r3, #7
 386:C:/Users/²Ü¼ÒºÀ/.iotlink/sdk/IoT_LINK/iot_link/network/lwm2m/wakaama_lwm2m/wakaama-master/core\data.c ****     dataP->value.asFloat = value;
 1236              		.loc 1 386 26 discriminator 3 view .LVU276
 1237 0054 84ED028B 		vstr.64	d8, [r4, #8]
 385:C:/Users/²Ü¼ÒºÀ/.iotlink/sdk/IoT_LINK/iot_link/network/lwm2m/wakaama_lwm2m/wakaama-master/core\data.c ****     dataP->type = LWM2M_TYPE_FLOAT;
 1238              		.loc 1 385 17 discriminator 3 view .LVU277
 1239 0058 2370     		strb	r3, [r4]
 1240              		.loc 1 386 5 is_stmt 1 discriminator 3 view .LVU278
 387:C:/Users/²Ü¼ÒºÀ/.iotlink/sdk/IoT_LINK/iot_link/network/lwm2m/wakaama_lwm2m/wakaama-master/core\data.c **** }
 1241              		.loc 1 387 1 is_stmt 0 discriminator 3 view .LVU279
 1242 005a 09B0     		add	sp, sp, #36
 1243              	.LCFI33:
 1244              		.cfi_def_cfa_offset 20
 1245              		@ sp needed
 1246 005c BDEC028B 		vldm	sp!, {d8}
 1247              	.LCFI34:
 1248              		.cfi_restore 80
 1249              		.cfi_restore 81
 1250              		.cfi_def_cfa_offset 12
 1251              	.LVL110:
 1252              		.loc 1 387 1 discriminator 3 view .LVU280
 1253 0060 30BD     		pop	{r4, r5, pc}
 1254              	.LVL111:
 1255              	.L84:
 1256              		.loc 1 387 1 discriminator 3 view .LVU281
 1257 0062 00BF     		.align	2
 1258              	.L83:
 1259 0064 00000000 		.word	.LANCHOR15
 1260 0068 00000000 		.word	.LANCHOR14
 1261 006c 00000000 		.word	.LC7
 1262 0070 00000000 		.word	_impure_ptr
 1263              		.cfi_endproc
 1264              	.LFE14:
 1266              		.global	__aeabi_l2d
 1267              		.global	__aeabi_f2d
 1268              		.section	.rodata.lwm2m_data_decode_float.str1.1,"aMS",%progbits,1
 1269              	.LC8:
 1270 0000 5B25735D 		.ascii	"[%s][%u][%s] [%d][%s:%d] result: %d, value: %f\015\012"
 1270      5B25755D 
 1270      5B25735D 
ARM GAS  C:\Users\²Ü¼ÒºÀ\AppData\Local\Temp\cc2xoMwd.s 			page 32


 1270      205B2564 
 1270      5D5B2573 
 1271 0030 0D0A00   		.ascii	"\015\012\000"
 1272              		.section	.text.lwm2m_data_decode_float,"ax",%progbits
 1273              		.align	1
 1274              		.global	lwm2m_data_decode_float
 1275              		.syntax unified
 1276              		.thumb
 1277              		.thumb_func
 1278              		.fpu fpv4-sp-d16
 1280              	lwm2m_data_decode_float:
 1281              	.LVL112:
 1282              	.LFB15:
 388:C:/Users/²Ü¼ÒºÀ/.iotlink/sdk/IoT_LINK/iot_link/network/lwm2m/wakaama_lwm2m/wakaama-master/core\data.c **** 
 389:C:/Users/²Ü¼ÒºÀ/.iotlink/sdk/IoT_LINK/iot_link/network/lwm2m/wakaama_lwm2m/wakaama-master/core\data.c **** int lwm2m_data_decode_float(const lwm2m_data_t *dataP,
 390:C:/Users/²Ü¼ÒºÀ/.iotlink/sdk/IoT_LINK/iot_link/network/lwm2m/wakaama_lwm2m/wakaama-master/core\data.c ****                             double *valueP)
 391:C:/Users/²Ü¼ÒºÀ/.iotlink/sdk/IoT_LINK/iot_link/network/lwm2m/wakaama_lwm2m/wakaama-master/core\data.c **** {
 1283              		.loc 1 391 1 is_stmt 1 view -0
 1284              		.cfi_startproc
 1285              		@ args = 0, pretend = 0, frame = 16
 1286              		@ frame_needed = 0, uses_anonymous_args = 0
 392:C:/Users/²Ü¼ÒºÀ/.iotlink/sdk/IoT_LINK/iot_link/network/lwm2m/wakaama_lwm2m/wakaama-master/core\data.c ****     int result;
 1287              		.loc 1 392 5 view .LVU283
 393:C:/Users/²Ü¼ÒºÀ/.iotlink/sdk/IoT_LINK/iot_link/network/lwm2m/wakaama_lwm2m/wakaama-master/core\data.c **** 
 394:C:/Users/²Ü¼ÒºÀ/.iotlink/sdk/IoT_LINK/iot_link/network/lwm2m/wakaama_lwm2m/wakaama-master/core\data.c ****     LOG("Entering");
 1288              		.loc 1 394 5 view .LVU284
 1289              		.loc 1 394 5 view .LVU285
 391:C:/Users/²Ü¼ÒºÀ/.iotlink/sdk/IoT_LINK/iot_link/network/lwm2m/wakaama_lwm2m/wakaama-master/core\data.c ****     int result;
 1290              		.loc 1 391 1 is_stmt 0 view .LVU286
 1291 0000 2DE97043 		push	{r4, r5, r6, r8, r9, lr}
 1292              	.LCFI35:
 1293              		.cfi_def_cfa_offset 24
 1294              		.cfi_offset 4, -24
 1295              		.cfi_offset 5, -20
 1296              		.cfi_offset 6, -16
 1297              		.cfi_offset 8, -12
 1298              		.cfi_offset 9, -8
 1299              		.cfi_offset 14, -4
 1300 0004 8AB0     		sub	sp, sp, #40
 1301              	.LCFI36:
 1302              		.cfi_def_cfa_offset 64
 391:C:/Users/²Ü¼ÒºÀ/.iotlink/sdk/IoT_LINK/iot_link/network/lwm2m/wakaama_lwm2m/wakaama-master/core\data.c ****     int result;
 1303              		.loc 1 391 1 view .LVU287
 1304 0006 0446     		mov	r4, r0
 1305 0008 0D46     		mov	r5, r1
 1306              		.loc 1 394 5 view .LVU288
 1307 000a FFF7FEFF 		bl	link_log_level_get
 1308              	.LVL113:
 1309              		.loc 1 394 5 view .LVU289
 1310 000e 0128     		cmp	r0, #1
 1311 0010 19D8     		bhi	.L86
 1312              		.loc 1 394 5 is_stmt 1 discriminator 1 view .LVU290
 1313              		.loc 1 394 5 discriminator 1 view .LVU291
 1314              		.loc 1 394 5 discriminator 1 view .LVU292
 1315 0012 0120     		movs	r0, #1
 1316 0014 FFF7FEFF 		bl	link_log_level_name
 1317              	.LVL114:
ARM GAS  C:\Users\²Ü¼ÒºÀ\AppData\Local\Temp\cc2xoMwd.s 			page 33


 1318 0018 0646     		mov	r6, r0
 1319 001a FFF7FEFF 		bl	osal_sys_time
 1320              	.LVL115:
 1321 001e 0790     		str	r0, [sp, #28]
 1322 0020 FFF7FEFF 		bl	lwm2m_gettime
 1323              	.LVL116:
 1324 0024 4FF4C573 		mov	r3, #394
 1325 0028 0293     		str	r3, [sp, #8]
 1326 002a 324B     		ldr	r3, .L99
 1327 002c 079A     		ldr	r2, [sp, #28]
 1328 002e CDE90003 		strd	r0, r3, [sp]
 1329 0032 3146     		mov	r1, r6
 1330 0034 304B     		ldr	r3, .L99+4
 1331 0036 3148     		ldr	r0, .L99+8
 1332 0038 FFF7FEFF 		bl	printf
 1333              	.LVL117:
 1334              		.loc 1 394 5 discriminator 1 view .LVU293
 1335 003c 304B     		ldr	r3, .L99+12
 1336 003e 1B68     		ldr	r3, [r3]
 1337 0040 9868     		ldr	r0, [r3, #8]
 1338 0042 FFF7FEFF 		bl	fflush
 1339              	.LVL118:
 1340              	.L86:
 1341              		.loc 1 394 5 discriminator 3 view .LVU294
 1342              		.loc 1 394 5 discriminator 3 view .LVU295
 1343              		.loc 1 394 5 discriminator 3 view .LVU296
 395:C:/Users/²Ü¼ÒºÀ/.iotlink/sdk/IoT_LINK/iot_link/network/lwm2m/wakaama_lwm2m/wakaama-master/core\data.c ****     switch (dataP->type)
 1344              		.loc 1 395 5 discriminator 3 view .LVU297
 1345 0046 2378     		ldrb	r3, [r4]	@ zero_extendqisi2
 1346 0048 043B     		subs	r3, r3, #4
 1347 004a 032B     		cmp	r3, #3
 1348 004c 42D8     		bhi	.L96
 1349 004e DFE803F0 		tbb	[pc, r3]
 1350              	.L89:
 1351 0052 0F       		.byte	(.L92-.L89)/2
 1352 0053 3C       		.byte	(.L91-.L89)/2
 1353 0054 08       		.byte	(.L90-.L89)/2
 1354 0055 02       		.byte	(.L88-.L89)/2
 1355              		.p2align 1
 1356              	.L88:
 396:C:/Users/²Ü¼ÒºÀ/.iotlink/sdk/IoT_LINK/iot_link/network/lwm2m/wakaama_lwm2m/wakaama-master/core\data.c ****     {
 397:C:/Users/²Ü¼ÒºÀ/.iotlink/sdk/IoT_LINK/iot_link/network/lwm2m/wakaama_lwm2m/wakaama-master/core\data.c ****     case LWM2M_TYPE_FLOAT:
 398:C:/Users/²Ü¼ÒºÀ/.iotlink/sdk/IoT_LINK/iot_link/network/lwm2m/wakaama_lwm2m/wakaama-master/core\data.c ****         *valueP = dataP->value.asFloat;
 1357              		.loc 1 398 9 view .LVU298
 1358              		.loc 1 398 31 is_stmt 0 view .LVU299
 1359 0056 D4E90223 		ldrd	r2, [r4, #8]
 1360              		.loc 1 398 17 view .LVU300
 1361 005a C5E90023 		strd	r2, [r5]
 399:C:/Users/²Ü¼ÒºÀ/.iotlink/sdk/IoT_LINK/iot_link/network/lwm2m/wakaama_lwm2m/wakaama-master/core\data.c ****         result = 1;
 1362              		.loc 1 399 9 is_stmt 1 view .LVU301
 1363              	.LVL119:
 400:C:/Users/²Ü¼ÒºÀ/.iotlink/sdk/IoT_LINK/iot_link/network/lwm2m/wakaama_lwm2m/wakaama-master/core\data.c ****         break;
 1364              		.loc 1 400 9 view .LVU302
 1365              	.L97:
 401:C:/Users/²Ü¼ÒºÀ/.iotlink/sdk/IoT_LINK/iot_link/network/lwm2m/wakaama_lwm2m/wakaama-master/core\data.c **** 
 402:C:/Users/²Ü¼ÒºÀ/.iotlink/sdk/IoT_LINK/iot_link/network/lwm2m/wakaama_lwm2m/wakaama-master/core\data.c ****     case LWM2M_TYPE_INTEGER:
 403:C:/Users/²Ü¼ÒºÀ/.iotlink/sdk/IoT_LINK/iot_link/network/lwm2m/wakaama_lwm2m/wakaama-master/core\data.c ****         *valueP = (double)dataP->value.asInteger;
ARM GAS  C:\Users\²Ü¼ÒºÀ\AppData\Local\Temp\cc2xoMwd.s 			page 34


 404:C:/Users/²Ü¼ÒºÀ/.iotlink/sdk/IoT_LINK/iot_link/network/lwm2m/wakaama_lwm2m/wakaama-master/core\data.c ****         result = 1;
 405:C:/Users/²Ü¼ÒºÀ/.iotlink/sdk/IoT_LINK/iot_link/network/lwm2m/wakaama_lwm2m/wakaama-master/core\data.c ****         break;
 406:C:/Users/²Ü¼ÒºÀ/.iotlink/sdk/IoT_LINK/iot_link/network/lwm2m/wakaama_lwm2m/wakaama-master/core\data.c **** 
 407:C:/Users/²Ü¼ÒºÀ/.iotlink/sdk/IoT_LINK/iot_link/network/lwm2m/wakaama_lwm2m/wakaama-master/core\data.c ****     case LWM2M_TYPE_STRING:
 408:C:/Users/²Ü¼ÒºÀ/.iotlink/sdk/IoT_LINK/iot_link/network/lwm2m/wakaama_lwm2m/wakaama-master/core\data.c ****         result = utils_textToFloat(dataP->value.asBuffer.buffer, dataP->value.asBuffer.length, valu
 409:C:/Users/²Ü¼ÒºÀ/.iotlink/sdk/IoT_LINK/iot_link/network/lwm2m/wakaama_lwm2m/wakaama-master/core\data.c ****         break;
 410:C:/Users/²Ü¼ÒºÀ/.iotlink/sdk/IoT_LINK/iot_link/network/lwm2m/wakaama_lwm2m/wakaama-master/core\data.c **** 
 411:C:/Users/²Ü¼ÒºÀ/.iotlink/sdk/IoT_LINK/iot_link/network/lwm2m/wakaama_lwm2m/wakaama-master/core\data.c ****     case LWM2M_TYPE_OPAQUE:
 412:C:/Users/²Ü¼ÒºÀ/.iotlink/sdk/IoT_LINK/iot_link/network/lwm2m/wakaama_lwm2m/wakaama-master/core\data.c ****         switch (dataP->value.asBuffer.length)
 413:C:/Users/²Ü¼ÒºÀ/.iotlink/sdk/IoT_LINK/iot_link/network/lwm2m/wakaama_lwm2m/wakaama-master/core\data.c ****         {
 414:C:/Users/²Ü¼ÒºÀ/.iotlink/sdk/IoT_LINK/iot_link/network/lwm2m/wakaama_lwm2m/wakaama-master/core\data.c ****         case 4:
 415:C:/Users/²Ü¼ÒºÀ/.iotlink/sdk/IoT_LINK/iot_link/network/lwm2m/wakaama_lwm2m/wakaama-master/core\data.c ****         {
 416:C:/Users/²Ü¼ÒºÀ/.iotlink/sdk/IoT_LINK/iot_link/network/lwm2m/wakaama_lwm2m/wakaama-master/core\data.c ****             float temp;
 417:C:/Users/²Ü¼ÒºÀ/.iotlink/sdk/IoT_LINK/iot_link/network/lwm2m/wakaama_lwm2m/wakaama-master/core\data.c **** 
 418:C:/Users/²Ü¼ÒºÀ/.iotlink/sdk/IoT_LINK/iot_link/network/lwm2m/wakaama_lwm2m/wakaama-master/core\data.c ****             utils_copyValue(&temp, dataP->value.asBuffer.buffer, dataP->value.asBuffer.length);
 419:C:/Users/²Ü¼ÒºÀ/.iotlink/sdk/IoT_LINK/iot_link/network/lwm2m/wakaama_lwm2m/wakaama-master/core\data.c **** 
 420:C:/Users/²Ü¼ÒºÀ/.iotlink/sdk/IoT_LINK/iot_link/network/lwm2m/wakaama_lwm2m/wakaama-master/core\data.c ****             *valueP = temp;
 421:C:/Users/²Ü¼ÒºÀ/.iotlink/sdk/IoT_LINK/iot_link/network/lwm2m/wakaama_lwm2m/wakaama-master/core\data.c ****             result = 1;
 422:C:/Users/²Ü¼ÒºÀ/.iotlink/sdk/IoT_LINK/iot_link/network/lwm2m/wakaama_lwm2m/wakaama-master/core\data.c ****         }
 423:C:/Users/²Ü¼ÒºÀ/.iotlink/sdk/IoT_LINK/iot_link/network/lwm2m/wakaama_lwm2m/wakaama-master/core\data.c ****         break;
 424:C:/Users/²Ü¼ÒºÀ/.iotlink/sdk/IoT_LINK/iot_link/network/lwm2m/wakaama_lwm2m/wakaama-master/core\data.c **** 
 425:C:/Users/²Ü¼ÒºÀ/.iotlink/sdk/IoT_LINK/iot_link/network/lwm2m/wakaama_lwm2m/wakaama-master/core\data.c ****         case 8:
 426:C:/Users/²Ü¼ÒºÀ/.iotlink/sdk/IoT_LINK/iot_link/network/lwm2m/wakaama_lwm2m/wakaama-master/core\data.c ****             utils_copyValue(valueP, dataP->value.asBuffer.buffer, dataP->value.asBuffer.length);
 427:C:/Users/²Ü¼ÒºÀ/.iotlink/sdk/IoT_LINK/iot_link/network/lwm2m/wakaama_lwm2m/wakaama-master/core\data.c ****             result = 1;
 1366              		.loc 1 427 13 view .LVU303
 428:C:/Users/²Ü¼ÒºÀ/.iotlink/sdk/IoT_LINK/iot_link/network/lwm2m/wakaama_lwm2m/wakaama-master/core\data.c ****             break;
 1367              		.loc 1 428 13 view .LVU304
 427:C:/Users/²Ü¼ÒºÀ/.iotlink/sdk/IoT_LINK/iot_link/network/lwm2m/wakaama_lwm2m/wakaama-master/core\data.c ****             break;
 1368              		.loc 1 427 20 is_stmt 0 view .LVU305
 1369 005e 0124     		movs	r4, #1
 1370              	.LVL120:
 1371              		.loc 1 428 13 view .LVU306
 1372 0060 0CE0     		b	.L87
 1373              	.LVL121:
 1374              	.L90:
 403:C:/Users/²Ü¼ÒºÀ/.iotlink/sdk/IoT_LINK/iot_link/network/lwm2m/wakaama_lwm2m/wakaama-master/core\data.c ****         result = 1;
 1375              		.loc 1 403 9 is_stmt 1 view .LVU307
 403:C:/Users/²Ü¼ÒºÀ/.iotlink/sdk/IoT_LINK/iot_link/network/lwm2m/wakaama_lwm2m/wakaama-master/core\data.c ****         result = 1;
 1376              		.loc 1 403 19 is_stmt 0 view .LVU308
 1377 0062 D4E90201 		ldrd	r0, [r4, #8]
 1378 0066 FFF7FEFF 		bl	__aeabi_l2d
 1379              	.LVL122:
 1380              	.L98:
 1381              	.LBB15:
 420:C:/Users/²Ü¼ÒºÀ/.iotlink/sdk/IoT_LINK/iot_link/network/lwm2m/wakaama_lwm2m/wakaama-master/core\data.c ****             result = 1;
 1382              		.loc 1 420 21 discriminator 1 view .LVU309
 1383 006a C5E90001 		strd	r0, [r5]
 421:C:/Users/²Ü¼ÒºÀ/.iotlink/sdk/IoT_LINK/iot_link/network/lwm2m/wakaama_lwm2m/wakaama-master/core\data.c ****         }
 1384              		.loc 1 421 13 is_stmt 1 discriminator 1 view .LVU310
 1385              	.LVL123:
 421:C:/Users/²Ü¼ÒºÀ/.iotlink/sdk/IoT_LINK/iot_link/network/lwm2m/wakaama_lwm2m/wakaama-master/core\data.c ****         }
 1386              		.loc 1 421 13 is_stmt 0 discriminator 1 view .LVU311
 1387              	.LBE15:
 423:C:/Users/²Ü¼ÒºÀ/.iotlink/sdk/IoT_LINK/iot_link/network/lwm2m/wakaama_lwm2m/wakaama-master/core\data.c **** 
 1388              		.loc 1 423 9 is_stmt 1 discriminator 1 view .LVU312
 1389 006e F6E7     		b	.L97
 1390              	.LVL124:
ARM GAS  C:\Users\²Ü¼ÒºÀ\AppData\Local\Temp\cc2xoMwd.s 			page 35


 1391              	.L92:
 408:C:/Users/²Ü¼ÒºÀ/.iotlink/sdk/IoT_LINK/iot_link/network/lwm2m/wakaama_lwm2m/wakaama-master/core\data.c ****         break;
 1392              		.loc 1 408 9 view .LVU313
 408:C:/Users/²Ü¼ÒºÀ/.iotlink/sdk/IoT_LINK/iot_link/network/lwm2m/wakaama_lwm2m/wakaama-master/core\data.c ****         break;
 1393              		.loc 1 408 18 is_stmt 0 view .LVU314
 1394 0070 D4E90210 		ldrd	r1, r0, [r4, #8]
 1395 0074 2A46     		mov	r2, r5
 1396 0076 FFF7FEFF 		bl	utils_textToFloat
 1397              	.LVL125:
 1398 007a 0446     		mov	r4, r0
 1399              	.LVL126:
 409:C:/Users/²Ü¼ÒºÀ/.iotlink/sdk/IoT_LINK/iot_link/network/lwm2m/wakaama_lwm2m/wakaama-master/core\data.c **** 
 1400              		.loc 1 409 9 is_stmt 1 view .LVU315
 1401              	.L87:
 429:C:/Users/²Ü¼ÒºÀ/.iotlink/sdk/IoT_LINK/iot_link/network/lwm2m/wakaama_lwm2m/wakaama-master/core\data.c **** 
 430:C:/Users/²Ü¼ÒºÀ/.iotlink/sdk/IoT_LINK/iot_link/network/lwm2m/wakaama_lwm2m/wakaama-master/core\data.c ****         default:
 431:C:/Users/²Ü¼ÒºÀ/.iotlink/sdk/IoT_LINK/iot_link/network/lwm2m/wakaama_lwm2m/wakaama-master/core\data.c ****             result = 0;
 432:C:/Users/²Ü¼ÒºÀ/.iotlink/sdk/IoT_LINK/iot_link/network/lwm2m/wakaama_lwm2m/wakaama-master/core\data.c ****         }
 433:C:/Users/²Ü¼ÒºÀ/.iotlink/sdk/IoT_LINK/iot_link/network/lwm2m/wakaama_lwm2m/wakaama-master/core\data.c ****         break;
 434:C:/Users/²Ü¼ÒºÀ/.iotlink/sdk/IoT_LINK/iot_link/network/lwm2m/wakaama_lwm2m/wakaama-master/core\data.c **** 
 435:C:/Users/²Ü¼ÒºÀ/.iotlink/sdk/IoT_LINK/iot_link/network/lwm2m/wakaama_lwm2m/wakaama-master/core\data.c ****     default:
 436:C:/Users/²Ü¼ÒºÀ/.iotlink/sdk/IoT_LINK/iot_link/network/lwm2m/wakaama_lwm2m/wakaama-master/core\data.c ****         result = 0;
 437:C:/Users/²Ü¼ÒºÀ/.iotlink/sdk/IoT_LINK/iot_link/network/lwm2m/wakaama_lwm2m/wakaama-master/core\data.c ****     }
 438:C:/Users/²Ü¼ÒºÀ/.iotlink/sdk/IoT_LINK/iot_link/network/lwm2m/wakaama_lwm2m/wakaama-master/core\data.c **** 
 439:C:/Users/²Ü¼ÒºÀ/.iotlink/sdk/IoT_LINK/iot_link/network/lwm2m/wakaama_lwm2m/wakaama-master/core\data.c ****     LOG_ARG("result: %d, value: %f", result, *valueP);
 1402              		.loc 1 439 5 view .LVU316
 1403              		.loc 1 439 5 view .LVU317
 1404 007c FFF7FEFF 		bl	link_log_level_get
 1405              	.LVL127:
 1406 0080 0128     		cmp	r0, #1
 1407 0082 1ED8     		bhi	.L85
 1408              		.loc 1 439 5 discriminator 1 view .LVU318
 1409              		.loc 1 439 5 discriminator 1 view .LVU319
 1410              		.loc 1 439 5 discriminator 1 view .LVU320
 1411 0084 0120     		movs	r0, #1
 1412 0086 FFF7FEFF 		bl	link_log_level_name
 1413              	.LVL128:
 1414 008a 0646     		mov	r6, r0
 1415 008c FFF7FEFF 		bl	osal_sys_time
 1416              	.LVL129:
 1417 0090 0790     		str	r0, [sp, #28]
 1418 0092 FFF7FEFF 		bl	lwm2m_gettime
 1419              	.LVL130:
 1420 0096 D5E90089 		ldrd	r8, [r5]
 1421 009a 40F2B713 		movw	r3, #439
 1422 009e 0293     		str	r3, [sp, #8]
 1423 00a0 144B     		ldr	r3, .L99
 1424 00a2 079A     		ldr	r2, [sp, #28]
 1425 00a4 0394     		str	r4, [sp, #12]
 1426 00a6 CDE90003 		strd	r0, r3, [sp]
 1427 00aa CDE90489 		strd	r8, [sp, #16]
 1428 00ae 124B     		ldr	r3, .L99+4
 1429 00b0 1448     		ldr	r0, .L99+16
 1430 00b2 3146     		mov	r1, r6
 1431 00b4 FFF7FEFF 		bl	printf
 1432              	.LVL131:
 1433              		.loc 1 439 5 discriminator 1 view .LVU321
ARM GAS  C:\Users\²Ü¼ÒºÀ\AppData\Local\Temp\cc2xoMwd.s 			page 36


 1434 00b8 114B     		ldr	r3, .L99+12
 1435 00ba 1B68     		ldr	r3, [r3]
 1436 00bc 9868     		ldr	r0, [r3, #8]
 1437 00be FFF7FEFF 		bl	fflush
 1438              	.LVL132:
 1439              		.loc 1 439 5 discriminator 1 view .LVU322
 1440              		.loc 1 439 5 discriminator 1 view .LVU323
 1441              		.loc 1 439 5 discriminator 1 view .LVU324
 440:C:/Users/²Ü¼ÒºÀ/.iotlink/sdk/IoT_LINK/iot_link/network/lwm2m/wakaama_lwm2m/wakaama-master/core\data.c **** 
 441:C:/Users/²Ü¼ÒºÀ/.iotlink/sdk/IoT_LINK/iot_link/network/lwm2m/wakaama_lwm2m/wakaama-master/core\data.c ****     return result;
 1442              		.loc 1 441 5 discriminator 1 view .LVU325
 1443              	.L85:
 442:C:/Users/²Ü¼ÒºÀ/.iotlink/sdk/IoT_LINK/iot_link/network/lwm2m/wakaama_lwm2m/wakaama-master/core\data.c **** }
 1444              		.loc 1 442 1 is_stmt 0 view .LVU326
 1445 00c2 2046     		mov	r0, r4
 1446 00c4 0AB0     		add	sp, sp, #40
 1447              	.LCFI37:
 1448              		.cfi_remember_state
 1449              		.cfi_def_cfa_offset 24
 1450              		@ sp needed
 1451 00c6 BDE87083 		pop	{r4, r5, r6, r8, r9, pc}
 1452              	.LVL133:
 1453              	.L91:
 1454              	.LCFI38:
 1455              		.cfi_restore_state
 412:C:/Users/²Ü¼ÒºÀ/.iotlink/sdk/IoT_LINK/iot_link/network/lwm2m/wakaama_lwm2m/wakaama-master/core\data.c ****         {
 1456              		.loc 1 412 9 is_stmt 1 view .LVU327
 412:C:/Users/²Ü¼ÒºÀ/.iotlink/sdk/IoT_LINK/iot_link/network/lwm2m/wakaama_lwm2m/wakaama-master/core\data.c ****         {
 1457              		.loc 1 412 38 is_stmt 0 view .LVU328
 1458 00ca A268     		ldr	r2, [r4, #8]
 1459 00cc 042A     		cmp	r2, #4
 1460 00ce 03D0     		beq	.L93
 1461 00d0 082A     		cmp	r2, #8
 1462 00d2 09D0     		beq	.L94
 1463              	.L96:
 395:C:/Users/²Ü¼ÒºÀ/.iotlink/sdk/IoT_LINK/iot_link/network/lwm2m/wakaama_lwm2m/wakaama-master/core\data.c ****     {
 1464              		.loc 1 395 18 view .LVU329
 1465 00d4 0024     		movs	r4, #0
 1466              	.LVL134:
 395:C:/Users/²Ü¼ÒºÀ/.iotlink/sdk/IoT_LINK/iot_link/network/lwm2m/wakaama_lwm2m/wakaama-master/core\data.c ****     {
 1467              		.loc 1 395 18 view .LVU330
 1468 00d6 D1E7     		b	.L87
 1469              	.LVL135:
 1470              	.L93:
 1471              	.LBB16:
 416:C:/Users/²Ü¼ÒºÀ/.iotlink/sdk/IoT_LINK/iot_link/network/lwm2m/wakaama_lwm2m/wakaama-master/core\data.c **** 
 1472              		.loc 1 416 13 is_stmt 1 discriminator 1 view .LVU331
 418:C:/Users/²Ü¼ÒºÀ/.iotlink/sdk/IoT_LINK/iot_link/network/lwm2m/wakaama_lwm2m/wakaama-master/core\data.c **** 
 1473              		.loc 1 418 13 discriminator 1 view .LVU332
 1474 00d8 09A8     		add	r0, sp, #36
 1475 00da E168     		ldr	r1, [r4, #12]
 1476 00dc FFF7FEFF 		bl	utils_copyValue
 1477              	.LVL136:
 420:C:/Users/²Ü¼ÒºÀ/.iotlink/sdk/IoT_LINK/iot_link/network/lwm2m/wakaama_lwm2m/wakaama-master/core\data.c ****             result = 1;
 1478              		.loc 1 420 13 discriminator 1 view .LVU333
 420:C:/Users/²Ü¼ÒºÀ/.iotlink/sdk/IoT_LINK/iot_link/network/lwm2m/wakaama_lwm2m/wakaama-master/core\data.c ****             result = 1;
 1479              		.loc 1 420 21 is_stmt 0 discriminator 1 view .LVU334
ARM GAS  C:\Users\²Ü¼ÒºÀ\AppData\Local\Temp\cc2xoMwd.s 			page 37


 1480 00e0 0998     		ldr	r0, [sp, #36]	@ float
 1481 00e2 FFF7FEFF 		bl	__aeabi_f2d
 1482              	.LVL137:
 1483 00e6 C0E7     		b	.L98
 1484              	.L94:
 420:C:/Users/²Ü¼ÒºÀ/.iotlink/sdk/IoT_LINK/iot_link/network/lwm2m/wakaama_lwm2m/wakaama-master/core\data.c ****             result = 1;
 1485              		.loc 1 420 21 discriminator 1 view .LVU335
 1486              	.LBE16:
 426:C:/Users/²Ü¼ÒºÀ/.iotlink/sdk/IoT_LINK/iot_link/network/lwm2m/wakaama_lwm2m/wakaama-master/core\data.c ****             result = 1;
 1487              		.loc 1 426 13 is_stmt 1 view .LVU336
 1488 00e8 E168     		ldr	r1, [r4, #12]
 1489 00ea 2846     		mov	r0, r5
 1490 00ec FFF7FEFF 		bl	utils_copyValue
 1491              	.LVL138:
 1492 00f0 B5E7     		b	.L97
 1493              	.L100:
 1494 00f2 00BF     		.align	2
 1495              	.L99:
 1496 00f4 00000000 		.word	.LANCHOR17
 1497 00f8 00000000 		.word	.LANCHOR16
 1498 00fc 00000000 		.word	.LC5
 1499 0100 00000000 		.word	_impure_ptr
 1500 0104 00000000 		.word	.LC8
 1501              		.cfi_endproc
 1502              	.LFE15:
 1504              		.section	.rodata.lwm2m_data_encode_bool.str1.1,"aMS",%progbits,1
 1505              	.LC9:
 1506 0000 74727565 		.ascii	"true\000"
 1506      00
 1507              	.LC10:
 1508 0005 66616C73 		.ascii	"false\000"
 1508      6500
 1509              	.LC11:
 1510 000b 5B25735D 		.ascii	"[%s][%u][%s] [%d][%s:%d] value: %s\015\012\015\012\000"
 1510      5B25755D 
 1510      5B25735D 
 1510      205B2564 
 1510      5D5B2573 
 1511              		.section	.text.lwm2m_data_encode_bool,"ax",%progbits
 1512              		.align	1
 1513              		.global	lwm2m_data_encode_bool
 1514              		.syntax unified
 1515              		.thumb
 1516              		.thumb_func
 1517              		.fpu fpv4-sp-d16
 1519              	lwm2m_data_encode_bool:
 1520              	.LVL139:
 1521              	.LFB16:
 443:C:/Users/²Ü¼ÒºÀ/.iotlink/sdk/IoT_LINK/iot_link/network/lwm2m/wakaama_lwm2m/wakaama-master/core\data.c **** 
 444:C:/Users/²Ü¼ÒºÀ/.iotlink/sdk/IoT_LINK/iot_link/network/lwm2m/wakaama_lwm2m/wakaama-master/core\data.c **** void lwm2m_data_encode_bool(bool value,
 445:C:/Users/²Ü¼ÒºÀ/.iotlink/sdk/IoT_LINK/iot_link/network/lwm2m/wakaama_lwm2m/wakaama-master/core\data.c ****                             lwm2m_data_t *dataP)
 446:C:/Users/²Ü¼ÒºÀ/.iotlink/sdk/IoT_LINK/iot_link/network/lwm2m/wakaama_lwm2m/wakaama-master/core\data.c **** {
 1522              		.loc 1 446 1 view -0
 1523              		.cfi_startproc
 1524              		@ args = 0, pretend = 0, frame = 8
 1525              		@ frame_needed = 0, uses_anonymous_args = 0
 447:C:/Users/²Ü¼ÒºÀ/.iotlink/sdk/IoT_LINK/iot_link/network/lwm2m/wakaama_lwm2m/wakaama-master/core\data.c ****     LOG_ARG("value: %s", value ? "true" : "false");
ARM GAS  C:\Users\²Ü¼ÒºÀ\AppData\Local\Temp\cc2xoMwd.s 			page 38


 1526              		.loc 1 447 5 view .LVU338
 1527              		.loc 1 447 5 view .LVU339
 446:C:/Users/²Ü¼ÒºÀ/.iotlink/sdk/IoT_LINK/iot_link/network/lwm2m/wakaama_lwm2m/wakaama-master/core\data.c ****     LOG_ARG("value: %s", value ? "true" : "false");
 1528              		.loc 1 446 1 is_stmt 0 view .LVU340
 1529 0000 70B5     		push	{r4, r5, r6, lr}
 1530              	.LCFI39:
 1531              		.cfi_def_cfa_offset 16
 1532              		.cfi_offset 4, -16
 1533              		.cfi_offset 5, -12
 1534              		.cfi_offset 6, -8
 1535              		.cfi_offset 14, -4
 1536 0002 86B0     		sub	sp, sp, #24
 1537              	.LCFI40:
 1538              		.cfi_def_cfa_offset 40
 446:C:/Users/²Ü¼ÒºÀ/.iotlink/sdk/IoT_LINK/iot_link/network/lwm2m/wakaama_lwm2m/wakaama-master/core\data.c ****     LOG_ARG("value: %s", value ? "true" : "false");
 1539              		.loc 1 446 1 view .LVU341
 1540 0004 0546     		mov	r5, r0
 1541 0006 0C46     		mov	r4, r1
 1542              		.loc 1 447 5 view .LVU342
 1543 0008 FFF7FEFF 		bl	link_log_level_get
 1544              	.LVL140:
 1545              		.loc 1 447 5 view .LVU343
 1546 000c 0128     		cmp	r0, #1
 1547 000e 1FD8     		bhi	.L102
 1548              		.loc 1 447 5 is_stmt 1 discriminator 1 view .LVU344
 1549              		.loc 1 447 5 discriminator 1 view .LVU345
 1550              		.loc 1 447 5 discriminator 1 view .LVU346
 1551 0010 0120     		movs	r0, #1
 1552 0012 FFF7FEFF 		bl	link_log_level_name
 1553              	.LVL141:
 1554 0016 0646     		mov	r6, r0
 1555 0018 FFF7FEFF 		bl	osal_sys_time
 1556              	.LVL142:
 1557 001c 0590     		str	r0, [sp, #20]
 1558 001e FFF7FEFF 		bl	lwm2m_gettime
 1559              	.LVL143:
 1560 0022 0E49     		ldr	r1, .L105
 1561 0024 0E4B     		ldr	r3, .L105+4
 1562 0026 059A     		ldr	r2, [sp, #20]
 1563 0028 002D     		cmp	r5, #0
 1564 002a 08BF     		it	eq
 1565 002c 0B46     		moveq	r3, r1
 1566 002e 0393     		str	r3, [sp, #12]
 1567 0030 40F2BF13 		movw	r3, #447
 1568 0034 0293     		str	r3, [sp, #8]
 1569 0036 0B4B     		ldr	r3, .L105+8
 1570 0038 3146     		mov	r1, r6
 1571 003a CDE90003 		strd	r0, r3, [sp]
 1572 003e 0A4B     		ldr	r3, .L105+12
 1573 0040 0A48     		ldr	r0, .L105+16
 1574 0042 FFF7FEFF 		bl	printf
 1575              	.LVL144:
 1576              		.loc 1 447 5 discriminator 1 view .LVU347
 1577 0046 0A4B     		ldr	r3, .L105+20
 1578 0048 1B68     		ldr	r3, [r3]
 1579 004a 9868     		ldr	r0, [r3, #8]
 1580 004c FFF7FEFF 		bl	fflush
ARM GAS  C:\Users\²Ü¼ÒºÀ\AppData\Local\Temp\cc2xoMwd.s 			page 39


 1581              	.LVL145:
 1582              	.L102:
 1583              		.loc 1 447 5 discriminator 7 view .LVU348
 1584              		.loc 1 447 5 discriminator 7 view .LVU349
 1585              		.loc 1 447 5 discriminator 7 view .LVU350
 448:C:/Users/²Ü¼ÒºÀ/.iotlink/sdk/IoT_LINK/iot_link/network/lwm2m/wakaama_lwm2m/wakaama-master/core\data.c ****     dataP->type = LWM2M_TYPE_BOOLEAN;
 1586              		.loc 1 448 5 discriminator 7 view .LVU351
 1587              		.loc 1 448 17 is_stmt 0 discriminator 7 view .LVU352
 1588 0050 0823     		movs	r3, #8
 1589 0052 2370     		strb	r3, [r4]
 449:C:/Users/²Ü¼ÒºÀ/.iotlink/sdk/IoT_LINK/iot_link/network/lwm2m/wakaama_lwm2m/wakaama-master/core\data.c ****     dataP->value.asBoolean = value;
 1590              		.loc 1 449 5 is_stmt 1 discriminator 7 view .LVU353
 1591              		.loc 1 449 28 is_stmt 0 discriminator 7 view .LVU354
 1592 0054 2572     		strb	r5, [r4, #8]
 450:C:/Users/²Ü¼ÒºÀ/.iotlink/sdk/IoT_LINK/iot_link/network/lwm2m/wakaama_lwm2m/wakaama-master/core\data.c **** }
 1593              		.loc 1 450 1 discriminator 7 view .LVU355
 1594 0056 06B0     		add	sp, sp, #24
 1595              	.LCFI41:
 1596              		.cfi_def_cfa_offset 16
 1597              		@ sp needed
 1598 0058 70BD     		pop	{r4, r5, r6, pc}
 1599              	.LVL146:
 1600              	.L106:
 1601              		.loc 1 450 1 discriminator 7 view .LVU356
 1602 005a 00BF     		.align	2
 1603              	.L105:
 1604 005c 05000000 		.word	.LC10
 1605 0060 00000000 		.word	.LC9
 1606 0064 00000000 		.word	.LANCHOR19
 1607 0068 00000000 		.word	.LANCHOR18
 1608 006c 0B000000 		.word	.LC11
 1609 0070 00000000 		.word	_impure_ptr
 1610              		.cfi_endproc
 1611              	.LFE16:
 1613              		.section	.rodata.lwm2m_data_decode_bool.str1.1,"aMS",%progbits,1
 1614              	.LC12:
 1615 0000 5B25735D 		.ascii	"[%s][%u][%s] [%d][%s:%d] result: %d, value: %s\015\012"
 1615      5B25755D 
 1615      5B25735D 
 1615      205B2564 
 1615      5D5B2573 
 1616 0030 0D0A00   		.ascii	"\015\012\000"
 1617              		.section	.text.lwm2m_data_decode_bool,"ax",%progbits
 1618              		.align	1
 1619              		.global	lwm2m_data_decode_bool
 1620              		.syntax unified
 1621              		.thumb
 1622              		.thumb_func
 1623              		.fpu fpv4-sp-d16
 1625              	lwm2m_data_decode_bool:
 1626              	.LVL147:
 1627              	.LFB17:
 451:C:/Users/²Ü¼ÒºÀ/.iotlink/sdk/IoT_LINK/iot_link/network/lwm2m/wakaama_lwm2m/wakaama-master/core\data.c **** 
 452:C:/Users/²Ü¼ÒºÀ/.iotlink/sdk/IoT_LINK/iot_link/network/lwm2m/wakaama_lwm2m/wakaama-master/core\data.c **** int lwm2m_data_decode_bool(const lwm2m_data_t *dataP,
 453:C:/Users/²Ü¼ÒºÀ/.iotlink/sdk/IoT_LINK/iot_link/network/lwm2m/wakaama_lwm2m/wakaama-master/core\data.c ****                            bool *valueP)
 454:C:/Users/²Ü¼ÒºÀ/.iotlink/sdk/IoT_LINK/iot_link/network/lwm2m/wakaama_lwm2m/wakaama-master/core\data.c **** {
 1628              		.loc 1 454 1 is_stmt 1 view -0
ARM GAS  C:\Users\²Ü¼ÒºÀ\AppData\Local\Temp\cc2xoMwd.s 			page 40


 1629              		.cfi_startproc
 1630              		@ args = 0, pretend = 0, frame = 8
 1631              		@ frame_needed = 0, uses_anonymous_args = 0
 455:C:/Users/²Ü¼ÒºÀ/.iotlink/sdk/IoT_LINK/iot_link/network/lwm2m/wakaama_lwm2m/wakaama-master/core\data.c ****     int result;
 1632              		.loc 1 455 5 view .LVU358
 456:C:/Users/²Ü¼ÒºÀ/.iotlink/sdk/IoT_LINK/iot_link/network/lwm2m/wakaama_lwm2m/wakaama-master/core\data.c **** 
 457:C:/Users/²Ü¼ÒºÀ/.iotlink/sdk/IoT_LINK/iot_link/network/lwm2m/wakaama_lwm2m/wakaama-master/core\data.c ****     LOG("Entering");
 1633              		.loc 1 457 5 view .LVU359
 1634              		.loc 1 457 5 view .LVU360
 454:C:/Users/²Ü¼ÒºÀ/.iotlink/sdk/IoT_LINK/iot_link/network/lwm2m/wakaama_lwm2m/wakaama-master/core\data.c ****     int result;
 1635              		.loc 1 454 1 is_stmt 0 view .LVU361
 1636 0000 70B5     		push	{r4, r5, r6, lr}
 1637              	.LCFI42:
 1638              		.cfi_def_cfa_offset 16
 1639              		.cfi_offset 4, -16
 1640              		.cfi_offset 5, -12
 1641              		.cfi_offset 6, -8
 1642              		.cfi_offset 14, -4
 1643 0002 88B0     		sub	sp, sp, #32
 1644              	.LCFI43:
 1645              		.cfi_def_cfa_offset 48
 454:C:/Users/²Ü¼ÒºÀ/.iotlink/sdk/IoT_LINK/iot_link/network/lwm2m/wakaama_lwm2m/wakaama-master/core\data.c ****     int result;
 1646              		.loc 1 454 1 view .LVU362
 1647 0004 0446     		mov	r4, r0
 1648 0006 0D46     		mov	r5, r1
 1649              		.loc 1 457 5 view .LVU363
 1650 0008 FFF7FEFF 		bl	link_log_level_get
 1651              	.LVL148:
 1652              		.loc 1 457 5 view .LVU364
 1653 000c 0128     		cmp	r0, #1
 1654 000e 19D8     		bhi	.L108
 1655              		.loc 1 457 5 is_stmt 1 discriminator 1 view .LVU365
 1656              		.loc 1 457 5 discriminator 1 view .LVU366
 1657              		.loc 1 457 5 discriminator 1 view .LVU367
 1658 0010 0120     		movs	r0, #1
 1659 0012 FFF7FEFF 		bl	link_log_level_name
 1660              	.LVL149:
 1661 0016 0646     		mov	r6, r0
 1662 0018 FFF7FEFF 		bl	osal_sys_time
 1663              	.LVL150:
 1664 001c 0790     		str	r0, [sp, #28]
 1665 001e FFF7FEFF 		bl	lwm2m_gettime
 1666              	.LVL151:
 1667 0022 40F2C913 		movw	r3, #457
 1668 0026 0293     		str	r3, [sp, #8]
 1669 0028 2D4B     		ldr	r3, .L136
 1670 002a 079A     		ldr	r2, [sp, #28]
 1671 002c CDE90003 		strd	r0, r3, [sp]
 1672 0030 3146     		mov	r1, r6
 1673 0032 2C4B     		ldr	r3, .L136+4
 1674 0034 2C48     		ldr	r0, .L136+8
 1675 0036 FFF7FEFF 		bl	printf
 1676              	.LVL152:
 1677              		.loc 1 457 5 discriminator 1 view .LVU368
 1678 003a 2C4B     		ldr	r3, .L136+12
 1679 003c 1B68     		ldr	r3, [r3]
 1680 003e 9868     		ldr	r0, [r3, #8]
ARM GAS  C:\Users\²Ü¼ÒºÀ\AppData\Local\Temp\cc2xoMwd.s 			page 41


 1681 0040 FFF7FEFF 		bl	fflush
 1682              	.LVL153:
 1683              	.L108:
 1684              		.loc 1 457 5 discriminator 3 view .LVU369
 1685              		.loc 1 457 5 discriminator 3 view .LVU370
 1686              		.loc 1 457 5 discriminator 3 view .LVU371
 458:C:/Users/²Ü¼ÒºÀ/.iotlink/sdk/IoT_LINK/iot_link/network/lwm2m/wakaama_lwm2m/wakaama-master/core\data.c ****     switch (dataP->type)
 1687              		.loc 1 458 5 discriminator 3 view .LVU372
 1688              		.loc 1 458 18 is_stmt 0 discriminator 3 view .LVU373
 1689 0044 2378     		ldrb	r3, [r4]	@ zero_extendqisi2
 1690              		.loc 1 458 5 discriminator 3 view .LVU374
 1691 0046 052B     		cmp	r3, #5
 1692 0048 3FD0     		beq	.L109
 1693              		.loc 1 458 5 view .LVU375
 1694 004a 082B     		cmp	r3, #8
 1695 004c 03D0     		beq	.L110
 1696 004e 042B     		cmp	r3, #4
 1697 0050 2DD0     		beq	.L111
 1698              	.L132:
 1699 0052 0024     		movs	r4, #0
 1700              	.LVL154:
 1701              		.loc 1 458 5 view .LVU376
 1702 0054 02E0     		b	.L112
 1703              	.LVL155:
 1704              	.L110:
 459:C:/Users/²Ü¼ÒºÀ/.iotlink/sdk/IoT_LINK/iot_link/network/lwm2m/wakaama_lwm2m/wakaama-master/core\data.c ****     {
 460:C:/Users/²Ü¼ÒºÀ/.iotlink/sdk/IoT_LINK/iot_link/network/lwm2m/wakaama_lwm2m/wakaama-master/core\data.c ****     case LWM2M_TYPE_BOOLEAN:
 461:C:/Users/²Ü¼ÒºÀ/.iotlink/sdk/IoT_LINK/iot_link/network/lwm2m/wakaama_lwm2m/wakaama-master/core\data.c ****         *valueP = dataP->value.asBoolean;
 1705              		.loc 1 461 9 is_stmt 1 view .LVU377
 1706              		.loc 1 461 31 is_stmt 0 view .LVU378
 1707 0056 237A     		ldrb	r3, [r4, #8]	@ zero_extendqisi2
 1708              	.L133:
 462:C:/Users/²Ü¼ÒºÀ/.iotlink/sdk/IoT_LINK/iot_link/network/lwm2m/wakaama_lwm2m/wakaama-master/core\data.c ****         result = 1;
 463:C:/Users/²Ü¼ÒºÀ/.iotlink/sdk/IoT_LINK/iot_link/network/lwm2m/wakaama_lwm2m/wakaama-master/core\data.c ****         break;
 464:C:/Users/²Ü¼ÒºÀ/.iotlink/sdk/IoT_LINK/iot_link/network/lwm2m/wakaama_lwm2m/wakaama-master/core\data.c **** 
 465:C:/Users/²Ü¼ÒºÀ/.iotlink/sdk/IoT_LINK/iot_link/network/lwm2m/wakaama_lwm2m/wakaama-master/core\data.c ****     case LWM2M_TYPE_STRING:
 466:C:/Users/²Ü¼ÒºÀ/.iotlink/sdk/IoT_LINK/iot_link/network/lwm2m/wakaama_lwm2m/wakaama-master/core\data.c ****         if (dataP->value.asBuffer.length != 1) return 0;
 467:C:/Users/²Ü¼ÒºÀ/.iotlink/sdk/IoT_LINK/iot_link/network/lwm2m/wakaama_lwm2m/wakaama-master/core\data.c **** 
 468:C:/Users/²Ü¼ÒºÀ/.iotlink/sdk/IoT_LINK/iot_link/network/lwm2m/wakaama_lwm2m/wakaama-master/core\data.c ****         switch (dataP->value.asBuffer.buffer[0])
 469:C:/Users/²Ü¼ÒºÀ/.iotlink/sdk/IoT_LINK/iot_link/network/lwm2m/wakaama_lwm2m/wakaama-master/core\data.c ****         {
 470:C:/Users/²Ü¼ÒºÀ/.iotlink/sdk/IoT_LINK/iot_link/network/lwm2m/wakaama_lwm2m/wakaama-master/core\data.c ****         case '0':
 471:C:/Users/²Ü¼ÒºÀ/.iotlink/sdk/IoT_LINK/iot_link/network/lwm2m/wakaama_lwm2m/wakaama-master/core\data.c ****             *valueP = false;
 1709              		.loc 1 471 21 view .LVU379
 1710 0058 2B70     		strb	r3, [r5]
 472:C:/Users/²Ü¼ÒºÀ/.iotlink/sdk/IoT_LINK/iot_link/network/lwm2m/wakaama_lwm2m/wakaama-master/core\data.c ****             result = 1;
 1711              		.loc 1 472 13 is_stmt 1 view .LVU380
 1712              	.LVL156:
 473:C:/Users/²Ü¼ÒºÀ/.iotlink/sdk/IoT_LINK/iot_link/network/lwm2m/wakaama_lwm2m/wakaama-master/core\data.c ****             break;
 1713              		.loc 1 473 13 view .LVU381
 472:C:/Users/²Ü¼ÒºÀ/.iotlink/sdk/IoT_LINK/iot_link/network/lwm2m/wakaama_lwm2m/wakaama-master/core\data.c ****             result = 1;
 1714              		.loc 1 472 20 is_stmt 0 view .LVU382
 1715 005a 0124     		movs	r4, #1
 1716              	.LVL157:
 1717              	.L112:
 474:C:/Users/²Ü¼ÒºÀ/.iotlink/sdk/IoT_LINK/iot_link/network/lwm2m/wakaama_lwm2m/wakaama-master/core\data.c ****         case '1':
 475:C:/Users/²Ü¼ÒºÀ/.iotlink/sdk/IoT_LINK/iot_link/network/lwm2m/wakaama_lwm2m/wakaama-master/core\data.c ****             *valueP = true;
 476:C:/Users/²Ü¼ÒºÀ/.iotlink/sdk/IoT_LINK/iot_link/network/lwm2m/wakaama_lwm2m/wakaama-master/core\data.c ****             result = 1;
ARM GAS  C:\Users\²Ü¼ÒºÀ\AppData\Local\Temp\cc2xoMwd.s 			page 42


 477:C:/Users/²Ü¼ÒºÀ/.iotlink/sdk/IoT_LINK/iot_link/network/lwm2m/wakaama_lwm2m/wakaama-master/core\data.c ****             break;
 478:C:/Users/²Ü¼ÒºÀ/.iotlink/sdk/IoT_LINK/iot_link/network/lwm2m/wakaama_lwm2m/wakaama-master/core\data.c ****         default:
 479:C:/Users/²Ü¼ÒºÀ/.iotlink/sdk/IoT_LINK/iot_link/network/lwm2m/wakaama_lwm2m/wakaama-master/core\data.c ****             result = 0;
 480:C:/Users/²Ü¼ÒºÀ/.iotlink/sdk/IoT_LINK/iot_link/network/lwm2m/wakaama_lwm2m/wakaama-master/core\data.c ****             break;
 481:C:/Users/²Ü¼ÒºÀ/.iotlink/sdk/IoT_LINK/iot_link/network/lwm2m/wakaama_lwm2m/wakaama-master/core\data.c ****         }
 482:C:/Users/²Ü¼ÒºÀ/.iotlink/sdk/IoT_LINK/iot_link/network/lwm2m/wakaama_lwm2m/wakaama-master/core\data.c ****         break;
 483:C:/Users/²Ü¼ÒºÀ/.iotlink/sdk/IoT_LINK/iot_link/network/lwm2m/wakaama_lwm2m/wakaama-master/core\data.c **** 
 484:C:/Users/²Ü¼ÒºÀ/.iotlink/sdk/IoT_LINK/iot_link/network/lwm2m/wakaama_lwm2m/wakaama-master/core\data.c ****     case LWM2M_TYPE_OPAQUE:
 485:C:/Users/²Ü¼ÒºÀ/.iotlink/sdk/IoT_LINK/iot_link/network/lwm2m/wakaama_lwm2m/wakaama-master/core\data.c ****         if (dataP->value.asBuffer.length != 1) return 0;
 486:C:/Users/²Ü¼ÒºÀ/.iotlink/sdk/IoT_LINK/iot_link/network/lwm2m/wakaama_lwm2m/wakaama-master/core\data.c **** 
 487:C:/Users/²Ü¼ÒºÀ/.iotlink/sdk/IoT_LINK/iot_link/network/lwm2m/wakaama_lwm2m/wakaama-master/core\data.c ****         switch (dataP->value.asBuffer.buffer[0])
 488:C:/Users/²Ü¼ÒºÀ/.iotlink/sdk/IoT_LINK/iot_link/network/lwm2m/wakaama_lwm2m/wakaama-master/core\data.c ****         {
 489:C:/Users/²Ü¼ÒºÀ/.iotlink/sdk/IoT_LINK/iot_link/network/lwm2m/wakaama_lwm2m/wakaama-master/core\data.c ****         case 0:
 490:C:/Users/²Ü¼ÒºÀ/.iotlink/sdk/IoT_LINK/iot_link/network/lwm2m/wakaama_lwm2m/wakaama-master/core\data.c ****             *valueP = false;
 491:C:/Users/²Ü¼ÒºÀ/.iotlink/sdk/IoT_LINK/iot_link/network/lwm2m/wakaama_lwm2m/wakaama-master/core\data.c ****             result = 1;
 492:C:/Users/²Ü¼ÒºÀ/.iotlink/sdk/IoT_LINK/iot_link/network/lwm2m/wakaama_lwm2m/wakaama-master/core\data.c ****             break;
 493:C:/Users/²Ü¼ÒºÀ/.iotlink/sdk/IoT_LINK/iot_link/network/lwm2m/wakaama_lwm2m/wakaama-master/core\data.c ****         case 1:
 494:C:/Users/²Ü¼ÒºÀ/.iotlink/sdk/IoT_LINK/iot_link/network/lwm2m/wakaama_lwm2m/wakaama-master/core\data.c ****             *valueP = true;
 495:C:/Users/²Ü¼ÒºÀ/.iotlink/sdk/IoT_LINK/iot_link/network/lwm2m/wakaama_lwm2m/wakaama-master/core\data.c ****             result = 1;
 496:C:/Users/²Ü¼ÒºÀ/.iotlink/sdk/IoT_LINK/iot_link/network/lwm2m/wakaama_lwm2m/wakaama-master/core\data.c ****             break;
 497:C:/Users/²Ü¼ÒºÀ/.iotlink/sdk/IoT_LINK/iot_link/network/lwm2m/wakaama_lwm2m/wakaama-master/core\data.c ****         default:
 498:C:/Users/²Ü¼ÒºÀ/.iotlink/sdk/IoT_LINK/iot_link/network/lwm2m/wakaama_lwm2m/wakaama-master/core\data.c ****             result = 0;
 499:C:/Users/²Ü¼ÒºÀ/.iotlink/sdk/IoT_LINK/iot_link/network/lwm2m/wakaama_lwm2m/wakaama-master/core\data.c ****             break;
 500:C:/Users/²Ü¼ÒºÀ/.iotlink/sdk/IoT_LINK/iot_link/network/lwm2m/wakaama_lwm2m/wakaama-master/core\data.c ****         }
 501:C:/Users/²Ü¼ÒºÀ/.iotlink/sdk/IoT_LINK/iot_link/network/lwm2m/wakaama_lwm2m/wakaama-master/core\data.c ****         break;
 502:C:/Users/²Ü¼ÒºÀ/.iotlink/sdk/IoT_LINK/iot_link/network/lwm2m/wakaama_lwm2m/wakaama-master/core\data.c **** 
 503:C:/Users/²Ü¼ÒºÀ/.iotlink/sdk/IoT_LINK/iot_link/network/lwm2m/wakaama_lwm2m/wakaama-master/core\data.c ****     default:
 504:C:/Users/²Ü¼ÒºÀ/.iotlink/sdk/IoT_LINK/iot_link/network/lwm2m/wakaama_lwm2m/wakaama-master/core\data.c ****         result = 0;
 505:C:/Users/²Ü¼ÒºÀ/.iotlink/sdk/IoT_LINK/iot_link/network/lwm2m/wakaama_lwm2m/wakaama-master/core\data.c ****         break;
 506:C:/Users/²Ü¼ÒºÀ/.iotlink/sdk/IoT_LINK/iot_link/network/lwm2m/wakaama_lwm2m/wakaama-master/core\data.c ****     }
 507:C:/Users/²Ü¼ÒºÀ/.iotlink/sdk/IoT_LINK/iot_link/network/lwm2m/wakaama_lwm2m/wakaama-master/core\data.c **** 
 508:C:/Users/²Ü¼ÒºÀ/.iotlink/sdk/IoT_LINK/iot_link/network/lwm2m/wakaama_lwm2m/wakaama-master/core\data.c ****     LOG_ARG("result: %d, value: %s", result, *valueP ? "true" : "false");
 1718              		.loc 1 508 5 is_stmt 1 view .LVU383
 1719              		.loc 1 508 5 view .LVU384
 1720 005c FFF7FEFF 		bl	link_log_level_get
 1721              	.LVL158:
 1722 0060 0128     		cmp	r0, #1
 1723 0062 21D8     		bhi	.L107
 1724              		.loc 1 508 5 discriminator 1 view .LVU385
 1725              		.loc 1 508 5 discriminator 1 view .LVU386
 1726              		.loc 1 508 5 discriminator 1 view .LVU387
 1727 0064 0120     		movs	r0, #1
 1728 0066 FFF7FEFF 		bl	link_log_level_name
 1729              	.LVL159:
 1730 006a 0646     		mov	r6, r0
 1731 006c FFF7FEFF 		bl	osal_sys_time
 1732              	.LVL160:
 1733 0070 0790     		str	r0, [sp, #28]
 1734 0072 FFF7FEFF 		bl	lwm2m_gettime
 1735              	.LVL161:
 1736 0076 2D78     		ldrb	r5, [r5]	@ zero_extendqisi2
 1737              	.LVL162:
 1738              		.loc 1 508 5 is_stmt 0 discriminator 1 view .LVU388
 1739 0078 1D49     		ldr	r1, .L136+16
 1740 007a 1E4B     		ldr	r3, .L136+20
 1741 007c 079A     		ldr	r2, [sp, #28]
 1742 007e 002D     		cmp	r5, #0
ARM GAS  C:\Users\²Ü¼ÒºÀ\AppData\Local\Temp\cc2xoMwd.s 			page 43


 1743 0080 08BF     		it	eq
 1744 0082 0B46     		moveq	r3, r1
 1745 0084 CDE90343 		strd	r4, r3, [sp, #12]
 1746 0088 4FF4FE73 		mov	r3, #508
 1747 008c 0293     		str	r3, [sp, #8]
 1748 008e 144B     		ldr	r3, .L136
 1749 0090 3146     		mov	r1, r6
 1750 0092 CDE90003 		strd	r0, r3, [sp]
 1751 0096 134B     		ldr	r3, .L136+4
 1752 0098 1748     		ldr	r0, .L136+24
 1753 009a FFF7FEFF 		bl	printf
 1754              	.LVL163:
 1755              		.loc 1 508 5 is_stmt 1 discriminator 1 view .LVU389
 1756 009e 134B     		ldr	r3, .L136+12
 1757 00a0 1B68     		ldr	r3, [r3]
 1758 00a2 9868     		ldr	r0, [r3, #8]
 1759 00a4 FFF7FEFF 		bl	fflush
 1760              	.LVL164:
 1761              	.L107:
 509:C:/Users/²Ü¼ÒºÀ/.iotlink/sdk/IoT_LINK/iot_link/network/lwm2m/wakaama_lwm2m/wakaama-master/core\data.c **** 
 510:C:/Users/²Ü¼ÒºÀ/.iotlink/sdk/IoT_LINK/iot_link/network/lwm2m/wakaama_lwm2m/wakaama-master/core\data.c ****     return result;
 511:C:/Users/²Ü¼ÒºÀ/.iotlink/sdk/IoT_LINK/iot_link/network/lwm2m/wakaama_lwm2m/wakaama-master/core\data.c **** }
 1762              		.loc 1 511 1 is_stmt 0 view .LVU390
 1763 00a8 2046     		mov	r0, r4
 1764 00aa 08B0     		add	sp, sp, #32
 1765              	.LCFI44:
 1766              		.cfi_remember_state
 1767              		.cfi_def_cfa_offset 16
 1768              		@ sp needed
 1769 00ac 70BD     		pop	{r4, r5, r6, pc}
 1770              	.LVL165:
 1771              	.L111:
 1772              	.LCFI45:
 1773              		.cfi_restore_state
 466:C:/Users/²Ü¼ÒºÀ/.iotlink/sdk/IoT_LINK/iot_link/network/lwm2m/wakaama_lwm2m/wakaama-master/core\data.c **** 
 1774              		.loc 1 466 9 is_stmt 1 view .LVU391
 466:C:/Users/²Ü¼ÒºÀ/.iotlink/sdk/IoT_LINK/iot_link/network/lwm2m/wakaama_lwm2m/wakaama-master/core\data.c **** 
 1775              		.loc 1 466 12 is_stmt 0 view .LVU392
 1776 00ae A368     		ldr	r3, [r4, #8]
 1777 00b0 012B     		cmp	r3, #1
 1778 00b2 13D1     		bne	.L118
 468:C:/Users/²Ü¼ÒºÀ/.iotlink/sdk/IoT_LINK/iot_link/network/lwm2m/wakaama_lwm2m/wakaama-master/core\data.c ****         {
 1779              		.loc 1 468 9 is_stmt 1 view .LVU393
 468:C:/Users/²Ü¼ÒºÀ/.iotlink/sdk/IoT_LINK/iot_link/network/lwm2m/wakaama_lwm2m/wakaama-master/core\data.c ****         {
 1780              		.loc 1 468 45 is_stmt 0 view .LVU394
 1781 00b4 E368     		ldr	r3, [r4, #12]
 1782 00b6 1B78     		ldrb	r3, [r3]	@ zero_extendqisi2
 1783 00b8 302B     		cmp	r3, #48
 1784 00ba 04D0     		beq	.L114
 1785 00bc 312B     		cmp	r3, #49
 1786              	.L135:
 468:C:/Users/²Ü¼ÒºÀ/.iotlink/sdk/IoT_LINK/iot_link/network/lwm2m/wakaama_lwm2m/wakaama-master/core\data.c ****         {
 1787              		.loc 1 468 45 view .LVU395
 1788 00be C8D1     		bne	.L132
 475:C:/Users/²Ü¼ÒºÀ/.iotlink/sdk/IoT_LINK/iot_link/network/lwm2m/wakaama_lwm2m/wakaama-master/core\data.c ****             result = 1;
 1789              		.loc 1 475 13 is_stmt 1 view .LVU396
 475:C:/Users/²Ü¼ÒºÀ/.iotlink/sdk/IoT_LINK/iot_link/network/lwm2m/wakaama_lwm2m/wakaama-master/core\data.c ****             result = 1;
ARM GAS  C:\Users\²Ü¼ÒºÀ\AppData\Local\Temp\cc2xoMwd.s 			page 44


 1790              		.loc 1 475 21 is_stmt 0 view .LVU397
 1791 00c0 0124     		movs	r4, #1
 1792              	.LVL166:
 475:C:/Users/²Ü¼ÒºÀ/.iotlink/sdk/IoT_LINK/iot_link/network/lwm2m/wakaama_lwm2m/wakaama-master/core\data.c ****             result = 1;
 1793              		.loc 1 475 21 view .LVU398
 1794 00c2 2C70     		strb	r4, [r5]
 476:C:/Users/²Ü¼ÒºÀ/.iotlink/sdk/IoT_LINK/iot_link/network/lwm2m/wakaama_lwm2m/wakaama-master/core\data.c ****             break;
 1795              		.loc 1 476 13 is_stmt 1 view .LVU399
 1796              	.LVL167:
 477:C:/Users/²Ü¼ÒºÀ/.iotlink/sdk/IoT_LINK/iot_link/network/lwm2m/wakaama_lwm2m/wakaama-master/core\data.c ****         default:
 1797              		.loc 1 477 13 view .LVU400
 1798 00c4 CAE7     		b	.L112
 1799              	.LVL168:
 1800              	.L114:
 471:C:/Users/²Ü¼ÒºÀ/.iotlink/sdk/IoT_LINK/iot_link/network/lwm2m/wakaama_lwm2m/wakaama-master/core\data.c ****             result = 1;
 1801              		.loc 1 471 13 view .LVU401
 471:C:/Users/²Ü¼ÒºÀ/.iotlink/sdk/IoT_LINK/iot_link/network/lwm2m/wakaama_lwm2m/wakaama-master/core\data.c ****             result = 1;
 1802              		.loc 1 471 21 is_stmt 0 view .LVU402
 1803 00c6 0023     		movs	r3, #0
 1804 00c8 C6E7     		b	.L133
 1805              	.L109:
 485:C:/Users/²Ü¼ÒºÀ/.iotlink/sdk/IoT_LINK/iot_link/network/lwm2m/wakaama_lwm2m/wakaama-master/core\data.c **** 
 1806              		.loc 1 485 9 is_stmt 1 view .LVU403
 485:C:/Users/²Ü¼ÒºÀ/.iotlink/sdk/IoT_LINK/iot_link/network/lwm2m/wakaama_lwm2m/wakaama-master/core\data.c **** 
 1807              		.loc 1 485 12 is_stmt 0 view .LVU404
 1808 00ca A368     		ldr	r3, [r4, #8]
 1809 00cc 012B     		cmp	r3, #1
 1810 00ce 05D1     		bne	.L118
 487:C:/Users/²Ü¼ÒºÀ/.iotlink/sdk/IoT_LINK/iot_link/network/lwm2m/wakaama_lwm2m/wakaama-master/core\data.c ****         {
 1811              		.loc 1 487 9 is_stmt 1 view .LVU405
 487:C:/Users/²Ü¼ÒºÀ/.iotlink/sdk/IoT_LINK/iot_link/network/lwm2m/wakaama_lwm2m/wakaama-master/core\data.c ****         {
 1812              		.loc 1 487 45 is_stmt 0 view .LVU406
 1813 00d0 E368     		ldr	r3, [r4, #12]
 1814 00d2 1B78     		ldrb	r3, [r3]	@ zero_extendqisi2
 1815 00d4 002B     		cmp	r3, #0
 1816 00d6 F6D0     		beq	.L114
 1817 00d8 012B     		cmp	r3, #1
 1818 00da F0E7     		b	.L135
 1819              	.L118:
 466:C:/Users/²Ü¼ÒºÀ/.iotlink/sdk/IoT_LINK/iot_link/network/lwm2m/wakaama_lwm2m/wakaama-master/core\data.c **** 
 1820              		.loc 1 466 55 view .LVU407
 1821 00dc 0024     		movs	r4, #0
 1822              	.LVL169:
 466:C:/Users/²Ü¼ÒºÀ/.iotlink/sdk/IoT_LINK/iot_link/network/lwm2m/wakaama_lwm2m/wakaama-master/core\data.c **** 
 1823              		.loc 1 466 55 view .LVU408
 1824 00de E3E7     		b	.L107
 1825              	.L137:
 1826              		.align	2
 1827              	.L136:
 1828 00e0 00000000 		.word	.LANCHOR21
 1829 00e4 00000000 		.word	.LANCHOR20
 1830 00e8 00000000 		.word	.LC5
 1831 00ec 00000000 		.word	_impure_ptr
 1832 00f0 05000000 		.word	.LC10
 1833 00f4 00000000 		.word	.LC9
 1834 00f8 00000000 		.word	.LC12
 1835              		.cfi_endproc
ARM GAS  C:\Users\²Ü¼ÒºÀ\AppData\Local\Temp\cc2xoMwd.s 			page 45


 1836              	.LFE17:
 1838              		.section	.rodata.lwm2m_data_encode_objlink.str1.1,"aMS",%progbits,1
 1839              	.LC13:
 1840 0000 5B25735D 		.ascii	"[%s][%u][%s] [%d][%s:%d] value: %d/%d\015\012\015\012"
 1840      5B25755D 
 1840      5B25735D 
 1840      205B2564 
 1840      5D5B2573 
 1841 0029 00       		.ascii	"\000"
 1842              		.section	.text.lwm2m_data_encode_objlink,"ax",%progbits
 1843              		.align	1
 1844              		.global	lwm2m_data_encode_objlink
 1845              		.syntax unified
 1846              		.thumb
 1847              		.thumb_func
 1848              		.fpu fpv4-sp-d16
 1850              	lwm2m_data_encode_objlink:
 1851              	.LVL170:
 1852              	.LFB18:
 512:C:/Users/²Ü¼ÒºÀ/.iotlink/sdk/IoT_LINK/iot_link/network/lwm2m/wakaama_lwm2m/wakaama-master/core\data.c **** 
 513:C:/Users/²Ü¼ÒºÀ/.iotlink/sdk/IoT_LINK/iot_link/network/lwm2m/wakaama_lwm2m/wakaama-master/core\data.c **** void lwm2m_data_encode_objlink(uint16_t objectId,
 514:C:/Users/²Ü¼ÒºÀ/.iotlink/sdk/IoT_LINK/iot_link/network/lwm2m/wakaama_lwm2m/wakaama-master/core\data.c ****                                uint16_t objectInstanceId,
 515:C:/Users/²Ü¼ÒºÀ/.iotlink/sdk/IoT_LINK/iot_link/network/lwm2m/wakaama_lwm2m/wakaama-master/core\data.c ****                                lwm2m_data_t *dataP)
 516:C:/Users/²Ü¼ÒºÀ/.iotlink/sdk/IoT_LINK/iot_link/network/lwm2m/wakaama_lwm2m/wakaama-master/core\data.c **** {
 1853              		.loc 1 516 1 is_stmt 1 view -0
 1854              		.cfi_startproc
 1855              		@ args = 0, pretend = 0, frame = 8
 1856              		@ frame_needed = 0, uses_anonymous_args = 0
 517:C:/Users/²Ü¼ÒºÀ/.iotlink/sdk/IoT_LINK/iot_link/network/lwm2m/wakaama_lwm2m/wakaama-master/core\data.c ****     LOG_ARG("value: %d/%d", objectId, objectInstanceId);
 1857              		.loc 1 517 5 view .LVU410
 1858              		.loc 1 517 5 view .LVU411
 516:C:/Users/²Ü¼ÒºÀ/.iotlink/sdk/IoT_LINK/iot_link/network/lwm2m/wakaama_lwm2m/wakaama-master/core\data.c ****     LOG_ARG("value: %d/%d", objectId, objectInstanceId);
 1859              		.loc 1 516 1 is_stmt 0 view .LVU412
 1860 0000 F0B5     		push	{r4, r5, r6, r7, lr}
 1861              	.LCFI46:
 1862              		.cfi_def_cfa_offset 20
 1863              		.cfi_offset 4, -20
 1864              		.cfi_offset 5, -16
 1865              		.cfi_offset 6, -12
 1866              		.cfi_offset 7, -8
 1867              		.cfi_offset 14, -4
 1868 0002 89B0     		sub	sp, sp, #36
 1869              	.LCFI47:
 1870              		.cfi_def_cfa_offset 56
 516:C:/Users/²Ü¼ÒºÀ/.iotlink/sdk/IoT_LINK/iot_link/network/lwm2m/wakaama_lwm2m/wakaama-master/core\data.c ****     LOG_ARG("value: %d/%d", objectId, objectInstanceId);
 1871              		.loc 1 516 1 view .LVU413
 1872 0004 0646     		mov	r6, r0
 1873 0006 0D46     		mov	r5, r1
 1874 0008 1446     		mov	r4, r2
 1875              		.loc 1 517 5 view .LVU414
 1876 000a FFF7FEFF 		bl	link_log_level_get
 1877              	.LVL171:
 1878              		.loc 1 517 5 view .LVU415
 1879 000e 0128     		cmp	r0, #1
 1880 0010 1BD8     		bhi	.L139
 1881              		.loc 1 517 5 is_stmt 1 discriminator 1 view .LVU416
 1882              		.loc 1 517 5 discriminator 1 view .LVU417
ARM GAS  C:\Users\²Ü¼ÒºÀ\AppData\Local\Temp\cc2xoMwd.s 			page 46


 1883              		.loc 1 517 5 discriminator 1 view .LVU418
 1884 0012 0120     		movs	r0, #1
 1885 0014 FFF7FEFF 		bl	link_log_level_name
 1886              	.LVL172:
 1887 0018 0746     		mov	r7, r0
 1888 001a FFF7FEFF 		bl	osal_sys_time
 1889              	.LVL173:
 1890 001e 0790     		str	r0, [sp, #28]
 1891 0020 FFF7FEFF 		bl	lwm2m_gettime
 1892              	.LVL174:
 1893 0024 40F20523 		movw	r3, #517
 1894 0028 0293     		str	r3, [sp, #8]
 1895 002a 0B4B     		ldr	r3, .L140
 1896 002c 079A     		ldr	r2, [sp, #28]
 1897 002e CDE90003 		strd	r0, r3, [sp]
 1898 0032 CDE90365 		strd	r6, r5, [sp, #12]
 1899 0036 094B     		ldr	r3, .L140+4
 1900 0038 0948     		ldr	r0, .L140+8
 1901 003a 3946     		mov	r1, r7
 1902 003c FFF7FEFF 		bl	printf
 1903              	.LVL175:
 1904              		.loc 1 517 5 discriminator 1 view .LVU419
 1905 0040 084B     		ldr	r3, .L140+12
 1906 0042 1B68     		ldr	r3, [r3]
 1907 0044 9868     		ldr	r0, [r3, #8]
 1908 0046 FFF7FEFF 		bl	fflush
 1909              	.LVL176:
 1910              	.L139:
 1911              		.loc 1 517 5 discriminator 3 view .LVU420
 1912              		.loc 1 517 5 discriminator 3 view .LVU421
 1913              		.loc 1 517 5 discriminator 3 view .LVU422
 518:C:/Users/²Ü¼ÒºÀ/.iotlink/sdk/IoT_LINK/iot_link/network/lwm2m/wakaama_lwm2m/wakaama-master/core\data.c ****     dataP->type = LWM2M_TYPE_OBJECT_LINK;
 1914              		.loc 1 518 5 discriminator 3 view .LVU423
 1915              		.loc 1 518 17 is_stmt 0 discriminator 3 view .LVU424
 1916 004a 0923     		movs	r3, #9
 1917 004c 2370     		strb	r3, [r4]
 519:C:/Users/²Ü¼ÒºÀ/.iotlink/sdk/IoT_LINK/iot_link/network/lwm2m/wakaama_lwm2m/wakaama-master/core\data.c ****     dataP->value.asObjLink.objectId = objectId;
 1918              		.loc 1 519 5 is_stmt 1 discriminator 3 view .LVU425
 1919              		.loc 1 519 37 is_stmt 0 discriminator 3 view .LVU426
 1920 004e 2681     		strh	r6, [r4, #8]	@ movhi
 520:C:/Users/²Ü¼ÒºÀ/.iotlink/sdk/IoT_LINK/iot_link/network/lwm2m/wakaama_lwm2m/wakaama-master/core\data.c ****     dataP->value.asObjLink.objectInstanceId = objectInstanceId;
 1921              		.loc 1 520 5 is_stmt 1 discriminator 3 view .LVU427
 1922              		.loc 1 520 45 is_stmt 0 discriminator 3 view .LVU428
 1923 0050 6581     		strh	r5, [r4, #10]	@ movhi
 521:C:/Users/²Ü¼ÒºÀ/.iotlink/sdk/IoT_LINK/iot_link/network/lwm2m/wakaama_lwm2m/wakaama-master/core\data.c **** }
 1924              		.loc 1 521 1 discriminator 3 view .LVU429
 1925 0052 09B0     		add	sp, sp, #36
 1926              	.LCFI48:
 1927              		.cfi_def_cfa_offset 20
 1928              		@ sp needed
 1929 0054 F0BD     		pop	{r4, r5, r6, r7, pc}
 1930              	.LVL177:
 1931              	.L141:
 1932              		.loc 1 521 1 discriminator 3 view .LVU430
 1933 0056 00BF     		.align	2
 1934              	.L140:
 1935 0058 00000000 		.word	.LANCHOR23
ARM GAS  C:\Users\²Ü¼ÒºÀ\AppData\Local\Temp\cc2xoMwd.s 			page 47


 1936 005c 00000000 		.word	.LANCHOR22
 1937 0060 00000000 		.word	.LC13
 1938 0064 00000000 		.word	_impure_ptr
 1939              		.cfi_endproc
 1940              	.LFE18:
 1942              		.section	.rodata.lwm2m_data_include.str1.1,"aMS",%progbits,1
 1943              	.LC14:
 1944 0000 5B25735D 		.ascii	"[%s][%u][%s] [%d][%s:%d] count: %d\015\012\015\012\000"
 1944      5B25755D 
 1944      5B25735D 
 1944      205B2564 
 1944      5D5B2573 
 1945              		.section	.text.lwm2m_data_include,"ax",%progbits
 1946              		.align	1
 1947              		.global	lwm2m_data_include
 1948              		.syntax unified
 1949              		.thumb
 1950              		.thumb_func
 1951              		.fpu fpv4-sp-d16
 1953              	lwm2m_data_include:
 1954              	.LVL178:
 1955              	.LFB19:
 522:C:/Users/²Ü¼ÒºÀ/.iotlink/sdk/IoT_LINK/iot_link/network/lwm2m/wakaama_lwm2m/wakaama-master/core\data.c **** 
 523:C:/Users/²Ü¼ÒºÀ/.iotlink/sdk/IoT_LINK/iot_link/network/lwm2m/wakaama_lwm2m/wakaama-master/core\data.c **** void lwm2m_data_include(lwm2m_data_t *subDataP,
 524:C:/Users/²Ü¼ÒºÀ/.iotlink/sdk/IoT_LINK/iot_link/network/lwm2m/wakaama_lwm2m/wakaama-master/core\data.c ****                         size_t count,
 525:C:/Users/²Ü¼ÒºÀ/.iotlink/sdk/IoT_LINK/iot_link/network/lwm2m/wakaama_lwm2m/wakaama-master/core\data.c ****                         lwm2m_data_t *dataP)
 526:C:/Users/²Ü¼ÒºÀ/.iotlink/sdk/IoT_LINK/iot_link/network/lwm2m/wakaama_lwm2m/wakaama-master/core\data.c **** {
 1956              		.loc 1 526 1 is_stmt 1 view -0
 1957              		.cfi_startproc
 1958              		@ args = 0, pretend = 0, frame = 8
 1959              		@ frame_needed = 0, uses_anonymous_args = 0
 527:C:/Users/²Ü¼ÒºÀ/.iotlink/sdk/IoT_LINK/iot_link/network/lwm2m/wakaama_lwm2m/wakaama-master/core\data.c ****     LOG_ARG("count: %d", count);
 1960              		.loc 1 527 5 view .LVU432
 1961              		.loc 1 527 5 view .LVU433
 526:C:/Users/²Ü¼ÒºÀ/.iotlink/sdk/IoT_LINK/iot_link/network/lwm2m/wakaama_lwm2m/wakaama-master/core\data.c ****     LOG_ARG("count: %d", count);
 1962              		.loc 1 526 1 is_stmt 0 view .LVU434
 1963 0000 F0B5     		push	{r4, r5, r6, r7, lr}
 1964              	.LCFI49:
 1965              		.cfi_def_cfa_offset 20
 1966              		.cfi_offset 4, -20
 1967              		.cfi_offset 5, -16
 1968              		.cfi_offset 6, -12
 1969              		.cfi_offset 7, -8
 1970              		.cfi_offset 14, -4
 1971 0002 87B0     		sub	sp, sp, #28
 1972              	.LCFI50:
 1973              		.cfi_def_cfa_offset 48
 526:C:/Users/²Ü¼ÒºÀ/.iotlink/sdk/IoT_LINK/iot_link/network/lwm2m/wakaama_lwm2m/wakaama-master/core\data.c ****     LOG_ARG("count: %d", count);
 1974              		.loc 1 526 1 view .LVU435
 1975 0004 0546     		mov	r5, r0
 1976 0006 0E46     		mov	r6, r1
 1977 0008 1446     		mov	r4, r2
 1978              		.loc 1 527 5 view .LVU436
 1979 000a FFF7FEFF 		bl	link_log_level_get
 1980              	.LVL179:
 1981              		.loc 1 527 5 view .LVU437
 1982 000e 0128     		cmp	r0, #1
ARM GAS  C:\Users\²Ü¼ÒºÀ\AppData\Local\Temp\cc2xoMwd.s 			page 48


 1983 0010 1AD8     		bhi	.L143
 1984              		.loc 1 527 5 is_stmt 1 discriminator 1 view .LVU438
 1985              		.loc 1 527 5 discriminator 1 view .LVU439
 1986              		.loc 1 527 5 discriminator 1 view .LVU440
 1987 0012 0120     		movs	r0, #1
 1988 0014 FFF7FEFF 		bl	link_log_level_name
 1989              	.LVL180:
 1990 0018 0746     		mov	r7, r0
 1991 001a FFF7FEFF 		bl	osal_sys_time
 1992              	.LVL181:
 1993 001e 0590     		str	r0, [sp, #20]
 1994 0020 FFF7FEFF 		bl	lwm2m_gettime
 1995              	.LVL182:
 1996 0024 40F20F23 		movw	r3, #527
 1997 0028 0293     		str	r3, [sp, #8]
 1998 002a 0F4B     		ldr	r3, .L154
 1999 002c 059A     		ldr	r2, [sp, #20]
 2000 002e 0396     		str	r6, [sp, #12]
 2001 0030 CDE90003 		strd	r0, r3, [sp]
 2002 0034 3946     		mov	r1, r7
 2003 0036 0D4B     		ldr	r3, .L154+4
 2004 0038 0D48     		ldr	r0, .L154+8
 2005 003a FFF7FEFF 		bl	printf
 2006              	.LVL183:
 2007              		.loc 1 527 5 discriminator 1 view .LVU441
 2008 003e 0D4B     		ldr	r3, .L154+12
 2009 0040 1B68     		ldr	r3, [r3]
 2010 0042 9868     		ldr	r0, [r3, #8]
 2011 0044 FFF7FEFF 		bl	fflush
 2012              	.LVL184:
 2013              	.L143:
 2014              		.loc 1 527 5 discriminator 3 view .LVU442
 2015              		.loc 1 527 5 discriminator 3 view .LVU443
 2016              		.loc 1 527 5 discriminator 3 view .LVU444
 528:C:/Users/²Ü¼ÒºÀ/.iotlink/sdk/IoT_LINK/iot_link/network/lwm2m/wakaama_lwm2m/wakaama-master/core\data.c ****     if (subDataP == NULL || count == 0) return;
 2017              		.loc 1 528 5 discriminator 3 view .LVU445
 2018              		.loc 1 528 8 is_stmt 0 discriminator 3 view .LVU446
 2019 0048 55B1     		cbz	r5, .L142
 2020              		.loc 1 528 26 discriminator 2 view .LVU447
 2021 004a 4EB1     		cbz	r6, .L142
 2022              	.LVL185:
 2023              	.LBB19:
 2024              	.LBI19:
 523:C:/Users/²Ü¼ÒºÀ/.iotlink/sdk/IoT_LINK/iot_link/network/lwm2m/wakaama_lwm2m/wakaama-master/core\data.c ****                         size_t count,
 2025              		.loc 1 523 6 is_stmt 1 view .LVU448
 2026              	.LBB20:
 529:C:/Users/²Ü¼ÒºÀ/.iotlink/sdk/IoT_LINK/iot_link/network/lwm2m/wakaama_lwm2m/wakaama-master/core\data.c **** 
 530:C:/Users/²Ü¼ÒºÀ/.iotlink/sdk/IoT_LINK/iot_link/network/lwm2m/wakaama_lwm2m/wakaama-master/core\data.c ****     switch (subDataP[0].type)
 2027              		.loc 1 530 5 view .LVU449
 2028              		.loc 1 530 24 is_stmt 0 view .LVU450
 2029 004c 2B78     		ldrb	r3, [r5]	@ zero_extendqisi2
 2030              		.loc 1 530 5 view .LVU451
 2031 004e 022B     		cmp	r3, #2
 2032 0050 08D0     		beq	.L145
 2033 0052 033B     		subs	r3, r3, #3
 2034 0054 062B     		cmp	r3, #6
 2035 0056 03D8     		bhi	.L142
ARM GAS  C:\Users\²Ü¼ÒºÀ\AppData\Local\Temp\cc2xoMwd.s 			page 49


 531:C:/Users/²Ü¼ÒºÀ/.iotlink/sdk/IoT_LINK/iot_link/network/lwm2m/wakaama_lwm2m/wakaama-master/core\data.c ****     {
 532:C:/Users/²Ü¼ÒºÀ/.iotlink/sdk/IoT_LINK/iot_link/network/lwm2m/wakaama_lwm2m/wakaama-master/core\data.c ****     case LWM2M_TYPE_STRING:
 533:C:/Users/²Ü¼ÒºÀ/.iotlink/sdk/IoT_LINK/iot_link/network/lwm2m/wakaama_lwm2m/wakaama-master/core\data.c ****     case LWM2M_TYPE_OPAQUE:
 534:C:/Users/²Ü¼ÒºÀ/.iotlink/sdk/IoT_LINK/iot_link/network/lwm2m/wakaama_lwm2m/wakaama-master/core\data.c ****     case LWM2M_TYPE_INTEGER:
 535:C:/Users/²Ü¼ÒºÀ/.iotlink/sdk/IoT_LINK/iot_link/network/lwm2m/wakaama_lwm2m/wakaama-master/core\data.c ****     case LWM2M_TYPE_FLOAT:
 536:C:/Users/²Ü¼ÒºÀ/.iotlink/sdk/IoT_LINK/iot_link/network/lwm2m/wakaama_lwm2m/wakaama-master/core\data.c ****     case LWM2M_TYPE_BOOLEAN:
 537:C:/Users/²Ü¼ÒºÀ/.iotlink/sdk/IoT_LINK/iot_link/network/lwm2m/wakaama_lwm2m/wakaama-master/core\data.c ****     case LWM2M_TYPE_OBJECT_LINK:
 538:C:/Users/²Ü¼ÒºÀ/.iotlink/sdk/IoT_LINK/iot_link/network/lwm2m/wakaama_lwm2m/wakaama-master/core\data.c ****     case LWM2M_TYPE_MULTIPLE_RESOURCE:
 539:C:/Users/²Ü¼ÒºÀ/.iotlink/sdk/IoT_LINK/iot_link/network/lwm2m/wakaama_lwm2m/wakaama-master/core\data.c ****         dataP->type = LWM2M_TYPE_OBJECT_INSTANCE;
 2036              		.loc 1 539 9 is_stmt 1 view .LVU452
 2037              		.loc 1 539 21 is_stmt 0 view .LVU453
 2038 0058 0223     		movs	r3, #2
 2039              	.L153:
 540:C:/Users/²Ü¼ÒºÀ/.iotlink/sdk/IoT_LINK/iot_link/network/lwm2m/wakaama_lwm2m/wakaama-master/core\data.c ****         break;
 541:C:/Users/²Ü¼ÒºÀ/.iotlink/sdk/IoT_LINK/iot_link/network/lwm2m/wakaama_lwm2m/wakaama-master/core\data.c ****     case LWM2M_TYPE_OBJECT_INSTANCE:
 542:C:/Users/²Ü¼ÒºÀ/.iotlink/sdk/IoT_LINK/iot_link/network/lwm2m/wakaama_lwm2m/wakaama-master/core\data.c ****         dataP->type = LWM2M_TYPE_OBJECT;
 543:C:/Users/²Ü¼ÒºÀ/.iotlink/sdk/IoT_LINK/iot_link/network/lwm2m/wakaama_lwm2m/wakaama-master/core\data.c ****         break;
 544:C:/Users/²Ü¼ÒºÀ/.iotlink/sdk/IoT_LINK/iot_link/network/lwm2m/wakaama_lwm2m/wakaama-master/core\data.c ****     default:
 545:C:/Users/²Ü¼ÒºÀ/.iotlink/sdk/IoT_LINK/iot_link/network/lwm2m/wakaama_lwm2m/wakaama-master/core\data.c ****         return;
 546:C:/Users/²Ü¼ÒºÀ/.iotlink/sdk/IoT_LINK/iot_link/network/lwm2m/wakaama_lwm2m/wakaama-master/core\data.c ****     }
 547:C:/Users/²Ü¼ÒºÀ/.iotlink/sdk/IoT_LINK/iot_link/network/lwm2m/wakaama_lwm2m/wakaama-master/core\data.c ****     dataP->value.asChildren.count = count;
 548:C:/Users/²Ü¼ÒºÀ/.iotlink/sdk/IoT_LINK/iot_link/network/lwm2m/wakaama_lwm2m/wakaama-master/core\data.c ****     dataP->value.asChildren.array = subDataP;
 2040              		.loc 1 548 35 view .LVU454
 2041 005a C4E90265 		strd	r6, r5, [r4, #8]
 542:C:/Users/²Ü¼ÒºÀ/.iotlink/sdk/IoT_LINK/iot_link/network/lwm2m/wakaama_lwm2m/wakaama-master/core\data.c ****         break;
 2042              		.loc 1 542 21 view .LVU455
 2043 005e 2370     		strb	r3, [r4]
 543:C:/Users/²Ü¼ÒºÀ/.iotlink/sdk/IoT_LINK/iot_link/network/lwm2m/wakaama_lwm2m/wakaama-master/core\data.c ****     default:
 2044              		.loc 1 543 9 is_stmt 1 view .LVU456
 547:C:/Users/²Ü¼ÒºÀ/.iotlink/sdk/IoT_LINK/iot_link/network/lwm2m/wakaama_lwm2m/wakaama-master/core\data.c ****     dataP->value.asChildren.array = subDataP;
 2045              		.loc 1 547 5 view .LVU457
 2046              	.LVL186:
 2047              	.L142:
 547:C:/Users/²Ü¼ÒºÀ/.iotlink/sdk/IoT_LINK/iot_link/network/lwm2m/wakaama_lwm2m/wakaama-master/core\data.c ****     dataP->value.asChildren.array = subDataP;
 2048              		.loc 1 547 5 is_stmt 0 view .LVU458
 2049              	.LBE20:
 2050              	.LBE19:
 549:C:/Users/²Ü¼ÒºÀ/.iotlink/sdk/IoT_LINK/iot_link/network/lwm2m/wakaama_lwm2m/wakaama-master/core\data.c **** }
 2051              		.loc 1 549 1 view .LVU459
 2052 0060 07B0     		add	sp, sp, #28
 2053              	.LCFI51:
 2054              		.cfi_remember_state
 2055              		.cfi_def_cfa_offset 20
 2056              		@ sp needed
 2057 0062 F0BD     		pop	{r4, r5, r6, r7, pc}
 2058              	.LVL187:
 2059              	.L145:
 2060              	.LCFI52:
 2061              		.cfi_restore_state
 2062              	.LBB22:
 2063              	.LBB21:
 542:C:/Users/²Ü¼ÒºÀ/.iotlink/sdk/IoT_LINK/iot_link/network/lwm2m/wakaama_lwm2m/wakaama-master/core\data.c ****         break;
 2064              		.loc 1 542 9 is_stmt 1 view .LVU460
 542:C:/Users/²Ü¼ÒºÀ/.iotlink/sdk/IoT_LINK/iot_link/network/lwm2m/wakaama_lwm2m/wakaama-master/core\data.c ****         break;
 2065              		.loc 1 542 21 is_stmt 0 view .LVU461
 2066 0064 0123     		movs	r3, #1
 2067 0066 F8E7     		b	.L153
ARM GAS  C:\Users\²Ü¼ÒºÀ\AppData\Local\Temp\cc2xoMwd.s 			page 50


 2068              	.L155:
 2069              		.align	2
 2070              	.L154:
 2071 0068 00000000 		.word	.LANCHOR25
 2072 006c 00000000 		.word	.LANCHOR24
 2073 0070 00000000 		.word	.LC14
 2074 0074 00000000 		.word	_impure_ptr
 2075              	.LBE21:
 2076              	.LBE22:
 2077              		.cfi_endproc
 2078              	.LFE19:
 2080              		.section	.text.lwm2m_data_encode_instances,"ax",%progbits
 2081              		.align	1
 2082              		.global	lwm2m_data_encode_instances
 2083              		.syntax unified
 2084              		.thumb
 2085              		.thumb_func
 2086              		.fpu fpv4-sp-d16
 2088              	lwm2m_data_encode_instances:
 2089              	.LVL188:
 2090              	.LFB20:
 550:C:/Users/²Ü¼ÒºÀ/.iotlink/sdk/IoT_LINK/iot_link/network/lwm2m/wakaama_lwm2m/wakaama-master/core\data.c **** 
 551:C:/Users/²Ü¼ÒºÀ/.iotlink/sdk/IoT_LINK/iot_link/network/lwm2m/wakaama_lwm2m/wakaama-master/core\data.c **** void lwm2m_data_encode_instances(lwm2m_data_t *subDataP,
 552:C:/Users/²Ü¼ÒºÀ/.iotlink/sdk/IoT_LINK/iot_link/network/lwm2m/wakaama_lwm2m/wakaama-master/core\data.c ****                                  size_t count,
 553:C:/Users/²Ü¼ÒºÀ/.iotlink/sdk/IoT_LINK/iot_link/network/lwm2m/wakaama_lwm2m/wakaama-master/core\data.c ****                                  lwm2m_data_t *dataP)
 554:C:/Users/²Ü¼ÒºÀ/.iotlink/sdk/IoT_LINK/iot_link/network/lwm2m/wakaama_lwm2m/wakaama-master/core\data.c **** {
 2091              		.loc 1 554 1 is_stmt 1 view -0
 2092              		.cfi_startproc
 2093              		@ args = 0, pretend = 0, frame = 8
 2094              		@ frame_needed = 0, uses_anonymous_args = 0
 555:C:/Users/²Ü¼ÒºÀ/.iotlink/sdk/IoT_LINK/iot_link/network/lwm2m/wakaama_lwm2m/wakaama-master/core\data.c ****     LOG_ARG("count: %d", count);
 2095              		.loc 1 555 5 view .LVU463
 2096              		.loc 1 555 5 view .LVU464
 554:C:/Users/²Ü¼ÒºÀ/.iotlink/sdk/IoT_LINK/iot_link/network/lwm2m/wakaama_lwm2m/wakaama-master/core\data.c ****     LOG_ARG("count: %d", count);
 2097              		.loc 1 554 1 is_stmt 0 view .LVU465
 2098 0000 F0B5     		push	{r4, r5, r6, r7, lr}
 2099              	.LCFI53:
 2100              		.cfi_def_cfa_offset 20
 2101              		.cfi_offset 4, -20
 2102              		.cfi_offset 5, -16
 2103              		.cfi_offset 6, -12
 2104              		.cfi_offset 7, -8
 2105              		.cfi_offset 14, -4
 2106 0002 87B0     		sub	sp, sp, #28
 2107              	.LCFI54:
 2108              		.cfi_def_cfa_offset 48
 554:C:/Users/²Ü¼ÒºÀ/.iotlink/sdk/IoT_LINK/iot_link/network/lwm2m/wakaama_lwm2m/wakaama-master/core\data.c ****     LOG_ARG("count: %d", count);
 2109              		.loc 1 554 1 view .LVU466
 2110 0004 0646     		mov	r6, r0
 2111 0006 0D46     		mov	r5, r1
 2112 0008 1446     		mov	r4, r2
 2113              		.loc 1 555 5 view .LVU467
 2114 000a FFF7FEFF 		bl	link_log_level_get
 2115              	.LVL189:
 2116              		.loc 1 555 5 view .LVU468
 2117 000e 0128     		cmp	r0, #1
 2118 0010 1AD8     		bhi	.L157
ARM GAS  C:\Users\²Ü¼ÒºÀ\AppData\Local\Temp\cc2xoMwd.s 			page 51


 2119              		.loc 1 555 5 is_stmt 1 discriminator 1 view .LVU469
 2120              		.loc 1 555 5 discriminator 1 view .LVU470
 2121              		.loc 1 555 5 discriminator 1 view .LVU471
 2122 0012 0120     		movs	r0, #1
 2123 0014 FFF7FEFF 		bl	link_log_level_name
 2124              	.LVL190:
 2125 0018 0746     		mov	r7, r0
 2126 001a FFF7FEFF 		bl	osal_sys_time
 2127              	.LVL191:
 2128 001e 0590     		str	r0, [sp, #20]
 2129 0020 FFF7FEFF 		bl	lwm2m_gettime
 2130              	.LVL192:
 2131 0024 40F22B23 		movw	r3, #555
 2132 0028 0293     		str	r3, [sp, #8]
 2133 002a 0C4B     		ldr	r3, .L158
 2134 002c 059A     		ldr	r2, [sp, #20]
 2135 002e 0395     		str	r5, [sp, #12]
 2136 0030 CDE90003 		strd	r0, r3, [sp]
 2137 0034 3946     		mov	r1, r7
 2138 0036 0A4B     		ldr	r3, .L158+4
 2139 0038 0A48     		ldr	r0, .L158+8
 2140 003a FFF7FEFF 		bl	printf
 2141              	.LVL193:
 2142              		.loc 1 555 5 discriminator 1 view .LVU472
 2143 003e 0A4B     		ldr	r3, .L158+12
 2144 0040 1B68     		ldr	r3, [r3]
 2145 0042 9868     		ldr	r0, [r3, #8]
 2146 0044 FFF7FEFF 		bl	fflush
 2147              	.LVL194:
 2148              	.L157:
 2149              		.loc 1 555 5 discriminator 3 view .LVU473
 2150              		.loc 1 555 5 discriminator 3 view .LVU474
 2151              		.loc 1 555 5 discriminator 3 view .LVU475
 556:C:/Users/²Ü¼ÒºÀ/.iotlink/sdk/IoT_LINK/iot_link/network/lwm2m/wakaama_lwm2m/wakaama-master/core\data.c ****     lwm2m_data_include(subDataP, count, dataP);
 2152              		.loc 1 556 5 discriminator 3 view .LVU476
 2153 0048 2246     		mov	r2, r4
 2154 004a 2946     		mov	r1, r5
 2155 004c 3046     		mov	r0, r6
 2156 004e FFF7FEFF 		bl	lwm2m_data_include
 2157              	.LVL195:
 557:C:/Users/²Ü¼ÒºÀ/.iotlink/sdk/IoT_LINK/iot_link/network/lwm2m/wakaama_lwm2m/wakaama-master/core\data.c ****     dataP->type = LWM2M_TYPE_MULTIPLE_RESOURCE;
 2158              		.loc 1 557 5 discriminator 3 view .LVU477
 2159              		.loc 1 557 17 is_stmt 0 discriminator 3 view .LVU478
 2160 0052 0323     		movs	r3, #3
 2161 0054 2370     		strb	r3, [r4]
 558:C:/Users/²Ü¼ÒºÀ/.iotlink/sdk/IoT_LINK/iot_link/network/lwm2m/wakaama_lwm2m/wakaama-master/core\data.c **** }
 2162              		.loc 1 558 1 discriminator 3 view .LVU479
 2163 0056 07B0     		add	sp, sp, #28
 2164              	.LCFI55:
 2165              		.cfi_def_cfa_offset 20
 2166              		@ sp needed
 2167 0058 F0BD     		pop	{r4, r5, r6, r7, pc}
 2168              	.LVL196:
 2169              	.L159:
 2170              		.loc 1 558 1 discriminator 3 view .LVU480
 2171 005a 00BF     		.align	2
 2172              	.L158:
ARM GAS  C:\Users\²Ü¼ÒºÀ\AppData\Local\Temp\cc2xoMwd.s 			page 52


 2173 005c 00000000 		.word	.LANCHOR27
 2174 0060 00000000 		.word	.LANCHOR26
 2175 0064 00000000 		.word	.LC14
 2176 0068 00000000 		.word	_impure_ptr
 2177              		.cfi_endproc
 2178              	.LFE20:
 2180              		.section	.rodata.lwm2m_data_parse.str1.1,"aMS",%progbits,1
 2181              	.LC15:
 2182 0000 4C574D32 		.ascii	"LWM2M_CONTENT_OPAQUE\000"
 2182      4D5F434F 
 2182      4E54454E 
 2182      545F4F50 
 2182      41515545 
 2183              	.LC16:
 2184 0015 4C574D32 		.ascii	"LWM2M_CONTENT_TEXT\000"
 2184      4D5F434F 
 2184      4E54454E 
 2184      545F5445 
 2184      585400
 2185              	.LC17:
 2186 0028 4C574D32 		.ascii	"LWM2M_CONTENT_TLV\000"
 2186      4D5F434F 
 2186      4E54454E 
 2186      545F544C 
 2186      5600
 2187              	.LC18:
 2188 003a 4C574D32 		.ascii	"LWM2M_CONTENT_JSON\000"
 2188      4D5F434F 
 2188      4E54454E 
 2188      545F4A53 
 2188      4F4E00
 2189              	.LC19:
 2190 004d 4C574D32 		.ascii	"LWM2M_CONTENT_LINK\000"
 2190      4D5F434F 
 2190      4E54454E 
 2190      545F4C49 
 2190      4E4B00
 2191              	.LC20:
 2192 0060 556E6B6E 		.ascii	"Unknown\000"
 2192      6F776E00 
 2193              	.LC21:
 2194 0068 5B25735D 		.ascii	"[%s][%u][%s] [%d][%s:%d] format: %s, bufferLen: %d\015"
 2194      5B25755D 
 2194      5B25735D 
 2194      205B2564 
 2194      5D5B2573 
 2195 009b 0A0D0A00 		.ascii	"\012\015\012\000"
 2196              	.LC22:
 2197 009f 5B25735D 		.ascii	"[%s][%u][%s] [%s:%d] NULL\015\012\015\012\000"
 2197      5B25755D 
 2197      5B25735D 
 2197      205B2573 
 2197      3A25645D 
 2198              	.LC23:
 2199 00bd 5B25735D 		.ascii	"[%s][%u][%s] [%s:%d] /%d\015\012\000"
 2199      5B25755D 
 2199      5B25735D 
ARM GAS  C:\Users\²Ü¼ÒºÀ\AppData\Local\Temp\cc2xoMwd.s 			page 53


 2199      205B2573 
 2199      3A25645D 
 2200              	.LC24:
 2201 00d8 5B25735D 		.ascii	"[%s][%u][%s] /%d\015\012\000"
 2201      5B25755D 
 2201      5B25735D 
 2201      202F2564 
 2201      0D0A00
 2202              	.LC25:
 2203 00eb 5B25735D 		.ascii	"[%s][%u][%s] \015\012\015\012\000"
 2203      5B25755D 
 2203      5B25735D 
 2203      200D0A0D 
 2203      0A00
 2204              		.section	.text.lwm2m_data_parse,"ax",%progbits
 2205              		.align	1
 2206              		.global	lwm2m_data_parse
 2207              		.syntax unified
 2208              		.thumb
 2209              		.thumb_func
 2210              		.fpu fpv4-sp-d16
 2212              	lwm2m_data_parse:
 2213              	.LVL197:
 2214              	.LFB21:
 559:C:/Users/²Ü¼ÒºÀ/.iotlink/sdk/IoT_LINK/iot_link/network/lwm2m/wakaama_lwm2m/wakaama-master/core\data.c **** 
 560:C:/Users/²Ü¼ÒºÀ/.iotlink/sdk/IoT_LINK/iot_link/network/lwm2m/wakaama_lwm2m/wakaama-master/core\data.c **** int lwm2m_data_parse(lwm2m_uri_t *uriP,
 561:C:/Users/²Ü¼ÒºÀ/.iotlink/sdk/IoT_LINK/iot_link/network/lwm2m/wakaama_lwm2m/wakaama-master/core\data.c ****                      uint8_t *buffer,
 562:C:/Users/²Ü¼ÒºÀ/.iotlink/sdk/IoT_LINK/iot_link/network/lwm2m/wakaama_lwm2m/wakaama-master/core\data.c ****                      size_t bufferLen,
 563:C:/Users/²Ü¼ÒºÀ/.iotlink/sdk/IoT_LINK/iot_link/network/lwm2m/wakaama_lwm2m/wakaama-master/core\data.c ****                      lwm2m_media_type_t format,
 564:C:/Users/²Ü¼ÒºÀ/.iotlink/sdk/IoT_LINK/iot_link/network/lwm2m/wakaama_lwm2m/wakaama-master/core\data.c ****                      lwm2m_data_t **dataP)
 565:C:/Users/²Ü¼ÒºÀ/.iotlink/sdk/IoT_LINK/iot_link/network/lwm2m/wakaama_lwm2m/wakaama-master/core\data.c **** {
 2215              		.loc 1 565 1 is_stmt 1 view -0
 2216              		.cfi_startproc
 2217              		@ args = 4, pretend = 0, frame = 8
 2218              		@ frame_needed = 0, uses_anonymous_args = 0
 566:C:/Users/²Ü¼ÒºÀ/.iotlink/sdk/IoT_LINK/iot_link/network/lwm2m/wakaama_lwm2m/wakaama-master/core\data.c ****     int res;
 2219              		.loc 1 566 5 view .LVU482
 567:C:/Users/²Ü¼ÒºÀ/.iotlink/sdk/IoT_LINK/iot_link/network/lwm2m/wakaama_lwm2m/wakaama-master/core\data.c **** 
 568:C:/Users/²Ü¼ÒºÀ/.iotlink/sdk/IoT_LINK/iot_link/network/lwm2m/wakaama_lwm2m/wakaama-master/core\data.c ****     LOG_ARG("format: %s, bufferLen: %d", STR_MEDIA_TYPE(format), bufferLen);
 2220              		.loc 1 568 5 view .LVU483
 2221              		.loc 1 568 5 view .LVU484
 565:C:/Users/²Ü¼ÒºÀ/.iotlink/sdk/IoT_LINK/iot_link/network/lwm2m/wakaama_lwm2m/wakaama-master/core\data.c ****     int res;
 2222              		.loc 1 565 1 is_stmt 0 view .LVU485
 2223 0000 2DE9F043 		push	{r4, r5, r6, r7, r8, r9, lr}
 2224              	.LCFI56:
 2225              		.cfi_def_cfa_offset 28
 2226              		.cfi_offset 4, -28
 2227              		.cfi_offset 5, -24
 2228              		.cfi_offset 6, -20
 2229              		.cfi_offset 7, -16
 2230              		.cfi_offset 8, -12
 2231              		.cfi_offset 9, -8
 2232              		.cfi_offset 14, -4
 2233 0004 89B0     		sub	sp, sp, #36
 2234              	.LCFI57:
 2235              		.cfi_def_cfa_offset 64
 565:C:/Users/²Ü¼ÒºÀ/.iotlink/sdk/IoT_LINK/iot_link/network/lwm2m/wakaama_lwm2m/wakaama-master/core\data.c ****     int res;
ARM GAS  C:\Users\²Ü¼ÒºÀ\AppData\Local\Temp\cc2xoMwd.s 			page 54


 2236              		.loc 1 565 1 view .LVU486
 2237 0006 0446     		mov	r4, r0
 2238 0008 109E     		ldr	r6, [sp, #64]
 2239 000a 8846     		mov	r8, r1
 2240 000c 1746     		mov	r7, r2
 2241 000e 1D46     		mov	r5, r3
 2242              		.loc 1 568 5 view .LVU487
 2243 0010 FFF7FEFF 		bl	link_log_level_get
 2244              	.LVL198:
 2245              		.loc 1 568 5 view .LVU488
 2246 0014 0128     		cmp	r0, #1
 2247 0016 2CD8     		bhi	.L161
 2248              		.loc 1 568 5 is_stmt 1 discriminator 1 view .LVU489
 2249              		.loc 1 568 5 discriminator 1 view .LVU490
 2250              		.loc 1 568 5 discriminator 1 view .LVU491
 2251 0018 0120     		movs	r0, #1
 2252 001a FFF7FEFF 		bl	link_log_level_name
 2253              	.LVL199:
 2254 001e 8146     		mov	r9, r0
 2255 0020 FFF7FEFF 		bl	osal_sys_time
 2256              	.LVL200:
 2257 0024 0790     		str	r0, [sp, #28]
 2258 0026 FFF7FEFF 		bl	lwm2m_gettime
 2259              	.LVL201:
 2260 002a 079A     		ldr	r2, [sp, #28]
 2261 002c 002D     		cmp	r5, #0
 2262 002e 49D0     		beq	.L179
 2263              		.loc 1 568 5 is_stmt 0 discriminator 3 view .LVU492
 2264 0030 282D     		cmp	r5, #40
 2265 0032 49D0     		beq	.L180
 2266              		.loc 1 568 5 discriminator 5 view .LVU493
 2267 0034 2A2D     		cmp	r5, #42
 2268 0036 49D0     		beq	.L181
 2269              		.loc 1 568 5 discriminator 7 view .LVU494
 2270 0038 42F61653 		movw	r3, #11542
 2271 003c 9D42     		cmp	r5, r3
 2272 003e 47D0     		beq	.L182
 2273              		.loc 1 568 5 discriminator 9 view .LVU495
 2274 0040 744B     		ldr	r3, .L195
 2275 0042 7549     		ldr	r1, .L195+4
 2276 0044 42F6175C 		movw	ip, #11543
 2277 0048 6545     		cmp	r5, ip
 2278 004a 18BF     		it	ne
 2279 004c 0B46     		movne	r3, r1
 2280              	.L162:
 2281              		.loc 1 568 5 discriminator 22 view .LVU496
 2282 004e CDE90337 		strd	r3, r7, [sp, #12]
 2283 0052 4FF40E73 		mov	r3, #568
 2284 0056 0293     		str	r3, [sp, #8]
 2285 0058 704B     		ldr	r3, .L195+8
 2286 005a 4946     		mov	r1, r9
 2287 005c CDE90003 		strd	r0, r3, [sp]
 2288 0060 6F4B     		ldr	r3, .L195+12
 2289 0062 7048     		ldr	r0, .L195+16
 2290 0064 FFF7FEFF 		bl	printf
 2291              	.LVL202:
 2292              		.loc 1 568 5 is_stmt 1 discriminator 22 view .LVU497
ARM GAS  C:\Users\²Ü¼ÒºÀ\AppData\Local\Temp\cc2xoMwd.s 			page 55


 2293 0068 6F4B     		ldr	r3, .L195+20
 2294 006a 1B68     		ldr	r3, [r3]
 2295 006c 9868     		ldr	r0, [r3, #8]
 2296 006e FFF7FEFF 		bl	fflush
 2297              	.LVL203:
 2298              	.L161:
 2299              		.loc 1 568 5 discriminator 23 view .LVU498
 2300              		.loc 1 568 5 discriminator 23 view .LVU499
 2301              		.loc 1 568 5 discriminator 23 view .LVU500
 569:C:/Users/²Ü¼ÒºÀ/.iotlink/sdk/IoT_LINK/iot_link/network/lwm2m/wakaama_lwm2m/wakaama-master/core\data.c ****     LOG_URI(uriP);
 2302              		.loc 1 569 5 discriminator 23 view .LVU501
 2303 0072 7CBB     		cbnz	r4, .L163
 2304              		.loc 1 569 5 discriminator 1 view .LVU502
 2305              		.loc 1 569 5 discriminator 1 view .LVU503
 2306 0074 FFF7FEFF 		bl	link_log_level_get
 2307              	.LVL204:
 2308 0078 0128     		cmp	r0, #1
 2309 007a 15D8     		bhi	.L165
 2310              		.loc 1 569 5 discriminator 3 view .LVU504
 2311              		.loc 1 569 5 discriminator 3 view .LVU505
 2312              		.loc 1 569 5 discriminator 3 view .LVU506
 2313 007c 0120     		movs	r0, #1
 2314 007e FFF7FEFF 		bl	link_log_level_name
 2315              	.LVL205:
 2316 0082 8146     		mov	r9, r0
 2317 0084 FFF7FEFF 		bl	osal_sys_time
 2318              	.LVL206:
 2319 0088 40F23923 		movw	r3, #569
 2320 008c 0193     		str	r3, [sp, #4]
 2321 008e 634B     		ldr	r3, .L195+8
 2322 0090 0093     		str	r3, [sp]
 2323 0092 0246     		mov	r2, r0
 2324 0094 624B     		ldr	r3, .L195+12
 2325 0096 6548     		ldr	r0, .L195+24
 2326 0098 4946     		mov	r1, r9
 2327 009a FFF7FEFF 		bl	printf
 2328              	.LVL207:
 2329              		.loc 1 569 5 discriminator 3 view .LVU507
 2330              	.L194:
 2331              		.loc 1 569 5 discriminator 19 view .LVU508
 2332 009e 624B     		ldr	r3, .L195+20
 2333 00a0 1B68     		ldr	r3, [r3]
 2334 00a2 9868     		ldr	r0, [r3, #8]
 2335 00a4 FFF7FEFF 		bl	fflush
 2336              	.LVL208:
 2337              	.L165:
 2338              		.loc 1 569 5 discriminator 21 view .LVU509
 2339              		.loc 1 569 5 discriminator 21 view .LVU510
 2340              		.loc 1 569 5 discriminator 21 view .LVU511
 2341              		.loc 1 569 18 discriminator 21 view .LVU512
 570:C:/Users/²Ü¼ÒºÀ/.iotlink/sdk/IoT_LINK/iot_link/network/lwm2m/wakaama_lwm2m/wakaama-master/core\data.c ****     switch (format)
 2342              		.loc 1 570 5 discriminator 21 view .LVU513
 2343 00a8 2A2D     		cmp	r5, #42
 2344 00aa 00F08E80 		beq	.L174
 2345              		.loc 1 570 5 is_stmt 0 view .LVU514
 2346 00ae 42F61653 		movw	r3, #11542
 2347 00b2 9D42     		cmp	r5, r3
ARM GAS  C:\Users\²Ü¼ÒºÀ\AppData\Local\Temp\cc2xoMwd.s 			page 56


 2348 00b4 00F0A680 		beq	.L175
 2349 00b8 15B9     		cbnz	r5, .L184
 571:C:/Users/²Ü¼ÒºÀ/.iotlink/sdk/IoT_LINK/iot_link/network/lwm2m/wakaama_lwm2m/wakaama-master/core\data.c ****     {
 572:C:/Users/²Ü¼ÒºÀ/.iotlink/sdk/IoT_LINK/iot_link/network/lwm2m/wakaama_lwm2m/wakaama-master/core\data.c ****     case LWM2M_CONTENT_TEXT:
 573:C:/Users/²Ü¼ÒºÀ/.iotlink/sdk/IoT_LINK/iot_link/network/lwm2m/wakaama_lwm2m/wakaama-master/core\data.c ****         if (!LWM2M_URI_IS_SET_RESOURCE(uriP)) return 0;
 2350              		.loc 1 573 9 is_stmt 1 view .LVU515
 2351              		.loc 1 573 12 is_stmt 0 view .LVU516
 2352 00ba 2378     		ldrb	r3, [r4]	@ zero_extendqisi2
 2353 00bc DA07     		lsls	r2, r3, #31
 2354 00be 6AD4     		bmi	.L177
 2355              	.L184:
 570:C:/Users/²Ü¼ÒºÀ/.iotlink/sdk/IoT_LINK/iot_link/network/lwm2m/wakaama_lwm2m/wakaama-master/core\data.c ****     switch (format)
 2356              		.loc 1 570 5 view .LVU517
 2357 00c0 0024     		movs	r4, #0
 2358              	.LVL209:
 570:C:/Users/²Ü¼ÒºÀ/.iotlink/sdk/IoT_LINK/iot_link/network/lwm2m/wakaama_lwm2m/wakaama-master/core\data.c ****     switch (format)
 2359              		.loc 1 570 5 view .LVU518
 2360 00c2 7EE0     		b	.L160
 2361              	.LVL210:
 2362              	.L179:
 568:C:/Users/²Ü¼ÒºÀ/.iotlink/sdk/IoT_LINK/iot_link/network/lwm2m/wakaama_lwm2m/wakaama-master/core\data.c ****     LOG_URI(uriP);
 2363              		.loc 1 568 5 view .LVU519
 2364 00c4 5A4B     		ldr	r3, .L195+28
 2365 00c6 C2E7     		b	.L162
 2366              	.L180:
 2367 00c8 5A4B     		ldr	r3, .L195+32
 2368 00ca C0E7     		b	.L162
 2369              	.L181:
 2370 00cc 5A4B     		ldr	r3, .L195+36
 2371 00ce BEE7     		b	.L162
 2372              	.L182:
 2373 00d0 5A4B     		ldr	r3, .L195+40
 2374 00d2 BCE7     		b	.L162
 2375              	.L163:
 569:C:/Users/²Ü¼ÒºÀ/.iotlink/sdk/IoT_LINK/iot_link/network/lwm2m/wakaama_lwm2m/wakaama-master/core\data.c ****     switch (format)
 2376              		.loc 1 569 5 is_stmt 1 discriminator 2 view .LVU520
 569:C:/Users/²Ü¼ÒºÀ/.iotlink/sdk/IoT_LINK/iot_link/network/lwm2m/wakaama_lwm2m/wakaama-master/core\data.c ****     switch (format)
 2377              		.loc 1 569 5 discriminator 2 view .LVU521
 2378 00d4 FFF7FEFF 		bl	link_log_level_get
 2379              	.LVL211:
 2380 00d8 0128     		cmp	r0, #1
 2381 00da 17D8     		bhi	.L166
 569:C:/Users/²Ü¼ÒºÀ/.iotlink/sdk/IoT_LINK/iot_link/network/lwm2m/wakaama_lwm2m/wakaama-master/core\data.c ****     switch (format)
 2382              		.loc 1 569 5 discriminator 6 view .LVU522
 569:C:/Users/²Ü¼ÒºÀ/.iotlink/sdk/IoT_LINK/iot_link/network/lwm2m/wakaama_lwm2m/wakaama-master/core\data.c ****     switch (format)
 2383              		.loc 1 569 5 discriminator 6 view .LVU523
 569:C:/Users/²Ü¼ÒºÀ/.iotlink/sdk/IoT_LINK/iot_link/network/lwm2m/wakaama_lwm2m/wakaama-master/core\data.c ****     switch (format)
 2384              		.loc 1 569 5 discriminator 6 view .LVU524
 2385 00dc 0120     		movs	r0, #1
 2386 00de FFF7FEFF 		bl	link_log_level_name
 2387              	.LVL212:
 2388 00e2 8146     		mov	r9, r0
 2389 00e4 FFF7FEFF 		bl	osal_sys_time
 2390              	.LVL213:
 2391 00e8 6388     		ldrh	r3, [r4, #2]
 2392 00ea 0293     		str	r3, [sp, #8]
 2393 00ec 40F23923 		movw	r3, #569
ARM GAS  C:\Users\²Ü¼ÒºÀ\AppData\Local\Temp\cc2xoMwd.s 			page 57


 2394 00f0 0193     		str	r3, [sp, #4]
 2395 00f2 4A4B     		ldr	r3, .L195+8
 2396 00f4 0093     		str	r3, [sp]
 2397 00f6 0246     		mov	r2, r0
 2398 00f8 494B     		ldr	r3, .L195+12
 2399 00fa 5148     		ldr	r0, .L195+44
 2400 00fc 4946     		mov	r1, r9
 2401 00fe FFF7FEFF 		bl	printf
 2402              	.LVL214:
 569:C:/Users/²Ü¼ÒºÀ/.iotlink/sdk/IoT_LINK/iot_link/network/lwm2m/wakaama_lwm2m/wakaama-master/core\data.c ****     switch (format)
 2403              		.loc 1 569 5 discriminator 6 view .LVU525
 2404 0102 494B     		ldr	r3, .L195+20
 2405 0104 1B68     		ldr	r3, [r3]
 2406 0106 9868     		ldr	r0, [r3, #8]
 2407 0108 FFF7FEFF 		bl	fflush
 2408              	.LVL215:
 2409              	.L166:
 569:C:/Users/²Ü¼ÒºÀ/.iotlink/sdk/IoT_LINK/iot_link/network/lwm2m/wakaama_lwm2m/wakaama-master/core\data.c ****     switch (format)
 2410              		.loc 1 569 5 discriminator 8 view .LVU526
 569:C:/Users/²Ü¼ÒºÀ/.iotlink/sdk/IoT_LINK/iot_link/network/lwm2m/wakaama_lwm2m/wakaama-master/core\data.c ****     switch (format)
 2411              		.loc 1 569 5 discriminator 8 view .LVU527
 569:C:/Users/²Ü¼ÒºÀ/.iotlink/sdk/IoT_LINK/iot_link/network/lwm2m/wakaama_lwm2m/wakaama-master/core\data.c ****     switch (format)
 2412              		.loc 1 569 5 discriminator 8 view .LVU528
 569:C:/Users/²Ü¼ÒºÀ/.iotlink/sdk/IoT_LINK/iot_link/network/lwm2m/wakaama_lwm2m/wakaama-master/core\data.c ****     switch (format)
 2413              		.loc 1 569 5 discriminator 8 view .LVU529
 2414 010c 2378     		ldrb	r3, [r4]	@ zero_extendqisi2
 2415 010e 9807     		lsls	r0, r3, #30
 2416 0110 16D5     		bpl	.L168
 569:C:/Users/²Ü¼ÒºÀ/.iotlink/sdk/IoT_LINK/iot_link/network/lwm2m/wakaama_lwm2m/wakaama-master/core\data.c ****     switch (format)
 2417              		.loc 1 569 5 discriminator 9 view .LVU530
 569:C:/Users/²Ü¼ÒºÀ/.iotlink/sdk/IoT_LINK/iot_link/network/lwm2m/wakaama_lwm2m/wakaama-master/core\data.c ****     switch (format)
 2418              		.loc 1 569 5 discriminator 9 view .LVU531
 2419 0112 FFF7FEFF 		bl	link_log_level_get
 2420              	.LVL216:
 2421 0116 0128     		cmp	r0, #1
 2422 0118 12D8     		bhi	.L168
 569:C:/Users/²Ü¼ÒºÀ/.iotlink/sdk/IoT_LINK/iot_link/network/lwm2m/wakaama_lwm2m/wakaama-master/core\data.c ****     switch (format)
 2423              		.loc 1 569 5 discriminator 11 view .LVU532
 569:C:/Users/²Ü¼ÒºÀ/.iotlink/sdk/IoT_LINK/iot_link/network/lwm2m/wakaama_lwm2m/wakaama-master/core\data.c ****     switch (format)
 2424              		.loc 1 569 5 discriminator 11 view .LVU533
 569:C:/Users/²Ü¼ÒºÀ/.iotlink/sdk/IoT_LINK/iot_link/network/lwm2m/wakaama_lwm2m/wakaama-master/core\data.c ****     switch (format)
 2425              		.loc 1 569 5 discriminator 11 view .LVU534
 2426 011a 0120     		movs	r0, #1
 2427 011c FFF7FEFF 		bl	link_log_level_name
 2428              	.LVL217:
 2429 0120 8146     		mov	r9, r0
 2430 0122 FFF7FEFF 		bl	osal_sys_time
 2431              	.LVL218:
 2432 0126 A388     		ldrh	r3, [r4, #4]
 2433 0128 0093     		str	r3, [sp]
 2434 012a 0246     		mov	r2, r0
 2435 012c 3C4B     		ldr	r3, .L195+12
 2436 012e 4548     		ldr	r0, .L195+48
 2437 0130 4946     		mov	r1, r9
 2438 0132 FFF7FEFF 		bl	printf
 2439              	.LVL219:
 569:C:/Users/²Ü¼ÒºÀ/.iotlink/sdk/IoT_LINK/iot_link/network/lwm2m/wakaama_lwm2m/wakaama-master/core\data.c ****     switch (format)
ARM GAS  C:\Users\²Ü¼ÒºÀ\AppData\Local\Temp\cc2xoMwd.s 			page 58


 2440              		.loc 1 569 5 discriminator 11 view .LVU535
 2441 0136 3C4B     		ldr	r3, .L195+20
 2442 0138 1B68     		ldr	r3, [r3]
 2443 013a 9868     		ldr	r0, [r3, #8]
 2444 013c FFF7FEFF 		bl	fflush
 2445              	.LVL220:
 2446              	.L168:
 569:C:/Users/²Ü¼ÒºÀ/.iotlink/sdk/IoT_LINK/iot_link/network/lwm2m/wakaama_lwm2m/wakaama-master/core\data.c ****     switch (format)
 2447              		.loc 1 569 5 discriminator 13 view .LVU536
 569:C:/Users/²Ü¼ÒºÀ/.iotlink/sdk/IoT_LINK/iot_link/network/lwm2m/wakaama_lwm2m/wakaama-master/core\data.c ****     switch (format)
 2448              		.loc 1 569 5 discriminator 13 view .LVU537
 569:C:/Users/²Ü¼ÒºÀ/.iotlink/sdk/IoT_LINK/iot_link/network/lwm2m/wakaama_lwm2m/wakaama-master/core\data.c ****     switch (format)
 2449              		.loc 1 569 5 discriminator 13 view .LVU538
 569:C:/Users/²Ü¼ÒºÀ/.iotlink/sdk/IoT_LINK/iot_link/network/lwm2m/wakaama_lwm2m/wakaama-master/core\data.c ****     switch (format)
 2450              		.loc 1 569 5 discriminator 13 view .LVU539
 2451 0140 2378     		ldrb	r3, [r4]	@ zero_extendqisi2
 2452 0142 D907     		lsls	r1, r3, #31
 2453 0144 16D5     		bpl	.L171
 569:C:/Users/²Ü¼ÒºÀ/.iotlink/sdk/IoT_LINK/iot_link/network/lwm2m/wakaama_lwm2m/wakaama-master/core\data.c ****     switch (format)
 2454              		.loc 1 569 5 discriminator 14 view .LVU540
 569:C:/Users/²Ü¼ÒºÀ/.iotlink/sdk/IoT_LINK/iot_link/network/lwm2m/wakaama_lwm2m/wakaama-master/core\data.c ****     switch (format)
 2455              		.loc 1 569 5 discriminator 14 view .LVU541
 2456 0146 FFF7FEFF 		bl	link_log_level_get
 2457              	.LVL221:
 2458 014a 0128     		cmp	r0, #1
 2459 014c 12D8     		bhi	.L171
 569:C:/Users/²Ü¼ÒºÀ/.iotlink/sdk/IoT_LINK/iot_link/network/lwm2m/wakaama_lwm2m/wakaama-master/core\data.c ****     switch (format)
 2460              		.loc 1 569 5 discriminator 16 view .LVU542
 569:C:/Users/²Ü¼ÒºÀ/.iotlink/sdk/IoT_LINK/iot_link/network/lwm2m/wakaama_lwm2m/wakaama-master/core\data.c ****     switch (format)
 2461              		.loc 1 569 5 discriminator 16 view .LVU543
 569:C:/Users/²Ü¼ÒºÀ/.iotlink/sdk/IoT_LINK/iot_link/network/lwm2m/wakaama_lwm2m/wakaama-master/core\data.c ****     switch (format)
 2462              		.loc 1 569 5 discriminator 16 view .LVU544
 2463 014e 0120     		movs	r0, #1
 2464 0150 FFF7FEFF 		bl	link_log_level_name
 2465              	.LVL222:
 2466 0154 8146     		mov	r9, r0
 2467 0156 FFF7FEFF 		bl	osal_sys_time
 2468              	.LVL223:
 2469 015a E388     		ldrh	r3, [r4, #6]
 2470 015c 0093     		str	r3, [sp]
 2471 015e 0246     		mov	r2, r0
 2472 0160 2F4B     		ldr	r3, .L195+12
 2473 0162 3848     		ldr	r0, .L195+48
 2474 0164 4946     		mov	r1, r9
 2475 0166 FFF7FEFF 		bl	printf
 2476              	.LVL224:
 569:C:/Users/²Ü¼ÒºÀ/.iotlink/sdk/IoT_LINK/iot_link/network/lwm2m/wakaama_lwm2m/wakaama-master/core\data.c ****     switch (format)
 2477              		.loc 1 569 5 discriminator 16 view .LVU545
 2478 016a 2F4B     		ldr	r3, .L195+20
 2479 016c 1B68     		ldr	r3, [r3]
 2480 016e 9868     		ldr	r0, [r3, #8]
 2481 0170 FFF7FEFF 		bl	fflush
 2482              	.LVL225:
 2483              	.L171:
 569:C:/Users/²Ü¼ÒºÀ/.iotlink/sdk/IoT_LINK/iot_link/network/lwm2m/wakaama_lwm2m/wakaama-master/core\data.c ****     switch (format)
 2484              		.loc 1 569 5 discriminator 18 view .LVU546
 569:C:/Users/²Ü¼ÒºÀ/.iotlink/sdk/IoT_LINK/iot_link/network/lwm2m/wakaama_lwm2m/wakaama-master/core\data.c ****     switch (format)
ARM GAS  C:\Users\²Ü¼ÒºÀ\AppData\Local\Temp\cc2xoMwd.s 			page 59


 2485              		.loc 1 569 5 discriminator 18 view .LVU547
 569:C:/Users/²Ü¼ÒºÀ/.iotlink/sdk/IoT_LINK/iot_link/network/lwm2m/wakaama_lwm2m/wakaama-master/core\data.c ****     switch (format)
 2486              		.loc 1 569 5 discriminator 18 view .LVU548
 569:C:/Users/²Ü¼ÒºÀ/.iotlink/sdk/IoT_LINK/iot_link/network/lwm2m/wakaama_lwm2m/wakaama-master/core\data.c ****     switch (format)
 2487              		.loc 1 569 5 discriminator 18 view .LVU549
 569:C:/Users/²Ü¼ÒºÀ/.iotlink/sdk/IoT_LINK/iot_link/network/lwm2m/wakaama_lwm2m/wakaama-master/core\data.c ****     switch (format)
 2488              		.loc 1 569 5 discriminator 18 view .LVU550
 2489 0174 FFF7FEFF 		bl	link_log_level_get
 2490              	.LVL226:
 2491 0178 0128     		cmp	r0, #1
 2492 017a 95D8     		bhi	.L165
 569:C:/Users/²Ü¼ÒºÀ/.iotlink/sdk/IoT_LINK/iot_link/network/lwm2m/wakaama_lwm2m/wakaama-master/core\data.c ****     switch (format)
 2493              		.loc 1 569 5 discriminator 19 view .LVU551
 569:C:/Users/²Ü¼ÒºÀ/.iotlink/sdk/IoT_LINK/iot_link/network/lwm2m/wakaama_lwm2m/wakaama-master/core\data.c ****     switch (format)
 2494              		.loc 1 569 5 discriminator 19 view .LVU552
 569:C:/Users/²Ü¼ÒºÀ/.iotlink/sdk/IoT_LINK/iot_link/network/lwm2m/wakaama_lwm2m/wakaama-master/core\data.c ****     switch (format)
 2495              		.loc 1 569 5 discriminator 19 view .LVU553
 2496 017c 0120     		movs	r0, #1
 2497 017e FFF7FEFF 		bl	link_log_level_name
 2498              	.LVL227:
 2499 0182 8146     		mov	r9, r0
 2500 0184 FFF7FEFF 		bl	osal_sys_time
 2501              	.LVL228:
 2502 0188 254B     		ldr	r3, .L195+12
 2503 018a 0246     		mov	r2, r0
 2504 018c 4946     		mov	r1, r9
 2505 018e 2E48     		ldr	r0, .L195+52
 2506 0190 FFF7FEFF 		bl	printf
 2507              	.LVL229:
 2508 0194 83E7     		b	.L194
 2509              	.L177:
 574:C:/Users/²Ü¼ÒºÀ/.iotlink/sdk/IoT_LINK/iot_link/network/lwm2m/wakaama_lwm2m/wakaama-master/core\data.c ****         *dataP = lwm2m_data_new(1);
 2510              		.loc 1 574 9 view .LVU554
 2511              		.loc 1 574 18 is_stmt 0 view .LVU555
 2512 0196 0120     		movs	r0, #1
 2513 0198 FFF7FEFF 		bl	lwm2m_data_new
 2514              	.LVL230:
 2515              		.loc 1 574 16 view .LVU556
 2516 019c 3060     		str	r0, [r6]
 575:C:/Users/²Ü¼ÒºÀ/.iotlink/sdk/IoT_LINK/iot_link/network/lwm2m/wakaama_lwm2m/wakaama-master/core\data.c ****         if (*dataP == NULL) return 0;
 2517              		.loc 1 575 9 is_stmt 1 view .LVU557
 2518              		.loc 1 575 12 is_stmt 0 view .LVU558
 2519 019e 0028     		cmp	r0, #0
 2520 01a0 8ED0     		beq	.L184
 576:C:/Users/²Ü¼ÒºÀ/.iotlink/sdk/IoT_LINK/iot_link/network/lwm2m/wakaama_lwm2m/wakaama-master/core\data.c ****         (*dataP)->id = uriP->resourceId;
 2521              		.loc 1 576 9 is_stmt 1 view .LVU559
 2522              		.loc 1 576 22 is_stmt 0 view .LVU560
 2523 01a2 E388     		ldrh	r3, [r4, #6]
 2524 01a4 4380     		strh	r3, [r0, #2]	@ movhi
 577:C:/Users/²Ü¼ÒºÀ/.iotlink/sdk/IoT_LINK/iot_link/network/lwm2m/wakaama_lwm2m/wakaama-master/core\data.c ****         (*dataP)->type = LWM2M_TYPE_STRING;
 2525              		.loc 1 577 9 is_stmt 1 view .LVU561
 2526              		.loc 1 577 24 is_stmt 0 view .LVU562
 2527 01a6 0423     		movs	r3, #4
 2528 01a8 0370     		strb	r3, [r0]
 578:C:/Users/²Ü¼ÒºÀ/.iotlink/sdk/IoT_LINK/iot_link/network/lwm2m/wakaama_lwm2m/wakaama-master/core\data.c ****         res = prv_setBuffer(*dataP, buffer, bufferLen);
 2529              		.loc 1 578 9 is_stmt 1 view .LVU563
 2530              		.loc 1 578 15 is_stmt 0 view .LVU564
ARM GAS  C:\Users\²Ü¼ÒºÀ\AppData\Local\Temp\cc2xoMwd.s 			page 60


 2531 01aa 3068     		ldr	r0, [r6]
 2532 01ac 3A46     		mov	r2, r7
 2533 01ae 4146     		mov	r1, r8
 2534 01b0 FFF7FEFF 		bl	prv_setBuffer
 2535              	.LVL231:
 579:C:/Users/²Ü¼ÒºÀ/.iotlink/sdk/IoT_LINK/iot_link/network/lwm2m/wakaama_lwm2m/wakaama-master/core\data.c ****         if (res == 0)
 2536              		.loc 1 579 9 is_stmt 1 view .LVU565
 2537              		.loc 1 579 12 is_stmt 0 view .LVU566
 2538 01b4 0446     		mov	r4, r0
 2539              	.LVL232:
 2540              		.loc 1 579 12 view .LVU567
 2541 01b6 20B9     		cbnz	r0, .L160
 580:C:/Users/²Ü¼ÒºÀ/.iotlink/sdk/IoT_LINK/iot_link/network/lwm2m/wakaama_lwm2m/wakaama-master/core\data.c ****         {
 581:C:/Users/²Ü¼ÒºÀ/.iotlink/sdk/IoT_LINK/iot_link/network/lwm2m/wakaama_lwm2m/wakaama-master/core\data.c ****             lwm2m_data_free(1, *dataP);
 2542              		.loc 1 581 13 is_stmt 1 view .LVU568
 2543 01b8 3168     		ldr	r1, [r6]
 2544 01ba 0120     		movs	r0, #1
 2545              	.LVL233:
 2546              		.loc 1 581 13 is_stmt 0 view .LVU569
 2547 01bc FFF7FEFF 		bl	lwm2m_data_free
 2548              	.LVL234:
 582:C:/Users/²Ü¼ÒºÀ/.iotlink/sdk/IoT_LINK/iot_link/network/lwm2m/wakaama_lwm2m/wakaama-master/core\data.c ****             *dataP = NULL;
 2549              		.loc 1 582 13 is_stmt 1 view .LVU570
 2550              		.loc 1 582 20 is_stmt 0 view .LVU571
 2551 01c0 3560     		str	r5, [r6]
 2552              	.LVL235:
 2553              	.L160:
 583:C:/Users/²Ü¼ÒºÀ/.iotlink/sdk/IoT_LINK/iot_link/network/lwm2m/wakaama_lwm2m/wakaama-master/core\data.c ****         }
 584:C:/Users/²Ü¼ÒºÀ/.iotlink/sdk/IoT_LINK/iot_link/network/lwm2m/wakaama_lwm2m/wakaama-master/core\data.c ****         return res;
 585:C:/Users/²Ü¼ÒºÀ/.iotlink/sdk/IoT_LINK/iot_link/network/lwm2m/wakaama_lwm2m/wakaama-master/core\data.c **** 
 586:C:/Users/²Ü¼ÒºÀ/.iotlink/sdk/IoT_LINK/iot_link/network/lwm2m/wakaama_lwm2m/wakaama-master/core\data.c ****     case LWM2M_CONTENT_OPAQUE:
 587:C:/Users/²Ü¼ÒºÀ/.iotlink/sdk/IoT_LINK/iot_link/network/lwm2m/wakaama_lwm2m/wakaama-master/core\data.c ****         if (!LWM2M_URI_IS_SET_RESOURCE(uriP)) return 0;
 588:C:/Users/²Ü¼ÒºÀ/.iotlink/sdk/IoT_LINK/iot_link/network/lwm2m/wakaama_lwm2m/wakaama-master/core\data.c ****         *dataP = lwm2m_data_new(1);
 589:C:/Users/²Ü¼ÒºÀ/.iotlink/sdk/IoT_LINK/iot_link/network/lwm2m/wakaama_lwm2m/wakaama-master/core\data.c ****         if (*dataP == NULL) return 0;
 590:C:/Users/²Ü¼ÒºÀ/.iotlink/sdk/IoT_LINK/iot_link/network/lwm2m/wakaama_lwm2m/wakaama-master/core\data.c ****         (*dataP)->id = uriP->resourceId;
 591:C:/Users/²Ü¼ÒºÀ/.iotlink/sdk/IoT_LINK/iot_link/network/lwm2m/wakaama_lwm2m/wakaama-master/core\data.c ****         (*dataP)->type = LWM2M_TYPE_OPAQUE;
 592:C:/Users/²Ü¼ÒºÀ/.iotlink/sdk/IoT_LINK/iot_link/network/lwm2m/wakaama_lwm2m/wakaama-master/core\data.c ****         res = prv_setBuffer(*dataP, buffer, bufferLen);
 593:C:/Users/²Ü¼ÒºÀ/.iotlink/sdk/IoT_LINK/iot_link/network/lwm2m/wakaama_lwm2m/wakaama-master/core\data.c ****         if (res == 0)
 594:C:/Users/²Ü¼ÒºÀ/.iotlink/sdk/IoT_LINK/iot_link/network/lwm2m/wakaama_lwm2m/wakaama-master/core\data.c ****         {
 595:C:/Users/²Ü¼ÒºÀ/.iotlink/sdk/IoT_LINK/iot_link/network/lwm2m/wakaama_lwm2m/wakaama-master/core\data.c ****             lwm2m_data_free(1, *dataP);
 596:C:/Users/²Ü¼ÒºÀ/.iotlink/sdk/IoT_LINK/iot_link/network/lwm2m/wakaama_lwm2m/wakaama-master/core\data.c ****             *dataP = NULL;
 597:C:/Users/²Ü¼ÒºÀ/.iotlink/sdk/IoT_LINK/iot_link/network/lwm2m/wakaama_lwm2m/wakaama-master/core\data.c ****         }
 598:C:/Users/²Ü¼ÒºÀ/.iotlink/sdk/IoT_LINK/iot_link/network/lwm2m/wakaama_lwm2m/wakaama-master/core\data.c ****         return res;
 599:C:/Users/²Ü¼ÒºÀ/.iotlink/sdk/IoT_LINK/iot_link/network/lwm2m/wakaama_lwm2m/wakaama-master/core\data.c **** 
 600:C:/Users/²Ü¼ÒºÀ/.iotlink/sdk/IoT_LINK/iot_link/network/lwm2m/wakaama_lwm2m/wakaama-master/core\data.c **** #ifdef LWM2M_OLD_CONTENT_FORMAT_SUPPORT
 601:C:/Users/²Ü¼ÒºÀ/.iotlink/sdk/IoT_LINK/iot_link/network/lwm2m/wakaama_lwm2m/wakaama-master/core\data.c ****     case LWM2M_CONTENT_TLV_OLD:
 602:C:/Users/²Ü¼ÒºÀ/.iotlink/sdk/IoT_LINK/iot_link/network/lwm2m/wakaama_lwm2m/wakaama-master/core\data.c **** #endif
 603:C:/Users/²Ü¼ÒºÀ/.iotlink/sdk/IoT_LINK/iot_link/network/lwm2m/wakaama_lwm2m/wakaama-master/core\data.c ****     case LWM2M_CONTENT_TLV:
 604:C:/Users/²Ü¼ÒºÀ/.iotlink/sdk/IoT_LINK/iot_link/network/lwm2m/wakaama_lwm2m/wakaama-master/core\data.c ****         return tlv_parse(buffer, bufferLen, dataP);
 605:C:/Users/²Ü¼ÒºÀ/.iotlink/sdk/IoT_LINK/iot_link/network/lwm2m/wakaama_lwm2m/wakaama-master/core\data.c **** 
 606:C:/Users/²Ü¼ÒºÀ/.iotlink/sdk/IoT_LINK/iot_link/network/lwm2m/wakaama_lwm2m/wakaama-master/core\data.c **** #ifdef LWM2M_SUPPORT_JSON
 607:C:/Users/²Ü¼ÒºÀ/.iotlink/sdk/IoT_LINK/iot_link/network/lwm2m/wakaama_lwm2m/wakaama-master/core\data.c **** #ifdef LWM2M_OLD_CONTENT_FORMAT_SUPPORT
 608:C:/Users/²Ü¼ÒºÀ/.iotlink/sdk/IoT_LINK/iot_link/network/lwm2m/wakaama_lwm2m/wakaama-master/core\data.c ****     case LWM2M_CONTENT_JSON_OLD:
 609:C:/Users/²Ü¼ÒºÀ/.iotlink/sdk/IoT_LINK/iot_link/network/lwm2m/wakaama_lwm2m/wakaama-master/core\data.c **** #endif
 610:C:/Users/²Ü¼ÒºÀ/.iotlink/sdk/IoT_LINK/iot_link/network/lwm2m/wakaama_lwm2m/wakaama-master/core\data.c ****     case LWM2M_CONTENT_JSON:
 611:C:/Users/²Ü¼ÒºÀ/.iotlink/sdk/IoT_LINK/iot_link/network/lwm2m/wakaama_lwm2m/wakaama-master/core\data.c ****         return json_parse(uriP, buffer, bufferLen, dataP);
 612:C:/Users/²Ü¼ÒºÀ/.iotlink/sdk/IoT_LINK/iot_link/network/lwm2m/wakaama_lwm2m/wakaama-master/core\data.c **** #endif
ARM GAS  C:\Users\²Ü¼ÒºÀ\AppData\Local\Temp\cc2xoMwd.s 			page 61


 613:C:/Users/²Ü¼ÒºÀ/.iotlink/sdk/IoT_LINK/iot_link/network/lwm2m/wakaama_lwm2m/wakaama-master/core\data.c **** 
 614:C:/Users/²Ü¼ÒºÀ/.iotlink/sdk/IoT_LINK/iot_link/network/lwm2m/wakaama_lwm2m/wakaama-master/core\data.c ****     default:
 615:C:/Users/²Ü¼ÒºÀ/.iotlink/sdk/IoT_LINK/iot_link/network/lwm2m/wakaama_lwm2m/wakaama-master/core\data.c ****         return 0;
 616:C:/Users/²Ü¼ÒºÀ/.iotlink/sdk/IoT_LINK/iot_link/network/lwm2m/wakaama_lwm2m/wakaama-master/core\data.c ****     }
 617:C:/Users/²Ü¼ÒºÀ/.iotlink/sdk/IoT_LINK/iot_link/network/lwm2m/wakaama_lwm2m/wakaama-master/core\data.c **** }
 2554              		.loc 1 617 1 view .LVU572
 2555 01c2 2046     		mov	r0, r4
 2556 01c4 09B0     		add	sp, sp, #36
 2557              	.LCFI58:
 2558              		.cfi_remember_state
 2559              		.cfi_def_cfa_offset 28
 2560              		@ sp needed
 2561 01c6 BDE8F083 		pop	{r4, r5, r6, r7, r8, r9, pc}
 2562              	.LVL236:
 2563              	.L174:
 2564              	.LCFI59:
 2565              		.cfi_restore_state
 587:C:/Users/²Ü¼ÒºÀ/.iotlink/sdk/IoT_LINK/iot_link/network/lwm2m/wakaama_lwm2m/wakaama-master/core\data.c ****         *dataP = lwm2m_data_new(1);
 2566              		.loc 1 587 9 is_stmt 1 view .LVU573
 587:C:/Users/²Ü¼ÒºÀ/.iotlink/sdk/IoT_LINK/iot_link/network/lwm2m/wakaama_lwm2m/wakaama-master/core\data.c ****         *dataP = lwm2m_data_new(1);
 2567              		.loc 1 587 12 is_stmt 0 view .LVU574
 2568 01ca 2378     		ldrb	r3, [r4]	@ zero_extendqisi2
 2569 01cc DB07     		lsls	r3, r3, #31
 2570 01ce 7FF577AF 		bpl	.L184
 588:C:/Users/²Ü¼ÒºÀ/.iotlink/sdk/IoT_LINK/iot_link/network/lwm2m/wakaama_lwm2m/wakaama-master/core\data.c ****         if (*dataP == NULL) return 0;
 2571              		.loc 1 588 9 is_stmt 1 view .LVU575
 588:C:/Users/²Ü¼ÒºÀ/.iotlink/sdk/IoT_LINK/iot_link/network/lwm2m/wakaama_lwm2m/wakaama-master/core\data.c ****         if (*dataP == NULL) return 0;
 2572              		.loc 1 588 18 is_stmt 0 view .LVU576
 2573 01d2 0120     		movs	r0, #1
 2574 01d4 FFF7FEFF 		bl	lwm2m_data_new
 2575              	.LVL237:
 588:C:/Users/²Ü¼ÒºÀ/.iotlink/sdk/IoT_LINK/iot_link/network/lwm2m/wakaama_lwm2m/wakaama-master/core\data.c ****         if (*dataP == NULL) return 0;
 2576              		.loc 1 588 16 view .LVU577
 2577 01d8 3060     		str	r0, [r6]
 589:C:/Users/²Ü¼ÒºÀ/.iotlink/sdk/IoT_LINK/iot_link/network/lwm2m/wakaama_lwm2m/wakaama-master/core\data.c ****         (*dataP)->id = uriP->resourceId;
 2578              		.loc 1 589 9 is_stmt 1 view .LVU578
 589:C:/Users/²Ü¼ÒºÀ/.iotlink/sdk/IoT_LINK/iot_link/network/lwm2m/wakaama_lwm2m/wakaama-master/core\data.c ****         (*dataP)->id = uriP->resourceId;
 2579              		.loc 1 589 12 is_stmt 0 view .LVU579
 2580 01da 0028     		cmp	r0, #0
 2581 01dc 3FF470AF 		beq	.L184
 590:C:/Users/²Ü¼ÒºÀ/.iotlink/sdk/IoT_LINK/iot_link/network/lwm2m/wakaama_lwm2m/wakaama-master/core\data.c ****         (*dataP)->type = LWM2M_TYPE_OPAQUE;
 2582              		.loc 1 590 9 is_stmt 1 view .LVU580
 590:C:/Users/²Ü¼ÒºÀ/.iotlink/sdk/IoT_LINK/iot_link/network/lwm2m/wakaama_lwm2m/wakaama-master/core\data.c ****         (*dataP)->type = LWM2M_TYPE_OPAQUE;
 2583              		.loc 1 590 22 is_stmt 0 view .LVU581
 2584 01e0 E388     		ldrh	r3, [r4, #6]
 2585 01e2 4380     		strh	r3, [r0, #2]	@ movhi
 591:C:/Users/²Ü¼ÒºÀ/.iotlink/sdk/IoT_LINK/iot_link/network/lwm2m/wakaama_lwm2m/wakaama-master/core\data.c ****         res = prv_setBuffer(*dataP, buffer, bufferLen);
 2586              		.loc 1 591 9 is_stmt 1 view .LVU582
 591:C:/Users/²Ü¼ÒºÀ/.iotlink/sdk/IoT_LINK/iot_link/network/lwm2m/wakaama_lwm2m/wakaama-master/core\data.c ****         res = prv_setBuffer(*dataP, buffer, bufferLen);
 2587              		.loc 1 591 24 is_stmt 0 view .LVU583
 2588 01e4 0523     		movs	r3, #5
 2589 01e6 0370     		strb	r3, [r0]
 592:C:/Users/²Ü¼ÒºÀ/.iotlink/sdk/IoT_LINK/iot_link/network/lwm2m/wakaama_lwm2m/wakaama-master/core\data.c ****         if (res == 0)
 2590              		.loc 1 592 9 is_stmt 1 view .LVU584
 592:C:/Users/²Ü¼ÒºÀ/.iotlink/sdk/IoT_LINK/iot_link/network/lwm2m/wakaama_lwm2m/wakaama-master/core\data.c ****         if (res == 0)
 2591              		.loc 1 592 15 is_stmt 0 view .LVU585
 2592 01e8 3068     		ldr	r0, [r6]
ARM GAS  C:\Users\²Ü¼ÒºÀ\AppData\Local\Temp\cc2xoMwd.s 			page 62


 2593 01ea 3A46     		mov	r2, r7
 2594 01ec 4146     		mov	r1, r8
 2595 01ee FFF7FEFF 		bl	prv_setBuffer
 2596              	.LVL238:
 593:C:/Users/²Ü¼ÒºÀ/.iotlink/sdk/IoT_LINK/iot_link/network/lwm2m/wakaama_lwm2m/wakaama-master/core\data.c ****         {
 2597              		.loc 1 593 9 is_stmt 1 view .LVU586
 593:C:/Users/²Ü¼ÒºÀ/.iotlink/sdk/IoT_LINK/iot_link/network/lwm2m/wakaama_lwm2m/wakaama-master/core\data.c ****         {
 2598              		.loc 1 593 12 is_stmt 0 view .LVU587
 2599 01f2 0446     		mov	r4, r0
 2600              	.LVL239:
 593:C:/Users/²Ü¼ÒºÀ/.iotlink/sdk/IoT_LINK/iot_link/network/lwm2m/wakaama_lwm2m/wakaama-master/core\data.c ****         {
 2601              		.loc 1 593 12 view .LVU588
 2602 01f4 0028     		cmp	r0, #0
 2603 01f6 E4D1     		bne	.L160
 595:C:/Users/²Ü¼ÒºÀ/.iotlink/sdk/IoT_LINK/iot_link/network/lwm2m/wakaama_lwm2m/wakaama-master/core\data.c ****             *dataP = NULL;
 2604              		.loc 1 595 13 is_stmt 1 view .LVU589
 2605 01f8 3168     		ldr	r1, [r6]
 2606 01fa 0120     		movs	r0, #1
 2607              	.LVL240:
 595:C:/Users/²Ü¼ÒºÀ/.iotlink/sdk/IoT_LINK/iot_link/network/lwm2m/wakaama_lwm2m/wakaama-master/core\data.c ****             *dataP = NULL;
 2608              		.loc 1 595 13 is_stmt 0 view .LVU590
 2609 01fc FFF7FEFF 		bl	lwm2m_data_free
 2610              	.LVL241:
 596:C:/Users/²Ü¼ÒºÀ/.iotlink/sdk/IoT_LINK/iot_link/network/lwm2m/wakaama_lwm2m/wakaama-master/core\data.c ****         }
 2611              		.loc 1 596 13 is_stmt 1 view .LVU591
 596:C:/Users/²Ü¼ÒºÀ/.iotlink/sdk/IoT_LINK/iot_link/network/lwm2m/wakaama_lwm2m/wakaama-master/core\data.c ****         }
 2612              		.loc 1 596 20 is_stmt 0 view .LVU592
 2613 0200 3460     		str	r4, [r6]
 2614 0202 DEE7     		b	.L160
 2615              	.LVL242:
 2616              	.L175:
 604:C:/Users/²Ü¼ÒºÀ/.iotlink/sdk/IoT_LINK/iot_link/network/lwm2m/wakaama_lwm2m/wakaama-master/core\data.c **** 
 2617              		.loc 1 604 9 is_stmt 1 view .LVU593
 604:C:/Users/²Ü¼ÒºÀ/.iotlink/sdk/IoT_LINK/iot_link/network/lwm2m/wakaama_lwm2m/wakaama-master/core\data.c **** 
 2618              		.loc 1 604 16 is_stmt 0 view .LVU594
 2619 0204 3246     		mov	r2, r6
 2620 0206 3946     		mov	r1, r7
 2621 0208 4046     		mov	r0, r8
 2622              		.loc 1 617 1 view .LVU595
 2623 020a 09B0     		add	sp, sp, #36
 2624              	.LCFI60:
 2625              		.cfi_def_cfa_offset 28
 2626              		@ sp needed
 2627 020c BDE8F043 		pop	{r4, r5, r6, r7, r8, r9, lr}
 2628              	.LCFI61:
 2629              		.cfi_restore 14
 2630              		.cfi_restore 9
 2631              		.cfi_restore 8
 2632              		.cfi_restore 7
 2633              		.cfi_restore 6
 2634              		.cfi_restore 5
 2635              		.cfi_restore 4
 2636              		.cfi_def_cfa_offset 0
 2637              	.LVL243:
 604:C:/Users/²Ü¼ÒºÀ/.iotlink/sdk/IoT_LINK/iot_link/network/lwm2m/wakaama_lwm2m/wakaama-master/core\data.c **** 
 2638              		.loc 1 604 16 view .LVU596
 2639 0210 FFF7FEBF 		b	tlv_parse
ARM GAS  C:\Users\²Ü¼ÒºÀ\AppData\Local\Temp\cc2xoMwd.s 			page 63


 2640              	.LVL244:
 2641              	.L196:
 604:C:/Users/²Ü¼ÒºÀ/.iotlink/sdk/IoT_LINK/iot_link/network/lwm2m/wakaama_lwm2m/wakaama-master/core\data.c **** 
 2642              		.loc 1 604 16 view .LVU597
 2643              		.align	2
 2644              	.L195:
 2645 0214 3A000000 		.word	.LC18
 2646 0218 60000000 		.word	.LC20
 2647 021c 00000000 		.word	.LANCHOR29
 2648 0220 00000000 		.word	.LANCHOR28
 2649 0224 68000000 		.word	.LC21
 2650 0228 00000000 		.word	_impure_ptr
 2651 022c 9F000000 		.word	.LC22
 2652 0230 15000000 		.word	.LC16
 2653 0234 4D000000 		.word	.LC19
 2654 0238 00000000 		.word	.LC15
 2655 023c 28000000 		.word	.LC17
 2656 0240 BD000000 		.word	.LC23
 2657 0244 D8000000 		.word	.LC24
 2658 0248 EB000000 		.word	.LC25
 2659              		.cfi_endproc
 2660              	.LFE21:
 2662              		.section	.rodata.lwm2m_data_serialize.str1.1,"aMS",%progbits,1
 2663              	.LC26:
 2664 0000 5B25735D 		.ascii	"[%s][%u][%s] [%d][%s:%d] size: %d, formatP: %s\015\012"
 2664      5B25755D 
 2664      5B25735D 
 2664      205B2564 
 2664      5D5B2573 
 2665 0030 0D0A00   		.ascii	"\015\012\000"
 2666              	.LC27:
 2667 0033 5B25735D 		.ascii	"[%s][%u][%s] [%d][%s:%d] Opaque format is reserved "
 2667      5B25755D 
 2667      5B25735D 
 2667      205B2564 
 2667      5D5B2573 
 2668 0066 746F206F 		.ascii	"to opaque resources.\015\012\015\012\000"
 2668      70617175 
 2668      65207265 
 2668      736F7572 
 2668      6365732E 
 2669              	.LC28:
 2670 007f 5B25735D 		.ascii	"[%s][%u][%s] [%d][%s:%d] Final format: %s\015\012\015"
 2670      5B25755D 
 2670      5B25735D 
 2670      205B2564 
 2670      5D5B2573 
 2671 00ab 0A00     		.ascii	"\012\000"
 2672              		.section	.text.lwm2m_data_serialize,"ax",%progbits
 2673              		.align	1
 2674              		.global	lwm2m_data_serialize
 2675              		.syntax unified
 2676              		.thumb
 2677              		.thumb_func
 2678              		.fpu fpv4-sp-d16
 2680              	lwm2m_data_serialize:
 2681              	.LVL245:
ARM GAS  C:\Users\²Ü¼ÒºÀ\AppData\Local\Temp\cc2xoMwd.s 			page 64


 2682              	.LFB22:
 618:C:/Users/²Ü¼ÒºÀ/.iotlink/sdk/IoT_LINK/iot_link/network/lwm2m/wakaama_lwm2m/wakaama-master/core\data.c **** 
 619:C:/Users/²Ü¼ÒºÀ/.iotlink/sdk/IoT_LINK/iot_link/network/lwm2m/wakaama_lwm2m/wakaama-master/core\data.c **** int lwm2m_data_serialize(lwm2m_uri_t *uriP,
 620:C:/Users/²Ü¼ÒºÀ/.iotlink/sdk/IoT_LINK/iot_link/network/lwm2m/wakaama_lwm2m/wakaama-master/core\data.c ****                          int size,
 621:C:/Users/²Ü¼ÒºÀ/.iotlink/sdk/IoT_LINK/iot_link/network/lwm2m/wakaama_lwm2m/wakaama-master/core\data.c ****                          lwm2m_data_t *dataP,
 622:C:/Users/²Ü¼ÒºÀ/.iotlink/sdk/IoT_LINK/iot_link/network/lwm2m/wakaama_lwm2m/wakaama-master/core\data.c ****                          lwm2m_media_type_t *formatP,
 623:C:/Users/²Ü¼ÒºÀ/.iotlink/sdk/IoT_LINK/iot_link/network/lwm2m/wakaama_lwm2m/wakaama-master/core\data.c ****                          uint8_t **bufferP)
 624:C:/Users/²Ü¼ÒºÀ/.iotlink/sdk/IoT_LINK/iot_link/network/lwm2m/wakaama_lwm2m/wakaama-master/core\data.c **** {
 2683              		.loc 1 624 1 is_stmt 1 view -0
 2684              		.cfi_startproc
 2685              		@ args = 4, pretend = 0, frame = 72
 2686              		@ frame_needed = 0, uses_anonymous_args = 0
 625:C:/Users/²Ü¼ÒºÀ/.iotlink/sdk/IoT_LINK/iot_link/network/lwm2m/wakaama_lwm2m/wakaama-master/core\data.c ****     LOG_URI(uriP);
 2687              		.loc 1 625 5 view .LVU599
 624:C:/Users/²Ü¼ÒºÀ/.iotlink/sdk/IoT_LINK/iot_link/network/lwm2m/wakaama_lwm2m/wakaama-master/core\data.c ****     LOG_URI(uriP);
 2688              		.loc 1 624 1 is_stmt 0 view .LVU600
 2689 0000 2DE9F043 		push	{r4, r5, r6, r7, r8, r9, lr}
 2690              	.LCFI62:
 2691              		.cfi_def_cfa_offset 28
 2692              		.cfi_offset 4, -28
 2693              		.cfi_offset 5, -24
 2694              		.cfi_offset 6, -20
 2695              		.cfi_offset 7, -16
 2696              		.cfi_offset 8, -12
 2697              		.cfi_offset 9, -8
 2698              		.cfi_offset 14, -4
 2699 0004 99B0     		sub	sp, sp, #100
 2700              	.LCFI63:
 2701              		.cfi_def_cfa_offset 128
 624:C:/Users/²Ü¼ÒºÀ/.iotlink/sdk/IoT_LINK/iot_link/network/lwm2m/wakaama_lwm2m/wakaama-master/core\data.c ****     LOG_URI(uriP);
 2702              		.loc 1 624 1 view .LVU601
 2703 0006 0F46     		mov	r7, r1
 2704 0008 209E     		ldr	r6, [sp, #128]
 2705 000a 1446     		mov	r4, r2
 2706 000c 9846     		mov	r8, r3
 2707              		.loc 1 625 5 view .LVU602
 2708 000e 0546     		mov	r5, r0
 2709 0010 0028     		cmp	r0, #0
 2710 0012 40F0B880 		bne	.L198
 2711              		.loc 1 625 5 is_stmt 1 discriminator 1 view .LVU603
 2712              		.loc 1 625 5 discriminator 1 view .LVU604
 2713 0016 FFF7FEFF 		bl	link_log_level_get
 2714              	.LVL246:
 2715              		.loc 1 625 5 is_stmt 0 discriminator 1 view .LVU605
 2716 001a 0128     		cmp	r0, #1
 2717 001c 15D8     		bhi	.L200
 2718              		.loc 1 625 5 is_stmt 1 discriminator 3 view .LVU606
 2719              		.loc 1 625 5 discriminator 3 view .LVU607
 2720              		.loc 1 625 5 discriminator 3 view .LVU608
 2721 001e 0120     		movs	r0, #1
 2722 0020 FFF7FEFF 		bl	link_log_level_name
 2723              	.LVL247:
 2724 0024 8146     		mov	r9, r0
 2725 0026 FFF7FEFF 		bl	osal_sys_time
 2726              	.LVL248:
 2727 002a 40F27123 		movw	r3, #625
 2728 002e 0193     		str	r3, [sp, #4]
ARM GAS  C:\Users\²Ü¼ÒºÀ\AppData\Local\Temp\cc2xoMwd.s 			page 65


 2729 0030 B44B     		ldr	r3, .L305
 2730 0032 0093     		str	r3, [sp]
 2731 0034 0246     		mov	r2, r0
 2732 0036 B44B     		ldr	r3, .L305+4
 2733 0038 B448     		ldr	r0, .L305+8
 2734 003a 4946     		mov	r1, r9
 2735 003c FFF7FEFF 		bl	printf
 2736              	.LVL249:
 2737              		.loc 1 625 5 discriminator 3 view .LVU609
 2738              	.L296:
 2739              		.loc 1 625 5 discriminator 19 view .LVU610
 2740 0040 B34B     		ldr	r3, .L305+12
 2741 0042 1B68     		ldr	r3, [r3]
 2742 0044 9868     		ldr	r0, [r3, #8]
 2743 0046 FFF7FEFF 		bl	fflush
 2744              	.LVL250:
 2745              	.L200:
 2746              		.loc 1 625 5 discriminator 21 view .LVU611
 2747              		.loc 1 625 5 discriminator 21 view .LVU612
 2748              		.loc 1 625 5 discriminator 21 view .LVU613
 2749              		.loc 1 625 18 discriminator 21 view .LVU614
 626:C:/Users/²Ü¼ÒºÀ/.iotlink/sdk/IoT_LINK/iot_link/network/lwm2m/wakaama_lwm2m/wakaama-master/core\data.c ****     LOG_ARG("size: %d, formatP: %s", size, STR_MEDIA_TYPE(*formatP));
 2750              		.loc 1 626 5 discriminator 21 view .LVU615
 2751              		.loc 1 626 5 discriminator 21 view .LVU616
 2752 004a FFF7FEFF 		bl	link_log_level_get
 2753              	.LVL251:
 2754 004e 0128     		cmp	r0, #1
 2755 0050 33D8     		bhi	.L209
 2756              		.loc 1 626 5 discriminator 1 view .LVU617
 2757              		.loc 1 626 5 discriminator 1 view .LVU618
 2758              		.loc 1 626 5 discriminator 1 view .LVU619
 2759 0052 0120     		movs	r0, #1
 2760 0054 FFF7FEFF 		bl	link_log_level_name
 2761              	.LVL252:
 2762 0058 8146     		mov	r9, r0
 2763 005a FFF7FEFF 		bl	osal_sys_time
 2764              	.LVL253:
 2765 005e 0790     		str	r0, [sp, #28]
 2766 0060 FFF7FEFF 		bl	lwm2m_gettime
 2767              	.LVL254:
 2768 0064 B8F80010 		ldrh	r1, [r8]
 2769 0068 079A     		ldr	r2, [sp, #28]
 2770 006a 0029     		cmp	r1, #0
 2771 006c 00F0ED80 		beq	.L249
 2772              		.loc 1 626 5 is_stmt 0 discriminator 3 view .LVU620
 2773 0070 2829     		cmp	r1, #40
 2774 0072 00F0EC80 		beq	.L250
 2775              		.loc 1 626 5 discriminator 5 view .LVU621
 2776 0076 2A29     		cmp	r1, #42
 2777 0078 00F0EB80 		beq	.L251
 2778              		.loc 1 626 5 discriminator 7 view .LVU622
 2779 007c 42F61653 		movw	r3, #11542
 2780 0080 9942     		cmp	r1, r3
 2781 0082 00F0E880 		beq	.L252
 2782              		.loc 1 626 5 discriminator 9 view .LVU623
 2783 0086 A34B     		ldr	r3, .L305+16
 2784 0088 DFF8B4C2 		ldr	ip, .L305+60
ARM GAS  C:\Users\²Ü¼ÒºÀ\AppData\Local\Temp\cc2xoMwd.s 			page 66


 2785 008c 42F6175E 		movw	lr, #11543
 2786 0090 7145     		cmp	r1, lr
 2787 0092 18BF     		it	ne
 2788 0094 6346     		movne	r3, ip
 2789              	.L210:
 2790              		.loc 1 626 5 discriminator 22 view .LVU624
 2791 0096 CDE90373 		strd	r7, r3, [sp, #12]
 2792 009a 40F27223 		movw	r3, #626
 2793 009e 0293     		str	r3, [sp, #8]
 2794 00a0 984B     		ldr	r3, .L305
 2795 00a2 4946     		mov	r1, r9
 2796 00a4 CDE90003 		strd	r0, r3, [sp]
 2797 00a8 974B     		ldr	r3, .L305+4
 2798 00aa 9B48     		ldr	r0, .L305+20
 2799 00ac FFF7FEFF 		bl	printf
 2800              	.LVL255:
 2801              		.loc 1 626 5 is_stmt 1 discriminator 22 view .LVU625
 2802 00b0 974B     		ldr	r3, .L305+12
 2803 00b2 1B68     		ldr	r3, [r3]
 2804 00b4 9868     		ldr	r0, [r3, #8]
 2805 00b6 FFF7FEFF 		bl	fflush
 2806              	.LVL256:
 2807              	.L209:
 2808              		.loc 1 626 5 discriminator 23 view .LVU626
 2809              		.loc 1 626 5 discriminator 23 view .LVU627
 2810              		.loc 1 626 5 discriminator 23 view .LVU628
 627:C:/Users/²Ü¼ÒºÀ/.iotlink/sdk/IoT_LINK/iot_link/network/lwm2m/wakaama_lwm2m/wakaama-master/core\data.c **** 
 628:C:/Users/²Ü¼ÒºÀ/.iotlink/sdk/IoT_LINK/iot_link/network/lwm2m/wakaama_lwm2m/wakaama-master/core\data.c ****     // Check format
 629:C:/Users/²Ü¼ÒºÀ/.iotlink/sdk/IoT_LINK/iot_link/network/lwm2m/wakaama_lwm2m/wakaama-master/core\data.c ****     if (*formatP == LWM2M_CONTENT_TEXT
 2811              		.loc 1 629 5 discriminator 23 view .LVU629
 2812              		.loc 1 629 9 is_stmt 0 discriminator 23 view .LVU630
 2813 00ba B8F80030 		ldrh	r3, [r8]
 2814              		.loc 1 629 8 discriminator 23 view .LVU631
 2815 00be 0BB1     		cbz	r3, .L211
 630:C:/Users/²Ü¼ÒºÀ/.iotlink/sdk/IoT_LINK/iot_link/network/lwm2m/wakaama_lwm2m/wakaama-master/core\data.c ****             || *formatP == LWM2M_CONTENT_OPAQUE)
 2816              		.loc 1 630 13 view .LVU632
 2817 00c0 2A2B     		cmp	r3, #42
 2818 00c2 0ED1     		bne	.L212
 2819              	.L211:
 631:C:/Users/²Ü¼ÒºÀ/.iotlink/sdk/IoT_LINK/iot_link/network/lwm2m/wakaama_lwm2m/wakaama-master/core\data.c ****     {
 632:C:/Users/²Ü¼ÒºÀ/.iotlink/sdk/IoT_LINK/iot_link/network/lwm2m/wakaama_lwm2m/wakaama-master/core\data.c ****         if (size != 1
 2820              		.loc 1 632 9 is_stmt 1 view .LVU633
 2821              		.loc 1 632 12 is_stmt 0 view .LVU634
 2822 00c4 012F     		cmp	r7, #1
 2823 00c6 08D1     		bne	.L213
 633:C:/Users/²Ü¼ÒºÀ/.iotlink/sdk/IoT_LINK/iot_link/network/lwm2m/wakaama_lwm2m/wakaama-master/core\data.c ****                 || (uriP != NULL && !LWM2M_URI_IS_SET_RESOURCE(uriP))
 2824              		.loc 1 633 17 view .LVU635
 2825 00c8 15B1     		cbz	r5, .L214
 2826              		.loc 1 633 34 discriminator 1 view .LVU636
 2827 00ca 2A78     		ldrb	r2, [r5]	@ zero_extendqisi2
 2828 00cc D207     		lsls	r2, r2, #31
 2829 00ce 04D5     		bpl	.L213
 2830              	.L214:
 634:C:/Users/²Ü¼ÒºÀ/.iotlink/sdk/IoT_LINK/iot_link/network/lwm2m/wakaama_lwm2m/wakaama-master/core\data.c ****                 || dataP->type == LWM2M_TYPE_OBJECT
 2831              		.loc 1 634 25 view .LVU637
 2832 00d0 2278     		ldrb	r2, [r4]	@ zero_extendqisi2
 2833              		.loc 1 634 17 view .LVU638
ARM GAS  C:\Users\²Ü¼ÒºÀ\AppData\Local\Temp\cc2xoMwd.s 			page 67


 2834 00d2 511E     		subs	r1, r2, #1
 2835 00d4 0229     		cmp	r1, #2
 2836 00d6 00F2C080 		bhi	.L215
 2837              	.L213:
 635:C:/Users/²Ü¼ÒºÀ/.iotlink/sdk/IoT_LINK/iot_link/network/lwm2m/wakaama_lwm2m/wakaama-master/core\data.c ****                 || dataP->type == LWM2M_TYPE_OBJECT_INSTANCE
 636:C:/Users/²Ü¼ÒºÀ/.iotlink/sdk/IoT_LINK/iot_link/network/lwm2m/wakaama_lwm2m/wakaama-master/core\data.c ****                 || dataP->type == LWM2M_TYPE_MULTIPLE_RESOURCE)
 637:C:/Users/²Ü¼ÒºÀ/.iotlink/sdk/IoT_LINK/iot_link/network/lwm2m/wakaama_lwm2m/wakaama-master/core\data.c ****         {
 638:C:/Users/²Ü¼ÒºÀ/.iotlink/sdk/IoT_LINK/iot_link/network/lwm2m/wakaama_lwm2m/wakaama-master/core\data.c **** #ifdef LWM2M_SUPPORT_JSON
 639:C:/Users/²Ü¼ÒºÀ/.iotlink/sdk/IoT_LINK/iot_link/network/lwm2m/wakaama_lwm2m/wakaama-master/core\data.c ****             *formatP = LWM2M_CONTENT_JSON;
 640:C:/Users/²Ü¼ÒºÀ/.iotlink/sdk/IoT_LINK/iot_link/network/lwm2m/wakaama_lwm2m/wakaama-master/core\data.c **** #else
 641:C:/Users/²Ü¼ÒºÀ/.iotlink/sdk/IoT_LINK/iot_link/network/lwm2m/wakaama_lwm2m/wakaama-master/core\data.c ****             *formatP = LWM2M_CONTENT_TLV;
 2838              		.loc 1 641 13 is_stmt 1 view .LVU639
 2839              		.loc 1 641 22 is_stmt 0 view .LVU640
 2840 00da 42F61653 		movw	r3, #11542
 2841 00de A8F80030 		strh	r3, [r8]	@ movhi
 2842              	.L212:
 642:C:/Users/²Ü¼ÒºÀ/.iotlink/sdk/IoT_LINK/iot_link/network/lwm2m/wakaama_lwm2m/wakaama-master/core\data.c **** #endif
 643:C:/Users/²Ü¼ÒºÀ/.iotlink/sdk/IoT_LINK/iot_link/network/lwm2m/wakaama_lwm2m/wakaama-master/core\data.c ****         }
 644:C:/Users/²Ü¼ÒºÀ/.iotlink/sdk/IoT_LINK/iot_link/network/lwm2m/wakaama_lwm2m/wakaama-master/core\data.c ****     }
 645:C:/Users/²Ü¼ÒºÀ/.iotlink/sdk/IoT_LINK/iot_link/network/lwm2m/wakaama_lwm2m/wakaama-master/core\data.c **** 
 646:C:/Users/²Ü¼ÒºÀ/.iotlink/sdk/IoT_LINK/iot_link/network/lwm2m/wakaama_lwm2m/wakaama-master/core\data.c ****     if (*formatP == LWM2M_CONTENT_OPAQUE
 2843              		.loc 1 646 5 is_stmt 1 view .LVU641
 647:C:/Users/²Ü¼ÒºÀ/.iotlink/sdk/IoT_LINK/iot_link/network/lwm2m/wakaama_lwm2m/wakaama-master/core\data.c ****             && dataP->type != LWM2M_TYPE_OPAQUE)
 648:C:/Users/²Ü¼ÒºÀ/.iotlink/sdk/IoT_LINK/iot_link/network/lwm2m/wakaama_lwm2m/wakaama-master/core\data.c ****     {
 649:C:/Users/²Ü¼ÒºÀ/.iotlink/sdk/IoT_LINK/iot_link/network/lwm2m/wakaama_lwm2m/wakaama-master/core\data.c ****         LOG("Opaque format is reserved to opaque resources.");
 650:C:/Users/²Ü¼ÒºÀ/.iotlink/sdk/IoT_LINK/iot_link/network/lwm2m/wakaama_lwm2m/wakaama-master/core\data.c ****         return -1;
 651:C:/Users/²Ü¼ÒºÀ/.iotlink/sdk/IoT_LINK/iot_link/network/lwm2m/wakaama_lwm2m/wakaama-master/core\data.c ****     }
 652:C:/Users/²Ü¼ÒºÀ/.iotlink/sdk/IoT_LINK/iot_link/network/lwm2m/wakaama_lwm2m/wakaama-master/core\data.c **** 
 653:C:/Users/²Ü¼ÒºÀ/.iotlink/sdk/IoT_LINK/iot_link/network/lwm2m/wakaama_lwm2m/wakaama-master/core\data.c ****     if (dm_isUriOpaqueHandle(uriP))
 2844              		.loc 1 653 5 view .LVU642
 2845              	.LVL257:
 2846              		.file 2 "C:/Users/\262\334\274\322\272\300/.iotlink/sdk/IoT_LINK/iot_link/network/lwm2m/wakaama_lw
   1:C:/Users/²Ü¼ÒºÀ/.iotlink/sdk/IoT_LINK/iot_link/network/lwm2m/wakaama_lwm2m/wakaama-master/core\internals.h **** /*----------------------------------------------------------------------------
   2:C:/Users/²Ü¼ÒºÀ/.iotlink/sdk/IoT_LINK/iot_link/network/lwm2m/wakaama_lwm2m/wakaama-master/core\internals.h ****  * Copyright (c) <2016-2018>, <Huawei Technologies Co., Ltd>
   3:C:/Users/²Ü¼ÒºÀ/.iotlink/sdk/IoT_LINK/iot_link/network/lwm2m/wakaama_lwm2m/wakaama-master/core\internals.h ****  * All rights reserved.
   4:C:/Users/²Ü¼ÒºÀ/.iotlink/sdk/IoT_LINK/iot_link/network/lwm2m/wakaama_lwm2m/wakaama-master/core\internals.h ****  * Redistribution and use in source and binary forms, with or without modification,
   5:C:/Users/²Ü¼ÒºÀ/.iotlink/sdk/IoT_LINK/iot_link/network/lwm2m/wakaama_lwm2m/wakaama-master/core\internals.h ****  * are permitted provided that the following conditions are met:
   6:C:/Users/²Ü¼ÒºÀ/.iotlink/sdk/IoT_LINK/iot_link/network/lwm2m/wakaama_lwm2m/wakaama-master/core\internals.h ****  * 1. Redistributions of source code must retain the above copyright notice, this list of
   7:C:/Users/²Ü¼ÒºÀ/.iotlink/sdk/IoT_LINK/iot_link/network/lwm2m/wakaama_lwm2m/wakaama-master/core\internals.h ****  * conditions and the following disclaimer.
   8:C:/Users/²Ü¼ÒºÀ/.iotlink/sdk/IoT_LINK/iot_link/network/lwm2m/wakaama_lwm2m/wakaama-master/core\internals.h ****  * 2. Redistributions in binary form must reproduce the above copyright notice, this list
   9:C:/Users/²Ü¼ÒºÀ/.iotlink/sdk/IoT_LINK/iot_link/network/lwm2m/wakaama_lwm2m/wakaama-master/core\internals.h ****  * of conditions and the following disclaimer in the documentation and/or other materials
  10:C:/Users/²Ü¼ÒºÀ/.iotlink/sdk/IoT_LINK/iot_link/network/lwm2m/wakaama_lwm2m/wakaama-master/core\internals.h ****  * provided with the distribution.
  11:C:/Users/²Ü¼ÒºÀ/.iotlink/sdk/IoT_LINK/iot_link/network/lwm2m/wakaama_lwm2m/wakaama-master/core\internals.h ****  * 3. Neither the name of the copyright holder nor the names of its contributors may be used
  12:C:/Users/²Ü¼ÒºÀ/.iotlink/sdk/IoT_LINK/iot_link/network/lwm2m/wakaama_lwm2m/wakaama-master/core\internals.h ****  * to endorse or promote products derived from this software without specific prior written
  13:C:/Users/²Ü¼ÒºÀ/.iotlink/sdk/IoT_LINK/iot_link/network/lwm2m/wakaama_lwm2m/wakaama-master/core\internals.h ****  * permission.
  14:C:/Users/²Ü¼ÒºÀ/.iotlink/sdk/IoT_LINK/iot_link/network/lwm2m/wakaama_lwm2m/wakaama-master/core\internals.h ****  * THIS SOFTWARE IS PROVIDED BY THE COPYRIGHT HOLDERS AND CONTRIBUTORS
  15:C:/Users/²Ü¼ÒºÀ/.iotlink/sdk/IoT_LINK/iot_link/network/lwm2m/wakaama_lwm2m/wakaama-master/core\internals.h ****  * "AS IS" AND ANY EXPRESS OR IMPLIED WARRANTIES, INCLUDING, BUT NOT LIMITED TO,
  16:C:/Users/²Ü¼ÒºÀ/.iotlink/sdk/IoT_LINK/iot_link/network/lwm2m/wakaama_lwm2m/wakaama-master/core\internals.h ****  * THE IMPLIED WARRANTIES OF MERCHANTABILITY AND FITNESS FOR A PARTICULAR
  17:C:/Users/²Ü¼ÒºÀ/.iotlink/sdk/IoT_LINK/iot_link/network/lwm2m/wakaama_lwm2m/wakaama-master/core\internals.h ****  * PURPOSE ARE DISCLAIMED. IN NO EVENT SHALL THE COPYRIGHT HOLDER OR
  18:C:/Users/²Ü¼ÒºÀ/.iotlink/sdk/IoT_LINK/iot_link/network/lwm2m/wakaama_lwm2m/wakaama-master/core\internals.h ****  * CONTRIBUTORS BE LIABLE FOR ANY DIRECT, INDIRECT, INCIDENTAL, SPECIAL,
  19:C:/Users/²Ü¼ÒºÀ/.iotlink/sdk/IoT_LINK/iot_link/network/lwm2m/wakaama_lwm2m/wakaama-master/core\internals.h ****  * EXEMPLARY, OR CONSEQUENTIAL DAMAGES (INCLUDING, BUT NOT LIMITED TO,
  20:C:/Users/²Ü¼ÒºÀ/.iotlink/sdk/IoT_LINK/iot_link/network/lwm2m/wakaama_lwm2m/wakaama-master/core\internals.h ****  * PROCUREMENT OF SUBSTITUTE GOODS OR SERVICES; LOSS OF USE, DATA, OR PROFITS;
  21:C:/Users/²Ü¼ÒºÀ/.iotlink/sdk/IoT_LINK/iot_link/network/lwm2m/wakaama_lwm2m/wakaama-master/core\internals.h ****  * OR BUSINESS INTERRUPTION) HOWEVER CAUSED AND ON ANY THEORY OF LIABILITY,
  22:C:/Users/²Ü¼ÒºÀ/.iotlink/sdk/IoT_LINK/iot_link/network/lwm2m/wakaama_lwm2m/wakaama-master/core\internals.h ****  * WHETHER IN CONTRACT, STRICT LIABILITY, OR TORT (INCLUDING NEGLIGENCE OR
  23:C:/Users/²Ü¼ÒºÀ/.iotlink/sdk/IoT_LINK/iot_link/network/lwm2m/wakaama_lwm2m/wakaama-master/core\internals.h ****  * OTHERWISE) ARISING IN ANY WAY OUT OF THE USE OF THIS SOFTWARE, EVEN IF
  24:C:/Users/²Ü¼ÒºÀ/.iotlink/sdk/IoT_LINK/iot_link/network/lwm2m/wakaama_lwm2m/wakaama-master/core\internals.h ****  * ADVISED OF THE POSSIBILITY OF SUCH DAMAGE.
  25:C:/Users/²Ü¼ÒºÀ/.iotlink/sdk/IoT_LINK/iot_link/network/lwm2m/wakaama_lwm2m/wakaama-master/core\internals.h ****  *---------------------------------------------------------------------------*/
ARM GAS  C:\Users\²Ü¼ÒºÀ\AppData\Local\Temp\cc2xoMwd.s 			page 68


  26:C:/Users/²Ü¼ÒºÀ/.iotlink/sdk/IoT_LINK/iot_link/network/lwm2m/wakaama_lwm2m/wakaama-master/core\internals.h **** /*----------------------------------------------------------------------------
  27:C:/Users/²Ü¼ÒºÀ/.iotlink/sdk/IoT_LINK/iot_link/network/lwm2m/wakaama_lwm2m/wakaama-master/core\internals.h ****  * Notice of Export Control Law
  28:C:/Users/²Ü¼ÒºÀ/.iotlink/sdk/IoT_LINK/iot_link/network/lwm2m/wakaama_lwm2m/wakaama-master/core\internals.h ****  * ===============================================
  29:C:/Users/²Ü¼ÒºÀ/.iotlink/sdk/IoT_LINK/iot_link/network/lwm2m/wakaama_lwm2m/wakaama-master/core\internals.h ****  * Huawei LiteOS may be subject to applicable export control laws and regulations, which might
  30:C:/Users/²Ü¼ÒºÀ/.iotlink/sdk/IoT_LINK/iot_link/network/lwm2m/wakaama_lwm2m/wakaama-master/core\internals.h ****  * include those applicable to Huawei LiteOS of U.S. and the country in which you are located.
  31:C:/Users/²Ü¼ÒºÀ/.iotlink/sdk/IoT_LINK/iot_link/network/lwm2m/wakaama_lwm2m/wakaama-master/core\internals.h ****  * Import, export and usage of Huawei LiteOS in any manner by you shall be in compliance with such
  32:C:/Users/²Ü¼ÒºÀ/.iotlink/sdk/IoT_LINK/iot_link/network/lwm2m/wakaama_lwm2m/wakaama-master/core\internals.h ****  * applicable export control laws and regulations.
  33:C:/Users/²Ü¼ÒºÀ/.iotlink/sdk/IoT_LINK/iot_link/network/lwm2m/wakaama_lwm2m/wakaama-master/core\internals.h ****  *---------------------------------------------------------------------------*/
  34:C:/Users/²Ü¼ÒºÀ/.iotlink/sdk/IoT_LINK/iot_link/network/lwm2m/wakaama_lwm2m/wakaama-master/core\internals.h **** 
  35:C:/Users/²Ü¼ÒºÀ/.iotlink/sdk/IoT_LINK/iot_link/network/lwm2m/wakaama_lwm2m/wakaama-master/core\internals.h **** /*******************************************************************************
  36:C:/Users/²Ü¼ÒºÀ/.iotlink/sdk/IoT_LINK/iot_link/network/lwm2m/wakaama_lwm2m/wakaama-master/core\internals.h ****  *
  37:C:/Users/²Ü¼ÒºÀ/.iotlink/sdk/IoT_LINK/iot_link/network/lwm2m/wakaama_lwm2m/wakaama-master/core\internals.h ****  * Copyright (c) 2013, 2014 Intel Corporation and others.
  38:C:/Users/²Ü¼ÒºÀ/.iotlink/sdk/IoT_LINK/iot_link/network/lwm2m/wakaama_lwm2m/wakaama-master/core\internals.h ****  * All rights reserved. This program and the accompanying materials
  39:C:/Users/²Ü¼ÒºÀ/.iotlink/sdk/IoT_LINK/iot_link/network/lwm2m/wakaama_lwm2m/wakaama-master/core\internals.h ****  * are made available under the terms of the Eclipse Public License v1.0
  40:C:/Users/²Ü¼ÒºÀ/.iotlink/sdk/IoT_LINK/iot_link/network/lwm2m/wakaama_lwm2m/wakaama-master/core\internals.h ****  * and Eclipse Distribution License v1.0 which accompany this distribution.
  41:C:/Users/²Ü¼ÒºÀ/.iotlink/sdk/IoT_LINK/iot_link/network/lwm2m/wakaama_lwm2m/wakaama-master/core\internals.h ****  *
  42:C:/Users/²Ü¼ÒºÀ/.iotlink/sdk/IoT_LINK/iot_link/network/lwm2m/wakaama_lwm2m/wakaama-master/core\internals.h ****  * The Eclipse Public License is available at
  43:C:/Users/²Ü¼ÒºÀ/.iotlink/sdk/IoT_LINK/iot_link/network/lwm2m/wakaama_lwm2m/wakaama-master/core\internals.h ****  *    http://www.eclipse.org/legal/epl-v10.html
  44:C:/Users/²Ü¼ÒºÀ/.iotlink/sdk/IoT_LINK/iot_link/network/lwm2m/wakaama_lwm2m/wakaama-master/core\internals.h ****  * The Eclipse Distribution License is available at
  45:C:/Users/²Ü¼ÒºÀ/.iotlink/sdk/IoT_LINK/iot_link/network/lwm2m/wakaama_lwm2m/wakaama-master/core\internals.h ****  *    http://www.eclipse.org/org/documents/edl-v10.php.
  46:C:/Users/²Ü¼ÒºÀ/.iotlink/sdk/IoT_LINK/iot_link/network/lwm2m/wakaama_lwm2m/wakaama-master/core\internals.h ****  *
  47:C:/Users/²Ü¼ÒºÀ/.iotlink/sdk/IoT_LINK/iot_link/network/lwm2m/wakaama_lwm2m/wakaama-master/core\internals.h ****  * Contributors:
  48:C:/Users/²Ü¼ÒºÀ/.iotlink/sdk/IoT_LINK/iot_link/network/lwm2m/wakaama_lwm2m/wakaama-master/core\internals.h ****  *    David Navarro, Intel Corporation - initial API and implementation
  49:C:/Users/²Ü¼ÒºÀ/.iotlink/sdk/IoT_LINK/iot_link/network/lwm2m/wakaama_lwm2m/wakaama-master/core\internals.h ****  *    Fabien Fleutot - Please refer to git log
  50:C:/Users/²Ü¼ÒºÀ/.iotlink/sdk/IoT_LINK/iot_link/network/lwm2m/wakaama_lwm2m/wakaama-master/core\internals.h ****  *    Toby Jaffey - Please refer to git log
  51:C:/Users/²Ü¼ÒºÀ/.iotlink/sdk/IoT_LINK/iot_link/network/lwm2m/wakaama_lwm2m/wakaama-master/core\internals.h ****  *    Bosch Software Innovations GmbH - Please refer to git log
  52:C:/Users/²Ü¼ÒºÀ/.iotlink/sdk/IoT_LINK/iot_link/network/lwm2m/wakaama_lwm2m/wakaama-master/core\internals.h ****  *    Pascal Rieux - Please refer to git log
  53:C:/Users/²Ü¼ÒºÀ/.iotlink/sdk/IoT_LINK/iot_link/network/lwm2m/wakaama_lwm2m/wakaama-master/core\internals.h ****  *    Scott Bertin - Please refer to git log
  54:C:/Users/²Ü¼ÒºÀ/.iotlink/sdk/IoT_LINK/iot_link/network/lwm2m/wakaama_lwm2m/wakaama-master/core\internals.h ****  *
  55:C:/Users/²Ü¼ÒºÀ/.iotlink/sdk/IoT_LINK/iot_link/network/lwm2m/wakaama_lwm2m/wakaama-master/core\internals.h ****  *******************************************************************************/
  56:C:/Users/²Ü¼ÒºÀ/.iotlink/sdk/IoT_LINK/iot_link/network/lwm2m/wakaama_lwm2m/wakaama-master/core\internals.h **** /*
  57:C:/Users/²Ü¼ÒºÀ/.iotlink/sdk/IoT_LINK/iot_link/network/lwm2m/wakaama_lwm2m/wakaama-master/core\internals.h ****  Copyright (c) 2013, 2014 Intel Corporation
  58:C:/Users/²Ü¼ÒºÀ/.iotlink/sdk/IoT_LINK/iot_link/network/lwm2m/wakaama_lwm2m/wakaama-master/core\internals.h **** 
  59:C:/Users/²Ü¼ÒºÀ/.iotlink/sdk/IoT_LINK/iot_link/network/lwm2m/wakaama_lwm2m/wakaama-master/core\internals.h ****  Redistribution and use in source and binary forms, with or without modification,
  60:C:/Users/²Ü¼ÒºÀ/.iotlink/sdk/IoT_LINK/iot_link/network/lwm2m/wakaama_lwm2m/wakaama-master/core\internals.h ****  are permitted provided that the following conditions are met:
  61:C:/Users/²Ü¼ÒºÀ/.iotlink/sdk/IoT_LINK/iot_link/network/lwm2m/wakaama_lwm2m/wakaama-master/core\internals.h **** 
  62:C:/Users/²Ü¼ÒºÀ/.iotlink/sdk/IoT_LINK/iot_link/network/lwm2m/wakaama_lwm2m/wakaama-master/core\internals.h ****      * Redistributions of source code must retain the above copyright notice,
  63:C:/Users/²Ü¼ÒºÀ/.iotlink/sdk/IoT_LINK/iot_link/network/lwm2m/wakaama_lwm2m/wakaama-master/core\internals.h ****        this list of conditions and the following disclaimer.
  64:C:/Users/²Ü¼ÒºÀ/.iotlink/sdk/IoT_LINK/iot_link/network/lwm2m/wakaama_lwm2m/wakaama-master/core\internals.h ****      * Redistributions in binary form must reproduce the above copyright notice,
  65:C:/Users/²Ü¼ÒºÀ/.iotlink/sdk/IoT_LINK/iot_link/network/lwm2m/wakaama_lwm2m/wakaama-master/core\internals.h ****        this list of conditions and the following disclaimer in the documentation
  66:C:/Users/²Ü¼ÒºÀ/.iotlink/sdk/IoT_LINK/iot_link/network/lwm2m/wakaama_lwm2m/wakaama-master/core\internals.h ****        and/or other materials provided with the distribution.
  67:C:/Users/²Ü¼ÒºÀ/.iotlink/sdk/IoT_LINK/iot_link/network/lwm2m/wakaama_lwm2m/wakaama-master/core\internals.h ****      * Neither the name of Intel Corporation nor the names of its contributors
  68:C:/Users/²Ü¼ÒºÀ/.iotlink/sdk/IoT_LINK/iot_link/network/lwm2m/wakaama_lwm2m/wakaama-master/core\internals.h ****        may be used to endorse or promote products derived from this software
  69:C:/Users/²Ü¼ÒºÀ/.iotlink/sdk/IoT_LINK/iot_link/network/lwm2m/wakaama_lwm2m/wakaama-master/core\internals.h ****        without specific prior written permission.
  70:C:/Users/²Ü¼ÒºÀ/.iotlink/sdk/IoT_LINK/iot_link/network/lwm2m/wakaama_lwm2m/wakaama-master/core\internals.h **** 
  71:C:/Users/²Ü¼ÒºÀ/.iotlink/sdk/IoT_LINK/iot_link/network/lwm2m/wakaama_lwm2m/wakaama-master/core\internals.h ****  THIS SOFTWARE IS PROVIDED BY THE COPYRIGHT HOLDERS AND CONTRIBUTORS "AS IS" AND
  72:C:/Users/²Ü¼ÒºÀ/.iotlink/sdk/IoT_LINK/iot_link/network/lwm2m/wakaama_lwm2m/wakaama-master/core\internals.h ****  ANY EXPRESS OR IMPLIED WARRANTIES, INCLUDING, BUT NOT LIMITED TO, THE IMPLIED
  73:C:/Users/²Ü¼ÒºÀ/.iotlink/sdk/IoT_LINK/iot_link/network/lwm2m/wakaama_lwm2m/wakaama-master/core\internals.h ****  WARRANTIES OF MERCHANTABILITY AND FITNESS FOR A PARTICULAR PURPOSE ARE DISCLAIMED.
  74:C:/Users/²Ü¼ÒºÀ/.iotlink/sdk/IoT_LINK/iot_link/network/lwm2m/wakaama_lwm2m/wakaama-master/core\internals.h ****  IN NO EVENT SHALL THE COPYRIGHT OWNER OR CONTRIBUTORS BE LIABLE FOR ANY DIRECT,
  75:C:/Users/²Ü¼ÒºÀ/.iotlink/sdk/IoT_LINK/iot_link/network/lwm2m/wakaama_lwm2m/wakaama-master/core\internals.h ****  INDIRECT, INCIDENTAL, SPECIAL, EXEMPLARY, OR CONSEQUENTIAL DAMAGES (INCLUDING,
  76:C:/Users/²Ü¼ÒºÀ/.iotlink/sdk/IoT_LINK/iot_link/network/lwm2m/wakaama_lwm2m/wakaama-master/core\internals.h ****  BUT NOT LIMITED TO, PROCUREMENT OF SUBSTITUTE GOODS OR SERVICES; LOSS OF USE,
  77:C:/Users/²Ü¼ÒºÀ/.iotlink/sdk/IoT_LINK/iot_link/network/lwm2m/wakaama_lwm2m/wakaama-master/core\internals.h ****  DATA, OR PROFITS; OR BUSINESS INTERRUPTION) HOWEVER CAUSED AND ON ANY THEORY OF
  78:C:/Users/²Ü¼ÒºÀ/.iotlink/sdk/IoT_LINK/iot_link/network/lwm2m/wakaama_lwm2m/wakaama-master/core\internals.h ****  LIABILITY, WHETHER IN CONTRACT, STRICT LIABILITY, OR TORT (INCLUDING NEGLIGENCE OR
  79:C:/Users/²Ü¼ÒºÀ/.iotlink/sdk/IoT_LINK/iot_link/network/lwm2m/wakaama_lwm2m/wakaama-master/core\internals.h ****  OTHERWISE) ARISING IN ANY WAY OUT OF THE USE OF THIS SOFTWARE, EVEN IF ADVISED OF
  80:C:/Users/²Ü¼ÒºÀ/.iotlink/sdk/IoT_LINK/iot_link/network/lwm2m/wakaama_lwm2m/wakaama-master/core\internals.h ****  THE POSSIBILITY OF SUCH DAMAGE.
  81:C:/Users/²Ü¼ÒºÀ/.iotlink/sdk/IoT_LINK/iot_link/network/lwm2m/wakaama_lwm2m/wakaama-master/core\internals.h **** 
  82:C:/Users/²Ü¼ÒºÀ/.iotlink/sdk/IoT_LINK/iot_link/network/lwm2m/wakaama_lwm2m/wakaama-master/core\internals.h ****  David Navarro <david.navarro@intel.com>
ARM GAS  C:\Users\²Ü¼ÒºÀ\AppData\Local\Temp\cc2xoMwd.s 			page 69


  83:C:/Users/²Ü¼ÒºÀ/.iotlink/sdk/IoT_LINK/iot_link/network/lwm2m/wakaama_lwm2m/wakaama-master/core\internals.h **** 
  84:C:/Users/²Ü¼ÒºÀ/.iotlink/sdk/IoT_LINK/iot_link/network/lwm2m/wakaama_lwm2m/wakaama-master/core\internals.h **** */
  85:C:/Users/²Ü¼ÒºÀ/.iotlink/sdk/IoT_LINK/iot_link/network/lwm2m/wakaama_lwm2m/wakaama-master/core\internals.h **** 
  86:C:/Users/²Ü¼ÒºÀ/.iotlink/sdk/IoT_LINK/iot_link/network/lwm2m/wakaama_lwm2m/wakaama-master/core\internals.h **** #ifndef _LWM2M_INTERNALS_H_
  87:C:/Users/²Ü¼ÒºÀ/.iotlink/sdk/IoT_LINK/iot_link/network/lwm2m/wakaama_lwm2m/wakaama-master/core\internals.h **** #define _LWM2M_INTERNALS_H_
  88:C:/Users/²Ü¼ÒºÀ/.iotlink/sdk/IoT_LINK/iot_link/network/lwm2m/wakaama_lwm2m/wakaama-master/core\internals.h **** 
  89:C:/Users/²Ü¼ÒºÀ/.iotlink/sdk/IoT_LINK/iot_link/network/lwm2m/wakaama_lwm2m/wakaama-master/core\internals.h **** #include "liblwm2m.h"
  90:C:/Users/²Ü¼ÒºÀ/.iotlink/sdk/IoT_LINK/iot_link/network/lwm2m/wakaama_lwm2m/wakaama-master/core\internals.h **** 
  91:C:/Users/²Ü¼ÒºÀ/.iotlink/sdk/IoT_LINK/iot_link/network/lwm2m/wakaama_lwm2m/wakaama-master/core\internals.h **** #include <stdlib.h>
  92:C:/Users/²Ü¼ÒºÀ/.iotlink/sdk/IoT_LINK/iot_link/network/lwm2m/wakaama_lwm2m/wakaama-master/core\internals.h **** #include <string.h>
  93:C:/Users/²Ü¼ÒºÀ/.iotlink/sdk/IoT_LINK/iot_link/network/lwm2m/wakaama_lwm2m/wakaama-master/core\internals.h **** #include <stdio.h>
  94:C:/Users/²Ü¼ÒºÀ/.iotlink/sdk/IoT_LINK/iot_link/network/lwm2m/wakaama_lwm2m/wakaama-master/core\internals.h **** #include <ctype.h>
  95:C:/Users/²Ü¼ÒºÀ/.iotlink/sdk/IoT_LINK/iot_link/network/lwm2m/wakaama_lwm2m/wakaama-master/core\internals.h **** #include <stdint.h>
  96:C:/Users/²Ü¼ÒºÀ/.iotlink/sdk/IoT_LINK/iot_link/network/lwm2m/wakaama_lwm2m/wakaama-master/core\internals.h **** #include <stddef.h>
  97:C:/Users/²Ü¼ÒºÀ/.iotlink/sdk/IoT_LINK/iot_link/network/lwm2m/wakaama_lwm2m/wakaama-master/core\internals.h **** #include <stdbool.h>
  98:C:/Users/²Ü¼ÒºÀ/.iotlink/sdk/IoT_LINK/iot_link/network/lwm2m/wakaama_lwm2m/wakaama-master/core\internals.h **** 
  99:C:/Users/²Ü¼ÒºÀ/.iotlink/sdk/IoT_LINK/iot_link/network/lwm2m/wakaama_lwm2m/wakaama-master/core\internals.h **** #include "er-coap-13/er-coap-13.h"
 100:C:/Users/²Ü¼ÒºÀ/.iotlink/sdk/IoT_LINK/iot_link/network/lwm2m/wakaama_lwm2m/wakaama-master/core\internals.h **** #include "connection.h"
 101:C:/Users/²Ü¼ÒºÀ/.iotlink/sdk/IoT_LINK/iot_link/network/lwm2m/wakaama_lwm2m/wakaama-master/core\internals.h **** 
 102:C:/Users/²Ü¼ÒºÀ/.iotlink/sdk/IoT_LINK/iot_link/network/lwm2m/wakaama_lwm2m/wakaama-master/core\internals.h **** 
 103:C:/Users/²Ü¼ÒºÀ/.iotlink/sdk/IoT_LINK/iot_link/network/lwm2m/wakaama_lwm2m/wakaama-master/core\internals.h **** #ifdef LWM2M_WITH_LOGS
 104:C:/Users/²Ü¼ÒºÀ/.iotlink/sdk/IoT_LINK/iot_link/network/lwm2m/wakaama_lwm2m/wakaama-master/core\internals.h **** #include <inttypes.h>
 105:C:/Users/²Ü¼ÒºÀ/.iotlink/sdk/IoT_LINK/iot_link/network/lwm2m/wakaama_lwm2m/wakaama-master/core\internals.h **** #define LOG(STR)    lwm2m_printf("[%d][%s:%d] " STR "\r\n", (int)lwm2m_gettime(), __func__ , __LINE
 106:C:/Users/²Ü¼ÒºÀ/.iotlink/sdk/IoT_LINK/iot_link/network/lwm2m/wakaama_lwm2m/wakaama-master/core\internals.h **** #define LOG_ARG(FMT, ...) lwm2m_printf("[%d][%s:%d] " FMT "\r\n", (int)lwm2m_gettime(), __func__ , 
 107:C:/Users/²Ü¼ÒºÀ/.iotlink/sdk/IoT_LINK/iot_link/network/lwm2m/wakaama_lwm2m/wakaama-master/core\internals.h **** #define LOG_URI(URI)                                                                \
 108:C:/Users/²Ü¼ÒºÀ/.iotlink/sdk/IoT_LINK/iot_link/network/lwm2m/wakaama_lwm2m/wakaama-master/core\internals.h **** {                                                                                   \
 109:C:/Users/²Ü¼ÒºÀ/.iotlink/sdk/IoT_LINK/iot_link/network/lwm2m/wakaama_lwm2m/wakaama-master/core\internals.h ****     if ((URI) == NULL) lwm2m_printf("[%s:%d] NULL\r\n", __func__ , __LINE__);     \
 110:C:/Users/²Ü¼ÒºÀ/.iotlink/sdk/IoT_LINK/iot_link/network/lwm2m/wakaama_lwm2m/wakaama-master/core\internals.h ****     else                                                                            \
 111:C:/Users/²Ü¼ÒºÀ/.iotlink/sdk/IoT_LINK/iot_link/network/lwm2m/wakaama_lwm2m/wakaama-master/core\internals.h ****     {                                                                               \
 112:C:/Users/²Ü¼ÒºÀ/.iotlink/sdk/IoT_LINK/iot_link/network/lwm2m/wakaama_lwm2m/wakaama-master/core\internals.h ****         lwm2m_printf("[%s:%d] /%d", __func__ , __LINE__ , (int)(URI)->objectId);       \
 113:C:/Users/²Ü¼ÒºÀ/.iotlink/sdk/IoT_LINK/iot_link/network/lwm2m/wakaama_lwm2m/wakaama-master/core\internals.h ****         if (LWM2M_URI_IS_SET_INSTANCE(URI)) lwm2m_printf("/%d",(int)(URI)->instanceId); \
 114:C:/Users/²Ü¼ÒºÀ/.iotlink/sdk/IoT_LINK/iot_link/network/lwm2m/wakaama_lwm2m/wakaama-master/core\internals.h ****         if (LWM2M_URI_IS_SET_RESOURCE(URI)) lwm2m_printf("/%d", (int)(URI)->resourceId); \
 115:C:/Users/²Ü¼ÒºÀ/.iotlink/sdk/IoT_LINK/iot_link/network/lwm2m/wakaama_lwm2m/wakaama-master/core\internals.h ****           lwm2m_printf("\r\n");                                                       \
 116:C:/Users/²Ü¼ÒºÀ/.iotlink/sdk/IoT_LINK/iot_link/network/lwm2m/wakaama_lwm2m/wakaama-master/core\internals.h ****     }                                                                               \
 117:C:/Users/²Ü¼ÒºÀ/.iotlink/sdk/IoT_LINK/iot_link/network/lwm2m/wakaama_lwm2m/wakaama-master/core\internals.h **** }
 118:C:/Users/²Ü¼ÒºÀ/.iotlink/sdk/IoT_LINK/iot_link/network/lwm2m/wakaama_lwm2m/wakaama-master/core\internals.h **** #define UNUSEX(x)
 119:C:/Users/²Ü¼ÒºÀ/.iotlink/sdk/IoT_LINK/iot_link/network/lwm2m/wakaama_lwm2m/wakaama-master/core\internals.h **** #define STR_STATUS(S)                                           \
 120:C:/Users/²Ü¼ÒºÀ/.iotlink/sdk/IoT_LINK/iot_link/network/lwm2m/wakaama_lwm2m/wakaama-master/core\internals.h **** ((S) == STATE_DEREGISTERED ? "STATE_DEREGISTERED" :             \
 121:C:/Users/²Ü¼ÒºÀ/.iotlink/sdk/IoT_LINK/iot_link/network/lwm2m/wakaama_lwm2m/wakaama-master/core\internals.h **** ((S) == STATE_REG_PENDING ? "STATE_REG_PENDING" :               \
 122:C:/Users/²Ü¼ÒºÀ/.iotlink/sdk/IoT_LINK/iot_link/network/lwm2m/wakaama_lwm2m/wakaama-master/core\internals.h **** ((S) == STATE_REGISTERED ? "STATE_REGISTERED" :                 \
 123:C:/Users/²Ü¼ÒºÀ/.iotlink/sdk/IoT_LINK/iot_link/network/lwm2m/wakaama_lwm2m/wakaama-master/core\internals.h **** ((S) == STATE_REG_FAILED ? "STATE_REG_FAILED" :                 \
 124:C:/Users/²Ü¼ÒºÀ/.iotlink/sdk/IoT_LINK/iot_link/network/lwm2m/wakaama_lwm2m/wakaama-master/core\internals.h **** ((S) == STATE_REG_UPDATE_PENDING ? "STATE_REG_UPDATE_PENDING" : \
 125:C:/Users/²Ü¼ÒºÀ/.iotlink/sdk/IoT_LINK/iot_link/network/lwm2m/wakaama_lwm2m/wakaama-master/core\internals.h **** ((S) == STATE_REG_UPDATE_NEEDED ? "STATE_REG_UPDATE_NEEDED" :   \
 126:C:/Users/²Ü¼ÒºÀ/.iotlink/sdk/IoT_LINK/iot_link/network/lwm2m/wakaama_lwm2m/wakaama-master/core\internals.h **** ((S) == STATE_REG_FULL_UPDATE_NEEDED ? "STATE_REG_FULL_UPDATE_NEEDED" :   \
 127:C:/Users/²Ü¼ÒºÀ/.iotlink/sdk/IoT_LINK/iot_link/network/lwm2m/wakaama_lwm2m/wakaama-master/core\internals.h **** ((S) == STATE_DEREG_PENDING ? "STATE_DEREG_PENDING" :           \
 128:C:/Users/²Ü¼ÒºÀ/.iotlink/sdk/IoT_LINK/iot_link/network/lwm2m/wakaama_lwm2m/wakaama-master/core\internals.h **** ((S) == STATE_BS_HOLD_OFF ? "STATE_BS_HOLD_OFF" :               \
 129:C:/Users/²Ü¼ÒºÀ/.iotlink/sdk/IoT_LINK/iot_link/network/lwm2m/wakaama_lwm2m/wakaama-master/core\internals.h **** ((S) == STATE_BS_INITIATED ? "STATE_BS_INITIATED" :             \
 130:C:/Users/²Ü¼ÒºÀ/.iotlink/sdk/IoT_LINK/iot_link/network/lwm2m/wakaama_lwm2m/wakaama-master/core\internals.h **** ((S) == STATE_BS_PENDING ? "STATE_BS_PENDING" :                 \
 131:C:/Users/²Ü¼ÒºÀ/.iotlink/sdk/IoT_LINK/iot_link/network/lwm2m/wakaama_lwm2m/wakaama-master/core\internals.h **** ((S) == STATE_BS_FINISHED ? "STATE_BS_FINISHED" :               \
 132:C:/Users/²Ü¼ÒºÀ/.iotlink/sdk/IoT_LINK/iot_link/network/lwm2m/wakaama_lwm2m/wakaama-master/core\internals.h **** ((S) == STATE_BS_FINISHING ? "STATE_BS_FINISHING" :             \
 133:C:/Users/²Ü¼ÒºÀ/.iotlink/sdk/IoT_LINK/iot_link/network/lwm2m/wakaama_lwm2m/wakaama-master/core\internals.h **** ((S) == STATE_BS_FAILING ? "STATE_BS_FAILING" :                 \
 134:C:/Users/²Ü¼ÒºÀ/.iotlink/sdk/IoT_LINK/iot_link/network/lwm2m/wakaama_lwm2m/wakaama-master/core\internals.h **** ((S) == STATE_BS_FAILED ? "STATE_BS_FAILED" :                   \
 135:C:/Users/²Ü¼ÒºÀ/.iotlink/sdk/IoT_LINK/iot_link/network/lwm2m/wakaama_lwm2m/wakaama-master/core\internals.h **** "Unknown")))))))))))))))
 136:C:/Users/²Ü¼ÒºÀ/.iotlink/sdk/IoT_LINK/iot_link/network/lwm2m/wakaama_lwm2m/wakaama-master/core\internals.h **** #define STR_MEDIA_TYPE(M)                                \
 137:C:/Users/²Ü¼ÒºÀ/.iotlink/sdk/IoT_LINK/iot_link/network/lwm2m/wakaama_lwm2m/wakaama-master/core\internals.h **** ((M) == LWM2M_CONTENT_TEXT ? "LWM2M_CONTENT_TEXT" :      \
 138:C:/Users/²Ü¼ÒºÀ/.iotlink/sdk/IoT_LINK/iot_link/network/lwm2m/wakaama_lwm2m/wakaama-master/core\internals.h **** ((M) == LWM2M_CONTENT_LINK ? "LWM2M_CONTENT_LINK" :      \
 139:C:/Users/²Ü¼ÒºÀ/.iotlink/sdk/IoT_LINK/iot_link/network/lwm2m/wakaama_lwm2m/wakaama-master/core\internals.h **** ((M) == LWM2M_CONTENT_OPAQUE ? "LWM2M_CONTENT_OPAQUE" :  \
ARM GAS  C:\Users\²Ü¼ÒºÀ\AppData\Local\Temp\cc2xoMwd.s 			page 70


 140:C:/Users/²Ü¼ÒºÀ/.iotlink/sdk/IoT_LINK/iot_link/network/lwm2m/wakaama_lwm2m/wakaama-master/core\internals.h **** ((M) == LWM2M_CONTENT_TLV ? "LWM2M_CONTENT_TLV" :        \
 141:C:/Users/²Ü¼ÒºÀ/.iotlink/sdk/IoT_LINK/iot_link/network/lwm2m/wakaama_lwm2m/wakaama-master/core\internals.h **** ((M) == LWM2M_CONTENT_JSON ? "LWM2M_CONTENT_JSON" :      \
 142:C:/Users/²Ü¼ÒºÀ/.iotlink/sdk/IoT_LINK/iot_link/network/lwm2m/wakaama_lwm2m/wakaama-master/core\internals.h **** "Unknown")))))
 143:C:/Users/²Ü¼ÒºÀ/.iotlink/sdk/IoT_LINK/iot_link/network/lwm2m/wakaama_lwm2m/wakaama-master/core\internals.h **** #define STR_STATE(S)                                \
 144:C:/Users/²Ü¼ÒºÀ/.iotlink/sdk/IoT_LINK/iot_link/network/lwm2m/wakaama_lwm2m/wakaama-master/core\internals.h **** ((S) == STATE_INITIAL ? "STATE_INITIAL" :      \
 145:C:/Users/²Ü¼ÒºÀ/.iotlink/sdk/IoT_LINK/iot_link/network/lwm2m/wakaama_lwm2m/wakaama-master/core\internals.h **** ((S) == STATE_BOOTSTRAP_REQUIRED ? "STATE_BOOTSTRAP_REQUIRED" :      \
 146:C:/Users/²Ü¼ÒºÀ/.iotlink/sdk/IoT_LINK/iot_link/network/lwm2m/wakaama_lwm2m/wakaama-master/core\internals.h **** ((S) == STATE_BOOTSTRAPPING ? "STATE_BOOTSTRAPPING" :  \
 147:C:/Users/²Ü¼ÒºÀ/.iotlink/sdk/IoT_LINK/iot_link/network/lwm2m/wakaama_lwm2m/wakaama-master/core\internals.h **** ((S) == STATE_REGISTER_REQUIRED ? "STATE_REGISTER_REQUIRED" :        \
 148:C:/Users/²Ü¼ÒºÀ/.iotlink/sdk/IoT_LINK/iot_link/network/lwm2m/wakaama_lwm2m/wakaama-master/core\internals.h **** ((S) == STATE_REGISTERING ? "STATE_REGISTERING" :      \
 149:C:/Users/²Ü¼ÒºÀ/.iotlink/sdk/IoT_LINK/iot_link/network/lwm2m/wakaama_lwm2m/wakaama-master/core\internals.h **** ((S) == STATE_READY ? "STATE_READY" :      \
 150:C:/Users/²Ü¼ÒºÀ/.iotlink/sdk/IoT_LINK/iot_link/network/lwm2m/wakaama_lwm2m/wakaama-master/core\internals.h **** "Unknown"))))))
 151:C:/Users/²Ü¼ÒºÀ/.iotlink/sdk/IoT_LINK/iot_link/network/lwm2m/wakaama_lwm2m/wakaama-master/core\internals.h **** #else
 152:C:/Users/²Ü¼ÒºÀ/.iotlink/sdk/IoT_LINK/iot_link/network/lwm2m/wakaama_lwm2m/wakaama-master/core\internals.h **** #define UNUSEX(x) (x)=(x)
 153:C:/Users/²Ü¼ÒºÀ/.iotlink/sdk/IoT_LINK/iot_link/network/lwm2m/wakaama_lwm2m/wakaama-master/core\internals.h **** #define LOG_ARG(FMT, ...)
 154:C:/Users/²Ü¼ÒºÀ/.iotlink/sdk/IoT_LINK/iot_link/network/lwm2m/wakaama_lwm2m/wakaama-master/core\internals.h **** #define LOG(STR)
 155:C:/Users/²Ü¼ÒºÀ/.iotlink/sdk/IoT_LINK/iot_link/network/lwm2m/wakaama_lwm2m/wakaama-master/core\internals.h **** #define LOG_URI(URI)
 156:C:/Users/²Ü¼ÒºÀ/.iotlink/sdk/IoT_LINK/iot_link/network/lwm2m/wakaama_lwm2m/wakaama-master/core\internals.h **** #endif
 157:C:/Users/²Ü¼ÒºÀ/.iotlink/sdk/IoT_LINK/iot_link/network/lwm2m/wakaama_lwm2m/wakaama-master/core\internals.h **** 
 158:C:/Users/²Ü¼ÒºÀ/.iotlink/sdk/IoT_LINK/iot_link/network/lwm2m/wakaama_lwm2m/wakaama-master/core\internals.h **** #define LWM2M_DEFAULT_LIFETIME  86400
 159:C:/Users/²Ü¼ÒºÀ/.iotlink/sdk/IoT_LINK/iot_link/network/lwm2m/wakaama_lwm2m/wakaama-master/core\internals.h **** 
 160:C:/Users/²Ü¼ÒºÀ/.iotlink/sdk/IoT_LINK/iot_link/network/lwm2m/wakaama_lwm2m/wakaama-master/core\internals.h **** #ifdef LWM2M_SUPPORT_JSON
 161:C:/Users/²Ü¼ÒºÀ/.iotlink/sdk/IoT_LINK/iot_link/network/lwm2m/wakaama_lwm2m/wakaama-master/core\internals.h **** #define REG_LWM2M_RESOURCE_TYPE     ">;rt=\"oma.lwm2m\";ct=11543,"
 162:C:/Users/²Ü¼ÒºÀ/.iotlink/sdk/IoT_LINK/iot_link/network/lwm2m/wakaama_lwm2m/wakaama-master/core\internals.h **** #define REG_LWM2M_RESOURCE_TYPE_LEN 25
 163:C:/Users/²Ü¼ÒºÀ/.iotlink/sdk/IoT_LINK/iot_link/network/lwm2m/wakaama_lwm2m/wakaama-master/core\internals.h **** #else
 164:C:/Users/²Ü¼ÒºÀ/.iotlink/sdk/IoT_LINK/iot_link/network/lwm2m/wakaama_lwm2m/wakaama-master/core\internals.h **** #define REG_LWM2M_RESOURCE_TYPE     ">;rt=\"oma.lwm2m\","
 165:C:/Users/²Ü¼ÒºÀ/.iotlink/sdk/IoT_LINK/iot_link/network/lwm2m/wakaama_lwm2m/wakaama-master/core\internals.h **** #define REG_LWM2M_RESOURCE_TYPE_LEN 17
 166:C:/Users/²Ü¼ÒºÀ/.iotlink/sdk/IoT_LINK/iot_link/network/lwm2m/wakaama_lwm2m/wakaama-master/core\internals.h **** #endif
 167:C:/Users/²Ü¼ÒºÀ/.iotlink/sdk/IoT_LINK/iot_link/network/lwm2m/wakaama_lwm2m/wakaama-master/core\internals.h **** #define REG_START           "<"
 168:C:/Users/²Ü¼ÒºÀ/.iotlink/sdk/IoT_LINK/iot_link/network/lwm2m/wakaama_lwm2m/wakaama-master/core\internals.h **** #define REG_DEFAULT_PATH    "/"
 169:C:/Users/²Ü¼ÒºÀ/.iotlink/sdk/IoT_LINK/iot_link/network/lwm2m/wakaama_lwm2m/wakaama-master/core\internals.h **** 
 170:C:/Users/²Ü¼ÒºÀ/.iotlink/sdk/IoT_LINK/iot_link/network/lwm2m/wakaama_lwm2m/wakaama-master/core\internals.h **** #define REG_OBJECT_MIN_LEN  5   // "</n>,"
 171:C:/Users/²Ü¼ÒºÀ/.iotlink/sdk/IoT_LINK/iot_link/network/lwm2m/wakaama_lwm2m/wakaama-master/core\internals.h **** #define REG_PATH_END        ">,"
 172:C:/Users/²Ü¼ÒºÀ/.iotlink/sdk/IoT_LINK/iot_link/network/lwm2m/wakaama_lwm2m/wakaama-master/core\internals.h **** #define REG_PATH_SEPARATOR  "/"
 173:C:/Users/²Ü¼ÒºÀ/.iotlink/sdk/IoT_LINK/iot_link/network/lwm2m/wakaama_lwm2m/wakaama-master/core\internals.h **** 
 174:C:/Users/²Ü¼ÒºÀ/.iotlink/sdk/IoT_LINK/iot_link/network/lwm2m/wakaama_lwm2m/wakaama-master/core\internals.h **** #define REG_OBJECT_PATH             "<%s/%hu>,"
 175:C:/Users/²Ü¼ÒºÀ/.iotlink/sdk/IoT_LINK/iot_link/network/lwm2m/wakaama_lwm2m/wakaama-master/core\internals.h **** #define REG_OBJECT_INSTANCE_PATH    "<%s/%hu/%hu>,"
 176:C:/Users/²Ü¼ÒºÀ/.iotlink/sdk/IoT_LINK/iot_link/network/lwm2m/wakaama_lwm2m/wakaama-master/core\internals.h **** 
 177:C:/Users/²Ü¼ÒºÀ/.iotlink/sdk/IoT_LINK/iot_link/network/lwm2m/wakaama_lwm2m/wakaama-master/core\internals.h **** #define URI_REGISTRATION_SEGMENT        "rd"
 178:C:/Users/²Ü¼ÒºÀ/.iotlink/sdk/IoT_LINK/iot_link/network/lwm2m/wakaama_lwm2m/wakaama-master/core\internals.h **** #define URI_REGISTRATION_SEGMENT_LEN    2
 179:C:/Users/²Ü¼ÒºÀ/.iotlink/sdk/IoT_LINK/iot_link/network/lwm2m/wakaama_lwm2m/wakaama-master/core\internals.h **** #define URI_BOOTSTRAP_SEGMENT           "bs"
 180:C:/Users/²Ü¼ÒºÀ/.iotlink/sdk/IoT_LINK/iot_link/network/lwm2m/wakaama_lwm2m/wakaama-master/core\internals.h **** #define URI_BOOTSTRAP_SEGMENT_LEN       2
 181:C:/Users/²Ü¼ÒºÀ/.iotlink/sdk/IoT_LINK/iot_link/network/lwm2m/wakaama_lwm2m/wakaama-master/core\internals.h **** 
 182:C:/Users/²Ü¼ÒºÀ/.iotlink/sdk/IoT_LINK/iot_link/network/lwm2m/wakaama_lwm2m/wakaama-master/core\internals.h **** #define QUERY_STARTER       "?"
 183:C:/Users/²Ü¼ÒºÀ/.iotlink/sdk/IoT_LINK/iot_link/network/lwm2m/wakaama_lwm2m/wakaama-master/core\internals.h **** #define QUERY_NAME          "ep="
 184:C:/Users/²Ü¼ÒºÀ/.iotlink/sdk/IoT_LINK/iot_link/network/lwm2m/wakaama_lwm2m/wakaama-master/core\internals.h **** #define QUERY_NAME_LEN      3       // strlen("ep=")
 185:C:/Users/²Ü¼ÒºÀ/.iotlink/sdk/IoT_LINK/iot_link/network/lwm2m/wakaama_lwm2m/wakaama-master/core\internals.h **** #define QUERY_SMS           "sms="
 186:C:/Users/²Ü¼ÒºÀ/.iotlink/sdk/IoT_LINK/iot_link/network/lwm2m/wakaama_lwm2m/wakaama-master/core\internals.h **** #define QUERY_SMS_LEN       4
 187:C:/Users/²Ü¼ÒºÀ/.iotlink/sdk/IoT_LINK/iot_link/network/lwm2m/wakaama_lwm2m/wakaama-master/core\internals.h **** #define QUERY_LIFETIME      "lt="
 188:C:/Users/²Ü¼ÒºÀ/.iotlink/sdk/IoT_LINK/iot_link/network/lwm2m/wakaama_lwm2m/wakaama-master/core\internals.h **** #define QUERY_LIFETIME_LEN  3
 189:C:/Users/²Ü¼ÒºÀ/.iotlink/sdk/IoT_LINK/iot_link/network/lwm2m/wakaama_lwm2m/wakaama-master/core\internals.h **** #define QUERY_VERSION       "lwm2m="
 190:C:/Users/²Ü¼ÒºÀ/.iotlink/sdk/IoT_LINK/iot_link/network/lwm2m/wakaama_lwm2m/wakaama-master/core\internals.h **** #define QUERY_VERSION_LEN   6
 191:C:/Users/²Ü¼ÒºÀ/.iotlink/sdk/IoT_LINK/iot_link/network/lwm2m/wakaama_lwm2m/wakaama-master/core\internals.h **** #define QUERY_BINDING       "b="
 192:C:/Users/²Ü¼ÒºÀ/.iotlink/sdk/IoT_LINK/iot_link/network/lwm2m/wakaama_lwm2m/wakaama-master/core\internals.h **** #define QUERY_BINDING_LEN   2
 193:C:/Users/²Ü¼ÒºÀ/.iotlink/sdk/IoT_LINK/iot_link/network/lwm2m/wakaama_lwm2m/wakaama-master/core\internals.h **** #define QUERY_DELIMITER     "&"
 194:C:/Users/²Ü¼ÒºÀ/.iotlink/sdk/IoT_LINK/iot_link/network/lwm2m/wakaama_lwm2m/wakaama-master/core\internals.h **** 
 195:C:/Users/²Ü¼ÒºÀ/.iotlink/sdk/IoT_LINK/iot_link/network/lwm2m/wakaama_lwm2m/wakaama-master/core\internals.h **** #define LWM2M_VERSION      "1.0"
 196:C:/Users/²Ü¼ÒºÀ/.iotlink/sdk/IoT_LINK/iot_link/network/lwm2m/wakaama_lwm2m/wakaama-master/core\internals.h **** #define LWM2M_VERSION_LEN  3
ARM GAS  C:\Users\²Ü¼ÒºÀ\AppData\Local\Temp\cc2xoMwd.s 			page 71


 197:C:/Users/²Ü¼ÒºÀ/.iotlink/sdk/IoT_LINK/iot_link/network/lwm2m/wakaama_lwm2m/wakaama-master/core\internals.h **** 
 198:C:/Users/²Ü¼ÒºÀ/.iotlink/sdk/IoT_LINK/iot_link/network/lwm2m/wakaama_lwm2m/wakaama-master/core\internals.h **** #define QUERY_VERSION_FULL      QUERY_VERSION LWM2M_VERSION
 199:C:/Users/²Ü¼ÒºÀ/.iotlink/sdk/IoT_LINK/iot_link/network/lwm2m/wakaama_lwm2m/wakaama-master/core\internals.h **** #define QUERY_VERSION_FULL_LEN  QUERY_VERSION_LEN+LWM2M_VERSION_LEN
 200:C:/Users/²Ü¼ÒºÀ/.iotlink/sdk/IoT_LINK/iot_link/network/lwm2m/wakaama_lwm2m/wakaama-master/core\internals.h **** 
 201:C:/Users/²Ü¼ÒºÀ/.iotlink/sdk/IoT_LINK/iot_link/network/lwm2m/wakaama_lwm2m/wakaama-master/core\internals.h **** #define REG_URI_START       '<'
 202:C:/Users/²Ü¼ÒºÀ/.iotlink/sdk/IoT_LINK/iot_link/network/lwm2m/wakaama_lwm2m/wakaama-master/core\internals.h **** #define REG_URI_END         '>'
 203:C:/Users/²Ü¼ÒºÀ/.iotlink/sdk/IoT_LINK/iot_link/network/lwm2m/wakaama_lwm2m/wakaama-master/core\internals.h **** #define REG_DELIMITER       ','
 204:C:/Users/²Ü¼ÒºÀ/.iotlink/sdk/IoT_LINK/iot_link/network/lwm2m/wakaama_lwm2m/wakaama-master/core\internals.h **** #define REG_ATTR_SEPARATOR  ';'
 205:C:/Users/²Ü¼ÒºÀ/.iotlink/sdk/IoT_LINK/iot_link/network/lwm2m/wakaama_lwm2m/wakaama-master/core\internals.h **** #define REG_ATTR_EQUALS     '='
 206:C:/Users/²Ü¼ÒºÀ/.iotlink/sdk/IoT_LINK/iot_link/network/lwm2m/wakaama_lwm2m/wakaama-master/core\internals.h **** #define REG_ATTR_TYPE_KEY           "rt"
 207:C:/Users/²Ü¼ÒºÀ/.iotlink/sdk/IoT_LINK/iot_link/network/lwm2m/wakaama_lwm2m/wakaama-master/core\internals.h **** #define REG_ATTR_TYPE_KEY_LEN       2
 208:C:/Users/²Ü¼ÒºÀ/.iotlink/sdk/IoT_LINK/iot_link/network/lwm2m/wakaama_lwm2m/wakaama-master/core\internals.h **** #define REG_ATTR_TYPE_VALUE         "\"oma.lwm2m\""
 209:C:/Users/²Ü¼ÒºÀ/.iotlink/sdk/IoT_LINK/iot_link/network/lwm2m/wakaama_lwm2m/wakaama-master/core\internals.h **** #define REG_ATTR_TYPE_VALUE_LEN     11
 210:C:/Users/²Ü¼ÒºÀ/.iotlink/sdk/IoT_LINK/iot_link/network/lwm2m/wakaama_lwm2m/wakaama-master/core\internals.h **** #define REG_ATTR_CONTENT_KEY        "ct"
 211:C:/Users/²Ü¼ÒºÀ/.iotlink/sdk/IoT_LINK/iot_link/network/lwm2m/wakaama_lwm2m/wakaama-master/core\internals.h **** #define REG_ATTR_CONTENT_KEY_LEN    2
 212:C:/Users/²Ü¼ÒºÀ/.iotlink/sdk/IoT_LINK/iot_link/network/lwm2m/wakaama_lwm2m/wakaama-master/core\internals.h **** #define REG_ATTR_CONTENT_JSON       "11543"   // Temporary value
 213:C:/Users/²Ü¼ÒºÀ/.iotlink/sdk/IoT_LINK/iot_link/network/lwm2m/wakaama_lwm2m/wakaama-master/core\internals.h **** #define REG_ATTR_CONTENT_JSON_LEN   5
 214:C:/Users/²Ü¼ÒºÀ/.iotlink/sdk/IoT_LINK/iot_link/network/lwm2m/wakaama_lwm2m/wakaama-master/core\internals.h **** 
 215:C:/Users/²Ü¼ÒºÀ/.iotlink/sdk/IoT_LINK/iot_link/network/lwm2m/wakaama_lwm2m/wakaama-master/core\internals.h **** #define ATTR_SERVER_ID_STR       "ep="
 216:C:/Users/²Ü¼ÒºÀ/.iotlink/sdk/IoT_LINK/iot_link/network/lwm2m/wakaama_lwm2m/wakaama-master/core\internals.h **** #define ATTR_SERVER_ID_LEN       3
 217:C:/Users/²Ü¼ÒºÀ/.iotlink/sdk/IoT_LINK/iot_link/network/lwm2m/wakaama_lwm2m/wakaama-master/core\internals.h **** #define ATTR_MIN_PERIOD_STR      "pmin="
 218:C:/Users/²Ü¼ÒºÀ/.iotlink/sdk/IoT_LINK/iot_link/network/lwm2m/wakaama_lwm2m/wakaama-master/core\internals.h **** #define ATTR_MIN_PERIOD_LEN      5
 219:C:/Users/²Ü¼ÒºÀ/.iotlink/sdk/IoT_LINK/iot_link/network/lwm2m/wakaama_lwm2m/wakaama-master/core\internals.h **** #define ATTR_MAX_PERIOD_STR      "pmax="
 220:C:/Users/²Ü¼ÒºÀ/.iotlink/sdk/IoT_LINK/iot_link/network/lwm2m/wakaama_lwm2m/wakaama-master/core\internals.h **** #define ATTR_MAX_PERIOD_LEN      5
 221:C:/Users/²Ü¼ÒºÀ/.iotlink/sdk/IoT_LINK/iot_link/network/lwm2m/wakaama_lwm2m/wakaama-master/core\internals.h **** #define ATTR_GREATER_THAN_STR    "gt="
 222:C:/Users/²Ü¼ÒºÀ/.iotlink/sdk/IoT_LINK/iot_link/network/lwm2m/wakaama_lwm2m/wakaama-master/core\internals.h **** #define ATTR_GREATER_THAN_LEN    3
 223:C:/Users/²Ü¼ÒºÀ/.iotlink/sdk/IoT_LINK/iot_link/network/lwm2m/wakaama_lwm2m/wakaama-master/core\internals.h **** #define ATTR_LESS_THAN_STR       "lt="
 224:C:/Users/²Ü¼ÒºÀ/.iotlink/sdk/IoT_LINK/iot_link/network/lwm2m/wakaama_lwm2m/wakaama-master/core\internals.h **** #define ATTR_LESS_THAN_LEN       3
 225:C:/Users/²Ü¼ÒºÀ/.iotlink/sdk/IoT_LINK/iot_link/network/lwm2m/wakaama_lwm2m/wakaama-master/core\internals.h **** #define ATTR_STEP_STR            "st="
 226:C:/Users/²Ü¼ÒºÀ/.iotlink/sdk/IoT_LINK/iot_link/network/lwm2m/wakaama_lwm2m/wakaama-master/core\internals.h **** #define ATTR_STEP_LEN            3
 227:C:/Users/²Ü¼ÒºÀ/.iotlink/sdk/IoT_LINK/iot_link/network/lwm2m/wakaama_lwm2m/wakaama-master/core\internals.h **** #define ATTR_DIMENSION_STR       "dim="
 228:C:/Users/²Ü¼ÒºÀ/.iotlink/sdk/IoT_LINK/iot_link/network/lwm2m/wakaama_lwm2m/wakaama-master/core\internals.h **** #define ATTR_DIMENSION_LEN       4
 229:C:/Users/²Ü¼ÒºÀ/.iotlink/sdk/IoT_LINK/iot_link/network/lwm2m/wakaama_lwm2m/wakaama-master/core\internals.h **** 
 230:C:/Users/²Ü¼ÒºÀ/.iotlink/sdk/IoT_LINK/iot_link/network/lwm2m/wakaama_lwm2m/wakaama-master/core\internals.h **** #define URI_MAX_STRING_LEN    18      // /65535/65535/65535
 231:C:/Users/²Ü¼ÒºÀ/.iotlink/sdk/IoT_LINK/iot_link/network/lwm2m/wakaama_lwm2m/wakaama-master/core\internals.h **** #define _PRV_64BIT_BUFFER_SIZE 8
 232:C:/Users/²Ü¼ÒºÀ/.iotlink/sdk/IoT_LINK/iot_link/network/lwm2m/wakaama_lwm2m/wakaama-master/core\internals.h **** 
 233:C:/Users/²Ü¼ÒºÀ/.iotlink/sdk/IoT_LINK/iot_link/network/lwm2m/wakaama_lwm2m/wakaama-master/core\internals.h **** #define LINK_ITEM_START             "<"
 234:C:/Users/²Ü¼ÒºÀ/.iotlink/sdk/IoT_LINK/iot_link/network/lwm2m/wakaama_lwm2m/wakaama-master/core\internals.h **** #define LINK_ITEM_START_SIZE        1
 235:C:/Users/²Ü¼ÒºÀ/.iotlink/sdk/IoT_LINK/iot_link/network/lwm2m/wakaama_lwm2m/wakaama-master/core\internals.h **** #define LINK_ITEM_END               ">,"
 236:C:/Users/²Ü¼ÒºÀ/.iotlink/sdk/IoT_LINK/iot_link/network/lwm2m/wakaama_lwm2m/wakaama-master/core\internals.h **** #define LINK_ITEM_END_SIZE          2
 237:C:/Users/²Ü¼ÒºÀ/.iotlink/sdk/IoT_LINK/iot_link/network/lwm2m/wakaama_lwm2m/wakaama-master/core\internals.h **** #define LINK_ITEM_DIM_START         ">;dim="
 238:C:/Users/²Ü¼ÒºÀ/.iotlink/sdk/IoT_LINK/iot_link/network/lwm2m/wakaama_lwm2m/wakaama-master/core\internals.h **** #define LINK_ITEM_DIM_START_SIZE    6
 239:C:/Users/²Ü¼ÒºÀ/.iotlink/sdk/IoT_LINK/iot_link/network/lwm2m/wakaama_lwm2m/wakaama-master/core\internals.h **** #define LINK_ITEM_ATTR_END          ","
 240:C:/Users/²Ü¼ÒºÀ/.iotlink/sdk/IoT_LINK/iot_link/network/lwm2m/wakaama_lwm2m/wakaama-master/core\internals.h **** #define LINK_ITEM_ATTR_END_SIZE     1
 241:C:/Users/²Ü¼ÒºÀ/.iotlink/sdk/IoT_LINK/iot_link/network/lwm2m/wakaama_lwm2m/wakaama-master/core\internals.h **** #define LINK_URI_SEPARATOR          "/"
 242:C:/Users/²Ü¼ÒºÀ/.iotlink/sdk/IoT_LINK/iot_link/network/lwm2m/wakaama_lwm2m/wakaama-master/core\internals.h **** #define LINK_URI_SEPARATOR_SIZE     1
 243:C:/Users/²Ü¼ÒºÀ/.iotlink/sdk/IoT_LINK/iot_link/network/lwm2m/wakaama_lwm2m/wakaama-master/core\internals.h **** #define LINK_ATTR_SEPARATOR         ";"
 244:C:/Users/²Ü¼ÒºÀ/.iotlink/sdk/IoT_LINK/iot_link/network/lwm2m/wakaama_lwm2m/wakaama-master/core\internals.h **** #define LINK_ATTR_SEPARATOR_SIZE    1
 245:C:/Users/²Ü¼ÒºÀ/.iotlink/sdk/IoT_LINK/iot_link/network/lwm2m/wakaama_lwm2m/wakaama-master/core\internals.h **** 
 246:C:/Users/²Ü¼ÒºÀ/.iotlink/sdk/IoT_LINK/iot_link/network/lwm2m/wakaama_lwm2m/wakaama-master/core\internals.h **** #define ATTR_FLAG_NUMERIC (uint8_t)(LWM2M_ATTR_FLAG_LESS_THAN | LWM2M_ATTR_FLAG_GREATER_THAN | LWM2
 247:C:/Users/²Ü¼ÒºÀ/.iotlink/sdk/IoT_LINK/iot_link/network/lwm2m/wakaama_lwm2m/wakaama-master/core\internals.h **** 
 248:C:/Users/²Ü¼ÒºÀ/.iotlink/sdk/IoT_LINK/iot_link/network/lwm2m/wakaama_lwm2m/wakaama-master/core\internals.h **** #define LWM2M_URI_FLAG_DM           (uint8_t)0x00
 249:C:/Users/²Ü¼ÒºÀ/.iotlink/sdk/IoT_LINK/iot_link/network/lwm2m/wakaama_lwm2m/wakaama-master/core\internals.h **** #define LWM2M_URI_FLAG_DELETE_ALL   (uint8_t)0x10
 250:C:/Users/²Ü¼ÒºÀ/.iotlink/sdk/IoT_LINK/iot_link/network/lwm2m/wakaama_lwm2m/wakaama-master/core\internals.h **** #define LWM2M_URI_FLAG_REGISTRATION (uint8_t)0x20
 251:C:/Users/²Ü¼ÒºÀ/.iotlink/sdk/IoT_LINK/iot_link/network/lwm2m/wakaama_lwm2m/wakaama-master/core\internals.h **** #define LWM2M_URI_FLAG_BOOTSTRAP    (uint8_t)0x40
 252:C:/Users/²Ü¼ÒºÀ/.iotlink/sdk/IoT_LINK/iot_link/network/lwm2m/wakaama_lwm2m/wakaama-master/core\internals.h **** 
 253:C:/Users/²Ü¼ÒºÀ/.iotlink/sdk/IoT_LINK/iot_link/network/lwm2m/wakaama_lwm2m/wakaama-master/core\internals.h **** #define LWM2M_URI_MASK_TYPE (uint8_t)0x70
ARM GAS  C:\Users\²Ü¼ÒºÀ\AppData\Local\Temp\cc2xoMwd.s 			page 72


 254:C:/Users/²Ü¼ÒºÀ/.iotlink/sdk/IoT_LINK/iot_link/network/lwm2m/wakaama_lwm2m/wakaama-master/core\internals.h **** #define LWM2M_URI_MASK_ID   (uint8_t)0x07
 255:C:/Users/²Ü¼ÒºÀ/.iotlink/sdk/IoT_LINK/iot_link/network/lwm2m/wakaama_lwm2m/wakaama-master/core\internals.h **** 
 256:C:/Users/²Ü¼ÒºÀ/.iotlink/sdk/IoT_LINK/iot_link/network/lwm2m/wakaama_lwm2m/wakaama-master/core\internals.h **** typedef struct
 257:C:/Users/²Ü¼ÒºÀ/.iotlink/sdk/IoT_LINK/iot_link/network/lwm2m/wakaama_lwm2m/wakaama-master/core\internals.h **** {
 258:C:/Users/²Ü¼ÒºÀ/.iotlink/sdk/IoT_LINK/iot_link/network/lwm2m/wakaama_lwm2m/wakaama-master/core\internals.h ****     uint16_t clientID;
 259:C:/Users/²Ü¼ÒºÀ/.iotlink/sdk/IoT_LINK/iot_link/network/lwm2m/wakaama_lwm2m/wakaama-master/core\internals.h ****     lwm2m_uri_t uri;
 260:C:/Users/²Ü¼ÒºÀ/.iotlink/sdk/IoT_LINK/iot_link/network/lwm2m/wakaama_lwm2m/wakaama-master/core\internals.h ****     lwm2m_result_callback_t callback;
 261:C:/Users/²Ü¼ÒºÀ/.iotlink/sdk/IoT_LINK/iot_link/network/lwm2m/wakaama_lwm2m/wakaama-master/core\internals.h ****     void * userData;
 262:C:/Users/²Ü¼ÒºÀ/.iotlink/sdk/IoT_LINK/iot_link/network/lwm2m/wakaama_lwm2m/wakaama-master/core\internals.h **** } dm_data_t;
 263:C:/Users/²Ü¼ÒºÀ/.iotlink/sdk/IoT_LINK/iot_link/network/lwm2m/wakaama_lwm2m/wakaama-master/core\internals.h **** 
 264:C:/Users/²Ü¼ÒºÀ/.iotlink/sdk/IoT_LINK/iot_link/network/lwm2m/wakaama_lwm2m/wakaama-master/core\internals.h **** typedef enum
 265:C:/Users/²Ü¼ÒºÀ/.iotlink/sdk/IoT_LINK/iot_link/network/lwm2m/wakaama_lwm2m/wakaama-master/core\internals.h **** {
 266:C:/Users/²Ü¼ÒºÀ/.iotlink/sdk/IoT_LINK/iot_link/network/lwm2m/wakaama_lwm2m/wakaama-master/core\internals.h ****     URI_DEPTH_OBJECT,
 267:C:/Users/²Ü¼ÒºÀ/.iotlink/sdk/IoT_LINK/iot_link/network/lwm2m/wakaama_lwm2m/wakaama-master/core\internals.h ****     URI_DEPTH_OBJECT_INSTANCE,
 268:C:/Users/²Ü¼ÒºÀ/.iotlink/sdk/IoT_LINK/iot_link/network/lwm2m/wakaama_lwm2m/wakaama-master/core\internals.h ****     URI_DEPTH_RESOURCE,
 269:C:/Users/²Ü¼ÒºÀ/.iotlink/sdk/IoT_LINK/iot_link/network/lwm2m/wakaama_lwm2m/wakaama-master/core\internals.h ****     URI_DEPTH_RESOURCE_INSTANCE
 270:C:/Users/²Ü¼ÒºÀ/.iotlink/sdk/IoT_LINK/iot_link/network/lwm2m/wakaama_lwm2m/wakaama-master/core\internals.h **** } uri_depth_t;
 271:C:/Users/²Ü¼ÒºÀ/.iotlink/sdk/IoT_LINK/iot_link/network/lwm2m/wakaama_lwm2m/wakaama-master/core\internals.h **** 
 272:C:/Users/²Ü¼ÒºÀ/.iotlink/sdk/IoT_LINK/iot_link/network/lwm2m/wakaama_lwm2m/wakaama-master/core\internals.h **** #ifdef LWM2M_BOOTSTRAP_SERVER_MODE
 273:C:/Users/²Ü¼ÒºÀ/.iotlink/sdk/IoT_LINK/iot_link/network/lwm2m/wakaama_lwm2m/wakaama-master/core\internals.h **** typedef struct
 274:C:/Users/²Ü¼ÒºÀ/.iotlink/sdk/IoT_LINK/iot_link/network/lwm2m/wakaama_lwm2m/wakaama-master/core\internals.h **** {
 275:C:/Users/²Ü¼ÒºÀ/.iotlink/sdk/IoT_LINK/iot_link/network/lwm2m/wakaama_lwm2m/wakaama-master/core\internals.h ****     bool        isUri;
 276:C:/Users/²Ü¼ÒºÀ/.iotlink/sdk/IoT_LINK/iot_link/network/lwm2m/wakaama_lwm2m/wakaama-master/core\internals.h ****     lwm2m_uri_t uri;
 277:C:/Users/²Ü¼ÒºÀ/.iotlink/sdk/IoT_LINK/iot_link/network/lwm2m/wakaama_lwm2m/wakaama-master/core\internals.h ****     lwm2m_bootstrap_callback_t callback;
 278:C:/Users/²Ü¼ÒºÀ/.iotlink/sdk/IoT_LINK/iot_link/network/lwm2m/wakaama_lwm2m/wakaama-master/core\internals.h ****     void *      userData;
 279:C:/Users/²Ü¼ÒºÀ/.iotlink/sdk/IoT_LINK/iot_link/network/lwm2m/wakaama_lwm2m/wakaama-master/core\internals.h **** } bs_data_t;
 280:C:/Users/²Ü¼ÒºÀ/.iotlink/sdk/IoT_LINK/iot_link/network/lwm2m/wakaama_lwm2m/wakaama-master/core\internals.h **** #endif
 281:C:/Users/²Ü¼ÒºÀ/.iotlink/sdk/IoT_LINK/iot_link/network/lwm2m/wakaama_lwm2m/wakaama-master/core\internals.h **** 
 282:C:/Users/²Ü¼ÒºÀ/.iotlink/sdk/IoT_LINK/iot_link/network/lwm2m/wakaama_lwm2m/wakaama-master/core\internals.h **** // defined in uri.c
 283:C:/Users/²Ü¼ÒºÀ/.iotlink/sdk/IoT_LINK/iot_link/network/lwm2m/wakaama_lwm2m/wakaama-master/core\internals.h **** lwm2m_uri_t * uri_decode(char * altPath, multi_option_t *uriPath);
 284:C:/Users/²Ü¼ÒºÀ/.iotlink/sdk/IoT_LINK/iot_link/network/lwm2m/wakaama_lwm2m/wakaama-master/core\internals.h **** int uri_getNumber(uint8_t * uriString, size_t uriLength);
 285:C:/Users/²Ü¼ÒºÀ/.iotlink/sdk/IoT_LINK/iot_link/network/lwm2m/wakaama_lwm2m/wakaama-master/core\internals.h **** int uri_toString(lwm2m_uri_t * uriP, uint8_t * buffer, size_t bufferLen, uri_depth_t * depthP);
 286:C:/Users/²Ü¼ÒºÀ/.iotlink/sdk/IoT_LINK/iot_link/network/lwm2m/wakaama_lwm2m/wakaama-master/core\internals.h **** 
 287:C:/Users/²Ü¼ÒºÀ/.iotlink/sdk/IoT_LINK/iot_link/network/lwm2m/wakaama_lwm2m/wakaama-master/core\internals.h **** // defined in objects.c
 288:C:/Users/²Ü¼ÒºÀ/.iotlink/sdk/IoT_LINK/iot_link/network/lwm2m/wakaama_lwm2m/wakaama-master/core\internals.h **** uint8_t object_readData(lwm2m_context_t * contextP, lwm2m_uri_t * uriP, int * sizeP, lwm2m_data_t *
 289:C:/Users/²Ü¼ÒºÀ/.iotlink/sdk/IoT_LINK/iot_link/network/lwm2m/wakaama_lwm2m/wakaama-master/core\internals.h **** uint8_t object_read(lwm2m_context_t * contextP, lwm2m_uri_t * uriP, lwm2m_media_type_t * formatP, u
 290:C:/Users/²Ü¼ÒºÀ/.iotlink/sdk/IoT_LINK/iot_link/network/lwm2m/wakaama_lwm2m/wakaama-master/core\internals.h **** uint8_t object_write(lwm2m_context_t * contextP, lwm2m_uri_t * uriP, lwm2m_media_type_t format, uin
 291:C:/Users/²Ü¼ÒºÀ/.iotlink/sdk/IoT_LINK/iot_link/network/lwm2m/wakaama_lwm2m/wakaama-master/core\internals.h **** uint8_t object_create(lwm2m_context_t * contextP, lwm2m_uri_t * uriP, lwm2m_media_type_t format, ui
 292:C:/Users/²Ü¼ÒºÀ/.iotlink/sdk/IoT_LINK/iot_link/network/lwm2m/wakaama_lwm2m/wakaama-master/core\internals.h **** uint8_t object_execute(lwm2m_context_t * contextP, lwm2m_uri_t * uriP, uint8_t * buffer, size_t len
 293:C:/Users/²Ü¼ÒºÀ/.iotlink/sdk/IoT_LINK/iot_link/network/lwm2m/wakaama_lwm2m/wakaama-master/core\internals.h **** uint8_t object_delete(lwm2m_context_t * contextP, lwm2m_uri_t * uriP);
 294:C:/Users/²Ü¼ÒºÀ/.iotlink/sdk/IoT_LINK/iot_link/network/lwm2m/wakaama_lwm2m/wakaama-master/core\internals.h **** uint8_t object_discover(lwm2m_context_t * contextP, lwm2m_uri_t * uriP, lwm2m_server_t * serverP, u
 295:C:/Users/²Ü¼ÒºÀ/.iotlink/sdk/IoT_LINK/iot_link/network/lwm2m/wakaama_lwm2m/wakaama-master/core\internals.h **** uint8_t object_checkReadable(lwm2m_context_t * contextP, lwm2m_uri_t * uriP);
 296:C:/Users/²Ü¼ÒºÀ/.iotlink/sdk/IoT_LINK/iot_link/network/lwm2m/wakaama_lwm2m/wakaama-master/core\internals.h **** uint8_t object_checkNumeric(lwm2m_context_t * contextP, lwm2m_uri_t * uriP);
 297:C:/Users/²Ü¼ÒºÀ/.iotlink/sdk/IoT_LINK/iot_link/network/lwm2m/wakaama_lwm2m/wakaama-master/core\internals.h **** bool object_isInstanceNew(lwm2m_context_t * contextP, uint16_t objectId, uint16_t instanceId);
 298:C:/Users/²Ü¼ÒºÀ/.iotlink/sdk/IoT_LINK/iot_link/network/lwm2m/wakaama_lwm2m/wakaama-master/core\internals.h **** int object_getRegisterPayloadBufferLength(lwm2m_context_t * contextP);
 299:C:/Users/²Ü¼ÒºÀ/.iotlink/sdk/IoT_LINK/iot_link/network/lwm2m/wakaama_lwm2m/wakaama-master/core\internals.h **** int object_getRegisterPayload(lwm2m_context_t * contextP, uint8_t * buffer, size_t length);
 300:C:/Users/²Ü¼ÒºÀ/.iotlink/sdk/IoT_LINK/iot_link/network/lwm2m/wakaama_lwm2m/wakaama-master/core\internals.h **** int object_getServers(lwm2m_context_t * contextP, bool checkOnly);
 301:C:/Users/²Ü¼ÒºÀ/.iotlink/sdk/IoT_LINK/iot_link/network/lwm2m/wakaama_lwm2m/wakaama-master/core\internals.h **** uint8_t object_createInstance(lwm2m_context_t * contextP, lwm2m_uri_t * uriP, lwm2m_data_t * dataP)
 302:C:/Users/²Ü¼ÒºÀ/.iotlink/sdk/IoT_LINK/iot_link/network/lwm2m/wakaama_lwm2m/wakaama-master/core\internals.h **** uint8_t object_writeInstance(lwm2m_context_t * contextP, lwm2m_uri_t * uriP, lwm2m_data_t * dataP);
 303:C:/Users/²Ü¼ÒºÀ/.iotlink/sdk/IoT_LINK/iot_link/network/lwm2m/wakaama_lwm2m/wakaama-master/core\internals.h **** 
 304:C:/Users/²Ü¼ÒºÀ/.iotlink/sdk/IoT_LINK/iot_link/network/lwm2m/wakaama_lwm2m/wakaama-master/core\internals.h **** // defined in transaction.c
 305:C:/Users/²Ü¼ÒºÀ/.iotlink/sdk/IoT_LINK/iot_link/network/lwm2m/wakaama_lwm2m/wakaama-master/core\internals.h **** lwm2m_transaction_t * transaction_new(void * sessionH, unsigned char method, char * altPath, lwm2m_
 306:C:/Users/²Ü¼ÒºÀ/.iotlink/sdk/IoT_LINK/iot_link/network/lwm2m/wakaama_lwm2m/wakaama-master/core\internals.h **** int transaction_send(lwm2m_context_t * contextP, lwm2m_transaction_t * transacP);
 307:C:/Users/²Ü¼ÒºÀ/.iotlink/sdk/IoT_LINK/iot_link/network/lwm2m/wakaama_lwm2m/wakaama-master/core\internals.h **** void transaction_free(lwm2m_transaction_t * transacP);
 308:C:/Users/²Ü¼ÒºÀ/.iotlink/sdk/IoT_LINK/iot_link/network/lwm2m/wakaama_lwm2m/wakaama-master/core\internals.h **** void transaction_remove(lwm2m_context_t * contextP, lwm2m_transaction_t * transacP);
 309:C:/Users/²Ü¼ÒºÀ/.iotlink/sdk/IoT_LINK/iot_link/network/lwm2m/wakaama_lwm2m/wakaama-master/core\internals.h **** bool transaction_handleResponse(lwm2m_context_t * contextP, void * fromSessionH, coap_packet_t * me
 310:C:/Users/²Ü¼ÒºÀ/.iotlink/sdk/IoT_LINK/iot_link/network/lwm2m/wakaama_lwm2m/wakaama-master/core\internals.h **** void transaction_step(lwm2m_context_t * contextP, time_t currentTime, time_t * timeoutP);
ARM GAS  C:\Users\²Ü¼ÒºÀ\AppData\Local\Temp\cc2xoMwd.s 			page 73


 311:C:/Users/²Ü¼ÒºÀ/.iotlink/sdk/IoT_LINK/iot_link/network/lwm2m/wakaama_lwm2m/wakaama-master/core\internals.h **** 
 312:C:/Users/²Ü¼ÒºÀ/.iotlink/sdk/IoT_LINK/iot_link/network/lwm2m/wakaama_lwm2m/wakaama-master/core\internals.h **** // defined in management.c
 313:C:/Users/²Ü¼ÒºÀ/.iotlink/sdk/IoT_LINK/iot_link/network/lwm2m/wakaama_lwm2m/wakaama-master/core\internals.h **** uint8_t dm_handleRequest(lwm2m_context_t * contextP, lwm2m_uri_t * uriP, lwm2m_server_t * serverP, 
 314:C:/Users/²Ü¼ÒºÀ/.iotlink/sdk/IoT_LINK/iot_link/network/lwm2m/wakaama_lwm2m/wakaama-master/core\internals.h **** 
 315:C:/Users/²Ü¼ÒºÀ/.iotlink/sdk/IoT_LINK/iot_link/network/lwm2m/wakaama_lwm2m/wakaama-master/core\internals.h **** // defined in observe.c
 316:C:/Users/²Ü¼ÒºÀ/.iotlink/sdk/IoT_LINK/iot_link/network/lwm2m/wakaama_lwm2m/wakaama-master/core\internals.h **** uint8_t observe_handleRequest(lwm2m_context_t * contextP, lwm2m_uri_t * uriP, lwm2m_server_t * serv
 317:C:/Users/²Ü¼ÒºÀ/.iotlink/sdk/IoT_LINK/iot_link/network/lwm2m/wakaama_lwm2m/wakaama-master/core\internals.h **** void observe_cancel(lwm2m_context_t * contextP, uint16_t mid, void * fromSessionH);
 318:C:/Users/²Ü¼ÒºÀ/.iotlink/sdk/IoT_LINK/iot_link/network/lwm2m/wakaama_lwm2m/wakaama-master/core\internals.h **** uint8_t observe_setParameters(lwm2m_context_t * contextP, lwm2m_uri_t * uriP, lwm2m_server_t * serv
 319:C:/Users/²Ü¼ÒºÀ/.iotlink/sdk/IoT_LINK/iot_link/network/lwm2m/wakaama_lwm2m/wakaama-master/core\internals.h **** void observe_step(lwm2m_context_t * contextP, time_t currentTime, time_t * timeoutP);
 320:C:/Users/²Ü¼ÒºÀ/.iotlink/sdk/IoT_LINK/iot_link/network/lwm2m/wakaama_lwm2m/wakaama-master/core\internals.h **** void observe_clear(lwm2m_context_t * contextP, lwm2m_uri_t * uriP);
 321:C:/Users/²Ü¼ÒºÀ/.iotlink/sdk/IoT_LINK/iot_link/network/lwm2m/wakaama_lwm2m/wakaama-master/core\internals.h **** //bool observe_handleNotify(lwm2m_context_t * contextP, void * fromSessionH, coap_packet_t * messag
 322:C:/Users/²Ü¼ÒºÀ/.iotlink/sdk/IoT_LINK/iot_link/network/lwm2m/wakaama_lwm2m/wakaama-master/core\internals.h **** void observe_remove(lwm2m_observation_t * observationP);
 323:C:/Users/²Ü¼ÒºÀ/.iotlink/sdk/IoT_LINK/iot_link/network/lwm2m/wakaama_lwm2m/wakaama-master/core\internals.h **** lwm2m_observed_t * observe_findByUri(lwm2m_context_t * contextP, lwm2m_uri_t * uriP);
 324:C:/Users/²Ü¼ÒºÀ/.iotlink/sdk/IoT_LINK/iot_link/network/lwm2m/wakaama_lwm2m/wakaama-master/core\internals.h **** 
 325:C:/Users/²Ü¼ÒºÀ/.iotlink/sdk/IoT_LINK/iot_link/network/lwm2m/wakaama_lwm2m/wakaama-master/core\internals.h **** // defined in registration.c
 326:C:/Users/²Ü¼ÒºÀ/.iotlink/sdk/IoT_LINK/iot_link/network/lwm2m/wakaama_lwm2m/wakaama-master/core\internals.h **** //uint8_t registration_handleRequest(lwm2m_context_t * contextP, lwm2m_uri_t * uriP, void * fromSes
 327:C:/Users/²Ü¼ÒºÀ/.iotlink/sdk/IoT_LINK/iot_link/network/lwm2m/wakaama_lwm2m/wakaama-master/core\internals.h **** void registration_deregister(lwm2m_context_t * contextP, lwm2m_server_t * serverP);
 328:C:/Users/²Ü¼ÒºÀ/.iotlink/sdk/IoT_LINK/iot_link/network/lwm2m/wakaama_lwm2m/wakaama-master/core\internals.h **** void registration_freeClient(lwm2m_client_t * clientP);
 329:C:/Users/²Ü¼ÒºÀ/.iotlink/sdk/IoT_LINK/iot_link/network/lwm2m/wakaama_lwm2m/wakaama-master/core\internals.h **** uint8_t registration_start(lwm2m_context_t * contextP);
 330:C:/Users/²Ü¼ÒºÀ/.iotlink/sdk/IoT_LINK/iot_link/network/lwm2m/wakaama_lwm2m/wakaama-master/core\internals.h **** void registration_step(lwm2m_context_t * contextP, time_t currentTime, time_t * timeoutP);
 331:C:/Users/²Ü¼ÒºÀ/.iotlink/sdk/IoT_LINK/iot_link/network/lwm2m/wakaama_lwm2m/wakaama-master/core\internals.h **** lwm2m_status_t registration_getStatus(lwm2m_context_t * contextP);
 332:C:/Users/²Ü¼ÒºÀ/.iotlink/sdk/IoT_LINK/iot_link/network/lwm2m/wakaama_lwm2m/wakaama-master/core\internals.h **** void registration_reset(lwm2m_context_t * contextP, lwm2m_server_t * serverP);
 333:C:/Users/²Ü¼ÒºÀ/.iotlink/sdk/IoT_LINK/iot_link/network/lwm2m/wakaama_lwm2m/wakaama-master/core\internals.h **** 
 334:C:/Users/²Ü¼ÒºÀ/.iotlink/sdk/IoT_LINK/iot_link/network/lwm2m/wakaama_lwm2m/wakaama-master/core\internals.h **** // defined in packet.c
 335:C:/Users/²Ü¼ÒºÀ/.iotlink/sdk/IoT_LINK/iot_link/network/lwm2m/wakaama_lwm2m/wakaama-master/core\internals.h **** uint8_t message_send(lwm2m_context_t * contextP, coap_packet_t * message, void * sessionH);
 336:C:/Users/²Ü¼ÒºÀ/.iotlink/sdk/IoT_LINK/iot_link/network/lwm2m/wakaama_lwm2m/wakaama-master/core\internals.h **** 
 337:C:/Users/²Ü¼ÒºÀ/.iotlink/sdk/IoT_LINK/iot_link/network/lwm2m/wakaama_lwm2m/wakaama-master/core\internals.h **** // defined in bootstrap.c
 338:C:/Users/²Ü¼ÒºÀ/.iotlink/sdk/IoT_LINK/iot_link/network/lwm2m/wakaama_lwm2m/wakaama-master/core\internals.h **** void bootstrap_step(lwm2m_context_t * contextP, uint32_t currentTime, time_t* timeoutP);
 339:C:/Users/²Ü¼ÒºÀ/.iotlink/sdk/IoT_LINK/iot_link/network/lwm2m/wakaama_lwm2m/wakaama-master/core\internals.h **** uint8_t bootstrap_handleCommand(lwm2m_context_t * contextP, lwm2m_uri_t * uriP, lwm2m_server_t * se
 340:C:/Users/²Ü¼ÒºÀ/.iotlink/sdk/IoT_LINK/iot_link/network/lwm2m/wakaama_lwm2m/wakaama-master/core\internals.h **** uint8_t bootstrap_handleDeleteAll(lwm2m_context_t * context, void * fromSessionH);
 341:C:/Users/²Ü¼ÒºÀ/.iotlink/sdk/IoT_LINK/iot_link/network/lwm2m/wakaama_lwm2m/wakaama-master/core\internals.h **** uint8_t bootstrap_handleFinish(lwm2m_context_t * context, void * fromSessionH);
 342:C:/Users/²Ü¼ÒºÀ/.iotlink/sdk/IoT_LINK/iot_link/network/lwm2m/wakaama_lwm2m/wakaama-master/core\internals.h **** uint8_t bootstrap_handleRequest(lwm2m_context_t * contextP, lwm2m_uri_t * uriP, void * fromSessionH
 343:C:/Users/²Ü¼ÒºÀ/.iotlink/sdk/IoT_LINK/iot_link/network/lwm2m/wakaama_lwm2m/wakaama-master/core\internals.h **** void bootstrap_start(lwm2m_context_t * contextP);
 344:C:/Users/²Ü¼ÒºÀ/.iotlink/sdk/IoT_LINK/iot_link/network/lwm2m/wakaama_lwm2m/wakaama-master/core\internals.h **** lwm2m_status_t bootstrap_getStatus(lwm2m_context_t * contextP);
 345:C:/Users/²Ü¼ÒºÀ/.iotlink/sdk/IoT_LINK/iot_link/network/lwm2m/wakaama_lwm2m/wakaama-master/core\internals.h **** bool bootstrap_isBsServerIpValid(const lwm2m_context_t *contextP);
 346:C:/Users/²Ü¼ÒºÀ/.iotlink/sdk/IoT_LINK/iot_link/network/lwm2m/wakaama_lwm2m/wakaama-master/core\internals.h **** 
 347:C:/Users/²Ü¼ÒºÀ/.iotlink/sdk/IoT_LINK/iot_link/network/lwm2m/wakaama_lwm2m/wakaama-master/core\internals.h **** 
 348:C:/Users/²Ü¼ÒºÀ/.iotlink/sdk/IoT_LINK/iot_link/network/lwm2m/wakaama_lwm2m/wakaama-master/core\internals.h **** // defined in tlv.c
 349:C:/Users/²Ü¼ÒºÀ/.iotlink/sdk/IoT_LINK/iot_link/network/lwm2m/wakaama_lwm2m/wakaama-master/core\internals.h **** int tlv_parse(uint8_t * buffer, size_t bufferLen, lwm2m_data_t ** dataP);
 350:C:/Users/²Ü¼ÒºÀ/.iotlink/sdk/IoT_LINK/iot_link/network/lwm2m/wakaama_lwm2m/wakaama-master/core\internals.h **** int tlv_serialize(bool isResourceInstance, int size, lwm2m_data_t * dataP, uint8_t ** bufferP);
 351:C:/Users/²Ü¼ÒºÀ/.iotlink/sdk/IoT_LINK/iot_link/network/lwm2m/wakaama_lwm2m/wakaama-master/core\internals.h **** 
 352:C:/Users/²Ü¼ÒºÀ/.iotlink/sdk/IoT_LINK/iot_link/network/lwm2m/wakaama_lwm2m/wakaama-master/core\internals.h **** // defined in json.c
 353:C:/Users/²Ü¼ÒºÀ/.iotlink/sdk/IoT_LINK/iot_link/network/lwm2m/wakaama_lwm2m/wakaama-master/core\internals.h **** #ifdef LWM2M_SUPPORT_JSON
 354:C:/Users/²Ü¼ÒºÀ/.iotlink/sdk/IoT_LINK/iot_link/network/lwm2m/wakaama_lwm2m/wakaama-master/core\internals.h **** int json_parse(lwm2m_uri_t * uriP, uint8_t * buffer, size_t bufferLen, lwm2m_data_t ** dataP);
 355:C:/Users/²Ü¼ÒºÀ/.iotlink/sdk/IoT_LINK/iot_link/network/lwm2m/wakaama_lwm2m/wakaama-master/core\internals.h **** int json_serialize(lwm2m_uri_t * uriP, int size, lwm2m_data_t * tlvP, uint8_t ** bufferP);
 356:C:/Users/²Ü¼ÒºÀ/.iotlink/sdk/IoT_LINK/iot_link/network/lwm2m/wakaama_lwm2m/wakaama-master/core\internals.h **** #endif
 357:C:/Users/²Ü¼ÒºÀ/.iotlink/sdk/IoT_LINK/iot_link/network/lwm2m/wakaama_lwm2m/wakaama-master/core\internals.h **** 
 358:C:/Users/²Ü¼ÒºÀ/.iotlink/sdk/IoT_LINK/iot_link/network/lwm2m/wakaama_lwm2m/wakaama-master/core\internals.h **** // defined in discover.c
 359:C:/Users/²Ü¼ÒºÀ/.iotlink/sdk/IoT_LINK/iot_link/network/lwm2m/wakaama_lwm2m/wakaama-master/core\internals.h **** int discover_serialize(lwm2m_context_t * contextP, lwm2m_uri_t * uriP, lwm2m_server_t * serverP, in
 360:C:/Users/²Ü¼ÒºÀ/.iotlink/sdk/IoT_LINK/iot_link/network/lwm2m/wakaama_lwm2m/wakaama-master/core\internals.h **** 
 361:C:/Users/²Ü¼ÒºÀ/.iotlink/sdk/IoT_LINK/iot_link/network/lwm2m/wakaama_lwm2m/wakaama-master/core\internals.h **** // defined in block1.c
 362:C:/Users/²Ü¼ÒºÀ/.iotlink/sdk/IoT_LINK/iot_link/network/lwm2m/wakaama_lwm2m/wakaama-master/core\internals.h **** uint8_t coap_block1_handler(lwm2m_block1_data_t ** block1Data, uint16_t mid, uint8_t * buffer, size
 363:C:/Users/²Ü¼ÒºÀ/.iotlink/sdk/IoT_LINK/iot_link/network/lwm2m/wakaama_lwm2m/wakaama-master/core\internals.h **** void free_block1_buffer(lwm2m_block1_data_t * block1Data);
 364:C:/Users/²Ü¼ÒºÀ/.iotlink/sdk/IoT_LINK/iot_link/network/lwm2m/wakaama_lwm2m/wakaama-master/core\internals.h **** 
 365:C:/Users/²Ü¼ÒºÀ/.iotlink/sdk/IoT_LINK/iot_link/network/lwm2m/wakaama_lwm2m/wakaama-master/core\internals.h **** // defined in utils.c
 366:C:/Users/²Ü¼ÒºÀ/.iotlink/sdk/IoT_LINK/iot_link/network/lwm2m/wakaama_lwm2m/wakaama-master/core\internals.h **** lwm2m_data_type_t utils_depthToDatatype(uri_depth_t depth);
 367:C:/Users/²Ü¼ÒºÀ/.iotlink/sdk/IoT_LINK/iot_link/network/lwm2m/wakaama_lwm2m/wakaama-master/core\internals.h **** lwm2m_binding_t utils_stringToBinding(uint8_t *buffer, size_t length);
ARM GAS  C:\Users\²Ü¼ÒºÀ\AppData\Local\Temp\cc2xoMwd.s 			page 74


 368:C:/Users/²Ü¼ÒºÀ/.iotlink/sdk/IoT_LINK/iot_link/network/lwm2m/wakaama_lwm2m/wakaama-master/core\internals.h **** lwm2m_media_type_t utils_convertMediaType(coap_content_type_t type);
 369:C:/Users/²Ü¼ÒºÀ/.iotlink/sdk/IoT_LINK/iot_link/network/lwm2m/wakaama_lwm2m/wakaama-master/core\internals.h **** int utils_isAltPathValid(const char * altPath);
 370:C:/Users/²Ü¼ÒºÀ/.iotlink/sdk/IoT_LINK/iot_link/network/lwm2m/wakaama_lwm2m/wakaama-master/core\internals.h **** int utils_stringCopy(char * buffer, size_t length, const char * str);
 371:C:/Users/²Ü¼ÒºÀ/.iotlink/sdk/IoT_LINK/iot_link/network/lwm2m/wakaama_lwm2m/wakaama-master/core\internals.h **** size_t utils_intToText(int64_t data, uint8_t * string, size_t length);
 372:C:/Users/²Ü¼ÒºÀ/.iotlink/sdk/IoT_LINK/iot_link/network/lwm2m/wakaama_lwm2m/wakaama-master/core\internals.h **** size_t utils_floatToText(double data, uint8_t * string, size_t length);
 373:C:/Users/²Ü¼ÒºÀ/.iotlink/sdk/IoT_LINK/iot_link/network/lwm2m/wakaama_lwm2m/wakaama-master/core\internals.h **** int utils_textToInt(uint8_t * buffer, int length, int64_t * dataP);
 374:C:/Users/²Ü¼ÒºÀ/.iotlink/sdk/IoT_LINK/iot_link/network/lwm2m/wakaama_lwm2m/wakaama-master/core\internals.h **** int utils_textToFloat(uint8_t * buffer, int length, double * dataP);
 375:C:/Users/²Ü¼ÒºÀ/.iotlink/sdk/IoT_LINK/iot_link/network/lwm2m/wakaama_lwm2m/wakaama-master/core\internals.h **** void utils_copyValue(void * dst, const void * src, size_t len);
 376:C:/Users/²Ü¼ÒºÀ/.iotlink/sdk/IoT_LINK/iot_link/network/lwm2m/wakaama_lwm2m/wakaama-master/core\internals.h **** size_t utils_base64GetSize(size_t dataLen);
 377:C:/Users/²Ü¼ÒºÀ/.iotlink/sdk/IoT_LINK/iot_link/network/lwm2m/wakaama_lwm2m/wakaama-master/core\internals.h **** size_t utils_base64Encode(uint8_t * dataP, size_t dataLen, uint8_t * bufferP, size_t bufferLen);
 378:C:/Users/²Ü¼ÒºÀ/.iotlink/sdk/IoT_LINK/iot_link/network/lwm2m/wakaama_lwm2m/wakaama-master/core\internals.h **** #ifdef LWM2M_CLIENT_MODE
 379:C:/Users/²Ü¼ÒºÀ/.iotlink/sdk/IoT_LINK/iot_link/network/lwm2m/wakaama_lwm2m/wakaama-master/core\internals.h **** lwm2m_server_t * utils_findServer(lwm2m_context_t * contextP, void * fromSessionH);
 380:C:/Users/²Ü¼ÒºÀ/.iotlink/sdk/IoT_LINK/iot_link/network/lwm2m/wakaama_lwm2m/wakaama-master/core\internals.h **** lwm2m_server_t * utils_findBootstrapServer(lwm2m_context_t * contextP, void * fromSessionH);
 381:C:/Users/²Ü¼ÒºÀ/.iotlink/sdk/IoT_LINK/iot_link/network/lwm2m/wakaama_lwm2m/wakaama-master/core\internals.h **** #endif
 382:C:/Users/²Ü¼ÒºÀ/.iotlink/sdk/IoT_LINK/iot_link/network/lwm2m/wakaama_lwm2m/wakaama-master/core\internals.h **** static inline int dm_isUriOpaqueHandle(const lwm2m_uri_t * uriP)
 383:C:/Users/²Ü¼ÒºÀ/.iotlink/sdk/IoT_LINK/iot_link/network/lwm2m/wakaama_lwm2m/wakaama-master/core\internals.h **** {
 384:C:/Users/²Ü¼ÒºÀ/.iotlink/sdk/IoT_LINK/iot_link/network/lwm2m/wakaama_lwm2m/wakaama-master/core\internals.h ****     return (19 == uriP->objectId);
 2847              		.loc 2 384 5 view .LVU643
 2848              		.loc 1 653 8 is_stmt 0 view .LVU644
 2849 00e2 6B88     		ldrh	r3, [r5, #2]
 2850 00e4 132B     		cmp	r3, #19
 2851 00e6 02D1     		bne	.L248
 654:C:/Users/²Ü¼ÒºÀ/.iotlink/sdk/IoT_LINK/iot_link/network/lwm2m/wakaama_lwm2m/wakaama-master/core\data.c ****     {
 655:C:/Users/²Ü¼ÒºÀ/.iotlink/sdk/IoT_LINK/iot_link/network/lwm2m/wakaama_lwm2m/wakaama-master/core\data.c ****         *formatP = LWM2M_CONTENT_OPAQUE;
 2852              		.loc 1 655 9 is_stmt 1 view .LVU645
 2853              		.loc 1 655 18 is_stmt 0 view .LVU646
 2854 00e8 2A23     		movs	r3, #42
 2855 00ea A8F80030 		strh	r3, [r8]	@ movhi
 2856              	.L248:
 656:C:/Users/²Ü¼ÒºÀ/.iotlink/sdk/IoT_LINK/iot_link/network/lwm2m/wakaama_lwm2m/wakaama-master/core\data.c ****     }
 657:C:/Users/²Ü¼ÒºÀ/.iotlink/sdk/IoT_LINK/iot_link/network/lwm2m/wakaama_lwm2m/wakaama-master/core\data.c **** 
 658:C:/Users/²Ü¼ÒºÀ/.iotlink/sdk/IoT_LINK/iot_link/network/lwm2m/wakaama_lwm2m/wakaama-master/core\data.c ****     LOG_ARG("Final format: %s", STR_MEDIA_TYPE(*formatP));
 2857              		.loc 1 658 5 is_stmt 1 view .LVU647
 2858              		.loc 1 658 5 view .LVU648
 2859 00ee FFF7FEFF 		bl	link_log_level_get
 2860              	.LVL258:
 2861 00f2 0128     		cmp	r0, #1
 2862 00f4 32D8     		bhi	.L218
 2863              		.loc 1 658 5 discriminator 1 view .LVU649
 2864              		.loc 1 658 5 discriminator 1 view .LVU650
 2865              		.loc 1 658 5 discriminator 1 view .LVU651
 2866 00f6 0120     		movs	r0, #1
 2867 00f8 FFF7FEFF 		bl	link_log_level_name
 2868              	.LVL259:
 2869 00fc 8146     		mov	r9, r0
 2870 00fe FFF7FEFF 		bl	osal_sys_time
 2871              	.LVL260:
 2872 0102 0790     		str	r0, [sp, #28]
 2873 0104 FFF7FEFF 		bl	lwm2m_gettime
 2874              	.LVL261:
 2875 0108 B8F80010 		ldrh	r1, [r8]
 2876 010c 079A     		ldr	r2, [sp, #28]
 2877 010e 0029     		cmp	r1, #0
 2878 0110 00F0CB80 		beq	.L254
 2879              		.loc 1 658 5 is_stmt 0 discriminator 3 view .LVU652
 2880 0114 2829     		cmp	r1, #40
 2881 0116 00F0CA80 		beq	.L255
ARM GAS  C:\Users\²Ü¼ÒºÀ\AppData\Local\Temp\cc2xoMwd.s 			page 75


 2882              		.loc 1 658 5 discriminator 5 view .LVU653
 2883 011a 2A29     		cmp	r1, #42
 2884 011c 00F0C980 		beq	.L256
 2885              		.loc 1 658 5 discriminator 7 view .LVU654
 2886 0120 42F61653 		movw	r3, #11542
 2887 0124 9942     		cmp	r1, r3
 2888 0126 00F0C680 		beq	.L257
 2889              		.loc 1 658 5 discriminator 9 view .LVU655
 2890 012a 7A4B     		ldr	r3, .L305+16
 2891 012c DFF810C2 		ldr	ip, .L305+60
 2892 0130 42F6175E 		movw	lr, #11543
 2893 0134 7145     		cmp	r1, lr
 2894 0136 18BF     		it	ne
 2895 0138 6346     		movne	r3, ip
 2896              	.L219:
 2897              		.loc 1 658 5 discriminator 22 view .LVU656
 2898 013a 0393     		str	r3, [sp, #12]
 2899 013c 40F29223 		movw	r3, #658
 2900 0140 0293     		str	r3, [sp, #8]
 2901 0142 704B     		ldr	r3, .L305
 2902 0144 4946     		mov	r1, r9
 2903 0146 CDE90003 		strd	r0, r3, [sp]
 2904 014a 6F4B     		ldr	r3, .L305+4
 2905 014c 7348     		ldr	r0, .L305+24
 2906 014e FFF7FEFF 		bl	printf
 2907              	.LVL262:
 2908              		.loc 1 658 5 is_stmt 1 discriminator 22 view .LVU657
 2909 0152 6F4B     		ldr	r3, .L305+12
 2910 0154 1B68     		ldr	r3, [r3]
 2911 0156 9868     		ldr	r0, [r3, #8]
 2912 0158 FFF7FEFF 		bl	fflush
 2913              	.LVL263:
 2914              	.L218:
 2915              		.loc 1 658 5 discriminator 23 view .LVU658
 2916              		.loc 1 658 5 discriminator 23 view .LVU659
 2917              		.loc 1 658 5 discriminator 23 view .LVU660
 659:C:/Users/²Ü¼ÒºÀ/.iotlink/sdk/IoT_LINK/iot_link/network/lwm2m/wakaama_lwm2m/wakaama-master/core\data.c **** 
 660:C:/Users/²Ü¼ÒºÀ/.iotlink/sdk/IoT_LINK/iot_link/network/lwm2m/wakaama_lwm2m/wakaama-master/core\data.c ****     switch (*formatP)
 2918              		.loc 1 660 5 discriminator 23 view .LVU661
 2919              		.loc 1 660 13 is_stmt 0 discriminator 23 view .LVU662
 2920 015c B8F80030 		ldrh	r3, [r8]
 2921              		.loc 1 660 5 discriminator 23 view .LVU663
 2922 0160 2A2B     		cmp	r3, #42
 2923 0162 00F05781 		beq	.L220
 2924              		.loc 1 660 5 view .LVU664
 2925 0166 00F2A880 		bhi	.L221
 2926 016a 002B     		cmp	r3, #0
 2927 016c 00F0C080 		beq	.L222
 2928 0170 282B     		cmp	r3, #40
 2929 0172 7CD1     		bne	.L259
 661:C:/Users/²Ü¼ÒºÀ/.iotlink/sdk/IoT_LINK/iot_link/network/lwm2m/wakaama_lwm2m/wakaama-master/core\data.c ****     {
 662:C:/Users/²Ü¼ÒºÀ/.iotlink/sdk/IoT_LINK/iot_link/network/lwm2m/wakaama_lwm2m/wakaama-master/core\data.c ****     case LWM2M_CONTENT_TEXT:
 663:C:/Users/²Ü¼ÒºÀ/.iotlink/sdk/IoT_LINK/iot_link/network/lwm2m/wakaama_lwm2m/wakaama-master/core\data.c ****         return prv_textSerialize(dataP, bufferP);
 664:C:/Users/²Ü¼ÒºÀ/.iotlink/sdk/IoT_LINK/iot_link/network/lwm2m/wakaama_lwm2m/wakaama-master/core\data.c **** 
 665:C:/Users/²Ü¼ÒºÀ/.iotlink/sdk/IoT_LINK/iot_link/network/lwm2m/wakaama_lwm2m/wakaama-master/core\data.c ****     case LWM2M_CONTENT_OPAQUE:
 666:C:/Users/²Ü¼ÒºÀ/.iotlink/sdk/IoT_LINK/iot_link/network/lwm2m/wakaama_lwm2m/wakaama-master/core\data.c ****         *bufferP = (uint8_t *)lwm2m_malloc(dataP->value.asBuffer.length);
 667:C:/Users/²Ü¼ÒºÀ/.iotlink/sdk/IoT_LINK/iot_link/network/lwm2m/wakaama_lwm2m/wakaama-master/core\data.c ****         if (*bufferP == NULL) return -1;
ARM GAS  C:\Users\²Ü¼ÒºÀ\AppData\Local\Temp\cc2xoMwd.s 			page 76


 668:C:/Users/²Ü¼ÒºÀ/.iotlink/sdk/IoT_LINK/iot_link/network/lwm2m/wakaama_lwm2m/wakaama-master/core\data.c ****         memcpy(*bufferP, dataP->value.asBuffer.buffer, dataP->value.asBuffer.length);
 669:C:/Users/²Ü¼ÒºÀ/.iotlink/sdk/IoT_LINK/iot_link/network/lwm2m/wakaama_lwm2m/wakaama-master/core\data.c ****         return (int)dataP->value.asBuffer.length;
 670:C:/Users/²Ü¼ÒºÀ/.iotlink/sdk/IoT_LINK/iot_link/network/lwm2m/wakaama_lwm2m/wakaama-master/core\data.c **** 
 671:C:/Users/²Ü¼ÒºÀ/.iotlink/sdk/IoT_LINK/iot_link/network/lwm2m/wakaama_lwm2m/wakaama-master/core\data.c ****     case LWM2M_CONTENT_TLV:
 672:C:/Users/²Ü¼ÒºÀ/.iotlink/sdk/IoT_LINK/iot_link/network/lwm2m/wakaama_lwm2m/wakaama-master/core\data.c ****     case LWM2M_CONTENT_TLV_OLD:
 673:C:/Users/²Ü¼ÒºÀ/.iotlink/sdk/IoT_LINK/iot_link/network/lwm2m/wakaama_lwm2m/wakaama-master/core\data.c ****     {
 674:C:/Users/²Ü¼ÒºÀ/.iotlink/sdk/IoT_LINK/iot_link/network/lwm2m/wakaama_lwm2m/wakaama-master/core\data.c ****         bool isResourceInstance;
 675:C:/Users/²Ü¼ÒºÀ/.iotlink/sdk/IoT_LINK/iot_link/network/lwm2m/wakaama_lwm2m/wakaama-master/core\data.c **** 
 676:C:/Users/²Ü¼ÒºÀ/.iotlink/sdk/IoT_LINK/iot_link/network/lwm2m/wakaama_lwm2m/wakaama-master/core\data.c ****         if (uriP != NULL && LWM2M_URI_IS_SET_RESOURCE(uriP)
 677:C:/Users/²Ü¼ÒºÀ/.iotlink/sdk/IoT_LINK/iot_link/network/lwm2m/wakaama_lwm2m/wakaama-master/core\data.c ****                 && (size != 1 || dataP->id != uriP->resourceId))
 678:C:/Users/²Ü¼ÒºÀ/.iotlink/sdk/IoT_LINK/iot_link/network/lwm2m/wakaama_lwm2m/wakaama-master/core\data.c ****         {
 679:C:/Users/²Ü¼ÒºÀ/.iotlink/sdk/IoT_LINK/iot_link/network/lwm2m/wakaama_lwm2m/wakaama-master/core\data.c ****             isResourceInstance = true;
 680:C:/Users/²Ü¼ÒºÀ/.iotlink/sdk/IoT_LINK/iot_link/network/lwm2m/wakaama_lwm2m/wakaama-master/core\data.c ****         }
 681:C:/Users/²Ü¼ÒºÀ/.iotlink/sdk/IoT_LINK/iot_link/network/lwm2m/wakaama_lwm2m/wakaama-master/core\data.c ****         else
 682:C:/Users/²Ü¼ÒºÀ/.iotlink/sdk/IoT_LINK/iot_link/network/lwm2m/wakaama_lwm2m/wakaama-master/core\data.c ****         {
 683:C:/Users/²Ü¼ÒºÀ/.iotlink/sdk/IoT_LINK/iot_link/network/lwm2m/wakaama_lwm2m/wakaama-master/core\data.c ****             isResourceInstance = false;
 684:C:/Users/²Ü¼ÒºÀ/.iotlink/sdk/IoT_LINK/iot_link/network/lwm2m/wakaama_lwm2m/wakaama-master/core\data.c ****         }
 685:C:/Users/²Ü¼ÒºÀ/.iotlink/sdk/IoT_LINK/iot_link/network/lwm2m/wakaama_lwm2m/wakaama-master/core\data.c ****         return tlv_serialize(isResourceInstance, size, dataP, bufferP);
 686:C:/Users/²Ü¼ÒºÀ/.iotlink/sdk/IoT_LINK/iot_link/network/lwm2m/wakaama_lwm2m/wakaama-master/core\data.c ****     }
 687:C:/Users/²Ü¼ÒºÀ/.iotlink/sdk/IoT_LINK/iot_link/network/lwm2m/wakaama_lwm2m/wakaama-master/core\data.c **** 
 688:C:/Users/²Ü¼ÒºÀ/.iotlink/sdk/IoT_LINK/iot_link/network/lwm2m/wakaama_lwm2m/wakaama-master/core\data.c **** #ifdef LWM2M_CLIENT_MODE
 689:C:/Users/²Ü¼ÒºÀ/.iotlink/sdk/IoT_LINK/iot_link/network/lwm2m/wakaama_lwm2m/wakaama-master/core\data.c ****     case LWM2M_CONTENT_LINK:
 690:C:/Users/²Ü¼ÒºÀ/.iotlink/sdk/IoT_LINK/iot_link/network/lwm2m/wakaama_lwm2m/wakaama-master/core\data.c ****         return discover_serialize(NULL, uriP, NULL, size, dataP, bufferP);
 2930              		.loc 1 690 9 is_stmt 1 view .LVU665
 2931              		.loc 1 690 16 is_stmt 0 view .LVU666
 2932 0174 0022     		movs	r2, #0
 2933 0176 CDE90046 		strd	r4, r6, [sp]
 2934 017a 3B46     		mov	r3, r7
 2935 017c 2946     		mov	r1, r5
 2936 017e 1046     		mov	r0, r2
 2937 0180 FFF7FEFF 		bl	discover_serialize
 2938              	.LVL264:
 2939 0184 B2E0     		b	.L297
 2940              	.LVL265:
 2941              	.L198:
 625:C:/Users/²Ü¼ÒºÀ/.iotlink/sdk/IoT_LINK/iot_link/network/lwm2m/wakaama_lwm2m/wakaama-master/core\data.c ****     LOG_ARG("size: %d, formatP: %s", size, STR_MEDIA_TYPE(*formatP));
 2942              		.loc 1 625 5 is_stmt 1 discriminator 2 view .LVU667
 625:C:/Users/²Ü¼ÒºÀ/.iotlink/sdk/IoT_LINK/iot_link/network/lwm2m/wakaama_lwm2m/wakaama-master/core\data.c ****     LOG_ARG("size: %d, formatP: %s", size, STR_MEDIA_TYPE(*formatP));
 2943              		.loc 1 625 5 discriminator 2 view .LVU668
 2944 0186 FFF7FEFF 		bl	link_log_level_get
 2945              	.LVL266:
 625:C:/Users/²Ü¼ÒºÀ/.iotlink/sdk/IoT_LINK/iot_link/network/lwm2m/wakaama_lwm2m/wakaama-master/core\data.c ****     LOG_ARG("size: %d, formatP: %s", size, STR_MEDIA_TYPE(*formatP));
 2946              		.loc 1 625 5 is_stmt 0 discriminator 2 view .LVU669
 2947 018a 0128     		cmp	r0, #1
 2948 018c 17D8     		bhi	.L201
 625:C:/Users/²Ü¼ÒºÀ/.iotlink/sdk/IoT_LINK/iot_link/network/lwm2m/wakaama_lwm2m/wakaama-master/core\data.c ****     LOG_ARG("size: %d, formatP: %s", size, STR_MEDIA_TYPE(*formatP));
 2949              		.loc 1 625 5 is_stmt 1 discriminator 6 view .LVU670
 625:C:/Users/²Ü¼ÒºÀ/.iotlink/sdk/IoT_LINK/iot_link/network/lwm2m/wakaama_lwm2m/wakaama-master/core\data.c ****     LOG_ARG("size: %d, formatP: %s", size, STR_MEDIA_TYPE(*formatP));
 2950              		.loc 1 625 5 discriminator 6 view .LVU671
 625:C:/Users/²Ü¼ÒºÀ/.iotlink/sdk/IoT_LINK/iot_link/network/lwm2m/wakaama_lwm2m/wakaama-master/core\data.c ****     LOG_ARG("size: %d, formatP: %s", size, STR_MEDIA_TYPE(*formatP));
 2951              		.loc 1 625 5 discriminator 6 view .LVU672
 2952 018e 0120     		movs	r0, #1
 2953 0190 FFF7FEFF 		bl	link_log_level_name
 2954              	.LVL267:
 2955 0194 8146     		mov	r9, r0
 2956 0196 FFF7FEFF 		bl	osal_sys_time
 2957              	.LVL268:
ARM GAS  C:\Users\²Ü¼ÒºÀ\AppData\Local\Temp\cc2xoMwd.s 			page 77


 2958 019a 6B88     		ldrh	r3, [r5, #2]
 2959 019c 0293     		str	r3, [sp, #8]
 2960 019e 40F27123 		movw	r3, #625
 2961 01a2 0193     		str	r3, [sp, #4]
 2962 01a4 574B     		ldr	r3, .L305
 2963 01a6 0093     		str	r3, [sp]
 2964 01a8 0246     		mov	r2, r0
 2965 01aa 574B     		ldr	r3, .L305+4
 2966 01ac 5C48     		ldr	r0, .L305+28
 2967 01ae 4946     		mov	r1, r9
 2968 01b0 FFF7FEFF 		bl	printf
 2969              	.LVL269:
 625:C:/Users/²Ü¼ÒºÀ/.iotlink/sdk/IoT_LINK/iot_link/network/lwm2m/wakaama_lwm2m/wakaama-master/core\data.c ****     LOG_ARG("size: %d, formatP: %s", size, STR_MEDIA_TYPE(*formatP));
 2970              		.loc 1 625 5 discriminator 6 view .LVU673
 2971 01b4 564B     		ldr	r3, .L305+12
 2972 01b6 1B68     		ldr	r3, [r3]
 2973 01b8 9868     		ldr	r0, [r3, #8]
 2974 01ba FFF7FEFF 		bl	fflush
 2975              	.LVL270:
 2976              	.L201:
 625:C:/Users/²Ü¼ÒºÀ/.iotlink/sdk/IoT_LINK/iot_link/network/lwm2m/wakaama_lwm2m/wakaama-master/core\data.c ****     LOG_ARG("size: %d, formatP: %s", size, STR_MEDIA_TYPE(*formatP));
 2977              		.loc 1 625 5 discriminator 8 view .LVU674
 625:C:/Users/²Ü¼ÒºÀ/.iotlink/sdk/IoT_LINK/iot_link/network/lwm2m/wakaama_lwm2m/wakaama-master/core\data.c ****     LOG_ARG("size: %d, formatP: %s", size, STR_MEDIA_TYPE(*formatP));
 2978              		.loc 1 625 5 discriminator 8 view .LVU675
 625:C:/Users/²Ü¼ÒºÀ/.iotlink/sdk/IoT_LINK/iot_link/network/lwm2m/wakaama_lwm2m/wakaama-master/core\data.c ****     LOG_ARG("size: %d, formatP: %s", size, STR_MEDIA_TYPE(*formatP));
 2979              		.loc 1 625 5 discriminator 8 view .LVU676
 625:C:/Users/²Ü¼ÒºÀ/.iotlink/sdk/IoT_LINK/iot_link/network/lwm2m/wakaama_lwm2m/wakaama-master/core\data.c ****     LOG_ARG("size: %d, formatP: %s", size, STR_MEDIA_TYPE(*formatP));
 2980              		.loc 1 625 5 discriminator 8 view .LVU677
 2981 01be 2B78     		ldrb	r3, [r5]	@ zero_extendqisi2
 2982 01c0 9807     		lsls	r0, r3, #30
 2983 01c2 16D5     		bpl	.L203
 625:C:/Users/²Ü¼ÒºÀ/.iotlink/sdk/IoT_LINK/iot_link/network/lwm2m/wakaama_lwm2m/wakaama-master/core\data.c ****     LOG_ARG("size: %d, formatP: %s", size, STR_MEDIA_TYPE(*formatP));
 2984              		.loc 1 625 5 discriminator 9 view .LVU678
 625:C:/Users/²Ü¼ÒºÀ/.iotlink/sdk/IoT_LINK/iot_link/network/lwm2m/wakaama_lwm2m/wakaama-master/core\data.c ****     LOG_ARG("size: %d, formatP: %s", size, STR_MEDIA_TYPE(*formatP));
 2985              		.loc 1 625 5 discriminator 9 view .LVU679
 2986 01c4 FFF7FEFF 		bl	link_log_level_get
 2987              	.LVL271:
 2988 01c8 0128     		cmp	r0, #1
 2989 01ca 12D8     		bhi	.L203
 625:C:/Users/²Ü¼ÒºÀ/.iotlink/sdk/IoT_LINK/iot_link/network/lwm2m/wakaama_lwm2m/wakaama-master/core\data.c ****     LOG_ARG("size: %d, formatP: %s", size, STR_MEDIA_TYPE(*formatP));
 2990              		.loc 1 625 5 discriminator 11 view .LVU680
 625:C:/Users/²Ü¼ÒºÀ/.iotlink/sdk/IoT_LINK/iot_link/network/lwm2m/wakaama_lwm2m/wakaama-master/core\data.c ****     LOG_ARG("size: %d, formatP: %s", size, STR_MEDIA_TYPE(*formatP));
 2991              		.loc 1 625 5 discriminator 11 view .LVU681
 625:C:/Users/²Ü¼ÒºÀ/.iotlink/sdk/IoT_LINK/iot_link/network/lwm2m/wakaama_lwm2m/wakaama-master/core\data.c ****     LOG_ARG("size: %d, formatP: %s", size, STR_MEDIA_TYPE(*formatP));
 2992              		.loc 1 625 5 discriminator 11 view .LVU682
 2993 01cc 0120     		movs	r0, #1
 2994 01ce FFF7FEFF 		bl	link_log_level_name
 2995              	.LVL272:
 2996 01d2 8146     		mov	r9, r0
 2997 01d4 FFF7FEFF 		bl	osal_sys_time
 2998              	.LVL273:
 2999 01d8 AB88     		ldrh	r3, [r5, #4]
 3000 01da 0093     		str	r3, [sp]
 3001 01dc 0246     		mov	r2, r0
 3002 01de 4A4B     		ldr	r3, .L305+4
 3003 01e0 5048     		ldr	r0, .L305+32
 3004 01e2 4946     		mov	r1, r9
ARM GAS  C:\Users\²Ü¼ÒºÀ\AppData\Local\Temp\cc2xoMwd.s 			page 78


 3005 01e4 FFF7FEFF 		bl	printf
 3006              	.LVL274:
 625:C:/Users/²Ü¼ÒºÀ/.iotlink/sdk/IoT_LINK/iot_link/network/lwm2m/wakaama_lwm2m/wakaama-master/core\data.c ****     LOG_ARG("size: %d, formatP: %s", size, STR_MEDIA_TYPE(*formatP));
 3007              		.loc 1 625 5 discriminator 11 view .LVU683
 3008 01e8 494B     		ldr	r3, .L305+12
 3009 01ea 1B68     		ldr	r3, [r3]
 3010 01ec 9868     		ldr	r0, [r3, #8]
 3011 01ee FFF7FEFF 		bl	fflush
 3012              	.LVL275:
 3013              	.L203:
 625:C:/Users/²Ü¼ÒºÀ/.iotlink/sdk/IoT_LINK/iot_link/network/lwm2m/wakaama_lwm2m/wakaama-master/core\data.c ****     LOG_ARG("size: %d, formatP: %s", size, STR_MEDIA_TYPE(*formatP));
 3014              		.loc 1 625 5 discriminator 13 view .LVU684
 625:C:/Users/²Ü¼ÒºÀ/.iotlink/sdk/IoT_LINK/iot_link/network/lwm2m/wakaama_lwm2m/wakaama-master/core\data.c ****     LOG_ARG("size: %d, formatP: %s", size, STR_MEDIA_TYPE(*formatP));
 3015              		.loc 1 625 5 discriminator 13 view .LVU685
 625:C:/Users/²Ü¼ÒºÀ/.iotlink/sdk/IoT_LINK/iot_link/network/lwm2m/wakaama_lwm2m/wakaama-master/core\data.c ****     LOG_ARG("size: %d, formatP: %s", size, STR_MEDIA_TYPE(*formatP));
 3016              		.loc 1 625 5 discriminator 13 view .LVU686
 625:C:/Users/²Ü¼ÒºÀ/.iotlink/sdk/IoT_LINK/iot_link/network/lwm2m/wakaama_lwm2m/wakaama-master/core\data.c ****     LOG_ARG("size: %d, formatP: %s", size, STR_MEDIA_TYPE(*formatP));
 3017              		.loc 1 625 5 discriminator 13 view .LVU687
 3018 01f2 2B78     		ldrb	r3, [r5]	@ zero_extendqisi2
 3019 01f4 D907     		lsls	r1, r3, #31
 3020 01f6 16D5     		bpl	.L206
 625:C:/Users/²Ü¼ÒºÀ/.iotlink/sdk/IoT_LINK/iot_link/network/lwm2m/wakaama_lwm2m/wakaama-master/core\data.c ****     LOG_ARG("size: %d, formatP: %s", size, STR_MEDIA_TYPE(*formatP));
 3021              		.loc 1 625 5 discriminator 14 view .LVU688
 625:C:/Users/²Ü¼ÒºÀ/.iotlink/sdk/IoT_LINK/iot_link/network/lwm2m/wakaama_lwm2m/wakaama-master/core\data.c ****     LOG_ARG("size: %d, formatP: %s", size, STR_MEDIA_TYPE(*formatP));
 3022              		.loc 1 625 5 discriminator 14 view .LVU689
 3023 01f8 FFF7FEFF 		bl	link_log_level_get
 3024              	.LVL276:
 3025 01fc 0128     		cmp	r0, #1
 3026 01fe 12D8     		bhi	.L206
 625:C:/Users/²Ü¼ÒºÀ/.iotlink/sdk/IoT_LINK/iot_link/network/lwm2m/wakaama_lwm2m/wakaama-master/core\data.c ****     LOG_ARG("size: %d, formatP: %s", size, STR_MEDIA_TYPE(*formatP));
 3027              		.loc 1 625 5 discriminator 16 view .LVU690
 625:C:/Users/²Ü¼ÒºÀ/.iotlink/sdk/IoT_LINK/iot_link/network/lwm2m/wakaama_lwm2m/wakaama-master/core\data.c ****     LOG_ARG("size: %d, formatP: %s", size, STR_MEDIA_TYPE(*formatP));
 3028              		.loc 1 625 5 discriminator 16 view .LVU691
 625:C:/Users/²Ü¼ÒºÀ/.iotlink/sdk/IoT_LINK/iot_link/network/lwm2m/wakaama_lwm2m/wakaama-master/core\data.c ****     LOG_ARG("size: %d, formatP: %s", size, STR_MEDIA_TYPE(*formatP));
 3029              		.loc 1 625 5 discriminator 16 view .LVU692
 3030 0200 0120     		movs	r0, #1
 3031 0202 FFF7FEFF 		bl	link_log_level_name
 3032              	.LVL277:
 3033 0206 8146     		mov	r9, r0
 3034 0208 FFF7FEFF 		bl	osal_sys_time
 3035              	.LVL278:
 3036 020c EB88     		ldrh	r3, [r5, #6]
 3037 020e 0093     		str	r3, [sp]
 3038 0210 0246     		mov	r2, r0
 3039 0212 3D4B     		ldr	r3, .L305+4
 3040 0214 4348     		ldr	r0, .L305+32
 3041 0216 4946     		mov	r1, r9
 3042 0218 FFF7FEFF 		bl	printf
 3043              	.LVL279:
 625:C:/Users/²Ü¼ÒºÀ/.iotlink/sdk/IoT_LINK/iot_link/network/lwm2m/wakaama_lwm2m/wakaama-master/core\data.c ****     LOG_ARG("size: %d, formatP: %s", size, STR_MEDIA_TYPE(*formatP));
 3044              		.loc 1 625 5 discriminator 16 view .LVU693
 3045 021c 3C4B     		ldr	r3, .L305+12
 3046 021e 1B68     		ldr	r3, [r3]
 3047 0220 9868     		ldr	r0, [r3, #8]
 3048 0222 FFF7FEFF 		bl	fflush
 3049              	.LVL280:
 3050              	.L206:
ARM GAS  C:\Users\²Ü¼ÒºÀ\AppData\Local\Temp\cc2xoMwd.s 			page 79


 625:C:/Users/²Ü¼ÒºÀ/.iotlink/sdk/IoT_LINK/iot_link/network/lwm2m/wakaama_lwm2m/wakaama-master/core\data.c ****     LOG_ARG("size: %d, formatP: %s", size, STR_MEDIA_TYPE(*formatP));
 3051              		.loc 1 625 5 discriminator 18 view .LVU694
 625:C:/Users/²Ü¼ÒºÀ/.iotlink/sdk/IoT_LINK/iot_link/network/lwm2m/wakaama_lwm2m/wakaama-master/core\data.c ****     LOG_ARG("size: %d, formatP: %s", size, STR_MEDIA_TYPE(*formatP));
 3052              		.loc 1 625 5 discriminator 18 view .LVU695
 625:C:/Users/²Ü¼ÒºÀ/.iotlink/sdk/IoT_LINK/iot_link/network/lwm2m/wakaama_lwm2m/wakaama-master/core\data.c ****     LOG_ARG("size: %d, formatP: %s", size, STR_MEDIA_TYPE(*formatP));
 3053              		.loc 1 625 5 discriminator 18 view .LVU696
 625:C:/Users/²Ü¼ÒºÀ/.iotlink/sdk/IoT_LINK/iot_link/network/lwm2m/wakaama_lwm2m/wakaama-master/core\data.c ****     LOG_ARG("size: %d, formatP: %s", size, STR_MEDIA_TYPE(*formatP));
 3054              		.loc 1 625 5 discriminator 18 view .LVU697
 625:C:/Users/²Ü¼ÒºÀ/.iotlink/sdk/IoT_LINK/iot_link/network/lwm2m/wakaama_lwm2m/wakaama-master/core\data.c ****     LOG_ARG("size: %d, formatP: %s", size, STR_MEDIA_TYPE(*formatP));
 3055              		.loc 1 625 5 discriminator 18 view .LVU698
 3056 0226 FFF7FEFF 		bl	link_log_level_get
 3057              	.LVL281:
 3058 022a 0128     		cmp	r0, #1
 3059 022c 3FF60DAF 		bhi	.L200
 625:C:/Users/²Ü¼ÒºÀ/.iotlink/sdk/IoT_LINK/iot_link/network/lwm2m/wakaama_lwm2m/wakaama-master/core\data.c ****     LOG_ARG("size: %d, formatP: %s", size, STR_MEDIA_TYPE(*formatP));
 3060              		.loc 1 625 5 discriminator 19 view .LVU699
 625:C:/Users/²Ü¼ÒºÀ/.iotlink/sdk/IoT_LINK/iot_link/network/lwm2m/wakaama_lwm2m/wakaama-master/core\data.c ****     LOG_ARG("size: %d, formatP: %s", size, STR_MEDIA_TYPE(*formatP));
 3061              		.loc 1 625 5 discriminator 19 view .LVU700
 625:C:/Users/²Ü¼ÒºÀ/.iotlink/sdk/IoT_LINK/iot_link/network/lwm2m/wakaama_lwm2m/wakaama-master/core\data.c ****     LOG_ARG("size: %d, formatP: %s", size, STR_MEDIA_TYPE(*formatP));
 3062              		.loc 1 625 5 discriminator 19 view .LVU701
 3063 0230 0120     		movs	r0, #1
 3064 0232 FFF7FEFF 		bl	link_log_level_name
 3065              	.LVL282:
 3066 0236 8146     		mov	r9, r0
 3067 0238 FFF7FEFF 		bl	osal_sys_time
 3068              	.LVL283:
 3069 023c 324B     		ldr	r3, .L305+4
 3070 023e 0246     		mov	r2, r0
 3071 0240 4946     		mov	r1, r9
 3072 0242 3948     		ldr	r0, .L305+36
 3073 0244 FFF7FEFF 		bl	printf
 3074              	.LVL284:
 3075 0248 FAE6     		b	.L296
 3076              	.L249:
 626:C:/Users/²Ü¼ÒºÀ/.iotlink/sdk/IoT_LINK/iot_link/network/lwm2m/wakaama_lwm2m/wakaama-master/core\data.c **** 
 3077              		.loc 1 626 5 is_stmt 0 view .LVU702
 3078 024a 384B     		ldr	r3, .L305+40
 3079 024c 23E7     		b	.L210
 3080              	.L250:
 3081 024e 384B     		ldr	r3, .L305+44
 3082 0250 21E7     		b	.L210
 3083              	.L251:
 3084 0252 384B     		ldr	r3, .L305+48
 3085 0254 1FE7     		b	.L210
 3086              	.L252:
 3087 0256 384B     		ldr	r3, .L305+52
 3088 0258 1DE7     		b	.L210
 3089              	.L215:
 646:C:/Users/²Ü¼ÒºÀ/.iotlink/sdk/IoT_LINK/iot_link/network/lwm2m/wakaama_lwm2m/wakaama-master/core\data.c ****             && dataP->type != LWM2M_TYPE_OPAQUE)
 3090              		.loc 1 646 5 is_stmt 1 view .LVU703
 646:C:/Users/²Ü¼ÒºÀ/.iotlink/sdk/IoT_LINK/iot_link/network/lwm2m/wakaama_lwm2m/wakaama-master/core\data.c ****             && dataP->type != LWM2M_TYPE_OPAQUE)
 3091              		.loc 1 646 8 is_stmt 0 view .LVU704
 3092 025a 2A2B     		cmp	r3, #42
 3093 025c 7FF441AF 		bne	.L212
 647:C:/Users/²Ü¼ÒºÀ/.iotlink/sdk/IoT_LINK/iot_link/network/lwm2m/wakaama_lwm2m/wakaama-master/core\data.c ****     {
 3094              		.loc 1 647 13 view .LVU705
 3095 0260 052A     		cmp	r2, #5
ARM GAS  C:\Users\²Ü¼ÒºÀ\AppData\Local\Temp\cc2xoMwd.s 			page 80


 3096 0262 3FF43EAF 		beq	.L212
 649:C:/Users/²Ü¼ÒºÀ/.iotlink/sdk/IoT_LINK/iot_link/network/lwm2m/wakaama_lwm2m/wakaama-master/core\data.c ****         return -1;
 3097              		.loc 1 649 9 is_stmt 1 view .LVU706
 649:C:/Users/²Ü¼ÒºÀ/.iotlink/sdk/IoT_LINK/iot_link/network/lwm2m/wakaama_lwm2m/wakaama-master/core\data.c ****         return -1;
 3098              		.loc 1 649 9 view .LVU707
 3099 0266 FFF7FEFF 		bl	link_log_level_get
 3100              	.LVL285:
 3101 026a 0128     		cmp	r0, #1
 3102 026c 02D9     		bls	.L216
 3103              	.LVL286:
 3104              	.L259:
 3105              	.LBB30:
 3106              	.LBB31:
  72:C:/Users/²Ü¼ÒºÀ/.iotlink/sdk/IoT_LINK/iot_link/network/lwm2m/wakaama_lwm2m/wakaama-master/core\data.c ****     {
 3107              		.loc 1 72 18 is_stmt 0 view .LVU708
 3108 026e 4FF0FF34 		mov	r4, #-1
 3109 0272 6EE0     		b	.L197
 3110              	.LVL287:
 3111              	.L216:
  72:C:/Users/²Ü¼ÒºÀ/.iotlink/sdk/IoT_LINK/iot_link/network/lwm2m/wakaama_lwm2m/wakaama-master/core\data.c ****     {
 3112              		.loc 1 72 18 view .LVU709
 3113              	.LBE31:
 3114              	.LBE30:
 649:C:/Users/²Ü¼ÒºÀ/.iotlink/sdk/IoT_LINK/iot_link/network/lwm2m/wakaama_lwm2m/wakaama-master/core\data.c ****         return -1;
 3115              		.loc 1 649 9 is_stmt 1 discriminator 1 view .LVU710
 649:C:/Users/²Ü¼ÒºÀ/.iotlink/sdk/IoT_LINK/iot_link/network/lwm2m/wakaama_lwm2m/wakaama-master/core\data.c ****         return -1;
 3116              		.loc 1 649 9 discriminator 1 view .LVU711
 649:C:/Users/²Ü¼ÒºÀ/.iotlink/sdk/IoT_LINK/iot_link/network/lwm2m/wakaama_lwm2m/wakaama-master/core\data.c ****         return -1;
 3117              		.loc 1 649 9 discriminator 1 view .LVU712
 3118 0274 0120     		movs	r0, #1
 3119 0276 FFF7FEFF 		bl	link_log_level_name
 3120              	.LVL288:
 3121 027a 0446     		mov	r4, r0
 3122              	.LVL289:
 649:C:/Users/²Ü¼ÒºÀ/.iotlink/sdk/IoT_LINK/iot_link/network/lwm2m/wakaama_lwm2m/wakaama-master/core\data.c ****         return -1;
 3123              		.loc 1 649 9 is_stmt 0 discriminator 1 view .LVU713
 3124 027c FFF7FEFF 		bl	osal_sys_time
 3125              	.LVL290:
 3126 0280 0790     		str	r0, [sp, #28]
 3127 0282 FFF7FEFF 		bl	lwm2m_gettime
 3128              	.LVL291:
 3129 0286 40F28923 		movw	r3, #649
 3130 028a 0293     		str	r3, [sp, #8]
 3131 028c 1D4B     		ldr	r3, .L305
 3132 028e 079A     		ldr	r2, [sp, #28]
 3133 0290 CDE90003 		strd	r0, r3, [sp]
 3134 0294 2146     		mov	r1, r4
 3135 0296 1C4B     		ldr	r3, .L305+4
 3136 0298 2848     		ldr	r0, .L305+56
 3137 029a FFF7FEFF 		bl	printf
 3138              	.LVL292:
 649:C:/Users/²Ü¼ÒºÀ/.iotlink/sdk/IoT_LINK/iot_link/network/lwm2m/wakaama_lwm2m/wakaama-master/core\data.c ****         return -1;
 3139              		.loc 1 649 9 is_stmt 1 discriminator 1 view .LVU714
 3140 029e 1C4B     		ldr	r3, .L305+12
 3141 02a0 1B68     		ldr	r3, [r3]
 3142 02a2 9868     		ldr	r0, [r3, #8]
 3143 02a4 FFF7FEFF 		bl	fflush
ARM GAS  C:\Users\²Ü¼ÒºÀ\AppData\Local\Temp\cc2xoMwd.s 			page 81


 3144              	.LVL293:
 3145 02a8 E1E7     		b	.L259
 3146              	.LVL294:
 3147              	.L254:
 658:C:/Users/²Ü¼ÒºÀ/.iotlink/sdk/IoT_LINK/iot_link/network/lwm2m/wakaama_lwm2m/wakaama-master/core\data.c **** 
 3148              		.loc 1 658 5 is_stmt 0 view .LVU715
 3149 02aa 204B     		ldr	r3, .L305+40
 3150 02ac 45E7     		b	.L219
 3151              	.L255:
 3152 02ae 204B     		ldr	r3, .L305+44
 3153 02b0 43E7     		b	.L219
 3154              	.L256:
 3155 02b2 204B     		ldr	r3, .L305+48
 3156 02b4 41E7     		b	.L219
 3157              	.L257:
 3158 02b6 204B     		ldr	r3, .L305+52
 3159 02b8 3FE7     		b	.L219
 3160              	.L221:
 660:C:/Users/²Ü¼ÒºÀ/.iotlink/sdk/IoT_LINK/iot_link/network/lwm2m/wakaama_lwm2m/wakaama-master/core\data.c ****     {
 3161              		.loc 1 660 5 view .LVU716
 3162 02ba 40F20662 		movw	r2, #1542
 3163 02be 9342     		cmp	r3, r2
 3164 02c0 03D0     		beq	.L224
 3165 02c2 42F61652 		movw	r2, #11542
 3166 02c6 9342     		cmp	r3, r2
 3167 02c8 D1D1     		bne	.L259
 3168              	.L224:
 3169              	.LBB40:
 674:C:/Users/²Ü¼ÒºÀ/.iotlink/sdk/IoT_LINK/iot_link/network/lwm2m/wakaama_lwm2m/wakaama-master/core\data.c **** 
 3170              		.loc 1 674 9 is_stmt 1 discriminator 1 view .LVU717
 676:C:/Users/²Ü¼ÒºÀ/.iotlink/sdk/IoT_LINK/iot_link/network/lwm2m/wakaama_lwm2m/wakaama-master/core\data.c ****                 && (size != 1 || dataP->id != uriP->resourceId))
 3171              		.loc 1 676 9 discriminator 1 view .LVU718
 676:C:/Users/²Ü¼ÒºÀ/.iotlink/sdk/IoT_LINK/iot_link/network/lwm2m/wakaama_lwm2m/wakaama-master/core\data.c ****                 && (size != 1 || dataP->id != uriP->resourceId))
 3172              		.loc 1 676 26 is_stmt 0 discriminator 1 view .LVU719
 3173 02ca 2878     		ldrb	r0, [r5]	@ zero_extendqisi2
 3174 02cc 10F00100 		ands	r0, r0, #1
 3175 02d0 07D0     		beq	.L246
 677:C:/Users/²Ü¼ÒºÀ/.iotlink/sdk/IoT_LINK/iot_link/network/lwm2m/wakaama_lwm2m/wakaama-master/core\data.c ****         {
 3176              		.loc 1 677 17 view .LVU720
 3177 02d2 012F     		cmp	r7, #1
 3178 02d4 40F0AB80 		bne	.L262
 677:C:/Users/²Ü¼ÒºÀ/.iotlink/sdk/IoT_LINK/iot_link/network/lwm2m/wakaama_lwm2m/wakaama-master/core\data.c ****         {
 3179              		.loc 1 677 31 discriminator 1 view .LVU721
 3180 02d8 6088     		ldrh	r0, [r4, #2]
 3181 02da EB88     		ldrh	r3, [r5, #6]
 3182 02dc C01A     		subs	r0, r0, r3
 3183 02de 18BF     		it	ne
 3184 02e0 0120     		movne	r0, #1
 3185              	.L246:
 3186              	.LVL295:
 685:C:/Users/²Ü¼ÒºÀ/.iotlink/sdk/IoT_LINK/iot_link/network/lwm2m/wakaama_lwm2m/wakaama-master/core\data.c ****     }
 3187              		.loc 1 685 9 is_stmt 1 view .LVU722
 685:C:/Users/²Ü¼ÒºÀ/.iotlink/sdk/IoT_LINK/iot_link/network/lwm2m/wakaama_lwm2m/wakaama-master/core\data.c ****     }
 3188              		.loc 1 685 16 is_stmt 0 view .LVU723
 3189 02e2 3346     		mov	r3, r6
 3190 02e4 2246     		mov	r2, r4
 3191 02e6 3946     		mov	r1, r7
ARM GAS  C:\Users\²Ü¼ÒºÀ\AppData\Local\Temp\cc2xoMwd.s 			page 82


 3192 02e8 FFF7FEFF 		bl	tlv_serialize
 3193              	.LVL296:
 3194              	.L297:
 685:C:/Users/²Ü¼ÒºÀ/.iotlink/sdk/IoT_LINK/iot_link/network/lwm2m/wakaama_lwm2m/wakaama-master/core\data.c ****     }
 3195              		.loc 1 685 16 view .LVU724
 3196              	.LBE40:
 3197              		.loc 1 690 16 view .LVU725
 3198 02ec 0446     		mov	r4, r0
 3199              	.LVL297:
 3200              		.loc 1 690 16 view .LVU726
 3201 02ee 30E0     		b	.L197
 3202              	.LVL298:
 3203              	.L222:
 663:C:/Users/²Ü¼ÒºÀ/.iotlink/sdk/IoT_LINK/iot_link/network/lwm2m/wakaama_lwm2m/wakaama-master/core\data.c **** 
 3204              		.loc 1 663 9 is_stmt 1 view .LVU727
 3205              	.LBB41:
 3206              	.LBI30:
  67:C:/Users/²Ü¼ÒºÀ/.iotlink/sdk/IoT_LINK/iot_link/network/lwm2m/wakaama_lwm2m/wakaama-master/core\data.c ****                              uint8_t **bufferP)
 3207              		.loc 1 67 12 view .LVU728
 3208              	.LBB38:
  70:C:/Users/²Ü¼ÒºÀ/.iotlink/sdk/IoT_LINK/iot_link/network/lwm2m/wakaama_lwm2m/wakaama-master/core\data.c **** 
 3209              		.loc 1 70 5 view .LVU729
  72:C:/Users/²Ü¼ÒºÀ/.iotlink/sdk/IoT_LINK/iot_link/network/lwm2m/wakaama_lwm2m/wakaama-master/core\data.c ****     {
 3210              		.loc 1 72 5 view .LVU730
 3211 02f0 2378     		ldrb	r3, [r4]	@ zero_extendqisi2
 3212 02f2 043B     		subs	r3, r3, #4
 3213 02f4 052B     		cmp	r3, #5
 3214 02f6 BAD8     		bhi	.L259
 3215 02f8 DFE803F0 		tbb	[pc, r3]
 3216              	.L226:
 3217 02fc 24       		.byte	(.L231-.L226)/2
 3218 02fd 75       		.byte	(.L230-.L226)/2
 3219 02fe 2F       		.byte	(.L229-.L226)/2
 3220 02ff 45       		.byte	(.L228-.L226)/2
 3221 0300 4C       		.byte	(.L227-.L226)/2
 3222 0301 5B       		.byte	(.L225-.L226)/2
 3223              		.p2align 1
 3224              	.L306:
 3225 0302 00BF     		.align	2
 3226              	.L305:
 3227 0304 00000000 		.word	.LANCHOR31
 3228 0308 00000000 		.word	.LANCHOR30
 3229 030c 9F000000 		.word	.LC22
 3230 0310 00000000 		.word	_impure_ptr
 3231 0314 3A000000 		.word	.LC18
 3232 0318 00000000 		.word	.LC26
 3233 031c 7F000000 		.word	.LC28
 3234 0320 BD000000 		.word	.LC23
 3235 0324 D8000000 		.word	.LC24
 3236 0328 EB000000 		.word	.LC25
 3237 032c 15000000 		.word	.LC16
 3238 0330 4D000000 		.word	.LC19
 3239 0334 00000000 		.word	.LC15
 3240 0338 28000000 		.word	.LC17
 3241 033c 33000000 		.word	.LC27
 3242 0340 60000000 		.word	.LC20
 3243              	.L231:
ARM GAS  C:\Users\²Ü¼ÒºÀ\AppData\Local\Temp\cc2xoMwd.s 			page 83


  75:C:/Users/²Ü¼ÒºÀ/.iotlink/sdk/IoT_LINK/iot_link/network/lwm2m/wakaama_lwm2m/wakaama-master/core\data.c ****         if (*bufferP == NULL) return 0;
 3244              		.loc 1 75 9 view .LVU731
  75:C:/Users/²Ü¼ÒºÀ/.iotlink/sdk/IoT_LINK/iot_link/network/lwm2m/wakaama_lwm2m/wakaama-master/core\data.c ****         if (*bufferP == NULL) return 0;
 3245              		.loc 1 75 31 is_stmt 0 view .LVU732
 3246 0344 A068     		ldr	r0, [r4, #8]
 3247 0346 FFF7FEFF 		bl	lwm2m_malloc
 3248              	.LVL299:
  75:C:/Users/²Ü¼ÒºÀ/.iotlink/sdk/IoT_LINK/iot_link/network/lwm2m/wakaama_lwm2m/wakaama-master/core\data.c ****         if (*bufferP == NULL) return 0;
 3249              		.loc 1 75 18 view .LVU733
 3250 034a 3060     		str	r0, [r6]
  76:C:/Users/²Ü¼ÒºÀ/.iotlink/sdk/IoT_LINK/iot_link/network/lwm2m/wakaama_lwm2m/wakaama-master/core\data.c ****         memcpy(*bufferP, dataP->value.asBuffer.buffer, dataP->value.asBuffer.length);
 3251              		.loc 1 76 9 is_stmt 1 view .LVU734
  76:C:/Users/²Ü¼ÒºÀ/.iotlink/sdk/IoT_LINK/iot_link/network/lwm2m/wakaama_lwm2m/wakaama-master/core\data.c ****         memcpy(*bufferP, dataP->value.asBuffer.buffer, dataP->value.asBuffer.length);
 3252              		.loc 1 76 12 is_stmt 0 view .LVU735
 3253 034c 0028     		cmp	r0, #0
 3254 034e 68D1     		bne	.L298
 3255              	.L244:
  76:C:/Users/²Ü¼ÒºÀ/.iotlink/sdk/IoT_LINK/iot_link/network/lwm2m/wakaama_lwm2m/wakaama-master/core\data.c ****         memcpy(*bufferP, dataP->value.asBuffer.buffer, dataP->value.asBuffer.length);
 3256              		.loc 1 76 38 view .LVU736
 3257 0350 0024     		movs	r4, #0
 3258              	.LVL300:
 3259              	.L197:
  76:C:/Users/²Ü¼ÒºÀ/.iotlink/sdk/IoT_LINK/iot_link/network/lwm2m/wakaama_lwm2m/wakaama-master/core\data.c ****         memcpy(*bufferP, dataP->value.asBuffer.buffer, dataP->value.asBuffer.length);
 3260              		.loc 1 76 38 view .LVU737
 3261              	.LBE38:
 3262              	.LBE41:
 691:C:/Users/²Ü¼ÒºÀ/.iotlink/sdk/IoT_LINK/iot_link/network/lwm2m/wakaama_lwm2m/wakaama-master/core\data.c **** #endif
 692:C:/Users/²Ü¼ÒºÀ/.iotlink/sdk/IoT_LINK/iot_link/network/lwm2m/wakaama_lwm2m/wakaama-master/core\data.c **** #ifdef LWM2M_SUPPORT_JSON
 693:C:/Users/²Ü¼ÒºÀ/.iotlink/sdk/IoT_LINK/iot_link/network/lwm2m/wakaama_lwm2m/wakaama-master/core\data.c ****     case LWM2M_CONTENT_JSON:
 694:C:/Users/²Ü¼ÒºÀ/.iotlink/sdk/IoT_LINK/iot_link/network/lwm2m/wakaama_lwm2m/wakaama-master/core\data.c ****     case LWM2M_CONTENT_JSON_OLD:
 695:C:/Users/²Ü¼ÒºÀ/.iotlink/sdk/IoT_LINK/iot_link/network/lwm2m/wakaama_lwm2m/wakaama-master/core\data.c ****         return json_serialize(uriP, size, dataP, bufferP);
 696:C:/Users/²Ü¼ÒºÀ/.iotlink/sdk/IoT_LINK/iot_link/network/lwm2m/wakaama_lwm2m/wakaama-master/core\data.c **** #endif
 697:C:/Users/²Ü¼ÒºÀ/.iotlink/sdk/IoT_LINK/iot_link/network/lwm2m/wakaama_lwm2m/wakaama-master/core\data.c **** 
 698:C:/Users/²Ü¼ÒºÀ/.iotlink/sdk/IoT_LINK/iot_link/network/lwm2m/wakaama_lwm2m/wakaama-master/core\data.c ****     default:
 699:C:/Users/²Ü¼ÒºÀ/.iotlink/sdk/IoT_LINK/iot_link/network/lwm2m/wakaama_lwm2m/wakaama-master/core\data.c ****         return -1;
 700:C:/Users/²Ü¼ÒºÀ/.iotlink/sdk/IoT_LINK/iot_link/network/lwm2m/wakaama_lwm2m/wakaama-master/core\data.c ****     }
 701:C:/Users/²Ü¼ÒºÀ/.iotlink/sdk/IoT_LINK/iot_link/network/lwm2m/wakaama_lwm2m/wakaama-master/core\data.c **** }
 3263              		.loc 1 701 1 view .LVU738
 3264 0352 2046     		mov	r0, r4
 3265 0354 19B0     		add	sp, sp, #100
 3266              	.LCFI64:
 3267              		.cfi_remember_state
 3268              		.cfi_def_cfa_offset 28
 3269              		@ sp needed
 3270 0356 BDE8F083 		pop	{r4, r5, r6, r7, r8, r9, pc}
 3271              	.LVL301:
 3272              	.L229:
 3273              	.LCFI65:
 3274              		.cfi_restore_state
 3275              	.LBB42:
 3276              	.LBB39:
 3277              	.LBB32:
  82:C:/Users/²Ü¼ÒºÀ/.iotlink/sdk/IoT_LINK/iot_link/network/lwm2m/wakaama_lwm2m/wakaama-master/core\data.c **** 
 3278              		.loc 1 82 9 is_stmt 1 view .LVU739
  84:C:/Users/²Ü¼ÒºÀ/.iotlink/sdk/IoT_LINK/iot_link/network/lwm2m/wakaama_lwm2m/wakaama-master/core\data.c ****         if (res == 0) return -1;
 3279              		.loc 1 84 9 view .LVU740
  84:C:/Users/²Ü¼ÒºÀ/.iotlink/sdk/IoT_LINK/iot_link/network/lwm2m/wakaama_lwm2m/wakaama-master/core\data.c ****         if (res == 0) return -1;
ARM GAS  C:\Users\²Ü¼ÒºÀ\AppData\Local\Temp\cc2xoMwd.s 			page 84


 3280              		.loc 1 84 15 is_stmt 0 view .LVU741
 3281 035a 2023     		movs	r3, #32
 3282 035c D4E90201 		ldrd	r0, [r4, #8]
 3283 0360 0DEB0302 		add	r2, sp, r3
 3284 0364 FFF7FEFF 		bl	utils_intToText
 3285              	.LVL302:
 3286              	.L304:
  84:C:/Users/²Ü¼ÒºÀ/.iotlink/sdk/IoT_LINK/iot_link/network/lwm2m/wakaama_lwm2m/wakaama-master/core\data.c ****         if (res == 0) return -1;
 3287              		.loc 1 84 15 view .LVU742
 3288              	.LBE32:
 3289              	.LBB33:
 100:C:/Users/²Ü¼ÒºÀ/.iotlink/sdk/IoT_LINK/iot_link/network/lwm2m/wakaama_lwm2m/wakaama-master/core\data.c **** 
 3290              		.loc 1 100 9 is_stmt 1 view .LVU743
 100:C:/Users/²Ü¼ÒºÀ/.iotlink/sdk/IoT_LINK/iot_link/network/lwm2m/wakaama_lwm2m/wakaama-master/core\data.c **** 
 3291              		.loc 1 100 12 is_stmt 0 view .LVU744
 3292 0368 0446     		mov	r4, r0
 3293              	.LVL303:
 100:C:/Users/²Ü¼ÒºÀ/.iotlink/sdk/IoT_LINK/iot_link/network/lwm2m/wakaama_lwm2m/wakaama-master/core\data.c **** 
 3294              		.loc 1 100 12 view .LVU745
 3295 036a 0028     		cmp	r0, #0
 3296 036c 3FF47FAF 		beq	.L259
 3297              	.LVL304:
 3298              	.L301:
 100:C:/Users/²Ü¼ÒºÀ/.iotlink/sdk/IoT_LINK/iot_link/network/lwm2m/wakaama_lwm2m/wakaama-master/core\data.c **** 
 3299              		.loc 1 100 12 view .LVU746
 3300              	.LBE33:
 3301              	.LBB34:
 134:C:/Users/²Ü¼ÒºÀ/.iotlink/sdk/IoT_LINK/iot_link/network/lwm2m/wakaama_lwm2m/wakaama-master/core\data.c ****         if (*bufferP == NULL) return -1;
 3302              		.loc 1 134 31 view .LVU747
 3303 0370 FFF7FEFF 		bl	lwm2m_malloc
 3304              	.LVL305:
 134:C:/Users/²Ü¼ÒºÀ/.iotlink/sdk/IoT_LINK/iot_link/network/lwm2m/wakaama_lwm2m/wakaama-master/core\data.c ****         if (*bufferP == NULL) return -1;
 3305              		.loc 1 134 18 view .LVU748
 3306 0374 3060     		str	r0, [r6]
 135:C:/Users/²Ü¼ÒºÀ/.iotlink/sdk/IoT_LINK/iot_link/network/lwm2m/wakaama_lwm2m/wakaama-master/core\data.c **** 
 3307              		.loc 1 135 9 is_stmt 1 view .LVU749
 135:C:/Users/²Ü¼ÒºÀ/.iotlink/sdk/IoT_LINK/iot_link/network/lwm2m/wakaama_lwm2m/wakaama-master/core\data.c **** 
 3308              		.loc 1 135 12 is_stmt 0 view .LVU750
 3309 0376 0028     		cmp	r0, #0
 3310 0378 3FF479AF 		beq	.L259
 137:C:/Users/²Ü¼ÒºÀ/.iotlink/sdk/IoT_LINK/iot_link/network/lwm2m/wakaama_lwm2m/wakaama-master/core\data.c **** 
 3311              		.loc 1 137 9 is_stmt 1 view .LVU751
 3312 037c 2246     		mov	r2, r4
 3313 037e 08A9     		add	r1, sp, #32
 3314 0380 FFF7FEFF 		bl	memcpy
 3315              	.LVL306:
 139:C:/Users/²Ü¼ÒºÀ/.iotlink/sdk/IoT_LINK/iot_link/network/lwm2m/wakaama_lwm2m/wakaama-master/core\data.c ****     }
 3316              		.loc 1 139 9 view .LVU752
 139:C:/Users/²Ü¼ÒºÀ/.iotlink/sdk/IoT_LINK/iot_link/network/lwm2m/wakaama_lwm2m/wakaama-master/core\data.c ****     }
 3317              		.loc 1 139 16 is_stmt 0 view .LVU753
 3318 0384 E5E7     		b	.L197
 3319              	.LVL307:
 3320              	.L228:
 139:C:/Users/²Ü¼ÒºÀ/.iotlink/sdk/IoT_LINK/iot_link/network/lwm2m/wakaama_lwm2m/wakaama-master/core\data.c ****     }
 3321              		.loc 1 139 16 view .LVU754
 3322              	.LBE34:
 3323              	.LBB35:
ARM GAS  C:\Users\²Ü¼ÒºÀ\AppData\Local\Temp\cc2xoMwd.s 			page 85


  97:C:/Users/²Ü¼ÒºÀ/.iotlink/sdk/IoT_LINK/iot_link/network/lwm2m/wakaama_lwm2m/wakaama-master/core\data.c **** 
 3324              		.loc 1 97 9 is_stmt 1 view .LVU755
  99:C:/Users/²Ü¼ÒºÀ/.iotlink/sdk/IoT_LINK/iot_link/network/lwm2m/wakaama_lwm2m/wakaama-master/core\data.c ****         if (res == 0) return -1;
 3325              		.loc 1 99 9 view .LVU756
  99:C:/Users/²Ü¼ÒºÀ/.iotlink/sdk/IoT_LINK/iot_link/network/lwm2m/wakaama_lwm2m/wakaama-master/core\data.c ****         if (res == 0) return -1;
 3326              		.loc 1 99 15 is_stmt 0 view .LVU757
 3327 0386 94ED020B 		vldr.64	d0, [r4, #8]
 3328 038a 4021     		movs	r1, #64
 3329 038c 08A8     		add	r0, sp, #32
 3330 038e FFF7FEFF 		bl	utils_floatToText
 3331              	.LVL308:
 3332 0392 E9E7     		b	.L304
 3333              	.L227:
  99:C:/Users/²Ü¼ÒºÀ/.iotlink/sdk/IoT_LINK/iot_link/network/lwm2m/wakaama_lwm2m/wakaama-master/core\data.c ****         if (res == 0) return -1;
 3334              		.loc 1 99 15 view .LVU758
 3335              	.LBE35:
 111:C:/Users/²Ü¼ÒºÀ/.iotlink/sdk/IoT_LINK/iot_link/network/lwm2m/wakaama_lwm2m/wakaama-master/core\data.c ****         if (NULL == *bufferP) return -1;
 3336              		.loc 1 111 9 is_stmt 1 view .LVU759
 111:C:/Users/²Ü¼ÒºÀ/.iotlink/sdk/IoT_LINK/iot_link/network/lwm2m/wakaama_lwm2m/wakaama-master/core\data.c ****         if (NULL == *bufferP) return -1;
 3337              		.loc 1 111 31 is_stmt 0 view .LVU760
 3338 0394 0120     		movs	r0, #1
 3339 0396 FFF7FEFF 		bl	lwm2m_malloc
 3340              	.LVL309:
 111:C:/Users/²Ü¼ÒºÀ/.iotlink/sdk/IoT_LINK/iot_link/network/lwm2m/wakaama_lwm2m/wakaama-master/core\data.c ****         if (NULL == *bufferP) return -1;
 3341              		.loc 1 111 18 view .LVU761
 3342 039a 3060     		str	r0, [r6]
 112:C:/Users/²Ü¼ÒºÀ/.iotlink/sdk/IoT_LINK/iot_link/network/lwm2m/wakaama_lwm2m/wakaama-master/core\data.c **** 
 3343              		.loc 1 112 9 is_stmt 1 view .LVU762
 112:C:/Users/²Ü¼ÒºÀ/.iotlink/sdk/IoT_LINK/iot_link/network/lwm2m/wakaama_lwm2m/wakaama-master/core\data.c **** 
 3344              		.loc 1 112 12 is_stmt 0 view .LVU763
 3345 039c 0028     		cmp	r0, #0
 3346 039e 3FF466AF 		beq	.L259
 114:C:/Users/²Ü¼ÒºÀ/.iotlink/sdk/IoT_LINK/iot_link/network/lwm2m/wakaama_lwm2m/wakaama-master/core\data.c **** 
 3347              		.loc 1 114 9 is_stmt 1 view .LVU764
 114:C:/Users/²Ü¼ÒºÀ/.iotlink/sdk/IoT_LINK/iot_link/network/lwm2m/wakaama_lwm2m/wakaama-master/core\data.c **** 
 3348              		.loc 1 114 21 is_stmt 0 view .LVU765
 3349 03a2 237A     		ldrb	r3, [r4, #8]	@ zero_extendqisi2
 3350 03a4 002B     		cmp	r3, #0
 3351 03a6 14BF     		ite	ne
 3352 03a8 3123     		movne	r3, #49
 3353 03aa 3023     		moveq	r3, #48
 3354 03ac 0370     		strb	r3, [r0]
 116:C:/Users/²Ü¼ÒºÀ/.iotlink/sdk/IoT_LINK/iot_link/network/lwm2m/wakaama_lwm2m/wakaama-master/core\data.c **** 
 3355              		.loc 1 116 9 is_stmt 1 view .LVU766
 116:C:/Users/²Ü¼ÒºÀ/.iotlink/sdk/IoT_LINK/iot_link/network/lwm2m/wakaama_lwm2m/wakaama-master/core\data.c **** 
 3356              		.loc 1 116 16 is_stmt 0 view .LVU767
 3357 03ae 0124     		movs	r4, #1
 3358              	.LVL310:
 116:C:/Users/²Ü¼ÒºÀ/.iotlink/sdk/IoT_LINK/iot_link/network/lwm2m/wakaama_lwm2m/wakaama-master/core\data.c **** 
 3359              		.loc 1 116 16 view .LVU768
 3360 03b0 CFE7     		b	.L197
 3361              	.LVL311:
 3362              	.L225:
 3363              	.LBB36:
 120:C:/Users/²Ü¼ÒºÀ/.iotlink/sdk/IoT_LINK/iot_link/network/lwm2m/wakaama_lwm2m/wakaama-master/core\data.c ****         size_t length;
 3364              		.loc 1 120 9 is_stmt 1 view .LVU769
 121:C:/Users/²Ü¼ÒºÀ/.iotlink/sdk/IoT_LINK/iot_link/network/lwm2m/wakaama_lwm2m/wakaama-master/core\data.c **** 
ARM GAS  C:\Users\²Ü¼ÒºÀ\AppData\Local\Temp\cc2xoMwd.s 			page 86


 3365              		.loc 1 121 9 view .LVU770
 123:C:/Users/²Ü¼ÒºÀ/.iotlink/sdk/IoT_LINK/iot_link/network/lwm2m/wakaama_lwm2m/wakaama-master/core\data.c ****         if (length == 0) return -1;
 3366              		.loc 1 123 9 view .LVU771
 123:C:/Users/²Ü¼ÒºÀ/.iotlink/sdk/IoT_LINK/iot_link/network/lwm2m/wakaama_lwm2m/wakaama-master/core\data.c ****         if (length == 0) return -1;
 3367              		.loc 1 123 18 is_stmt 0 view .LVU772
 3368 03b2 2089     		ldrh	r0, [r4, #8]
 3369 03b4 0523     		movs	r3, #5
 3370 03b6 08AA     		add	r2, sp, #32
 3371 03b8 0021     		movs	r1, #0
 3372 03ba FFF7FEFF 		bl	utils_intToText
 3373              	.LVL312:
 124:C:/Users/²Ü¼ÒºÀ/.iotlink/sdk/IoT_LINK/iot_link/network/lwm2m/wakaama_lwm2m/wakaama-master/core\data.c **** 
 3374              		.loc 1 124 9 is_stmt 1 view .LVU773
 124:C:/Users/²Ü¼ÒºÀ/.iotlink/sdk/IoT_LINK/iot_link/network/lwm2m/wakaama_lwm2m/wakaama-master/core\data.c **** 
 3375              		.loc 1 124 12 is_stmt 0 view .LVU774
 3376 03be 0028     		cmp	r0, #0
 3377 03c0 3FF455AF 		beq	.L259
 126:C:/Users/²Ü¼ÒºÀ/.iotlink/sdk/IoT_LINK/iot_link/network/lwm2m/wakaama_lwm2m/wakaama-master/core\data.c ****         res = length + 1;
 3378              		.loc 1 126 9 is_stmt 1 view .LVU775
 126:C:/Users/²Ü¼ÒºÀ/.iotlink/sdk/IoT_LINK/iot_link/network/lwm2m/wakaama_lwm2m/wakaama-master/core\data.c ****         res = length + 1;
 3379              		.loc 1 126 25 is_stmt 0 view .LVU776
 3380 03c4 3A23     		movs	r3, #58
 127:C:/Users/²Ü¼ÒºÀ/.iotlink/sdk/IoT_LINK/iot_link/network/lwm2m/wakaama_lwm2m/wakaama-master/core\data.c **** 
 3381              		.loc 1 127 13 view .LVU777
 3382 03c6 451C     		adds	r5, r0, #1
 3383              	.LVL313:
 129:C:/Users/²Ü¼ÒºÀ/.iotlink/sdk/IoT_LINK/iot_link/network/lwm2m/wakaama_lwm2m/wakaama-master/core\data.c ****         if (length == 0) return -1;
 3384              		.loc 1 129 18 view .LVU778
 3385 03c8 08AA     		add	r2, sp, #32
 126:C:/Users/²Ü¼ÒºÀ/.iotlink/sdk/IoT_LINK/iot_link/network/lwm2m/wakaama_lwm2m/wakaama-master/core\data.c ****         res = length + 1;
 3386              		.loc 1 126 25 view .LVU779
 3387 03ca 8DF82530 		strb	r3, [sp, #37]
 127:C:/Users/²Ü¼ÒºÀ/.iotlink/sdk/IoT_LINK/iot_link/network/lwm2m/wakaama_lwm2m/wakaama-master/core\data.c **** 
 3388              		.loc 1 127 9 is_stmt 1 view .LVU780
 3389              	.LVL314:
 129:C:/Users/²Ü¼ÒºÀ/.iotlink/sdk/IoT_LINK/iot_link/network/lwm2m/wakaama_lwm2m/wakaama-master/core\data.c ****         if (length == 0) return -1;
 3390              		.loc 1 129 9 view .LVU781
 129:C:/Users/²Ü¼ÒºÀ/.iotlink/sdk/IoT_LINK/iot_link/network/lwm2m/wakaama_lwm2m/wakaama-master/core\data.c ****         if (length == 0) return -1;
 3391              		.loc 1 129 18 is_stmt 0 view .LVU782
 3392 03ce 6089     		ldrh	r0, [r4, #10]
 3393              	.LVL315:
 129:C:/Users/²Ü¼ÒºÀ/.iotlink/sdk/IoT_LINK/iot_link/network/lwm2m/wakaama_lwm2m/wakaama-master/core\data.c ****         if (length == 0) return -1;
 3394              		.loc 1 129 18 view .LVU783
 3395 03d0 0523     		movs	r3, #5
 3396 03d2 2A44     		add	r2, r2, r5
 3397 03d4 0021     		movs	r1, #0
 3398 03d6 FFF7FEFF 		bl	utils_intToText
 3399              	.LVL316:
 130:C:/Users/²Ü¼ÒºÀ/.iotlink/sdk/IoT_LINK/iot_link/network/lwm2m/wakaama_lwm2m/wakaama-master/core\data.c **** 
 3400              		.loc 1 130 9 is_stmt 1 view .LVU784
 130:C:/Users/²Ü¼ÒºÀ/.iotlink/sdk/IoT_LINK/iot_link/network/lwm2m/wakaama_lwm2m/wakaama-master/core\data.c **** 
 3401              		.loc 1 130 12 is_stmt 0 view .LVU785
 3402 03da 0028     		cmp	r0, #0
 3403 03dc 3FF447AF 		beq	.L259
 132:C:/Users/²Ü¼ÒºÀ/.iotlink/sdk/IoT_LINK/iot_link/network/lwm2m/wakaama_lwm2m/wakaama-master/core\data.c **** 
 3404              		.loc 1 132 9 is_stmt 1 view .LVU786
 132:C:/Users/²Ü¼ÒºÀ/.iotlink/sdk/IoT_LINK/iot_link/network/lwm2m/wakaama_lwm2m/wakaama-master/core\data.c **** 
ARM GAS  C:\Users\²Ü¼ÒºÀ\AppData\Local\Temp\cc2xoMwd.s 			page 87


 3405              		.loc 1 132 13 is_stmt 0 view .LVU787
 3406 03e0 2C18     		adds	r4, r5, r0
 3407              	.LVL317:
 134:C:/Users/²Ü¼ÒºÀ/.iotlink/sdk/IoT_LINK/iot_link/network/lwm2m/wakaama_lwm2m/wakaama-master/core\data.c ****         if (*bufferP == NULL) return -1;
 3408              		.loc 1 134 9 is_stmt 1 view .LVU788
 134:C:/Users/²Ü¼ÒºÀ/.iotlink/sdk/IoT_LINK/iot_link/network/lwm2m/wakaama_lwm2m/wakaama-master/core\data.c ****         if (*bufferP == NULL) return -1;
 3409              		.loc 1 134 31 is_stmt 0 view .LVU789
 3410 03e2 2046     		mov	r0, r4
 3411              	.LVL318:
 134:C:/Users/²Ü¼ÒºÀ/.iotlink/sdk/IoT_LINK/iot_link/network/lwm2m/wakaama_lwm2m/wakaama-master/core\data.c ****         if (*bufferP == NULL) return -1;
 3412              		.loc 1 134 31 view .LVU790
 3413 03e4 C4E7     		b	.L301
 3414              	.LVL319:
 3415              	.L230:
 134:C:/Users/²Ü¼ÒºÀ/.iotlink/sdk/IoT_LINK/iot_link/network/lwm2m/wakaama_lwm2m/wakaama-master/core\data.c ****         if (*bufferP == NULL) return -1;
 3416              		.loc 1 134 31 view .LVU791
 3417              	.LBE36:
 3418              	.LBB37:
 144:C:/Users/²Ü¼ÒºÀ/.iotlink/sdk/IoT_LINK/iot_link/network/lwm2m/wakaama_lwm2m/wakaama-master/core\data.c **** 
 3419              		.loc 1 144 9 is_stmt 1 view .LVU792
 146:C:/Users/²Ü¼ÒºÀ/.iotlink/sdk/IoT_LINK/iot_link/network/lwm2m/wakaama_lwm2m/wakaama-master/core\data.c ****         *bufferP = (uint8_t *)lwm2m_malloc(length);
 3420              		.loc 1 146 9 view .LVU793
 146:C:/Users/²Ü¼ÒºÀ/.iotlink/sdk/IoT_LINK/iot_link/network/lwm2m/wakaama_lwm2m/wakaama-master/core\data.c ****         *bufferP = (uint8_t *)lwm2m_malloc(length);
 3421              		.loc 1 146 18 is_stmt 0 view .LVU794
 3422 03e6 A068     		ldr	r0, [r4, #8]
 3423 03e8 FFF7FEFF 		bl	utils_base64GetSize
 3424              	.LVL320:
 3425 03ec 0790     		str	r0, [sp, #28]
 3426              	.LVL321:
 147:C:/Users/²Ü¼ÒºÀ/.iotlink/sdk/IoT_LINK/iot_link/network/lwm2m/wakaama_lwm2m/wakaama-master/core\data.c ****         if (*bufferP == NULL) return 0;
 3427              		.loc 1 147 9 is_stmt 1 view .LVU795
 147:C:/Users/²Ü¼ÒºÀ/.iotlink/sdk/IoT_LINK/iot_link/network/lwm2m/wakaama_lwm2m/wakaama-master/core\data.c ****         if (*bufferP == NULL) return 0;
 3428              		.loc 1 147 31 is_stmt 0 view .LVU796
 3429 03ee FFF7FEFF 		bl	lwm2m_malloc
 3430              	.LVL322:
 147:C:/Users/²Ü¼ÒºÀ/.iotlink/sdk/IoT_LINK/iot_link/network/lwm2m/wakaama_lwm2m/wakaama-master/core\data.c ****         if (*bufferP == NULL) return 0;
 3431              		.loc 1 147 31 view .LVU797
 3432 03f2 0246     		mov	r2, r0
 147:C:/Users/²Ü¼ÒºÀ/.iotlink/sdk/IoT_LINK/iot_link/network/lwm2m/wakaama_lwm2m/wakaama-master/core\data.c ****         if (*bufferP == NULL) return 0;
 3433              		.loc 1 147 18 view .LVU798
 3434 03f4 3060     		str	r0, [r6]
 148:C:/Users/²Ü¼ÒºÀ/.iotlink/sdk/IoT_LINK/iot_link/network/lwm2m/wakaama_lwm2m/wakaama-master/core\data.c ****         length = utils_base64Encode(dataP->value.asBuffer.buffer, dataP->value.asBuffer.length, *bu
 3435              		.loc 1 148 9 is_stmt 1 view .LVU799
 148:C:/Users/²Ü¼ÒºÀ/.iotlink/sdk/IoT_LINK/iot_link/network/lwm2m/wakaama_lwm2m/wakaama-master/core\data.c ****         length = utils_base64Encode(dataP->value.asBuffer.buffer, dataP->value.asBuffer.length, *bu
 3436              		.loc 1 148 12 is_stmt 0 view .LVU800
 3437 03f6 0028     		cmp	r0, #0
 3438 03f8 AAD0     		beq	.L244
 149:C:/Users/²Ü¼ÒºÀ/.iotlink/sdk/IoT_LINK/iot_link/network/lwm2m/wakaama_lwm2m/wakaama-master/core\data.c ****         if (length == 0)
 3439              		.loc 1 149 9 is_stmt 1 view .LVU801
 149:C:/Users/²Ü¼ÒºÀ/.iotlink/sdk/IoT_LINK/iot_link/network/lwm2m/wakaama_lwm2m/wakaama-master/core\data.c ****         if (length == 0)
 3440              		.loc 1 149 18 is_stmt 0 view .LVU802
 3441 03fa D4E90210 		ldrd	r1, r0, [r4, #8]
 3442 03fe 079B     		ldr	r3, [sp, #28]
 3443 0400 FFF7FEFF 		bl	utils_base64Encode
 3444              	.LVL323:
 150:C:/Users/²Ü¼ÒºÀ/.iotlink/sdk/IoT_LINK/iot_link/network/lwm2m/wakaama_lwm2m/wakaama-master/core\data.c ****         {
 3445              		.loc 1 150 9 is_stmt 1 view .LVU803
ARM GAS  C:\Users\²Ü¼ÒºÀ\AppData\Local\Temp\cc2xoMwd.s 			page 88


 150:C:/Users/²Ü¼ÒºÀ/.iotlink/sdk/IoT_LINK/iot_link/network/lwm2m/wakaama_lwm2m/wakaama-master/core\data.c ****         {
 3446              		.loc 1 150 12 is_stmt 0 view .LVU804
 3447 0404 0446     		mov	r4, r0
 3448              	.LVL324:
 150:C:/Users/²Ü¼ÒºÀ/.iotlink/sdk/IoT_LINK/iot_link/network/lwm2m/wakaama_lwm2m/wakaama-master/core\data.c ****         {
 3449              		.loc 1 150 12 view .LVU805
 3450 0406 0028     		cmp	r0, #0
 3451 0408 A3D1     		bne	.L197
 152:C:/Users/²Ü¼ÒºÀ/.iotlink/sdk/IoT_LINK/iot_link/network/lwm2m/wakaama_lwm2m/wakaama-master/core\data.c ****             *bufferP = NULL;
 3452              		.loc 1 152 13 is_stmt 1 view .LVU806
 3453 040a 3068     		ldr	r0, [r6]
 3454              	.LVL325:
 152:C:/Users/²Ü¼ÒºÀ/.iotlink/sdk/IoT_LINK/iot_link/network/lwm2m/wakaama_lwm2m/wakaama-master/core\data.c ****             *bufferP = NULL;
 3455              		.loc 1 152 13 is_stmt 0 view .LVU807
 3456 040c FFF7FEFF 		bl	lwm2m_free
 3457              	.LVL326:
 153:C:/Users/²Ü¼ÒºÀ/.iotlink/sdk/IoT_LINK/iot_link/network/lwm2m/wakaama_lwm2m/wakaama-master/core\data.c ****             return 0;
 3458              		.loc 1 153 13 is_stmt 1 view .LVU808
 153:C:/Users/²Ü¼ÒºÀ/.iotlink/sdk/IoT_LINK/iot_link/network/lwm2m/wakaama_lwm2m/wakaama-master/core\data.c ****             return 0;
 3459              		.loc 1 153 22 is_stmt 0 view .LVU809
 3460 0410 3460     		str	r4, [r6]
 154:C:/Users/²Ü¼ÒºÀ/.iotlink/sdk/IoT_LINK/iot_link/network/lwm2m/wakaama_lwm2m/wakaama-master/core\data.c ****         }
 3461              		.loc 1 154 13 is_stmt 1 view .LVU810
 154:C:/Users/²Ü¼ÒºÀ/.iotlink/sdk/IoT_LINK/iot_link/network/lwm2m/wakaama_lwm2m/wakaama-master/core\data.c ****         }
 3462              		.loc 1 154 20 is_stmt 0 view .LVU811
 3463 0412 9EE7     		b	.L197
 3464              	.LVL327:
 3465              	.L220:
 154:C:/Users/²Ü¼ÒºÀ/.iotlink/sdk/IoT_LINK/iot_link/network/lwm2m/wakaama_lwm2m/wakaama-master/core\data.c ****         }
 3466              		.loc 1 154 20 view .LVU812
 3467              	.LBE37:
 3468              	.LBE39:
 3469              	.LBE42:
 666:C:/Users/²Ü¼ÒºÀ/.iotlink/sdk/IoT_LINK/iot_link/network/lwm2m/wakaama_lwm2m/wakaama-master/core\data.c ****         if (*bufferP == NULL) return -1;
 3470              		.loc 1 666 9 is_stmt 1 view .LVU813
 666:C:/Users/²Ü¼ÒºÀ/.iotlink/sdk/IoT_LINK/iot_link/network/lwm2m/wakaama_lwm2m/wakaama-master/core\data.c ****         if (*bufferP == NULL) return -1;
 3471              		.loc 1 666 31 is_stmt 0 view .LVU814
 3472 0414 A068     		ldr	r0, [r4, #8]
 3473 0416 FFF7FEFF 		bl	lwm2m_malloc
 3474              	.LVL328:
 666:C:/Users/²Ü¼ÒºÀ/.iotlink/sdk/IoT_LINK/iot_link/network/lwm2m/wakaama_lwm2m/wakaama-master/core\data.c ****         if (*bufferP == NULL) return -1;
 3475              		.loc 1 666 18 view .LVU815
 3476 041a 3060     		str	r0, [r6]
 667:C:/Users/²Ü¼ÒºÀ/.iotlink/sdk/IoT_LINK/iot_link/network/lwm2m/wakaama_lwm2m/wakaama-master/core\data.c ****         memcpy(*bufferP, dataP->value.asBuffer.buffer, dataP->value.asBuffer.length);
 3477              		.loc 1 667 9 is_stmt 1 view .LVU816
 667:C:/Users/²Ü¼ÒºÀ/.iotlink/sdk/IoT_LINK/iot_link/network/lwm2m/wakaama_lwm2m/wakaama-master/core\data.c ****         memcpy(*bufferP, dataP->value.asBuffer.buffer, dataP->value.asBuffer.length);
 3478              		.loc 1 667 12 is_stmt 0 view .LVU817
 3479 041c 0028     		cmp	r0, #0
 3480 041e 3FF426AF 		beq	.L259
 3481              	.L298:
 668:C:/Users/²Ü¼ÒºÀ/.iotlink/sdk/IoT_LINK/iot_link/network/lwm2m/wakaama_lwm2m/wakaama-master/core\data.c ****         return (int)dataP->value.asBuffer.length;
 3482              		.loc 1 668 9 is_stmt 1 view .LVU818
 3483 0422 D4E90221 		ldrd	r2, r1, [r4, #8]
 3484 0426 FFF7FEFF 		bl	memcpy
 3485              	.LVL329:
 669:C:/Users/²Ü¼ÒºÀ/.iotlink/sdk/IoT_LINK/iot_link/network/lwm2m/wakaama_lwm2m/wakaama-master/core\data.c **** 
 3486              		.loc 1 669 9 view .LVU819
ARM GAS  C:\Users\²Ü¼ÒºÀ\AppData\Local\Temp\cc2xoMwd.s 			page 89


 669:C:/Users/²Ü¼ÒºÀ/.iotlink/sdk/IoT_LINK/iot_link/network/lwm2m/wakaama_lwm2m/wakaama-master/core\data.c **** 
 3487              		.loc 1 669 16 is_stmt 0 view .LVU820
 3488 042a A468     		ldr	r4, [r4, #8]
 3489              	.LVL330:
 669:C:/Users/²Ü¼ÒºÀ/.iotlink/sdk/IoT_LINK/iot_link/network/lwm2m/wakaama_lwm2m/wakaama-master/core\data.c **** 
 3490              		.loc 1 669 16 view .LVU821
 3491 042c 91E7     		b	.L197
 3492              	.LVL331:
 3493              	.L262:
 3494              	.LBB43:
 679:C:/Users/²Ü¼ÒºÀ/.iotlink/sdk/IoT_LINK/iot_link/network/lwm2m/wakaama_lwm2m/wakaama-master/core\data.c ****         }
 3495              		.loc 1 679 32 view .LVU822
 3496 042e 0120     		movs	r0, #1
 3497 0430 57E7     		b	.L246
 3498              	.LBE43:
 3499              		.cfi_endproc
 3500              	.LFE22:
 3502 0432 00BF     		.section	.rodata.__FUNCTION__.8673,"a"
 3503              		.set	.LANCHOR0,. + 0
 3506              	__FUNCTION__.8673:
 3507 0000 6C776D32 		.ascii	"lwm2m_data_new\000"
 3507      6D5F6461 
 3507      74615F6E 
 3507      657700
 3508              		.section	.rodata.__FUNCTION__.8680,"a"
 3509              		.set	.LANCHOR2,. + 0
 3512              	__FUNCTION__.8680:
 3513 0000 6C776D32 		.ascii	"lwm2m_data_free\000"
 3513      6D5F6461 
 3513      74615F66 
 3513      72656500 
 3514              		.section	.rodata.__FUNCTION__.8698,"a"
 3515              		.set	.LANCHOR4,. + 0
 3518              	__FUNCTION__.8698:
 3519 0000 6C776D32 		.ascii	"lwm2m_data_encode_string\000"
 3519      6D5F6461 
 3519      74615F65 
 3519      6E636F64 
 3519      655F7374 
 3520              		.section	.rodata.__FUNCTION__.8709,"a"
 3521              		.set	.LANCHOR6,. + 0
 3524              	__FUNCTION__.8709:
 3525 0000 6C776D32 		.ascii	"lwm2m_data_encode_opaque\000"
 3525      6D5F6461 
 3525      74615F65 
 3525      6E636F64 
 3525      655F6F70 
 3526              		.section	.rodata.__FUNCTION__.8716,"a"
 3527              		.set	.LANCHOR8,. + 0
 3530              	__FUNCTION__.8716:
 3531 0000 6C776D32 		.ascii	"lwm2m_data_encode_nstring\000"
 3531      6D5F6461 
 3531      74615F65 
 3531      6E636F64 
 3531      655F6E73 
 3532              		.section	.rodata.__FUNCTION__.8722,"a"
 3533              		.set	.LANCHOR10,. + 0
ARM GAS  C:\Users\²Ü¼ÒºÀ\AppData\Local\Temp\cc2xoMwd.s 			page 90


 3536              	__FUNCTION__.8722:
 3537 0000 6C776D32 		.ascii	"lwm2m_data_encode_int\000"
 3537      6D5F6461 
 3537      74615F65 
 3537      6E636F64 
 3537      655F696E 
 3538              		.section	.rodata.__FUNCTION__.8729,"a"
 3539              		.set	.LANCHOR12,. + 0
 3542              	__FUNCTION__.8729:
 3543 0000 6C776D32 		.ascii	"lwm2m_data_decode_int\000"
 3543      6D5F6461 
 3543      74615F64 
 3543      65636F64 
 3543      655F696E 
 3544              		.section	.rodata.__FUNCTION__.8748,"a"
 3545              		.set	.LANCHOR14,. + 0
 3548              	__FUNCTION__.8748:
 3549 0000 6C776D32 		.ascii	"lwm2m_data_encode_float\000"
 3549      6D5F6461 
 3549      74615F65 
 3549      6E636F64 
 3549      655F666C 
 3550              		.section	.rodata.__FUNCTION__.8755,"a"
 3551              		.set	.LANCHOR16,. + 0
 3554              	__FUNCTION__.8755:
 3555 0000 6C776D32 		.ascii	"lwm2m_data_decode_float\000"
 3555      6D5F6461 
 3555      74615F64 
 3555      65636F64 
 3555      655F666C 
 3556              		.section	.rodata.__FUNCTION__.8772,"a"
 3557              		.set	.LANCHOR18,. + 0
 3560              	__FUNCTION__.8772:
 3561 0000 6C776D32 		.ascii	"lwm2m_data_encode_bool\000"
 3561      6D5F6461 
 3561      74615F65 
 3561      6E636F64 
 3561      655F626F 
 3562              		.section	.rodata.__FUNCTION__.8779,"a"
 3563              		.set	.LANCHOR20,. + 0
 3566              	__FUNCTION__.8779:
 3567 0000 6C776D32 		.ascii	"lwm2m_data_decode_bool\000"
 3567      6D5F6461 
 3567      74615F64 
 3567      65636F64 
 3567      655F626F 
 3568              		.section	.rodata.__FUNCTION__.8799,"a"
 3569              		.set	.LANCHOR22,. + 0
 3572              	__FUNCTION__.8799:
 3573 0000 6C776D32 		.ascii	"lwm2m_data_encode_objlink\000"
 3573      6D5F6461 
 3573      74615F65 
 3573      6E636F64 
 3573      655F6F62 
 3574              		.section	.rodata.__FUNCTION__.8806,"a"
 3575              		.set	.LANCHOR24,. + 0
 3578              	__FUNCTION__.8806:
ARM GAS  C:\Users\²Ü¼ÒºÀ\AppData\Local\Temp\cc2xoMwd.s 			page 91


 3579 0000 6C776D32 		.ascii	"lwm2m_data_include\000"
 3579      6D5F6461 
 3579      74615F69 
 3579      6E636C75 
 3579      646500
 3580              		.section	.rodata.__FUNCTION__.8823,"a"
 3581              		.set	.LANCHOR26,. + 0
 3584              	__FUNCTION__.8823:
 3585 0000 6C776D32 		.ascii	"lwm2m_data_encode_instances\000"
 3585      6D5F6461 
 3585      74615F65 
 3585      6E636F64 
 3585      655F696E 
 3586              		.section	.rodata.__FUNCTION__.8833,"a"
 3587              		.set	.LANCHOR28,. + 0
 3590              	__FUNCTION__.8833:
 3591 0000 6C776D32 		.ascii	"lwm2m_data_parse\000"
 3591      6D5F6461 
 3591      74615F70 
 3591      61727365 
 3591      00
 3592              		.section	.rodata.__FUNCTION__.8846,"a"
 3593              		.set	.LANCHOR30,. + 0
 3596              	__FUNCTION__.8846:
 3597 0000 6C776D32 		.ascii	"lwm2m_data_serialize\000"
 3597      6D5F6461 
 3597      74615F73 
 3597      65726961 
 3597      6C697A65 
 3598              		.section	.rodata.__func__.8674,"a"
 3599              		.set	.LANCHOR1,. + 0
 3602              	__func__.8674:
 3603 0000 6C776D32 		.ascii	"lwm2m_data_new\000"
 3603      6D5F6461 
 3603      74615F6E 
 3603      657700
 3604              		.section	.rodata.__func__.8681,"a"
 3605              		.set	.LANCHOR3,. + 0
 3608              	__func__.8681:
 3609 0000 6C776D32 		.ascii	"lwm2m_data_free\000"
 3609      6D5F6461 
 3609      74615F66 
 3609      72656500 
 3610              		.section	.rodata.__func__.8699,"a"
 3611              		.set	.LANCHOR5,. + 0
 3614              	__func__.8699:
 3615 0000 6C776D32 		.ascii	"lwm2m_data_encode_string\000"
 3615      6D5F6461 
 3615      74615F65 
 3615      6E636F64 
 3615      655F7374 
 3616              		.section	.rodata.__func__.8710,"a"
 3617              		.set	.LANCHOR7,. + 0
 3620              	__func__.8710:
 3621 0000 6C776D32 		.ascii	"lwm2m_data_encode_opaque\000"
 3621      6D5F6461 
 3621      74615F65 
ARM GAS  C:\Users\²Ü¼ÒºÀ\AppData\Local\Temp\cc2xoMwd.s 			page 92


 3621      6E636F64 
 3621      655F6F70 
 3622              		.section	.rodata.__func__.8717,"a"
 3623              		.set	.LANCHOR9,. + 0
 3626              	__func__.8717:
 3627 0000 6C776D32 		.ascii	"lwm2m_data_encode_nstring\000"
 3627      6D5F6461 
 3627      74615F65 
 3627      6E636F64 
 3627      655F6E73 
 3628              		.section	.rodata.__func__.8723,"a"
 3629              		.set	.LANCHOR11,. + 0
 3632              	__func__.8723:
 3633 0000 6C776D32 		.ascii	"lwm2m_data_encode_int\000"
 3633      6D5F6461 
 3633      74615F65 
 3633      6E636F64 
 3633      655F696E 
 3634              		.section	.rodata.__func__.8730,"a"
 3635              		.set	.LANCHOR13,. + 0
 3638              	__func__.8730:
 3639 0000 6C776D32 		.ascii	"lwm2m_data_decode_int\000"
 3639      6D5F6461 
 3639      74615F64 
 3639      65636F64 
 3639      655F696E 
 3640              		.section	.rodata.__func__.8749,"a"
 3641              		.set	.LANCHOR15,. + 0
 3644              	__func__.8749:
 3645 0000 6C776D32 		.ascii	"lwm2m_data_encode_float\000"
 3645      6D5F6461 
 3645      74615F65 
 3645      6E636F64 
 3645      655F666C 
 3646              		.section	.rodata.__func__.8756,"a"
 3647              		.set	.LANCHOR17,. + 0
 3650              	__func__.8756:
 3651 0000 6C776D32 		.ascii	"lwm2m_data_decode_float\000"
 3651      6D5F6461 
 3651      74615F64 
 3651      65636F64 
 3651      655F666C 
 3652              		.section	.rodata.__func__.8773,"a"
 3653              		.set	.LANCHOR19,. + 0
 3656              	__func__.8773:
 3657 0000 6C776D32 		.ascii	"lwm2m_data_encode_bool\000"
 3657      6D5F6461 
 3657      74615F65 
 3657      6E636F64 
 3657      655F626F 
 3658              		.section	.rodata.__func__.8780,"a"
 3659              		.set	.LANCHOR21,. + 0
 3662              	__func__.8780:
 3663 0000 6C776D32 		.ascii	"lwm2m_data_decode_bool\000"
 3663      6D5F6461 
 3663      74615F64 
 3663      65636F64 
ARM GAS  C:\Users\²Ü¼ÒºÀ\AppData\Local\Temp\cc2xoMwd.s 			page 93


 3663      655F626F 
 3664              		.section	.rodata.__func__.8800,"a"
 3665              		.set	.LANCHOR23,. + 0
 3668              	__func__.8800:
 3669 0000 6C776D32 		.ascii	"lwm2m_data_encode_objlink\000"
 3669      6D5F6461 
 3669      74615F65 
 3669      6E636F64 
 3669      655F6F62 
 3670              		.section	.rodata.__func__.8807,"a"
 3671              		.set	.LANCHOR25,. + 0
 3674              	__func__.8807:
 3675 0000 6C776D32 		.ascii	"lwm2m_data_include\000"
 3675      6D5F6461 
 3675      74615F69 
 3675      6E636C75 
 3675      646500
 3676              		.section	.rodata.__func__.8824,"a"
 3677              		.set	.LANCHOR27,. + 0
 3680              	__func__.8824:
 3681 0000 6C776D32 		.ascii	"lwm2m_data_encode_instances\000"
 3681      6D5F6461 
 3681      74615F65 
 3681      6E636F64 
 3681      655F696E 
 3682              		.section	.rodata.__func__.8834,"a"
 3683              		.set	.LANCHOR29,. + 0
 3686              	__func__.8834:
 3687 0000 6C776D32 		.ascii	"lwm2m_data_parse\000"
 3687      6D5F6461 
 3687      74615F70 
 3687      61727365 
 3687      00
 3688              		.section	.rodata.__func__.8847,"a"
 3689              		.set	.LANCHOR31,. + 0
 3692              	__func__.8847:
 3693 0000 6C776D32 		.ascii	"lwm2m_data_serialize\000"
 3693      6D5F6461 
 3693      74615F73 
 3693      65726961 
 3693      6C697A65 
 3694              		.text
 3695              	.Letext0:
 3696              		.file 3 "c:\\users\\\262\334\274\322\272\300\\.iotlink\\tools\\gcc-arm-none-eabi\\arm-none-eabi\\i
 3697              		.file 4 "c:\\users\\\262\334\274\322\272\300\\.iotlink\\tools\\gcc-arm-none-eabi\\arm-none-eabi\\i
 3698              		.file 5 "c:\\users\\\262\334\274\322\272\300\\.iotlink\\tools\\gcc-arm-none-eabi\\lib\\gcc\\arm-no
 3699              		.file 6 "c:\\users\\\262\334\274\322\272\300\\.iotlink\\tools\\gcc-arm-none-eabi\\arm-none-eabi\\i
 3700              		.file 7 "c:\\users\\\262\334\274\322\272\300\\.iotlink\\tools\\gcc-arm-none-eabi\\arm-none-eabi\\i
 3701              		.file 8 "c:\\users\\\262\334\274\322\272\300\\.iotlink\\tools\\gcc-arm-none-eabi\\arm-none-eabi\\i
 3702              		.file 9 "c:\\users\\\262\334\274\322\272\300\\.iotlink\\tools\\gcc-arm-none-eabi\\arm-none-eabi\\i
 3703              		.file 10 "C:/Users/\262\334\274\322\272\300/.iotlink/sdk/IoT_LINK/iot_link/network/lwm2m/wakaama_l
 3704              		.file 11 "C:/Users/\262\334\274\322\272\300/.iotlink/sdk/IoT_LINK/iot_link/network/lwm2m/wakaama_l
 3705              		.file 12 "C:/Users/\262\334\274\322\272\300/.iotlink/sdk/IoT_LINK/iot_link/inc/link_log.h"
 3706              		.file 13 "c:\\users\\\262\334\274\322\272\300\\.iotlink\\tools\\gcc-arm-none-eabi\\arm-none-eabi\\
 3707              		.file 14 "c:\\users\\\262\334\274\322\272\300\\.iotlink\\tools\\gcc-arm-none-eabi\\arm-none-eabi\\
 3708              		.file 15 "c:\\users\\\262\334\274\322\272\300\\.iotlink\\tools\\gcc-arm-none-eabi\\arm-none-eabi\\
 3709              		.file 16 "<built-in>"
ARM GAS  C:\Users\²Ü¼ÒºÀ\AppData\Local\Temp\cc2xoMwd.s 			page 94


ARM GAS  C:\Users\²Ü¼ÒºÀ\AppData\Local\Temp\cc2xoMwd.s 			page 95


DEFINED SYMBOLS
                            *ABS*:00000000 data.c
C:\Users\²Ü¼ÒºÀ\AppData\Local\Temp\cc2xoMwd.s:18     .text.prv_setBuffer:00000000 $t
C:\Users\²Ü¼ÒºÀ\AppData\Local\Temp\cc2xoMwd.s:25     .text.prv_setBuffer:00000000 prv_setBuffer
C:\Users\²Ü¼ÒºÀ\AppData\Local\Temp\cc2xoMwd.s:83     .text.lwm2m_data_decode_opaque:00000000 $t
C:\Users\²Ü¼ÒºÀ\AppData\Local\Temp\cc2xoMwd.s:90     .text.lwm2m_data_decode_opaque:00000000 lwm2m_data_decode_opaque
C:\Users\²Ü¼ÒºÀ\AppData\Local\Temp\cc2xoMwd.s:117    .text.lwm2m_data_new:00000000 $t
C:\Users\²Ü¼ÒºÀ\AppData\Local\Temp\cc2xoMwd.s:124    .text.lwm2m_data_new:00000000 lwm2m_data_new
C:\Users\²Ü¼ÒºÀ\AppData\Local\Temp\cc2xoMwd.s:228    .text.lwm2m_data_new:00000068 $d
C:\Users\²Ü¼ÒºÀ\AppData\Local\Temp\cc2xoMwd.s:236    .text.lwm2m_data_free:00000000 $t
C:\Users\²Ü¼ÒºÀ\AppData\Local\Temp\cc2xoMwd.s:243    .text.lwm2m_data_free:00000000 lwm2m_data_free
C:\Users\²Ü¼ÒºÀ\AppData\Local\Temp\cc2xoMwd.s:403    .text.lwm2m_data_free:0000008c $d
C:\Users\²Ü¼ÒºÀ\AppData\Local\Temp\cc2xoMwd.s:414    .text.lwm2m_data_encode_string:00000000 $t
C:\Users\²Ü¼ÒºÀ\AppData\Local\Temp\cc2xoMwd.s:421    .text.lwm2m_data_encode_string:00000000 lwm2m_data_encode_string
C:\Users\²Ü¼ÒºÀ\AppData\Local\Temp\cc2xoMwd.s:550    .text.lwm2m_data_encode_string:00000070 $d
C:\Users\²Ü¼ÒºÀ\AppData\Local\Temp\cc2xoMwd.s:562    .text.lwm2m_data_encode_opaque:00000000 $t
C:\Users\²Ü¼ÒºÀ\AppData\Local\Temp\cc2xoMwd.s:569    .text.lwm2m_data_encode_opaque:00000000 lwm2m_data_encode_opaque
C:\Users\²Ü¼ÒºÀ\AppData\Local\Temp\cc2xoMwd.s:678    .text.lwm2m_data_encode_opaque:0000006c $d
C:\Users\²Ü¼ÒºÀ\AppData\Local\Temp\cc2xoMwd.s:690    .text.lwm2m_data_encode_nstring:00000000 $t
C:\Users\²Ü¼ÒºÀ\AppData\Local\Temp\cc2xoMwd.s:697    .text.lwm2m_data_encode_nstring:00000000 lwm2m_data_encode_nstring
C:\Users\²Ü¼ÒºÀ\AppData\Local\Temp\cc2xoMwd.s:787    .text.lwm2m_data_encode_nstring:00000064 $d
C:\Users\²Ü¼ÒºÀ\AppData\Local\Temp\cc2xoMwd.s:799    .text.lwm2m_data_encode_int:00000000 $t
C:\Users\²Ü¼ÒºÀ\AppData\Local\Temp\cc2xoMwd.s:806    .text.lwm2m_data_encode_int:00000000 lwm2m_data_encode_int
C:\Users\²Ü¼ÒºÀ\AppData\Local\Temp\cc2xoMwd.s:889    .text.lwm2m_data_encode_int:00000058 $d
C:\Users\²Ü¼ÒºÀ\AppData\Local\Temp\cc2xoMwd.s:903    .text.lwm2m_data_decode_int:00000000 $t
C:\Users\²Ü¼ÒºÀ\AppData\Local\Temp\cc2xoMwd.s:910    .text.lwm2m_data_decode_int:00000000 lwm2m_data_decode_int
C:\Users\²Ü¼ÒºÀ\AppData\Local\Temp\cc2xoMwd.s:1079   .text.lwm2m_data_decode_int:000000ca $d
C:\Users\²Ü¼ÒºÀ\AppData\Local\Temp\cc2xoMwd.s:1087   .text.lwm2m_data_decode_int:000000d2 $t
C:\Users\²Ü¼ÒºÀ\AppData\Local\Temp\cc2xoMwd.s:1147   .text.lwm2m_data_decode_int:0000010c $d
C:\Users\²Ü¼ÒºÀ\AppData\Local\Temp\cc2xoMwd.s:1159   .text.lwm2m_data_encode_float:00000000 $t
C:\Users\²Ü¼ÒºÀ\AppData\Local\Temp\cc2xoMwd.s:1166   .text.lwm2m_data_encode_float:00000000 lwm2m_data_encode_float
C:\Users\²Ü¼ÒºÀ\AppData\Local\Temp\cc2xoMwd.s:1259   .text.lwm2m_data_encode_float:00000064 $d
C:\Users\²Ü¼ÒºÀ\AppData\Local\Temp\cc2xoMwd.s:1273   .text.lwm2m_data_decode_float:00000000 $t
C:\Users\²Ü¼ÒºÀ\AppData\Local\Temp\cc2xoMwd.s:1280   .text.lwm2m_data_decode_float:00000000 lwm2m_data_decode_float
C:\Users\²Ü¼ÒºÀ\AppData\Local\Temp\cc2xoMwd.s:1351   .text.lwm2m_data_decode_float:00000052 $d
C:\Users\²Ü¼ÒºÀ\AppData\Local\Temp\cc2xoMwd.s:1355   .text.lwm2m_data_decode_float:00000056 $t
C:\Users\²Ü¼ÒºÀ\AppData\Local\Temp\cc2xoMwd.s:1496   .text.lwm2m_data_decode_float:000000f4 $d
C:\Users\²Ü¼ÒºÀ\AppData\Local\Temp\cc2xoMwd.s:1512   .text.lwm2m_data_encode_bool:00000000 $t
C:\Users\²Ü¼ÒºÀ\AppData\Local\Temp\cc2xoMwd.s:1519   .text.lwm2m_data_encode_bool:00000000 lwm2m_data_encode_bool
C:\Users\²Ü¼ÒºÀ\AppData\Local\Temp\cc2xoMwd.s:1604   .text.lwm2m_data_encode_bool:0000005c $d
C:\Users\²Ü¼ÒºÀ\AppData\Local\Temp\cc2xoMwd.s:1618   .text.lwm2m_data_decode_bool:00000000 $t
C:\Users\²Ü¼ÒºÀ\AppData\Local\Temp\cc2xoMwd.s:1625   .text.lwm2m_data_decode_bool:00000000 lwm2m_data_decode_bool
C:\Users\²Ü¼ÒºÀ\AppData\Local\Temp\cc2xoMwd.s:1828   .text.lwm2m_data_decode_bool:000000e0 $d
C:\Users\²Ü¼ÒºÀ\AppData\Local\Temp\cc2xoMwd.s:1843   .text.lwm2m_data_encode_objlink:00000000 $t
C:\Users\²Ü¼ÒºÀ\AppData\Local\Temp\cc2xoMwd.s:1850   .text.lwm2m_data_encode_objlink:00000000 lwm2m_data_encode_objlink
C:\Users\²Ü¼ÒºÀ\AppData\Local\Temp\cc2xoMwd.s:1935   .text.lwm2m_data_encode_objlink:00000058 $d
C:\Users\²Ü¼ÒºÀ\AppData\Local\Temp\cc2xoMwd.s:1946   .text.lwm2m_data_include:00000000 $t
C:\Users\²Ü¼ÒºÀ\AppData\Local\Temp\cc2xoMwd.s:1953   .text.lwm2m_data_include:00000000 lwm2m_data_include
C:\Users\²Ü¼ÒºÀ\AppData\Local\Temp\cc2xoMwd.s:2071   .text.lwm2m_data_include:00000068 $d
C:\Users\²Ü¼ÒºÀ\AppData\Local\Temp\cc2xoMwd.s:2081   .text.lwm2m_data_encode_instances:00000000 $t
C:\Users\²Ü¼ÒºÀ\AppData\Local\Temp\cc2xoMwd.s:2088   .text.lwm2m_data_encode_instances:00000000 lwm2m_data_encode_instances
C:\Users\²Ü¼ÒºÀ\AppData\Local\Temp\cc2xoMwd.s:2173   .text.lwm2m_data_encode_instances:0000005c $d
C:\Users\²Ü¼ÒºÀ\AppData\Local\Temp\cc2xoMwd.s:2205   .text.lwm2m_data_parse:00000000 $t
C:\Users\²Ü¼ÒºÀ\AppData\Local\Temp\cc2xoMwd.s:2212   .text.lwm2m_data_parse:00000000 lwm2m_data_parse
C:\Users\²Ü¼ÒºÀ\AppData\Local\Temp\cc2xoMwd.s:2645   .text.lwm2m_data_parse:00000214 $d
C:\Users\²Ü¼ÒºÀ\AppData\Local\Temp\cc2xoMwd.s:2673   .text.lwm2m_data_serialize:00000000 $t
C:\Users\²Ü¼ÒºÀ\AppData\Local\Temp\cc2xoMwd.s:2680   .text.lwm2m_data_serialize:00000000 lwm2m_data_serialize
ARM GAS  C:\Users\²Ü¼ÒºÀ\AppData\Local\Temp\cc2xoMwd.s 			page 96


C:\Users\²Ü¼ÒºÀ\AppData\Local\Temp\cc2xoMwd.s:3217   .text.lwm2m_data_serialize:000002fc $d
C:\Users\²Ü¼ÒºÀ\AppData\Local\Temp\cc2xoMwd.s:3223   .text.lwm2m_data_serialize:00000302 $t
C:\Users\²Ü¼ÒºÀ\AppData\Local\Temp\cc2xoMwd.s:3227   .text.lwm2m_data_serialize:00000304 $d
C:\Users\²Ü¼ÒºÀ\AppData\Local\Temp\cc2xoMwd.s:3246   .text.lwm2m_data_serialize:00000344 $t
C:\Users\²Ü¼ÒºÀ\AppData\Local\Temp\cc2xoMwd.s:3506   .rodata.__FUNCTION__.8673:00000000 __FUNCTION__.8673
C:\Users\²Ü¼ÒºÀ\AppData\Local\Temp\cc2xoMwd.s:3512   .rodata.__FUNCTION__.8680:00000000 __FUNCTION__.8680
C:\Users\²Ü¼ÒºÀ\AppData\Local\Temp\cc2xoMwd.s:3518   .rodata.__FUNCTION__.8698:00000000 __FUNCTION__.8698
C:\Users\²Ü¼ÒºÀ\AppData\Local\Temp\cc2xoMwd.s:3524   .rodata.__FUNCTION__.8709:00000000 __FUNCTION__.8709
C:\Users\²Ü¼ÒºÀ\AppData\Local\Temp\cc2xoMwd.s:3530   .rodata.__FUNCTION__.8716:00000000 __FUNCTION__.8716
C:\Users\²Ü¼ÒºÀ\AppData\Local\Temp\cc2xoMwd.s:3536   .rodata.__FUNCTION__.8722:00000000 __FUNCTION__.8722
C:\Users\²Ü¼ÒºÀ\AppData\Local\Temp\cc2xoMwd.s:3542   .rodata.__FUNCTION__.8729:00000000 __FUNCTION__.8729
C:\Users\²Ü¼ÒºÀ\AppData\Local\Temp\cc2xoMwd.s:3548   .rodata.__FUNCTION__.8748:00000000 __FUNCTION__.8748
C:\Users\²Ü¼ÒºÀ\AppData\Local\Temp\cc2xoMwd.s:3554   .rodata.__FUNCTION__.8755:00000000 __FUNCTION__.8755
C:\Users\²Ü¼ÒºÀ\AppData\Local\Temp\cc2xoMwd.s:3560   .rodata.__FUNCTION__.8772:00000000 __FUNCTION__.8772
C:\Users\²Ü¼ÒºÀ\AppData\Local\Temp\cc2xoMwd.s:3566   .rodata.__FUNCTION__.8779:00000000 __FUNCTION__.8779
C:\Users\²Ü¼ÒºÀ\AppData\Local\Temp\cc2xoMwd.s:3572   .rodata.__FUNCTION__.8799:00000000 __FUNCTION__.8799
C:\Users\²Ü¼ÒºÀ\AppData\Local\Temp\cc2xoMwd.s:3578   .rodata.__FUNCTION__.8806:00000000 __FUNCTION__.8806
C:\Users\²Ü¼ÒºÀ\AppData\Local\Temp\cc2xoMwd.s:3584   .rodata.__FUNCTION__.8823:00000000 __FUNCTION__.8823
C:\Users\²Ü¼ÒºÀ\AppData\Local\Temp\cc2xoMwd.s:3590   .rodata.__FUNCTION__.8833:00000000 __FUNCTION__.8833
C:\Users\²Ü¼ÒºÀ\AppData\Local\Temp\cc2xoMwd.s:3596   .rodata.__FUNCTION__.8846:00000000 __FUNCTION__.8846
C:\Users\²Ü¼ÒºÀ\AppData\Local\Temp\cc2xoMwd.s:3602   .rodata.__func__.8674:00000000 __func__.8674
C:\Users\²Ü¼ÒºÀ\AppData\Local\Temp\cc2xoMwd.s:3608   .rodata.__func__.8681:00000000 __func__.8681
C:\Users\²Ü¼ÒºÀ\AppData\Local\Temp\cc2xoMwd.s:3614   .rodata.__func__.8699:00000000 __func__.8699
C:\Users\²Ü¼ÒºÀ\AppData\Local\Temp\cc2xoMwd.s:3620   .rodata.__func__.8710:00000000 __func__.8710
C:\Users\²Ü¼ÒºÀ\AppData\Local\Temp\cc2xoMwd.s:3626   .rodata.__func__.8717:00000000 __func__.8717
C:\Users\²Ü¼ÒºÀ\AppData\Local\Temp\cc2xoMwd.s:3632   .rodata.__func__.8723:00000000 __func__.8723
C:\Users\²Ü¼ÒºÀ\AppData\Local\Temp\cc2xoMwd.s:3638   .rodata.__func__.8730:00000000 __func__.8730
C:\Users\²Ü¼ÒºÀ\AppData\Local\Temp\cc2xoMwd.s:3644   .rodata.__func__.8749:00000000 __func__.8749
C:\Users\²Ü¼ÒºÀ\AppData\Local\Temp\cc2xoMwd.s:3650   .rodata.__func__.8756:00000000 __func__.8756
C:\Users\²Ü¼ÒºÀ\AppData\Local\Temp\cc2xoMwd.s:3656   .rodata.__func__.8773:00000000 __func__.8773
C:\Users\²Ü¼ÒºÀ\AppData\Local\Temp\cc2xoMwd.s:3662   .rodata.__func__.8780:00000000 __func__.8780
C:\Users\²Ü¼ÒºÀ\AppData\Local\Temp\cc2xoMwd.s:3668   .rodata.__func__.8800:00000000 __func__.8800
C:\Users\²Ü¼ÒºÀ\AppData\Local\Temp\cc2xoMwd.s:3674   .rodata.__func__.8807:00000000 __func__.8807
C:\Users\²Ü¼ÒºÀ\AppData\Local\Temp\cc2xoMwd.s:3680   .rodata.__func__.8824:00000000 __func__.8824
C:\Users\²Ü¼ÒºÀ\AppData\Local\Temp\cc2xoMwd.s:3686   .rodata.__func__.8834:00000000 __func__.8834
C:\Users\²Ü¼ÒºÀ\AppData\Local\Temp\cc2xoMwd.s:3692   .rodata.__func__.8847:00000000 __func__.8847

UNDEFINED SYMBOLS
lwm2m_malloc
memcpy
link_log_level_get
link_log_level_name
osal_sys_time
lwm2m_gettime
printf
fflush
memset
_impure_ptr
lwm2m_free
utils_textToInt
utils_copyValue
__aeabi_l2d
__aeabi_f2d
utils_textToFloat
tlv_parse
discover_serialize
tlv_serialize
ARM GAS  C:\Users\²Ü¼ÒºÀ\AppData\Local\Temp\cc2xoMwd.s 			page 97


utils_intToText
utils_floatToText
utils_base64GetSize
utils_base64Encode
