ARM GAS  C:\Users\²Ü¼ÒºÀ\AppData\Local\Temp\cc4SIRne.s 			page 1


   1              		.cpu cortex-m4
   2              		.eabi_attribute 27, 1
   3              		.eabi_attribute 28, 1
   4              		.eabi_attribute 20, 1
   5              		.eabi_attribute 21, 1
   6              		.eabi_attribute 23, 3
   7              		.eabi_attribute 24, 1
   8              		.eabi_attribute 25, 1
   9              		.eabi_attribute 26, 1
  10              		.eabi_attribute 30, 4
  11              		.eabi_attribute 34, 1
  12              		.eabi_attribute 18, 4
  13              		.file	"discover.c"
  14              		.text
  15              	.Ltext0:
  16              		.cfi_sections	.debug_frame
  17              		.section	.text.prv_findAttributes,"ax",%progbits
  18              		.align	1
  19              		.arch armv7e-m
  20              		.syntax unified
  21              		.thumb
  22              		.thumb_func
  23              		.fpu fpv4-sp-d16
  25              	prv_findAttributes:
  26              	.LVL0:
  27              	.LFB4:
  28              		.file 1 "C:/Users/\262\334\274\322\272\300/.iotlink/sdk/IoT_LINK/iot_link/network/lwm2m/wakaama_lw
   1:C:/Users/²Ü¼ÒºÀ/.iotlink/sdk/IoT_LINK/iot_link/network/lwm2m/wakaama_lwm2m/wakaama-master/core\discover.c **** /*******************************************************************************
   2:C:/Users/²Ü¼ÒºÀ/.iotlink/sdk/IoT_LINK/iot_link/network/lwm2m/wakaama_lwm2m/wakaama-master/core\discover.c **** *
   3:C:/Users/²Ü¼ÒºÀ/.iotlink/sdk/IoT_LINK/iot_link/network/lwm2m/wakaama_lwm2m/wakaama-master/core\discover.c **** * Copyright (c) 2015 Intel Corporation and others.
   4:C:/Users/²Ü¼ÒºÀ/.iotlink/sdk/IoT_LINK/iot_link/network/lwm2m/wakaama_lwm2m/wakaama-master/core\discover.c **** * All rights reserved. This program and the accompanying materials
   5:C:/Users/²Ü¼ÒºÀ/.iotlink/sdk/IoT_LINK/iot_link/network/lwm2m/wakaama_lwm2m/wakaama-master/core\discover.c **** * are made available under the terms of the Eclipse Public License v1.0
   6:C:/Users/²Ü¼ÒºÀ/.iotlink/sdk/IoT_LINK/iot_link/network/lwm2m/wakaama_lwm2m/wakaama-master/core\discover.c **** * and Eclipse Distribution License v1.0 which accompany this distribution.
   7:C:/Users/²Ü¼ÒºÀ/.iotlink/sdk/IoT_LINK/iot_link/network/lwm2m/wakaama_lwm2m/wakaama-master/core\discover.c **** *
   8:C:/Users/²Ü¼ÒºÀ/.iotlink/sdk/IoT_LINK/iot_link/network/lwm2m/wakaama_lwm2m/wakaama-master/core\discover.c **** * The Eclipse Public License is available at
   9:C:/Users/²Ü¼ÒºÀ/.iotlink/sdk/IoT_LINK/iot_link/network/lwm2m/wakaama_lwm2m/wakaama-master/core\discover.c **** *    http://www.eclipse.org/legal/epl-v10.html
  10:C:/Users/²Ü¼ÒºÀ/.iotlink/sdk/IoT_LINK/iot_link/network/lwm2m/wakaama_lwm2m/wakaama-master/core\discover.c **** * The Eclipse Distribution License is available at
  11:C:/Users/²Ü¼ÒºÀ/.iotlink/sdk/IoT_LINK/iot_link/network/lwm2m/wakaama_lwm2m/wakaama-master/core\discover.c **** *    http://www.eclipse.org/org/documents/edl-v10.php.
  12:C:/Users/²Ü¼ÒºÀ/.iotlink/sdk/IoT_LINK/iot_link/network/lwm2m/wakaama_lwm2m/wakaama-master/core\discover.c **** *
  13:C:/Users/²Ü¼ÒºÀ/.iotlink/sdk/IoT_LINK/iot_link/network/lwm2m/wakaama_lwm2m/wakaama-master/core\discover.c **** * Contributors:
  14:C:/Users/²Ü¼ÒºÀ/.iotlink/sdk/IoT_LINK/iot_link/network/lwm2m/wakaama_lwm2m/wakaama-master/core\discover.c **** *    David Navarro, Intel Corporation - initial API and implementation
  15:C:/Users/²Ü¼ÒºÀ/.iotlink/sdk/IoT_LINK/iot_link/network/lwm2m/wakaama_lwm2m/wakaama-master/core\discover.c **** *
  16:C:/Users/²Ü¼ÒºÀ/.iotlink/sdk/IoT_LINK/iot_link/network/lwm2m/wakaama_lwm2m/wakaama-master/core\discover.c **** *******************************************************************************/
  17:C:/Users/²Ü¼ÒºÀ/.iotlink/sdk/IoT_LINK/iot_link/network/lwm2m/wakaama_lwm2m/wakaama-master/core\discover.c **** 
  18:C:/Users/²Ü¼ÒºÀ/.iotlink/sdk/IoT_LINK/iot_link/network/lwm2m/wakaama_lwm2m/wakaama-master/core\discover.c **** 
  19:C:/Users/²Ü¼ÒºÀ/.iotlink/sdk/IoT_LINK/iot_link/network/lwm2m/wakaama_lwm2m/wakaama-master/core\discover.c **** #include "internals.h"
  20:C:/Users/²Ü¼ÒºÀ/.iotlink/sdk/IoT_LINK/iot_link/network/lwm2m/wakaama_lwm2m/wakaama-master/core\discover.c **** 
  21:C:/Users/²Ü¼ÒºÀ/.iotlink/sdk/IoT_LINK/iot_link/network/lwm2m/wakaama_lwm2m/wakaama-master/core\discover.c **** #define PRV_LINK_BUFFER_SIZE  1024
  22:C:/Users/²Ü¼ÒºÀ/.iotlink/sdk/IoT_LINK/iot_link/network/lwm2m/wakaama_lwm2m/wakaama-master/core\discover.c **** 
  23:C:/Users/²Ü¼ÒºÀ/.iotlink/sdk/IoT_LINK/iot_link/network/lwm2m/wakaama_lwm2m/wakaama-master/core\discover.c **** 
  24:C:/Users/²Ü¼ÒºÀ/.iotlink/sdk/IoT_LINK/iot_link/network/lwm2m/wakaama_lwm2m/wakaama-master/core\discover.c **** #define PRV_CONCAT_STR(buf, len, index, str, str_len)    \
  25:C:/Users/²Ü¼ÒºÀ/.iotlink/sdk/IoT_LINK/iot_link/network/lwm2m/wakaama_lwm2m/wakaama-master/core\discover.c ****     {                                                    \
  26:C:/Users/²Ü¼ÒºÀ/.iotlink/sdk/IoT_LINK/iot_link/network/lwm2m/wakaama_lwm2m/wakaama-master/core\discover.c ****         if ((len)-(index) < (str_len)) return -1;        \
  27:C:/Users/²Ü¼ÒºÀ/.iotlink/sdk/IoT_LINK/iot_link/network/lwm2m/wakaama_lwm2m/wakaama-master/core\discover.c ****         memcpy((buf)+(index), (str), (str_len));         \
  28:C:/Users/²Ü¼ÒºÀ/.iotlink/sdk/IoT_LINK/iot_link/network/lwm2m/wakaama_lwm2m/wakaama-master/core\discover.c ****         (index) += (str_len);                            \
  29:C:/Users/²Ü¼ÒºÀ/.iotlink/sdk/IoT_LINK/iot_link/network/lwm2m/wakaama_lwm2m/wakaama-master/core\discover.c ****     }
  30:C:/Users/²Ü¼ÒºÀ/.iotlink/sdk/IoT_LINK/iot_link/network/lwm2m/wakaama_lwm2m/wakaama-master/core\discover.c **** 
ARM GAS  C:\Users\²Ü¼ÒºÀ\AppData\Local\Temp\cc4SIRne.s 			page 2


  31:C:/Users/²Ü¼ÒºÀ/.iotlink/sdk/IoT_LINK/iot_link/network/lwm2m/wakaama_lwm2m/wakaama-master/core\discover.c **** 
  32:C:/Users/²Ü¼ÒºÀ/.iotlink/sdk/IoT_LINK/iot_link/network/lwm2m/wakaama_lwm2m/wakaama-master/core\discover.c **** #ifdef LWM2M_CLIENT_MODE
  33:C:/Users/²Ü¼ÒºÀ/.iotlink/sdk/IoT_LINK/iot_link/network/lwm2m/wakaama_lwm2m/wakaama-master/core\discover.c **** 
  34:C:/Users/²Ü¼ÒºÀ/.iotlink/sdk/IoT_LINK/iot_link/network/lwm2m/wakaama_lwm2m/wakaama-master/core\discover.c **** static lwm2m_attributes_t *prv_findAttributes(lwm2m_context_t *contextP,
  35:C:/Users/²Ü¼ÒºÀ/.iotlink/sdk/IoT_LINK/iot_link/network/lwm2m/wakaama_lwm2m/wakaama-master/core\discover.c ****         lwm2m_uri_t *uriP,
  36:C:/Users/²Ü¼ÒºÀ/.iotlink/sdk/IoT_LINK/iot_link/network/lwm2m/wakaama_lwm2m/wakaama-master/core\discover.c ****         lwm2m_server_t *serverP)
  37:C:/Users/²Ü¼ÒºÀ/.iotlink/sdk/IoT_LINK/iot_link/network/lwm2m/wakaama_lwm2m/wakaama-master/core\discover.c **** {
  29              		.loc 1 37 1 view -0
  30              		.cfi_startproc
  31              		@ args = 0, pretend = 0, frame = 0
  32              		@ frame_needed = 0, uses_anonymous_args = 0
  38:C:/Users/²Ü¼ÒºÀ/.iotlink/sdk/IoT_LINK/iot_link/network/lwm2m/wakaama_lwm2m/wakaama-master/core\discover.c ****     lwm2m_observed_t *observedP;
  33              		.loc 1 38 5 view .LVU1
  39:C:/Users/²Ü¼ÒºÀ/.iotlink/sdk/IoT_LINK/iot_link/network/lwm2m/wakaama_lwm2m/wakaama-master/core\discover.c ****     lwm2m_watcher_t *watcherP;
  34              		.loc 1 39 5 view .LVU2
  40:C:/Users/²Ü¼ÒºÀ/.iotlink/sdk/IoT_LINK/iot_link/network/lwm2m/wakaama_lwm2m/wakaama-master/core\discover.c ****     lwm2m_attributes_t *paramP;
  35              		.loc 1 40 5 view .LVU3
  41:C:/Users/²Ü¼ÒºÀ/.iotlink/sdk/IoT_LINK/iot_link/network/lwm2m/wakaama_lwm2m/wakaama-master/core\discover.c **** 
  42:C:/Users/²Ü¼ÒºÀ/.iotlink/sdk/IoT_LINK/iot_link/network/lwm2m/wakaama_lwm2m/wakaama-master/core\discover.c ****     paramP = NULL;
  36              		.loc 1 42 5 view .LVU4
  43:C:/Users/²Ü¼ÒºÀ/.iotlink/sdk/IoT_LINK/iot_link/network/lwm2m/wakaama_lwm2m/wakaama-master/core\discover.c **** 
  44:C:/Users/²Ü¼ÒºÀ/.iotlink/sdk/IoT_LINK/iot_link/network/lwm2m/wakaama_lwm2m/wakaama-master/core\discover.c ****     if (contextP == NULL) return NULL;
  37              		.loc 1 44 5 view .LVU5
  37:C:/Users/²Ü¼ÒºÀ/.iotlink/sdk/IoT_LINK/iot_link/network/lwm2m/wakaama_lwm2m/wakaama-master/core\discover.c ****     lwm2m_observed_t *observedP;
  38              		.loc 1 37 1 is_stmt 0 view .LVU6
  39 0000 10B5     		push	{r4, lr}
  40              	.LCFI0:
  41              		.cfi_def_cfa_offset 8
  42              		.cfi_offset 4, -8
  43              		.cfi_offset 14, -4
  37:C:/Users/²Ü¼ÒºÀ/.iotlink/sdk/IoT_LINK/iot_link/network/lwm2m/wakaama_lwm2m/wakaama-master/core\discover.c ****     lwm2m_observed_t *observedP;
  44              		.loc 1 37 1 view .LVU7
  45 0002 1446     		mov	r4, r2
  46              		.loc 1 44 8 view .LVU8
  47 0004 70B1     		cbz	r0, .L2
  45:C:/Users/²Ü¼ÒºÀ/.iotlink/sdk/IoT_LINK/iot_link/network/lwm2m/wakaama_lwm2m/wakaama-master/core\discover.c ****     if (serverP == NULL) return NULL;
  48              		.loc 1 45 5 is_stmt 1 view .LVU9
  49              		.loc 1 45 8 is_stmt 0 view .LVU10
  50 0006 6AB1     		cbz	r2, .L2
  46:C:/Users/²Ü¼ÒºÀ/.iotlink/sdk/IoT_LINK/iot_link/network/lwm2m/wakaama_lwm2m/wakaama-master/core\discover.c **** 
  47:C:/Users/²Ü¼ÒºÀ/.iotlink/sdk/IoT_LINK/iot_link/network/lwm2m/wakaama_lwm2m/wakaama-master/core\discover.c ****     observedP = observe_findByUri(contextP, uriP);
  51              		.loc 1 47 5 is_stmt 1 view .LVU11
  52              		.loc 1 47 17 is_stmt 0 view .LVU12
  53 0008 FFF7FEFF 		bl	observe_findByUri
  54              	.LVL1:
  48:C:/Users/²Ü¼ÒºÀ/.iotlink/sdk/IoT_LINK/iot_link/network/lwm2m/wakaama_lwm2m/wakaama-master/core\discover.c ****     if (observedP == NULL || observedP->watcherList == NULL) return NULL;
  55              		.loc 1 48 5 is_stmt 1 view .LVU13
  56              		.loc 1 48 8 is_stmt 0 view .LVU14
  57 000c 50B1     		cbz	r0, .L2
  58              		.loc 1 48 39 discriminator 2 view .LVU15
  59 000e C368     		ldr	r3, [r0, #12]
  60              		.loc 1 48 27 discriminator 2 view .LVU16
  61 0010 43B1     		cbz	r3, .L2
  42:C:/Users/²Ü¼ÒºÀ/.iotlink/sdk/IoT_LINK/iot_link/network/lwm2m/wakaama_lwm2m/wakaama-master/core\discover.c **** 
  62              		.loc 1 42 12 view .LVU17
  63 0012 0020     		movs	r0, #0
  64              	.LVL2:
ARM GAS  C:\Users\²Ü¼ÒºÀ\AppData\Local\Temp\cc4SIRne.s 			page 3


  65              	.L4:
  49:C:/Users/²Ü¼ÒºÀ/.iotlink/sdk/IoT_LINK/iot_link/network/lwm2m/wakaama_lwm2m/wakaama-master/core\discover.c **** 
  50:C:/Users/²Ü¼ÒºÀ/.iotlink/sdk/IoT_LINK/iot_link/network/lwm2m/wakaama_lwm2m/wakaama-master/core\discover.c ****     for (watcherP = observedP->watcherList; watcherP != NULL; watcherP = watcherP->next)
  51:C:/Users/²Ü¼ÒºÀ/.iotlink/sdk/IoT_LINK/iot_link/network/lwm2m/wakaama_lwm2m/wakaama-master/core\discover.c ****     {
  52:C:/Users/²Ü¼ÒºÀ/.iotlink/sdk/IoT_LINK/iot_link/network/lwm2m/wakaama_lwm2m/wakaama-master/core\discover.c ****         if (watcherP->server == serverP)
  66              		.loc 1 52 9 is_stmt 1 view .LVU18
  67              		.loc 1 52 12 is_stmt 0 view .LVU19
  68 0014 9A68     		ldr	r2, [r3, #8]
  69 0016 A242     		cmp	r2, r4
  53:C:/Users/²Ü¼ÒºÀ/.iotlink/sdk/IoT_LINK/iot_link/network/lwm2m/wakaama_lwm2m/wakaama-master/core\discover.c ****         {
  54:C:/Users/²Ü¼ÒºÀ/.iotlink/sdk/IoT_LINK/iot_link/network/lwm2m/wakaama_lwm2m/wakaama-master/core\discover.c ****             paramP = watcherP->parameters;
  70              		.loc 1 54 13 is_stmt 1 view .LVU20
  71              		.loc 1 54 20 is_stmt 0 view .LVU21
  72 0018 08BF     		it	eq
  73 001a D868     		ldreq	r0, [r3, #12]
  74              	.LVL3:
  50:C:/Users/²Ü¼ÒºÀ/.iotlink/sdk/IoT_LINK/iot_link/network/lwm2m/wakaama_lwm2m/wakaama-master/core\discover.c ****     {
  75              		.loc 1 50 63 is_stmt 1 view .LVU22
  50:C:/Users/²Ü¼ÒºÀ/.iotlink/sdk/IoT_LINK/iot_link/network/lwm2m/wakaama_lwm2m/wakaama-master/core\discover.c ****     {
  76              		.loc 1 50 72 is_stmt 0 view .LVU23
  77 001c 1B68     		ldr	r3, [r3]
  78              	.LVL4:
  50:C:/Users/²Ü¼ÒºÀ/.iotlink/sdk/IoT_LINK/iot_link/network/lwm2m/wakaama_lwm2m/wakaama-master/core\discover.c ****     {
  79              		.loc 1 50 45 is_stmt 1 view .LVU24
  50:C:/Users/²Ü¼ÒºÀ/.iotlink/sdk/IoT_LINK/iot_link/network/lwm2m/wakaama_lwm2m/wakaama-master/core\discover.c ****     {
  80              		.loc 1 50 5 is_stmt 0 view .LVU25
  81 001e 002B     		cmp	r3, #0
  82 0020 F8D1     		bne	.L4
  83              	.LVL5:
  84              	.L1:
  55:C:/Users/²Ü¼ÒºÀ/.iotlink/sdk/IoT_LINK/iot_link/network/lwm2m/wakaama_lwm2m/wakaama-master/core\discover.c ****         }
  56:C:/Users/²Ü¼ÒºÀ/.iotlink/sdk/IoT_LINK/iot_link/network/lwm2m/wakaama_lwm2m/wakaama-master/core\discover.c ****     }
  57:C:/Users/²Ü¼ÒºÀ/.iotlink/sdk/IoT_LINK/iot_link/network/lwm2m/wakaama_lwm2m/wakaama-master/core\discover.c **** 
  58:C:/Users/²Ü¼ÒºÀ/.iotlink/sdk/IoT_LINK/iot_link/network/lwm2m/wakaama_lwm2m/wakaama-master/core\discover.c ****     return paramP;
  59:C:/Users/²Ü¼ÒºÀ/.iotlink/sdk/IoT_LINK/iot_link/network/lwm2m/wakaama_lwm2m/wakaama-master/core\discover.c **** }
  85              		.loc 1 59 1 view .LVU26
  86 0022 10BD     		pop	{r4, pc}
  87              	.LVL6:
  88              	.L2:
  44:C:/Users/²Ü¼ÒºÀ/.iotlink/sdk/IoT_LINK/iot_link/network/lwm2m/wakaama_lwm2m/wakaama-master/core\discover.c ****     if (serverP == NULL) return NULL;
  89              		.loc 1 44 34 view .LVU27
  90 0024 0020     		movs	r0, #0
  91 0026 FCE7     		b	.L1
  92              		.cfi_endproc
  93              	.LFE4:
  95              		.section	.rodata.prv_serializeAttributes.str1.1,"aMS",%progbits,1
  96              	.LC0:
  97 0000 706D696E 		.ascii	"pmin=\000"
  97      3D00
  98              	.LC1:
  99 0006 706D6178 		.ascii	"pmax=\000"
  99      3D00
 100              	.LC2:
 101 000c 67743D00 		.ascii	"gt=\000"
 102              	.LC3:
 103 0010 6C743D00 		.ascii	"lt=\000"
 104              	.LC4:
ARM GAS  C:\Users\²Ü¼ÒºÀ\AppData\Local\Temp\cc4SIRne.s 			page 4


 105 0014 73743D00 		.ascii	"st=\000"
 106              		.section	.text.prv_serializeAttributes,"ax",%progbits
 107              		.align	1
 108              		.syntax unified
 109              		.thumb
 110              		.thumb_func
 111              		.fpu fpv4-sp-d16
 113              	prv_serializeAttributes:
 114              	.LVL7:
 115              	.LFB5:
  60:C:/Users/²Ü¼ÒºÀ/.iotlink/sdk/IoT_LINK/iot_link/network/lwm2m/wakaama_lwm2m/wakaama-master/core\discover.c **** 
  61:C:/Users/²Ü¼ÒºÀ/.iotlink/sdk/IoT_LINK/iot_link/network/lwm2m/wakaama_lwm2m/wakaama-master/core\discover.c **** static int prv_serializeAttributes(lwm2m_context_t *contextP,
  62:C:/Users/²Ü¼ÒºÀ/.iotlink/sdk/IoT_LINK/iot_link/network/lwm2m/wakaama_lwm2m/wakaama-master/core\discover.c ****                                    lwm2m_uri_t *uriP,
  63:C:/Users/²Ü¼ÒºÀ/.iotlink/sdk/IoT_LINK/iot_link/network/lwm2m/wakaama_lwm2m/wakaama-master/core\discover.c ****                                    lwm2m_server_t *serverP,
  64:C:/Users/²Ü¼ÒºÀ/.iotlink/sdk/IoT_LINK/iot_link/network/lwm2m/wakaama_lwm2m/wakaama-master/core\discover.c ****                                    lwm2m_attributes_t *objectParamP,
  65:C:/Users/²Ü¼ÒºÀ/.iotlink/sdk/IoT_LINK/iot_link/network/lwm2m/wakaama_lwm2m/wakaama-master/core\discover.c ****                                    uint8_t *buffer,
  66:C:/Users/²Ü¼ÒºÀ/.iotlink/sdk/IoT_LINK/iot_link/network/lwm2m/wakaama_lwm2m/wakaama-master/core\discover.c ****                                    size_t uriLen,
  67:C:/Users/²Ü¼ÒºÀ/.iotlink/sdk/IoT_LINK/iot_link/network/lwm2m/wakaama_lwm2m/wakaama-master/core\discover.c ****                                    size_t bufferLen)
  68:C:/Users/²Ü¼ÒºÀ/.iotlink/sdk/IoT_LINK/iot_link/network/lwm2m/wakaama_lwm2m/wakaama-master/core\discover.c **** {
 116              		.loc 1 68 1 is_stmt 1 view -0
 117              		.cfi_startproc
 118              		@ args = 12, pretend = 0, frame = 0
 119              		@ frame_needed = 0, uses_anonymous_args = 0
  69:C:/Users/²Ü¼ÒºÀ/.iotlink/sdk/IoT_LINK/iot_link/network/lwm2m/wakaama_lwm2m/wakaama-master/core\discover.c ****     int head;
 120              		.loc 1 69 5 view .LVU29
  70:C:/Users/²Ü¼ÒºÀ/.iotlink/sdk/IoT_LINK/iot_link/network/lwm2m/wakaama_lwm2m/wakaama-master/core\discover.c ****     int res;
 121              		.loc 1 70 5 view .LVU30
  71:C:/Users/²Ü¼ÒºÀ/.iotlink/sdk/IoT_LINK/iot_link/network/lwm2m/wakaama_lwm2m/wakaama-master/core\discover.c ****     lwm2m_attributes_t *paramP;
 122              		.loc 1 71 5 view .LVU31
  72:C:/Users/²Ü¼ÒºÀ/.iotlink/sdk/IoT_LINK/iot_link/network/lwm2m/wakaama_lwm2m/wakaama-master/core\discover.c **** 
  73:C:/Users/²Ü¼ÒºÀ/.iotlink/sdk/IoT_LINK/iot_link/network/lwm2m/wakaama_lwm2m/wakaama-master/core\discover.c ****     head = 0;
 123              		.loc 1 73 5 view .LVU32
  74:C:/Users/²Ü¼ÒºÀ/.iotlink/sdk/IoT_LINK/iot_link/network/lwm2m/wakaama_lwm2m/wakaama-master/core\discover.c **** 
  75:C:/Users/²Ü¼ÒºÀ/.iotlink/sdk/IoT_LINK/iot_link/network/lwm2m/wakaama_lwm2m/wakaama-master/core\discover.c ****     paramP = prv_findAttributes(contextP, uriP, serverP);
 124              		.loc 1 75 5 view .LVU33
  68:C:/Users/²Ü¼ÒºÀ/.iotlink/sdk/IoT_LINK/iot_link/network/lwm2m/wakaama_lwm2m/wakaama-master/core\discover.c ****     int head;
 125              		.loc 1 68 1 is_stmt 0 view .LVU34
 126 0000 2DE9F843 		push	{r3, r4, r5, r6, r7, r8, r9, lr}
 127              	.LCFI1:
 128              		.cfi_def_cfa_offset 32
 129              		.cfi_offset 3, -32
 130              		.cfi_offset 4, -28
 131              		.cfi_offset 5, -24
 132              		.cfi_offset 6, -20
 133              		.cfi_offset 7, -16
 134              		.cfi_offset 8, -12
 135              		.cfi_offset 9, -8
 136              		.cfi_offset 14, -4
  68:C:/Users/²Ü¼ÒºÀ/.iotlink/sdk/IoT_LINK/iot_link/network/lwm2m/wakaama_lwm2m/wakaama-master/core\discover.c ****     int head;
 137              		.loc 1 68 1 view .LVU35
 138 0004 0A9D     		ldr	r5, [sp, #40]
 139 0006 DDE90848 		ldrd	r4, r8, [sp, #32]
 140 000a 1E46     		mov	r6, r3
 141              		.loc 1 75 14 view .LVU36
 142 000c FFF7FEFF 		bl	prv_findAttributes
 143              	.LVL8:
  76:C:/Users/²Ü¼ÒºÀ/.iotlink/sdk/IoT_LINK/iot_link/network/lwm2m/wakaama_lwm2m/wakaama-master/core\discover.c ****     if (paramP == NULL) paramP = objectParamP;
ARM GAS  C:\Users\²Ü¼ÒºÀ\AppData\Local\Temp\cc4SIRne.s 			page 5


 144              		.loc 1 76 5 is_stmt 1 view .LVU37
 145              		.loc 1 76 8 is_stmt 0 view .LVU38
 146 0010 0746     		mov	r7, r0
 147 0012 18B9     		cbnz	r0, .L20
 148              		.loc 1 76 25 is_stmt 1 view .LVU39
 149              	.LVL9:
  77:C:/Users/²Ü¼ÒºÀ/.iotlink/sdk/IoT_LINK/iot_link/network/lwm2m/wakaama_lwm2m/wakaama-master/core\discover.c **** 
  78:C:/Users/²Ü¼ÒºÀ/.iotlink/sdk/IoT_LINK/iot_link/network/lwm2m/wakaama_lwm2m/wakaama-master/core\discover.c ****     if (paramP != NULL)
 150              		.loc 1 78 5 view .LVU40
 151              		.loc 1 78 8 is_stmt 0 view .LVU41
 152 0014 002E     		cmp	r6, #0
 153 0016 00F0EB80 		beq	.L31
 154 001a 3746     		mov	r7, r6
 155              	.LVL10:
 156              	.L20:
  79:C:/Users/²Ü¼ÒºÀ/.iotlink/sdk/IoT_LINK/iot_link/network/lwm2m/wakaama_lwm2m/wakaama-master/core\discover.c ****     {
  80:C:/Users/²Ü¼ÒºÀ/.iotlink/sdk/IoT_LINK/iot_link/network/lwm2m/wakaama_lwm2m/wakaama-master/core\discover.c ****         head = uriLen;
 157              		.loc 1 80 9 is_stmt 1 view .LVU42
  81:C:/Users/²Ü¼ÒºÀ/.iotlink/sdk/IoT_LINK/iot_link/network/lwm2m/wakaama_lwm2m/wakaama-master/core\discover.c **** 
  82:C:/Users/²Ü¼ÒºÀ/.iotlink/sdk/IoT_LINK/iot_link/network/lwm2m/wakaama_lwm2m/wakaama-master/core\discover.c ****         if (paramP->toSet & LWM2M_ATTR_FLAG_MIN_PERIOD)
 158              		.loc 1 82 12 is_stmt 0 view .LVU43
 159 001c 3978     		ldrb	r1, [r7]	@ zero_extendqisi2
 160 001e 11F00101 		ands	r1, r1, #1
  80:C:/Users/²Ü¼ÒºÀ/.iotlink/sdk/IoT_LINK/iot_link/network/lwm2m/wakaama_lwm2m/wakaama-master/core\discover.c **** 
 161              		.loc 1 80 14 view .LVU44
 162 0022 4246     		mov	r2, r8
 163              	.LVL11:
 164              		.loc 1 82 9 is_stmt 1 view .LVU45
 165              		.loc 1 82 12 is_stmt 0 view .LVU46
 166 0024 00F09E80 		beq	.L22
  83:C:/Users/²Ü¼ÒºÀ/.iotlink/sdk/IoT_LINK/iot_link/network/lwm2m/wakaama_lwm2m/wakaama-master/core\discover.c ****         {
  84:C:/Users/²Ü¼ÒºÀ/.iotlink/sdk/IoT_LINK/iot_link/network/lwm2m/wakaama_lwm2m/wakaama-master/core\discover.c ****             PRV_CONCAT_STR(buffer, bufferLen, head, LINK_ATTR_SEPARATOR, LINK_ATTR_SEPARATOR_SIZE);
 167              		.loc 1 84 13 is_stmt 1 view .LVU47
 168 0028 A845     		cmp	r8, r5
 169 002a 03D1     		bne	.L23
 170              	.LVL12:
 171              	.L24:
 172              		.loc 1 84 13 is_stmt 0 view .LVU48
 173 002c 4FF0FF30 		mov	r0, #-1
 174              	.LVL13:
 175              	.L19:
  85:C:/Users/²Ü¼ÒºÀ/.iotlink/sdk/IoT_LINK/iot_link/network/lwm2m/wakaama_lwm2m/wakaama-master/core\discover.c ****             PRV_CONCAT_STR(buffer, bufferLen, head, ATTR_MIN_PERIOD_STR, ATTR_MIN_PERIOD_LEN);
  86:C:/Users/²Ü¼ÒºÀ/.iotlink/sdk/IoT_LINK/iot_link/network/lwm2m/wakaama_lwm2m/wakaama-master/core\discover.c **** 
  87:C:/Users/²Ü¼ÒºÀ/.iotlink/sdk/IoT_LINK/iot_link/network/lwm2m/wakaama_lwm2m/wakaama-master/core\discover.c ****             res = utils_intToText(paramP->minPeriod, buffer + head, bufferLen - head);
  88:C:/Users/²Ü¼ÒºÀ/.iotlink/sdk/IoT_LINK/iot_link/network/lwm2m/wakaama_lwm2m/wakaama-master/core\discover.c ****             if (res <= 0) return -1;
  89:C:/Users/²Ü¼ÒºÀ/.iotlink/sdk/IoT_LINK/iot_link/network/lwm2m/wakaama_lwm2m/wakaama-master/core\discover.c ****             head += res;
  90:C:/Users/²Ü¼ÒºÀ/.iotlink/sdk/IoT_LINK/iot_link/network/lwm2m/wakaama_lwm2m/wakaama-master/core\discover.c ****         }
  91:C:/Users/²Ü¼ÒºÀ/.iotlink/sdk/IoT_LINK/iot_link/network/lwm2m/wakaama_lwm2m/wakaama-master/core\discover.c ****         else if (objectParamP->toSet & LWM2M_ATTR_FLAG_MIN_PERIOD)
  92:C:/Users/²Ü¼ÒºÀ/.iotlink/sdk/IoT_LINK/iot_link/network/lwm2m/wakaama_lwm2m/wakaama-master/core\discover.c ****         {
  93:C:/Users/²Ü¼ÒºÀ/.iotlink/sdk/IoT_LINK/iot_link/network/lwm2m/wakaama_lwm2m/wakaama-master/core\discover.c ****             PRV_CONCAT_STR(buffer, bufferLen, head, LINK_ATTR_SEPARATOR, LINK_ATTR_SEPARATOR_SIZE);
  94:C:/Users/²Ü¼ÒºÀ/.iotlink/sdk/IoT_LINK/iot_link/network/lwm2m/wakaama_lwm2m/wakaama-master/core\discover.c ****             PRV_CONCAT_STR(buffer, bufferLen, head, ATTR_MIN_PERIOD_STR, ATTR_MIN_PERIOD_LEN);
  95:C:/Users/²Ü¼ÒºÀ/.iotlink/sdk/IoT_LINK/iot_link/network/lwm2m/wakaama_lwm2m/wakaama-master/core\discover.c **** 
  96:C:/Users/²Ü¼ÒºÀ/.iotlink/sdk/IoT_LINK/iot_link/network/lwm2m/wakaama_lwm2m/wakaama-master/core\discover.c ****             res = utils_intToText(objectParamP->minPeriod, buffer + head, bufferLen - head);
  97:C:/Users/²Ü¼ÒºÀ/.iotlink/sdk/IoT_LINK/iot_link/network/lwm2m/wakaama_lwm2m/wakaama-master/core\discover.c ****             if (res <= 0) return -1;
  98:C:/Users/²Ü¼ÒºÀ/.iotlink/sdk/IoT_LINK/iot_link/network/lwm2m/wakaama_lwm2m/wakaama-master/core\discover.c ****             head += res;
  99:C:/Users/²Ü¼ÒºÀ/.iotlink/sdk/IoT_LINK/iot_link/network/lwm2m/wakaama_lwm2m/wakaama-master/core\discover.c ****         }
 100:C:/Users/²Ü¼ÒºÀ/.iotlink/sdk/IoT_LINK/iot_link/network/lwm2m/wakaama_lwm2m/wakaama-master/core\discover.c **** 
ARM GAS  C:\Users\²Ü¼ÒºÀ\AppData\Local\Temp\cc4SIRne.s 			page 6


 101:C:/Users/²Ü¼ÒºÀ/.iotlink/sdk/IoT_LINK/iot_link/network/lwm2m/wakaama_lwm2m/wakaama-master/core\discover.c ****         if (paramP->toSet & LWM2M_ATTR_FLAG_MAX_PERIOD)
 102:C:/Users/²Ü¼ÒºÀ/.iotlink/sdk/IoT_LINK/iot_link/network/lwm2m/wakaama_lwm2m/wakaama-master/core\discover.c ****         {
 103:C:/Users/²Ü¼ÒºÀ/.iotlink/sdk/IoT_LINK/iot_link/network/lwm2m/wakaama_lwm2m/wakaama-master/core\discover.c ****             PRV_CONCAT_STR(buffer, bufferLen, head, LINK_ATTR_SEPARATOR, LINK_ATTR_SEPARATOR_SIZE);
 104:C:/Users/²Ü¼ÒºÀ/.iotlink/sdk/IoT_LINK/iot_link/network/lwm2m/wakaama_lwm2m/wakaama-master/core\discover.c ****             PRV_CONCAT_STR(buffer, bufferLen, head, ATTR_MAX_PERIOD_STR, ATTR_MAX_PERIOD_LEN);
 105:C:/Users/²Ü¼ÒºÀ/.iotlink/sdk/IoT_LINK/iot_link/network/lwm2m/wakaama_lwm2m/wakaama-master/core\discover.c **** 
 106:C:/Users/²Ü¼ÒºÀ/.iotlink/sdk/IoT_LINK/iot_link/network/lwm2m/wakaama_lwm2m/wakaama-master/core\discover.c ****             res = utils_intToText(paramP->maxPeriod, buffer + head, bufferLen - head);
 107:C:/Users/²Ü¼ÒºÀ/.iotlink/sdk/IoT_LINK/iot_link/network/lwm2m/wakaama_lwm2m/wakaama-master/core\discover.c ****             if (res <= 0) return -1;
 108:C:/Users/²Ü¼ÒºÀ/.iotlink/sdk/IoT_LINK/iot_link/network/lwm2m/wakaama_lwm2m/wakaama-master/core\discover.c ****             head += res;
 109:C:/Users/²Ü¼ÒºÀ/.iotlink/sdk/IoT_LINK/iot_link/network/lwm2m/wakaama_lwm2m/wakaama-master/core\discover.c ****         }
 110:C:/Users/²Ü¼ÒºÀ/.iotlink/sdk/IoT_LINK/iot_link/network/lwm2m/wakaama_lwm2m/wakaama-master/core\discover.c ****         else if (objectParamP->toSet & LWM2M_ATTR_FLAG_MAX_PERIOD)
 111:C:/Users/²Ü¼ÒºÀ/.iotlink/sdk/IoT_LINK/iot_link/network/lwm2m/wakaama_lwm2m/wakaama-master/core\discover.c ****         {
 112:C:/Users/²Ü¼ÒºÀ/.iotlink/sdk/IoT_LINK/iot_link/network/lwm2m/wakaama_lwm2m/wakaama-master/core\discover.c ****             PRV_CONCAT_STR(buffer, bufferLen, head, LINK_ATTR_SEPARATOR, LINK_ATTR_SEPARATOR_SIZE);
 113:C:/Users/²Ü¼ÒºÀ/.iotlink/sdk/IoT_LINK/iot_link/network/lwm2m/wakaama_lwm2m/wakaama-master/core\discover.c ****             PRV_CONCAT_STR(buffer, bufferLen, head, ATTR_MAX_PERIOD_STR, ATTR_MAX_PERIOD_LEN);
 114:C:/Users/²Ü¼ÒºÀ/.iotlink/sdk/IoT_LINK/iot_link/network/lwm2m/wakaama_lwm2m/wakaama-master/core\discover.c **** 
 115:C:/Users/²Ü¼ÒºÀ/.iotlink/sdk/IoT_LINK/iot_link/network/lwm2m/wakaama_lwm2m/wakaama-master/core\discover.c ****             res = utils_intToText(objectParamP->maxPeriod, buffer + head, bufferLen - head);
 116:C:/Users/²Ü¼ÒºÀ/.iotlink/sdk/IoT_LINK/iot_link/network/lwm2m/wakaama_lwm2m/wakaama-master/core\discover.c ****             if (res <= 0) return -1;
 117:C:/Users/²Ü¼ÒºÀ/.iotlink/sdk/IoT_LINK/iot_link/network/lwm2m/wakaama_lwm2m/wakaama-master/core\discover.c ****             head += res;
 118:C:/Users/²Ü¼ÒºÀ/.iotlink/sdk/IoT_LINK/iot_link/network/lwm2m/wakaama_lwm2m/wakaama-master/core\discover.c ****         }
 119:C:/Users/²Ü¼ÒºÀ/.iotlink/sdk/IoT_LINK/iot_link/network/lwm2m/wakaama_lwm2m/wakaama-master/core\discover.c **** 
 120:C:/Users/²Ü¼ÒºÀ/.iotlink/sdk/IoT_LINK/iot_link/network/lwm2m/wakaama_lwm2m/wakaama-master/core\discover.c ****         if (paramP->toSet & LWM2M_ATTR_FLAG_GREATER_THAN)
 121:C:/Users/²Ü¼ÒºÀ/.iotlink/sdk/IoT_LINK/iot_link/network/lwm2m/wakaama_lwm2m/wakaama-master/core\discover.c ****         {
 122:C:/Users/²Ü¼ÒºÀ/.iotlink/sdk/IoT_LINK/iot_link/network/lwm2m/wakaama_lwm2m/wakaama-master/core\discover.c ****             PRV_CONCAT_STR(buffer, bufferLen, head, LINK_ATTR_SEPARATOR, LINK_ATTR_SEPARATOR_SIZE);
 123:C:/Users/²Ü¼ÒºÀ/.iotlink/sdk/IoT_LINK/iot_link/network/lwm2m/wakaama_lwm2m/wakaama-master/core\discover.c ****             PRV_CONCAT_STR(buffer, bufferLen, head, ATTR_GREATER_THAN_STR, ATTR_GREATER_THAN_LEN);
 124:C:/Users/²Ü¼ÒºÀ/.iotlink/sdk/IoT_LINK/iot_link/network/lwm2m/wakaama_lwm2m/wakaama-master/core\discover.c **** 
 125:C:/Users/²Ü¼ÒºÀ/.iotlink/sdk/IoT_LINK/iot_link/network/lwm2m/wakaama_lwm2m/wakaama-master/core\discover.c ****             res = utils_floatToText(paramP->greaterThan, buffer + head, bufferLen - head);
 126:C:/Users/²Ü¼ÒºÀ/.iotlink/sdk/IoT_LINK/iot_link/network/lwm2m/wakaama_lwm2m/wakaama-master/core\discover.c ****             if (res <= 0) return -1;
 127:C:/Users/²Ü¼ÒºÀ/.iotlink/sdk/IoT_LINK/iot_link/network/lwm2m/wakaama_lwm2m/wakaama-master/core\discover.c ****             head += res;
 128:C:/Users/²Ü¼ÒºÀ/.iotlink/sdk/IoT_LINK/iot_link/network/lwm2m/wakaama_lwm2m/wakaama-master/core\discover.c ****         }
 129:C:/Users/²Ü¼ÒºÀ/.iotlink/sdk/IoT_LINK/iot_link/network/lwm2m/wakaama_lwm2m/wakaama-master/core\discover.c ****         if (paramP->toSet & LWM2M_ATTR_FLAG_LESS_THAN)
 130:C:/Users/²Ü¼ÒºÀ/.iotlink/sdk/IoT_LINK/iot_link/network/lwm2m/wakaama_lwm2m/wakaama-master/core\discover.c ****         {
 131:C:/Users/²Ü¼ÒºÀ/.iotlink/sdk/IoT_LINK/iot_link/network/lwm2m/wakaama_lwm2m/wakaama-master/core\discover.c ****             PRV_CONCAT_STR(buffer, bufferLen, head, LINK_ATTR_SEPARATOR, LINK_ATTR_SEPARATOR_SIZE);
 132:C:/Users/²Ü¼ÒºÀ/.iotlink/sdk/IoT_LINK/iot_link/network/lwm2m/wakaama_lwm2m/wakaama-master/core\discover.c ****             PRV_CONCAT_STR(buffer, bufferLen, head, ATTR_LESS_THAN_STR, ATTR_LESS_THAN_LEN);
 133:C:/Users/²Ü¼ÒºÀ/.iotlink/sdk/IoT_LINK/iot_link/network/lwm2m/wakaama_lwm2m/wakaama-master/core\discover.c **** 
 134:C:/Users/²Ü¼ÒºÀ/.iotlink/sdk/IoT_LINK/iot_link/network/lwm2m/wakaama_lwm2m/wakaama-master/core\discover.c ****             res = utils_floatToText(paramP->lessThan, buffer + head, bufferLen - head);
 135:C:/Users/²Ü¼ÒºÀ/.iotlink/sdk/IoT_LINK/iot_link/network/lwm2m/wakaama_lwm2m/wakaama-master/core\discover.c ****             if (res <= 0) return -1;
 136:C:/Users/²Ü¼ÒºÀ/.iotlink/sdk/IoT_LINK/iot_link/network/lwm2m/wakaama_lwm2m/wakaama-master/core\discover.c ****             head += res;
 137:C:/Users/²Ü¼ÒºÀ/.iotlink/sdk/IoT_LINK/iot_link/network/lwm2m/wakaama_lwm2m/wakaama-master/core\discover.c ****         }
 138:C:/Users/²Ü¼ÒºÀ/.iotlink/sdk/IoT_LINK/iot_link/network/lwm2m/wakaama_lwm2m/wakaama-master/core\discover.c ****         if (paramP->toSet & LWM2M_ATTR_FLAG_STEP)
 139:C:/Users/²Ü¼ÒºÀ/.iotlink/sdk/IoT_LINK/iot_link/network/lwm2m/wakaama_lwm2m/wakaama-master/core\discover.c ****         {
 140:C:/Users/²Ü¼ÒºÀ/.iotlink/sdk/IoT_LINK/iot_link/network/lwm2m/wakaama_lwm2m/wakaama-master/core\discover.c ****             PRV_CONCAT_STR(buffer, bufferLen, head, LINK_ATTR_SEPARATOR, LINK_ATTR_SEPARATOR_SIZE);
 141:C:/Users/²Ü¼ÒºÀ/.iotlink/sdk/IoT_LINK/iot_link/network/lwm2m/wakaama_lwm2m/wakaama-master/core\discover.c ****             PRV_CONCAT_STR(buffer, bufferLen, head, ATTR_STEP_STR, ATTR_STEP_LEN);
 142:C:/Users/²Ü¼ÒºÀ/.iotlink/sdk/IoT_LINK/iot_link/network/lwm2m/wakaama_lwm2m/wakaama-master/core\discover.c **** 
 143:C:/Users/²Ü¼ÒºÀ/.iotlink/sdk/IoT_LINK/iot_link/network/lwm2m/wakaama_lwm2m/wakaama-master/core\discover.c ****             res = utils_floatToText(paramP->step, buffer + head, bufferLen - head);
 144:C:/Users/²Ü¼ÒºÀ/.iotlink/sdk/IoT_LINK/iot_link/network/lwm2m/wakaama_lwm2m/wakaama-master/core\discover.c ****             if (res <= 0) return -1;
 145:C:/Users/²Ü¼ÒºÀ/.iotlink/sdk/IoT_LINK/iot_link/network/lwm2m/wakaama_lwm2m/wakaama-master/core\discover.c ****             head += res;
 146:C:/Users/²Ü¼ÒºÀ/.iotlink/sdk/IoT_LINK/iot_link/network/lwm2m/wakaama_lwm2m/wakaama-master/core\discover.c ****         }
 147:C:/Users/²Ü¼ÒºÀ/.iotlink/sdk/IoT_LINK/iot_link/network/lwm2m/wakaama_lwm2m/wakaama-master/core\discover.c ****         PRV_CONCAT_STR(buffer, bufferLen, head, LINK_ITEM_ATTR_END, LINK_ITEM_ATTR_END_SIZE);
 148:C:/Users/²Ü¼ÒºÀ/.iotlink/sdk/IoT_LINK/iot_link/network/lwm2m/wakaama_lwm2m/wakaama-master/core\discover.c ****     }
 149:C:/Users/²Ü¼ÒºÀ/.iotlink/sdk/IoT_LINK/iot_link/network/lwm2m/wakaama_lwm2m/wakaama-master/core\discover.c **** 
 150:C:/Users/²Ü¼ÒºÀ/.iotlink/sdk/IoT_LINK/iot_link/network/lwm2m/wakaama_lwm2m/wakaama-master/core\discover.c ****     if (head > 0) head -= uriLen + 1;
 151:C:/Users/²Ü¼ÒºÀ/.iotlink/sdk/IoT_LINK/iot_link/network/lwm2m/wakaama_lwm2m/wakaama-master/core\discover.c **** 
 152:C:/Users/²Ü¼ÒºÀ/.iotlink/sdk/IoT_LINK/iot_link/network/lwm2m/wakaama_lwm2m/wakaama-master/core\discover.c ****     return head;
 153:C:/Users/²Ü¼ÒºÀ/.iotlink/sdk/IoT_LINK/iot_link/network/lwm2m/wakaama_lwm2m/wakaama-master/core\discover.c **** }
 176              		.loc 1 153 1 view .LVU49
 177 0030 BDE8F883 		pop	{r3, r4, r5, r6, r7, r8, r9, pc}
 178              	.LVL14:
 179              	.L23:
ARM GAS  C:\Users\²Ü¼ÒºÀ\AppData\Local\Temp\cc4SIRne.s 			page 7


  84:C:/Users/²Ü¼ÒºÀ/.iotlink/sdk/IoT_LINK/iot_link/network/lwm2m/wakaama_lwm2m/wakaama-master/core\discover.c ****             PRV_CONCAT_STR(buffer, bufferLen, head, ATTR_MIN_PERIOD_STR, ATTR_MIN_PERIOD_LEN);
 180              		.loc 1 84 13 is_stmt 1 discriminator 2 view .LVU50
 181 0034 3B23     		movs	r3, #59
 182 0036 04F80830 		strb	r3, [r4, r8]
  84:C:/Users/²Ü¼ÒºÀ/.iotlink/sdk/IoT_LINK/iot_link/network/lwm2m/wakaama_lwm2m/wakaama-master/core\discover.c ****             PRV_CONCAT_STR(buffer, bufferLen, head, ATTR_MIN_PERIOD_STR, ATTR_MIN_PERIOD_LEN);
 183              		.loc 1 84 13 discriminator 2 view .LVU51
 184              	.LVL15:
  84:C:/Users/²Ü¼ÒºÀ/.iotlink/sdk/IoT_LINK/iot_link/network/lwm2m/wakaama_lwm2m/wakaama-master/core\discover.c ****             PRV_CONCAT_STR(buffer, bufferLen, head, ATTR_MIN_PERIOD_STR, ATTR_MIN_PERIOD_LEN);
 185              		.loc 1 84 99 discriminator 2 view .LVU52
  85:C:/Users/²Ü¼ÒºÀ/.iotlink/sdk/IoT_LINK/iot_link/network/lwm2m/wakaama_lwm2m/wakaama-master/core\discover.c ****             PRV_CONCAT_STR(buffer, bufferLen, head, ATTR_MIN_PERIOD_STR, ATTR_MIN_PERIOD_LEN);
 186              		.loc 1 85 13 discriminator 2 view .LVU53
  84:C:/Users/²Ü¼ÒºÀ/.iotlink/sdk/IoT_LINK/iot_link/network/lwm2m/wakaama_lwm2m/wakaama-master/core\discover.c ****             PRV_CONCAT_STR(buffer, bufferLen, head, ATTR_MIN_PERIOD_STR, ATTR_MIN_PERIOD_LEN);
 187              		.loc 1 84 13 is_stmt 0 discriminator 2 view .LVU54
 188 003a 08F10103 		add	r3, r8, #1
 189              	.LVL16:
  85:C:/Users/²Ü¼ÒºÀ/.iotlink/sdk/IoT_LINK/iot_link/network/lwm2m/wakaama_lwm2m/wakaama-master/core\discover.c ****             PRV_CONCAT_STR(buffer, bufferLen, head, ATTR_MIN_PERIOD_STR, ATTR_MIN_PERIOD_LEN);
 190              		.loc 1 85 13 discriminator 2 view .LVU55
 191 003e EA1A     		subs	r2, r5, r3
 192 0040 042A     		cmp	r2, #4
 193 0042 F3D9     		bls	.L24
  85:C:/Users/²Ü¼ÒºÀ/.iotlink/sdk/IoT_LINK/iot_link/network/lwm2m/wakaama_lwm2m/wakaama-master/core\discover.c ****             PRV_CONCAT_STR(buffer, bufferLen, head, ATTR_MIN_PERIOD_STR, ATTR_MIN_PERIOD_LEN);
 194              		.loc 1 85 13 is_stmt 1 discriminator 2 view .LVU56
 195 0044 6B4A     		ldr	r2, .L50
 196 0046 E118     		adds	r1, r4, r3
 197 0048 1068     		ldr	r0, [r2]	@ unaligned
 198 004a E050     		str	r0, [r4, r3]	@ unaligned
 199 004c 1379     		ldrb	r3, [r2, #4]	@ zero_extendqisi2
 200              	.LVL17:
  85:C:/Users/²Ü¼ÒºÀ/.iotlink/sdk/IoT_LINK/iot_link/network/lwm2m/wakaama_lwm2m/wakaama-master/core\discover.c ****             PRV_CONCAT_STR(buffer, bufferLen, head, ATTR_MIN_PERIOD_STR, ATTR_MIN_PERIOD_LEN);
 201              		.loc 1 85 13 is_stmt 0 discriminator 2 view .LVU57
 202 004e 0B71     		strb	r3, [r1, #4]
  85:C:/Users/²Ü¼ÒºÀ/.iotlink/sdk/IoT_LINK/iot_link/network/lwm2m/wakaama_lwm2m/wakaama-master/core\discover.c ****             PRV_CONCAT_STR(buffer, bufferLen, head, ATTR_MIN_PERIOD_STR, ATTR_MIN_PERIOD_LEN);
 203              		.loc 1 85 13 is_stmt 1 discriminator 2 view .LVU58
 204 0050 08F10609 		add	r9, r8, #6
 205              	.LVL18:
  85:C:/Users/²Ü¼ÒºÀ/.iotlink/sdk/IoT_LINK/iot_link/network/lwm2m/wakaama_lwm2m/wakaama-master/core\discover.c ****             PRV_CONCAT_STR(buffer, bufferLen, head, ATTR_MIN_PERIOD_STR, ATTR_MIN_PERIOD_LEN);
 206              		.loc 1 85 94 discriminator 2 view .LVU59
  87:C:/Users/²Ü¼ÒºÀ/.iotlink/sdk/IoT_LINK/iot_link/network/lwm2m/wakaama_lwm2m/wakaama-master/core\discover.c ****             if (res <= 0) return -1;
 207              		.loc 1 87 13 discriminator 2 view .LVU60
  87:C:/Users/²Ü¼ÒºÀ/.iotlink/sdk/IoT_LINK/iot_link/network/lwm2m/wakaama_lwm2m/wakaama-master/core\discover.c ****             if (res <= 0) return -1;
 208              		.loc 1 87 19 is_stmt 0 discriminator 2 view .LVU61
 209 0054 7868     		ldr	r0, [r7, #4]
 210 0056 A5EB0903 		sub	r3, r5, r9
 211 005a 04EB0902 		add	r2, r4, r9
 212 005e 0021     		movs	r1, #0
 213              	.L49:
  96:C:/Users/²Ü¼ÒºÀ/.iotlink/sdk/IoT_LINK/iot_link/network/lwm2m/wakaama_lwm2m/wakaama-master/core\discover.c ****             if (res <= 0) return -1;
 214              		.loc 1 96 19 discriminator 2 view .LVU62
 215 0060 FFF7FEFF 		bl	utils_intToText
 216              	.LVL19:
  97:C:/Users/²Ü¼ÒºÀ/.iotlink/sdk/IoT_LINK/iot_link/network/lwm2m/wakaama_lwm2m/wakaama-master/core\discover.c ****             head += res;
 217              		.loc 1 97 13 is_stmt 1 discriminator 2 view .LVU63
  97:C:/Users/²Ü¼ÒºÀ/.iotlink/sdk/IoT_LINK/iot_link/network/lwm2m/wakaama_lwm2m/wakaama-master/core\discover.c ****             head += res;
 218              		.loc 1 97 16 is_stmt 0 discriminator 2 view .LVU64
 219 0064 0028     		cmp	r0, #0
  97:C:/Users/²Ü¼ÒºÀ/.iotlink/sdk/IoT_LINK/iot_link/network/lwm2m/wakaama_lwm2m/wakaama-master/core\discover.c ****             head += res;
 220              		.loc 1 97 16 discriminator 2 view .LVU65
ARM GAS  C:\Users\²Ü¼ÒºÀ\AppData\Local\Temp\cc4SIRne.s 			page 8


 221 0066 E1DD     		ble	.L24
  98:C:/Users/²Ü¼ÒºÀ/.iotlink/sdk/IoT_LINK/iot_link/network/lwm2m/wakaama_lwm2m/wakaama-master/core\discover.c ****         }
 222              		.loc 1 98 13 is_stmt 1 view .LVU66
  98:C:/Users/²Ü¼ÒºÀ/.iotlink/sdk/IoT_LINK/iot_link/network/lwm2m/wakaama_lwm2m/wakaama-master/core\discover.c ****         }
 223              		.loc 1 98 18 is_stmt 0 view .LVU67
 224 0068 09EB0002 		add	r2, r9, r0
 225              	.LVL20:
 226              	.L25:
 101:C:/Users/²Ü¼ÒºÀ/.iotlink/sdk/IoT_LINK/iot_link/network/lwm2m/wakaama_lwm2m/wakaama-master/core\discover.c ****         {
 227              		.loc 1 101 9 is_stmt 1 view .LVU68
 101:C:/Users/²Ü¼ÒºÀ/.iotlink/sdk/IoT_LINK/iot_link/network/lwm2m/wakaama_lwm2m/wakaama-master/core\discover.c ****         {
 228              		.loc 1 101 12 is_stmt 0 view .LVU69
 229 006c 3978     		ldrb	r1, [r7]	@ zero_extendqisi2
 230 006e 11F00201 		ands	r1, r1, #2
 231 0072 00F09680 		beq	.L26
 103:C:/Users/²Ü¼ÒºÀ/.iotlink/sdk/IoT_LINK/iot_link/network/lwm2m/wakaama_lwm2m/wakaama-master/core\discover.c ****             PRV_CONCAT_STR(buffer, bufferLen, head, ATTR_MAX_PERIOD_STR, ATTR_MAX_PERIOD_LEN);
 232              		.loc 1 103 13 is_stmt 1 view .LVU70
 233 0076 9542     		cmp	r5, r2
 234 0078 D8D0     		beq	.L24
 103:C:/Users/²Ü¼ÒºÀ/.iotlink/sdk/IoT_LINK/iot_link/network/lwm2m/wakaama_lwm2m/wakaama-master/core\discover.c ****             PRV_CONCAT_STR(buffer, bufferLen, head, ATTR_MAX_PERIOD_STR, ATTR_MAX_PERIOD_LEN);
 235              		.loc 1 103 13 discriminator 2 view .LVU71
 236 007a 3B23     		movs	r3, #59
 237 007c A354     		strb	r3, [r4, r2]
 103:C:/Users/²Ü¼ÒºÀ/.iotlink/sdk/IoT_LINK/iot_link/network/lwm2m/wakaama_lwm2m/wakaama-master/core\discover.c ****             PRV_CONCAT_STR(buffer, bufferLen, head, ATTR_MAX_PERIOD_STR, ATTR_MAX_PERIOD_LEN);
 238              		.loc 1 103 13 discriminator 2 view .LVU72
 239              	.LVL21:
 103:C:/Users/²Ü¼ÒºÀ/.iotlink/sdk/IoT_LINK/iot_link/network/lwm2m/wakaama_lwm2m/wakaama-master/core\discover.c ****             PRV_CONCAT_STR(buffer, bufferLen, head, ATTR_MAX_PERIOD_STR, ATTR_MAX_PERIOD_LEN);
 240              		.loc 1 103 99 discriminator 2 view .LVU73
 104:C:/Users/²Ü¼ÒºÀ/.iotlink/sdk/IoT_LINK/iot_link/network/lwm2m/wakaama_lwm2m/wakaama-master/core\discover.c **** 
 241              		.loc 1 104 13 discriminator 2 view .LVU74
 103:C:/Users/²Ü¼ÒºÀ/.iotlink/sdk/IoT_LINK/iot_link/network/lwm2m/wakaama_lwm2m/wakaama-master/core\discover.c ****             PRV_CONCAT_STR(buffer, bufferLen, head, ATTR_MAX_PERIOD_STR, ATTR_MAX_PERIOD_LEN);
 242              		.loc 1 103 13 is_stmt 0 discriminator 2 view .LVU75
 243 007e 531C     		adds	r3, r2, #1
 244              	.LVL22:
 104:C:/Users/²Ü¼ÒºÀ/.iotlink/sdk/IoT_LINK/iot_link/network/lwm2m/wakaama_lwm2m/wakaama-master/core\discover.c **** 
 245              		.loc 1 104 13 discriminator 2 view .LVU76
 246 0080 E91A     		subs	r1, r5, r3
 247 0082 0429     		cmp	r1, #4
 248 0084 D2D9     		bls	.L24
 104:C:/Users/²Ü¼ÒºÀ/.iotlink/sdk/IoT_LINK/iot_link/network/lwm2m/wakaama_lwm2m/wakaama-master/core\discover.c **** 
 249              		.loc 1 104 13 is_stmt 1 discriminator 2 view .LVU77
 250 0086 5C49     		ldr	r1, .L50+4
 251 0088 E018     		adds	r0, r4, r3
 252 008a 0E68     		ldr	r6, [r1]	@ unaligned
 253              	.LVL23:
 104:C:/Users/²Ü¼ÒºÀ/.iotlink/sdk/IoT_LINK/iot_link/network/lwm2m/wakaama_lwm2m/wakaama-master/core\discover.c **** 
 254              		.loc 1 104 13 is_stmt 0 discriminator 2 view .LVU78
 255 008c E650     		str	r6, [r4, r3]	@ unaligned
 256 008e 0B79     		ldrb	r3, [r1, #4]	@ zero_extendqisi2
 257              	.LVL24:
 104:C:/Users/²Ü¼ÒºÀ/.iotlink/sdk/IoT_LINK/iot_link/network/lwm2m/wakaama_lwm2m/wakaama-master/core\discover.c **** 
 258              		.loc 1 104 13 discriminator 2 view .LVU79
 259 0090 0371     		strb	r3, [r0, #4]
 104:C:/Users/²Ü¼ÒºÀ/.iotlink/sdk/IoT_LINK/iot_link/network/lwm2m/wakaama_lwm2m/wakaama-master/core\discover.c **** 
 260              		.loc 1 104 13 is_stmt 1 discriminator 2 view .LVU80
 261 0092 961D     		adds	r6, r2, #6
 262              	.LVL25:
ARM GAS  C:\Users\²Ü¼ÒºÀ\AppData\Local\Temp\cc4SIRne.s 			page 9


 104:C:/Users/²Ü¼ÒºÀ/.iotlink/sdk/IoT_LINK/iot_link/network/lwm2m/wakaama_lwm2m/wakaama-master/core\discover.c **** 
 263              		.loc 1 104 94 discriminator 2 view .LVU81
 106:C:/Users/²Ü¼ÒºÀ/.iotlink/sdk/IoT_LINK/iot_link/network/lwm2m/wakaama_lwm2m/wakaama-master/core\discover.c ****             if (res <= 0) return -1;
 264              		.loc 1 106 13 discriminator 2 view .LVU82
 106:C:/Users/²Ü¼ÒºÀ/.iotlink/sdk/IoT_LINK/iot_link/network/lwm2m/wakaama_lwm2m/wakaama-master/core\discover.c ****             if (res <= 0) return -1;
 265              		.loc 1 106 19 is_stmt 0 discriminator 2 view .LVU83
 266 0094 B868     		ldr	r0, [r7, #8]
 267 0096 AB1B     		subs	r3, r5, r6
 268 0098 A219     		adds	r2, r4, r6
 269 009a 0021     		movs	r1, #0
 270 009c FFF7FEFF 		bl	utils_intToText
 271              	.LVL26:
 107:C:/Users/²Ü¼ÒºÀ/.iotlink/sdk/IoT_LINK/iot_link/network/lwm2m/wakaama_lwm2m/wakaama-master/core\discover.c ****             head += res;
 272              		.loc 1 107 13 is_stmt 1 discriminator 2 view .LVU84
 107:C:/Users/²Ü¼ÒºÀ/.iotlink/sdk/IoT_LINK/iot_link/network/lwm2m/wakaama_lwm2m/wakaama-master/core\discover.c ****             head += res;
 273              		.loc 1 107 16 is_stmt 0 discriminator 2 view .LVU85
 274 00a0 0028     		cmp	r0, #0
 107:C:/Users/²Ü¼ÒºÀ/.iotlink/sdk/IoT_LINK/iot_link/network/lwm2m/wakaama_lwm2m/wakaama-master/core\discover.c ****             head += res;
 275              		.loc 1 107 16 discriminator 2 view .LVU86
 276 00a2 C3DD     		ble	.L24
 108:C:/Users/²Ü¼ÒºÀ/.iotlink/sdk/IoT_LINK/iot_link/network/lwm2m/wakaama_lwm2m/wakaama-master/core\discover.c ****         }
 277              		.loc 1 108 13 is_stmt 1 view .LVU87
 108:C:/Users/²Ü¼ÒºÀ/.iotlink/sdk/IoT_LINK/iot_link/network/lwm2m/wakaama_lwm2m/wakaama-master/core\discover.c ****         }
 278              		.loc 1 108 18 is_stmt 0 view .LVU88
 279 00a4 3218     		adds	r2, r6, r0
 280              	.LVL27:
 281              	.L27:
 120:C:/Users/²Ü¼ÒºÀ/.iotlink/sdk/IoT_LINK/iot_link/network/lwm2m/wakaama_lwm2m/wakaama-master/core\discover.c ****         {
 282              		.loc 1 120 9 is_stmt 1 view .LVU89
 120:C:/Users/²Ü¼ÒºÀ/.iotlink/sdk/IoT_LINK/iot_link/network/lwm2m/wakaama_lwm2m/wakaama-master/core\discover.c ****         {
 283              		.loc 1 120 12 is_stmt 0 view .LVU90
 284 00a6 3B78     		ldrb	r3, [r7]	@ zero_extendqisi2
 285 00a8 5807     		lsls	r0, r3, #29
 286 00aa 17D5     		bpl	.L28
 122:C:/Users/²Ü¼ÒºÀ/.iotlink/sdk/IoT_LINK/iot_link/network/lwm2m/wakaama_lwm2m/wakaama-master/core\discover.c ****             PRV_CONCAT_STR(buffer, bufferLen, head, ATTR_GREATER_THAN_STR, ATTR_GREATER_THAN_LEN);
 287              		.loc 1 122 13 is_stmt 1 view .LVU91
 288 00ac 9542     		cmp	r5, r2
 289 00ae BDD0     		beq	.L24
 122:C:/Users/²Ü¼ÒºÀ/.iotlink/sdk/IoT_LINK/iot_link/network/lwm2m/wakaama_lwm2m/wakaama-master/core\discover.c ****             PRV_CONCAT_STR(buffer, bufferLen, head, ATTR_GREATER_THAN_STR, ATTR_GREATER_THAN_LEN);
 290              		.loc 1 122 13 discriminator 2 view .LVU92
 291 00b0 3B23     		movs	r3, #59
 292 00b2 A354     		strb	r3, [r4, r2]
 122:C:/Users/²Ü¼ÒºÀ/.iotlink/sdk/IoT_LINK/iot_link/network/lwm2m/wakaama_lwm2m/wakaama-master/core\discover.c ****             PRV_CONCAT_STR(buffer, bufferLen, head, ATTR_GREATER_THAN_STR, ATTR_GREATER_THAN_LEN);
 293              		.loc 1 122 13 discriminator 2 view .LVU93
 294              	.LVL28:
 122:C:/Users/²Ü¼ÒºÀ/.iotlink/sdk/IoT_LINK/iot_link/network/lwm2m/wakaama_lwm2m/wakaama-master/core\discover.c ****             PRV_CONCAT_STR(buffer, bufferLen, head, ATTR_GREATER_THAN_STR, ATTR_GREATER_THAN_LEN);
 295              		.loc 1 122 99 discriminator 2 view .LVU94
 123:C:/Users/²Ü¼ÒºÀ/.iotlink/sdk/IoT_LINK/iot_link/network/lwm2m/wakaama_lwm2m/wakaama-master/core\discover.c **** 
 296              		.loc 1 123 13 discriminator 2 view .LVU95
 122:C:/Users/²Ü¼ÒºÀ/.iotlink/sdk/IoT_LINK/iot_link/network/lwm2m/wakaama_lwm2m/wakaama-master/core\discover.c ****             PRV_CONCAT_STR(buffer, bufferLen, head, ATTR_GREATER_THAN_STR, ATTR_GREATER_THAN_LEN);
 297              		.loc 1 122 13 is_stmt 0 discriminator 2 view .LVU96
 298 00b4 531C     		adds	r3, r2, #1
 299              	.LVL29:
 123:C:/Users/²Ü¼ÒºÀ/.iotlink/sdk/IoT_LINK/iot_link/network/lwm2m/wakaama_lwm2m/wakaama-master/core\discover.c **** 
 300              		.loc 1 123 13 discriminator 2 view .LVU97
 301 00b6 E91A     		subs	r1, r5, r3
 302 00b8 0229     		cmp	r1, #2
ARM GAS  C:\Users\²Ü¼ÒºÀ\AppData\Local\Temp\cc4SIRne.s 			page 10


 303 00ba B7D9     		bls	.L24
 123:C:/Users/²Ü¼ÒºÀ/.iotlink/sdk/IoT_LINK/iot_link/network/lwm2m/wakaama_lwm2m/wakaama-master/core\discover.c **** 
 304              		.loc 1 123 13 is_stmt 1 discriminator 2 view .LVU98
 305 00bc 4F49     		ldr	r1, .L50+8
 306 00be E018     		adds	r0, r4, r3
 307 00c0 0E88     		ldrh	r6, [r1]	@ unaligned
 308 00c2 E652     		strh	r6, [r4, r3]	@ unaligned
 309 00c4 8B78     		ldrb	r3, [r1, #2]	@ zero_extendqisi2
 310              	.LVL30:
 123:C:/Users/²Ü¼ÒºÀ/.iotlink/sdk/IoT_LINK/iot_link/network/lwm2m/wakaama_lwm2m/wakaama-master/core\discover.c **** 
 311              		.loc 1 123 13 is_stmt 0 discriminator 2 view .LVU99
 312 00c6 8370     		strb	r3, [r0, #2]
 123:C:/Users/²Ü¼ÒºÀ/.iotlink/sdk/IoT_LINK/iot_link/network/lwm2m/wakaama_lwm2m/wakaama-master/core\discover.c **** 
 313              		.loc 1 123 13 is_stmt 1 discriminator 2 view .LVU100
 314 00c8 161D     		adds	r6, r2, #4
 315              	.LVL31:
 123:C:/Users/²Ü¼ÒºÀ/.iotlink/sdk/IoT_LINK/iot_link/network/lwm2m/wakaama_lwm2m/wakaama-master/core\discover.c **** 
 316              		.loc 1 123 98 discriminator 2 view .LVU101
 125:C:/Users/²Ü¼ÒºÀ/.iotlink/sdk/IoT_LINK/iot_link/network/lwm2m/wakaama_lwm2m/wakaama-master/core\discover.c ****             if (res <= 0) return -1;
 317              		.loc 1 125 13 discriminator 2 view .LVU102
 125:C:/Users/²Ü¼ÒºÀ/.iotlink/sdk/IoT_LINK/iot_link/network/lwm2m/wakaama_lwm2m/wakaama-master/core\discover.c ****             if (res <= 0) return -1;
 318              		.loc 1 125 19 is_stmt 0 discriminator 2 view .LVU103
 319 00ca 97ED040B 		vldr.64	d0, [r7, #16]
 320 00ce A91B     		subs	r1, r5, r6
 321 00d0 A019     		adds	r0, r4, r6
 322 00d2 FFF7FEFF 		bl	utils_floatToText
 323              	.LVL32:
 126:C:/Users/²Ü¼ÒºÀ/.iotlink/sdk/IoT_LINK/iot_link/network/lwm2m/wakaama_lwm2m/wakaama-master/core\discover.c ****             head += res;
 324              		.loc 1 126 13 is_stmt 1 discriminator 2 view .LVU104
 126:C:/Users/²Ü¼ÒºÀ/.iotlink/sdk/IoT_LINK/iot_link/network/lwm2m/wakaama_lwm2m/wakaama-master/core\discover.c ****             head += res;
 325              		.loc 1 126 16 is_stmt 0 discriminator 2 view .LVU105
 326 00d6 0028     		cmp	r0, #0
 126:C:/Users/²Ü¼ÒºÀ/.iotlink/sdk/IoT_LINK/iot_link/network/lwm2m/wakaama_lwm2m/wakaama-master/core\discover.c ****             head += res;
 327              		.loc 1 126 16 discriminator 2 view .LVU106
 328 00d8 A8DD     		ble	.L24
 127:C:/Users/²Ü¼ÒºÀ/.iotlink/sdk/IoT_LINK/iot_link/network/lwm2m/wakaama_lwm2m/wakaama-master/core\discover.c ****         }
 329              		.loc 1 127 13 is_stmt 1 view .LVU107
 127:C:/Users/²Ü¼ÒºÀ/.iotlink/sdk/IoT_LINK/iot_link/network/lwm2m/wakaama_lwm2m/wakaama-master/core\discover.c ****         }
 330              		.loc 1 127 18 is_stmt 0 view .LVU108
 331 00da 3218     		adds	r2, r6, r0
 332              	.LVL33:
 333              	.L28:
 129:C:/Users/²Ü¼ÒºÀ/.iotlink/sdk/IoT_LINK/iot_link/network/lwm2m/wakaama_lwm2m/wakaama-master/core\discover.c ****         {
 334              		.loc 1 129 9 is_stmt 1 view .LVU109
 129:C:/Users/²Ü¼ÒºÀ/.iotlink/sdk/IoT_LINK/iot_link/network/lwm2m/wakaama_lwm2m/wakaama-master/core\discover.c ****         {
 335              		.loc 1 129 12 is_stmt 0 view .LVU110
 336 00dc 3B78     		ldrb	r3, [r7]	@ zero_extendqisi2
 337 00de 1907     		lsls	r1, r3, #28
 338 00e0 17D5     		bpl	.L29
 131:C:/Users/²Ü¼ÒºÀ/.iotlink/sdk/IoT_LINK/iot_link/network/lwm2m/wakaama_lwm2m/wakaama-master/core\discover.c ****             PRV_CONCAT_STR(buffer, bufferLen, head, ATTR_LESS_THAN_STR, ATTR_LESS_THAN_LEN);
 339              		.loc 1 131 13 is_stmt 1 view .LVU111
 340 00e2 9542     		cmp	r5, r2
 341 00e4 A2D0     		beq	.L24
 131:C:/Users/²Ü¼ÒºÀ/.iotlink/sdk/IoT_LINK/iot_link/network/lwm2m/wakaama_lwm2m/wakaama-master/core\discover.c ****             PRV_CONCAT_STR(buffer, bufferLen, head, ATTR_LESS_THAN_STR, ATTR_LESS_THAN_LEN);
 342              		.loc 1 131 13 discriminator 2 view .LVU112
 343 00e6 3B23     		movs	r3, #59
 344 00e8 A354     		strb	r3, [r4, r2]
ARM GAS  C:\Users\²Ü¼ÒºÀ\AppData\Local\Temp\cc4SIRne.s 			page 11


 131:C:/Users/²Ü¼ÒºÀ/.iotlink/sdk/IoT_LINK/iot_link/network/lwm2m/wakaama_lwm2m/wakaama-master/core\discover.c ****             PRV_CONCAT_STR(buffer, bufferLen, head, ATTR_LESS_THAN_STR, ATTR_LESS_THAN_LEN);
 345              		.loc 1 131 13 discriminator 2 view .LVU113
 346              	.LVL34:
 131:C:/Users/²Ü¼ÒºÀ/.iotlink/sdk/IoT_LINK/iot_link/network/lwm2m/wakaama_lwm2m/wakaama-master/core\discover.c ****             PRV_CONCAT_STR(buffer, bufferLen, head, ATTR_LESS_THAN_STR, ATTR_LESS_THAN_LEN);
 347              		.loc 1 131 99 discriminator 2 view .LVU114
 132:C:/Users/²Ü¼ÒºÀ/.iotlink/sdk/IoT_LINK/iot_link/network/lwm2m/wakaama_lwm2m/wakaama-master/core\discover.c **** 
 348              		.loc 1 132 13 discriminator 2 view .LVU115
 131:C:/Users/²Ü¼ÒºÀ/.iotlink/sdk/IoT_LINK/iot_link/network/lwm2m/wakaama_lwm2m/wakaama-master/core\discover.c ****             PRV_CONCAT_STR(buffer, bufferLen, head, ATTR_LESS_THAN_STR, ATTR_LESS_THAN_LEN);
 349              		.loc 1 131 13 is_stmt 0 discriminator 2 view .LVU116
 350 00ea 531C     		adds	r3, r2, #1
 351              	.LVL35:
 132:C:/Users/²Ü¼ÒºÀ/.iotlink/sdk/IoT_LINK/iot_link/network/lwm2m/wakaama_lwm2m/wakaama-master/core\discover.c **** 
 352              		.loc 1 132 13 discriminator 2 view .LVU117
 353 00ec E91A     		subs	r1, r5, r3
 354 00ee 0229     		cmp	r1, #2
 355 00f0 9CD9     		bls	.L24
 132:C:/Users/²Ü¼ÒºÀ/.iotlink/sdk/IoT_LINK/iot_link/network/lwm2m/wakaama_lwm2m/wakaama-master/core\discover.c **** 
 356              		.loc 1 132 13 is_stmt 1 discriminator 2 view .LVU118
 357 00f2 4349     		ldr	r1, .L50+12
 358 00f4 E018     		adds	r0, r4, r3
 359 00f6 0E88     		ldrh	r6, [r1]	@ unaligned
 360 00f8 E652     		strh	r6, [r4, r3]	@ unaligned
 361 00fa 8B78     		ldrb	r3, [r1, #2]	@ zero_extendqisi2
 362              	.LVL36:
 132:C:/Users/²Ü¼ÒºÀ/.iotlink/sdk/IoT_LINK/iot_link/network/lwm2m/wakaama_lwm2m/wakaama-master/core\discover.c **** 
 363              		.loc 1 132 13 is_stmt 0 discriminator 2 view .LVU119
 364 00fc 8370     		strb	r3, [r0, #2]
 132:C:/Users/²Ü¼ÒºÀ/.iotlink/sdk/IoT_LINK/iot_link/network/lwm2m/wakaama_lwm2m/wakaama-master/core\discover.c **** 
 365              		.loc 1 132 13 is_stmt 1 discriminator 2 view .LVU120
 366 00fe 161D     		adds	r6, r2, #4
 367              	.LVL37:
 132:C:/Users/²Ü¼ÒºÀ/.iotlink/sdk/IoT_LINK/iot_link/network/lwm2m/wakaama_lwm2m/wakaama-master/core\discover.c **** 
 368              		.loc 1 132 92 discriminator 2 view .LVU121
 134:C:/Users/²Ü¼ÒºÀ/.iotlink/sdk/IoT_LINK/iot_link/network/lwm2m/wakaama_lwm2m/wakaama-master/core\discover.c ****             if (res <= 0) return -1;
 369              		.loc 1 134 13 discriminator 2 view .LVU122
 134:C:/Users/²Ü¼ÒºÀ/.iotlink/sdk/IoT_LINK/iot_link/network/lwm2m/wakaama_lwm2m/wakaama-master/core\discover.c ****             if (res <= 0) return -1;
 370              		.loc 1 134 19 is_stmt 0 discriminator 2 view .LVU123
 371 0100 97ED060B 		vldr.64	d0, [r7, #24]
 372 0104 A91B     		subs	r1, r5, r6
 373 0106 A019     		adds	r0, r4, r6
 374 0108 FFF7FEFF 		bl	utils_floatToText
 375              	.LVL38:
 135:C:/Users/²Ü¼ÒºÀ/.iotlink/sdk/IoT_LINK/iot_link/network/lwm2m/wakaama_lwm2m/wakaama-master/core\discover.c ****             head += res;
 376              		.loc 1 135 13 is_stmt 1 discriminator 2 view .LVU124
 135:C:/Users/²Ü¼ÒºÀ/.iotlink/sdk/IoT_LINK/iot_link/network/lwm2m/wakaama_lwm2m/wakaama-master/core\discover.c ****             head += res;
 377              		.loc 1 135 16 is_stmt 0 discriminator 2 view .LVU125
 378 010c 0028     		cmp	r0, #0
 135:C:/Users/²Ü¼ÒºÀ/.iotlink/sdk/IoT_LINK/iot_link/network/lwm2m/wakaama_lwm2m/wakaama-master/core\discover.c ****             head += res;
 379              		.loc 1 135 16 discriminator 2 view .LVU126
 380 010e 8DDD     		ble	.L24
 136:C:/Users/²Ü¼ÒºÀ/.iotlink/sdk/IoT_LINK/iot_link/network/lwm2m/wakaama_lwm2m/wakaama-master/core\discover.c ****         }
 381              		.loc 1 136 13 is_stmt 1 view .LVU127
 136:C:/Users/²Ü¼ÒºÀ/.iotlink/sdk/IoT_LINK/iot_link/network/lwm2m/wakaama_lwm2m/wakaama-master/core\discover.c ****         }
 382              		.loc 1 136 18 is_stmt 0 view .LVU128
 383 0110 3218     		adds	r2, r6, r0
 384              	.LVL39:
 385              	.L29:
ARM GAS  C:\Users\²Ü¼ÒºÀ\AppData\Local\Temp\cc4SIRne.s 			page 12


 138:C:/Users/²Ü¼ÒºÀ/.iotlink/sdk/IoT_LINK/iot_link/network/lwm2m/wakaama_lwm2m/wakaama-master/core\discover.c ****         {
 386              		.loc 1 138 9 is_stmt 1 view .LVU129
 138:C:/Users/²Ü¼ÒºÀ/.iotlink/sdk/IoT_LINK/iot_link/network/lwm2m/wakaama_lwm2m/wakaama-master/core\discover.c ****         {
 387              		.loc 1 138 12 is_stmt 0 view .LVU130
 388 0112 3B78     		ldrb	r3, [r7]	@ zero_extendqisi2
 389 0114 DB06     		lsls	r3, r3, #27
 390 0116 18D5     		bpl	.L30
 140:C:/Users/²Ü¼ÒºÀ/.iotlink/sdk/IoT_LINK/iot_link/network/lwm2m/wakaama_lwm2m/wakaama-master/core\discover.c ****             PRV_CONCAT_STR(buffer, bufferLen, head, ATTR_STEP_STR, ATTR_STEP_LEN);
 391              		.loc 1 140 13 is_stmt 1 view .LVU131
 392 0118 9542     		cmp	r5, r2
 393 011a 87D0     		beq	.L24
 140:C:/Users/²Ü¼ÒºÀ/.iotlink/sdk/IoT_LINK/iot_link/network/lwm2m/wakaama_lwm2m/wakaama-master/core\discover.c ****             PRV_CONCAT_STR(buffer, bufferLen, head, ATTR_STEP_STR, ATTR_STEP_LEN);
 394              		.loc 1 140 13 discriminator 2 view .LVU132
 395 011c 3B23     		movs	r3, #59
 396 011e A354     		strb	r3, [r4, r2]
 140:C:/Users/²Ü¼ÒºÀ/.iotlink/sdk/IoT_LINK/iot_link/network/lwm2m/wakaama_lwm2m/wakaama-master/core\discover.c ****             PRV_CONCAT_STR(buffer, bufferLen, head, ATTR_STEP_STR, ATTR_STEP_LEN);
 397              		.loc 1 140 13 discriminator 2 view .LVU133
 398              	.LVL40:
 140:C:/Users/²Ü¼ÒºÀ/.iotlink/sdk/IoT_LINK/iot_link/network/lwm2m/wakaama_lwm2m/wakaama-master/core\discover.c ****             PRV_CONCAT_STR(buffer, bufferLen, head, ATTR_STEP_STR, ATTR_STEP_LEN);
 399              		.loc 1 140 99 discriminator 2 view .LVU134
 141:C:/Users/²Ü¼ÒºÀ/.iotlink/sdk/IoT_LINK/iot_link/network/lwm2m/wakaama_lwm2m/wakaama-master/core\discover.c **** 
 400              		.loc 1 141 13 discriminator 2 view .LVU135
 140:C:/Users/²Ü¼ÒºÀ/.iotlink/sdk/IoT_LINK/iot_link/network/lwm2m/wakaama_lwm2m/wakaama-master/core\discover.c ****             PRV_CONCAT_STR(buffer, bufferLen, head, ATTR_STEP_STR, ATTR_STEP_LEN);
 401              		.loc 1 140 13 is_stmt 0 discriminator 2 view .LVU136
 402 0120 531C     		adds	r3, r2, #1
 403              	.LVL41:
 141:C:/Users/²Ü¼ÒºÀ/.iotlink/sdk/IoT_LINK/iot_link/network/lwm2m/wakaama_lwm2m/wakaama-master/core\discover.c **** 
 404              		.loc 1 141 13 discriminator 2 view .LVU137
 405 0122 E91A     		subs	r1, r5, r3
 406 0124 0229     		cmp	r1, #2
 407 0126 81D9     		bls	.L24
 141:C:/Users/²Ü¼ÒºÀ/.iotlink/sdk/IoT_LINK/iot_link/network/lwm2m/wakaama_lwm2m/wakaama-master/core\discover.c **** 
 408              		.loc 1 141 13 is_stmt 1 discriminator 2 view .LVU138
 409 0128 3649     		ldr	r1, .L50+16
 410 012a E018     		adds	r0, r4, r3
 411 012c 0E88     		ldrh	r6, [r1]	@ unaligned
 412 012e E652     		strh	r6, [r4, r3]	@ unaligned
 413 0130 8B78     		ldrb	r3, [r1, #2]	@ zero_extendqisi2
 414              	.LVL42:
 141:C:/Users/²Ü¼ÒºÀ/.iotlink/sdk/IoT_LINK/iot_link/network/lwm2m/wakaama_lwm2m/wakaama-master/core\discover.c **** 
 415              		.loc 1 141 13 is_stmt 0 discriminator 2 view .LVU139
 416 0132 8370     		strb	r3, [r0, #2]
 141:C:/Users/²Ü¼ÒºÀ/.iotlink/sdk/IoT_LINK/iot_link/network/lwm2m/wakaama_lwm2m/wakaama-master/core\discover.c **** 
 417              		.loc 1 141 13 is_stmt 1 discriminator 2 view .LVU140
 418 0134 161D     		adds	r6, r2, #4
 419              	.LVL43:
 141:C:/Users/²Ü¼ÒºÀ/.iotlink/sdk/IoT_LINK/iot_link/network/lwm2m/wakaama_lwm2m/wakaama-master/core\discover.c **** 
 420              		.loc 1 141 82 discriminator 2 view .LVU141
 143:C:/Users/²Ü¼ÒºÀ/.iotlink/sdk/IoT_LINK/iot_link/network/lwm2m/wakaama_lwm2m/wakaama-master/core\discover.c ****             if (res <= 0) return -1;
 421              		.loc 1 143 13 discriminator 2 view .LVU142
 143:C:/Users/²Ü¼ÒºÀ/.iotlink/sdk/IoT_LINK/iot_link/network/lwm2m/wakaama_lwm2m/wakaama-master/core\discover.c ****             if (res <= 0) return -1;
 422              		.loc 1 143 19 is_stmt 0 discriminator 2 view .LVU143
 423 0136 97ED080B 		vldr.64	d0, [r7, #32]
 424 013a A91B     		subs	r1, r5, r6
 425 013c A019     		adds	r0, r4, r6
 426 013e FFF7FEFF 		bl	utils_floatToText
 427              	.LVL44:
ARM GAS  C:\Users\²Ü¼ÒºÀ\AppData\Local\Temp\cc4SIRne.s 			page 13


 144:C:/Users/²Ü¼ÒºÀ/.iotlink/sdk/IoT_LINK/iot_link/network/lwm2m/wakaama_lwm2m/wakaama-master/core\discover.c ****             head += res;
 428              		.loc 1 144 13 is_stmt 1 discriminator 2 view .LVU144
 144:C:/Users/²Ü¼ÒºÀ/.iotlink/sdk/IoT_LINK/iot_link/network/lwm2m/wakaama_lwm2m/wakaama-master/core\discover.c ****             head += res;
 429              		.loc 1 144 16 is_stmt 0 discriminator 2 view .LVU145
 430 0142 0028     		cmp	r0, #0
 144:C:/Users/²Ü¼ÒºÀ/.iotlink/sdk/IoT_LINK/iot_link/network/lwm2m/wakaama_lwm2m/wakaama-master/core\discover.c ****             head += res;
 431              		.loc 1 144 16 discriminator 2 view .LVU146
 432 0144 7FF772AF 		ble	.L24
 145:C:/Users/²Ü¼ÒºÀ/.iotlink/sdk/IoT_LINK/iot_link/network/lwm2m/wakaama_lwm2m/wakaama-master/core\discover.c ****         }
 433              		.loc 1 145 13 is_stmt 1 view .LVU147
 145:C:/Users/²Ü¼ÒºÀ/.iotlink/sdk/IoT_LINK/iot_link/network/lwm2m/wakaama_lwm2m/wakaama-master/core\discover.c ****         }
 434              		.loc 1 145 18 is_stmt 0 view .LVU148
 435 0148 3218     		adds	r2, r6, r0
 436              	.LVL45:
 437              	.L30:
 147:C:/Users/²Ü¼ÒºÀ/.iotlink/sdk/IoT_LINK/iot_link/network/lwm2m/wakaama_lwm2m/wakaama-master/core\discover.c ****     }
 438              		.loc 1 147 9 is_stmt 1 view .LVU149
 439 014a AA42     		cmp	r2, r5
 440 014c 3FF46EAF 		beq	.L24
 147:C:/Users/²Ü¼ÒºÀ/.iotlink/sdk/IoT_LINK/iot_link/network/lwm2m/wakaama_lwm2m/wakaama-master/core\discover.c ****     }
 441              		.loc 1 147 9 discriminator 2 view .LVU150
 442 0150 501C     		adds	r0, r2, #1
 443 0152 2C23     		movs	r3, #44
 150:C:/Users/²Ü¼ÒºÀ/.iotlink/sdk/IoT_LINK/iot_link/network/lwm2m/wakaama_lwm2m/wakaama-master/core\discover.c **** 
 444              		.loc 1 150 8 is_stmt 0 discriminator 2 view .LVU151
 445 0154 0028     		cmp	r0, #0
 147:C:/Users/²Ü¼ÒºÀ/.iotlink/sdk/IoT_LINK/iot_link/network/lwm2m/wakaama_lwm2m/wakaama-master/core\discover.c ****     }
 446              		.loc 1 147 9 discriminator 2 view .LVU152
 447 0156 A354     		strb	r3, [r4, r2]
 147:C:/Users/²Ü¼ÒºÀ/.iotlink/sdk/IoT_LINK/iot_link/network/lwm2m/wakaama_lwm2m/wakaama-master/core\discover.c ****     }
 448              		.loc 1 147 9 is_stmt 1 discriminator 2 view .LVU153
 449              	.LVL46:
 147:C:/Users/²Ü¼ÒºÀ/.iotlink/sdk/IoT_LINK/iot_link/network/lwm2m/wakaama_lwm2m/wakaama-master/core\discover.c ****     }
 450              		.loc 1 147 93 discriminator 2 view .LVU154
 150:C:/Users/²Ü¼ÒºÀ/.iotlink/sdk/IoT_LINK/iot_link/network/lwm2m/wakaama_lwm2m/wakaama-master/core\discover.c **** 
 451              		.loc 1 150 5 discriminator 2 view .LVU155
 150:C:/Users/²Ü¼ÒºÀ/.iotlink/sdk/IoT_LINK/iot_link/network/lwm2m/wakaama_lwm2m/wakaama-master/core\discover.c **** 
 452              		.loc 1 150 8 is_stmt 0 discriminator 2 view .LVU156
 453 0158 7FF76AAF 		ble	.L19
 150:C:/Users/²Ü¼ÒºÀ/.iotlink/sdk/IoT_LINK/iot_link/network/lwm2m/wakaama_lwm2m/wakaama-master/core\discover.c **** 
 454              		.loc 1 150 19 is_stmt 1 discriminator 1 view .LVU157
 150:C:/Users/²Ü¼ÒºÀ/.iotlink/sdk/IoT_LINK/iot_link/network/lwm2m/wakaama_lwm2m/wakaama-master/core\discover.c **** 
 455              		.loc 1 150 24 is_stmt 0 discriminator 1 view .LVU158
 456 015c 6FEA0808 		mvn	r8, r8
 457 0160 4044     		add	r0, r0, r8
 458              	.LVL47:
 150:C:/Users/²Ü¼ÒºÀ/.iotlink/sdk/IoT_LINK/iot_link/network/lwm2m/wakaama_lwm2m/wakaama-master/core\discover.c **** 
 459              		.loc 1 150 24 discriminator 1 view .LVU159
 460 0162 65E7     		b	.L19
 461              	.LVL48:
 462              	.L22:
  91:C:/Users/²Ü¼ÒºÀ/.iotlink/sdk/IoT_LINK/iot_link/network/lwm2m/wakaama_lwm2m/wakaama-master/core\discover.c ****         {
 463              		.loc 1 91 14 is_stmt 1 view .LVU160
  91:C:/Users/²Ü¼ÒºÀ/.iotlink/sdk/IoT_LINK/iot_link/network/lwm2m/wakaama_lwm2m/wakaama-master/core\discover.c ****         {
 464              		.loc 1 91 17 is_stmt 0 view .LVU161
 465 0164 3378     		ldrb	r3, [r6]	@ zero_extendqisi2
 466 0166 D807     		lsls	r0, r3, #31
ARM GAS  C:\Users\²Ü¼ÒºÀ\AppData\Local\Temp\cc4SIRne.s 			page 14


 467 0168 80D5     		bpl	.L25
  93:C:/Users/²Ü¼ÒºÀ/.iotlink/sdk/IoT_LINK/iot_link/network/lwm2m/wakaama_lwm2m/wakaama-master/core\discover.c ****             PRV_CONCAT_STR(buffer, bufferLen, head, ATTR_MIN_PERIOD_STR, ATTR_MIN_PERIOD_LEN);
 468              		.loc 1 93 13 is_stmt 1 view .LVU162
 469 016a A845     		cmp	r8, r5
 470 016c 3FF45EAF 		beq	.L24
  93:C:/Users/²Ü¼ÒºÀ/.iotlink/sdk/IoT_LINK/iot_link/network/lwm2m/wakaama_lwm2m/wakaama-master/core\discover.c ****             PRV_CONCAT_STR(buffer, bufferLen, head, ATTR_MIN_PERIOD_STR, ATTR_MIN_PERIOD_LEN);
 471              		.loc 1 93 13 discriminator 2 view .LVU163
 472 0170 3B23     		movs	r3, #59
 473 0172 04F80830 		strb	r3, [r4, r8]
  93:C:/Users/²Ü¼ÒºÀ/.iotlink/sdk/IoT_LINK/iot_link/network/lwm2m/wakaama_lwm2m/wakaama-master/core\discover.c ****             PRV_CONCAT_STR(buffer, bufferLen, head, ATTR_MIN_PERIOD_STR, ATTR_MIN_PERIOD_LEN);
 474              		.loc 1 93 13 discriminator 2 view .LVU164
 475              	.LVL49:
  93:C:/Users/²Ü¼ÒºÀ/.iotlink/sdk/IoT_LINK/iot_link/network/lwm2m/wakaama_lwm2m/wakaama-master/core\discover.c ****             PRV_CONCAT_STR(buffer, bufferLen, head, ATTR_MIN_PERIOD_STR, ATTR_MIN_PERIOD_LEN);
 476              		.loc 1 93 99 discriminator 2 view .LVU165
  94:C:/Users/²Ü¼ÒºÀ/.iotlink/sdk/IoT_LINK/iot_link/network/lwm2m/wakaama_lwm2m/wakaama-master/core\discover.c **** 
 477              		.loc 1 94 13 discriminator 2 view .LVU166
  93:C:/Users/²Ü¼ÒºÀ/.iotlink/sdk/IoT_LINK/iot_link/network/lwm2m/wakaama_lwm2m/wakaama-master/core\discover.c ****             PRV_CONCAT_STR(buffer, bufferLen, head, ATTR_MIN_PERIOD_STR, ATTR_MIN_PERIOD_LEN);
 478              		.loc 1 93 13 is_stmt 0 discriminator 2 view .LVU167
 479 0176 08F10103 		add	r3, r8, #1
 480              	.LVL50:
  94:C:/Users/²Ü¼ÒºÀ/.iotlink/sdk/IoT_LINK/iot_link/network/lwm2m/wakaama_lwm2m/wakaama-master/core\discover.c **** 
 481              		.loc 1 94 13 discriminator 2 view .LVU168
 482 017a EA1A     		subs	r2, r5, r3
 483 017c 042A     		cmp	r2, #4
 484 017e 7FF655AF 		bls	.L24
  94:C:/Users/²Ü¼ÒºÀ/.iotlink/sdk/IoT_LINK/iot_link/network/lwm2m/wakaama_lwm2m/wakaama-master/core\discover.c **** 
 485              		.loc 1 94 13 is_stmt 1 discriminator 2 view .LVU169
 486 0182 1C4A     		ldr	r2, .L50
 487 0184 E018     		adds	r0, r4, r3
 488 0186 D2F800C0 		ldr	ip, [r2]	@ unaligned
 489 018a 44F803C0 		str	ip, [r4, r3]	@ unaligned
 490 018e 1379     		ldrb	r3, [r2, #4]	@ zero_extendqisi2
 491              	.LVL51:
  94:C:/Users/²Ü¼ÒºÀ/.iotlink/sdk/IoT_LINK/iot_link/network/lwm2m/wakaama_lwm2m/wakaama-master/core\discover.c **** 
 492              		.loc 1 94 13 is_stmt 0 discriminator 2 view .LVU170
 493 0190 0371     		strb	r3, [r0, #4]
  94:C:/Users/²Ü¼ÒºÀ/.iotlink/sdk/IoT_LINK/iot_link/network/lwm2m/wakaama_lwm2m/wakaama-master/core\discover.c **** 
 494              		.loc 1 94 13 is_stmt 1 discriminator 2 view .LVU171
 495 0192 08F10609 		add	r9, r8, #6
 496              	.LVL52:
  94:C:/Users/²Ü¼ÒºÀ/.iotlink/sdk/IoT_LINK/iot_link/network/lwm2m/wakaama_lwm2m/wakaama-master/core\discover.c **** 
 497              		.loc 1 94 94 discriminator 2 view .LVU172
  96:C:/Users/²Ü¼ÒºÀ/.iotlink/sdk/IoT_LINK/iot_link/network/lwm2m/wakaama_lwm2m/wakaama-master/core\discover.c ****             if (res <= 0) return -1;
 498              		.loc 1 96 13 discriminator 2 view .LVU173
  96:C:/Users/²Ü¼ÒºÀ/.iotlink/sdk/IoT_LINK/iot_link/network/lwm2m/wakaama_lwm2m/wakaama-master/core\discover.c ****             if (res <= 0) return -1;
 499              		.loc 1 96 19 is_stmt 0 discriminator 2 view .LVU174
 500 0196 7068     		ldr	r0, [r6, #4]
 501 0198 A5EB0903 		sub	r3, r5, r9
 502 019c 04EB0902 		add	r2, r4, r9
 503 01a0 5EE7     		b	.L49
 504              	.LVL53:
 505              	.L26:
 110:C:/Users/²Ü¼ÒºÀ/.iotlink/sdk/IoT_LINK/iot_link/network/lwm2m/wakaama_lwm2m/wakaama-master/core\discover.c ****         {
 506              		.loc 1 110 14 is_stmt 1 view .LVU175
 110:C:/Users/²Ü¼ÒºÀ/.iotlink/sdk/IoT_LINK/iot_link/network/lwm2m/wakaama_lwm2m/wakaama-master/core\discover.c ****         {
 507              		.loc 1 110 17 is_stmt 0 view .LVU176
 508 01a2 3378     		ldrb	r3, [r6]	@ zero_extendqisi2
ARM GAS  C:\Users\²Ü¼ÒºÀ\AppData\Local\Temp\cc4SIRne.s 			page 15


 509 01a4 9B07     		lsls	r3, r3, #30
 510 01a6 7FF57EAF 		bpl	.L27
 112:C:/Users/²Ü¼ÒºÀ/.iotlink/sdk/IoT_LINK/iot_link/network/lwm2m/wakaama_lwm2m/wakaama-master/core\discover.c ****             PRV_CONCAT_STR(buffer, bufferLen, head, ATTR_MAX_PERIOD_STR, ATTR_MAX_PERIOD_LEN);
 511              		.loc 1 112 13 is_stmt 1 view .LVU177
 512 01aa 9542     		cmp	r5, r2
 513 01ac 3FF43EAF 		beq	.L24
 112:C:/Users/²Ü¼ÒºÀ/.iotlink/sdk/IoT_LINK/iot_link/network/lwm2m/wakaama_lwm2m/wakaama-master/core\discover.c ****             PRV_CONCAT_STR(buffer, bufferLen, head, ATTR_MAX_PERIOD_STR, ATTR_MAX_PERIOD_LEN);
 514              		.loc 1 112 13 discriminator 2 view .LVU178
 515 01b0 3B23     		movs	r3, #59
 516 01b2 A354     		strb	r3, [r4, r2]
 112:C:/Users/²Ü¼ÒºÀ/.iotlink/sdk/IoT_LINK/iot_link/network/lwm2m/wakaama_lwm2m/wakaama-master/core\discover.c ****             PRV_CONCAT_STR(buffer, bufferLen, head, ATTR_MAX_PERIOD_STR, ATTR_MAX_PERIOD_LEN);
 517              		.loc 1 112 13 discriminator 2 view .LVU179
 518              	.LVL54:
 112:C:/Users/²Ü¼ÒºÀ/.iotlink/sdk/IoT_LINK/iot_link/network/lwm2m/wakaama_lwm2m/wakaama-master/core\discover.c ****             PRV_CONCAT_STR(buffer, bufferLen, head, ATTR_MAX_PERIOD_STR, ATTR_MAX_PERIOD_LEN);
 519              		.loc 1 112 99 discriminator 2 view .LVU180
 113:C:/Users/²Ü¼ÒºÀ/.iotlink/sdk/IoT_LINK/iot_link/network/lwm2m/wakaama_lwm2m/wakaama-master/core\discover.c **** 
 520              		.loc 1 113 13 discriminator 2 view .LVU181
 112:C:/Users/²Ü¼ÒºÀ/.iotlink/sdk/IoT_LINK/iot_link/network/lwm2m/wakaama_lwm2m/wakaama-master/core\discover.c ****             PRV_CONCAT_STR(buffer, bufferLen, head, ATTR_MAX_PERIOD_STR, ATTR_MAX_PERIOD_LEN);
 521              		.loc 1 112 13 is_stmt 0 discriminator 2 view .LVU182
 522 01b4 531C     		adds	r3, r2, #1
 523              	.LVL55:
 113:C:/Users/²Ü¼ÒºÀ/.iotlink/sdk/IoT_LINK/iot_link/network/lwm2m/wakaama_lwm2m/wakaama-master/core\discover.c **** 
 524              		.loc 1 113 13 discriminator 2 view .LVU183
 525 01b6 E81A     		subs	r0, r5, r3
 526 01b8 0428     		cmp	r0, #4
 527 01ba 7FF637AF 		bls	.L24
 113:C:/Users/²Ü¼ÒºÀ/.iotlink/sdk/IoT_LINK/iot_link/network/lwm2m/wakaama_lwm2m/wakaama-master/core\discover.c **** 
 528              		.loc 1 113 13 is_stmt 1 discriminator 2 view .LVU184
 529 01be 0E48     		ldr	r0, .L50+4
 530 01c0 04EB030C 		add	ip, r4, r3
 531 01c4 D0F800E0 		ldr	lr, [r0]	@ unaligned
 532 01c8 44F803E0 		str	lr, [r4, r3]	@ unaligned
 533 01cc 0379     		ldrb	r3, [r0, #4]	@ zero_extendqisi2
 534              	.LVL56:
 113:C:/Users/²Ü¼ÒºÀ/.iotlink/sdk/IoT_LINK/iot_link/network/lwm2m/wakaama_lwm2m/wakaama-master/core\discover.c **** 
 535              		.loc 1 113 13 is_stmt 0 discriminator 2 view .LVU185
 536 01ce 8CF80430 		strb	r3, [ip, #4]
 113:C:/Users/²Ü¼ÒºÀ/.iotlink/sdk/IoT_LINK/iot_link/network/lwm2m/wakaama_lwm2m/wakaama-master/core\discover.c **** 
 537              		.loc 1 113 13 is_stmt 1 discriminator 2 view .LVU186
 538 01d2 02F10609 		add	r9, r2, #6
 539              	.LVL57:
 113:C:/Users/²Ü¼ÒºÀ/.iotlink/sdk/IoT_LINK/iot_link/network/lwm2m/wakaama_lwm2m/wakaama-master/core\discover.c **** 
 540              		.loc 1 113 94 discriminator 2 view .LVU187
 115:C:/Users/²Ü¼ÒºÀ/.iotlink/sdk/IoT_LINK/iot_link/network/lwm2m/wakaama_lwm2m/wakaama-master/core\discover.c ****             if (res <= 0) return -1;
 541              		.loc 1 115 13 discriminator 2 view .LVU188
 115:C:/Users/²Ü¼ÒºÀ/.iotlink/sdk/IoT_LINK/iot_link/network/lwm2m/wakaama_lwm2m/wakaama-master/core\discover.c ****             if (res <= 0) return -1;
 542              		.loc 1 115 19 is_stmt 0 discriminator 2 view .LVU189
 543 01d6 B068     		ldr	r0, [r6, #8]
 544 01d8 A5EB0903 		sub	r3, r5, r9
 545 01dc 04EB0902 		add	r2, r4, r9
 546 01e0 FFF7FEFF 		bl	utils_intToText
 547              	.LVL58:
 116:C:/Users/²Ü¼ÒºÀ/.iotlink/sdk/IoT_LINK/iot_link/network/lwm2m/wakaama_lwm2m/wakaama-master/core\discover.c ****             head += res;
 548              		.loc 1 116 13 is_stmt 1 discriminator 2 view .LVU190
 116:C:/Users/²Ü¼ÒºÀ/.iotlink/sdk/IoT_LINK/iot_link/network/lwm2m/wakaama_lwm2m/wakaama-master/core\discover.c ****             head += res;
 549              		.loc 1 116 16 is_stmt 0 discriminator 2 view .LVU191
 550 01e4 0028     		cmp	r0, #0
ARM GAS  C:\Users\²Ü¼ÒºÀ\AppData\Local\Temp\cc4SIRne.s 			page 16


 116:C:/Users/²Ü¼ÒºÀ/.iotlink/sdk/IoT_LINK/iot_link/network/lwm2m/wakaama_lwm2m/wakaama-master/core\discover.c ****             head += res;
 551              		.loc 1 116 16 discriminator 2 view .LVU192
 552 01e6 7FF721AF 		ble	.L24
 117:C:/Users/²Ü¼ÒºÀ/.iotlink/sdk/IoT_LINK/iot_link/network/lwm2m/wakaama_lwm2m/wakaama-master/core\discover.c ****         }
 553              		.loc 1 117 13 is_stmt 1 view .LVU193
 117:C:/Users/²Ü¼ÒºÀ/.iotlink/sdk/IoT_LINK/iot_link/network/lwm2m/wakaama_lwm2m/wakaama-master/core\discover.c ****         }
 554              		.loc 1 117 18 is_stmt 0 view .LVU194
 555 01ea 09EB0002 		add	r2, r9, r0
 556              	.LVL59:
 117:C:/Users/²Ü¼ÒºÀ/.iotlink/sdk/IoT_LINK/iot_link/network/lwm2m/wakaama_lwm2m/wakaama-master/core\discover.c ****         }
 557              		.loc 1 117 18 view .LVU195
 558 01ee 5AE7     		b	.L27
 559              	.LVL60:
 560              	.L31:
  73:C:/Users/²Ü¼ÒºÀ/.iotlink/sdk/IoT_LINK/iot_link/network/lwm2m/wakaama_lwm2m/wakaama-master/core\discover.c **** 
 561              		.loc 1 73 10 view .LVU196
 562 01f0 3046     		mov	r0, r6
 563              	.LVL61:
  73:C:/Users/²Ü¼ÒºÀ/.iotlink/sdk/IoT_LINK/iot_link/network/lwm2m/wakaama_lwm2m/wakaama-master/core\discover.c **** 
 564              		.loc 1 73 10 view .LVU197
 565 01f2 1DE7     		b	.L19
 566              	.L51:
 567              		.align	2
 568              	.L50:
 569 01f4 00000000 		.word	.LC0
 570 01f8 06000000 		.word	.LC1
 571 01fc 0C000000 		.word	.LC2
 572 0200 10000000 		.word	.LC3
 573 0204 14000000 		.word	.LC4
 574              		.cfi_endproc
 575              	.LFE5:
 577              		.section	.rodata.prv_serializeLinkData.str1.1,"aMS",%progbits,1
 578              	.LC5:
 579 0000 3E3B6469 		.ascii	">;dim=\000"
 579      6D3D00
 580              	.LC6:
 581 0007 3E2C00   		.ascii	">,\000"
 582              		.section	.text.prv_serializeLinkData,"ax",%progbits
 583              		.align	1
 584              		.syntax unified
 585              		.thumb
 586              		.thumb_func
 587              		.fpu fpv4-sp-d16
 589              	prv_serializeLinkData:
 590              	.LVL62:
 591              	.LFB6:
 154:C:/Users/²Ü¼ÒºÀ/.iotlink/sdk/IoT_LINK/iot_link/network/lwm2m/wakaama_lwm2m/wakaama-master/core\discover.c **** 
 155:C:/Users/²Ü¼ÒºÀ/.iotlink/sdk/IoT_LINK/iot_link/network/lwm2m/wakaama_lwm2m/wakaama-master/core\discover.c **** static int prv_serializeLinkData(lwm2m_context_t *contextP,
 156:C:/Users/²Ü¼ÒºÀ/.iotlink/sdk/IoT_LINK/iot_link/network/lwm2m/wakaama_lwm2m/wakaama-master/core\discover.c ****                                  lwm2m_data_t *tlvP,
 157:C:/Users/²Ü¼ÒºÀ/.iotlink/sdk/IoT_LINK/iot_link/network/lwm2m/wakaama_lwm2m/wakaama-master/core\discover.c ****                                  lwm2m_server_t *serverP,
 158:C:/Users/²Ü¼ÒºÀ/.iotlink/sdk/IoT_LINK/iot_link/network/lwm2m/wakaama_lwm2m/wakaama-master/core\discover.c ****                                  lwm2m_attributes_t *objectParamP,
 159:C:/Users/²Ü¼ÒºÀ/.iotlink/sdk/IoT_LINK/iot_link/network/lwm2m/wakaama_lwm2m/wakaama-master/core\discover.c ****                                  lwm2m_uri_t *parentUriP,
 160:C:/Users/²Ü¼ÒºÀ/.iotlink/sdk/IoT_LINK/iot_link/network/lwm2m/wakaama_lwm2m/wakaama-master/core\discover.c ****                                  uint8_t *parentUriStr,
 161:C:/Users/²Ü¼ÒºÀ/.iotlink/sdk/IoT_LINK/iot_link/network/lwm2m/wakaama_lwm2m/wakaama-master/core\discover.c ****                                  size_t parentUriLen,
 162:C:/Users/²Ü¼ÒºÀ/.iotlink/sdk/IoT_LINK/iot_link/network/lwm2m/wakaama_lwm2m/wakaama-master/core\discover.c ****                                  uint8_t *buffer,
 163:C:/Users/²Ü¼ÒºÀ/.iotlink/sdk/IoT_LINK/iot_link/network/lwm2m/wakaama_lwm2m/wakaama-master/core\discover.c ****                                  size_t bufferLen)
 164:C:/Users/²Ü¼ÒºÀ/.iotlink/sdk/IoT_LINK/iot_link/network/lwm2m/wakaama_lwm2m/wakaama-master/core\discover.c **** {
ARM GAS  C:\Users\²Ü¼ÒºÀ\AppData\Local\Temp\cc4SIRne.s 			page 17


 592              		.loc 1 164 1 is_stmt 1 view -0
 593              		.cfi_startproc
 594              		@ args = 20, pretend = 0, frame = 32
 595              		@ frame_needed = 0, uses_anonymous_args = 0
 165:C:/Users/²Ü¼ÒºÀ/.iotlink/sdk/IoT_LINK/iot_link/network/lwm2m/wakaama_lwm2m/wakaama-master/core\discover.c ****     int head;
 596              		.loc 1 165 5 view .LVU199
 166:C:/Users/²Ü¼ÒºÀ/.iotlink/sdk/IoT_LINK/iot_link/network/lwm2m/wakaama_lwm2m/wakaama-master/core\discover.c ****     int res;
 597              		.loc 1 166 5 view .LVU200
 167:C:/Users/²Ü¼ÒºÀ/.iotlink/sdk/IoT_LINK/iot_link/network/lwm2m/wakaama_lwm2m/wakaama-master/core\discover.c ****     lwm2m_uri_t uri;
 598              		.loc 1 167 5 view .LVU201
 168:C:/Users/²Ü¼ÒºÀ/.iotlink/sdk/IoT_LINK/iot_link/network/lwm2m/wakaama_lwm2m/wakaama-master/core\discover.c **** 
 169:C:/Users/²Ü¼ÒºÀ/.iotlink/sdk/IoT_LINK/iot_link/network/lwm2m/wakaama_lwm2m/wakaama-master/core\discover.c ****     head = 0;
 599              		.loc 1 169 5 view .LVU202
 170:C:/Users/²Ü¼ÒºÀ/.iotlink/sdk/IoT_LINK/iot_link/network/lwm2m/wakaama_lwm2m/wakaama-master/core\discover.c **** 
 171:C:/Users/²Ü¼ÒºÀ/.iotlink/sdk/IoT_LINK/iot_link/network/lwm2m/wakaama_lwm2m/wakaama-master/core\discover.c ****     switch (tlvP->type)
 600              		.loc 1 171 5 view .LVU203
 164:C:/Users/²Ü¼ÒºÀ/.iotlink/sdk/IoT_LINK/iot_link/network/lwm2m/wakaama_lwm2m/wakaama-master/core\discover.c ****     int head;
 601              		.loc 1 164 1 is_stmt 0 view .LVU204
 602 0000 2DE9F04F 		push	{r4, r5, r6, r7, r8, r9, r10, fp, lr}
 603              	.LCFI2:
 604              		.cfi_def_cfa_offset 36
 605              		.cfi_offset 4, -36
 606              		.cfi_offset 5, -32
 607              		.cfi_offset 6, -28
 608              		.cfi_offset 7, -24
 609              		.cfi_offset 8, -20
 610              		.cfi_offset 9, -16
 611              		.cfi_offset 10, -12
 612              		.cfi_offset 11, -8
 613              		.cfi_offset 14, -4
 614 0004 0F46     		mov	r7, r1
 615 0006 2DED028B 		vpush.64	{d8}
 616              	.LCFI3:
 617              		.cfi_def_cfa_offset 44
 618              		.cfi_offset 80, -44
 619              		.cfi_offset 81, -40
 620 000a 08EE103A 		vmov	s16, r3	@ int
 621              		.loc 1 171 17 view .LVU205
 622 000e 3B78     		ldrb	r3, [r7]	@ zero_extendqisi2
 623              	.LVL63:
 164:C:/Users/²Ü¼ÒºÀ/.iotlink/sdk/IoT_LINK/iot_link/network/lwm2m/wakaama_lwm2m/wakaama-master/core\discover.c ****     int head;
 624              		.loc 1 164 1 view .LVU206
 625 0010 8FB0     		sub	sp, sp, #60
 626              	.LCFI4:
 627              		.cfi_def_cfa_offset 104
 628              		.loc 1 171 5 view .LVU207
 629 0012 022B     		cmp	r3, #2
 164:C:/Users/²Ü¼ÒºÀ/.iotlink/sdk/IoT_LINK/iot_link/network/lwm2m/wakaama_lwm2m/wakaama-master/core\discover.c ****     int head;
 630              		.loc 1 164 1 view .LVU208
 631 0014 DDE91AB1 		ldrd	fp, r1, [sp, #104]
 632              	.LVL64:
 164:C:/Users/²Ü¼ÒºÀ/.iotlink/sdk/IoT_LINK/iot_link/network/lwm2m/wakaama_lwm2m/wakaama-master/core\discover.c ****     int head;
 633              		.loc 1 164 1 view .LVU209
 634 0018 DDE91C85 		ldrd	r8, r5, [sp, #112]
 635 001c 1E9E     		ldr	r6, [sp, #120]
 636 001e 8246     		mov	r10, r0
 637 0020 9146     		mov	r9, r2
ARM GAS  C:\Users\²Ü¼ÒºÀ\AppData\Local\Temp\cc4SIRne.s 			page 18


 638              		.loc 1 171 5 view .LVU210
 639 0022 74D0     		beq	.L53
 640 0024 03D8     		bhi	.L54
 641 0026 2BB1     		cbz	r3, .L55
 642              	.LVL65:
 643              	.L67:
 644              		.loc 1 171 5 view .LVU211
 645 0028 4FF0FF34 		mov	r4, #-1
 646 002c 5FE0     		b	.L52
 647              	.LVL66:
 648              	.L54:
 649              		.loc 1 171 5 view .LVU212
 650 002e 033B     		subs	r3, r3, #3
 651 0030 062B     		cmp	r3, #6
 652 0032 F9D8     		bhi	.L67
 653              	.L55:
 172:C:/Users/²Ü¼ÒºÀ/.iotlink/sdk/IoT_LINK/iot_link/network/lwm2m/wakaama_lwm2m/wakaama-master/core\discover.c ****     {
 173:C:/Users/²Ü¼ÒºÀ/.iotlink/sdk/IoT_LINK/iot_link/network/lwm2m/wakaama_lwm2m/wakaama-master/core\discover.c ****     case LWM2M_TYPE_UNDEFINED:
 174:C:/Users/²Ü¼ÒºÀ/.iotlink/sdk/IoT_LINK/iot_link/network/lwm2m/wakaama_lwm2m/wakaama-master/core\discover.c ****     case LWM2M_TYPE_STRING:
 175:C:/Users/²Ü¼ÒºÀ/.iotlink/sdk/IoT_LINK/iot_link/network/lwm2m/wakaama_lwm2m/wakaama-master/core\discover.c ****     case LWM2M_TYPE_OPAQUE:
 176:C:/Users/²Ü¼ÒºÀ/.iotlink/sdk/IoT_LINK/iot_link/network/lwm2m/wakaama_lwm2m/wakaama-master/core\discover.c ****     case LWM2M_TYPE_INTEGER:
 177:C:/Users/²Ü¼ÒºÀ/.iotlink/sdk/IoT_LINK/iot_link/network/lwm2m/wakaama_lwm2m/wakaama-master/core\discover.c ****     case LWM2M_TYPE_FLOAT:
 178:C:/Users/²Ü¼ÒºÀ/.iotlink/sdk/IoT_LINK/iot_link/network/lwm2m/wakaama_lwm2m/wakaama-master/core\discover.c ****     case LWM2M_TYPE_BOOLEAN:
 179:C:/Users/²Ü¼ÒºÀ/.iotlink/sdk/IoT_LINK/iot_link/network/lwm2m/wakaama_lwm2m/wakaama-master/core\discover.c ****     case LWM2M_TYPE_OBJECT_LINK:
 180:C:/Users/²Ü¼ÒºÀ/.iotlink/sdk/IoT_LINK/iot_link/network/lwm2m/wakaama_lwm2m/wakaama-master/core\discover.c ****     case LWM2M_TYPE_MULTIPLE_RESOURCE:
 181:C:/Users/²Ü¼ÒºÀ/.iotlink/sdk/IoT_LINK/iot_link/network/lwm2m/wakaama_lwm2m/wakaama-master/core\discover.c ****         if (bufferLen < LINK_ITEM_START_SIZE) return -1;
 654              		.loc 1 181 9 is_stmt 1 view .LVU213
 655              		.loc 1 181 12 is_stmt 0 view .LVU214
 656 0034 002E     		cmp	r6, #0
 657 0036 F7D0     		beq	.L67
 182:C:/Users/²Ü¼ÒºÀ/.iotlink/sdk/IoT_LINK/iot_link/network/lwm2m/wakaama_lwm2m/wakaama-master/core\discover.c ****         memcpy(buffer + head, LINK_ITEM_START, LINK_ITEM_START_SIZE);
 658              		.loc 1 182 9 is_stmt 1 view .LVU215
 659 0038 3C23     		movs	r3, #60
 660 003a 2B70     		strb	r3, [r5]
 183:C:/Users/²Ü¼ÒºÀ/.iotlink/sdk/IoT_LINK/iot_link/network/lwm2m/wakaama_lwm2m/wakaama-master/core\discover.c ****         head = LINK_ITEM_START_SIZE;
 661              		.loc 1 183 9 view .LVU216
 662              	.LVL67:
 184:C:/Users/²Ü¼ÒºÀ/.iotlink/sdk/IoT_LINK/iot_link/network/lwm2m/wakaama_lwm2m/wakaama-master/core\discover.c **** 
 185:C:/Users/²Ü¼ÒºÀ/.iotlink/sdk/IoT_LINK/iot_link/network/lwm2m/wakaama_lwm2m/wakaama-master/core\discover.c ****         if (parentUriLen > 0)
 663              		.loc 1 185 9 view .LVU217
 664              		.loc 1 185 12 is_stmt 0 view .LVU218
 665 003c B8F1000F 		cmp	r8, #0
 666 0040 5BD0     		beq	.L68
 186:C:/Users/²Ü¼ÒºÀ/.iotlink/sdk/IoT_LINK/iot_link/network/lwm2m/wakaama_lwm2m/wakaama-master/core\discover.c ****         {
 187:C:/Users/²Ü¼ÒºÀ/.iotlink/sdk/IoT_LINK/iot_link/network/lwm2m/wakaama_lwm2m/wakaama-master/core\discover.c ****             if (bufferLen - head < parentUriLen) return -1;
 667              		.loc 1 187 13 is_stmt 1 view .LVU219
 668              		.loc 1 187 27 is_stmt 0 view .LVU220
 669 0042 731E     		subs	r3, r6, #1
 670              		.loc 1 187 16 view .LVU221
 671 0044 4345     		cmp	r3, r8
 672 0046 EFD3     		bcc	.L67
 188:C:/Users/²Ü¼ÒºÀ/.iotlink/sdk/IoT_LINK/iot_link/network/lwm2m/wakaama_lwm2m/wakaama-master/core\discover.c ****             memcpy(buffer + head, parentUriStr, parentUriLen);
 673              		.loc 1 188 13 is_stmt 1 view .LVU222
 674 0048 4246     		mov	r2, r8
 675              	.LVL68:
 676              		.loc 1 188 13 is_stmt 0 view .LVU223
 677 004a 681C     		adds	r0, r5, #1
ARM GAS  C:\Users\²Ü¼ÒºÀ\AppData\Local\Temp\cc4SIRne.s 			page 19


 678              	.LVL69:
 679              		.loc 1 188 13 view .LVU224
 680 004c FFF7FEFF 		bl	memcpy
 681              	.LVL70:
 189:C:/Users/²Ü¼ÒºÀ/.iotlink/sdk/IoT_LINK/iot_link/network/lwm2m/wakaama_lwm2m/wakaama-master/core\discover.c ****             head += parentUriLen;
 682              		.loc 1 189 13 is_stmt 1 view .LVU225
 683              		.loc 1 189 18 is_stmt 0 view .LVU226
 684 0050 08F10108 		add	r8, r8, #1
 685              	.LVL71:
 686              	.L58:
 190:C:/Users/²Ü¼ÒºÀ/.iotlink/sdk/IoT_LINK/iot_link/network/lwm2m/wakaama_lwm2m/wakaama-master/core\discover.c ****         }
 191:C:/Users/²Ü¼ÒºÀ/.iotlink/sdk/IoT_LINK/iot_link/network/lwm2m/wakaama_lwm2m/wakaama-master/core\discover.c **** 
 192:C:/Users/²Ü¼ÒºÀ/.iotlink/sdk/IoT_LINK/iot_link/network/lwm2m/wakaama_lwm2m/wakaama-master/core\discover.c ****         if (bufferLen - head < LINK_URI_SEPARATOR_SIZE) return -1;
 687              		.loc 1 192 9 is_stmt 1 view .LVU227
 688              		.loc 1 192 12 is_stmt 0 view .LVU228
 689 0054 B045     		cmp	r8, r6
 690 0056 E7D0     		beq	.L67
 193:C:/Users/²Ü¼ÒºÀ/.iotlink/sdk/IoT_LINK/iot_link/network/lwm2m/wakaama_lwm2m/wakaama-master/core\discover.c ****         memcpy(buffer + head, LINK_URI_SEPARATOR, LINK_URI_SEPARATOR_SIZE);
 691              		.loc 1 193 9 is_stmt 1 view .LVU229
 692 0058 2F23     		movs	r3, #47
 693 005a 05F80830 		strb	r3, [r5, r8]
 194:C:/Users/²Ü¼ÒºÀ/.iotlink/sdk/IoT_LINK/iot_link/network/lwm2m/wakaama_lwm2m/wakaama-master/core\discover.c ****         head += LINK_URI_SEPARATOR_SIZE;
 694              		.loc 1 194 9 view .LVU230
 695              		.loc 1 194 14 is_stmt 0 view .LVU231
 696 005e 08F10108 		add	r8, r8, #1
 697              	.LVL72:
 195:C:/Users/²Ü¼ÒºÀ/.iotlink/sdk/IoT_LINK/iot_link/network/lwm2m/wakaama_lwm2m/wakaama-master/core\discover.c **** 
 196:C:/Users/²Ü¼ÒºÀ/.iotlink/sdk/IoT_LINK/iot_link/network/lwm2m/wakaama_lwm2m/wakaama-master/core\discover.c ****         res = utils_intToText(tlvP->id, buffer + head, bufferLen - head);
 698              		.loc 1 196 9 is_stmt 1 view .LVU232
 699              		.loc 1 196 15 is_stmt 0 view .LVU233
 700 0062 7888     		ldrh	r0, [r7, #2]
 701 0064 A6EB0803 		sub	r3, r6, r8
 702 0068 05EB0802 		add	r2, r5, r8
 703 006c 0021     		movs	r1, #0
 704 006e FFF7FEFF 		bl	utils_intToText
 705              	.LVL73:
 197:C:/Users/²Ü¼ÒºÀ/.iotlink/sdk/IoT_LINK/iot_link/network/lwm2m/wakaama_lwm2m/wakaama-master/core\discover.c ****         if (res <= 0) return -1;
 706              		.loc 1 197 9 is_stmt 1 view .LVU234
 707              		.loc 1 197 12 is_stmt 0 view .LVU235
 708 0072 041E     		subs	r4, r0, #0
 709 0074 D8DD     		ble	.L67
 198:C:/Users/²Ü¼ÒºÀ/.iotlink/sdk/IoT_LINK/iot_link/network/lwm2m/wakaama_lwm2m/wakaama-master/core\discover.c ****         head += res;
 710              		.loc 1 198 9 is_stmt 1 view .LVU236
 199:C:/Users/²Ü¼ÒºÀ/.iotlink/sdk/IoT_LINK/iot_link/network/lwm2m/wakaama_lwm2m/wakaama-master/core\discover.c **** 
 200:C:/Users/²Ü¼ÒºÀ/.iotlink/sdk/IoT_LINK/iot_link/network/lwm2m/wakaama_lwm2m/wakaama-master/core\discover.c ****         if (tlvP->type == LWM2M_TYPE_MULTIPLE_RESOURCE)
 711              		.loc 1 200 12 is_stmt 0 view .LVU237
 712 0076 3A78     		ldrb	r2, [r7]	@ zero_extendqisi2
 198:C:/Users/²Ü¼ÒºÀ/.iotlink/sdk/IoT_LINK/iot_link/network/lwm2m/wakaama_lwm2m/wakaama-master/core\discover.c ****         head += res;
 713              		.loc 1 198 14 view .LVU238
 714 0078 4444     		add	r4, r4, r8
 715              	.LVL74:
 716              		.loc 1 200 9 is_stmt 1 view .LVU239
 717              		.loc 1 200 12 is_stmt 0 view .LVU240
 718 007a 032A     		cmp	r2, #3
 719 007c A6EB0403 		sub	r3, r6, r4
 720 0080 3ED1     		bne	.L60
 201:C:/Users/²Ü¼ÒºÀ/.iotlink/sdk/IoT_LINK/iot_link/network/lwm2m/wakaama_lwm2m/wakaama-master/core\discover.c ****         {
ARM GAS  C:\Users\²Ü¼ÒºÀ\AppData\Local\Temp\cc4SIRne.s 			page 20


 202:C:/Users/²Ü¼ÒºÀ/.iotlink/sdk/IoT_LINK/iot_link/network/lwm2m/wakaama_lwm2m/wakaama-master/core\discover.c ****             if (bufferLen - head < LINK_ITEM_DIM_START_SIZE) return -1;
 721              		.loc 1 202 13 is_stmt 1 view .LVU241
 722              		.loc 1 202 16 is_stmt 0 view .LVU242
 723 0082 052B     		cmp	r3, #5
 724 0084 D0D9     		bls	.L67
 203:C:/Users/²Ü¼ÒºÀ/.iotlink/sdk/IoT_LINK/iot_link/network/lwm2m/wakaama_lwm2m/wakaama-master/core\discover.c ****             memcpy(buffer + head, LINK_ITEM_DIM_START, LINK_ITEM_DIM_START_SIZE);
 725              		.loc 1 203 13 is_stmt 1 view .LVU243
 726 0086 604B     		ldr	r3, .L88
 727              		.loc 1 203 27 is_stmt 0 view .LVU244
 728 0088 2A19     		adds	r2, r5, r4
 729              		.loc 1 203 13 view .LVU245
 730 008a 1968     		ldr	r1, [r3]	@ unaligned
 731 008c 9B88     		ldrh	r3, [r3, #4]	@ unaligned
 732 008e 2951     		str	r1, [r5, r4]	@ unaligned
 733 0090 9380     		strh	r3, [r2, #4]	@ unaligned
 204:C:/Users/²Ü¼ÒºÀ/.iotlink/sdk/IoT_LINK/iot_link/network/lwm2m/wakaama_lwm2m/wakaama-master/core\discover.c ****             head += LINK_ITEM_DIM_START_SIZE;
 734              		.loc 1 204 13 is_stmt 1 view .LVU246
 735              		.loc 1 204 18 is_stmt 0 view .LVU247
 736 0092 0634     		adds	r4, r4, #6
 737              	.LVL75:
 205:C:/Users/²Ü¼ÒºÀ/.iotlink/sdk/IoT_LINK/iot_link/network/lwm2m/wakaama_lwm2m/wakaama-master/core\discover.c **** 
 206:C:/Users/²Ü¼ÒºÀ/.iotlink/sdk/IoT_LINK/iot_link/network/lwm2m/wakaama_lwm2m/wakaama-master/core\discover.c ****             res = utils_intToText(tlvP->value.asChildren.count, buffer + head, bufferLen - head);
 738              		.loc 1 206 13 is_stmt 1 view .LVU248
 739              		.loc 1 206 19 is_stmt 0 view .LVU249
 740 0094 B868     		ldr	r0, [r7, #8]
 741              	.LVL76:
 742              		.loc 1 206 19 view .LVU250
 743 0096 331B     		subs	r3, r6, r4
 744 0098 2A19     		adds	r2, r5, r4
 745 009a 0021     		movs	r1, #0
 746 009c FFF7FEFF 		bl	utils_intToText
 747              	.LVL77:
 207:C:/Users/²Ü¼ÒºÀ/.iotlink/sdk/IoT_LINK/iot_link/network/lwm2m/wakaama_lwm2m/wakaama-master/core\discover.c ****             if (res <= 0) return -1;
 748              		.loc 1 207 13 is_stmt 1 view .LVU251
 749              		.loc 1 207 16 is_stmt 0 view .LVU252
 750 00a0 0028     		cmp	r0, #0
 751              		.loc 1 207 16 view .LVU253
 752 00a2 C1DD     		ble	.L67
 208:C:/Users/²Ü¼ÒºÀ/.iotlink/sdk/IoT_LINK/iot_link/network/lwm2m/wakaama_lwm2m/wakaama-master/core\discover.c ****             head += res;
 753              		.loc 1 208 13 is_stmt 1 view .LVU254
 754              		.loc 1 208 18 is_stmt 0 view .LVU255
 755 00a4 0444     		add	r4, r4, r0
 756              	.LVL78:
 209:C:/Users/²Ü¼ÒºÀ/.iotlink/sdk/IoT_LINK/iot_link/network/lwm2m/wakaama_lwm2m/wakaama-master/core\discover.c **** 
 210:C:/Users/²Ü¼ÒºÀ/.iotlink/sdk/IoT_LINK/iot_link/network/lwm2m/wakaama_lwm2m/wakaama-master/core\discover.c ****             if (bufferLen - head < LINK_ITEM_ATTR_END_SIZE) return -1;
 757              		.loc 1 210 13 is_stmt 1 view .LVU256
 758              		.loc 1 210 16 is_stmt 0 view .LVU257
 759 00a6 B442     		cmp	r4, r6
 760 00a8 BED0     		beq	.L67
 211:C:/Users/²Ü¼ÒºÀ/.iotlink/sdk/IoT_LINK/iot_link/network/lwm2m/wakaama_lwm2m/wakaama-master/core\discover.c ****             memcpy(buffer + head, LINK_ITEM_ATTR_END, LINK_ITEM_ATTR_END_SIZE);
 761              		.loc 1 211 13 is_stmt 1 view .LVU258
 762 00aa 2C23     		movs	r3, #44
 763 00ac 2B55     		strb	r3, [r5, r4]
 212:C:/Users/²Ü¼ÒºÀ/.iotlink/sdk/IoT_LINK/iot_link/network/lwm2m/wakaama_lwm2m/wakaama-master/core\discover.c ****             head += LINK_ITEM_ATTR_END_SIZE;
 764              		.loc 1 212 13 view .LVU259
 765              		.loc 1 212 18 is_stmt 0 view .LVU260
 766 00ae 0134     		adds	r4, r4, #1
ARM GAS  C:\Users\²Ü¼ÒºÀ\AppData\Local\Temp\cc4SIRne.s 			page 21


 767              	.LVL79:
 768              	.L61:
 213:C:/Users/²Ü¼ÒºÀ/.iotlink/sdk/IoT_LINK/iot_link/network/lwm2m/wakaama_lwm2m/wakaama-master/core\discover.c ****         }
 214:C:/Users/²Ü¼ÒºÀ/.iotlink/sdk/IoT_LINK/iot_link/network/lwm2m/wakaama_lwm2m/wakaama-master/core\discover.c ****         else
 215:C:/Users/²Ü¼ÒºÀ/.iotlink/sdk/IoT_LINK/iot_link/network/lwm2m/wakaama_lwm2m/wakaama-master/core\discover.c ****         {
 216:C:/Users/²Ü¼ÒºÀ/.iotlink/sdk/IoT_LINK/iot_link/network/lwm2m/wakaama_lwm2m/wakaama-master/core\discover.c ****             if (bufferLen - head < LINK_ITEM_END_SIZE) return -1;
 217:C:/Users/²Ü¼ÒºÀ/.iotlink/sdk/IoT_LINK/iot_link/network/lwm2m/wakaama_lwm2m/wakaama-master/core\discover.c ****             memcpy(buffer + head, LINK_ITEM_END, LINK_ITEM_END_SIZE);
 218:C:/Users/²Ü¼ÒºÀ/.iotlink/sdk/IoT_LINK/iot_link/network/lwm2m/wakaama_lwm2m/wakaama-master/core\discover.c ****             head += LINK_ITEM_END_SIZE;
 219:C:/Users/²Ü¼ÒºÀ/.iotlink/sdk/IoT_LINK/iot_link/network/lwm2m/wakaama_lwm2m/wakaama-master/core\discover.c ****         }
 220:C:/Users/²Ü¼ÒºÀ/.iotlink/sdk/IoT_LINK/iot_link/network/lwm2m/wakaama_lwm2m/wakaama-master/core\discover.c **** 
 221:C:/Users/²Ü¼ÒºÀ/.iotlink/sdk/IoT_LINK/iot_link/network/lwm2m/wakaama_lwm2m/wakaama-master/core\discover.c ****         if (serverP != NULL)
 769              		.loc 1 221 9 is_stmt 1 view .LVU261
 770              		.loc 1 221 12 is_stmt 0 view .LVU262
 771 00b0 B9F1000F 		cmp	r9, #0
 772 00b4 1BD0     		beq	.L52
 222:C:/Users/²Ü¼ÒºÀ/.iotlink/sdk/IoT_LINK/iot_link/network/lwm2m/wakaama_lwm2m/wakaama-master/core\discover.c ****         {
 223:C:/Users/²Ü¼ÒºÀ/.iotlink/sdk/IoT_LINK/iot_link/network/lwm2m/wakaama_lwm2m/wakaama-master/core\discover.c ****             memcpy(&uri, parentUriP, sizeof(lwm2m_uri_t));
 773              		.loc 1 223 13 is_stmt 1 view .LVU263
 774 00b6 DBF80000 		ldr	r0, [fp]	@ unaligned
 775              	.LVL80:
 776              		.loc 1 223 13 is_stmt 0 view .LVU264
 777 00ba BBF80430 		ldrh	r3, [fp, #4]	@ unaligned
 778 00be ADF82030 		strh	r3, [sp, #32]	@ unaligned
 224:C:/Users/²Ü¼ÒºÀ/.iotlink/sdk/IoT_LINK/iot_link/network/lwm2m/wakaama_lwm2m/wakaama-master/core\discover.c ****             uri.resourceId = tlvP->id;
 779              		.loc 1 224 13 is_stmt 1 view .LVU265
 780              		.loc 1 224 28 is_stmt 0 view .LVU266
 781 00c2 7B88     		ldrh	r3, [r7, #2]
 223:C:/Users/²Ü¼ÒºÀ/.iotlink/sdk/IoT_LINK/iot_link/network/lwm2m/wakaama_lwm2m/wakaama-master/core\discover.c ****             uri.resourceId = tlvP->id;
 782              		.loc 1 223 13 view .LVU267
 783 00c4 0790     		str	r0, [sp, #28]
 784              		.loc 1 224 28 view .LVU268
 785 00c6 ADF82230 		strh	r3, [sp, #34]	@ movhi
 225:C:/Users/²Ü¼ÒºÀ/.iotlink/sdk/IoT_LINK/iot_link/network/lwm2m/wakaama_lwm2m/wakaama-master/core\discover.c ****             uri.flag |= LWM2M_URI_FLAG_RESOURCE_ID;
 786              		.loc 1 225 13 is_stmt 1 view .LVU269
 787              		.loc 1 225 22 is_stmt 0 view .LVU270
 788 00ca 40F00100 		orr	r0, r0, #1
 226:C:/Users/²Ü¼ÒºÀ/.iotlink/sdk/IoT_LINK/iot_link/network/lwm2m/wakaama_lwm2m/wakaama-master/core\discover.c ****             res = prv_serializeAttributes(contextP, &uri, serverP, objectParamP, buffer, head - 1, 
 789              		.loc 1 226 95 view .LVU271
 790 00ce 631E     		subs	r3, r4, #1
 791              		.loc 1 226 19 view .LVU272
 792 00d0 CDE90053 		strd	r5, r3, [sp]
 225:C:/Users/²Ü¼ÒºÀ/.iotlink/sdk/IoT_LINK/iot_link/network/lwm2m/wakaama_lwm2m/wakaama-master/core\discover.c ****             uri.flag |= LWM2M_URI_FLAG_RESOURCE_ID;
 793              		.loc 1 225 22 view .LVU273
 794 00d4 8DF81C00 		strb	r0, [sp, #28]
 795              		.loc 1 226 13 is_stmt 1 view .LVU274
 796              		.loc 1 226 19 is_stmt 0 view .LVU275
 797 00d8 18EE103A 		vmov	r3, s16	@ int
 798 00dc 0296     		str	r6, [sp, #8]
 799 00de 4A46     		mov	r2, r9
 800 00e0 07A9     		add	r1, sp, #28
 801 00e2 5046     		mov	r0, r10
 802 00e4 FFF7FEFF 		bl	prv_serializeAttributes
 803              	.LVL81:
 227:C:/Users/²Ü¼ÒºÀ/.iotlink/sdk/IoT_LINK/iot_link/network/lwm2m/wakaama_lwm2m/wakaama-master/core\discover.c ****             if (res < 0) return -1;    // careful, 0 is valid
 804              		.loc 1 227 13 is_stmt 1 view .LVU276
 805              		.loc 1 227 16 is_stmt 0 view .LVU277
 806 00e8 0028     		cmp	r0, #0
ARM GAS  C:\Users\²Ü¼ÒºÀ\AppData\Local\Temp\cc4SIRne.s 			page 22


 807              		.loc 1 227 16 view .LVU278
 808 00ea 9DDB     		blt	.L67
 228:C:/Users/²Ü¼ÒºÀ/.iotlink/sdk/IoT_LINK/iot_link/network/lwm2m/wakaama_lwm2m/wakaama-master/core\discover.c ****             if (res > 0) head += res;
 809              		.loc 1 228 13 is_stmt 1 view .LVU279
 810              		.loc 1 228 31 is_stmt 0 view .LVU280
 811 00ec 0444     		add	r4, r4, r0
 812              	.LVL82:
 813              	.L52:
 229:C:/Users/²Ü¼ÒºÀ/.iotlink/sdk/IoT_LINK/iot_link/network/lwm2m/wakaama_lwm2m/wakaama-master/core\discover.c ****         }
 230:C:/Users/²Ü¼ÒºÀ/.iotlink/sdk/IoT_LINK/iot_link/network/lwm2m/wakaama_lwm2m/wakaama-master/core\discover.c ****         break;
 231:C:/Users/²Ü¼ÒºÀ/.iotlink/sdk/IoT_LINK/iot_link/network/lwm2m/wakaama_lwm2m/wakaama-master/core\discover.c **** 
 232:C:/Users/²Ü¼ÒºÀ/.iotlink/sdk/IoT_LINK/iot_link/network/lwm2m/wakaama_lwm2m/wakaama-master/core\discover.c ****     case LWM2M_TYPE_OBJECT_INSTANCE:
 233:C:/Users/²Ü¼ÒºÀ/.iotlink/sdk/IoT_LINK/iot_link/network/lwm2m/wakaama_lwm2m/wakaama-master/core\discover.c ****     {
 234:C:/Users/²Ü¼ÒºÀ/.iotlink/sdk/IoT_LINK/iot_link/network/lwm2m/wakaama_lwm2m/wakaama-master/core\discover.c ****         uint8_t uriStr[URI_MAX_STRING_LEN];
 235:C:/Users/²Ü¼ÒºÀ/.iotlink/sdk/IoT_LINK/iot_link/network/lwm2m/wakaama_lwm2m/wakaama-master/core\discover.c ****         size_t uriLen;
 236:C:/Users/²Ü¼ÒºÀ/.iotlink/sdk/IoT_LINK/iot_link/network/lwm2m/wakaama_lwm2m/wakaama-master/core\discover.c ****         size_t index;
 237:C:/Users/²Ü¼ÒºÀ/.iotlink/sdk/IoT_LINK/iot_link/network/lwm2m/wakaama_lwm2m/wakaama-master/core\discover.c **** 
 238:C:/Users/²Ü¼ÒºÀ/.iotlink/sdk/IoT_LINK/iot_link/network/lwm2m/wakaama_lwm2m/wakaama-master/core\discover.c ****         if (parentUriLen > 0)
 239:C:/Users/²Ü¼ÒºÀ/.iotlink/sdk/IoT_LINK/iot_link/network/lwm2m/wakaama_lwm2m/wakaama-master/core\discover.c ****         {
 240:C:/Users/²Ü¼ÒºÀ/.iotlink/sdk/IoT_LINK/iot_link/network/lwm2m/wakaama_lwm2m/wakaama-master/core\discover.c ****             if (URI_MAX_STRING_LEN < parentUriLen) return -1;
 241:C:/Users/²Ü¼ÒºÀ/.iotlink/sdk/IoT_LINK/iot_link/network/lwm2m/wakaama_lwm2m/wakaama-master/core\discover.c ****             memcpy(uriStr, parentUriStr, parentUriLen);
 242:C:/Users/²Ü¼ÒºÀ/.iotlink/sdk/IoT_LINK/iot_link/network/lwm2m/wakaama_lwm2m/wakaama-master/core\discover.c ****             uriLen = parentUriLen;
 243:C:/Users/²Ü¼ÒºÀ/.iotlink/sdk/IoT_LINK/iot_link/network/lwm2m/wakaama_lwm2m/wakaama-master/core\discover.c ****         }
 244:C:/Users/²Ü¼ÒºÀ/.iotlink/sdk/IoT_LINK/iot_link/network/lwm2m/wakaama_lwm2m/wakaama-master/core\discover.c ****         else
 245:C:/Users/²Ü¼ÒºÀ/.iotlink/sdk/IoT_LINK/iot_link/network/lwm2m/wakaama_lwm2m/wakaama-master/core\discover.c ****         {
 246:C:/Users/²Ü¼ÒºÀ/.iotlink/sdk/IoT_LINK/iot_link/network/lwm2m/wakaama_lwm2m/wakaama-master/core\discover.c ****             uriLen = 0;
 247:C:/Users/²Ü¼ÒºÀ/.iotlink/sdk/IoT_LINK/iot_link/network/lwm2m/wakaama_lwm2m/wakaama-master/core\discover.c ****         }
 248:C:/Users/²Ü¼ÒºÀ/.iotlink/sdk/IoT_LINK/iot_link/network/lwm2m/wakaama_lwm2m/wakaama-master/core\discover.c **** 
 249:C:/Users/²Ü¼ÒºÀ/.iotlink/sdk/IoT_LINK/iot_link/network/lwm2m/wakaama_lwm2m/wakaama-master/core\discover.c ****         if (URI_MAX_STRING_LEN - uriLen < LINK_URI_SEPARATOR_SIZE) return -1;
 250:C:/Users/²Ü¼ÒºÀ/.iotlink/sdk/IoT_LINK/iot_link/network/lwm2m/wakaama_lwm2m/wakaama-master/core\discover.c ****         memcpy(uriStr + uriLen, LINK_URI_SEPARATOR, LINK_URI_SEPARATOR_SIZE);
 251:C:/Users/²Ü¼ÒºÀ/.iotlink/sdk/IoT_LINK/iot_link/network/lwm2m/wakaama_lwm2m/wakaama-master/core\discover.c ****         uriLen += LINK_URI_SEPARATOR_SIZE;
 252:C:/Users/²Ü¼ÒºÀ/.iotlink/sdk/IoT_LINK/iot_link/network/lwm2m/wakaama_lwm2m/wakaama-master/core\discover.c **** 
 253:C:/Users/²Ü¼ÒºÀ/.iotlink/sdk/IoT_LINK/iot_link/network/lwm2m/wakaama_lwm2m/wakaama-master/core\discover.c ****         res = utils_intToText(tlvP->id, uriStr + uriLen, URI_MAX_STRING_LEN - uriLen);
 254:C:/Users/²Ü¼ÒºÀ/.iotlink/sdk/IoT_LINK/iot_link/network/lwm2m/wakaama_lwm2m/wakaama-master/core\discover.c ****         if (res <= 0) return -1;
 255:C:/Users/²Ü¼ÒºÀ/.iotlink/sdk/IoT_LINK/iot_link/network/lwm2m/wakaama_lwm2m/wakaama-master/core\discover.c ****         uriLen += res;
 256:C:/Users/²Ü¼ÒºÀ/.iotlink/sdk/IoT_LINK/iot_link/network/lwm2m/wakaama_lwm2m/wakaama-master/core\discover.c **** 
 257:C:/Users/²Ü¼ÒºÀ/.iotlink/sdk/IoT_LINK/iot_link/network/lwm2m/wakaama_lwm2m/wakaama-master/core\discover.c ****         memcpy(&uri, parentUriP, sizeof(lwm2m_uri_t));
 258:C:/Users/²Ü¼ÒºÀ/.iotlink/sdk/IoT_LINK/iot_link/network/lwm2m/wakaama_lwm2m/wakaama-master/core\discover.c ****         uri.instanceId = tlvP->id;
 259:C:/Users/²Ü¼ÒºÀ/.iotlink/sdk/IoT_LINK/iot_link/network/lwm2m/wakaama_lwm2m/wakaama-master/core\discover.c ****         uri.flag |= LWM2M_URI_FLAG_INSTANCE_ID;
 260:C:/Users/²Ü¼ÒºÀ/.iotlink/sdk/IoT_LINK/iot_link/network/lwm2m/wakaama_lwm2m/wakaama-master/core\discover.c **** 
 261:C:/Users/²Ü¼ÒºÀ/.iotlink/sdk/IoT_LINK/iot_link/network/lwm2m/wakaama_lwm2m/wakaama-master/core\discover.c ****         head = 0;
 262:C:/Users/²Ü¼ÒºÀ/.iotlink/sdk/IoT_LINK/iot_link/network/lwm2m/wakaama_lwm2m/wakaama-master/core\discover.c ****         PRV_CONCAT_STR(buffer, bufferLen, head, LINK_ITEM_START, LINK_ITEM_START_SIZE);
 263:C:/Users/²Ü¼ÒºÀ/.iotlink/sdk/IoT_LINK/iot_link/network/lwm2m/wakaama_lwm2m/wakaama-master/core\discover.c ****         PRV_CONCAT_STR(buffer, bufferLen, head, uriStr, uriLen);
 264:C:/Users/²Ü¼ÒºÀ/.iotlink/sdk/IoT_LINK/iot_link/network/lwm2m/wakaama_lwm2m/wakaama-master/core\discover.c ****         PRV_CONCAT_STR(buffer, bufferLen, head, LINK_ITEM_END, LINK_ITEM_END_SIZE);
 265:C:/Users/²Ü¼ÒºÀ/.iotlink/sdk/IoT_LINK/iot_link/network/lwm2m/wakaama_lwm2m/wakaama-master/core\discover.c ****         if (serverP != NULL)
 266:C:/Users/²Ü¼ÒºÀ/.iotlink/sdk/IoT_LINK/iot_link/network/lwm2m/wakaama_lwm2m/wakaama-master/core\discover.c ****         {
 267:C:/Users/²Ü¼ÒºÀ/.iotlink/sdk/IoT_LINK/iot_link/network/lwm2m/wakaama_lwm2m/wakaama-master/core\discover.c ****             res = prv_serializeAttributes(contextP, &uri, serverP, NULL, buffer, head - 1, bufferLe
 268:C:/Users/²Ü¼ÒºÀ/.iotlink/sdk/IoT_LINK/iot_link/network/lwm2m/wakaama_lwm2m/wakaama-master/core\discover.c ****             if (res < 0) return -1;    // careful, 0 is valid
 269:C:/Users/²Ü¼ÒºÀ/.iotlink/sdk/IoT_LINK/iot_link/network/lwm2m/wakaama_lwm2m/wakaama-master/core\discover.c ****             if (res == 0) head = 0;    // rewind
 270:C:/Users/²Ü¼ÒºÀ/.iotlink/sdk/IoT_LINK/iot_link/network/lwm2m/wakaama_lwm2m/wakaama-master/core\discover.c ****             else head += res;
 271:C:/Users/²Ü¼ÒºÀ/.iotlink/sdk/IoT_LINK/iot_link/network/lwm2m/wakaama_lwm2m/wakaama-master/core\discover.c ****         }
 272:C:/Users/²Ü¼ÒºÀ/.iotlink/sdk/IoT_LINK/iot_link/network/lwm2m/wakaama_lwm2m/wakaama-master/core\discover.c ****         for (index = 0; index < tlvP->value.asChildren.count; index++)
 273:C:/Users/²Ü¼ÒºÀ/.iotlink/sdk/IoT_LINK/iot_link/network/lwm2m/wakaama_lwm2m/wakaama-master/core\discover.c ****         {
 274:C:/Users/²Ü¼ÒºÀ/.iotlink/sdk/IoT_LINK/iot_link/network/lwm2m/wakaama_lwm2m/wakaama-master/core\discover.c ****             res = prv_serializeLinkData(contextP, tlvP->value.asChildren.array + index, serverP, ob
 275:C:/Users/²Ü¼ÒºÀ/.iotlink/sdk/IoT_LINK/iot_link/network/lwm2m/wakaama_lwm2m/wakaama-master/core\discover.c ****             if (res < 0) return -1;
 276:C:/Users/²Ü¼ÒºÀ/.iotlink/sdk/IoT_LINK/iot_link/network/lwm2m/wakaama_lwm2m/wakaama-master/core\discover.c ****             head += res;
 277:C:/Users/²Ü¼ÒºÀ/.iotlink/sdk/IoT_LINK/iot_link/network/lwm2m/wakaama_lwm2m/wakaama-master/core\discover.c ****         }
ARM GAS  C:\Users\²Ü¼ÒºÀ\AppData\Local\Temp\cc4SIRne.s 			page 23


 278:C:/Users/²Ü¼ÒºÀ/.iotlink/sdk/IoT_LINK/iot_link/network/lwm2m/wakaama_lwm2m/wakaama-master/core\discover.c ****     }
 279:C:/Users/²Ü¼ÒºÀ/.iotlink/sdk/IoT_LINK/iot_link/network/lwm2m/wakaama_lwm2m/wakaama-master/core\discover.c ****     break;
 280:C:/Users/²Ü¼ÒºÀ/.iotlink/sdk/IoT_LINK/iot_link/network/lwm2m/wakaama_lwm2m/wakaama-master/core\discover.c **** 
 281:C:/Users/²Ü¼ÒºÀ/.iotlink/sdk/IoT_LINK/iot_link/network/lwm2m/wakaama_lwm2m/wakaama-master/core\discover.c ****     case LWM2M_TYPE_OBJECT:
 282:C:/Users/²Ü¼ÒºÀ/.iotlink/sdk/IoT_LINK/iot_link/network/lwm2m/wakaama_lwm2m/wakaama-master/core\discover.c ****     default:
 283:C:/Users/²Ü¼ÒºÀ/.iotlink/sdk/IoT_LINK/iot_link/network/lwm2m/wakaama_lwm2m/wakaama-master/core\discover.c ****         return -1;
 284:C:/Users/²Ü¼ÒºÀ/.iotlink/sdk/IoT_LINK/iot_link/network/lwm2m/wakaama_lwm2m/wakaama-master/core\discover.c ****     }
 285:C:/Users/²Ü¼ÒºÀ/.iotlink/sdk/IoT_LINK/iot_link/network/lwm2m/wakaama_lwm2m/wakaama-master/core\discover.c **** 
 286:C:/Users/²Ü¼ÒºÀ/.iotlink/sdk/IoT_LINK/iot_link/network/lwm2m/wakaama_lwm2m/wakaama-master/core\discover.c ****     return head;
 287:C:/Users/²Ü¼ÒºÀ/.iotlink/sdk/IoT_LINK/iot_link/network/lwm2m/wakaama_lwm2m/wakaama-master/core\discover.c **** }
 814              		.loc 1 287 1 view .LVU281
 815 00ee 2046     		mov	r0, r4
 816 00f0 0FB0     		add	sp, sp, #60
 817              	.LCFI5:
 818              		.cfi_remember_state
 819              		.cfi_def_cfa_offset 44
 820              		@ sp needed
 821 00f2 BDEC028B 		vldm	sp!, {d8}
 822              	.LCFI6:
 823              		.cfi_restore 80
 824              		.cfi_restore 81
 825              		.cfi_def_cfa_offset 36
 826              	.LVL83:
 827              		.loc 1 287 1 view .LVU282
 828 00f6 BDE8F08F 		pop	{r4, r5, r6, r7, r8, r9, r10, fp, pc}
 829              	.LVL84:
 830              	.L68:
 831              	.LCFI7:
 832              		.cfi_restore_state
 183:C:/Users/²Ü¼ÒºÀ/.iotlink/sdk/IoT_LINK/iot_link/network/lwm2m/wakaama_lwm2m/wakaama-master/core\discover.c **** 
 833              		.loc 1 183 14 view .LVU283
 834 00fa 4FF00108 		mov	r8, #1
 835 00fe A9E7     		b	.L58
 836              	.LVL85:
 837              	.L60:
 216:C:/Users/²Ü¼ÒºÀ/.iotlink/sdk/IoT_LINK/iot_link/network/lwm2m/wakaama_lwm2m/wakaama-master/core\discover.c ****             memcpy(buffer + head, LINK_ITEM_END, LINK_ITEM_END_SIZE);
 838              		.loc 1 216 13 is_stmt 1 view .LVU284
 216:C:/Users/²Ü¼ÒºÀ/.iotlink/sdk/IoT_LINK/iot_link/network/lwm2m/wakaama_lwm2m/wakaama-master/core\discover.c ****             memcpy(buffer + head, LINK_ITEM_END, LINK_ITEM_END_SIZE);
 839              		.loc 1 216 16 is_stmt 0 view .LVU285
 840 0100 012B     		cmp	r3, #1
 841 0102 91D9     		bls	.L67
 217:C:/Users/²Ü¼ÒºÀ/.iotlink/sdk/IoT_LINK/iot_link/network/lwm2m/wakaama_lwm2m/wakaama-master/core\discover.c ****             head += LINK_ITEM_END_SIZE;
 842              		.loc 1 217 13 is_stmt 1 view .LVU286
 843 0104 414B     		ldr	r3, .L88+4
 844 0106 1B88     		ldrh	r3, [r3]	@ unaligned
 845 0108 2B53     		strh	r3, [r5, r4]	@ unaligned
 218:C:/Users/²Ü¼ÒºÀ/.iotlink/sdk/IoT_LINK/iot_link/network/lwm2m/wakaama_lwm2m/wakaama-master/core\discover.c ****         }
 846              		.loc 1 218 13 view .LVU287
 218:C:/Users/²Ü¼ÒºÀ/.iotlink/sdk/IoT_LINK/iot_link/network/lwm2m/wakaama_lwm2m/wakaama-master/core\discover.c ****         }
 847              		.loc 1 218 18 is_stmt 0 view .LVU288
 848 010a 0234     		adds	r4, r4, #2
 849              	.LVL86:
 218:C:/Users/²Ü¼ÒºÀ/.iotlink/sdk/IoT_LINK/iot_link/network/lwm2m/wakaama_lwm2m/wakaama-master/core\discover.c ****         }
 850              		.loc 1 218 18 view .LVU289
 851 010c D0E7     		b	.L61
 852              	.LVL87:
 853              	.L53:
ARM GAS  C:\Users\²Ü¼ÒºÀ\AppData\Local\Temp\cc4SIRne.s 			page 24


 854              	.LBB2:
 234:C:/Users/²Ü¼ÒºÀ/.iotlink/sdk/IoT_LINK/iot_link/network/lwm2m/wakaama_lwm2m/wakaama-master/core\discover.c ****         size_t uriLen;
 855              		.loc 1 234 9 is_stmt 1 view .LVU290
 235:C:/Users/²Ü¼ÒºÀ/.iotlink/sdk/IoT_LINK/iot_link/network/lwm2m/wakaama_lwm2m/wakaama-master/core\discover.c ****         size_t index;
 856              		.loc 1 235 9 view .LVU291
 236:C:/Users/²Ü¼ÒºÀ/.iotlink/sdk/IoT_LINK/iot_link/network/lwm2m/wakaama_lwm2m/wakaama-master/core\discover.c **** 
 857              		.loc 1 236 9 view .LVU292
 238:C:/Users/²Ü¼ÒºÀ/.iotlink/sdk/IoT_LINK/iot_link/network/lwm2m/wakaama_lwm2m/wakaama-master/core\discover.c ****         {
 858              		.loc 1 238 9 view .LVU293
 238:C:/Users/²Ü¼ÒºÀ/.iotlink/sdk/IoT_LINK/iot_link/network/lwm2m/wakaama_lwm2m/wakaama-master/core\discover.c ****         {
 859              		.loc 1 238 12 is_stmt 0 view .LVU294
 860 010e B8F1000F 		cmp	r8, #0
 861 0112 0AD0     		beq	.L62
 240:C:/Users/²Ü¼ÒºÀ/.iotlink/sdk/IoT_LINK/iot_link/network/lwm2m/wakaama_lwm2m/wakaama-master/core\discover.c ****             memcpy(uriStr, parentUriStr, parentUriLen);
 862              		.loc 1 240 13 is_stmt 1 view .LVU295
 240:C:/Users/²Ü¼ÒºÀ/.iotlink/sdk/IoT_LINK/iot_link/network/lwm2m/wakaama_lwm2m/wakaama-master/core\discover.c ****             memcpy(uriStr, parentUriStr, parentUriLen);
 863              		.loc 1 240 16 is_stmt 0 view .LVU296
 864 0114 B8F1120F 		cmp	r8, #18
 865 0118 86D8     		bhi	.L67
 241:C:/Users/²Ü¼ÒºÀ/.iotlink/sdk/IoT_LINK/iot_link/network/lwm2m/wakaama_lwm2m/wakaama-master/core\discover.c ****             uriLen = parentUriLen;
 866              		.loc 1 241 13 is_stmt 1 view .LVU297
 867 011a 4246     		mov	r2, r8
 868              	.LVL88:
 241:C:/Users/²Ü¼ÒºÀ/.iotlink/sdk/IoT_LINK/iot_link/network/lwm2m/wakaama_lwm2m/wakaama-master/core\discover.c ****             uriLen = parentUriLen;
 869              		.loc 1 241 13 is_stmt 0 view .LVU298
 870 011c 09A8     		add	r0, sp, #36
 871              	.LVL89:
 241:C:/Users/²Ü¼ÒºÀ/.iotlink/sdk/IoT_LINK/iot_link/network/lwm2m/wakaama_lwm2m/wakaama-master/core\discover.c ****             uriLen = parentUriLen;
 872              		.loc 1 241 13 view .LVU299
 873 011e FFF7FEFF 		bl	memcpy
 874              	.LVL90:
 242:C:/Users/²Ü¼ÒºÀ/.iotlink/sdk/IoT_LINK/iot_link/network/lwm2m/wakaama_lwm2m/wakaama-master/core\discover.c ****         }
 875              		.loc 1 242 13 is_stmt 1 view .LVU300
 249:C:/Users/²Ü¼ÒºÀ/.iotlink/sdk/IoT_LINK/iot_link/network/lwm2m/wakaama_lwm2m/wakaama-master/core\discover.c ****         memcpy(uriStr + uriLen, LINK_URI_SEPARATOR, LINK_URI_SEPARATOR_SIZE);
 876              		.loc 1 249 9 view .LVU301
 249:C:/Users/²Ü¼ÒºÀ/.iotlink/sdk/IoT_LINK/iot_link/network/lwm2m/wakaama_lwm2m/wakaama-master/core\discover.c ****         memcpy(uriStr + uriLen, LINK_URI_SEPARATOR, LINK_URI_SEPARATOR_SIZE);
 877              		.loc 1 249 12 is_stmt 0 view .LVU302
 878 0122 B8F1120F 		cmp	r8, #18
 879 0126 3FF47FAF 		beq	.L67
 880              	.LVL91:
 881              	.L62:
 250:C:/Users/²Ü¼ÒºÀ/.iotlink/sdk/IoT_LINK/iot_link/network/lwm2m/wakaama_lwm2m/wakaama-master/core\discover.c ****         uriLen += LINK_URI_SEPARATOR_SIZE;
 882              		.loc 1 250 9 is_stmt 1 view .LVU303
 883 012a 09AA     		add	r2, sp, #36
 884 012c 2F23     		movs	r3, #47
 251:C:/Users/²Ü¼ÒºÀ/.iotlink/sdk/IoT_LINK/iot_link/network/lwm2m/wakaama_lwm2m/wakaama-master/core\discover.c **** 
 885              		.loc 1 251 16 is_stmt 0 view .LVU304
 886 012e 08F10104 		add	r4, r8, #1
 250:C:/Users/²Ü¼ÒºÀ/.iotlink/sdk/IoT_LINK/iot_link/network/lwm2m/wakaama_lwm2m/wakaama-master/core\discover.c ****         uriLen += LINK_URI_SEPARATOR_SIZE;
 887              		.loc 1 250 9 view .LVU305
 888 0132 02F80830 		strb	r3, [r2, r8]
 251:C:/Users/²Ü¼ÒºÀ/.iotlink/sdk/IoT_LINK/iot_link/network/lwm2m/wakaama_lwm2m/wakaama-master/core\discover.c **** 
 889              		.loc 1 251 9 is_stmt 1 view .LVU306
 890              	.LVL92:
 253:C:/Users/²Ü¼ÒºÀ/.iotlink/sdk/IoT_LINK/iot_link/network/lwm2m/wakaama_lwm2m/wakaama-master/core\discover.c ****         if (res <= 0) return -1;
 891              		.loc 1 253 9 view .LVU307
 253:C:/Users/²Ü¼ÒºÀ/.iotlink/sdk/IoT_LINK/iot_link/network/lwm2m/wakaama_lwm2m/wakaama-master/core\discover.c ****         if (res <= 0) return -1;
ARM GAS  C:\Users\²Ü¼ÒºÀ\AppData\Local\Temp\cc4SIRne.s 			page 25


 892              		.loc 1 253 15 is_stmt 0 view .LVU308
 893 0136 7888     		ldrh	r0, [r7, #2]
 894 0138 C8F11103 		rsb	r3, r8, #17
 895 013c 2244     		add	r2, r2, r4
 896 013e 0021     		movs	r1, #0
 897 0140 FFF7FEFF 		bl	utils_intToText
 898              	.LVL93:
 254:C:/Users/²Ü¼ÒºÀ/.iotlink/sdk/IoT_LINK/iot_link/network/lwm2m/wakaama_lwm2m/wakaama-master/core\discover.c ****         uriLen += res;
 899              		.loc 1 254 9 is_stmt 1 view .LVU309
 254:C:/Users/²Ü¼ÒºÀ/.iotlink/sdk/IoT_LINK/iot_link/network/lwm2m/wakaama_lwm2m/wakaama-master/core\discover.c ****         uriLen += res;
 900              		.loc 1 254 12 is_stmt 0 view .LVU310
 901 0144 0028     		cmp	r0, #0
 254:C:/Users/²Ü¼ÒºÀ/.iotlink/sdk/IoT_LINK/iot_link/network/lwm2m/wakaama_lwm2m/wakaama-master/core\discover.c ****         uriLen += res;
 902              		.loc 1 254 12 view .LVU311
 903 0146 7FF76FAF 		ble	.L67
 255:C:/Users/²Ü¼ÒºÀ/.iotlink/sdk/IoT_LINK/iot_link/network/lwm2m/wakaama_lwm2m/wakaama-master/core\discover.c **** 
 904              		.loc 1 255 9 is_stmt 1 view .LVU312
 257:C:/Users/²Ü¼ÒºÀ/.iotlink/sdk/IoT_LINK/iot_link/network/lwm2m/wakaama_lwm2m/wakaama-master/core\discover.c ****         uri.instanceId = tlvP->id;
 905              		.loc 1 257 9 is_stmt 0 view .LVU313
 906 014a DBF80410 		ldr	r1, [fp, #4]	@ unaligned
 255:C:/Users/²Ü¼ÒºÀ/.iotlink/sdk/IoT_LINK/iot_link/network/lwm2m/wakaama_lwm2m/wakaama-master/core\discover.c **** 
 907              		.loc 1 255 16 view .LVU314
 908 014e 00EB0408 		add	r8, r0, r4
 909              	.LVL94:
 257:C:/Users/²Ü¼ÒºÀ/.iotlink/sdk/IoT_LINK/iot_link/network/lwm2m/wakaama_lwm2m/wakaama-master/core\discover.c ****         uri.instanceId = tlvP->id;
 910              		.loc 1 257 9 is_stmt 1 view .LVU315
 911 0152 DBF80000 		ldr	r0, [fp]	@ unaligned
 912              	.LVL95:
 257:C:/Users/²Ü¼ÒºÀ/.iotlink/sdk/IoT_LINK/iot_link/network/lwm2m/wakaama_lwm2m/wakaama-master/core\discover.c ****         uri.instanceId = tlvP->id;
 913              		.loc 1 257 9 is_stmt 0 view .LVU316
 914 0156 07AB     		add	r3, sp, #28
 915 0158 03C3     		stmia	r3!, {r0, r1}
 258:C:/Users/²Ü¼ÒºÀ/.iotlink/sdk/IoT_LINK/iot_link/network/lwm2m/wakaama_lwm2m/wakaama-master/core\discover.c ****         uri.flag |= LWM2M_URI_FLAG_INSTANCE_ID;
 916              		.loc 1 258 9 is_stmt 1 view .LVU317
 258:C:/Users/²Ü¼ÒºÀ/.iotlink/sdk/IoT_LINK/iot_link/network/lwm2m/wakaama_lwm2m/wakaama-master/core\discover.c ****         uri.flag |= LWM2M_URI_FLAG_INSTANCE_ID;
 917              		.loc 1 258 24 is_stmt 0 view .LVU318
 918 015a 7B88     		ldrh	r3, [r7, #2]
 919 015c ADF82030 		strh	r3, [sp, #32]	@ movhi
 259:C:/Users/²Ü¼ÒºÀ/.iotlink/sdk/IoT_LINK/iot_link/network/lwm2m/wakaama_lwm2m/wakaama-master/core\discover.c **** 
 920              		.loc 1 259 9 is_stmt 1 view .LVU319
 259:C:/Users/²Ü¼ÒºÀ/.iotlink/sdk/IoT_LINK/iot_link/network/lwm2m/wakaama_lwm2m/wakaama-master/core\discover.c **** 
 921              		.loc 1 259 18 is_stmt 0 view .LVU320
 922 0160 9DF81C30 		ldrb	r3, [sp, #28]	@ zero_extendqisi2
 923 0164 43F00203 		orr	r3, r3, #2
 924 0168 8DF81C30 		strb	r3, [sp, #28]
 261:C:/Users/²Ü¼ÒºÀ/.iotlink/sdk/IoT_LINK/iot_link/network/lwm2m/wakaama_lwm2m/wakaama-master/core\discover.c ****         PRV_CONCAT_STR(buffer, bufferLen, head, LINK_ITEM_START, LINK_ITEM_START_SIZE);
 925              		.loc 1 261 9 is_stmt 1 view .LVU321
 262:C:/Users/²Ü¼ÒºÀ/.iotlink/sdk/IoT_LINK/iot_link/network/lwm2m/wakaama_lwm2m/wakaama-master/core\discover.c ****         PRV_CONCAT_STR(buffer, bufferLen, head, uriStr, uriLen);
 926              		.loc 1 262 9 view .LVU322
 927 016c 002E     		cmp	r6, #0
 928 016e 3FF45BAF 		beq	.L67
 262:C:/Users/²Ü¼ÒºÀ/.iotlink/sdk/IoT_LINK/iot_link/network/lwm2m/wakaama_lwm2m/wakaama-master/core\discover.c ****         PRV_CONCAT_STR(buffer, bufferLen, head, uriStr, uriLen);
 929              		.loc 1 262 9 discriminator 2 view .LVU323
 930 0172 3C23     		movs	r3, #60
 931 0174 2B70     		strb	r3, [r5]
 262:C:/Users/²Ü¼ÒºÀ/.iotlink/sdk/IoT_LINK/iot_link/network/lwm2m/wakaama_lwm2m/wakaama-master/core\discover.c ****         PRV_CONCAT_STR(buffer, bufferLen, head, uriStr, uriLen);
 932              		.loc 1 262 9 discriminator 2 view .LVU324
ARM GAS  C:\Users\²Ü¼ÒºÀ\AppData\Local\Temp\cc4SIRne.s 			page 26


 933              	.LVL96:
 262:C:/Users/²Ü¼ÒºÀ/.iotlink/sdk/IoT_LINK/iot_link/network/lwm2m/wakaama_lwm2m/wakaama-master/core\discover.c ****         PRV_CONCAT_STR(buffer, bufferLen, head, uriStr, uriLen);
 934              		.loc 1 262 87 discriminator 2 view .LVU325
 263:C:/Users/²Ü¼ÒºÀ/.iotlink/sdk/IoT_LINK/iot_link/network/lwm2m/wakaama_lwm2m/wakaama-master/core\discover.c ****         PRV_CONCAT_STR(buffer, bufferLen, head, LINK_ITEM_END, LINK_ITEM_END_SIZE);
 935              		.loc 1 263 9 discriminator 2 view .LVU326
 936 0176 731E     		subs	r3, r6, #1
 937 0178 4345     		cmp	r3, r8
 938 017a FFF455AF 		bcc	.L67
 263:C:/Users/²Ü¼ÒºÀ/.iotlink/sdk/IoT_LINK/iot_link/network/lwm2m/wakaama_lwm2m/wakaama-master/core\discover.c ****         PRV_CONCAT_STR(buffer, bufferLen, head, LINK_ITEM_END, LINK_ITEM_END_SIZE);
 939              		.loc 1 263 9 discriminator 2 view .LVU327
 940 017e 4246     		mov	r2, r8
 941 0180 09A9     		add	r1, sp, #36
 942 0182 681C     		adds	r0, r5, #1
 943 0184 FFF7FEFF 		bl	memcpy
 944              	.LVL97:
 263:C:/Users/²Ü¼ÒºÀ/.iotlink/sdk/IoT_LINK/iot_link/network/lwm2m/wakaama_lwm2m/wakaama-master/core\discover.c ****         PRV_CONCAT_STR(buffer, bufferLen, head, LINK_ITEM_END, LINK_ITEM_END_SIZE);
 945              		.loc 1 263 9 discriminator 2 view .LVU328
 946 0188 08F10103 		add	r3, r8, #1
 947              	.LVL98:
 263:C:/Users/²Ü¼ÒºÀ/.iotlink/sdk/IoT_LINK/iot_link/network/lwm2m/wakaama_lwm2m/wakaama-master/core\discover.c ****         PRV_CONCAT_STR(buffer, bufferLen, head, LINK_ITEM_END, LINK_ITEM_END_SIZE);
 948              		.loc 1 263 64 discriminator 2 view .LVU329
 264:C:/Users/²Ü¼ÒºÀ/.iotlink/sdk/IoT_LINK/iot_link/network/lwm2m/wakaama_lwm2m/wakaama-master/core\discover.c ****         if (serverP != NULL)
 949              		.loc 1 264 9 discriminator 2 view .LVU330
 950 018c F21A     		subs	r2, r6, r3
 951 018e 012A     		cmp	r2, #1
 952 0190 7FF64AAF 		bls	.L67
 264:C:/Users/²Ü¼ÒºÀ/.iotlink/sdk/IoT_LINK/iot_link/network/lwm2m/wakaama_lwm2m/wakaama-master/core\discover.c ****         if (serverP != NULL)
 953              		.loc 1 264 9 discriminator 2 view .LVU331
 954 0194 1D4A     		ldr	r2, .L88+4
 955 0196 1288     		ldrh	r2, [r2]	@ unaligned
 956 0198 EA52     		strh	r2, [r5, r3]	@ unaligned
 264:C:/Users/²Ü¼ÒºÀ/.iotlink/sdk/IoT_LINK/iot_link/network/lwm2m/wakaama_lwm2m/wakaama-master/core\discover.c ****         if (serverP != NULL)
 957              		.loc 1 264 9 discriminator 2 view .LVU332
 958 019a 08F10304 		add	r4, r8, #3
 959              	.LVL99:
 264:C:/Users/²Ü¼ÒºÀ/.iotlink/sdk/IoT_LINK/iot_link/network/lwm2m/wakaama_lwm2m/wakaama-master/core\discover.c ****         if (serverP != NULL)
 960              		.loc 1 264 83 discriminator 2 view .LVU333
 265:C:/Users/²Ü¼ÒºÀ/.iotlink/sdk/IoT_LINK/iot_link/network/lwm2m/wakaama_lwm2m/wakaama-master/core\discover.c ****         {
 961              		.loc 1 265 9 discriminator 2 view .LVU334
 265:C:/Users/²Ü¼ÒºÀ/.iotlink/sdk/IoT_LINK/iot_link/network/lwm2m/wakaama_lwm2m/wakaama-master/core\discover.c ****         {
 962              		.loc 1 265 12 is_stmt 0 discriminator 2 view .LVU335
 963 019e B9F1000F 		cmp	r9, #0
 964 01a2 0FD0     		beq	.L64
 267:C:/Users/²Ü¼ÒºÀ/.iotlink/sdk/IoT_LINK/iot_link/network/lwm2m/wakaama_lwm2m/wakaama-master/core\discover.c ****             if (res < 0) return -1;    // careful, 0 is valid
 965              		.loc 1 267 13 is_stmt 1 view .LVU336
 267:C:/Users/²Ü¼ÒºÀ/.iotlink/sdk/IoT_LINK/iot_link/network/lwm2m/wakaama_lwm2m/wakaama-master/core\discover.c ****             if (res < 0) return -1;    // careful, 0 is valid
 966              		.loc 1 267 19 is_stmt 0 view .LVU337
 967 01a4 08F10203 		add	r3, r8, #2
 968 01a8 CDE90053 		strd	r5, r3, [sp]
 969 01ac 0296     		str	r6, [sp, #8]
 970 01ae 0023     		movs	r3, #0
 971 01b0 4A46     		mov	r2, r9
 972 01b2 07A9     		add	r1, sp, #28
 973 01b4 5046     		mov	r0, r10
 974 01b6 FFF7FEFF 		bl	prv_serializeAttributes
 975              	.LVL100:
 268:C:/Users/²Ü¼ÒºÀ/.iotlink/sdk/IoT_LINK/iot_link/network/lwm2m/wakaama_lwm2m/wakaama-master/core\discover.c ****             if (res == 0) head = 0;    // rewind
ARM GAS  C:\Users\²Ü¼ÒºÀ\AppData\Local\Temp\cc4SIRne.s 			page 27


 976              		.loc 1 268 13 is_stmt 1 view .LVU338
 268:C:/Users/²Ü¼ÒºÀ/.iotlink/sdk/IoT_LINK/iot_link/network/lwm2m/wakaama_lwm2m/wakaama-master/core\discover.c ****             if (res == 0) head = 0;    // rewind
 977              		.loc 1 268 16 is_stmt 0 view .LVU339
 978 01ba 0028     		cmp	r0, #0
 268:C:/Users/²Ü¼ÒºÀ/.iotlink/sdk/IoT_LINK/iot_link/network/lwm2m/wakaama_lwm2m/wakaama-master/core\discover.c ****             if (res == 0) head = 0;    // rewind
 979              		.loc 1 268 16 view .LVU340
 980 01bc FFF634AF 		blt	.L67
 269:C:/Users/²Ü¼ÒºÀ/.iotlink/sdk/IoT_LINK/iot_link/network/lwm2m/wakaama_lwm2m/wakaama-master/core\discover.c ****             else head += res;
 981              		.loc 1 269 13 is_stmt 1 view .LVU341
 269:C:/Users/²Ü¼ÒºÀ/.iotlink/sdk/IoT_LINK/iot_link/network/lwm2m/wakaama_lwm2m/wakaama-master/core\discover.c ****             else head += res;
 982              		.loc 1 269 16 is_stmt 0 view .LVU342
 983 01c0 1FD0     		beq	.L69
 270:C:/Users/²Ü¼ÒºÀ/.iotlink/sdk/IoT_LINK/iot_link/network/lwm2m/wakaama_lwm2m/wakaama-master/core\discover.c ****         }
 984              		.loc 1 270 18 is_stmt 1 view .LVU343
 270:C:/Users/²Ü¼ÒºÀ/.iotlink/sdk/IoT_LINK/iot_link/network/lwm2m/wakaama_lwm2m/wakaama-master/core\discover.c ****         }
 985              		.loc 1 270 23 is_stmt 0 view .LVU344
 986 01c2 0444     		add	r4, r4, r0
 987              	.LVL101:
 988              	.L64:
 269:C:/Users/²Ü¼ÒºÀ/.iotlink/sdk/IoT_LINK/iot_link/network/lwm2m/wakaama_lwm2m/wakaama-master/core\discover.c ****             else head += res;
 989              		.loc 1 269 32 discriminator 1 view .LVU345
 990 01c4 4FF0000B 		mov	fp, #0
 991 01c8 17E0     		b	.L65
 992              	.LVL102:
 993              	.L66:
 274:C:/Users/²Ü¼ÒºÀ/.iotlink/sdk/IoT_LINK/iot_link/network/lwm2m/wakaama_lwm2m/wakaama-master/core\discover.c ****             if (res < 0) return -1;
 994              		.loc 1 274 13 is_stmt 1 view .LVU346
 274:C:/Users/²Ü¼ÒºÀ/.iotlink/sdk/IoT_LINK/iot_link/network/lwm2m/wakaama_lwm2m/wakaama-master/core\discover.c ****             if (res < 0) return -1;
 995              		.loc 1 274 19 is_stmt 0 view .LVU347
 996 01ca 331B     		subs	r3, r6, r4
 997 01cc 0493     		str	r3, [sp, #16]
 998 01ce 2B19     		adds	r3, r5, r4
 999 01d0 CDE90283 		strd	r8, r3, [sp, #8]
 1000 01d4 F968     		ldr	r1, [r7, #12]
 1001 01d6 09AB     		add	r3, sp, #36
 1002 01d8 0193     		str	r3, [sp, #4]
 1003 01da 07AB     		add	r3, sp, #28
 1004 01dc 0093     		str	r3, [sp]
 1005 01de 4A46     		mov	r2, r9
 1006 01e0 18EE103A 		vmov	r3, s16	@ int
 1007 01e4 01EB0B11 		add	r1, r1, fp, lsl #4
 1008 01e8 5046     		mov	r0, r10
 1009 01ea FFF709FF 		bl	prv_serializeLinkData
 1010              	.LVL103:
 275:C:/Users/²Ü¼ÒºÀ/.iotlink/sdk/IoT_LINK/iot_link/network/lwm2m/wakaama_lwm2m/wakaama-master/core\discover.c ****             head += res;
 1011              		.loc 1 275 13 is_stmt 1 view .LVU348
 275:C:/Users/²Ü¼ÒºÀ/.iotlink/sdk/IoT_LINK/iot_link/network/lwm2m/wakaama_lwm2m/wakaama-master/core\discover.c ****             head += res;
 1012              		.loc 1 275 16 is_stmt 0 view .LVU349
 1013 01ee 0028     		cmp	r0, #0
 275:C:/Users/²Ü¼ÒºÀ/.iotlink/sdk/IoT_LINK/iot_link/network/lwm2m/wakaama_lwm2m/wakaama-master/core\discover.c ****             head += res;
 1014              		.loc 1 275 16 view .LVU350
 1015 01f0 FFF61AAF 		blt	.L67
 276:C:/Users/²Ü¼ÒºÀ/.iotlink/sdk/IoT_LINK/iot_link/network/lwm2m/wakaama_lwm2m/wakaama-master/core\discover.c ****         }
 1016              		.loc 1 276 13 is_stmt 1 discriminator 2 view .LVU351
 276:C:/Users/²Ü¼ÒºÀ/.iotlink/sdk/IoT_LINK/iot_link/network/lwm2m/wakaama_lwm2m/wakaama-master/core\discover.c ****         }
 1017              		.loc 1 276 18 is_stmt 0 discriminator 2 view .LVU352
 1018 01f4 0444     		add	r4, r4, r0
ARM GAS  C:\Users\²Ü¼ÒºÀ\AppData\Local\Temp\cc4SIRne.s 			page 28


 1019              	.LVL104:
 272:C:/Users/²Ü¼ÒºÀ/.iotlink/sdk/IoT_LINK/iot_link/network/lwm2m/wakaama_lwm2m/wakaama-master/core\discover.c ****         {
 1020              		.loc 1 272 63 is_stmt 1 discriminator 2 view .LVU353
 272:C:/Users/²Ü¼ÒºÀ/.iotlink/sdk/IoT_LINK/iot_link/network/lwm2m/wakaama_lwm2m/wakaama-master/core\discover.c ****         {
 1021              		.loc 1 272 68 is_stmt 0 discriminator 2 view .LVU354
 1022 01f6 0BF1010B 		add	fp, fp, #1
 1023              	.LVL105:
 1024              	.L65:
 272:C:/Users/²Ü¼ÒºÀ/.iotlink/sdk/IoT_LINK/iot_link/network/lwm2m/wakaama_lwm2m/wakaama-master/core\discover.c ****         {
 1025              		.loc 1 272 25 is_stmt 1 discriminator 1 view .LVU355
 272:C:/Users/²Ü¼ÒºÀ/.iotlink/sdk/IoT_LINK/iot_link/network/lwm2m/wakaama_lwm2m/wakaama-master/core\discover.c ****         {
 1026              		.loc 1 272 9 is_stmt 0 discriminator 1 view .LVU356
 1027 01fa BB68     		ldr	r3, [r7, #8]
 1028 01fc 5B45     		cmp	r3, fp
 1029 01fe E4D8     		bhi	.L66
 1030 0200 75E7     		b	.L52
 1031              	.LVL106:
 1032              	.L69:
 269:C:/Users/²Ü¼ÒºÀ/.iotlink/sdk/IoT_LINK/iot_link/network/lwm2m/wakaama_lwm2m/wakaama-master/core\discover.c ****             else head += res;
 1033              		.loc 1 269 32 view .LVU357
 1034 0202 0446     		mov	r4, r0
 1035              	.LVL107:
 269:C:/Users/²Ü¼ÒºÀ/.iotlink/sdk/IoT_LINK/iot_link/network/lwm2m/wakaama_lwm2m/wakaama-master/core\discover.c ****             else head += res;
 1036              		.loc 1 269 32 view .LVU358
 1037 0204 DEE7     		b	.L64
 1038              	.L89:
 1039 0206 00BF     		.align	2
 1040              	.L88:
 1041 0208 00000000 		.word	.LC5
 1042 020c 07000000 		.word	.LC6
 1043              	.LBE2:
 1044              		.cfi_endproc
 1045              	.LFE6:
 1047              		.section	.rodata.discover_serialize.str1.1,"aMS",%progbits,1
 1048              	.LC7:
 1049 0000 5B25735D 		.ascii	"[%s][%u][%s] [%d][%s:%d] size: %d\015\012\015\012\000"
 1049      5B25755D 
 1049      5B25735D 
 1049      205B2564 
 1049      5D5B2573 
 1050              	.LC8:
 1051 0026 5B25735D 		.ascii	"[%s][%u][%s] [%s:%d] NULL\015\012\015\012\000"
 1051      5B25755D 
 1051      5B25735D 
 1051      205B2573 
 1051      3A25645D 
 1052              	.LC9:
 1053 0044 5B25735D 		.ascii	"[%s][%u][%s] [%s:%d] /%d\015\012\000"
 1053      5B25755D 
 1053      5B25735D 
 1053      205B2573 
 1053      3A25645D 
 1054              	.LC10:
 1055 005f 5B25735D 		.ascii	"[%s][%u][%s] /%d\015\012\000"
 1055      5B25755D 
 1055      5B25735D 
 1055      202F2564 
ARM GAS  C:\Users\²Ü¼ÒºÀ\AppData\Local\Temp\cc4SIRne.s 			page 29


 1055      0D0A00
 1056              	.LC11:
 1057 0072 5B25735D 		.ascii	"[%s][%u][%s] \015\012\015\012\000"
 1057      5B25755D 
 1057      5B25735D 
 1057      200D0A0D 
 1057      0A00
 1058              		.section	.text.discover_serialize,"ax",%progbits
 1059              		.align	1
 1060              		.global	discover_serialize
 1061              		.syntax unified
 1062              		.thumb
 1063              		.thumb_func
 1064              		.fpu fpv4-sp-d16
 1066              	discover_serialize:
 1067              	.LVL108:
 1068              	.LFB7:
 288:C:/Users/²Ü¼ÒºÀ/.iotlink/sdk/IoT_LINK/iot_link/network/lwm2m/wakaama_lwm2m/wakaama-master/core\discover.c **** 
 289:C:/Users/²Ü¼ÒºÀ/.iotlink/sdk/IoT_LINK/iot_link/network/lwm2m/wakaama_lwm2m/wakaama-master/core\discover.c **** int discover_serialize(lwm2m_context_t *contextP,
 290:C:/Users/²Ü¼ÒºÀ/.iotlink/sdk/IoT_LINK/iot_link/network/lwm2m/wakaama_lwm2m/wakaama-master/core\discover.c ****                        lwm2m_uri_t *uriP,
 291:C:/Users/²Ü¼ÒºÀ/.iotlink/sdk/IoT_LINK/iot_link/network/lwm2m/wakaama_lwm2m/wakaama-master/core\discover.c ****                        lwm2m_server_t *serverP,
 292:C:/Users/²Ü¼ÒºÀ/.iotlink/sdk/IoT_LINK/iot_link/network/lwm2m/wakaama_lwm2m/wakaama-master/core\discover.c ****                        int size,
 293:C:/Users/²Ü¼ÒºÀ/.iotlink/sdk/IoT_LINK/iot_link/network/lwm2m/wakaama_lwm2m/wakaama-master/core\discover.c ****                        lwm2m_data_t *dataP,
 294:C:/Users/²Ü¼ÒºÀ/.iotlink/sdk/IoT_LINK/iot_link/network/lwm2m/wakaama_lwm2m/wakaama-master/core\discover.c ****                        uint8_t **bufferP)
 295:C:/Users/²Ü¼ÒºÀ/.iotlink/sdk/IoT_LINK/iot_link/network/lwm2m/wakaama_lwm2m/wakaama-master/core\discover.c **** {
 1069              		.loc 1 295 1 is_stmt 1 view -0
 1070              		.cfi_startproc
 1071              		@ args = 8, pretend = 0, frame = 1104
 1072              		@ frame_needed = 0, uses_anonymous_args = 0
 296:C:/Users/²Ü¼ÒºÀ/.iotlink/sdk/IoT_LINK/iot_link/network/lwm2m/wakaama_lwm2m/wakaama-master/core\discover.c ****     uint8_t bufferLink[PRV_LINK_BUFFER_SIZE];
 1073              		.loc 1 296 5 view .LVU360
 297:C:/Users/²Ü¼ÒºÀ/.iotlink/sdk/IoT_LINK/iot_link/network/lwm2m/wakaama_lwm2m/wakaama-master/core\discover.c ****     uint8_t baseUriStr[URI_MAX_STRING_LEN];
 1074              		.loc 1 297 5 view .LVU361
 298:C:/Users/²Ü¼ÒºÀ/.iotlink/sdk/IoT_LINK/iot_link/network/lwm2m/wakaama_lwm2m/wakaama-master/core\discover.c ****     int baseUriLen;
 1075              		.loc 1 298 5 view .LVU362
 299:C:/Users/²Ü¼ÒºÀ/.iotlink/sdk/IoT_LINK/iot_link/network/lwm2m/wakaama_lwm2m/wakaama-master/core\discover.c ****     int index;
 1076              		.loc 1 299 5 view .LVU363
 300:C:/Users/²Ü¼ÒºÀ/.iotlink/sdk/IoT_LINK/iot_link/network/lwm2m/wakaama_lwm2m/wakaama-master/core\discover.c ****     size_t head;
 1077              		.loc 1 300 5 view .LVU364
 301:C:/Users/²Ü¼ÒºÀ/.iotlink/sdk/IoT_LINK/iot_link/network/lwm2m/wakaama_lwm2m/wakaama-master/core\discover.c ****     int res;
 1078              		.loc 1 301 5 view .LVU365
 302:C:/Users/²Ü¼ÒºÀ/.iotlink/sdk/IoT_LINK/iot_link/network/lwm2m/wakaama_lwm2m/wakaama-master/core\discover.c ****     lwm2m_uri_t parentUri;
 1079              		.loc 1 302 5 view .LVU366
 303:C:/Users/²Ü¼ÒºÀ/.iotlink/sdk/IoT_LINK/iot_link/network/lwm2m/wakaama_lwm2m/wakaama-master/core\discover.c ****     lwm2m_attributes_t *paramP;
 1080              		.loc 1 303 5 view .LVU367
 304:C:/Users/²Ü¼ÒºÀ/.iotlink/sdk/IoT_LINK/iot_link/network/lwm2m/wakaama_lwm2m/wakaama-master/core\discover.c ****     lwm2m_attributes_t mergedParam;
 1081              		.loc 1 304 5 view .LVU368
 305:C:/Users/²Ü¼ÒºÀ/.iotlink/sdk/IoT_LINK/iot_link/network/lwm2m/wakaama_lwm2m/wakaama-master/core\discover.c **** 
 306:C:/Users/²Ü¼ÒºÀ/.iotlink/sdk/IoT_LINK/iot_link/network/lwm2m/wakaama_lwm2m/wakaama-master/core\discover.c ****     LOG_ARG("size: %d", size);
 1082              		.loc 1 306 5 view .LVU369
 1083              		.loc 1 306 5 view .LVU370
 295:C:/Users/²Ü¼ÒºÀ/.iotlink/sdk/IoT_LINK/iot_link/network/lwm2m/wakaama_lwm2m/wakaama-master/core\discover.c ****     uint8_t bufferLink[PRV_LINK_BUFFER_SIZE];
 1084              		.loc 1 295 1 is_stmt 0 view .LVU371
 1085 0000 2DE9F04F 		push	{r4, r5, r6, r7, r8, r9, r10, fp, lr}
 1086              	.LCFI8:
 1087              		.cfi_def_cfa_offset 36
 1088              		.cfi_offset 4, -36
ARM GAS  C:\Users\²Ü¼ÒºÀ\AppData\Local\Temp\cc4SIRne.s 			page 30


 1089              		.cfi_offset 5, -32
 1090              		.cfi_offset 6, -28
 1091              		.cfi_offset 7, -24
 1092              		.cfi_offset 8, -20
 1093              		.cfi_offset 9, -16
 1094              		.cfi_offset 10, -12
 1095              		.cfi_offset 11, -8
 1096              		.cfi_offset 14, -4
 1097 0004 ADF26C4D 		subw	sp, sp, #1132
 1098              	.LCFI9:
 1099              		.cfi_def_cfa_offset 1168
 295:C:/Users/²Ü¼ÒºÀ/.iotlink/sdk/IoT_LINK/iot_link/network/lwm2m/wakaama_lwm2m/wakaama-master/core\discover.c ****     uint8_t bufferLink[PRV_LINK_BUFFER_SIZE];
 1100              		.loc 1 295 1 view .LVU372
 1101 0008 8046     		mov	r8, r0
 1102 000a 0E46     		mov	r6, r1
 1103 000c 1746     		mov	r7, r2
 1104 000e 9A46     		mov	r10, r3
 1105              		.loc 1 306 5 view .LVU373
 1106 0010 FFF7FEFF 		bl	link_log_level_get
 1107              	.LVL109:
 1108              		.loc 1 306 5 view .LVU374
 1109 0014 0128     		cmp	r0, #1
 1110 0016 1BD8     		bhi	.L91
 1111              		.loc 1 306 5 is_stmt 1 discriminator 1 view .LVU375
 1112              		.loc 1 306 5 discriminator 1 view .LVU376
 1113              		.loc 1 306 5 discriminator 1 view .LVU377
 1114 0018 0120     		movs	r0, #1
 1115 001a FFF7FEFF 		bl	link_log_level_name
 1116              	.LVL110:
 1117 001e 0446     		mov	r4, r0
 1118 0020 FFF7FEFF 		bl	osal_sys_time
 1119              	.LVL111:
 1120 0024 0790     		str	r0, [sp, #28]
 1121 0026 FFF7FEFF 		bl	lwm2m_gettime
 1122              	.LVL112:
 1123 002a 4FF49973 		mov	r3, #306
 1124 002e 0293     		str	r3, [sp, #8]
 1125 0030 B94B     		ldr	r3, .L139
 1126 0032 079A     		ldr	r2, [sp, #28]
 1127 0034 CDF80CA0 		str	r10, [sp, #12]
 1128 0038 CDE90003 		strd	r0, r3, [sp]
 1129 003c 2146     		mov	r1, r4
 1130 003e B74B     		ldr	r3, .L139+4
 1131 0040 B748     		ldr	r0, .L139+8
 1132 0042 FFF7FEFF 		bl	printf
 1133              	.LVL113:
 1134              		.loc 1 306 5 discriminator 1 view .LVU378
 1135 0046 B74B     		ldr	r3, .L139+12
 1136 0048 1B68     		ldr	r3, [r3]
 1137 004a 9868     		ldr	r0, [r3, #8]
 1138 004c FFF7FEFF 		bl	fflush
 1139              	.LVL114:
 1140              	.L91:
 1141              		.loc 1 306 5 discriminator 3 view .LVU379
 1142              		.loc 1 306 5 discriminator 3 view .LVU380
 1143              		.loc 1 306 5 discriminator 3 view .LVU381
 307:C:/Users/²Ü¼ÒºÀ/.iotlink/sdk/IoT_LINK/iot_link/network/lwm2m/wakaama_lwm2m/wakaama-master/core\discover.c ****     LOG_URI(uriP);
ARM GAS  C:\Users\²Ü¼ÒºÀ\AppData\Local\Temp\cc4SIRne.s 			page 31


 1144              		.loc 1 307 5 discriminator 3 view .LVU382
 1145 0050 002E     		cmp	r6, #0
 1146 0052 67D1     		bne	.L92
 1147              		.loc 1 307 5 discriminator 1 view .LVU383
 1148              		.loc 1 307 5 discriminator 1 view .LVU384
 1149 0054 FFF7FEFF 		bl	link_log_level_get
 1150              	.LVL115:
 1151 0058 0128     		cmp	r0, #1
 1152 005a 15D8     		bhi	.L94
 1153              		.loc 1 307 5 discriminator 3 view .LVU385
 1154              		.loc 1 307 5 discriminator 3 view .LVU386
 1155              		.loc 1 307 5 discriminator 3 view .LVU387
 1156 005c 0120     		movs	r0, #1
 1157 005e FFF7FEFF 		bl	link_log_level_name
 1158              	.LVL116:
 1159 0062 0446     		mov	r4, r0
 1160 0064 FFF7FEFF 		bl	osal_sys_time
 1161              	.LVL117:
 1162 0068 40F23313 		movw	r3, #307
 1163 006c 0193     		str	r3, [sp, #4]
 1164 006e AA4B     		ldr	r3, .L139
 1165 0070 0093     		str	r3, [sp]
 1166 0072 0246     		mov	r2, r0
 1167 0074 A94B     		ldr	r3, .L139+4
 1168 0076 AC48     		ldr	r0, .L139+16
 1169 0078 2146     		mov	r1, r4
 1170 007a FFF7FEFF 		bl	printf
 1171              	.LVL118:
 1172              		.loc 1 307 5 discriminator 3 view .LVU388
 1173              	.L136:
 1174              		.loc 1 307 5 discriminator 19 view .LVU389
 1175 007e A94B     		ldr	r3, .L139+12
 1176 0080 1B68     		ldr	r3, [r3]
 1177 0082 9868     		ldr	r0, [r3, #8]
 1178 0084 FFF7FEFF 		bl	fflush
 1179              	.LVL119:
 1180              	.L94:
 1181              		.loc 1 307 5 discriminator 21 view .LVU390
 1182              		.loc 1 307 5 discriminator 21 view .LVU391
 1183              		.loc 1 307 5 discriminator 21 view .LVU392
 1184              		.loc 1 307 18 discriminator 21 view .LVU393
 308:C:/Users/²Ü¼ÒºÀ/.iotlink/sdk/IoT_LINK/iot_link/network/lwm2m/wakaama_lwm2m/wakaama-master/core\discover.c **** 
 309:C:/Users/²Ü¼ÒºÀ/.iotlink/sdk/IoT_LINK/iot_link/network/lwm2m/wakaama_lwm2m/wakaama-master/core\discover.c ****     head = 0;
 1185              		.loc 1 309 5 discriminator 21 view .LVU394
 310:C:/Users/²Ü¼ÒºÀ/.iotlink/sdk/IoT_LINK/iot_link/network/lwm2m/wakaama_lwm2m/wakaama-master/core\discover.c ****     memset(&parentUri, 0, sizeof(lwm2m_uri_t));
 1186              		.loc 1 310 5 discriminator 21 view .LVU395
 311:C:/Users/²Ü¼ÒºÀ/.iotlink/sdk/IoT_LINK/iot_link/network/lwm2m/wakaama_lwm2m/wakaama-master/core\discover.c ****     parentUri.objectId = uriP->objectId;
 312:C:/Users/²Ü¼ÒºÀ/.iotlink/sdk/IoT_LINK/iot_link/network/lwm2m/wakaama_lwm2m/wakaama-master/core\discover.c ****     parentUri.flag = LWM2M_URI_FLAG_OBJECT_ID;
 313:C:/Users/²Ü¼ÒºÀ/.iotlink/sdk/IoT_LINK/iot_link/network/lwm2m/wakaama_lwm2m/wakaama-master/core\discover.c **** 
 314:C:/Users/²Ü¼ÒºÀ/.iotlink/sdk/IoT_LINK/iot_link/network/lwm2m/wakaama_lwm2m/wakaama-master/core\discover.c ****     if (LWM2M_URI_IS_SET_RESOURCE(uriP))
 1187              		.loc 1 314 9 is_stmt 0 discriminator 21 view .LVU396
 1188 0088 3478     		ldrb	r4, [r6]	@ zero_extendqisi2
 311:C:/Users/²Ü¼ÒºÀ/.iotlink/sdk/IoT_LINK/iot_link/network/lwm2m/wakaama_lwm2m/wakaama-master/core\discover.c ****     parentUri.objectId = uriP->objectId;
 1189              		.loc 1 311 30 discriminator 21 view .LVU397
 1190 008a 7088     		ldrh	r0, [r6, #2]
 310:C:/Users/²Ü¼ÒºÀ/.iotlink/sdk/IoT_LINK/iot_link/network/lwm2m/wakaama_lwm2m/wakaama-master/core\discover.c ****     memset(&parentUri, 0, sizeof(lwm2m_uri_t));
 1191              		.loc 1 310 5 discriminator 21 view .LVU398
ARM GAS  C:\Users\²Ü¼ÒºÀ\AppData\Local\Temp\cc4SIRne.s 			page 32


 1192 008c 0025     		movs	r5, #0
 312:C:/Users/²Ü¼ÒºÀ/.iotlink/sdk/IoT_LINK/iot_link/network/lwm2m/wakaama_lwm2m/wakaama-master/core\discover.c **** 
 1193              		.loc 1 312 20 discriminator 21 view .LVU399
 1194 008e 0423     		movs	r3, #4
 1195              		.loc 1 314 8 discriminator 21 view .LVU400
 1196 0090 14F0010B 		ands	fp, r4, #1
 310:C:/Users/²Ü¼ÒºÀ/.iotlink/sdk/IoT_LINK/iot_link/network/lwm2m/wakaama_lwm2m/wakaama-master/core\discover.c ****     memset(&parentUri, 0, sizeof(lwm2m_uri_t));
 1197              		.loc 1 310 5 discriminator 21 view .LVU401
 1198 0094 CDE90955 		strd	r5, r5, [sp, #36]
 311:C:/Users/²Ü¼ÒºÀ/.iotlink/sdk/IoT_LINK/iot_link/network/lwm2m/wakaama_lwm2m/wakaama-master/core\discover.c ****     parentUri.objectId = uriP->objectId;
 1199              		.loc 1 311 5 is_stmt 1 discriminator 21 view .LVU402
 1200 0098 0DF16809 		add	r9, sp, #104
 311:C:/Users/²Ü¼ÒºÀ/.iotlink/sdk/IoT_LINK/iot_link/network/lwm2m/wakaama_lwm2m/wakaama-master/core\discover.c ****     parentUri.objectId = uriP->objectId;
 1201              		.loc 1 311 24 is_stmt 0 discriminator 21 view .LVU403
 1202 009c ADF82600 		strh	r0, [sp, #38]	@ movhi
 312:C:/Users/²Ü¼ÒºÀ/.iotlink/sdk/IoT_LINK/iot_link/network/lwm2m/wakaama_lwm2m/wakaama-master/core\discover.c **** 
 1203              		.loc 1 312 5 is_stmt 1 discriminator 21 view .LVU404
 312:C:/Users/²Ü¼ÒºÀ/.iotlink/sdk/IoT_LINK/iot_link/network/lwm2m/wakaama_lwm2m/wakaama-master/core\discover.c **** 
 1204              		.loc 1 312 20 is_stmt 0 discriminator 21 view .LVU405
 1205 00a0 8DF82430 		strb	r3, [sp, #36]
 1206              		.loc 1 314 5 is_stmt 1 discriminator 21 view .LVU406
 1207              		.loc 1 314 8 is_stmt 0 discriminator 21 view .LVU407
 1208 00a4 00F0C880 		beq	.L103
 1209              	.LBB3:
 315:C:/Users/²Ü¼ÒºÀ/.iotlink/sdk/IoT_LINK/iot_link/network/lwm2m/wakaama_lwm2m/wakaama-master/core\discover.c ****     {
 316:C:/Users/²Ü¼ÒºÀ/.iotlink/sdk/IoT_LINK/iot_link/network/lwm2m/wakaama_lwm2m/wakaama-master/core\discover.c ****         lwm2m_uri_t tempUri;
 1210              		.loc 1 316 9 is_stmt 1 view .LVU408
 317:C:/Users/²Ü¼ÒºÀ/.iotlink/sdk/IoT_LINK/iot_link/network/lwm2m/wakaama_lwm2m/wakaama-master/core\discover.c ****         lwm2m_attributes_t *objParamP;
 1211              		.loc 1 317 9 view .LVU409
 318:C:/Users/²Ü¼ÒºÀ/.iotlink/sdk/IoT_LINK/iot_link/network/lwm2m/wakaama_lwm2m/wakaama-master/core\discover.c ****         lwm2m_attributes_t *instParamP;
 1212              		.loc 1 318 9 view .LVU410
 319:C:/Users/²Ü¼ÒºÀ/.iotlink/sdk/IoT_LINK/iot_link/network/lwm2m/wakaama_lwm2m/wakaama-master/core\discover.c **** 
 320:C:/Users/²Ü¼ÒºÀ/.iotlink/sdk/IoT_LINK/iot_link/network/lwm2m/wakaama_lwm2m/wakaama-master/core\discover.c ****         memset(&parentUri, 0, sizeof(lwm2m_uri_t));
 1213              		.loc 1 320 9 view .LVU411
 321:C:/Users/²Ü¼ÒºÀ/.iotlink/sdk/IoT_LINK/iot_link/network/lwm2m/wakaama_lwm2m/wakaama-master/core\discover.c ****         tempUri.objectId = uriP->objectId;
 1214              		.loc 1 321 26 is_stmt 0 view .LVU412
 1215 00a8 A9F80200 		strh	r0, [r9, #2]	@ movhi
 322:C:/Users/²Ü¼ÒºÀ/.iotlink/sdk/IoT_LINK/iot_link/network/lwm2m/wakaama_lwm2m/wakaama-master/core\discover.c ****         tempUri.flag = LWM2M_URI_FLAG_OBJECT_ID;
 323:C:/Users/²Ü¼ÒºÀ/.iotlink/sdk/IoT_LINK/iot_link/network/lwm2m/wakaama_lwm2m/wakaama-master/core\discover.c **** 
 324:C:/Users/²Ü¼ÒºÀ/.iotlink/sdk/IoT_LINK/iot_link/network/lwm2m/wakaama_lwm2m/wakaama-master/core\discover.c ****         // get object level attributes
 325:C:/Users/²Ü¼ÒºÀ/.iotlink/sdk/IoT_LINK/iot_link/network/lwm2m/wakaama_lwm2m/wakaama-master/core\discover.c ****         objParamP = prv_findAttributes(contextP, &tempUri, serverP);
 1216              		.loc 1 325 21 view .LVU413
 1217 00ac 4946     		mov	r1, r9
 1218 00ae 3A46     		mov	r2, r7
 1219 00b0 4046     		mov	r0, r8
 322:C:/Users/²Ü¼ÒºÀ/.iotlink/sdk/IoT_LINK/iot_link/network/lwm2m/wakaama_lwm2m/wakaama-master/core\discover.c ****         tempUri.flag = LWM2M_URI_FLAG_OBJECT_ID;
 1220              		.loc 1 322 22 view .LVU414
 1221 00b2 89F80030 		strb	r3, [r9]
 320:C:/Users/²Ü¼ÒºÀ/.iotlink/sdk/IoT_LINK/iot_link/network/lwm2m/wakaama_lwm2m/wakaama-master/core\discover.c ****         tempUri.objectId = uriP->objectId;
 1222              		.loc 1 320 9 view .LVU415
 1223 00b6 0995     		str	r5, [sp, #36]
 321:C:/Users/²Ü¼ÒºÀ/.iotlink/sdk/IoT_LINK/iot_link/network/lwm2m/wakaama_lwm2m/wakaama-master/core\discover.c ****         tempUri.objectId = uriP->objectId;
 1224              		.loc 1 321 9 is_stmt 1 view .LVU416
 322:C:/Users/²Ü¼ÒºÀ/.iotlink/sdk/IoT_LINK/iot_link/network/lwm2m/wakaama_lwm2m/wakaama-master/core\discover.c ****         tempUri.flag = LWM2M_URI_FLAG_OBJECT_ID;
 1225              		.loc 1 322 9 view .LVU417
 1226              		.loc 1 325 9 view .LVU418
 1227              		.loc 1 325 21 is_stmt 0 view .LVU419
ARM GAS  C:\Users\²Ü¼ÒºÀ\AppData\Local\Temp\cc4SIRne.s 			page 33


 1228 00b8 FFF7FEFF 		bl	prv_findAttributes
 1229              	.LVL120:
 326:C:/Users/²Ü¼ÒºÀ/.iotlink/sdk/IoT_LINK/iot_link/network/lwm2m/wakaama_lwm2m/wakaama-master/core\discover.c **** 
 327:C:/Users/²Ü¼ÒºÀ/.iotlink/sdk/IoT_LINK/iot_link/network/lwm2m/wakaama_lwm2m/wakaama-master/core\discover.c ****         // get object instance level attributes
 328:C:/Users/²Ü¼ÒºÀ/.iotlink/sdk/IoT_LINK/iot_link/network/lwm2m/wakaama_lwm2m/wakaama-master/core\discover.c ****         tempUri.instanceId = uriP->instanceId;
 1230              		.loc 1 328 28 view .LVU420
 1231 00bc B388     		ldrh	r3, [r6, #4]
 1232 00be A9F80430 		strh	r3, [r9, #4]	@ movhi
 329:C:/Users/²Ü¼ÒºÀ/.iotlink/sdk/IoT_LINK/iot_link/network/lwm2m/wakaama_lwm2m/wakaama-master/core\discover.c ****         tempUri.flag = LWM2M_URI_FLAG_INSTANCE_ID;
 330:C:/Users/²Ü¼ÒºÀ/.iotlink/sdk/IoT_LINK/iot_link/network/lwm2m/wakaama_lwm2m/wakaama-master/core\discover.c ****         instParamP = prv_findAttributes(contextP, &tempUri, serverP);
 1233              		.loc 1 330 22 view .LVU421
 1234 00c2 4946     		mov	r1, r9
 329:C:/Users/²Ü¼ÒºÀ/.iotlink/sdk/IoT_LINK/iot_link/network/lwm2m/wakaama_lwm2m/wakaama-master/core\discover.c ****         tempUri.flag = LWM2M_URI_FLAG_INSTANCE_ID;
 1235              		.loc 1 329 22 view .LVU422
 1236 00c4 0223     		movs	r3, #2
 325:C:/Users/²Ü¼ÒºÀ/.iotlink/sdk/IoT_LINK/iot_link/network/lwm2m/wakaama_lwm2m/wakaama-master/core\discover.c **** 
 1237              		.loc 1 325 21 view .LVU423
 1238 00c6 0446     		mov	r4, r0
 1239              	.LVL121:
 328:C:/Users/²Ü¼ÒºÀ/.iotlink/sdk/IoT_LINK/iot_link/network/lwm2m/wakaama_lwm2m/wakaama-master/core\discover.c ****         tempUri.flag = LWM2M_URI_FLAG_INSTANCE_ID;
 1240              		.loc 1 328 9 is_stmt 1 view .LVU424
 329:C:/Users/²Ü¼ÒºÀ/.iotlink/sdk/IoT_LINK/iot_link/network/lwm2m/wakaama_lwm2m/wakaama-master/core\discover.c ****         tempUri.flag = LWM2M_URI_FLAG_INSTANCE_ID;
 1241              		.loc 1 329 9 view .LVU425
 1242              		.loc 1 330 22 is_stmt 0 view .LVU426
 1243 00c8 3A46     		mov	r2, r7
 1244 00ca 4046     		mov	r0, r8
 1245              	.LVL122:
 329:C:/Users/²Ü¼ÒºÀ/.iotlink/sdk/IoT_LINK/iot_link/network/lwm2m/wakaama_lwm2m/wakaama-master/core\discover.c ****         tempUri.flag = LWM2M_URI_FLAG_INSTANCE_ID;
 1246              		.loc 1 329 22 view .LVU427
 1247 00cc 89F80030 		strb	r3, [r9]
 1248              		.loc 1 330 9 is_stmt 1 view .LVU428
 1249              		.loc 1 330 22 is_stmt 0 view .LVU429
 1250 00d0 FFF7FEFF 		bl	prv_findAttributes
 1251              	.LVL123:
 1252 00d4 8146     		mov	r9, r0
 1253              	.LVL124:
 331:C:/Users/²Ü¼ÒºÀ/.iotlink/sdk/IoT_LINK/iot_link/network/lwm2m/wakaama_lwm2m/wakaama-master/core\discover.c **** 
 332:C:/Users/²Ü¼ÒºÀ/.iotlink/sdk/IoT_LINK/iot_link/network/lwm2m/wakaama_lwm2m/wakaama-master/core\discover.c ****         if (objParamP != NULL)
 1254              		.loc 1 332 9 is_stmt 1 view .LVU430
 1255              		.loc 1 332 12 is_stmt 0 view .LVU431
 1256 00d6 002C     		cmp	r4, #0
 1257 00d8 00F08680 		beq	.L119
 333:C:/Users/²Ü¼ÒºÀ/.iotlink/sdk/IoT_LINK/iot_link/network/lwm2m/wakaama_lwm2m/wakaama-master/core\discover.c ****         {
 334:C:/Users/²Ü¼ÒºÀ/.iotlink/sdk/IoT_LINK/iot_link/network/lwm2m/wakaama_lwm2m/wakaama-master/core\discover.c ****             if (instParamP != NULL)
 1258              		.loc 1 334 13 is_stmt 1 view .LVU432
 1259              		.loc 1 334 16 is_stmt 0 view .LVU433
 1260 00dc 0028     		cmp	r0, #0
 1261 00de 00F08480 		beq	.L104
 335:C:/Users/²Ü¼ÒºÀ/.iotlink/sdk/IoT_LINK/iot_link/network/lwm2m/wakaama_lwm2m/wakaama-master/core\discover.c ****             {
 336:C:/Users/²Ü¼ÒºÀ/.iotlink/sdk/IoT_LINK/iot_link/network/lwm2m/wakaama_lwm2m/wakaama-master/core\discover.c ****                 memset(&mergedParam, 0, sizeof(lwm2m_attributes_t));
 1262              		.loc 1 336 17 is_stmt 1 view .LVU434
 1263 00e2 2822     		movs	r2, #40
 1264 00e4 2946     		mov	r1, r5
 1265 00e6 10A8     		add	r0, sp, #64
 1266              	.LVL125:
 1267              		.loc 1 336 17 is_stmt 0 view .LVU435
 1268 00e8 FFF7FEFF 		bl	memset
ARM GAS  C:\Users\²Ü¼ÒºÀ\AppData\Local\Temp\cc4SIRne.s 			page 34


 1269              	.LVL126:
 337:C:/Users/²Ü¼ÒºÀ/.iotlink/sdk/IoT_LINK/iot_link/network/lwm2m/wakaama_lwm2m/wakaama-master/core\discover.c ****                 mergedParam.toSet = objParamP->toSet | instParamP->toSet;
 1270              		.loc 1 337 17 is_stmt 1 view .LVU436
 1271              		.loc 1 337 35 is_stmt 0 view .LVU437
 1272 00ec 2378     		ldrb	r3, [r4]	@ zero_extendqisi2
 1273 00ee 99F80020 		ldrb	r2, [r9]	@ zero_extendqisi2
 1274 00f2 1343     		orrs	r3, r3, r2
 338:C:/Users/²Ü¼ÒºÀ/.iotlink/sdk/IoT_LINK/iot_link/network/lwm2m/wakaama_lwm2m/wakaama-master/core\discover.c ****                 if (mergedParam.toSet & LWM2M_ATTR_FLAG_MIN_PERIOD)
 1275              		.loc 1 338 20 view .LVU438
 1276 00f4 D807     		lsls	r0, r3, #31
 337:C:/Users/²Ü¼ÒºÀ/.iotlink/sdk/IoT_LINK/iot_link/network/lwm2m/wakaama_lwm2m/wakaama-master/core\discover.c ****                 mergedParam.toSet = objParamP->toSet | instParamP->toSet;
 1277              		.loc 1 337 35 view .LVU439
 1278 00f6 8DF84030 		strb	r3, [sp, #64]
 1279              		.loc 1 338 17 is_stmt 1 view .LVU440
 1280              		.loc 1 338 20 is_stmt 0 view .LVU441
 1281 00fa 07D5     		bpl	.L105
 339:C:/Users/²Ü¼ÒºÀ/.iotlink/sdk/IoT_LINK/iot_link/network/lwm2m/wakaama_lwm2m/wakaama-master/core\discover.c ****                 {
 340:C:/Users/²Ü¼ÒºÀ/.iotlink/sdk/IoT_LINK/iot_link/network/lwm2m/wakaama_lwm2m/wakaama-master/core\discover.c ****                     if (instParamP->toSet & LWM2M_ATTR_FLAG_MIN_PERIOD)
 1282              		.loc 1 340 21 is_stmt 1 view .LVU442
 1283              		.loc 1 340 24 is_stmt 0 view .LVU443
 1284 00fc 99F80020 		ldrb	r2, [r9]	@ zero_extendqisi2
 1285 0100 D107     		lsls	r1, r2, #31
 341:C:/Users/²Ü¼ÒºÀ/.iotlink/sdk/IoT_LINK/iot_link/network/lwm2m/wakaama_lwm2m/wakaama-master/core\discover.c ****                     {
 342:C:/Users/²Ü¼ÒºÀ/.iotlink/sdk/IoT_LINK/iot_link/network/lwm2m/wakaama_lwm2m/wakaama-master/core\discover.c ****                         mergedParam.minPeriod = instParamP->minPeriod;
 1286              		.loc 1 342 25 is_stmt 1 view .LVU444
 1287              		.loc 1 342 59 is_stmt 0 view .LVU445
 1288 0102 4CBF     		ite	mi
 1289 0104 D9F80420 		ldrmi	r2, [r9, #4]
 343:C:/Users/²Ü¼ÒºÀ/.iotlink/sdk/IoT_LINK/iot_link/network/lwm2m/wakaama_lwm2m/wakaama-master/core\discover.c ****                     }
 344:C:/Users/²Ü¼ÒºÀ/.iotlink/sdk/IoT_LINK/iot_link/network/lwm2m/wakaama_lwm2m/wakaama-master/core\discover.c ****                     else
 345:C:/Users/²Ü¼ÒºÀ/.iotlink/sdk/IoT_LINK/iot_link/network/lwm2m/wakaama_lwm2m/wakaama-master/core\discover.c ****                     {
 346:C:/Users/²Ü¼ÒºÀ/.iotlink/sdk/IoT_LINK/iot_link/network/lwm2m/wakaama_lwm2m/wakaama-master/core\discover.c ****                         mergedParam.minPeriod = objParamP->minPeriod;
 1290              		.loc 1 346 25 is_stmt 1 view .LVU446
 1291              		.loc 1 346 58 is_stmt 0 view .LVU447
 1292 0108 6268     		ldrpl	r2, [r4, #4]
 1293              		.loc 1 346 47 view .LVU448
 1294 010a 1192     		str	r2, [sp, #68]
 1295              	.L105:
 347:C:/Users/²Ü¼ÒºÀ/.iotlink/sdk/IoT_LINK/iot_link/network/lwm2m/wakaama_lwm2m/wakaama-master/core\discover.c ****                     }
 348:C:/Users/²Ü¼ÒºÀ/.iotlink/sdk/IoT_LINK/iot_link/network/lwm2m/wakaama_lwm2m/wakaama-master/core\discover.c ****                 }
 349:C:/Users/²Ü¼ÒºÀ/.iotlink/sdk/IoT_LINK/iot_link/network/lwm2m/wakaama_lwm2m/wakaama-master/core\discover.c ****                 if (mergedParam.toSet & LWM2M_ATTR_FLAG_MAX_PERIOD)
 1296              		.loc 1 349 17 is_stmt 1 view .LVU449
 1297              		.loc 1 349 20 is_stmt 0 view .LVU450
 1298 010c 9A07     		lsls	r2, r3, #30
 1299 010e 07D5     		bpl	.L120
 350:C:/Users/²Ü¼ÒºÀ/.iotlink/sdk/IoT_LINK/iot_link/network/lwm2m/wakaama_lwm2m/wakaama-master/core\discover.c ****                 {
 351:C:/Users/²Ü¼ÒºÀ/.iotlink/sdk/IoT_LINK/iot_link/network/lwm2m/wakaama_lwm2m/wakaama-master/core\discover.c ****                     if (instParamP->toSet & LWM2M_ATTR_FLAG_MAX_PERIOD)
 1300              		.loc 1 351 21 is_stmt 1 view .LVU451
 1301              		.loc 1 351 24 is_stmt 0 view .LVU452
 1302 0110 99F80030 		ldrb	r3, [r9]	@ zero_extendqisi2
 1303 0114 9B07     		lsls	r3, r3, #30
 352:C:/Users/²Ü¼ÒºÀ/.iotlink/sdk/IoT_LINK/iot_link/network/lwm2m/wakaama_lwm2m/wakaama-master/core\discover.c ****                     {
 353:C:/Users/²Ü¼ÒºÀ/.iotlink/sdk/IoT_LINK/iot_link/network/lwm2m/wakaama_lwm2m/wakaama-master/core\discover.c ****                         mergedParam.maxPeriod = instParamP->maxPeriod;
 1304              		.loc 1 353 25 is_stmt 1 view .LVU453
 1305              		.loc 1 353 59 is_stmt 0 view .LVU454
 1306 0116 4CBF     		ite	mi
 1307 0118 D9F80830 		ldrmi	r3, [r9, #8]
ARM GAS  C:\Users\²Ü¼ÒºÀ\AppData\Local\Temp\cc4SIRne.s 			page 35


 354:C:/Users/²Ü¼ÒºÀ/.iotlink/sdk/IoT_LINK/iot_link/network/lwm2m/wakaama_lwm2m/wakaama-master/core\discover.c ****                     }
 355:C:/Users/²Ü¼ÒºÀ/.iotlink/sdk/IoT_LINK/iot_link/network/lwm2m/wakaama_lwm2m/wakaama-master/core\discover.c ****                     else
 356:C:/Users/²Ü¼ÒºÀ/.iotlink/sdk/IoT_LINK/iot_link/network/lwm2m/wakaama_lwm2m/wakaama-master/core\discover.c ****                     {
 357:C:/Users/²Ü¼ÒºÀ/.iotlink/sdk/IoT_LINK/iot_link/network/lwm2m/wakaama_lwm2m/wakaama-master/core\discover.c ****                         mergedParam.maxPeriod = objParamP->maxPeriod;
 1308              		.loc 1 357 25 is_stmt 1 view .LVU455
 1309              		.loc 1 357 58 is_stmt 0 view .LVU456
 1310 011c A368     		ldrpl	r3, [r4, #8]
 1311              		.loc 1 357 47 view .LVU457
 1312 011e 1293     		str	r3, [sp, #72]
 1313              	.L120:
 358:C:/Users/²Ü¼ÒºÀ/.iotlink/sdk/IoT_LINK/iot_link/network/lwm2m/wakaama_lwm2m/wakaama-master/core\discover.c ****                     }
 359:C:/Users/²Ü¼ÒºÀ/.iotlink/sdk/IoT_LINK/iot_link/network/lwm2m/wakaama_lwm2m/wakaama-master/core\discover.c ****                 }
 360:C:/Users/²Ü¼ÒºÀ/.iotlink/sdk/IoT_LINK/iot_link/network/lwm2m/wakaama_lwm2m/wakaama-master/core\discover.c ****                 paramP = &mergedParam;
 1314              		.loc 1 360 24 view .LVU458
 1315 0120 10AC     		add	r4, sp, #64
 1316              	.LVL127:
 1317              		.loc 1 360 24 view .LVU459
 1318 0122 62E0     		b	.L104
 1319              	.LVL128:
 1320              	.L92:
 1321              		.loc 1 360 24 view .LVU460
 1322              	.LBE3:
 307:C:/Users/²Ü¼ÒºÀ/.iotlink/sdk/IoT_LINK/iot_link/network/lwm2m/wakaama_lwm2m/wakaama-master/core\discover.c **** 
 1323              		.loc 1 307 5 is_stmt 1 discriminator 2 view .LVU461
 307:C:/Users/²Ü¼ÒºÀ/.iotlink/sdk/IoT_LINK/iot_link/network/lwm2m/wakaama_lwm2m/wakaama-master/core\discover.c **** 
 1324              		.loc 1 307 5 discriminator 2 view .LVU462
 1325 0124 FFF7FEFF 		bl	link_log_level_get
 1326              	.LVL129:
 1327 0128 0128     		cmp	r0, #1
 1328 012a 17D8     		bhi	.L95
 307:C:/Users/²Ü¼ÒºÀ/.iotlink/sdk/IoT_LINK/iot_link/network/lwm2m/wakaama_lwm2m/wakaama-master/core\discover.c **** 
 1329              		.loc 1 307 5 discriminator 6 view .LVU463
 307:C:/Users/²Ü¼ÒºÀ/.iotlink/sdk/IoT_LINK/iot_link/network/lwm2m/wakaama_lwm2m/wakaama-master/core\discover.c **** 
 1330              		.loc 1 307 5 discriminator 6 view .LVU464
 307:C:/Users/²Ü¼ÒºÀ/.iotlink/sdk/IoT_LINK/iot_link/network/lwm2m/wakaama_lwm2m/wakaama-master/core\discover.c **** 
 1331              		.loc 1 307 5 discriminator 6 view .LVU465
 1332 012c 0120     		movs	r0, #1
 1333 012e FFF7FEFF 		bl	link_log_level_name
 1334              	.LVL130:
 1335 0132 0446     		mov	r4, r0
 1336 0134 FFF7FEFF 		bl	osal_sys_time
 1337              	.LVL131:
 1338 0138 7388     		ldrh	r3, [r6, #2]
 1339 013a 0293     		str	r3, [sp, #8]
 1340 013c 40F23313 		movw	r3, #307
 1341 0140 0193     		str	r3, [sp, #4]
 1342 0142 754B     		ldr	r3, .L139
 1343 0144 0093     		str	r3, [sp]
 1344 0146 0246     		mov	r2, r0
 1345 0148 744B     		ldr	r3, .L139+4
 1346 014a 7848     		ldr	r0, .L139+20
 1347 014c 2146     		mov	r1, r4
 1348 014e FFF7FEFF 		bl	printf
 1349              	.LVL132:
 307:C:/Users/²Ü¼ÒºÀ/.iotlink/sdk/IoT_LINK/iot_link/network/lwm2m/wakaama_lwm2m/wakaama-master/core\discover.c **** 
 1350              		.loc 1 307 5 discriminator 6 view .LVU466
 1351 0152 744B     		ldr	r3, .L139+12
ARM GAS  C:\Users\²Ü¼ÒºÀ\AppData\Local\Temp\cc4SIRne.s 			page 36


 1352 0154 1B68     		ldr	r3, [r3]
 1353 0156 9868     		ldr	r0, [r3, #8]
 1354 0158 FFF7FEFF 		bl	fflush
 1355              	.LVL133:
 1356              	.L95:
 307:C:/Users/²Ü¼ÒºÀ/.iotlink/sdk/IoT_LINK/iot_link/network/lwm2m/wakaama_lwm2m/wakaama-master/core\discover.c **** 
 1357              		.loc 1 307 5 discriminator 8 view .LVU467
 307:C:/Users/²Ü¼ÒºÀ/.iotlink/sdk/IoT_LINK/iot_link/network/lwm2m/wakaama_lwm2m/wakaama-master/core\discover.c **** 
 1358              		.loc 1 307 5 discriminator 8 view .LVU468
 307:C:/Users/²Ü¼ÒºÀ/.iotlink/sdk/IoT_LINK/iot_link/network/lwm2m/wakaama_lwm2m/wakaama-master/core\discover.c **** 
 1359              		.loc 1 307 5 discriminator 8 view .LVU469
 307:C:/Users/²Ü¼ÒºÀ/.iotlink/sdk/IoT_LINK/iot_link/network/lwm2m/wakaama_lwm2m/wakaama-master/core\discover.c **** 
 1360              		.loc 1 307 5 discriminator 8 view .LVU470
 1361 015c 3378     		ldrb	r3, [r6]	@ zero_extendqisi2
 1362 015e 9D07     		lsls	r5, r3, #30
 1363 0160 16D5     		bpl	.L97
 307:C:/Users/²Ü¼ÒºÀ/.iotlink/sdk/IoT_LINK/iot_link/network/lwm2m/wakaama_lwm2m/wakaama-master/core\discover.c **** 
 1364              		.loc 1 307 5 discriminator 9 view .LVU471
 307:C:/Users/²Ü¼ÒºÀ/.iotlink/sdk/IoT_LINK/iot_link/network/lwm2m/wakaama_lwm2m/wakaama-master/core\discover.c **** 
 1365              		.loc 1 307 5 discriminator 9 view .LVU472
 1366 0162 FFF7FEFF 		bl	link_log_level_get
 1367              	.LVL134:
 1368 0166 0128     		cmp	r0, #1
 1369 0168 12D8     		bhi	.L97
 307:C:/Users/²Ü¼ÒºÀ/.iotlink/sdk/IoT_LINK/iot_link/network/lwm2m/wakaama_lwm2m/wakaama-master/core\discover.c **** 
 1370              		.loc 1 307 5 discriminator 11 view .LVU473
 307:C:/Users/²Ü¼ÒºÀ/.iotlink/sdk/IoT_LINK/iot_link/network/lwm2m/wakaama_lwm2m/wakaama-master/core\discover.c **** 
 1371              		.loc 1 307 5 discriminator 11 view .LVU474
 307:C:/Users/²Ü¼ÒºÀ/.iotlink/sdk/IoT_LINK/iot_link/network/lwm2m/wakaama_lwm2m/wakaama-master/core\discover.c **** 
 1372              		.loc 1 307 5 discriminator 11 view .LVU475
 1373 016a 0120     		movs	r0, #1
 1374 016c FFF7FEFF 		bl	link_log_level_name
 1375              	.LVL135:
 1376 0170 0446     		mov	r4, r0
 1377 0172 FFF7FEFF 		bl	osal_sys_time
 1378              	.LVL136:
 1379 0176 B388     		ldrh	r3, [r6, #4]
 1380 0178 0093     		str	r3, [sp]
 1381 017a 0246     		mov	r2, r0
 1382 017c 674B     		ldr	r3, .L139+4
 1383 017e 6C48     		ldr	r0, .L139+24
 1384 0180 2146     		mov	r1, r4
 1385 0182 FFF7FEFF 		bl	printf
 1386              	.LVL137:
 307:C:/Users/²Ü¼ÒºÀ/.iotlink/sdk/IoT_LINK/iot_link/network/lwm2m/wakaama_lwm2m/wakaama-master/core\discover.c **** 
 1387              		.loc 1 307 5 discriminator 11 view .LVU476
 1388 0186 674B     		ldr	r3, .L139+12
 1389 0188 1B68     		ldr	r3, [r3]
 1390 018a 9868     		ldr	r0, [r3, #8]
 1391 018c FFF7FEFF 		bl	fflush
 1392              	.LVL138:
 1393              	.L97:
 307:C:/Users/²Ü¼ÒºÀ/.iotlink/sdk/IoT_LINK/iot_link/network/lwm2m/wakaama_lwm2m/wakaama-master/core\discover.c **** 
 1394              		.loc 1 307 5 discriminator 13 view .LVU477
 307:C:/Users/²Ü¼ÒºÀ/.iotlink/sdk/IoT_LINK/iot_link/network/lwm2m/wakaama_lwm2m/wakaama-master/core\discover.c **** 
 1395              		.loc 1 307 5 discriminator 13 view .LVU478
 307:C:/Users/²Ü¼ÒºÀ/.iotlink/sdk/IoT_LINK/iot_link/network/lwm2m/wakaama_lwm2m/wakaama-master/core\discover.c **** 
ARM GAS  C:\Users\²Ü¼ÒºÀ\AppData\Local\Temp\cc4SIRne.s 			page 37


 1396              		.loc 1 307 5 discriminator 13 view .LVU479
 307:C:/Users/²Ü¼ÒºÀ/.iotlink/sdk/IoT_LINK/iot_link/network/lwm2m/wakaama_lwm2m/wakaama-master/core\discover.c **** 
 1397              		.loc 1 307 5 discriminator 13 view .LVU480
 1398 0190 3378     		ldrb	r3, [r6]	@ zero_extendqisi2
 1399 0192 DC07     		lsls	r4, r3, #31
 1400 0194 16D5     		bpl	.L100
 307:C:/Users/²Ü¼ÒºÀ/.iotlink/sdk/IoT_LINK/iot_link/network/lwm2m/wakaama_lwm2m/wakaama-master/core\discover.c **** 
 1401              		.loc 1 307 5 discriminator 14 view .LVU481
 307:C:/Users/²Ü¼ÒºÀ/.iotlink/sdk/IoT_LINK/iot_link/network/lwm2m/wakaama_lwm2m/wakaama-master/core\discover.c **** 
 1402              		.loc 1 307 5 discriminator 14 view .LVU482
 1403 0196 FFF7FEFF 		bl	link_log_level_get
 1404              	.LVL139:
 1405 019a 0128     		cmp	r0, #1
 1406 019c 12D8     		bhi	.L100
 307:C:/Users/²Ü¼ÒºÀ/.iotlink/sdk/IoT_LINK/iot_link/network/lwm2m/wakaama_lwm2m/wakaama-master/core\discover.c **** 
 1407              		.loc 1 307 5 discriminator 16 view .LVU483
 307:C:/Users/²Ü¼ÒºÀ/.iotlink/sdk/IoT_LINK/iot_link/network/lwm2m/wakaama_lwm2m/wakaama-master/core\discover.c **** 
 1408              		.loc 1 307 5 discriminator 16 view .LVU484
 307:C:/Users/²Ü¼ÒºÀ/.iotlink/sdk/IoT_LINK/iot_link/network/lwm2m/wakaama_lwm2m/wakaama-master/core\discover.c **** 
 1409              		.loc 1 307 5 discriminator 16 view .LVU485
 1410 019e 0120     		movs	r0, #1
 1411 01a0 FFF7FEFF 		bl	link_log_level_name
 1412              	.LVL140:
 1413 01a4 0446     		mov	r4, r0
 1414 01a6 FFF7FEFF 		bl	osal_sys_time
 1415              	.LVL141:
 1416 01aa F388     		ldrh	r3, [r6, #6]
 1417 01ac 0093     		str	r3, [sp]
 1418 01ae 0246     		mov	r2, r0
 1419 01b0 5A4B     		ldr	r3, .L139+4
 1420 01b2 5F48     		ldr	r0, .L139+24
 1421 01b4 2146     		mov	r1, r4
 1422 01b6 FFF7FEFF 		bl	printf
 1423              	.LVL142:
 307:C:/Users/²Ü¼ÒºÀ/.iotlink/sdk/IoT_LINK/iot_link/network/lwm2m/wakaama_lwm2m/wakaama-master/core\discover.c **** 
 1424              		.loc 1 307 5 discriminator 16 view .LVU486
 1425 01ba 5A4B     		ldr	r3, .L139+12
 1426 01bc 1B68     		ldr	r3, [r3]
 1427 01be 9868     		ldr	r0, [r3, #8]
 1428 01c0 FFF7FEFF 		bl	fflush
 1429              	.LVL143:
 1430              	.L100:
 307:C:/Users/²Ü¼ÒºÀ/.iotlink/sdk/IoT_LINK/iot_link/network/lwm2m/wakaama_lwm2m/wakaama-master/core\discover.c **** 
 1431              		.loc 1 307 5 discriminator 18 view .LVU487
 307:C:/Users/²Ü¼ÒºÀ/.iotlink/sdk/IoT_LINK/iot_link/network/lwm2m/wakaama_lwm2m/wakaama-master/core\discover.c **** 
 1432              		.loc 1 307 5 discriminator 18 view .LVU488
 307:C:/Users/²Ü¼ÒºÀ/.iotlink/sdk/IoT_LINK/iot_link/network/lwm2m/wakaama_lwm2m/wakaama-master/core\discover.c **** 
 1433              		.loc 1 307 5 discriminator 18 view .LVU489
 307:C:/Users/²Ü¼ÒºÀ/.iotlink/sdk/IoT_LINK/iot_link/network/lwm2m/wakaama_lwm2m/wakaama-master/core\discover.c **** 
 1434              		.loc 1 307 5 discriminator 18 view .LVU490
 307:C:/Users/²Ü¼ÒºÀ/.iotlink/sdk/IoT_LINK/iot_link/network/lwm2m/wakaama_lwm2m/wakaama-master/core\discover.c **** 
 1435              		.loc 1 307 5 discriminator 18 view .LVU491
 1436 01c4 FFF7FEFF 		bl	link_log_level_get
 1437              	.LVL144:
 1438 01c8 0128     		cmp	r0, #1
 1439 01ca 3FF65DAF 		bhi	.L94
 307:C:/Users/²Ü¼ÒºÀ/.iotlink/sdk/IoT_LINK/iot_link/network/lwm2m/wakaama_lwm2m/wakaama-master/core\discover.c **** 
ARM GAS  C:\Users\²Ü¼ÒºÀ\AppData\Local\Temp\cc4SIRne.s 			page 38


 1440              		.loc 1 307 5 discriminator 19 view .LVU492
 307:C:/Users/²Ü¼ÒºÀ/.iotlink/sdk/IoT_LINK/iot_link/network/lwm2m/wakaama_lwm2m/wakaama-master/core\discover.c **** 
 1441              		.loc 1 307 5 discriminator 19 view .LVU493
 307:C:/Users/²Ü¼ÒºÀ/.iotlink/sdk/IoT_LINK/iot_link/network/lwm2m/wakaama_lwm2m/wakaama-master/core\discover.c **** 
 1442              		.loc 1 307 5 discriminator 19 view .LVU494
 1443 01ce 0120     		movs	r0, #1
 1444 01d0 FFF7FEFF 		bl	link_log_level_name
 1445              	.LVL145:
 1446 01d4 0446     		mov	r4, r0
 1447 01d6 FFF7FEFF 		bl	osal_sys_time
 1448              	.LVL146:
 1449 01da 504B     		ldr	r3, .L139+4
 1450 01dc 0246     		mov	r2, r0
 1451 01de 2146     		mov	r1, r4
 1452 01e0 5448     		ldr	r0, .L139+28
 1453 01e2 FFF7FEFF 		bl	printf
 1454              	.LVL147:
 1455 01e6 4AE7     		b	.L136
 1456              	.LVL148:
 1457              	.L119:
 1458              	.LBB4:
 330:C:/Users/²Ü¼ÒºÀ/.iotlink/sdk/IoT_LINK/iot_link/network/lwm2m/wakaama_lwm2m/wakaama-master/core\discover.c **** 
 1459              		.loc 1 330 22 is_stmt 0 view .LVU495
 1460 01e8 0446     		mov	r4, r0
 1461              	.LVL149:
 1462              	.L104:
 361:C:/Users/²Ü¼ÒºÀ/.iotlink/sdk/IoT_LINK/iot_link/network/lwm2m/wakaama_lwm2m/wakaama-master/core\discover.c ****             }
 362:C:/Users/²Ü¼ÒºÀ/.iotlink/sdk/IoT_LINK/iot_link/network/lwm2m/wakaama_lwm2m/wakaama-master/core\discover.c ****             else
 363:C:/Users/²Ü¼ÒºÀ/.iotlink/sdk/IoT_LINK/iot_link/network/lwm2m/wakaama_lwm2m/wakaama-master/core\discover.c ****             {
 364:C:/Users/²Ü¼ÒºÀ/.iotlink/sdk/IoT_LINK/iot_link/network/lwm2m/wakaama_lwm2m/wakaama-master/core\discover.c ****                 paramP = objParamP;
 365:C:/Users/²Ü¼ÒºÀ/.iotlink/sdk/IoT_LINK/iot_link/network/lwm2m/wakaama_lwm2m/wakaama-master/core\discover.c ****             }
 366:C:/Users/²Ü¼ÒºÀ/.iotlink/sdk/IoT_LINK/iot_link/network/lwm2m/wakaama_lwm2m/wakaama-master/core\discover.c ****         }
 367:C:/Users/²Ü¼ÒºÀ/.iotlink/sdk/IoT_LINK/iot_link/network/lwm2m/wakaama_lwm2m/wakaama-master/core\discover.c ****         else
 368:C:/Users/²Ü¼ÒºÀ/.iotlink/sdk/IoT_LINK/iot_link/network/lwm2m/wakaama_lwm2m/wakaama-master/core\discover.c ****         {
 369:C:/Users/²Ü¼ÒºÀ/.iotlink/sdk/IoT_LINK/iot_link/network/lwm2m/wakaama_lwm2m/wakaama-master/core\discover.c ****             paramP = instParamP;
 370:C:/Users/²Ü¼ÒºÀ/.iotlink/sdk/IoT_LINK/iot_link/network/lwm2m/wakaama_lwm2m/wakaama-master/core\discover.c ****         }
 371:C:/Users/²Ü¼ÒºÀ/.iotlink/sdk/IoT_LINK/iot_link/network/lwm2m/wakaama_lwm2m/wakaama-master/core\discover.c ****         uriP->flag &= ~LWM2M_URI_FLAG_RESOURCE_ID;
 1463              		.loc 1 371 9 is_stmt 1 discriminator 1 view .LVU496
 1464              		.loc 1 371 20 is_stmt 0 discriminator 1 view .LVU497
 1465 01ea 3378     		ldrb	r3, [r6]	@ zero_extendqisi2
 1466 01ec 23F00103 		bic	r3, r3, #1
 1467 01f0 3370     		strb	r3, [r6]
 1468              	.LBE4:
 309:C:/Users/²Ü¼ÒºÀ/.iotlink/sdk/IoT_LINK/iot_link/network/lwm2m/wakaama_lwm2m/wakaama-master/core\discover.c ****     memset(&parentUri, 0, sizeof(lwm2m_uri_t));
 1469              		.loc 1 309 10 discriminator 1 view .LVU498
 1470 01f2 0025     		movs	r5, #0
 1471              	.LVL150:
 1472              	.L108:
 372:C:/Users/²Ü¼ÒºÀ/.iotlink/sdk/IoT_LINK/iot_link/network/lwm2m/wakaama_lwm2m/wakaama-master/core\discover.c ****     }
 373:C:/Users/²Ü¼ÒºÀ/.iotlink/sdk/IoT_LINK/iot_link/network/lwm2m/wakaama_lwm2m/wakaama-master/core\discover.c ****     else
 374:C:/Users/²Ü¼ÒºÀ/.iotlink/sdk/IoT_LINK/iot_link/network/lwm2m/wakaama_lwm2m/wakaama-master/core\discover.c ****     {
 375:C:/Users/²Ü¼ÒºÀ/.iotlink/sdk/IoT_LINK/iot_link/network/lwm2m/wakaama_lwm2m/wakaama-master/core\discover.c ****         paramP = NULL;
 376:C:/Users/²Ü¼ÒºÀ/.iotlink/sdk/IoT_LINK/iot_link/network/lwm2m/wakaama_lwm2m/wakaama-master/core\discover.c **** 
 377:C:/Users/²Ü¼ÒºÀ/.iotlink/sdk/IoT_LINK/iot_link/network/lwm2m/wakaama_lwm2m/wakaama-master/core\discover.c ****         if (LWM2M_URI_IS_SET_INSTANCE(uriP))
 378:C:/Users/²Ü¼ÒºÀ/.iotlink/sdk/IoT_LINK/iot_link/network/lwm2m/wakaama_lwm2m/wakaama-master/core\discover.c ****         {
 379:C:/Users/²Ü¼ÒºÀ/.iotlink/sdk/IoT_LINK/iot_link/network/lwm2m/wakaama_lwm2m/wakaama-master/core\discover.c ****             PRV_CONCAT_STR(bufferLink, PRV_LINK_BUFFER_SIZE, head, LINK_ITEM_START, LINK_ITEM_START
 380:C:/Users/²Ü¼ÒºÀ/.iotlink/sdk/IoT_LINK/iot_link/network/lwm2m/wakaama_lwm2m/wakaama-master/core\discover.c ****             PRV_CONCAT_STR(bufferLink, PRV_LINK_BUFFER_SIZE, head, LINK_URI_SEPARATOR, LINK_URI_SEP
ARM GAS  C:\Users\²Ü¼ÒºÀ\AppData\Local\Temp\cc4SIRne.s 			page 39


 381:C:/Users/²Ü¼ÒºÀ/.iotlink/sdk/IoT_LINK/iot_link/network/lwm2m/wakaama_lwm2m/wakaama-master/core\discover.c ****             res = utils_intToText(uriP->objectId, bufferLink + head, PRV_LINK_BUFFER_SIZE - head);
 382:C:/Users/²Ü¼ÒºÀ/.iotlink/sdk/IoT_LINK/iot_link/network/lwm2m/wakaama_lwm2m/wakaama-master/core\discover.c ****             if (res <= 0) return -1;
 383:C:/Users/²Ü¼ÒºÀ/.iotlink/sdk/IoT_LINK/iot_link/network/lwm2m/wakaama_lwm2m/wakaama-master/core\discover.c ****             head += res;
 384:C:/Users/²Ü¼ÒºÀ/.iotlink/sdk/IoT_LINK/iot_link/network/lwm2m/wakaama_lwm2m/wakaama-master/core\discover.c ****             PRV_CONCAT_STR(bufferLink, PRV_LINK_BUFFER_SIZE, head, LINK_URI_SEPARATOR, LINK_URI_SEP
 385:C:/Users/²Ü¼ÒºÀ/.iotlink/sdk/IoT_LINK/iot_link/network/lwm2m/wakaama_lwm2m/wakaama-master/core\discover.c ****             res = utils_intToText(uriP->instanceId, bufferLink + head, PRV_LINK_BUFFER_SIZE - head)
 386:C:/Users/²Ü¼ÒºÀ/.iotlink/sdk/IoT_LINK/iot_link/network/lwm2m/wakaama_lwm2m/wakaama-master/core\discover.c ****             if (res <= 0) return -1;
 387:C:/Users/²Ü¼ÒºÀ/.iotlink/sdk/IoT_LINK/iot_link/network/lwm2m/wakaama_lwm2m/wakaama-master/core\discover.c ****             head += res;
 388:C:/Users/²Ü¼ÒºÀ/.iotlink/sdk/IoT_LINK/iot_link/network/lwm2m/wakaama_lwm2m/wakaama-master/core\discover.c ****             PRV_CONCAT_STR(bufferLink, PRV_LINK_BUFFER_SIZE, head, LINK_ITEM_END, LINK_ITEM_END_SIZ
 389:C:/Users/²Ü¼ÒºÀ/.iotlink/sdk/IoT_LINK/iot_link/network/lwm2m/wakaama_lwm2m/wakaama-master/core\discover.c ****             parentUri.instanceId = uriP->instanceId;
 390:C:/Users/²Ü¼ÒºÀ/.iotlink/sdk/IoT_LINK/iot_link/network/lwm2m/wakaama_lwm2m/wakaama-master/core\discover.c ****             parentUri.flag = LWM2M_URI_FLAG_INSTANCE_ID;
 391:C:/Users/²Ü¼ÒºÀ/.iotlink/sdk/IoT_LINK/iot_link/network/lwm2m/wakaama_lwm2m/wakaama-master/core\discover.c ****             if (serverP != NULL)
 392:C:/Users/²Ü¼ÒºÀ/.iotlink/sdk/IoT_LINK/iot_link/network/lwm2m/wakaama_lwm2m/wakaama-master/core\discover.c ****             {
 393:C:/Users/²Ü¼ÒºÀ/.iotlink/sdk/IoT_LINK/iot_link/network/lwm2m/wakaama_lwm2m/wakaama-master/core\discover.c ****                 res = prv_serializeAttributes(contextP, &parentUri, serverP, NULL, bufferLink, head
 394:C:/Users/²Ü¼ÒºÀ/.iotlink/sdk/IoT_LINK/iot_link/network/lwm2m/wakaama_lwm2m/wakaama-master/core\discover.c ****                 if (res < 0) return -1;    // careful, 0 is valid
 395:C:/Users/²Ü¼ÒºÀ/.iotlink/sdk/IoT_LINK/iot_link/network/lwm2m/wakaama_lwm2m/wakaama-master/core\discover.c ****             }
 396:C:/Users/²Ü¼ÒºÀ/.iotlink/sdk/IoT_LINK/iot_link/network/lwm2m/wakaama_lwm2m/wakaama-master/core\discover.c ****             else
 397:C:/Users/²Ü¼ÒºÀ/.iotlink/sdk/IoT_LINK/iot_link/network/lwm2m/wakaama_lwm2m/wakaama-master/core\discover.c ****             {
 398:C:/Users/²Ü¼ÒºÀ/.iotlink/sdk/IoT_LINK/iot_link/network/lwm2m/wakaama_lwm2m/wakaama-master/core\discover.c ****                 res = 0;
 399:C:/Users/²Ü¼ÒºÀ/.iotlink/sdk/IoT_LINK/iot_link/network/lwm2m/wakaama_lwm2m/wakaama-master/core\discover.c ****             }
 400:C:/Users/²Ü¼ÒºÀ/.iotlink/sdk/IoT_LINK/iot_link/network/lwm2m/wakaama_lwm2m/wakaama-master/core\discover.c ****             head += res;
 401:C:/Users/²Ü¼ÒºÀ/.iotlink/sdk/IoT_LINK/iot_link/network/lwm2m/wakaama_lwm2m/wakaama-master/core\discover.c ****         }
 402:C:/Users/²Ü¼ÒºÀ/.iotlink/sdk/IoT_LINK/iot_link/network/lwm2m/wakaama_lwm2m/wakaama-master/core\discover.c ****         else
 403:C:/Users/²Ü¼ÒºÀ/.iotlink/sdk/IoT_LINK/iot_link/network/lwm2m/wakaama_lwm2m/wakaama-master/core\discover.c ****         {
 404:C:/Users/²Ü¼ÒºÀ/.iotlink/sdk/IoT_LINK/iot_link/network/lwm2m/wakaama_lwm2m/wakaama-master/core\discover.c ****             PRV_CONCAT_STR(bufferLink, PRV_LINK_BUFFER_SIZE, head, LINK_ITEM_START, LINK_ITEM_START
 405:C:/Users/²Ü¼ÒºÀ/.iotlink/sdk/IoT_LINK/iot_link/network/lwm2m/wakaama_lwm2m/wakaama-master/core\discover.c ****             PRV_CONCAT_STR(bufferLink, PRV_LINK_BUFFER_SIZE, head, LINK_URI_SEPARATOR, LINK_URI_SEP
 406:C:/Users/²Ü¼ÒºÀ/.iotlink/sdk/IoT_LINK/iot_link/network/lwm2m/wakaama_lwm2m/wakaama-master/core\discover.c ****             res = utils_intToText(uriP->objectId, bufferLink + head, PRV_LINK_BUFFER_SIZE - head);
 407:C:/Users/²Ü¼ÒºÀ/.iotlink/sdk/IoT_LINK/iot_link/network/lwm2m/wakaama_lwm2m/wakaama-master/core\discover.c ****             if (res <= 0) return -1;
 408:C:/Users/²Ü¼ÒºÀ/.iotlink/sdk/IoT_LINK/iot_link/network/lwm2m/wakaama_lwm2m/wakaama-master/core\discover.c ****             head += res;
 409:C:/Users/²Ü¼ÒºÀ/.iotlink/sdk/IoT_LINK/iot_link/network/lwm2m/wakaama_lwm2m/wakaama-master/core\discover.c ****             PRV_CONCAT_STR(bufferLink, PRV_LINK_BUFFER_SIZE, head, LINK_ITEM_END, LINK_ITEM_END_SIZ
 410:C:/Users/²Ü¼ÒºÀ/.iotlink/sdk/IoT_LINK/iot_link/network/lwm2m/wakaama_lwm2m/wakaama-master/core\discover.c **** 
 411:C:/Users/²Ü¼ÒºÀ/.iotlink/sdk/IoT_LINK/iot_link/network/lwm2m/wakaama_lwm2m/wakaama-master/core\discover.c ****             if (serverP != NULL)
 412:C:/Users/²Ü¼ÒºÀ/.iotlink/sdk/IoT_LINK/iot_link/network/lwm2m/wakaama_lwm2m/wakaama-master/core\discover.c ****             {
 413:C:/Users/²Ü¼ÒºÀ/.iotlink/sdk/IoT_LINK/iot_link/network/lwm2m/wakaama_lwm2m/wakaama-master/core\discover.c ****                 res = prv_serializeAttributes(contextP, &parentUri, serverP, NULL, bufferLink, head
 414:C:/Users/²Ü¼ÒºÀ/.iotlink/sdk/IoT_LINK/iot_link/network/lwm2m/wakaama_lwm2m/wakaama-master/core\discover.c ****                 if (res < 0) return -1;    // careful, 0 is valid
 415:C:/Users/²Ü¼ÒºÀ/.iotlink/sdk/IoT_LINK/iot_link/network/lwm2m/wakaama_lwm2m/wakaama-master/core\discover.c ****                 head += res;
 416:C:/Users/²Ü¼ÒºÀ/.iotlink/sdk/IoT_LINK/iot_link/network/lwm2m/wakaama_lwm2m/wakaama-master/core\discover.c ****             }
 417:C:/Users/²Ü¼ÒºÀ/.iotlink/sdk/IoT_LINK/iot_link/network/lwm2m/wakaama_lwm2m/wakaama-master/core\discover.c ****         }
 418:C:/Users/²Ü¼ÒºÀ/.iotlink/sdk/IoT_LINK/iot_link/network/lwm2m/wakaama_lwm2m/wakaama-master/core\discover.c ****     }
 419:C:/Users/²Ü¼ÒºÀ/.iotlink/sdk/IoT_LINK/iot_link/network/lwm2m/wakaama_lwm2m/wakaama-master/core\discover.c **** 
 420:C:/Users/²Ü¼ÒºÀ/.iotlink/sdk/IoT_LINK/iot_link/network/lwm2m/wakaama_lwm2m/wakaama-master/core\discover.c ****     baseUriLen = uri_toString(uriP, baseUriStr, URI_MAX_STRING_LEN, NULL);
 1473              		.loc 1 420 5 is_stmt 1 view .LVU499
 1474              		.loc 1 420 18 is_stmt 0 view .LVU500
 1475 01f4 0DF12C0B 		add	fp, sp, #44
 1476 01f8 0023     		movs	r3, #0
 1477 01fa 1222     		movs	r2, #18
 1478 01fc 5946     		mov	r1, fp
 1479 01fe 3046     		mov	r0, r6
 1480 0200 FFF7FEFF 		bl	uri_toString
 1481              	.LVL151:
 421:C:/Users/²Ü¼ÒºÀ/.iotlink/sdk/IoT_LINK/iot_link/network/lwm2m/wakaama_lwm2m/wakaama-master/core\discover.c ****     if (baseUriLen < 0) return -1;
 1482              		.loc 1 421 5 is_stmt 1 view .LVU501
 1483              		.loc 1 421 8 is_stmt 0 view .LVU502
 1484 0204 0028     		cmp	r0, #0
 1485              		.loc 1 421 8 view .LVU503
 1486 0206 29DB     		blt	.L112
 422:C:/Users/²Ü¼ÒºÀ/.iotlink/sdk/IoT_LINK/iot_link/network/lwm2m/wakaama_lwm2m/wakaama-master/core\discover.c ****     baseUriLen -= 1;
 1487              		.loc 1 422 5 is_stmt 1 view .LVU504
ARM GAS  C:\Users\²Ü¼ÒºÀ\AppData\Local\Temp\cc4SIRne.s 			page 40


 1488              		.loc 1 422 16 is_stmt 0 view .LVU505
 1489 0208 431E     		subs	r3, r0, #1
 1490 020a 0793     		str	r3, [sp, #28]
 1491              	.LVL152:
 423:C:/Users/²Ü¼ÒºÀ/.iotlink/sdk/IoT_LINK/iot_link/network/lwm2m/wakaama_lwm2m/wakaama-master/core\discover.c **** 
 424:C:/Users/²Ü¼ÒºÀ/.iotlink/sdk/IoT_LINK/iot_link/network/lwm2m/wakaama_lwm2m/wakaama-master/core\discover.c ****     for (index = 0; index < size && head < PRV_LINK_BUFFER_SIZE; index++)
 1492              		.loc 1 424 5 is_stmt 1 view .LVU506
 1493              		.loc 1 424 16 is_stmt 0 view .LVU507
 1494 020c 4FF00009 		mov	r9, #0
 1495              	.LVL153:
 1496              	.L114:
 1497              		.loc 1 424 21 is_stmt 1 discriminator 1 view .LVU508
 1498              		.loc 1 424 5 is_stmt 0 discriminator 1 view .LVU509
 1499 0210 D145     		cmp	r9, r10
 1500 0212 80F2AD80 		bge	.L115
 1501              		.loc 1 424 34 discriminator 3 view .LVU510
 1502 0216 B5F5806F 		cmp	r5, #1024
 1503 021a C0F08F80 		bcc	.L116
 1504              	.L117:
 425:C:/Users/²Ü¼ÒºÀ/.iotlink/sdk/IoT_LINK/iot_link/network/lwm2m/wakaama_lwm2m/wakaama-master/core\discover.c ****     {
 426:C:/Users/²Ü¼ÒºÀ/.iotlink/sdk/IoT_LINK/iot_link/network/lwm2m/wakaama_lwm2m/wakaama-master/core\discover.c ****         res = prv_serializeLinkData(contextP, dataP + index, serverP, paramP, uriP, baseUriStr, bas
 427:C:/Users/²Ü¼ÒºÀ/.iotlink/sdk/IoT_LINK/iot_link/network/lwm2m/wakaama_lwm2m/wakaama-master/core\discover.c ****         if (res < 0) return -1;
 428:C:/Users/²Ü¼ÒºÀ/.iotlink/sdk/IoT_LINK/iot_link/network/lwm2m/wakaama_lwm2m/wakaama-master/core\discover.c ****         head += res;
 429:C:/Users/²Ü¼ÒºÀ/.iotlink/sdk/IoT_LINK/iot_link/network/lwm2m/wakaama_lwm2m/wakaama-master/core\discover.c ****     }
 430:C:/Users/²Ü¼ÒºÀ/.iotlink/sdk/IoT_LINK/iot_link/network/lwm2m/wakaama_lwm2m/wakaama-master/core\discover.c **** 
 431:C:/Users/²Ü¼ÒºÀ/.iotlink/sdk/IoT_LINK/iot_link/network/lwm2m/wakaama_lwm2m/wakaama-master/core\discover.c ****     if (head > 0)
 432:C:/Users/²Ü¼ÒºÀ/.iotlink/sdk/IoT_LINK/iot_link/network/lwm2m/wakaama_lwm2m/wakaama-master/core\discover.c ****     {
 433:C:/Users/²Ü¼ÒºÀ/.iotlink/sdk/IoT_LINK/iot_link/network/lwm2m/wakaama_lwm2m/wakaama-master/core\discover.c ****         head -= 1;
 1505              		.loc 1 433 9 is_stmt 1 view .LVU511
 1506              		.loc 1 433 14 is_stmt 0 view .LVU512
 1507 021e 013D     		subs	r5, r5, #1
 1508              	.LVL154:
 434:C:/Users/²Ü¼ÒºÀ/.iotlink/sdk/IoT_LINK/iot_link/network/lwm2m/wakaama_lwm2m/wakaama-master/core\discover.c **** 
 435:C:/Users/²Ü¼ÒºÀ/.iotlink/sdk/IoT_LINK/iot_link/network/lwm2m/wakaama_lwm2m/wakaama-master/core\discover.c ****         *bufferP = (uint8_t *)lwm2m_malloc(head);
 1509              		.loc 1 435 9 is_stmt 1 view .LVU513
 1510              		.loc 1 435 31 is_stmt 0 view .LVU514
 1511 0220 2846     		mov	r0, r5
 1512 0222 FFF7FEFF 		bl	lwm2m_malloc
 1513              	.LVL155:
 1514              		.loc 1 435 18 view .LVU515
 1515 0226 DDF89424 		ldr	r2, [sp, #1172]
 1516 022a 1060     		str	r0, [r2]
 436:C:/Users/²Ü¼ÒºÀ/.iotlink/sdk/IoT_LINK/iot_link/network/lwm2m/wakaama_lwm2m/wakaama-master/core\discover.c ****         if (*bufferP == NULL) return 0;
 1517              		.loc 1 436 9 is_stmt 1 view .LVU516
 1518              		.loc 1 436 12 is_stmt 0 view .LVU517
 1519 022c C0B1     		cbz	r0, .L90
 437:C:/Users/²Ü¼ÒºÀ/.iotlink/sdk/IoT_LINK/iot_link/network/lwm2m/wakaama_lwm2m/wakaama-master/core\discover.c ****         memcpy(*bufferP, bufferLink, head);
 1520              		.loc 1 437 9 is_stmt 1 view .LVU518
 1521 022e 2A46     		mov	r2, r5
 1522 0230 1AA9     		add	r1, sp, #104
 1523 0232 FFF7FEFF 		bl	memcpy
 1524              	.LVL156:
 1525 0236 9EE0     		b	.L118
 1526              	.LVL157:
 1527              	.L103:
 375:C:/Users/²Ü¼ÒºÀ/.iotlink/sdk/IoT_LINK/iot_link/network/lwm2m/wakaama_lwm2m/wakaama-master/core\discover.c **** 
 1528              		.loc 1 375 9 view .LVU519
ARM GAS  C:\Users\²Ü¼ÒºÀ\AppData\Local\Temp\cc4SIRne.s 			page 41


 377:C:/Users/²Ü¼ÒºÀ/.iotlink/sdk/IoT_LINK/iot_link/network/lwm2m/wakaama_lwm2m/wakaama-master/core\discover.c ****         {
 1529              		.loc 1 377 9 view .LVU520
 1530 0238 42F63C73 		movw	r3, #12092
 377:C:/Users/²Ü¼ÒºÀ/.iotlink/sdk/IoT_LINK/iot_link/network/lwm2m/wakaama_lwm2m/wakaama-master/core\discover.c ****         {
 1531              		.loc 1 377 12 is_stmt 0 view .LVU521
 1532 023c 14F00204 		ands	r4, r4, #2
 379:C:/Users/²Ü¼ÒºÀ/.iotlink/sdk/IoT_LINK/iot_link/network/lwm2m/wakaama_lwm2m/wakaama-master/core\discover.c ****             PRV_CONCAT_STR(bufferLink, PRV_LINK_BUFFER_SIZE, head, LINK_URI_SEPARATOR, LINK_URI_SEP
 1533              		.loc 1 379 13 view .LVU522
 1534 0240 A9F80030 		strh	r3, [r9]	@ movhi
 380:C:/Users/²Ü¼ÒºÀ/.iotlink/sdk/IoT_LINK/iot_link/network/lwm2m/wakaama_lwm2m/wakaama-master/core\discover.c ****             res = utils_intToText(uriP->objectId, bufferLink + head, PRV_LINK_BUFFER_SIZE - head);
 1535              		.loc 1 380 13 is_stmt 1 view .LVU523
 1536              	.LVL158:
 380:C:/Users/²Ü¼ÒºÀ/.iotlink/sdk/IoT_LINK/iot_link/network/lwm2m/wakaama_lwm2m/wakaama-master/core\discover.c ****             res = utils_intToText(uriP->objectId, bufferLink + head, PRV_LINK_BUFFER_SIZE - head);
 1537              		.loc 1 380 112 view .LVU524
 381:C:/Users/²Ü¼ÒºÀ/.iotlink/sdk/IoT_LINK/iot_link/network/lwm2m/wakaama_lwm2m/wakaama-master/core\discover.c ****             if (res <= 0) return -1;
 1538              		.loc 1 381 13 view .LVU525
 1539 0244 80B2     		uxth	r0, r0
 1540 0246 4FF00001 		mov	r1, #0
 381:C:/Users/²Ü¼ÒºÀ/.iotlink/sdk/IoT_LINK/iot_link/network/lwm2m/wakaama_lwm2m/wakaama-master/core\discover.c ****             if (res <= 0) return -1;
 1541              		.loc 1 381 19 is_stmt 0 view .LVU526
 1542 024a 40F2FE33 		movw	r3, #1022
 1543 024e 0DF16A02 		add	r2, sp, #106
 377:C:/Users/²Ü¼ÒºÀ/.iotlink/sdk/IoT_LINK/iot_link/network/lwm2m/wakaama_lwm2m/wakaama-master/core\discover.c ****         {
 1544              		.loc 1 377 12 view .LVU527
 1545 0252 3FD0     		beq	.L109
 379:C:/Users/²Ü¼ÒºÀ/.iotlink/sdk/IoT_LINK/iot_link/network/lwm2m/wakaama_lwm2m/wakaama-master/core\discover.c ****             PRV_CONCAT_STR(bufferLink, PRV_LINK_BUFFER_SIZE, head, LINK_URI_SEPARATOR, LINK_URI_SEP
 1546              		.loc 1 379 13 is_stmt 1 discriminator 2 view .LVU528
 379:C:/Users/²Ü¼ÒºÀ/.iotlink/sdk/IoT_LINK/iot_link/network/lwm2m/wakaama_lwm2m/wakaama-master/core\discover.c ****             PRV_CONCAT_STR(bufferLink, PRV_LINK_BUFFER_SIZE, head, LINK_URI_SEPARATOR, LINK_URI_SEP
 1547              		.loc 1 379 13 discriminator 2 view .LVU529
 379:C:/Users/²Ü¼ÒºÀ/.iotlink/sdk/IoT_LINK/iot_link/network/lwm2m/wakaama_lwm2m/wakaama-master/core\discover.c ****             PRV_CONCAT_STR(bufferLink, PRV_LINK_BUFFER_SIZE, head, LINK_URI_SEPARATOR, LINK_URI_SEP
 1548              		.loc 1 379 13 discriminator 2 view .LVU530
 1549              	.LVL159:
 379:C:/Users/²Ü¼ÒºÀ/.iotlink/sdk/IoT_LINK/iot_link/network/lwm2m/wakaama_lwm2m/wakaama-master/core\discover.c ****             PRV_CONCAT_STR(bufferLink, PRV_LINK_BUFFER_SIZE, head, LINK_URI_SEPARATOR, LINK_URI_SEP
 1550              		.loc 1 379 106 discriminator 2 view .LVU531
 380:C:/Users/²Ü¼ÒºÀ/.iotlink/sdk/IoT_LINK/iot_link/network/lwm2m/wakaama_lwm2m/wakaama-master/core\discover.c ****             res = utils_intToText(uriP->objectId, bufferLink + head, PRV_LINK_BUFFER_SIZE - head);
 1551              		.loc 1 380 13 discriminator 2 view .LVU532
 380:C:/Users/²Ü¼ÒºÀ/.iotlink/sdk/IoT_LINK/iot_link/network/lwm2m/wakaama_lwm2m/wakaama-master/core\discover.c ****             res = utils_intToText(uriP->objectId, bufferLink + head, PRV_LINK_BUFFER_SIZE - head);
 1552              		.loc 1 380 13 discriminator 2 view .LVU533
 381:C:/Users/²Ü¼ÒºÀ/.iotlink/sdk/IoT_LINK/iot_link/network/lwm2m/wakaama_lwm2m/wakaama-master/core\discover.c ****             if (res <= 0) return -1;
 1553              		.loc 1 381 19 is_stmt 0 discriminator 2 view .LVU534
 1554 0254 FFF7FEFF 		bl	utils_intToText
 1555              	.LVL160:
 382:C:/Users/²Ü¼ÒºÀ/.iotlink/sdk/IoT_LINK/iot_link/network/lwm2m/wakaama_lwm2m/wakaama-master/core\discover.c ****             head += res;
 1556              		.loc 1 382 13 is_stmt 1 discriminator 2 view .LVU535
 382:C:/Users/²Ü¼ÒºÀ/.iotlink/sdk/IoT_LINK/iot_link/network/lwm2m/wakaama_lwm2m/wakaama-master/core\discover.c ****             head += res;
 1557              		.loc 1 382 16 is_stmt 0 discriminator 2 view .LVU536
 1558 0258 0028     		cmp	r0, #0
 382:C:/Users/²Ü¼ÒºÀ/.iotlink/sdk/IoT_LINK/iot_link/network/lwm2m/wakaama_lwm2m/wakaama-master/core\discover.c ****             head += res;
 1559              		.loc 1 382 16 discriminator 2 view .LVU537
 1560 025a 05DC     		bgt	.L110
 1561              	.LVL161:
 1562              	.L112:
 382:C:/Users/²Ü¼ÒºÀ/.iotlink/sdk/IoT_LINK/iot_link/network/lwm2m/wakaama_lwm2m/wakaama-master/core\discover.c ****             head += res;
 1563              		.loc 1 382 34 view .LVU538
 1564 025c 4FF0FF30 		mov	r0, #-1
 1565              	.L90:
 438:C:/Users/²Ü¼ÒºÀ/.iotlink/sdk/IoT_LINK/iot_link/network/lwm2m/wakaama_lwm2m/wakaama-master/core\discover.c ****     }
ARM GAS  C:\Users\²Ü¼ÒºÀ\AppData\Local\Temp\cc4SIRne.s 			page 42


 439:C:/Users/²Ü¼ÒºÀ/.iotlink/sdk/IoT_LINK/iot_link/network/lwm2m/wakaama_lwm2m/wakaama-master/core\discover.c **** 
 440:C:/Users/²Ü¼ÒºÀ/.iotlink/sdk/IoT_LINK/iot_link/network/lwm2m/wakaama_lwm2m/wakaama-master/core\discover.c ****     return (int)head;
 441:C:/Users/²Ü¼ÒºÀ/.iotlink/sdk/IoT_LINK/iot_link/network/lwm2m/wakaama_lwm2m/wakaama-master/core\discover.c **** }
 1566              		.loc 1 441 1 view .LVU539
 1567 0260 0DF26C4D 		addw	sp, sp, #1132
 1568              	.LCFI10:
 1569              		.cfi_remember_state
 1570              		.cfi_def_cfa_offset 36
 1571              		@ sp needed
 1572 0264 BDE8F08F 		pop	{r4, r5, r6, r7, r8, r9, r10, fp, pc}
 1573              	.LVL162:
 1574              	.L110:
 1575              	.LCFI11:
 1576              		.cfi_restore_state
 383:C:/Users/²Ü¼ÒºÀ/.iotlink/sdk/IoT_LINK/iot_link/network/lwm2m/wakaama_lwm2m/wakaama-master/core\discover.c ****             PRV_CONCAT_STR(bufferLink, PRV_LINK_BUFFER_SIZE, head, LINK_URI_SEPARATOR, LINK_URI_SEP
 1577              		.loc 1 383 13 is_stmt 1 view .LVU540
 383:C:/Users/²Ü¼ÒºÀ/.iotlink/sdk/IoT_LINK/iot_link/network/lwm2m/wakaama_lwm2m/wakaama-master/core\discover.c ****             PRV_CONCAT_STR(bufferLink, PRV_LINK_BUFFER_SIZE, head, LINK_URI_SEPARATOR, LINK_URI_SEP
 1578              		.loc 1 383 18 is_stmt 0 view .LVU541
 1579 0268 831C     		adds	r3, r0, #2
 1580              	.LVL163:
 384:C:/Users/²Ü¼ÒºÀ/.iotlink/sdk/IoT_LINK/iot_link/network/lwm2m/wakaama_lwm2m/wakaama-master/core\discover.c ****             res = utils_intToText(uriP->instanceId, bufferLink + head, PRV_LINK_BUFFER_SIZE - head)
 1581              		.loc 1 384 13 is_stmt 1 view .LVU542
 1582 026a B3F5806F 		cmp	r3, #1024
 1583 026e F5D0     		beq	.L112
 384:C:/Users/²Ü¼ÒºÀ/.iotlink/sdk/IoT_LINK/iot_link/network/lwm2m/wakaama_lwm2m/wakaama-master/core\discover.c ****             res = utils_intToText(uriP->instanceId, bufferLink + head, PRV_LINK_BUFFER_SIZE - head)
 1584              		.loc 1 384 13 discriminator 2 view .LVU543
 1585 0270 C41C     		adds	r4, r0, #3
 1586 0272 2F22     		movs	r2, #47
 1587 0274 09F80320 		strb	r2, [r9, r3]
 384:C:/Users/²Ü¼ÒºÀ/.iotlink/sdk/IoT_LINK/iot_link/network/lwm2m/wakaama_lwm2m/wakaama-master/core\discover.c ****             res = utils_intToText(uriP->instanceId, bufferLink + head, PRV_LINK_BUFFER_SIZE - head)
 1588              		.loc 1 384 13 discriminator 2 view .LVU544
 1589              	.LVL164:
 384:C:/Users/²Ü¼ÒºÀ/.iotlink/sdk/IoT_LINK/iot_link/network/lwm2m/wakaama_lwm2m/wakaama-master/core\discover.c ****             res = utils_intToText(uriP->instanceId, bufferLink + head, PRV_LINK_BUFFER_SIZE - head)
 1590              		.loc 1 384 112 discriminator 2 view .LVU545
 385:C:/Users/²Ü¼ÒºÀ/.iotlink/sdk/IoT_LINK/iot_link/network/lwm2m/wakaama_lwm2m/wakaama-master/core\discover.c ****             if (res <= 0) return -1;
 1591              		.loc 1 385 13 discriminator 2 view .LVU546
 385:C:/Users/²Ü¼ÒºÀ/.iotlink/sdk/IoT_LINK/iot_link/network/lwm2m/wakaama_lwm2m/wakaama-master/core\discover.c ****             if (res <= 0) return -1;
 1592              		.loc 1 385 19 is_stmt 0 discriminator 2 view .LVU547
 1593 0278 B088     		ldrh	r0, [r6, #4]
 1594              	.LVL165:
 385:C:/Users/²Ü¼ÒºÀ/.iotlink/sdk/IoT_LINK/iot_link/network/lwm2m/wakaama_lwm2m/wakaama-master/core\discover.c ****             if (res <= 0) return -1;
 1595              		.loc 1 385 19 discriminator 2 view .LVU548
 1596 027a C4F58063 		rsb	r3, r4, #1024
 1597 027e 09EB0402 		add	r2, r9, r4
 1598 0282 0021     		movs	r1, #0
 1599 0284 FFF7FEFF 		bl	utils_intToText
 1600              	.LVL166:
 386:C:/Users/²Ü¼ÒºÀ/.iotlink/sdk/IoT_LINK/iot_link/network/lwm2m/wakaama_lwm2m/wakaama-master/core\discover.c ****             head += res;
 1601              		.loc 1 386 13 is_stmt 1 discriminator 2 view .LVU549
 386:C:/Users/²Ü¼ÒºÀ/.iotlink/sdk/IoT_LINK/iot_link/network/lwm2m/wakaama_lwm2m/wakaama-master/core\discover.c ****             head += res;
 1602              		.loc 1 386 16 is_stmt 0 discriminator 2 view .LVU550
 1603 0288 0028     		cmp	r0, #0
 386:C:/Users/²Ü¼ÒºÀ/.iotlink/sdk/IoT_LINK/iot_link/network/lwm2m/wakaama_lwm2m/wakaama-master/core\discover.c ****             head += res;
 1604              		.loc 1 386 16 discriminator 2 view .LVU551
 1605 028a E7DD     		ble	.L112
 387:C:/Users/²Ü¼ÒºÀ/.iotlink/sdk/IoT_LINK/iot_link/network/lwm2m/wakaama_lwm2m/wakaama-master/core\discover.c ****             PRV_CONCAT_STR(bufferLink, PRV_LINK_BUFFER_SIZE, head, LINK_ITEM_END, LINK_ITEM_END_SIZ
 1606              		.loc 1 387 13 is_stmt 1 view .LVU552
ARM GAS  C:\Users\²Ü¼ÒºÀ\AppData\Local\Temp\cc4SIRne.s 			page 43


 387:C:/Users/²Ü¼ÒºÀ/.iotlink/sdk/IoT_LINK/iot_link/network/lwm2m/wakaama_lwm2m/wakaama-master/core\discover.c ****             PRV_CONCAT_STR(bufferLink, PRV_LINK_BUFFER_SIZE, head, LINK_ITEM_END, LINK_ITEM_END_SIZ
 1607              		.loc 1 387 18 is_stmt 0 view .LVU553
 1608 028c 2044     		add	r0, r0, r4
 1609              	.LVL167:
 388:C:/Users/²Ü¼ÒºÀ/.iotlink/sdk/IoT_LINK/iot_link/network/lwm2m/wakaama_lwm2m/wakaama-master/core\discover.c ****             parentUri.instanceId = uriP->instanceId;
 1610              		.loc 1 388 13 is_stmt 1 view .LVU554
 1611 028e C0F58063 		rsb	r3, r0, #1024
 1612 0292 012B     		cmp	r3, #1
 1613 0294 E2D9     		bls	.L112
 388:C:/Users/²Ü¼ÒºÀ/.iotlink/sdk/IoT_LINK/iot_link/network/lwm2m/wakaama_lwm2m/wakaama-master/core\discover.c ****             parentUri.instanceId = uriP->instanceId;
 1614              		.loc 1 388 13 discriminator 2 view .LVU555
 1615 0296 284B     		ldr	r3, .L139+32
 1616 0298 1B88     		ldrh	r3, [r3]	@ unaligned
 1617 029a 29F80030 		strh	r3, [r9, r0]	@ unaligned
 388:C:/Users/²Ü¼ÒºÀ/.iotlink/sdk/IoT_LINK/iot_link/network/lwm2m/wakaama_lwm2m/wakaama-master/core\discover.c ****             parentUri.instanceId = uriP->instanceId;
 1618              		.loc 1 388 13 discriminator 2 view .LVU556
 389:C:/Users/²Ü¼ÒºÀ/.iotlink/sdk/IoT_LINK/iot_link/network/lwm2m/wakaama_lwm2m/wakaama-master/core\discover.c ****             parentUri.flag = LWM2M_URI_FLAG_INSTANCE_ID;
 1619              		.loc 1 389 34 is_stmt 0 discriminator 2 view .LVU557
 1620 029e B388     		ldrh	r3, [r6, #4]
 1621 02a0 ADF82830 		strh	r3, [sp, #40]	@ movhi
 390:C:/Users/²Ü¼ÒºÀ/.iotlink/sdk/IoT_LINK/iot_link/network/lwm2m/wakaama_lwm2m/wakaama-master/core\discover.c ****             if (serverP != NULL)
 1622              		.loc 1 390 28 discriminator 2 view .LVU558
 1623 02a4 0223     		movs	r3, #2
 388:C:/Users/²Ü¼ÒºÀ/.iotlink/sdk/IoT_LINK/iot_link/network/lwm2m/wakaama_lwm2m/wakaama-master/core\discover.c ****             parentUri.instanceId = uriP->instanceId;
 1624              		.loc 1 388 13 discriminator 2 view .LVU559
 1625 02a6 851C     		adds	r5, r0, #2
 1626              	.LVL168:
 388:C:/Users/²Ü¼ÒºÀ/.iotlink/sdk/IoT_LINK/iot_link/network/lwm2m/wakaama_lwm2m/wakaama-master/core\discover.c ****             parentUri.instanceId = uriP->instanceId;
 1627              		.loc 1 388 102 is_stmt 1 discriminator 2 view .LVU560
 389:C:/Users/²Ü¼ÒºÀ/.iotlink/sdk/IoT_LINK/iot_link/network/lwm2m/wakaama_lwm2m/wakaama-master/core\discover.c ****             parentUri.flag = LWM2M_URI_FLAG_INSTANCE_ID;
 1628              		.loc 1 389 13 discriminator 2 view .LVU561
 390:C:/Users/²Ü¼ÒºÀ/.iotlink/sdk/IoT_LINK/iot_link/network/lwm2m/wakaama_lwm2m/wakaama-master/core\discover.c ****             if (serverP != NULL)
 1629              		.loc 1 390 13 discriminator 2 view .LVU562
 390:C:/Users/²Ü¼ÒºÀ/.iotlink/sdk/IoT_LINK/iot_link/network/lwm2m/wakaama_lwm2m/wakaama-master/core\discover.c ****             if (serverP != NULL)
 1630              		.loc 1 390 28 is_stmt 0 discriminator 2 view .LVU563
 1631 02a8 8DF82430 		strb	r3, [sp, #36]
 391:C:/Users/²Ü¼ÒºÀ/.iotlink/sdk/IoT_LINK/iot_link/network/lwm2m/wakaama_lwm2m/wakaama-master/core\discover.c ****             {
 1632              		.loc 1 391 13 is_stmt 1 discriminator 2 view .LVU564
 391:C:/Users/²Ü¼ÒºÀ/.iotlink/sdk/IoT_LINK/iot_link/network/lwm2m/wakaama_lwm2m/wakaama-master/core\discover.c ****             {
 1633              		.loc 1 391 16 is_stmt 0 discriminator 2 view .LVU565
 1634 02ac 87B1     		cbz	r7, .L121
 393:C:/Users/²Ü¼ÒºÀ/.iotlink/sdk/IoT_LINK/iot_link/network/lwm2m/wakaama_lwm2m/wakaama-master/core\discover.c ****                 if (res < 0) return -1;    // careful, 0 is valid
 1635              		.loc 1 393 17 is_stmt 1 view .LVU566
 393:C:/Users/²Ü¼ÒºÀ/.iotlink/sdk/IoT_LINK/iot_link/network/lwm2m/wakaama_lwm2m/wakaama-master/core\discover.c ****                 if (res < 0) return -1;    // careful, 0 is valid
 1636              		.loc 1 393 23 is_stmt 0 view .LVU567
 1637 02ae 4FF48063 		mov	r3, #1024
 1638 02b2 0130     		adds	r0, r0, #1
 1639 02b4 CDE90090 		strd	r9, r0, [sp]
 1640 02b8 0293     		str	r3, [sp, #8]
 1641 02ba 3A46     		mov	r2, r7
 1642 02bc 5B46     		mov	r3, fp
 1643 02be 09A9     		add	r1, sp, #36
 1644 02c0 4046     		mov	r0, r8
 1645 02c2 FFF7FEFF 		bl	prv_serializeAttributes
 1646              	.LVL169:
 394:C:/Users/²Ü¼ÒºÀ/.iotlink/sdk/IoT_LINK/iot_link/network/lwm2m/wakaama_lwm2m/wakaama-master/core\discover.c ****             }
 1647              		.loc 1 394 17 is_stmt 1 view .LVU568
ARM GAS  C:\Users\²Ü¼ÒºÀ\AppData\Local\Temp\cc4SIRne.s 			page 44


 394:C:/Users/²Ü¼ÒºÀ/.iotlink/sdk/IoT_LINK/iot_link/network/lwm2m/wakaama_lwm2m/wakaama-master/core\discover.c ****             }
 1648              		.loc 1 394 20 is_stmt 0 view .LVU569
 1649 02c6 0028     		cmp	r0, #0
 394:C:/Users/²Ü¼ÒºÀ/.iotlink/sdk/IoT_LINK/iot_link/network/lwm2m/wakaama_lwm2m/wakaama-master/core\discover.c ****             }
 1650              		.loc 1 394 20 view .LVU570
 1651 02c8 C8DB     		blt	.L112
 1652              	.LVL170:
 1653              	.L113:
 400:C:/Users/²Ü¼ÒºÀ/.iotlink/sdk/IoT_LINK/iot_link/network/lwm2m/wakaama_lwm2m/wakaama-master/core\discover.c ****         }
 1654              		.loc 1 400 13 is_stmt 1 view .LVU571
 400:C:/Users/²Ü¼ÒºÀ/.iotlink/sdk/IoT_LINK/iot_link/network/lwm2m/wakaama_lwm2m/wakaama-master/core\discover.c ****         }
 1655              		.loc 1 400 18 is_stmt 0 view .LVU572
 1656 02ca 0544     		add	r5, r5, r0
 1657              	.LVL171:
 375:C:/Users/²Ü¼ÒºÀ/.iotlink/sdk/IoT_LINK/iot_link/network/lwm2m/wakaama_lwm2m/wakaama-master/core\discover.c **** 
 1658              		.loc 1 375 16 view .LVU573
 1659 02cc 0024     		movs	r4, #0
 1660 02ce 91E7     		b	.L108
 1661              	.LVL172:
 1662              	.L121:
 398:C:/Users/²Ü¼ÒºÀ/.iotlink/sdk/IoT_LINK/iot_link/network/lwm2m/wakaama_lwm2m/wakaama-master/core\discover.c ****             }
 1663              		.loc 1 398 21 view .LVU574
 1664 02d0 3846     		mov	r0, r7
 1665 02d2 FAE7     		b	.L113
 1666              	.LVL173:
 1667              	.L109:
 404:C:/Users/²Ü¼ÒºÀ/.iotlink/sdk/IoT_LINK/iot_link/network/lwm2m/wakaama_lwm2m/wakaama-master/core\discover.c ****             PRV_CONCAT_STR(bufferLink, PRV_LINK_BUFFER_SIZE, head, LINK_URI_SEPARATOR, LINK_URI_SEP
 1668              		.loc 1 404 13 is_stmt 1 discriminator 2 view .LVU575
 404:C:/Users/²Ü¼ÒºÀ/.iotlink/sdk/IoT_LINK/iot_link/network/lwm2m/wakaama_lwm2m/wakaama-master/core\discover.c ****             PRV_CONCAT_STR(bufferLink, PRV_LINK_BUFFER_SIZE, head, LINK_URI_SEPARATOR, LINK_URI_SEP
 1669              		.loc 1 404 13 discriminator 2 view .LVU576
 404:C:/Users/²Ü¼ÒºÀ/.iotlink/sdk/IoT_LINK/iot_link/network/lwm2m/wakaama_lwm2m/wakaama-master/core\discover.c ****             PRV_CONCAT_STR(bufferLink, PRV_LINK_BUFFER_SIZE, head, LINK_URI_SEPARATOR, LINK_URI_SEP
 1670              		.loc 1 404 13 discriminator 2 view .LVU577
 404:C:/Users/²Ü¼ÒºÀ/.iotlink/sdk/IoT_LINK/iot_link/network/lwm2m/wakaama_lwm2m/wakaama-master/core\discover.c ****             PRV_CONCAT_STR(bufferLink, PRV_LINK_BUFFER_SIZE, head, LINK_URI_SEPARATOR, LINK_URI_SEP
 1671              		.loc 1 404 106 discriminator 2 view .LVU578
 405:C:/Users/²Ü¼ÒºÀ/.iotlink/sdk/IoT_LINK/iot_link/network/lwm2m/wakaama_lwm2m/wakaama-master/core\discover.c ****             res = utils_intToText(uriP->objectId, bufferLink + head, PRV_LINK_BUFFER_SIZE - head);
 1672              		.loc 1 405 13 discriminator 2 view .LVU579
 405:C:/Users/²Ü¼ÒºÀ/.iotlink/sdk/IoT_LINK/iot_link/network/lwm2m/wakaama_lwm2m/wakaama-master/core\discover.c ****             res = utils_intToText(uriP->objectId, bufferLink + head, PRV_LINK_BUFFER_SIZE - head);
 1673              		.loc 1 405 13 discriminator 2 view .LVU580
 406:C:/Users/²Ü¼ÒºÀ/.iotlink/sdk/IoT_LINK/iot_link/network/lwm2m/wakaama_lwm2m/wakaama-master/core\discover.c ****             if (res <= 0) return -1;
 1674              		.loc 1 406 19 is_stmt 0 discriminator 2 view .LVU581
 1675 02d4 FFF7FEFF 		bl	utils_intToText
 1676              	.LVL174:
 407:C:/Users/²Ü¼ÒºÀ/.iotlink/sdk/IoT_LINK/iot_link/network/lwm2m/wakaama_lwm2m/wakaama-master/core\discover.c ****             head += res;
 1677              		.loc 1 407 13 is_stmt 1 discriminator 2 view .LVU582
 407:C:/Users/²Ü¼ÒºÀ/.iotlink/sdk/IoT_LINK/iot_link/network/lwm2m/wakaama_lwm2m/wakaama-master/core\discover.c ****             head += res;
 1678              		.loc 1 407 16 is_stmt 0 discriminator 2 view .LVU583
 1679 02d8 0028     		cmp	r0, #0
 407:C:/Users/²Ü¼ÒºÀ/.iotlink/sdk/IoT_LINK/iot_link/network/lwm2m/wakaama_lwm2m/wakaama-master/core\discover.c ****             head += res;
 1680              		.loc 1 407 16 discriminator 2 view .LVU584
 1681 02da BFDD     		ble	.L112
 408:C:/Users/²Ü¼ÒºÀ/.iotlink/sdk/IoT_LINK/iot_link/network/lwm2m/wakaama_lwm2m/wakaama-master/core\discover.c ****             PRV_CONCAT_STR(bufferLink, PRV_LINK_BUFFER_SIZE, head, LINK_ITEM_END, LINK_ITEM_END_SIZ
 1682              		.loc 1 408 13 is_stmt 1 view .LVU585
 408:C:/Users/²Ü¼ÒºÀ/.iotlink/sdk/IoT_LINK/iot_link/network/lwm2m/wakaama_lwm2m/wakaama-master/core\discover.c ****             PRV_CONCAT_STR(bufferLink, PRV_LINK_BUFFER_SIZE, head, LINK_ITEM_END, LINK_ITEM_END_SIZ
 1683              		.loc 1 408 18 is_stmt 0 view .LVU586
 1684 02dc 831C     		adds	r3, r0, #2
 1685              	.LVL175:
 409:C:/Users/²Ü¼ÒºÀ/.iotlink/sdk/IoT_LINK/iot_link/network/lwm2m/wakaama_lwm2m/wakaama-master/core\discover.c **** 
ARM GAS  C:\Users\²Ü¼ÒºÀ\AppData\Local\Temp\cc4SIRne.s 			page 45


 1686              		.loc 1 409 13 is_stmt 1 view .LVU587
 1687 02de C3F58062 		rsb	r2, r3, #1024
 1688 02e2 012A     		cmp	r2, #1
 1689 02e4 BAD9     		bls	.L112
 409:C:/Users/²Ü¼ÒºÀ/.iotlink/sdk/IoT_LINK/iot_link/network/lwm2m/wakaama_lwm2m/wakaama-master/core\discover.c **** 
 1690              		.loc 1 409 13 discriminator 2 view .LVU588
 1691 02e6 144A     		ldr	r2, .L139+32
 1692 02e8 1288     		ldrh	r2, [r2]	@ unaligned
 1693 02ea 29F80320 		strh	r2, [r9, r3]	@ unaligned
 409:C:/Users/²Ü¼ÒºÀ/.iotlink/sdk/IoT_LINK/iot_link/network/lwm2m/wakaama_lwm2m/wakaama-master/core\discover.c **** 
 1694              		.loc 1 409 13 discriminator 2 view .LVU589
 1695 02ee 051D     		adds	r5, r0, #4
 1696              	.LVL176:
 409:C:/Users/²Ü¼ÒºÀ/.iotlink/sdk/IoT_LINK/iot_link/network/lwm2m/wakaama_lwm2m/wakaama-master/core\discover.c **** 
 1697              		.loc 1 409 102 discriminator 2 view .LVU590
 411:C:/Users/²Ü¼ÒºÀ/.iotlink/sdk/IoT_LINK/iot_link/network/lwm2m/wakaama_lwm2m/wakaama-master/core\discover.c ****             {
 1698              		.loc 1 411 13 discriminator 2 view .LVU591
 411:C:/Users/²Ü¼ÒºÀ/.iotlink/sdk/IoT_LINK/iot_link/network/lwm2m/wakaama_lwm2m/wakaama-master/core\discover.c ****             {
 1699              		.loc 1 411 16 is_stmt 0 discriminator 2 view .LVU592
 1700 02f0 7FB1     		cbz	r7, .L122
 413:C:/Users/²Ü¼ÒºÀ/.iotlink/sdk/IoT_LINK/iot_link/network/lwm2m/wakaama_lwm2m/wakaama-master/core\discover.c ****                 if (res < 0) return -1;    // careful, 0 is valid
 1701              		.loc 1 413 17 is_stmt 1 view .LVU593
 413:C:/Users/²Ü¼ÒºÀ/.iotlink/sdk/IoT_LINK/iot_link/network/lwm2m/wakaama_lwm2m/wakaama-master/core\discover.c ****                 if (res < 0) return -1;    // careful, 0 is valid
 1702              		.loc 1 413 23 is_stmt 0 view .LVU594
 1703 02f2 4FF48063 		mov	r3, #1024
 1704 02f6 0330     		adds	r0, r0, #3
 1705              	.LVL177:
 413:C:/Users/²Ü¼ÒºÀ/.iotlink/sdk/IoT_LINK/iot_link/network/lwm2m/wakaama_lwm2m/wakaama-master/core\discover.c ****                 if (res < 0) return -1;    // careful, 0 is valid
 1706              		.loc 1 413 23 view .LVU595
 1707 02f8 CDE90090 		strd	r9, r0, [sp]
 1708 02fc 0293     		str	r3, [sp, #8]
 1709 02fe 3A46     		mov	r2, r7
 1710 0300 2346     		mov	r3, r4
 1711 0302 09A9     		add	r1, sp, #36
 1712 0304 4046     		mov	r0, r8
 1713              	.LVL178:
 413:C:/Users/²Ü¼ÒºÀ/.iotlink/sdk/IoT_LINK/iot_link/network/lwm2m/wakaama_lwm2m/wakaama-master/core\discover.c ****                 if (res < 0) return -1;    // careful, 0 is valid
 1714              		.loc 1 413 23 view .LVU596
 1715 0306 FFF7FEFF 		bl	prv_serializeAttributes
 1716              	.LVL179:
 414:C:/Users/²Ü¼ÒºÀ/.iotlink/sdk/IoT_LINK/iot_link/network/lwm2m/wakaama_lwm2m/wakaama-master/core\discover.c ****                 head += res;
 1717              		.loc 1 414 17 is_stmt 1 view .LVU597
 414:C:/Users/²Ü¼ÒºÀ/.iotlink/sdk/IoT_LINK/iot_link/network/lwm2m/wakaama_lwm2m/wakaama-master/core\discover.c ****                 head += res;
 1718              		.loc 1 414 20 is_stmt 0 view .LVU598
 1719 030a 0028     		cmp	r0, #0
 414:C:/Users/²Ü¼ÒºÀ/.iotlink/sdk/IoT_LINK/iot_link/network/lwm2m/wakaama_lwm2m/wakaama-master/core\discover.c ****                 head += res;
 1720              		.loc 1 414 20 view .LVU599
 1721 030c A6DB     		blt	.L112
 415:C:/Users/²Ü¼ÒºÀ/.iotlink/sdk/IoT_LINK/iot_link/network/lwm2m/wakaama_lwm2m/wakaama-master/core\discover.c ****             }
 1722              		.loc 1 415 17 is_stmt 1 view .LVU600
 415:C:/Users/²Ü¼ÒºÀ/.iotlink/sdk/IoT_LINK/iot_link/network/lwm2m/wakaama_lwm2m/wakaama-master/core\discover.c ****             }
 1723              		.loc 1 415 22 is_stmt 0 view .LVU601
 1724 030e 0544     		add	r5, r5, r0
 1725              	.LVL180:
 415:C:/Users/²Ü¼ÒºÀ/.iotlink/sdk/IoT_LINK/iot_link/network/lwm2m/wakaama_lwm2m/wakaama-master/core\discover.c ****             }
 1726              		.loc 1 415 22 view .LVU602
 1727 0310 70E7     		b	.L108
ARM GAS  C:\Users\²Ü¼ÒºÀ\AppData\Local\Temp\cc4SIRne.s 			page 46


 1728              	.L122:
 375:C:/Users/²Ü¼ÒºÀ/.iotlink/sdk/IoT_LINK/iot_link/network/lwm2m/wakaama_lwm2m/wakaama-master/core\discover.c **** 
 1729              		.loc 1 375 16 view .LVU603
 1730 0312 3C46     		mov	r4, r7
 1731 0314 6EE7     		b	.L108
 1732              	.L140:
 1733 0316 00BF     		.align	2
 1734              	.L139:
 1735 0318 00000000 		.word	.LANCHOR1
 1736 031c 00000000 		.word	.LANCHOR0
 1737 0320 00000000 		.word	.LC7
 1738 0324 00000000 		.word	_impure_ptr
 1739 0328 26000000 		.word	.LC8
 1740 032c 44000000 		.word	.LC9
 1741 0330 5F000000 		.word	.LC10
 1742 0334 72000000 		.word	.LC11
 1743 0338 07000000 		.word	.LC6
 1744              	.LVL181:
 1745              	.L116:
 426:C:/Users/²Ü¼ÒºÀ/.iotlink/sdk/IoT_LINK/iot_link/network/lwm2m/wakaama_lwm2m/wakaama-master/core\discover.c ****         if (res < 0) return -1;
 1746              		.loc 1 426 9 is_stmt 1 view .LVU604
 426:C:/Users/²Ü¼ÒºÀ/.iotlink/sdk/IoT_LINK/iot_link/network/lwm2m/wakaama_lwm2m/wakaama-master/core\discover.c ****         if (res < 0) return -1;
 1747              		.loc 1 426 15 is_stmt 0 view .LVU605
 1748 033c C5F58063 		rsb	r3, r5, #1024
 1749 0340 0493     		str	r3, [sp, #16]
 1750 0342 1AAB     		add	r3, sp, #104
 1751 0344 2B44     		add	r3, r3, r5
 1752 0346 DDF89014 		ldr	r1, [sp, #1168]
 1753 034a 0393     		str	r3, [sp, #12]
 1754 034c 079B     		ldr	r3, [sp, #28]
 1755 034e 0096     		str	r6, [sp]
 1756 0350 CDE901B3 		strd	fp, r3, [sp, #4]
 1757 0354 3A46     		mov	r2, r7
 1758 0356 2346     		mov	r3, r4
 1759 0358 01EB0911 		add	r1, r1, r9, lsl #4
 1760 035c 4046     		mov	r0, r8
 1761 035e FFF7FEFF 		bl	prv_serializeLinkData
 1762              	.LVL182:
 427:C:/Users/²Ü¼ÒºÀ/.iotlink/sdk/IoT_LINK/iot_link/network/lwm2m/wakaama_lwm2m/wakaama-master/core\discover.c ****         head += res;
 1763              		.loc 1 427 9 is_stmt 1 view .LVU606
 427:C:/Users/²Ü¼ÒºÀ/.iotlink/sdk/IoT_LINK/iot_link/network/lwm2m/wakaama_lwm2m/wakaama-master/core\discover.c ****         head += res;
 1764              		.loc 1 427 12 is_stmt 0 view .LVU607
 1765 0362 0028     		cmp	r0, #0
 427:C:/Users/²Ü¼ÒºÀ/.iotlink/sdk/IoT_LINK/iot_link/network/lwm2m/wakaama_lwm2m/wakaama-master/core\discover.c ****         head += res;
 1766              		.loc 1 427 12 view .LVU608
 1767 0364 FFF67AAF 		blt	.L112
 428:C:/Users/²Ü¼ÒºÀ/.iotlink/sdk/IoT_LINK/iot_link/network/lwm2m/wakaama_lwm2m/wakaama-master/core\discover.c ****     }
 1768              		.loc 1 428 9 is_stmt 1 discriminator 2 view .LVU609
 428:C:/Users/²Ü¼ÒºÀ/.iotlink/sdk/IoT_LINK/iot_link/network/lwm2m/wakaama_lwm2m/wakaama-master/core\discover.c ****     }
 1769              		.loc 1 428 14 is_stmt 0 discriminator 2 view .LVU610
 1770 0368 0544     		add	r5, r5, r0
 1771              	.LVL183:
 424:C:/Users/²Ü¼ÒºÀ/.iotlink/sdk/IoT_LINK/iot_link/network/lwm2m/wakaama_lwm2m/wakaama-master/core\discover.c ****     {
 1772              		.loc 1 424 66 is_stmt 1 discriminator 2 view .LVU611
 424:C:/Users/²Ü¼ÒºÀ/.iotlink/sdk/IoT_LINK/iot_link/network/lwm2m/wakaama_lwm2m/wakaama-master/core\discover.c ****     {
 1773              		.loc 1 424 71 is_stmt 0 discriminator 2 view .LVU612
 1774 036a 09F10109 		add	r9, r9, #1
ARM GAS  C:\Users\²Ü¼ÒºÀ\AppData\Local\Temp\cc4SIRne.s 			page 47


 1775              	.LVL184:
 424:C:/Users/²Ü¼ÒºÀ/.iotlink/sdk/IoT_LINK/iot_link/network/lwm2m/wakaama_lwm2m/wakaama-master/core\discover.c ****     {
 1776              		.loc 1 424 71 discriminator 2 view .LVU613
 1777 036e 4FE7     		b	.L114
 1778              	.LVL185:
 1779              	.L115:
 431:C:/Users/²Ü¼ÒºÀ/.iotlink/sdk/IoT_LINK/iot_link/network/lwm2m/wakaama_lwm2m/wakaama-master/core\discover.c ****     {
 1780              		.loc 1 431 5 is_stmt 1 view .LVU614
 431:C:/Users/²Ü¼ÒºÀ/.iotlink/sdk/IoT_LINK/iot_link/network/lwm2m/wakaama_lwm2m/wakaama-master/core\discover.c ****     {
 1781              		.loc 1 431 8 is_stmt 0 view .LVU615
 1782 0370 002D     		cmp	r5, #0
 1783 0372 7FF454AF 		bne	.L117
 1784              	.L118:
 440:C:/Users/²Ü¼ÒºÀ/.iotlink/sdk/IoT_LINK/iot_link/network/lwm2m/wakaama_lwm2m/wakaama-master/core\discover.c **** }
 1785              		.loc 1 440 5 is_stmt 1 view .LVU616
 440:C:/Users/²Ü¼ÒºÀ/.iotlink/sdk/IoT_LINK/iot_link/network/lwm2m/wakaama_lwm2m/wakaama-master/core\discover.c **** }
 1786              		.loc 1 440 12 is_stmt 0 view .LVU617
 1787 0376 2846     		mov	r0, r5
 1788 0378 72E7     		b	.L90
 1789              		.cfi_endproc
 1790              	.LFE7:
 1792 037a 00BF     		.section	.rodata.__FUNCTION__.8714,"a"
 1793              		.set	.LANCHOR0,. + 0
 1796              	__FUNCTION__.8714:
 1797 0000 64697363 		.ascii	"discover_serialize\000"
 1797      6F766572 
 1797      5F736572 
 1797      69616C69 
 1797      7A6500
 1798              		.section	.rodata.__func__.8715,"a"
 1799              		.set	.LANCHOR1,. + 0
 1802              	__func__.8715:
 1803 0000 64697363 		.ascii	"discover_serialize\000"
 1803      6F766572 
 1803      5F736572 
 1803      69616C69 
 1803      7A6500
 1804              		.text
 1805              	.Letext0:
 1806              		.file 2 "c:\\users\\\262\334\274\322\272\300\\.iotlink\\tools\\gcc-arm-none-eabi\\arm-none-eabi\\i
 1807              		.file 3 "c:\\users\\\262\334\274\322\272\300\\.iotlink\\tools\\gcc-arm-none-eabi\\arm-none-eabi\\i
 1808              		.file 4 "C:/Users/\262\334\274\322\272\300/.iotlink/sdk/IoT_LINK/iot_link/network/lwm2m/wakaama_lw
 1809              		.file 5 "c:\\users\\\262\334\274\322\272\300\\.iotlink\\tools\\gcc-arm-none-eabi\\lib\\gcc\\arm-no
 1810              		.file 6 "c:\\users\\\262\334\274\322\272\300\\.iotlink\\tools\\gcc-arm-none-eabi\\arm-none-eabi\\i
 1811              		.file 7 "c:\\users\\\262\334\274\322\272\300\\.iotlink\\tools\\gcc-arm-none-eabi\\arm-none-eabi\\i
 1812              		.file 8 "c:\\users\\\262\334\274\322\272\300\\.iotlink\\tools\\gcc-arm-none-eabi\\arm-none-eabi\\i
 1813              		.file 9 "c:\\users\\\262\334\274\322\272\300\\.iotlink\\tools\\gcc-arm-none-eabi\\arm-none-eabi\\i
 1814              		.file 10 "c:\\users\\\262\334\274\322\272\300\\.iotlink\\tools\\gcc-arm-none-eabi\\arm-none-eabi\\
 1815              		.file 11 "C:/Users/\262\334\274\322\272\300/.iotlink/sdk/IoT_LINK/iot_link/network/lwm2m/wakaama_l
 1816              		.file 12 "C:/Users/\262\334\274\322\272\300/.iotlink/sdk/IoT_LINK/iot_link/inc/link_log.h"
 1817              		.file 13 "C:/Users/\262\334\274\322\272\300/.iotlink/sdk/IoT_LINK/iot_link/network/lwm2m/wakaama_l
 1818              		.file 14 "c:\\users\\\262\334\274\322\272\300\\.iotlink\\tools\\gcc-arm-none-eabi\\arm-none-eabi\\
 1819              		.file 15 "c:\\users\\\262\334\274\322\272\300\\.iotlink\\tools\\gcc-arm-none-eabi\\arm-none-eabi\\
 1820              		.file 16 "c:\\users\\\262\334\274\322\272\300\\.iotlink\\tools\\gcc-arm-none-eabi\\arm-none-eabi\\
 1821              		.file 17 "C:/Users/\262\334\274\322\272\300/.iotlink/sdk/IoT_LINK/iot_link/network/lwm2m/wakaama_l
 1822              		.file 18 "<built-in>"
ARM GAS  C:\Users\²Ü¼ÒºÀ\AppData\Local\Temp\cc4SIRne.s 			page 48

