ARM GAS  C:\Users\²Ü¼ÒºÀ\AppData\Local\Temp\ccA6NNYh.s 			page 1


   1              		.cpu cortex-m4
   2              		.eabi_attribute 27, 1
   3              		.eabi_attribute 28, 1
   4              		.eabi_attribute 20, 1
   5              		.eabi_attribute 21, 1
   6              		.eabi_attribute 23, 3
   7              		.eabi_attribute 24, 1
   8              		.eabi_attribute 25, 1
   9              		.eabi_attribute 26, 1
  10              		.eabi_attribute 30, 4
  11              		.eabi_attribute 34, 1
  12              		.eabi_attribute 18, 4
  13              		.file	"observe.c"
  14              		.text
  15              	.Ltext0:
  16              		.cfi_sections	.debug_frame
  17              		.section	.text.prv_findObserved.isra.0,"ax",%progbits
  18              		.align	1
  19              		.arch armv7e-m
  20              		.syntax unified
  21              		.thumb
  22              		.thumb_func
  23              		.fpu fpv4-sp-d16
  25              	prv_findObserved.isra.0:
  26              	.LVL0:
  27              	.LFB21:
  28              		.file 1 "C:/Users/\262\334\274\322\272\300/.iotlink/sdk/IoT_LINK/iot_link/network/lwm2m/wakaama_lw
   1:C:/Users/²Ü¼ÒºÀ/.iotlink/sdk/IoT_LINK/iot_link/network/lwm2m/wakaama_lwm2m/wakaama-master/core\observe.c **** /*----------------------------------------------------------------------------
   2:C:/Users/²Ü¼ÒºÀ/.iotlink/sdk/IoT_LINK/iot_link/network/lwm2m/wakaama_lwm2m/wakaama-master/core\observe.c ****  * Copyright (c) <2016-2018>, <Huawei Technologies Co., Ltd>
   3:C:/Users/²Ü¼ÒºÀ/.iotlink/sdk/IoT_LINK/iot_link/network/lwm2m/wakaama_lwm2m/wakaama-master/core\observe.c ****  * All rights reserved.
   4:C:/Users/²Ü¼ÒºÀ/.iotlink/sdk/IoT_LINK/iot_link/network/lwm2m/wakaama_lwm2m/wakaama-master/core\observe.c ****  * Redistribution and use in source and binary forms, with or without modification,
   5:C:/Users/²Ü¼ÒºÀ/.iotlink/sdk/IoT_LINK/iot_link/network/lwm2m/wakaama_lwm2m/wakaama-master/core\observe.c ****  * are permitted provided that the following conditions are met:
   6:C:/Users/²Ü¼ÒºÀ/.iotlink/sdk/IoT_LINK/iot_link/network/lwm2m/wakaama_lwm2m/wakaama-master/core\observe.c ****  * 1. Redistributions of source code must retain the above copyright notice, this list of
   7:C:/Users/²Ü¼ÒºÀ/.iotlink/sdk/IoT_LINK/iot_link/network/lwm2m/wakaama_lwm2m/wakaama-master/core\observe.c ****  * conditions and the following disclaimer.
   8:C:/Users/²Ü¼ÒºÀ/.iotlink/sdk/IoT_LINK/iot_link/network/lwm2m/wakaama_lwm2m/wakaama-master/core\observe.c ****  * 2. Redistributions in binary form must reproduce the above copyright notice, this list
   9:C:/Users/²Ü¼ÒºÀ/.iotlink/sdk/IoT_LINK/iot_link/network/lwm2m/wakaama_lwm2m/wakaama-master/core\observe.c ****  * of conditions and the following disclaimer in the documentation and/or other materials
  10:C:/Users/²Ü¼ÒºÀ/.iotlink/sdk/IoT_LINK/iot_link/network/lwm2m/wakaama_lwm2m/wakaama-master/core\observe.c ****  * provided with the distribution.
  11:C:/Users/²Ü¼ÒºÀ/.iotlink/sdk/IoT_LINK/iot_link/network/lwm2m/wakaama_lwm2m/wakaama-master/core\observe.c ****  * 3. Neither the name of the copyright holder nor the names of its contributors may be used
  12:C:/Users/²Ü¼ÒºÀ/.iotlink/sdk/IoT_LINK/iot_link/network/lwm2m/wakaama_lwm2m/wakaama-master/core\observe.c ****  * to endorse or promote products derived from this software without specific prior written
  13:C:/Users/²Ü¼ÒºÀ/.iotlink/sdk/IoT_LINK/iot_link/network/lwm2m/wakaama_lwm2m/wakaama-master/core\observe.c ****  * permission.
  14:C:/Users/²Ü¼ÒºÀ/.iotlink/sdk/IoT_LINK/iot_link/network/lwm2m/wakaama_lwm2m/wakaama-master/core\observe.c ****  * THIS SOFTWARE IS PROVIDED BY THE COPYRIGHT HOLDERS AND CONTRIBUTORS
  15:C:/Users/²Ü¼ÒºÀ/.iotlink/sdk/IoT_LINK/iot_link/network/lwm2m/wakaama_lwm2m/wakaama-master/core\observe.c ****  * "AS IS" AND ANY EXPRESS OR IMPLIED WARRANTIES, INCLUDING, BUT NOT LIMITED TO,
  16:C:/Users/²Ü¼ÒºÀ/.iotlink/sdk/IoT_LINK/iot_link/network/lwm2m/wakaama_lwm2m/wakaama-master/core\observe.c ****  * THE IMPLIED WARRANTIES OF MERCHANTABILITY AND FITNESS FOR A PARTICULAR
  17:C:/Users/²Ü¼ÒºÀ/.iotlink/sdk/IoT_LINK/iot_link/network/lwm2m/wakaama_lwm2m/wakaama-master/core\observe.c ****  * PURPOSE ARE DISCLAIMED. IN NO EVENT SHALL THE COPYRIGHT HOLDER OR
  18:C:/Users/²Ü¼ÒºÀ/.iotlink/sdk/IoT_LINK/iot_link/network/lwm2m/wakaama_lwm2m/wakaama-master/core\observe.c ****  * CONTRIBUTORS BE LIABLE FOR ANY DIRECT, INDIRECT, INCIDENTAL, SPECIAL,
  19:C:/Users/²Ü¼ÒºÀ/.iotlink/sdk/IoT_LINK/iot_link/network/lwm2m/wakaama_lwm2m/wakaama-master/core\observe.c ****  * EXEMPLARY, OR CONSEQUENTIAL DAMAGES (INCLUDING, BUT NOT LIMITED TO,
  20:C:/Users/²Ü¼ÒºÀ/.iotlink/sdk/IoT_LINK/iot_link/network/lwm2m/wakaama_lwm2m/wakaama-master/core\observe.c ****  * PROCUREMENT OF SUBSTITUTE GOODS OR SERVICES; LOSS OF USE, DATA, OR PROFITS;
  21:C:/Users/²Ü¼ÒºÀ/.iotlink/sdk/IoT_LINK/iot_link/network/lwm2m/wakaama_lwm2m/wakaama-master/core\observe.c ****  * OR BUSINESS INTERRUPTION) HOWEVER CAUSED AND ON ANY THEORY OF LIABILITY,
  22:C:/Users/²Ü¼ÒºÀ/.iotlink/sdk/IoT_LINK/iot_link/network/lwm2m/wakaama_lwm2m/wakaama-master/core\observe.c ****  * WHETHER IN CONTRACT, STRICT LIABILITY, OR TORT (INCLUDING NEGLIGENCE OR
  23:C:/Users/²Ü¼ÒºÀ/.iotlink/sdk/IoT_LINK/iot_link/network/lwm2m/wakaama_lwm2m/wakaama-master/core\observe.c ****  * OTHERWISE) ARISING IN ANY WAY OUT OF THE USE OF THIS SOFTWARE, EVEN IF
  24:C:/Users/²Ü¼ÒºÀ/.iotlink/sdk/IoT_LINK/iot_link/network/lwm2m/wakaama_lwm2m/wakaama-master/core\observe.c ****  * ADVISED OF THE POSSIBILITY OF SUCH DAMAGE.
  25:C:/Users/²Ü¼ÒºÀ/.iotlink/sdk/IoT_LINK/iot_link/network/lwm2m/wakaama_lwm2m/wakaama-master/core\observe.c ****  *---------------------------------------------------------------------------*/
  26:C:/Users/²Ü¼ÒºÀ/.iotlink/sdk/IoT_LINK/iot_link/network/lwm2m/wakaama_lwm2m/wakaama-master/core\observe.c **** /*----------------------------------------------------------------------------
  27:C:/Users/²Ü¼ÒºÀ/.iotlink/sdk/IoT_LINK/iot_link/network/lwm2m/wakaama_lwm2m/wakaama-master/core\observe.c ****  * Notice of Export Control Law
  28:C:/Users/²Ü¼ÒºÀ/.iotlink/sdk/IoT_LINK/iot_link/network/lwm2m/wakaama_lwm2m/wakaama-master/core\observe.c ****  * ===============================================
  29:C:/Users/²Ü¼ÒºÀ/.iotlink/sdk/IoT_LINK/iot_link/network/lwm2m/wakaama_lwm2m/wakaama-master/core\observe.c ****  * Huawei LiteOS may be subject to applicable export control laws and regulations, which might
  30:C:/Users/²Ü¼ÒºÀ/.iotlink/sdk/IoT_LINK/iot_link/network/lwm2m/wakaama_lwm2m/wakaama-master/core\observe.c ****  * include those applicable to Huawei LiteOS of U.S. and the country in which you are located.
ARM GAS  C:\Users\²Ü¼ÒºÀ\AppData\Local\Temp\ccA6NNYh.s 			page 2


  31:C:/Users/²Ü¼ÒºÀ/.iotlink/sdk/IoT_LINK/iot_link/network/lwm2m/wakaama_lwm2m/wakaama-master/core\observe.c ****  * Import, export and usage of Huawei LiteOS in any manner by you shall be in compliance with such
  32:C:/Users/²Ü¼ÒºÀ/.iotlink/sdk/IoT_LINK/iot_link/network/lwm2m/wakaama_lwm2m/wakaama-master/core\observe.c ****  * applicable export control laws and regulations.
  33:C:/Users/²Ü¼ÒºÀ/.iotlink/sdk/IoT_LINK/iot_link/network/lwm2m/wakaama_lwm2m/wakaama-master/core\observe.c ****  *---------------------------------------------------------------------------*/
  34:C:/Users/²Ü¼ÒºÀ/.iotlink/sdk/IoT_LINK/iot_link/network/lwm2m/wakaama_lwm2m/wakaama-master/core\observe.c **** 
  35:C:/Users/²Ü¼ÒºÀ/.iotlink/sdk/IoT_LINK/iot_link/network/lwm2m/wakaama_lwm2m/wakaama-master/core\observe.c **** /*******************************************************************************
  36:C:/Users/²Ü¼ÒºÀ/.iotlink/sdk/IoT_LINK/iot_link/network/lwm2m/wakaama_lwm2m/wakaama-master/core\observe.c ****  *
  37:C:/Users/²Ü¼ÒºÀ/.iotlink/sdk/IoT_LINK/iot_link/network/lwm2m/wakaama_lwm2m/wakaama-master/core\observe.c ****  * Copyright (c) 2013, 2014 Intel Corporation and others.
  38:C:/Users/²Ü¼ÒºÀ/.iotlink/sdk/IoT_LINK/iot_link/network/lwm2m/wakaama_lwm2m/wakaama-master/core\observe.c ****  * All rights reserved. This program and the accompanying materials
  39:C:/Users/²Ü¼ÒºÀ/.iotlink/sdk/IoT_LINK/iot_link/network/lwm2m/wakaama_lwm2m/wakaama-master/core\observe.c ****  * are made available under the terms of the Eclipse Public License v1.0
  40:C:/Users/²Ü¼ÒºÀ/.iotlink/sdk/IoT_LINK/iot_link/network/lwm2m/wakaama_lwm2m/wakaama-master/core\observe.c ****  * and Eclipse Distribution License v1.0 which accompany this distribution.
  41:C:/Users/²Ü¼ÒºÀ/.iotlink/sdk/IoT_LINK/iot_link/network/lwm2m/wakaama_lwm2m/wakaama-master/core\observe.c ****  *
  42:C:/Users/²Ü¼ÒºÀ/.iotlink/sdk/IoT_LINK/iot_link/network/lwm2m/wakaama_lwm2m/wakaama-master/core\observe.c ****  * The Eclipse Public License is available at
  43:C:/Users/²Ü¼ÒºÀ/.iotlink/sdk/IoT_LINK/iot_link/network/lwm2m/wakaama_lwm2m/wakaama-master/core\observe.c ****  *    http://www.eclipse.org/legal/epl-v10.html
  44:C:/Users/²Ü¼ÒºÀ/.iotlink/sdk/IoT_LINK/iot_link/network/lwm2m/wakaama_lwm2m/wakaama-master/core\observe.c ****  * The Eclipse Distribution License is available at
  45:C:/Users/²Ü¼ÒºÀ/.iotlink/sdk/IoT_LINK/iot_link/network/lwm2m/wakaama_lwm2m/wakaama-master/core\observe.c ****  *    http://www.eclipse.org/org/documents/edl-v10.php.
  46:C:/Users/²Ü¼ÒºÀ/.iotlink/sdk/IoT_LINK/iot_link/network/lwm2m/wakaama_lwm2m/wakaama-master/core\observe.c ****  *
  47:C:/Users/²Ü¼ÒºÀ/.iotlink/sdk/IoT_LINK/iot_link/network/lwm2m/wakaama_lwm2m/wakaama-master/core\observe.c ****  * Contributors:
  48:C:/Users/²Ü¼ÒºÀ/.iotlink/sdk/IoT_LINK/iot_link/network/lwm2m/wakaama_lwm2m/wakaama-master/core\observe.c ****  *    David Navarro, Intel Corporation - initial API and implementation
  49:C:/Users/²Ü¼ÒºÀ/.iotlink/sdk/IoT_LINK/iot_link/network/lwm2m/wakaama_lwm2m/wakaama-master/core\observe.c ****  *    Toby Jaffey - Please refer to git log
  50:C:/Users/²Ü¼ÒºÀ/.iotlink/sdk/IoT_LINK/iot_link/network/lwm2m/wakaama_lwm2m/wakaama-master/core\observe.c ****  *    Bosch Software Innovations GmbH - Please refer to git log
  51:C:/Users/²Ü¼ÒºÀ/.iotlink/sdk/IoT_LINK/iot_link/network/lwm2m/wakaama_lwm2m/wakaama-master/core\observe.c ****  *
  52:C:/Users/²Ü¼ÒºÀ/.iotlink/sdk/IoT_LINK/iot_link/network/lwm2m/wakaama_lwm2m/wakaama-master/core\observe.c ****  *******************************************************************************/
  53:C:/Users/²Ü¼ÒºÀ/.iotlink/sdk/IoT_LINK/iot_link/network/lwm2m/wakaama_lwm2m/wakaama-master/core\observe.c **** 
  54:C:/Users/²Ü¼ÒºÀ/.iotlink/sdk/IoT_LINK/iot_link/network/lwm2m/wakaama_lwm2m/wakaama-master/core\observe.c **** /*
  55:C:/Users/²Ü¼ÒºÀ/.iotlink/sdk/IoT_LINK/iot_link/network/lwm2m/wakaama_lwm2m/wakaama-master/core\observe.c ****  Copyright (c) 2013, 2014 Intel Corporation
  56:C:/Users/²Ü¼ÒºÀ/.iotlink/sdk/IoT_LINK/iot_link/network/lwm2m/wakaama_lwm2m/wakaama-master/core\observe.c **** 
  57:C:/Users/²Ü¼ÒºÀ/.iotlink/sdk/IoT_LINK/iot_link/network/lwm2m/wakaama_lwm2m/wakaama-master/core\observe.c ****  Redistribution and use in source and binary forms, with or without modification,
  58:C:/Users/²Ü¼ÒºÀ/.iotlink/sdk/IoT_LINK/iot_link/network/lwm2m/wakaama_lwm2m/wakaama-master/core\observe.c ****  are permitted provided that the following conditions are met:
  59:C:/Users/²Ü¼ÒºÀ/.iotlink/sdk/IoT_LINK/iot_link/network/lwm2m/wakaama_lwm2m/wakaama-master/core\observe.c **** 
  60:C:/Users/²Ü¼ÒºÀ/.iotlink/sdk/IoT_LINK/iot_link/network/lwm2m/wakaama_lwm2m/wakaama-master/core\observe.c ****      * Redistributions of source code must retain the above copyright notice,
  61:C:/Users/²Ü¼ÒºÀ/.iotlink/sdk/IoT_LINK/iot_link/network/lwm2m/wakaama_lwm2m/wakaama-master/core\observe.c ****        this list of conditions and the following disclaimer.
  62:C:/Users/²Ü¼ÒºÀ/.iotlink/sdk/IoT_LINK/iot_link/network/lwm2m/wakaama_lwm2m/wakaama-master/core\observe.c ****      * Redistributions in binary form must reproduce the above copyright notice,
  63:C:/Users/²Ü¼ÒºÀ/.iotlink/sdk/IoT_LINK/iot_link/network/lwm2m/wakaama_lwm2m/wakaama-master/core\observe.c ****        this list of conditions and the following disclaimer in the documentation
  64:C:/Users/²Ü¼ÒºÀ/.iotlink/sdk/IoT_LINK/iot_link/network/lwm2m/wakaama_lwm2m/wakaama-master/core\observe.c ****        and/or other materials provided with the distribution.
  65:C:/Users/²Ü¼ÒºÀ/.iotlink/sdk/IoT_LINK/iot_link/network/lwm2m/wakaama_lwm2m/wakaama-master/core\observe.c ****      * Neither the name of Intel Corporation nor the names of its contributors
  66:C:/Users/²Ü¼ÒºÀ/.iotlink/sdk/IoT_LINK/iot_link/network/lwm2m/wakaama_lwm2m/wakaama-master/core\observe.c ****        may be used to endorse or promote products derived from this software
  67:C:/Users/²Ü¼ÒºÀ/.iotlink/sdk/IoT_LINK/iot_link/network/lwm2m/wakaama_lwm2m/wakaama-master/core\observe.c ****        without specific prior written permission.
  68:C:/Users/²Ü¼ÒºÀ/.iotlink/sdk/IoT_LINK/iot_link/network/lwm2m/wakaama_lwm2m/wakaama-master/core\observe.c **** 
  69:C:/Users/²Ü¼ÒºÀ/.iotlink/sdk/IoT_LINK/iot_link/network/lwm2m/wakaama_lwm2m/wakaama-master/core\observe.c ****  THIS SOFTWARE IS PROVIDED BY THE COPYRIGHT HOLDERS AND CONTRIBUTORS "AS IS" AND
  70:C:/Users/²Ü¼ÒºÀ/.iotlink/sdk/IoT_LINK/iot_link/network/lwm2m/wakaama_lwm2m/wakaama-master/core\observe.c ****  ANY EXPRESS OR IMPLIED WARRANTIES, INCLUDING, BUT NOT LIMITED TO, THE IMPLIED
  71:C:/Users/²Ü¼ÒºÀ/.iotlink/sdk/IoT_LINK/iot_link/network/lwm2m/wakaama_lwm2m/wakaama-master/core\observe.c ****  WARRANTIES OF MERCHANTABILITY AND FITNESS FOR A PARTICULAR PURPOSE ARE DISCLAIMED.
  72:C:/Users/²Ü¼ÒºÀ/.iotlink/sdk/IoT_LINK/iot_link/network/lwm2m/wakaama_lwm2m/wakaama-master/core\observe.c ****  IN NO EVENT SHALL THE COPYRIGHT OWNER OR CONTRIBUTORS BE LIABLE FOR ANY DIRECT,
  73:C:/Users/²Ü¼ÒºÀ/.iotlink/sdk/IoT_LINK/iot_link/network/lwm2m/wakaama_lwm2m/wakaama-master/core\observe.c ****  INDIRECT, INCIDENTAL, SPECIAL, EXEMPLARY, OR CONSEQUENTIAL DAMAGES (INCLUDING,
  74:C:/Users/²Ü¼ÒºÀ/.iotlink/sdk/IoT_LINK/iot_link/network/lwm2m/wakaama_lwm2m/wakaama-master/core\observe.c ****  BUT NOT LIMITED TO, PROCUREMENT OF SUBSTITUTE GOODS OR SERVICES; LOSS OF USE,
  75:C:/Users/²Ü¼ÒºÀ/.iotlink/sdk/IoT_LINK/iot_link/network/lwm2m/wakaama_lwm2m/wakaama-master/core\observe.c ****  DATA, OR PROFITS; OR BUSINESS INTERRUPTION) HOWEVER CAUSED AND ON ANY THEORY OF
  76:C:/Users/²Ü¼ÒºÀ/.iotlink/sdk/IoT_LINK/iot_link/network/lwm2m/wakaama_lwm2m/wakaama-master/core\observe.c ****  LIABILITY, WHETHER IN CONTRACT, STRICT LIABILITY, OR TORT (INCLUDING NEGLIGENCE OR
  77:C:/Users/²Ü¼ÒºÀ/.iotlink/sdk/IoT_LINK/iot_link/network/lwm2m/wakaama_lwm2m/wakaama-master/core\observe.c ****  OTHERWISE) ARISING IN ANY WAY OUT OF THE USE OF THIS SOFTWARE, EVEN IF ADVISED OF
  78:C:/Users/²Ü¼ÒºÀ/.iotlink/sdk/IoT_LINK/iot_link/network/lwm2m/wakaama_lwm2m/wakaama-master/core\observe.c ****  THE POSSIBILITY OF SUCH DAMAGE.
  79:C:/Users/²Ü¼ÒºÀ/.iotlink/sdk/IoT_LINK/iot_link/network/lwm2m/wakaama_lwm2m/wakaama-master/core\observe.c **** 
  80:C:/Users/²Ü¼ÒºÀ/.iotlink/sdk/IoT_LINK/iot_link/network/lwm2m/wakaama_lwm2m/wakaama-master/core\observe.c ****  David Navarro <david.navarro@intel.com>
  81:C:/Users/²Ü¼ÒºÀ/.iotlink/sdk/IoT_LINK/iot_link/network/lwm2m/wakaama_lwm2m/wakaama-master/core\observe.c **** 
  82:C:/Users/²Ü¼ÒºÀ/.iotlink/sdk/IoT_LINK/iot_link/network/lwm2m/wakaama_lwm2m/wakaama-master/core\observe.c **** */
  83:C:/Users/²Ü¼ÒºÀ/.iotlink/sdk/IoT_LINK/iot_link/network/lwm2m/wakaama_lwm2m/wakaama-master/core\observe.c **** 
  84:C:/Users/²Ü¼ÒºÀ/.iotlink/sdk/IoT_LINK/iot_link/network/lwm2m/wakaama_lwm2m/wakaama-master/core\observe.c **** #include "internals.h"
  85:C:/Users/²Ü¼ÒºÀ/.iotlink/sdk/IoT_LINK/iot_link/network/lwm2m/wakaama_lwm2m/wakaama-master/core\observe.c **** #include <osal.h>
  86:C:/Users/²Ü¼ÒºÀ/.iotlink/sdk/IoT_LINK/iot_link/network/lwm2m/wakaama_lwm2m/wakaama-master/core\observe.c **** #include <stdio.h>
  87:C:/Users/²Ü¼ÒºÀ/.iotlink/sdk/IoT_LINK/iot_link/network/lwm2m/wakaama_lwm2m/wakaama-master/core\observe.c **** 
ARM GAS  C:\Users\²Ü¼ÒºÀ\AppData\Local\Temp\ccA6NNYh.s 			page 3


  88:C:/Users/²Ü¼ÒºÀ/.iotlink/sdk/IoT_LINK/iot_link/network/lwm2m/wakaama_lwm2m/wakaama-master/core\observe.c **** 
  89:C:/Users/²Ü¼ÒºÀ/.iotlink/sdk/IoT_LINK/iot_link/network/lwm2m/wakaama_lwm2m/wakaama-master/core\observe.c **** #ifdef LWM2M_CLIENT_MODE
  90:C:/Users/²Ü¼ÒºÀ/.iotlink/sdk/IoT_LINK/iot_link/network/lwm2m/wakaama_lwm2m/wakaama-master/core\observe.c **** 
  91:C:/Users/²Ü¼ÒºÀ/.iotlink/sdk/IoT_LINK/iot_link/network/lwm2m/wakaama_lwm2m/wakaama-master/core\observe.c **** #define RES_M_STATE  3
  92:C:/Users/²Ü¼ÒºÀ/.iotlink/sdk/IoT_LINK/iot_link/network/lwm2m/wakaama_lwm2m/wakaama-master/core\observe.c **** 
  93:C:/Users/²Ü¼ÒºÀ/.iotlink/sdk/IoT_LINK/iot_link/network/lwm2m/wakaama_lwm2m/wakaama-master/core\observe.c **** static lwm2m_transaction_callback_t  observe_call_back;
  94:C:/Users/²Ü¼ÒºÀ/.iotlink/sdk/IoT_LINK/iot_link/network/lwm2m/wakaama_lwm2m/wakaama-master/core\observe.c **** 
  95:C:/Users/²Ü¼ÒºÀ/.iotlink/sdk/IoT_LINK/iot_link/network/lwm2m/wakaama_lwm2m/wakaama-master/core\observe.c **** void lwm2m_register_observe_ack_call_back(lwm2m_transaction_callback_t callback)
  96:C:/Users/²Ü¼ÒºÀ/.iotlink/sdk/IoT_LINK/iot_link/network/lwm2m/wakaama_lwm2m/wakaama-master/core\observe.c **** {
  97:C:/Users/²Ü¼ÒºÀ/.iotlink/sdk/IoT_LINK/iot_link/network/lwm2m/wakaama_lwm2m/wakaama-master/core\observe.c ****     observe_call_back = callback;
  98:C:/Users/²Ü¼ÒºÀ/.iotlink/sdk/IoT_LINK/iot_link/network/lwm2m/wakaama_lwm2m/wakaama-master/core\observe.c **** }
  99:C:/Users/²Ü¼ÒºÀ/.iotlink/sdk/IoT_LINK/iot_link/network/lwm2m/wakaama_lwm2m/wakaama-master/core\observe.c **** 
 100:C:/Users/²Ü¼ÒºÀ/.iotlink/sdk/IoT_LINK/iot_link/network/lwm2m/wakaama_lwm2m/wakaama-master/core\observe.c **** 
 101:C:/Users/²Ü¼ÒºÀ/.iotlink/sdk/IoT_LINK/iot_link/network/lwm2m/wakaama_lwm2m/wakaama-master/core\observe.c **** static lwm2m_observed_t *prv_findObserved(lwm2m_context_t *contextP,
  29              		.loc 1 101 26 view -0
  30              		.cfi_startproc
  31              		@ args = 0, pretend = 0, frame = 0
  32              		@ frame_needed = 0, uses_anonymous_args = 0
  33              		.loc 1 101 26 is_stmt 0 view .LVU1
  34 0000 10B5     		push	{r4, lr}
  35              	.LCFI0:
  36              		.cfi_def_cfa_offset 8
  37              		.cfi_offset 4, -8
  38              		.cfi_offset 14, -4
  39              	.L2:
  40              	.LVL1:
 102:C:/Users/²Ü¼ÒºÀ/.iotlink/sdk/IoT_LINK/iot_link/network/lwm2m/wakaama_lwm2m/wakaama-master/core\observe.c ****         lwm2m_uri_t *uriP)
 103:C:/Users/²Ü¼ÒºÀ/.iotlink/sdk/IoT_LINK/iot_link/network/lwm2m/wakaama_lwm2m/wakaama-master/core\observe.c **** {
 104:C:/Users/²Ü¼ÒºÀ/.iotlink/sdk/IoT_LINK/iot_link/network/lwm2m/wakaama_lwm2m/wakaama-master/core\observe.c ****     lwm2m_observed_t *targetP;
 105:C:/Users/²Ü¼ÒºÀ/.iotlink/sdk/IoT_LINK/iot_link/network/lwm2m/wakaama_lwm2m/wakaama-master/core\observe.c **** 
 106:C:/Users/²Ü¼ÒºÀ/.iotlink/sdk/IoT_LINK/iot_link/network/lwm2m/wakaama_lwm2m/wakaama-master/core\observe.c ****     targetP = contextP->observedList;
 107:C:/Users/²Ü¼ÒºÀ/.iotlink/sdk/IoT_LINK/iot_link/network/lwm2m/wakaama_lwm2m/wakaama-master/core\observe.c ****     while (targetP != NULL
  41              		.loc 1 107 11 is_stmt 1 view .LVU2
  42 0002 98B1     		cbz	r0, .L1
 108:C:/Users/²Ü¼ÒºÀ/.iotlink/sdk/IoT_LINK/iot_link/network/lwm2m/wakaama_lwm2m/wakaama-master/core\observe.c ****             && (targetP->uri.objectId != uriP->objectId
  43              		.loc 1 108 13 is_stmt 0 view .LVU3
  44 0004 C288     		ldrh	r2, [r0, #6]
  45 0006 4B88     		ldrh	r3, [r1, #2]
  46 0008 9A42     		cmp	r2, r3
  47 000a 10D1     		bne	.L4
 109:C:/Users/²Ü¼ÒºÀ/.iotlink/sdk/IoT_LINK/iot_link/network/lwm2m/wakaama_lwm2m/wakaama-master/core\observe.c ****                 || targetP->uri.flag != uriP->flag
  48              		.loc 1 109 45 view .LVU4
  49 000c 0B78     		ldrb	r3, [r1]	@ zero_extendqisi2
  50              		.loc 1 109 17 view .LVU5
  51 000e 0279     		ldrb	r2, [r0, #4]	@ zero_extendqisi2
  52 0010 9A42     		cmp	r2, r3
  53 0012 0CD1     		bne	.L4
 110:C:/Users/²Ü¼ÒºÀ/.iotlink/sdk/IoT_LINK/iot_link/network/lwm2m/wakaama_lwm2m/wakaama-master/core\observe.c ****                 || (LWM2M_URI_IS_SET_INSTANCE(uriP) && targetP->uri.instanceId != uriP->instanceId)
  54              		.loc 1 110 17 view .LVU6
  55 0014 9A07     		lsls	r2, r3, #30
  56 0016 03D5     		bpl	.L5
  57              		.loc 1 110 53 view .LVU7
  58 0018 0489     		ldrh	r4, [r0, #8]
  59 001a 8A88     		ldrh	r2, [r1, #4]
  60 001c 9442     		cmp	r4, r2
  61 001e 06D1     		bne	.L4
  62              	.L5:
ARM GAS  C:\Users\²Ü¼ÒºÀ\AppData\Local\Temp\ccA6NNYh.s 			page 4


 111:C:/Users/²Ü¼ÒºÀ/.iotlink/sdk/IoT_LINK/iot_link/network/lwm2m/wakaama_lwm2m/wakaama-master/core\observe.c ****                 || (LWM2M_URI_IS_SET_RESOURCE(uriP) && targetP->uri.resourceId != uriP->resourceId)
  63              		.loc 1 111 17 view .LVU8
  64 0020 DB07     		lsls	r3, r3, #31
  65 0022 03D5     		bpl	.L1
  66              		.loc 1 111 53 view .LVU9
  67 0024 4289     		ldrh	r2, [r0, #10]
  68 0026 CB88     		ldrh	r3, [r1, #6]
  69 0028 9A42     		cmp	r2, r3
  70 002a 00D1     		bne	.L4
  71              	.L1:
 112:C:/Users/²Ü¼ÒºÀ/.iotlink/sdk/IoT_LINK/iot_link/network/lwm2m/wakaama_lwm2m/wakaama-master/core\observe.c ****     {
 113:C:/Users/²Ü¼ÒºÀ/.iotlink/sdk/IoT_LINK/iot_link/network/lwm2m/wakaama_lwm2m/wakaama-master/core\observe.c ****         targetP = targetP->next;
 114:C:/Users/²Ü¼ÒºÀ/.iotlink/sdk/IoT_LINK/iot_link/network/lwm2m/wakaama_lwm2m/wakaama-master/core\observe.c ****     }
 115:C:/Users/²Ü¼ÒºÀ/.iotlink/sdk/IoT_LINK/iot_link/network/lwm2m/wakaama_lwm2m/wakaama-master/core\observe.c **** 
 116:C:/Users/²Ü¼ÒºÀ/.iotlink/sdk/IoT_LINK/iot_link/network/lwm2m/wakaama_lwm2m/wakaama-master/core\observe.c ****     return targetP;
 117:C:/Users/²Ü¼ÒºÀ/.iotlink/sdk/IoT_LINK/iot_link/network/lwm2m/wakaama_lwm2m/wakaama-master/core\observe.c **** }
  72              		.loc 1 117 1 view .LVU10
  73 002c 10BD     		pop	{r4, pc}
  74              	.L4:
 113:C:/Users/²Ü¼ÒºÀ/.iotlink/sdk/IoT_LINK/iot_link/network/lwm2m/wakaama_lwm2m/wakaama-master/core\observe.c ****     }
  75              		.loc 1 113 9 is_stmt 1 view .LVU11
 113:C:/Users/²Ü¼ÒºÀ/.iotlink/sdk/IoT_LINK/iot_link/network/lwm2m/wakaama_lwm2m/wakaama-master/core\observe.c ****     }
  76              		.loc 1 113 17 is_stmt 0 view .LVU12
  77 002e 0068     		ldr	r0, [r0]
  78              	.LVL2:
 113:C:/Users/²Ü¼ÒºÀ/.iotlink/sdk/IoT_LINK/iot_link/network/lwm2m/wakaama_lwm2m/wakaama-master/core\observe.c ****     }
  79              		.loc 1 113 17 view .LVU13
  80 0030 E7E7     		b	.L2
  81              		.cfi_endproc
  82              	.LFE21:
  84              		.section	.text.prv_unlinkObserved.isra.0,"ax",%progbits
  85              		.align	1
  86              		.syntax unified
  87              		.thumb
  88              		.thumb_func
  89              		.fpu fpv4-sp-d16
  91              	prv_unlinkObserved.isra.0:
  92              	.LVL3:
  93              	.LFB22:
 118:C:/Users/²Ü¼ÒºÀ/.iotlink/sdk/IoT_LINK/iot_link/network/lwm2m/wakaama_lwm2m/wakaama-master/core\observe.c **** 
 119:C:/Users/²Ü¼ÒºÀ/.iotlink/sdk/IoT_LINK/iot_link/network/lwm2m/wakaama_lwm2m/wakaama-master/core\observe.c **** static void prv_unlinkObserved(lwm2m_context_t *contextP,
  94              		.loc 1 119 13 is_stmt 1 view -0
  95              		.cfi_startproc
  96              		@ args = 0, pretend = 0, frame = 0
  97              		@ frame_needed = 0, uses_anonymous_args = 0
  98              		@ link register save eliminated.
 120:C:/Users/²Ü¼ÒºÀ/.iotlink/sdk/IoT_LINK/iot_link/network/lwm2m/wakaama_lwm2m/wakaama-master/core\observe.c ****                                lwm2m_observed_t *observedP)
 121:C:/Users/²Ü¼ÒºÀ/.iotlink/sdk/IoT_LINK/iot_link/network/lwm2m/wakaama_lwm2m/wakaama-master/core\observe.c **** {
 122:C:/Users/²Ü¼ÒºÀ/.iotlink/sdk/IoT_LINK/iot_link/network/lwm2m/wakaama_lwm2m/wakaama-master/core\observe.c ****     if (contextP->observedList == observedP)
  99              		.loc 1 122 5 view .LVU15
 100              		.loc 1 122 17 is_stmt 0 view .LVU16
 101 0000 0368     		ldr	r3, [r0]
 102              		.loc 1 122 8 view .LVU17
 103 0002 8B42     		cmp	r3, r1
 104 0004 02D1     		bne	.L16
 123:C:/Users/²Ü¼ÒºÀ/.iotlink/sdk/IoT_LINK/iot_link/network/lwm2m/wakaama_lwm2m/wakaama-master/core\observe.c ****     {
 124:C:/Users/²Ü¼ÒºÀ/.iotlink/sdk/IoT_LINK/iot_link/network/lwm2m/wakaama_lwm2m/wakaama-master/core\observe.c ****         contextP->observedList = contextP->observedList->next;
ARM GAS  C:\Users\²Ü¼ÒºÀ\AppData\Local\Temp\ccA6NNYh.s 			page 5


 105              		.loc 1 124 9 is_stmt 1 view .LVU18
 106              		.loc 1 124 56 is_stmt 0 view .LVU19
 107 0006 1B68     		ldr	r3, [r3]
 108              		.loc 1 124 32 view .LVU20
 109 0008 0360     		str	r3, [r0]
 110 000a 7047     		bx	lr
 111              	.L16:
 112              	.LVL4:
 113              	.LBB10:
 125:C:/Users/²Ü¼ÒºÀ/.iotlink/sdk/IoT_LINK/iot_link/network/lwm2m/wakaama_lwm2m/wakaama-master/core\observe.c ****     }
 126:C:/Users/²Ü¼ÒºÀ/.iotlink/sdk/IoT_LINK/iot_link/network/lwm2m/wakaama_lwm2m/wakaama-master/core\observe.c ****     else
 127:C:/Users/²Ü¼ÒºÀ/.iotlink/sdk/IoT_LINK/iot_link/network/lwm2m/wakaama_lwm2m/wakaama-master/core\observe.c ****     {
 128:C:/Users/²Ü¼ÒºÀ/.iotlink/sdk/IoT_LINK/iot_link/network/lwm2m/wakaama_lwm2m/wakaama-master/core\observe.c ****         lwm2m_observed_t *parentP;
 129:C:/Users/²Ü¼ÒºÀ/.iotlink/sdk/IoT_LINK/iot_link/network/lwm2m/wakaama_lwm2m/wakaama-master/core\observe.c **** 
 130:C:/Users/²Ü¼ÒºÀ/.iotlink/sdk/IoT_LINK/iot_link/network/lwm2m/wakaama_lwm2m/wakaama-master/core\observe.c ****         parentP = contextP->observedList;
 131:C:/Users/²Ü¼ÒºÀ/.iotlink/sdk/IoT_LINK/iot_link/network/lwm2m/wakaama_lwm2m/wakaama-master/core\observe.c ****         while (parentP->next != NULL
 114              		.loc 1 131 15 is_stmt 1 view .LVU21
 115 000c 1A46     		mov	r2, r3
 116              		.loc 1 131 23 is_stmt 0 view .LVU22
 117 000e 1B68     		ldr	r3, [r3]
 118              	.LVL5:
 119              		.loc 1 131 15 view .LVU23
 120 0010 1BB1     		cbz	r3, .L15
 132:C:/Users/²Ü¼ÒºÀ/.iotlink/sdk/IoT_LINK/iot_link/network/lwm2m/wakaama_lwm2m/wakaama-master/core\observe.c ****                 && parentP->next != observedP)
 121              		.loc 1 132 17 view .LVU24
 122 0012 9942     		cmp	r1, r3
 123 0014 FAD1     		bne	.L16
 133:C:/Users/²Ü¼ÒºÀ/.iotlink/sdk/IoT_LINK/iot_link/network/lwm2m/wakaama_lwm2m/wakaama-master/core\observe.c ****         {
 134:C:/Users/²Ü¼ÒºÀ/.iotlink/sdk/IoT_LINK/iot_link/network/lwm2m/wakaama_lwm2m/wakaama-master/core\observe.c ****             parentP = parentP->next;
 135:C:/Users/²Ü¼ÒºÀ/.iotlink/sdk/IoT_LINK/iot_link/network/lwm2m/wakaama_lwm2m/wakaama-master/core\observe.c ****         }
 136:C:/Users/²Ü¼ÒºÀ/.iotlink/sdk/IoT_LINK/iot_link/network/lwm2m/wakaama_lwm2m/wakaama-master/core\observe.c ****         if (parentP->next != NULL)
 124              		.loc 1 136 9 is_stmt 1 view .LVU25
 137:C:/Users/²Ü¼ÒºÀ/.iotlink/sdk/IoT_LINK/iot_link/network/lwm2m/wakaama_lwm2m/wakaama-master/core\observe.c ****         {
 138:C:/Users/²Ü¼ÒºÀ/.iotlink/sdk/IoT_LINK/iot_link/network/lwm2m/wakaama_lwm2m/wakaama-master/core\observe.c ****             parentP->next = parentP->next->next;
 125              		.loc 1 138 13 view .LVU26
 126              		.loc 1 138 42 is_stmt 0 view .LVU27
 127 0016 0B68     		ldr	r3, [r1]
 128              		.loc 1 138 27 view .LVU28
 129 0018 1360     		str	r3, [r2]
 130              	.L15:
 131              		.loc 1 138 27 view .LVU29
 132              	.LBE10:
 139:C:/Users/²Ü¼ÒºÀ/.iotlink/sdk/IoT_LINK/iot_link/network/lwm2m/wakaama_lwm2m/wakaama-master/core\observe.c ****         }
 140:C:/Users/²Ü¼ÒºÀ/.iotlink/sdk/IoT_LINK/iot_link/network/lwm2m/wakaama_lwm2m/wakaama-master/core\observe.c ****     }
 141:C:/Users/²Ü¼ÒºÀ/.iotlink/sdk/IoT_LINK/iot_link/network/lwm2m/wakaama_lwm2m/wakaama-master/core\observe.c **** }
 133              		.loc 1 141 1 view .LVU30
 134 001a 7047     		bx	lr
 135              		.cfi_endproc
 136              	.LFE22:
 138              		.section	.text.prv_getWatcher,"ax",%progbits
 139              		.align	1
 140              		.syntax unified
 141              		.thumb
 142              		.thumb_func
 143              		.fpu fpv4-sp-d16
 145              	prv_getWatcher:
 146              	.LVL6:
ARM GAS  C:\Users\²Ü¼ÒºÀ\AppData\Local\Temp\ccA6NNYh.s 			page 6


 147              	.LFB8:
 142:C:/Users/²Ü¼ÒºÀ/.iotlink/sdk/IoT_LINK/iot_link/network/lwm2m/wakaama_lwm2m/wakaama-master/core\observe.c **** 
 143:C:/Users/²Ü¼ÒºÀ/.iotlink/sdk/IoT_LINK/iot_link/network/lwm2m/wakaama_lwm2m/wakaama-master/core\observe.c **** static lwm2m_watcher_t *prv_findWatcher(lwm2m_observed_t *observedP,
 144:C:/Users/²Ü¼ÒºÀ/.iotlink/sdk/IoT_LINK/iot_link/network/lwm2m/wakaama_lwm2m/wakaama-master/core\observe.c ****                                         lwm2m_server_t *serverP)
 145:C:/Users/²Ü¼ÒºÀ/.iotlink/sdk/IoT_LINK/iot_link/network/lwm2m/wakaama_lwm2m/wakaama-master/core\observe.c **** {
 146:C:/Users/²Ü¼ÒºÀ/.iotlink/sdk/IoT_LINK/iot_link/network/lwm2m/wakaama_lwm2m/wakaama-master/core\observe.c ****     lwm2m_watcher_t *targetP;
 147:C:/Users/²Ü¼ÒºÀ/.iotlink/sdk/IoT_LINK/iot_link/network/lwm2m/wakaama_lwm2m/wakaama-master/core\observe.c **** 
 148:C:/Users/²Ü¼ÒºÀ/.iotlink/sdk/IoT_LINK/iot_link/network/lwm2m/wakaama_lwm2m/wakaama-master/core\observe.c ****     targetP = observedP->watcherList;
 149:C:/Users/²Ü¼ÒºÀ/.iotlink/sdk/IoT_LINK/iot_link/network/lwm2m/wakaama_lwm2m/wakaama-master/core\observe.c ****     while (targetP != NULL
 150:C:/Users/²Ü¼ÒºÀ/.iotlink/sdk/IoT_LINK/iot_link/network/lwm2m/wakaama_lwm2m/wakaama-master/core\observe.c ****             && targetP->server != serverP)
 151:C:/Users/²Ü¼ÒºÀ/.iotlink/sdk/IoT_LINK/iot_link/network/lwm2m/wakaama_lwm2m/wakaama-master/core\observe.c ****     {
 152:C:/Users/²Ü¼ÒºÀ/.iotlink/sdk/IoT_LINK/iot_link/network/lwm2m/wakaama_lwm2m/wakaama-master/core\observe.c ****         targetP = targetP->next;
 153:C:/Users/²Ü¼ÒºÀ/.iotlink/sdk/IoT_LINK/iot_link/network/lwm2m/wakaama_lwm2m/wakaama-master/core\observe.c ****     }
 154:C:/Users/²Ü¼ÒºÀ/.iotlink/sdk/IoT_LINK/iot_link/network/lwm2m/wakaama_lwm2m/wakaama-master/core\observe.c **** 
 155:C:/Users/²Ü¼ÒºÀ/.iotlink/sdk/IoT_LINK/iot_link/network/lwm2m/wakaama_lwm2m/wakaama-master/core\observe.c ****     return targetP;
 156:C:/Users/²Ü¼ÒºÀ/.iotlink/sdk/IoT_LINK/iot_link/network/lwm2m/wakaama_lwm2m/wakaama-master/core\observe.c **** }
 157:C:/Users/²Ü¼ÒºÀ/.iotlink/sdk/IoT_LINK/iot_link/network/lwm2m/wakaama_lwm2m/wakaama-master/core\observe.c **** 
 158:C:/Users/²Ü¼ÒºÀ/.iotlink/sdk/IoT_LINK/iot_link/network/lwm2m/wakaama_lwm2m/wakaama-master/core\observe.c **** static lwm2m_watcher_t *prv_getWatcher(lwm2m_context_t *contextP,
 159:C:/Users/²Ü¼ÒºÀ/.iotlink/sdk/IoT_LINK/iot_link/network/lwm2m/wakaama_lwm2m/wakaama-master/core\observe.c ****                                        lwm2m_uri_t *uriP,
 160:C:/Users/²Ü¼ÒºÀ/.iotlink/sdk/IoT_LINK/iot_link/network/lwm2m/wakaama_lwm2m/wakaama-master/core\observe.c ****                                        lwm2m_server_t *serverP)
 161:C:/Users/²Ü¼ÒºÀ/.iotlink/sdk/IoT_LINK/iot_link/network/lwm2m/wakaama_lwm2m/wakaama-master/core\observe.c **** {
 148              		.loc 1 161 1 is_stmt 1 view -0
 149              		.cfi_startproc
 150              		@ args = 0, pretend = 0, frame = 0
 151              		@ frame_needed = 0, uses_anonymous_args = 0
 162:C:/Users/²Ü¼ÒºÀ/.iotlink/sdk/IoT_LINK/iot_link/network/lwm2m/wakaama_lwm2m/wakaama-master/core\observe.c ****     lwm2m_observed_t *observedP;
 152              		.loc 1 162 5 view .LVU32
 163:C:/Users/²Ü¼ÒºÀ/.iotlink/sdk/IoT_LINK/iot_link/network/lwm2m/wakaama_lwm2m/wakaama-master/core\observe.c ****     bool allocatedObserver;
 153              		.loc 1 163 5 view .LVU33
 164:C:/Users/²Ü¼ÒºÀ/.iotlink/sdk/IoT_LINK/iot_link/network/lwm2m/wakaama_lwm2m/wakaama-master/core\observe.c ****     lwm2m_watcher_t *watcherP;
 154              		.loc 1 164 5 view .LVU34
 165:C:/Users/²Ü¼ÒºÀ/.iotlink/sdk/IoT_LINK/iot_link/network/lwm2m/wakaama_lwm2m/wakaama-master/core\observe.c **** 
 166:C:/Users/²Ü¼ÒºÀ/.iotlink/sdk/IoT_LINK/iot_link/network/lwm2m/wakaama_lwm2m/wakaama-master/core\observe.c ****     allocatedObserver = false;
 155              		.loc 1 166 5 view .LVU35
 167:C:/Users/²Ü¼ÒºÀ/.iotlink/sdk/IoT_LINK/iot_link/network/lwm2m/wakaama_lwm2m/wakaama-master/core\observe.c **** 
 168:C:/Users/²Ü¼ÒºÀ/.iotlink/sdk/IoT_LINK/iot_link/network/lwm2m/wakaama_lwm2m/wakaama-master/core\observe.c ****     observedP = prv_findObserved(contextP, uriP);
 156              		.loc 1 168 5 view .LVU36
 161:C:/Users/²Ü¼ÒºÀ/.iotlink/sdk/IoT_LINK/iot_link/network/lwm2m/wakaama_lwm2m/wakaama-master/core\observe.c ****     lwm2m_observed_t *observedP;
 157              		.loc 1 161 1 is_stmt 0 view .LVU37
 158 0000 2DE9F041 		push	{r4, r5, r6, r7, r8, lr}
 159              	.LCFI1:
 160              		.cfi_def_cfa_offset 24
 161              		.cfi_offset 4, -24
 162              		.cfi_offset 5, -20
 163              		.cfi_offset 6, -16
 164              		.cfi_offset 7, -12
 165              		.cfi_offset 8, -8
 166              		.cfi_offset 14, -4
 161:C:/Users/²Ü¼ÒºÀ/.iotlink/sdk/IoT_LINK/iot_link/network/lwm2m/wakaama_lwm2m/wakaama-master/core\observe.c ****     lwm2m_observed_t *observedP;
 167              		.loc 1 161 1 view .LVU38
 168 0004 0646     		mov	r6, r0
 169              		.loc 1 168 17 view .LVU39
 170 0006 C069     		ldr	r0, [r0, #28]
 171              	.LVL7:
 161:C:/Users/²Ü¼ÒºÀ/.iotlink/sdk/IoT_LINK/iot_link/network/lwm2m/wakaama_lwm2m/wakaama-master/core\observe.c ****     lwm2m_observed_t *observedP;
 172              		.loc 1 161 1 view .LVU40
 173 0008 0D46     		mov	r5, r1
ARM GAS  C:\Users\²Ü¼ÒºÀ\AppData\Local\Temp\ccA6NNYh.s 			page 7


 174 000a 1746     		mov	r7, r2
 175              		.loc 1 168 17 view .LVU41
 176 000c FFF7FEFF 		bl	prv_findObserved.isra.0
 177              	.LVL8:
 169:C:/Users/²Ü¼ÒºÀ/.iotlink/sdk/IoT_LINK/iot_link/network/lwm2m/wakaama_lwm2m/wakaama-master/core\observe.c ****     if (observedP == NULL)
 178              		.loc 1 169 5 is_stmt 1 view .LVU42
 179              		.loc 1 169 8 is_stmt 0 view .LVU43
 180 0010 0446     		mov	r4, r0
 181 0012 10BB     		cbnz	r0, .L34
 170:C:/Users/²Ü¼ÒºÀ/.iotlink/sdk/IoT_LINK/iot_link/network/lwm2m/wakaama_lwm2m/wakaama-master/core\observe.c ****     {
 171:C:/Users/²Ü¼ÒºÀ/.iotlink/sdk/IoT_LINK/iot_link/network/lwm2m/wakaama_lwm2m/wakaama-master/core\observe.c ****         observedP = (lwm2m_observed_t *)lwm2m_malloc(sizeof(lwm2m_observed_t));
 182              		.loc 1 171 9 is_stmt 1 view .LVU44
 183              		.loc 1 171 41 is_stmt 0 view .LVU45
 184 0014 1020     		movs	r0, #16
 185              	.LVL9:
 186              		.loc 1 171 41 view .LVU46
 187 0016 FFF7FEFF 		bl	lwm2m_malloc
 188              	.LVL10:
 172:C:/Users/²Ü¼ÒºÀ/.iotlink/sdk/IoT_LINK/iot_link/network/lwm2m/wakaama_lwm2m/wakaama-master/core\observe.c ****         if (observedP == NULL) return NULL;
 189              		.loc 1 172 9 is_stmt 1 view .LVU47
 190              		.loc 1 172 12 is_stmt 0 view .LVU48
 191 001a 0446     		mov	r4, r0
 192 001c 18B9     		cbnz	r0, .L26
 193              	.LVL11:
 194              	.L31:
 195              		.loc 1 172 39 view .LVU49
 196 001e 0025     		movs	r5, #0
 197              	.L24:
 173:C:/Users/²Ü¼ÒºÀ/.iotlink/sdk/IoT_LINK/iot_link/network/lwm2m/wakaama_lwm2m/wakaama-master/core\observe.c ****         allocatedObserver = true;
 174:C:/Users/²Ü¼ÒºÀ/.iotlink/sdk/IoT_LINK/iot_link/network/lwm2m/wakaama_lwm2m/wakaama-master/core\observe.c ****         memset(observedP, 0, sizeof(lwm2m_observed_t));
 175:C:/Users/²Ü¼ÒºÀ/.iotlink/sdk/IoT_LINK/iot_link/network/lwm2m/wakaama_lwm2m/wakaama-master/core\observe.c ****         memcpy(&(observedP->uri), uriP, sizeof(lwm2m_uri_t));
 176:C:/Users/²Ü¼ÒºÀ/.iotlink/sdk/IoT_LINK/iot_link/network/lwm2m/wakaama_lwm2m/wakaama-master/core\observe.c ****         osal_mutex_lock(contextP->observe_mutex);
 177:C:/Users/²Ü¼ÒºÀ/.iotlink/sdk/IoT_LINK/iot_link/network/lwm2m/wakaama_lwm2m/wakaama-master/core\observe.c ****         observedP->next = contextP->observedList;
 178:C:/Users/²Ü¼ÒºÀ/.iotlink/sdk/IoT_LINK/iot_link/network/lwm2m/wakaama_lwm2m/wakaama-master/core\observe.c ****         contextP->observedList = observedP;
 179:C:/Users/²Ü¼ÒºÀ/.iotlink/sdk/IoT_LINK/iot_link/network/lwm2m/wakaama_lwm2m/wakaama-master/core\observe.c ****         (void) osal_mutex_unlock(contextP->observe_mutex);
 180:C:/Users/²Ü¼ÒºÀ/.iotlink/sdk/IoT_LINK/iot_link/network/lwm2m/wakaama_lwm2m/wakaama-master/core\observe.c ****     }
 181:C:/Users/²Ü¼ÒºÀ/.iotlink/sdk/IoT_LINK/iot_link/network/lwm2m/wakaama_lwm2m/wakaama-master/core\observe.c **** 
 182:C:/Users/²Ü¼ÒºÀ/.iotlink/sdk/IoT_LINK/iot_link/network/lwm2m/wakaama_lwm2m/wakaama-master/core\observe.c ****     watcherP = prv_findWatcher(observedP, serverP);
 183:C:/Users/²Ü¼ÒºÀ/.iotlink/sdk/IoT_LINK/iot_link/network/lwm2m/wakaama_lwm2m/wakaama-master/core\observe.c ****     if (watcherP == NULL)
 184:C:/Users/²Ü¼ÒºÀ/.iotlink/sdk/IoT_LINK/iot_link/network/lwm2m/wakaama_lwm2m/wakaama-master/core\observe.c ****     {
 185:C:/Users/²Ü¼ÒºÀ/.iotlink/sdk/IoT_LINK/iot_link/network/lwm2m/wakaama_lwm2m/wakaama-master/core\observe.c ****         watcherP = (lwm2m_watcher_t *)lwm2m_malloc(sizeof(lwm2m_watcher_t));
 186:C:/Users/²Ü¼ÒºÀ/.iotlink/sdk/IoT_LINK/iot_link/network/lwm2m/wakaama_lwm2m/wakaama-master/core\observe.c ****         if (watcherP == NULL)
 187:C:/Users/²Ü¼ÒºÀ/.iotlink/sdk/IoT_LINK/iot_link/network/lwm2m/wakaama_lwm2m/wakaama-master/core\observe.c ****         {
 188:C:/Users/²Ü¼ÒºÀ/.iotlink/sdk/IoT_LINK/iot_link/network/lwm2m/wakaama_lwm2m/wakaama-master/core\observe.c ****             if (allocatedObserver == true)
 189:C:/Users/²Ü¼ÒºÀ/.iotlink/sdk/IoT_LINK/iot_link/network/lwm2m/wakaama_lwm2m/wakaama-master/core\observe.c ****             {
 190:C:/Users/²Ü¼ÒºÀ/.iotlink/sdk/IoT_LINK/iot_link/network/lwm2m/wakaama_lwm2m/wakaama-master/core\observe.c ****                 lwm2m_free(observedP);
 191:C:/Users/²Ü¼ÒºÀ/.iotlink/sdk/IoT_LINK/iot_link/network/lwm2m/wakaama_lwm2m/wakaama-master/core\observe.c ****             }
 192:C:/Users/²Ü¼ÒºÀ/.iotlink/sdk/IoT_LINK/iot_link/network/lwm2m/wakaama_lwm2m/wakaama-master/core\observe.c ****             return NULL;
 193:C:/Users/²Ü¼ÒºÀ/.iotlink/sdk/IoT_LINK/iot_link/network/lwm2m/wakaama_lwm2m/wakaama-master/core\observe.c ****         }
 194:C:/Users/²Ü¼ÒºÀ/.iotlink/sdk/IoT_LINK/iot_link/network/lwm2m/wakaama_lwm2m/wakaama-master/core\observe.c ****         memset(watcherP, 0, sizeof(lwm2m_watcher_t));
 195:C:/Users/²Ü¼ÒºÀ/.iotlink/sdk/IoT_LINK/iot_link/network/lwm2m/wakaama_lwm2m/wakaama-master/core\observe.c ****         watcherP->active = false;
 196:C:/Users/²Ü¼ÒºÀ/.iotlink/sdk/IoT_LINK/iot_link/network/lwm2m/wakaama_lwm2m/wakaama-master/core\observe.c ****         watcherP->server = serverP;
 197:C:/Users/²Ü¼ÒºÀ/.iotlink/sdk/IoT_LINK/iot_link/network/lwm2m/wakaama_lwm2m/wakaama-master/core\observe.c ****         osal_mutex_lock(contextP->observe_mutex);
 198:C:/Users/²Ü¼ÒºÀ/.iotlink/sdk/IoT_LINK/iot_link/network/lwm2m/wakaama_lwm2m/wakaama-master/core\observe.c ****         watcherP->next = observedP->watcherList;
 199:C:/Users/²Ü¼ÒºÀ/.iotlink/sdk/IoT_LINK/iot_link/network/lwm2m/wakaama_lwm2m/wakaama-master/core\observe.c ****         observedP->watcherList = watcherP;
 200:C:/Users/²Ü¼ÒºÀ/.iotlink/sdk/IoT_LINK/iot_link/network/lwm2m/wakaama_lwm2m/wakaama-master/core\observe.c ****         (void) osal_mutex_unlock(contextP->observe_mutex);
 201:C:/Users/²Ü¼ÒºÀ/.iotlink/sdk/IoT_LINK/iot_link/network/lwm2m/wakaama_lwm2m/wakaama-master/core\observe.c ****     }
ARM GAS  C:\Users\²Ü¼ÒºÀ\AppData\Local\Temp\ccA6NNYh.s 			page 8


 202:C:/Users/²Ü¼ÒºÀ/.iotlink/sdk/IoT_LINK/iot_link/network/lwm2m/wakaama_lwm2m/wakaama-master/core\observe.c **** 
 203:C:/Users/²Ü¼ÒºÀ/.iotlink/sdk/IoT_LINK/iot_link/network/lwm2m/wakaama_lwm2m/wakaama-master/core\observe.c ****     return watcherP;
 204:C:/Users/²Ü¼ÒºÀ/.iotlink/sdk/IoT_LINK/iot_link/network/lwm2m/wakaama_lwm2m/wakaama-master/core\observe.c **** }
 198              		.loc 1 204 1 view .LVU50
 199 0020 2846     		mov	r0, r5
 200 0022 BDE8F081 		pop	{r4, r5, r6, r7, r8, pc}
 201              	.LVL12:
 202              	.L26:
 173:C:/Users/²Ü¼ÒºÀ/.iotlink/sdk/IoT_LINK/iot_link/network/lwm2m/wakaama_lwm2m/wakaama-master/core\observe.c ****         allocatedObserver = true;
 203              		.loc 1 173 9 is_stmt 1 view .LVU51
 174:C:/Users/²Ü¼ÒºÀ/.iotlink/sdk/IoT_LINK/iot_link/network/lwm2m/wakaama_lwm2m/wakaama-master/core\observe.c ****         memcpy(&(observedP->uri), uriP, sizeof(lwm2m_uri_t));
 204              		.loc 1 174 9 view .LVU52
 205 0026 1022     		movs	r2, #16
 206 0028 0021     		movs	r1, #0
 207 002a FFF7FEFF 		bl	memset
 208              	.LVL13:
 175:C:/Users/²Ü¼ÒºÀ/.iotlink/sdk/IoT_LINK/iot_link/network/lwm2m/wakaama_lwm2m/wakaama-master/core\observe.c ****         osal_mutex_lock(contextP->observe_mutex);
 209              		.loc 1 175 9 view .LVU53
 210 002e 2B68     		ldr	r3, [r5]	@ unaligned
 211 0030 6360     		str	r3, [r4, #4]	@ unaligned
 212 0032 6B68     		ldr	r3, [r5, #4]	@ unaligned
 213 0034 A360     		str	r3, [r4, #8]	@ unaligned
 176:C:/Users/²Ü¼ÒºÀ/.iotlink/sdk/IoT_LINK/iot_link/network/lwm2m/wakaama_lwm2m/wakaama-master/core\observe.c ****         observedP->next = contextP->observedList;
 214              		.loc 1 176 9 view .LVU54
 215 0036 306A     		ldr	r0, [r6, #32]
 216 0038 FFF7FEFF 		bl	osal_mutex_lock
 217              	.LVL14:
 177:C:/Users/²Ü¼ÒºÀ/.iotlink/sdk/IoT_LINK/iot_link/network/lwm2m/wakaama_lwm2m/wakaama-master/core\observe.c ****         contextP->observedList = observedP;
 218              		.loc 1 177 9 view .LVU55
 177:C:/Users/²Ü¼ÒºÀ/.iotlink/sdk/IoT_LINK/iot_link/network/lwm2m/wakaama_lwm2m/wakaama-master/core\observe.c ****         contextP->observedList = observedP;
 219              		.loc 1 177 25 is_stmt 0 view .LVU56
 220 003c F369     		ldr	r3, [r6, #28]
 221 003e 2360     		str	r3, [r4]
 178:C:/Users/²Ü¼ÒºÀ/.iotlink/sdk/IoT_LINK/iot_link/network/lwm2m/wakaama_lwm2m/wakaama-master/core\observe.c ****         (void) osal_mutex_unlock(contextP->observe_mutex);
 222              		.loc 1 178 9 is_stmt 1 view .LVU57
 179:C:/Users/²Ü¼ÒºÀ/.iotlink/sdk/IoT_LINK/iot_link/network/lwm2m/wakaama_lwm2m/wakaama-master/core\observe.c ****     }
 223              		.loc 1 179 16 is_stmt 0 view .LVU58
 224 0040 306A     		ldr	r0, [r6, #32]
 178:C:/Users/²Ü¼ÒºÀ/.iotlink/sdk/IoT_LINK/iot_link/network/lwm2m/wakaama_lwm2m/wakaama-master/core\observe.c ****         (void) osal_mutex_unlock(contextP->observe_mutex);
 225              		.loc 1 178 32 view .LVU59
 226 0042 F461     		str	r4, [r6, #28]
 179:C:/Users/²Ü¼ÒºÀ/.iotlink/sdk/IoT_LINK/iot_link/network/lwm2m/wakaama_lwm2m/wakaama-master/core\observe.c ****     }
 227              		.loc 1 179 9 is_stmt 1 view .LVU60
 179:C:/Users/²Ü¼ÒºÀ/.iotlink/sdk/IoT_LINK/iot_link/network/lwm2m/wakaama_lwm2m/wakaama-master/core\observe.c ****     }
 228              		.loc 1 179 16 is_stmt 0 view .LVU61
 229 0044 FFF7FEFF 		bl	osal_mutex_unlock
 230              	.LVL15:
 173:C:/Users/²Ü¼ÒºÀ/.iotlink/sdk/IoT_LINK/iot_link/network/lwm2m/wakaama_lwm2m/wakaama-master/core\observe.c ****         memset(observedP, 0, sizeof(lwm2m_observed_t));
 231              		.loc 1 173 27 view .LVU62
 232 0048 4FF00108 		mov	r8, #1
 233              	.LVL16:
 234              	.L25:
 182:C:/Users/²Ü¼ÒºÀ/.iotlink/sdk/IoT_LINK/iot_link/network/lwm2m/wakaama_lwm2m/wakaama-master/core\observe.c ****     if (watcherP == NULL)
 235              		.loc 1 182 5 is_stmt 1 view .LVU63
 182:C:/Users/²Ü¼ÒºÀ/.iotlink/sdk/IoT_LINK/iot_link/network/lwm2m/wakaama_lwm2m/wakaama-master/core\observe.c ****     if (watcherP == NULL)
 236              		.loc 1 182 16 is_stmt 0 view .LVU64
 237 004c E568     		ldr	r5, [r4, #12]
ARM GAS  C:\Users\²Ü¼ÒºÀ\AppData\Local\Temp\ccA6NNYh.s 			page 9


 238              	.LVL17:
 239              	.LBB13:
 240              	.LBI13:
 143:C:/Users/²Ü¼ÒºÀ/.iotlink/sdk/IoT_LINK/iot_link/network/lwm2m/wakaama_lwm2m/wakaama-master/core\observe.c ****                                         lwm2m_server_t *serverP)
 241              		.loc 1 143 25 is_stmt 1 view .LVU65
 242              	.LBB14:
 146:C:/Users/²Ü¼ÒºÀ/.iotlink/sdk/IoT_LINK/iot_link/network/lwm2m/wakaama_lwm2m/wakaama-master/core\observe.c **** 
 243              		.loc 1 146 5 view .LVU66
 148:C:/Users/²Ü¼ÒºÀ/.iotlink/sdk/IoT_LINK/iot_link/network/lwm2m/wakaama_lwm2m/wakaama-master/core\observe.c ****     while (targetP != NULL
 244              		.loc 1 148 5 view .LVU67
 149:C:/Users/²Ü¼ÒºÀ/.iotlink/sdk/IoT_LINK/iot_link/network/lwm2m/wakaama_lwm2m/wakaama-master/core\observe.c ****             && targetP->server != serverP)
 245              		.loc 1 149 5 view .LVU68
 246              	.L28:
 149:C:/Users/²Ü¼ÒºÀ/.iotlink/sdk/IoT_LINK/iot_link/network/lwm2m/wakaama_lwm2m/wakaama-master/core\observe.c ****             && targetP->server != serverP)
 247              		.loc 1 149 11 view .LVU69
 248 004e C5B1     		cbz	r5, .L29
 150:C:/Users/²Ü¼ÒºÀ/.iotlink/sdk/IoT_LINK/iot_link/network/lwm2m/wakaama_lwm2m/wakaama-master/core\observe.c ****     {
 249              		.loc 1 150 13 is_stmt 0 view .LVU70
 250 0050 AB68     		ldr	r3, [r5, #8]
 251 0052 9F42     		cmp	r7, r3
 252 0054 E4D0     		beq	.L24
 152:C:/Users/²Ü¼ÒºÀ/.iotlink/sdk/IoT_LINK/iot_link/network/lwm2m/wakaama_lwm2m/wakaama-master/core\observe.c ****     }
 253              		.loc 1 152 9 is_stmt 1 view .LVU71
 152:C:/Users/²Ü¼ÒºÀ/.iotlink/sdk/IoT_LINK/iot_link/network/lwm2m/wakaama_lwm2m/wakaama-master/core\observe.c ****     }
 254              		.loc 1 152 17 is_stmt 0 view .LVU72
 255 0056 2D68     		ldr	r5, [r5]
 256              	.LVL18:
 152:C:/Users/²Ü¼ÒºÀ/.iotlink/sdk/IoT_LINK/iot_link/network/lwm2m/wakaama_lwm2m/wakaama-master/core\observe.c ****     }
 257              		.loc 1 152 17 view .LVU73
 258 0058 F9E7     		b	.L28
 259              	.LVL19:
 260              	.L34:
 152:C:/Users/²Ü¼ÒºÀ/.iotlink/sdk/IoT_LINK/iot_link/network/lwm2m/wakaama_lwm2m/wakaama-master/core\observe.c ****     }
 261              		.loc 1 152 17 view .LVU74
 262              	.LBE14:
 263              	.LBE13:
 166:C:/Users/²Ü¼ÒºÀ/.iotlink/sdk/IoT_LINK/iot_link/network/lwm2m/wakaama_lwm2m/wakaama-master/core\observe.c **** 
 264              		.loc 1 166 23 view .LVU75
 265 005a 4FF00008 		mov	r8, #0
 266 005e F5E7     		b	.L25
 267              	.LVL20:
 268              	.L38:
 194:C:/Users/²Ü¼ÒºÀ/.iotlink/sdk/IoT_LINK/iot_link/network/lwm2m/wakaama_lwm2m/wakaama-master/core\observe.c ****         watcherP->active = false;
 269              		.loc 1 194 9 is_stmt 1 view .LVU76
 270 0060 3822     		movs	r2, #56
 271 0062 0021     		movs	r1, #0
 272 0064 FFF7FEFF 		bl	memset
 273              	.LVL21:
 195:C:/Users/²Ü¼ÒºÀ/.iotlink/sdk/IoT_LINK/iot_link/network/lwm2m/wakaama_lwm2m/wakaama-master/core\observe.c ****         watcherP->server = serverP;
 274              		.loc 1 195 9 view .LVU77
 195:C:/Users/²Ü¼ÒºÀ/.iotlink/sdk/IoT_LINK/iot_link/network/lwm2m/wakaama_lwm2m/wakaama-master/core\observe.c ****         watcherP->server = serverP;
 275              		.loc 1 195 26 is_stmt 0 view .LVU78
 276 0068 0023     		movs	r3, #0
 277 006a 2B71     		strb	r3, [r5, #4]
 196:C:/Users/²Ü¼ÒºÀ/.iotlink/sdk/IoT_LINK/iot_link/network/lwm2m/wakaama_lwm2m/wakaama-master/core\observe.c ****         osal_mutex_lock(contextP->observe_mutex);
 278              		.loc 1 196 9 is_stmt 1 view .LVU79
 197:C:/Users/²Ü¼ÒºÀ/.iotlink/sdk/IoT_LINK/iot_link/network/lwm2m/wakaama_lwm2m/wakaama-master/core\observe.c ****         watcherP->next = observedP->watcherList;
ARM GAS  C:\Users\²Ü¼ÒºÀ\AppData\Local\Temp\ccA6NNYh.s 			page 10


 279              		.loc 1 197 9 is_stmt 0 view .LVU80
 280 006c 306A     		ldr	r0, [r6, #32]
 196:C:/Users/²Ü¼ÒºÀ/.iotlink/sdk/IoT_LINK/iot_link/network/lwm2m/wakaama_lwm2m/wakaama-master/core\observe.c ****         osal_mutex_lock(contextP->observe_mutex);
 281              		.loc 1 196 26 view .LVU81
 282 006e AF60     		str	r7, [r5, #8]
 197:C:/Users/²Ü¼ÒºÀ/.iotlink/sdk/IoT_LINK/iot_link/network/lwm2m/wakaama_lwm2m/wakaama-master/core\observe.c ****         watcherP->next = observedP->watcherList;
 283              		.loc 1 197 9 is_stmt 1 view .LVU82
 284 0070 FFF7FEFF 		bl	osal_mutex_lock
 285              	.LVL22:
 198:C:/Users/²Ü¼ÒºÀ/.iotlink/sdk/IoT_LINK/iot_link/network/lwm2m/wakaama_lwm2m/wakaama-master/core\observe.c ****         observedP->watcherList = watcherP;
 286              		.loc 1 198 9 view .LVU83
 198:C:/Users/²Ü¼ÒºÀ/.iotlink/sdk/IoT_LINK/iot_link/network/lwm2m/wakaama_lwm2m/wakaama-master/core\observe.c ****         observedP->watcherList = watcherP;
 287              		.loc 1 198 24 is_stmt 0 view .LVU84
 288 0074 E368     		ldr	r3, [r4, #12]
 289 0076 2B60     		str	r3, [r5]
 199:C:/Users/²Ü¼ÒºÀ/.iotlink/sdk/IoT_LINK/iot_link/network/lwm2m/wakaama_lwm2m/wakaama-master/core\observe.c ****         (void) osal_mutex_unlock(contextP->observe_mutex);
 290              		.loc 1 199 9 is_stmt 1 view .LVU85
 200:C:/Users/²Ü¼ÒºÀ/.iotlink/sdk/IoT_LINK/iot_link/network/lwm2m/wakaama_lwm2m/wakaama-master/core\observe.c ****     }
 291              		.loc 1 200 16 is_stmt 0 view .LVU86
 292 0078 306A     		ldr	r0, [r6, #32]
 199:C:/Users/²Ü¼ÒºÀ/.iotlink/sdk/IoT_LINK/iot_link/network/lwm2m/wakaama_lwm2m/wakaama-master/core\observe.c ****         (void) osal_mutex_unlock(contextP->observe_mutex);
 293              		.loc 1 199 32 view .LVU87
 294 007a E560     		str	r5, [r4, #12]
 200:C:/Users/²Ü¼ÒºÀ/.iotlink/sdk/IoT_LINK/iot_link/network/lwm2m/wakaama_lwm2m/wakaama-master/core\observe.c ****     }
 295              		.loc 1 200 9 is_stmt 1 view .LVU88
 200:C:/Users/²Ü¼ÒºÀ/.iotlink/sdk/IoT_LINK/iot_link/network/lwm2m/wakaama_lwm2m/wakaama-master/core\observe.c ****     }
 296              		.loc 1 200 16 is_stmt 0 view .LVU89
 297 007c FFF7FEFF 		bl	osal_mutex_unlock
 298              	.LVL23:
 200:C:/Users/²Ü¼ÒºÀ/.iotlink/sdk/IoT_LINK/iot_link/network/lwm2m/wakaama_lwm2m/wakaama-master/core\observe.c ****     }
 299              		.loc 1 200 16 view .LVU90
 300 0080 CEE7     		b	.L24
 301              	.LVL24:
 302              	.L29:
 303              	.LBB16:
 304              	.LBB15:
 155:C:/Users/²Ü¼ÒºÀ/.iotlink/sdk/IoT_LINK/iot_link/network/lwm2m/wakaama_lwm2m/wakaama-master/core\observe.c **** }
 305              		.loc 1 155 5 is_stmt 1 view .LVU91
 155:C:/Users/²Ü¼ÒºÀ/.iotlink/sdk/IoT_LINK/iot_link/network/lwm2m/wakaama_lwm2m/wakaama-master/core\observe.c **** }
 306              		.loc 1 155 5 is_stmt 0 view .LVU92
 307              	.LBE15:
 308              	.LBE16:
 183:C:/Users/²Ü¼ÒºÀ/.iotlink/sdk/IoT_LINK/iot_link/network/lwm2m/wakaama_lwm2m/wakaama-master/core\observe.c ****     {
 309              		.loc 1 183 5 is_stmt 1 view .LVU93
 185:C:/Users/²Ü¼ÒºÀ/.iotlink/sdk/IoT_LINK/iot_link/network/lwm2m/wakaama_lwm2m/wakaama-master/core\observe.c ****         if (watcherP == NULL)
 310              		.loc 1 185 9 view .LVU94
 185:C:/Users/²Ü¼ÒºÀ/.iotlink/sdk/IoT_LINK/iot_link/network/lwm2m/wakaama_lwm2m/wakaama-master/core\observe.c ****         if (watcherP == NULL)
 311              		.loc 1 185 39 is_stmt 0 view .LVU95
 312 0082 3820     		movs	r0, #56
 313 0084 FFF7FEFF 		bl	lwm2m_malloc
 314              	.LVL25:
 186:C:/Users/²Ü¼ÒºÀ/.iotlink/sdk/IoT_LINK/iot_link/network/lwm2m/wakaama_lwm2m/wakaama-master/core\observe.c ****         {
 315              		.loc 1 186 9 is_stmt 1 view .LVU96
 186:C:/Users/²Ü¼ÒºÀ/.iotlink/sdk/IoT_LINK/iot_link/network/lwm2m/wakaama_lwm2m/wakaama-master/core\observe.c ****         {
 316              		.loc 1 186 12 is_stmt 0 view .LVU97
 317 0088 0546     		mov	r5, r0
 318 008a 0028     		cmp	r0, #0
ARM GAS  C:\Users\²Ü¼ÒºÀ\AppData\Local\Temp\ccA6NNYh.s 			page 11


 319 008c E8D1     		bne	.L38
 188:C:/Users/²Ü¼ÒºÀ/.iotlink/sdk/IoT_LINK/iot_link/network/lwm2m/wakaama_lwm2m/wakaama-master/core\observe.c ****             {
 320              		.loc 1 188 13 is_stmt 1 view .LVU98
 188:C:/Users/²Ü¼ÒºÀ/.iotlink/sdk/IoT_LINK/iot_link/network/lwm2m/wakaama_lwm2m/wakaama-master/core\observe.c ****             {
 321              		.loc 1 188 16 is_stmt 0 view .LVU99
 322 008e B8F1000F 		cmp	r8, #0
 323 0092 C4D0     		beq	.L31
 190:C:/Users/²Ü¼ÒºÀ/.iotlink/sdk/IoT_LINK/iot_link/network/lwm2m/wakaama_lwm2m/wakaama-master/core\observe.c ****             }
 324              		.loc 1 190 17 is_stmt 1 view .LVU100
 325 0094 2046     		mov	r0, r4
 326              	.LVL26:
 190:C:/Users/²Ü¼ÒºÀ/.iotlink/sdk/IoT_LINK/iot_link/network/lwm2m/wakaama_lwm2m/wakaama-master/core\observe.c ****             }
 327              		.loc 1 190 17 is_stmt 0 view .LVU101
 328 0096 FFF7FEFF 		bl	lwm2m_free
 329              	.LVL27:
 330 009a C1E7     		b	.L24
 331              		.cfi_endproc
 332              	.LFE8:
 334              		.section	.text.lwm2m_register_observe_ack_call_back,"ax",%progbits
 335              		.align	1
 336              		.global	lwm2m_register_observe_ack_call_back
 337              		.syntax unified
 338              		.thumb
 339              		.thumb_func
 340              		.fpu fpv4-sp-d16
 342              	lwm2m_register_observe_ack_call_back:
 343              	.LVL28:
 344              	.LFB4:
  96:C:/Users/²Ü¼ÒºÀ/.iotlink/sdk/IoT_LINK/iot_link/network/lwm2m/wakaama_lwm2m/wakaama-master/core\observe.c ****     observe_call_back = callback;
 345              		.loc 1 96 1 is_stmt 1 view -0
 346              		.cfi_startproc
 347              		@ args = 0, pretend = 0, frame = 0
 348              		@ frame_needed = 0, uses_anonymous_args = 0
 349              		@ link register save eliminated.
  97:C:/Users/²Ü¼ÒºÀ/.iotlink/sdk/IoT_LINK/iot_link/network/lwm2m/wakaama_lwm2m/wakaama-master/core\observe.c **** }
 350              		.loc 1 97 5 view .LVU103
  97:C:/Users/²Ü¼ÒºÀ/.iotlink/sdk/IoT_LINK/iot_link/network/lwm2m/wakaama_lwm2m/wakaama-master/core\observe.c **** }
 351              		.loc 1 97 23 is_stmt 0 view .LVU104
 352 0000 014B     		ldr	r3, .L40
 353 0002 1860     		str	r0, [r3]
  98:C:/Users/²Ü¼ÒºÀ/.iotlink/sdk/IoT_LINK/iot_link/network/lwm2m/wakaama_lwm2m/wakaama-master/core\observe.c **** 
 354              		.loc 1 98 1 view .LVU105
 355 0004 7047     		bx	lr
 356              	.L41:
 357 0006 00BF     		.align	2
 358              	.L40:
 359 0008 00000000 		.word	.LANCHOR0
 360              		.cfi_endproc
 361              	.LFE4:
 363              		.section	.rodata.observe_cancel.str1.1,"aMS",%progbits,1
 364              	.LC0:
 365 0000 5B25735D 		.ascii	"[%s][%u][%s] [%d][%s:%d] mid: %d\015\012\015\012\000"
 365      5B25755D 
 365      5B25735D 
 365      205B2564 
 365      5D5B2573 
 366              		.section	.text.observe_cancel,"ax",%progbits
ARM GAS  C:\Users\²Ü¼ÒºÀ\AppData\Local\Temp\ccA6NNYh.s 			page 12


 367              		.align	1
 368              		.global	observe_cancel
 369              		.syntax unified
 370              		.thumb
 371              		.thumb_func
 372              		.fpu fpv4-sp-d16
 374              	observe_cancel:
 375              	.LVL29:
 376              	.LFB10:
 205:C:/Users/²Ü¼ÒºÀ/.iotlink/sdk/IoT_LINK/iot_link/network/lwm2m/wakaama_lwm2m/wakaama-master/core\observe.c **** 
 206:C:/Users/²Ü¼ÒºÀ/.iotlink/sdk/IoT_LINK/iot_link/network/lwm2m/wakaama_lwm2m/wakaama-master/core\observe.c **** uint8_t observe_handleRequest(lwm2m_context_t *contextP,
 207:C:/Users/²Ü¼ÒºÀ/.iotlink/sdk/IoT_LINK/iot_link/network/lwm2m/wakaama_lwm2m/wakaama-master/core\observe.c ****                               lwm2m_uri_t *uriP,
 208:C:/Users/²Ü¼ÒºÀ/.iotlink/sdk/IoT_LINK/iot_link/network/lwm2m/wakaama_lwm2m/wakaama-master/core\observe.c ****                               lwm2m_server_t *serverP,
 209:C:/Users/²Ü¼ÒºÀ/.iotlink/sdk/IoT_LINK/iot_link/network/lwm2m/wakaama_lwm2m/wakaama-master/core\observe.c ****                               int size,
 210:C:/Users/²Ü¼ÒºÀ/.iotlink/sdk/IoT_LINK/iot_link/network/lwm2m/wakaama_lwm2m/wakaama-master/core\observe.c ****                               lwm2m_data_t *dataP,
 211:C:/Users/²Ü¼ÒºÀ/.iotlink/sdk/IoT_LINK/iot_link/network/lwm2m/wakaama_lwm2m/wakaama-master/core\observe.c ****                               coap_packet_t *message,
 212:C:/Users/²Ü¼ÒºÀ/.iotlink/sdk/IoT_LINK/iot_link/network/lwm2m/wakaama_lwm2m/wakaama-master/core\observe.c ****                               coap_packet_t *response)
 213:C:/Users/²Ü¼ÒºÀ/.iotlink/sdk/IoT_LINK/iot_link/network/lwm2m/wakaama_lwm2m/wakaama-master/core\observe.c **** {
 214:C:/Users/²Ü¼ÒºÀ/.iotlink/sdk/IoT_LINK/iot_link/network/lwm2m/wakaama_lwm2m/wakaama-master/core\observe.c ****     lwm2m_observed_t * observedP;
 215:C:/Users/²Ü¼ÒºÀ/.iotlink/sdk/IoT_LINK/iot_link/network/lwm2m/wakaama_lwm2m/wakaama-master/core\observe.c ****     lwm2m_watcher_t *watcherP;
 216:C:/Users/²Ü¼ÒºÀ/.iotlink/sdk/IoT_LINK/iot_link/network/lwm2m/wakaama_lwm2m/wakaama-master/core\observe.c ****     uint32_t count;
 217:C:/Users/²Ü¼ÒºÀ/.iotlink/sdk/IoT_LINK/iot_link/network/lwm2m/wakaama_lwm2m/wakaama-master/core\observe.c **** 
 218:C:/Users/²Ü¼ÒºÀ/.iotlink/sdk/IoT_LINK/iot_link/network/lwm2m/wakaama_lwm2m/wakaama-master/core\observe.c ****     LOG_ARG("Code: %02X, server status: %s", message->code, STR_STATUS(serverP->status));
 219:C:/Users/²Ü¼ÒºÀ/.iotlink/sdk/IoT_LINK/iot_link/network/lwm2m/wakaama_lwm2m/wakaama-master/core\observe.c ****     LOG_URI(uriP);
 220:C:/Users/²Ü¼ÒºÀ/.iotlink/sdk/IoT_LINK/iot_link/network/lwm2m/wakaama_lwm2m/wakaama-master/core\observe.c **** 
 221:C:/Users/²Ü¼ÒºÀ/.iotlink/sdk/IoT_LINK/iot_link/network/lwm2m/wakaama_lwm2m/wakaama-master/core\observe.c ****     coap_get_header_observe(message, &count);
 222:C:/Users/²Ü¼ÒºÀ/.iotlink/sdk/IoT_LINK/iot_link/network/lwm2m/wakaama_lwm2m/wakaama-master/core\observe.c **** 
 223:C:/Users/²Ü¼ÒºÀ/.iotlink/sdk/IoT_LINK/iot_link/network/lwm2m/wakaama_lwm2m/wakaama-master/core\observe.c ****     switch (count)
 224:C:/Users/²Ü¼ÒºÀ/.iotlink/sdk/IoT_LINK/iot_link/network/lwm2m/wakaama_lwm2m/wakaama-master/core\observe.c ****     {
 225:C:/Users/²Ü¼ÒºÀ/.iotlink/sdk/IoT_LINK/iot_link/network/lwm2m/wakaama_lwm2m/wakaama-master/core\observe.c ****     case 0:
 226:C:/Users/²Ü¼ÒºÀ/.iotlink/sdk/IoT_LINK/iot_link/network/lwm2m/wakaama_lwm2m/wakaama-master/core\observe.c ****         if (!LWM2M_URI_IS_SET_INSTANCE(uriP) && LWM2M_URI_IS_SET_RESOURCE(uriP)) return COAP_400_BA
 227:C:/Users/²Ü¼ÒºÀ/.iotlink/sdk/IoT_LINK/iot_link/network/lwm2m/wakaama_lwm2m/wakaama-master/core\observe.c ****         if (message->token_len == 0) return COAP_400_BAD_REQUEST;
 228:C:/Users/²Ü¼ÒºÀ/.iotlink/sdk/IoT_LINK/iot_link/network/lwm2m/wakaama_lwm2m/wakaama-master/core\observe.c **** 
 229:C:/Users/²Ü¼ÒºÀ/.iotlink/sdk/IoT_LINK/iot_link/network/lwm2m/wakaama_lwm2m/wakaama-master/core\observe.c ****         watcherP = prv_getWatcher(contextP, uriP, serverP);
 230:C:/Users/²Ü¼ÒºÀ/.iotlink/sdk/IoT_LINK/iot_link/network/lwm2m/wakaama_lwm2m/wakaama-master/core\observe.c ****         if (watcherP == NULL) return COAP_500_INTERNAL_SERVER_ERROR;
 231:C:/Users/²Ü¼ÒºÀ/.iotlink/sdk/IoT_LINK/iot_link/network/lwm2m/wakaama_lwm2m/wakaama-master/core\observe.c **** 
 232:C:/Users/²Ü¼ÒºÀ/.iotlink/sdk/IoT_LINK/iot_link/network/lwm2m/wakaama_lwm2m/wakaama-master/core\observe.c ****         watcherP->tokenLen = message->token_len;
 233:C:/Users/²Ü¼ÒºÀ/.iotlink/sdk/IoT_LINK/iot_link/network/lwm2m/wakaama_lwm2m/wakaama-master/core\observe.c ****         memcpy(watcherP->token, message->token, message->token_len);
 234:C:/Users/²Ü¼ÒºÀ/.iotlink/sdk/IoT_LINK/iot_link/network/lwm2m/wakaama_lwm2m/wakaama-master/core\observe.c ****         watcherP->active = true;
 235:C:/Users/²Ü¼ÒºÀ/.iotlink/sdk/IoT_LINK/iot_link/network/lwm2m/wakaama_lwm2m/wakaama-master/core\observe.c ****         watcherP->lastTime = lwm2m_gettime();
 236:C:/Users/²Ü¼ÒºÀ/.iotlink/sdk/IoT_LINK/iot_link/network/lwm2m/wakaama_lwm2m/wakaama-master/core\observe.c ****         watcherP->lastMid = response->mid;
 237:C:/Users/²Ü¼ÒºÀ/.iotlink/sdk/IoT_LINK/iot_link/network/lwm2m/wakaama_lwm2m/wakaama-master/core\observe.c ****         if (IS_OPTION(message, COAP_OPTION_ACCEPT))
 238:C:/Users/²Ü¼ÒºÀ/.iotlink/sdk/IoT_LINK/iot_link/network/lwm2m/wakaama_lwm2m/wakaama-master/core\observe.c ****         {
 239:C:/Users/²Ü¼ÒºÀ/.iotlink/sdk/IoT_LINK/iot_link/network/lwm2m/wakaama_lwm2m/wakaama-master/core\observe.c ****             watcherP->format = utils_convertMediaType((coap_content_type_t)message->accept[0]);
 240:C:/Users/²Ü¼ÒºÀ/.iotlink/sdk/IoT_LINK/iot_link/network/lwm2m/wakaama_lwm2m/wakaama-master/core\observe.c ****         }
 241:C:/Users/²Ü¼ÒºÀ/.iotlink/sdk/IoT_LINK/iot_link/network/lwm2m/wakaama_lwm2m/wakaama-master/core\observe.c ****         else
 242:C:/Users/²Ü¼ÒºÀ/.iotlink/sdk/IoT_LINK/iot_link/network/lwm2m/wakaama_lwm2m/wakaama-master/core\observe.c ****         {
 243:C:/Users/²Ü¼ÒºÀ/.iotlink/sdk/IoT_LINK/iot_link/network/lwm2m/wakaama_lwm2m/wakaama-master/core\observe.c ****             watcherP->format = LWM2M_CONTENT_TLV;
 244:C:/Users/²Ü¼ÒºÀ/.iotlink/sdk/IoT_LINK/iot_link/network/lwm2m/wakaama_lwm2m/wakaama-master/core\observe.c ****         }
 245:C:/Users/²Ü¼ÒºÀ/.iotlink/sdk/IoT_LINK/iot_link/network/lwm2m/wakaama_lwm2m/wakaama-master/core\observe.c **** 
 246:C:/Users/²Ü¼ÒºÀ/.iotlink/sdk/IoT_LINK/iot_link/network/lwm2m/wakaama_lwm2m/wakaama-master/core\observe.c ****         if (LWM2M_URI_IS_SET_RESOURCE(uriP))
 247:C:/Users/²Ü¼ÒºÀ/.iotlink/sdk/IoT_LINK/iot_link/network/lwm2m/wakaama_lwm2m/wakaama-master/core\observe.c ****         {
 248:C:/Users/²Ü¼ÒºÀ/.iotlink/sdk/IoT_LINK/iot_link/network/lwm2m/wakaama_lwm2m/wakaama-master/core\observe.c ****             switch (dataP->type)
 249:C:/Users/²Ü¼ÒºÀ/.iotlink/sdk/IoT_LINK/iot_link/network/lwm2m/wakaama_lwm2m/wakaama-master/core\observe.c ****             {
 250:C:/Users/²Ü¼ÒºÀ/.iotlink/sdk/IoT_LINK/iot_link/network/lwm2m/wakaama_lwm2m/wakaama-master/core\observe.c ****             case LWM2M_TYPE_INTEGER:
 251:C:/Users/²Ü¼ÒºÀ/.iotlink/sdk/IoT_LINK/iot_link/network/lwm2m/wakaama_lwm2m/wakaama-master/core\observe.c ****                 if (1 != lwm2m_data_decode_int(dataP, &(watcherP->lastValue.asInteger))) return COA
 252:C:/Users/²Ü¼ÒºÀ/.iotlink/sdk/IoT_LINK/iot_link/network/lwm2m/wakaama_lwm2m/wakaama-master/core\observe.c ****                 break;
ARM GAS  C:\Users\²Ü¼ÒºÀ\AppData\Local\Temp\ccA6NNYh.s 			page 13


 253:C:/Users/²Ü¼ÒºÀ/.iotlink/sdk/IoT_LINK/iot_link/network/lwm2m/wakaama_lwm2m/wakaama-master/core\observe.c ****             case LWM2M_TYPE_FLOAT:
 254:C:/Users/²Ü¼ÒºÀ/.iotlink/sdk/IoT_LINK/iot_link/network/lwm2m/wakaama_lwm2m/wakaama-master/core\observe.c ****                 if (1 != lwm2m_data_decode_float(dataP, &(watcherP->lastValue.asFloat))) return COA
 255:C:/Users/²Ü¼ÒºÀ/.iotlink/sdk/IoT_LINK/iot_link/network/lwm2m/wakaama_lwm2m/wakaama-master/core\observe.c ****                 break;
 256:C:/Users/²Ü¼ÒºÀ/.iotlink/sdk/IoT_LINK/iot_link/network/lwm2m/wakaama_lwm2m/wakaama-master/core\observe.c ****             default:
 257:C:/Users/²Ü¼ÒºÀ/.iotlink/sdk/IoT_LINK/iot_link/network/lwm2m/wakaama_lwm2m/wakaama-master/core\observe.c ****                 break;
 258:C:/Users/²Ü¼ÒºÀ/.iotlink/sdk/IoT_LINK/iot_link/network/lwm2m/wakaama_lwm2m/wakaama-master/core\observe.c ****             }
 259:C:/Users/²Ü¼ÒºÀ/.iotlink/sdk/IoT_LINK/iot_link/network/lwm2m/wakaama_lwm2m/wakaama-master/core\observe.c ****         }
 260:C:/Users/²Ü¼ÒºÀ/.iotlink/sdk/IoT_LINK/iot_link/network/lwm2m/wakaama_lwm2m/wakaama-master/core\observe.c **** 
 261:C:/Users/²Ü¼ÒºÀ/.iotlink/sdk/IoT_LINK/iot_link/network/lwm2m/wakaama_lwm2m/wakaama-master/core\observe.c ****         coap_set_header_observe(response, watcherP->counter++);
 262:C:/Users/²Ü¼ÒºÀ/.iotlink/sdk/IoT_LINK/iot_link/network/lwm2m/wakaama_lwm2m/wakaama-master/core\observe.c **** 
 263:C:/Users/²Ü¼ÒºÀ/.iotlink/sdk/IoT_LINK/iot_link/network/lwm2m/wakaama_lwm2m/wakaama-master/core\observe.c ****         return COAP_205_CONTENT;
 264:C:/Users/²Ü¼ÒºÀ/.iotlink/sdk/IoT_LINK/iot_link/network/lwm2m/wakaama_lwm2m/wakaama-master/core\observe.c **** 
 265:C:/Users/²Ü¼ÒºÀ/.iotlink/sdk/IoT_LINK/iot_link/network/lwm2m/wakaama_lwm2m/wakaama-master/core\observe.c ****     case 1:
 266:C:/Users/²Ü¼ÒºÀ/.iotlink/sdk/IoT_LINK/iot_link/network/lwm2m/wakaama_lwm2m/wakaama-master/core\observe.c ****         // cancellation
 267:C:/Users/²Ü¼ÒºÀ/.iotlink/sdk/IoT_LINK/iot_link/network/lwm2m/wakaama_lwm2m/wakaama-master/core\observe.c ****         observedP = prv_findObserved(contextP, uriP);
 268:C:/Users/²Ü¼ÒºÀ/.iotlink/sdk/IoT_LINK/iot_link/network/lwm2m/wakaama_lwm2m/wakaama-master/core\observe.c ****         if (observedP)
 269:C:/Users/²Ü¼ÒºÀ/.iotlink/sdk/IoT_LINK/iot_link/network/lwm2m/wakaama_lwm2m/wakaama-master/core\observe.c ****         {
 270:C:/Users/²Ü¼ÒºÀ/.iotlink/sdk/IoT_LINK/iot_link/network/lwm2m/wakaama_lwm2m/wakaama-master/core\observe.c ****             watcherP = prv_findWatcher(observedP, serverP);
 271:C:/Users/²Ü¼ÒºÀ/.iotlink/sdk/IoT_LINK/iot_link/network/lwm2m/wakaama_lwm2m/wakaama-master/core\observe.c ****             if (watcherP)
 272:C:/Users/²Ü¼ÒºÀ/.iotlink/sdk/IoT_LINK/iot_link/network/lwm2m/wakaama_lwm2m/wakaama-master/core\observe.c ****             {
 273:C:/Users/²Ü¼ÒºÀ/.iotlink/sdk/IoT_LINK/iot_link/network/lwm2m/wakaama_lwm2m/wakaama-master/core\observe.c ****                 observe_cancel(contextP, watcherP->lastMid, serverP->sessionH);
 274:C:/Users/²Ü¼ÒºÀ/.iotlink/sdk/IoT_LINK/iot_link/network/lwm2m/wakaama_lwm2m/wakaama-master/core\observe.c ****             }
 275:C:/Users/²Ü¼ÒºÀ/.iotlink/sdk/IoT_LINK/iot_link/network/lwm2m/wakaama_lwm2m/wakaama-master/core\observe.c ****         }
 276:C:/Users/²Ü¼ÒºÀ/.iotlink/sdk/IoT_LINK/iot_link/network/lwm2m/wakaama_lwm2m/wakaama-master/core\observe.c ****         return COAP_205_CONTENT;
 277:C:/Users/²Ü¼ÒºÀ/.iotlink/sdk/IoT_LINK/iot_link/network/lwm2m/wakaama_lwm2m/wakaama-master/core\observe.c **** 
 278:C:/Users/²Ü¼ÒºÀ/.iotlink/sdk/IoT_LINK/iot_link/network/lwm2m/wakaama_lwm2m/wakaama-master/core\observe.c ****     default:
 279:C:/Users/²Ü¼ÒºÀ/.iotlink/sdk/IoT_LINK/iot_link/network/lwm2m/wakaama_lwm2m/wakaama-master/core\observe.c ****         return COAP_400_BAD_REQUEST;
 280:C:/Users/²Ü¼ÒºÀ/.iotlink/sdk/IoT_LINK/iot_link/network/lwm2m/wakaama_lwm2m/wakaama-master/core\observe.c ****     }
 281:C:/Users/²Ü¼ÒºÀ/.iotlink/sdk/IoT_LINK/iot_link/network/lwm2m/wakaama_lwm2m/wakaama-master/core\observe.c **** }
 282:C:/Users/²Ü¼ÒºÀ/.iotlink/sdk/IoT_LINK/iot_link/network/lwm2m/wakaama_lwm2m/wakaama-master/core\observe.c **** 
 283:C:/Users/²Ü¼ÒºÀ/.iotlink/sdk/IoT_LINK/iot_link/network/lwm2m/wakaama_lwm2m/wakaama-master/core\observe.c **** void observe_cancel(lwm2m_context_t *contextP,
 284:C:/Users/²Ü¼ÒºÀ/.iotlink/sdk/IoT_LINK/iot_link/network/lwm2m/wakaama_lwm2m/wakaama-master/core\observe.c ****                     uint16_t mid,
 285:C:/Users/²Ü¼ÒºÀ/.iotlink/sdk/IoT_LINK/iot_link/network/lwm2m/wakaama_lwm2m/wakaama-master/core\observe.c ****                     void *fromSessionH)
 286:C:/Users/²Ü¼ÒºÀ/.iotlink/sdk/IoT_LINK/iot_link/network/lwm2m/wakaama_lwm2m/wakaama-master/core\observe.c **** {
 377              		.loc 1 286 1 is_stmt 1 view -0
 378              		.cfi_startproc
 379              		@ args = 0, pretend = 0, frame = 8
 380              		@ frame_needed = 0, uses_anonymous_args = 0
 287:C:/Users/²Ü¼ÒºÀ/.iotlink/sdk/IoT_LINK/iot_link/network/lwm2m/wakaama_lwm2m/wakaama-master/core\observe.c ****     lwm2m_observed_t *observedP;
 381              		.loc 1 287 5 view .LVU107
 288:C:/Users/²Ü¼ÒºÀ/.iotlink/sdk/IoT_LINK/iot_link/network/lwm2m/wakaama_lwm2m/wakaama-master/core\observe.c **** 
 289:C:/Users/²Ü¼ÒºÀ/.iotlink/sdk/IoT_LINK/iot_link/network/lwm2m/wakaama_lwm2m/wakaama-master/core\observe.c ****     LOG_ARG("mid: %d", mid);
 382              		.loc 1 289 5 view .LVU108
 383              		.loc 1 289 5 view .LVU109
 286:C:/Users/²Ü¼ÒºÀ/.iotlink/sdk/IoT_LINK/iot_link/network/lwm2m/wakaama_lwm2m/wakaama-master/core\observe.c ****     lwm2m_observed_t *observedP;
 384              		.loc 1 286 1 is_stmt 0 view .LVU110
 385 0000 2DE9F043 		push	{r4, r5, r6, r7, r8, r9, lr}
 386              	.LCFI2:
 387              		.cfi_def_cfa_offset 28
 388              		.cfi_offset 4, -28
 389              		.cfi_offset 5, -24
 390              		.cfi_offset 6, -20
 391              		.cfi_offset 7, -16
 392              		.cfi_offset 8, -12
 393              		.cfi_offset 9, -8
 394              		.cfi_offset 14, -4
 395 0004 87B0     		sub	sp, sp, #28
ARM GAS  C:\Users\²Ü¼ÒºÀ\AppData\Local\Temp\ccA6NNYh.s 			page 14


 396              	.LCFI3:
 397              		.cfi_def_cfa_offset 56
 286:C:/Users/²Ü¼ÒºÀ/.iotlink/sdk/IoT_LINK/iot_link/network/lwm2m/wakaama_lwm2m/wakaama-master/core\observe.c ****     lwm2m_observed_t *observedP;
 398              		.loc 1 286 1 view .LVU111
 399 0006 0546     		mov	r5, r0
 400 0008 0F46     		mov	r7, r1
 401 000a 9146     		mov	r9, r2
 402              		.loc 1 289 5 view .LVU112
 403 000c FFF7FEFF 		bl	link_log_level_get
 404              	.LVL30:
 405              		.loc 1 289 5 view .LVU113
 406 0010 0128     		cmp	r0, #1
 407 0012 1AD8     		bhi	.L43
 408              		.loc 1 289 5 is_stmt 1 discriminator 1 view .LVU114
 409              		.loc 1 289 5 discriminator 1 view .LVU115
 410              		.loc 1 289 5 discriminator 1 view .LVU116
 411 0014 0120     		movs	r0, #1
 412 0016 FFF7FEFF 		bl	link_log_level_name
 413              	.LVL31:
 414 001a 0446     		mov	r4, r0
 415 001c FFF7FEFF 		bl	osal_sys_time
 416              	.LVL32:
 417 0020 0590     		str	r0, [sp, #20]
 418 0022 FFF7FEFF 		bl	lwm2m_gettime
 419              	.LVL33:
 420 0026 40F22113 		movw	r3, #289
 421 002a 0293     		str	r3, [sp, #8]
 422 002c 2E4B     		ldr	r3, .L62
 423 002e 059A     		ldr	r2, [sp, #20]
 424 0030 0397     		str	r7, [sp, #12]
 425 0032 CDE90003 		strd	r0, r3, [sp]
 426 0036 2146     		mov	r1, r4
 427 0038 2C4B     		ldr	r3, .L62+4
 428 003a 2D48     		ldr	r0, .L62+8
 429 003c FFF7FEFF 		bl	printf
 430              	.LVL34:
 431              		.loc 1 289 5 discriminator 1 view .LVU117
 432 0040 2C4B     		ldr	r3, .L62+12
 433 0042 1B68     		ldr	r3, [r3]
 434 0044 9868     		ldr	r0, [r3, #8]
 435 0046 FFF7FEFF 		bl	fflush
 436              	.LVL35:
 437              	.L43:
 438              		.loc 1 289 5 discriminator 3 view .LVU118
 439              		.loc 1 289 5 discriminator 3 view .LVU119
 440              		.loc 1 289 5 discriminator 3 view .LVU120
 290:C:/Users/²Ü¼ÒºÀ/.iotlink/sdk/IoT_LINK/iot_link/network/lwm2m/wakaama_lwm2m/wakaama-master/core\observe.c **** 
 291:C:/Users/²Ü¼ÒºÀ/.iotlink/sdk/IoT_LINK/iot_link/network/lwm2m/wakaama_lwm2m/wakaama-master/core\observe.c ****     for (observedP = contextP->observedList;
 441              		.loc 1 291 5 discriminator 3 view .LVU121
 442              		.loc 1 291 20 is_stmt 0 discriminator 3 view .LVU122
 443 004a EC69     		ldr	r4, [r5, #28]
 444              	.LVL36:
 445              	.L44:
 292:C:/Users/²Ü¼ÒºÀ/.iotlink/sdk/IoT_LINK/iot_link/network/lwm2m/wakaama_lwm2m/wakaama-master/core\observe.c ****             observedP != NULL;
 446              		.loc 1 292 13 is_stmt 1 discriminator 1 view .LVU123
 291:C:/Users/²Ü¼ÒºÀ/.iotlink/sdk/IoT_LINK/iot_link/network/lwm2m/wakaama_lwm2m/wakaama-master/core\observe.c ****             observedP != NULL;
 447              		.loc 1 291 5 is_stmt 0 discriminator 1 view .LVU124
ARM GAS  C:\Users\²Ü¼ÒºÀ\AppData\Local\Temp\ccA6NNYh.s 			page 15


 448 004c 14B9     		cbnz	r4, .L54
 293:C:/Users/²Ü¼ÒºÀ/.iotlink/sdk/IoT_LINK/iot_link/network/lwm2m/wakaama_lwm2m/wakaama-master/core\observe.c ****             observedP = observedP->next)
 294:C:/Users/²Ü¼ÒºÀ/.iotlink/sdk/IoT_LINK/iot_link/network/lwm2m/wakaama_lwm2m/wakaama-master/core\observe.c ****     {
 295:C:/Users/²Ü¼ÒºÀ/.iotlink/sdk/IoT_LINK/iot_link/network/lwm2m/wakaama_lwm2m/wakaama-master/core\observe.c ****         lwm2m_watcher_t *targetP = NULL;
 296:C:/Users/²Ü¼ÒºÀ/.iotlink/sdk/IoT_LINK/iot_link/network/lwm2m/wakaama_lwm2m/wakaama-master/core\observe.c **** 
 297:C:/Users/²Ü¼ÒºÀ/.iotlink/sdk/IoT_LINK/iot_link/network/lwm2m/wakaama_lwm2m/wakaama-master/core\observe.c ****         if (observedP->watcherList->lastMid == mid
 298:C:/Users/²Ü¼ÒºÀ/.iotlink/sdk/IoT_LINK/iot_link/network/lwm2m/wakaama_lwm2m/wakaama-master/core\observe.c ****                 && lwm2m_session_is_equal(observedP->watcherList->server->sessionH, fromSessionH, c
 299:C:/Users/²Ü¼ÒºÀ/.iotlink/sdk/IoT_LINK/iot_link/network/lwm2m/wakaama_lwm2m/wakaama-master/core\observe.c ****         {
 300:C:/Users/²Ü¼ÒºÀ/.iotlink/sdk/IoT_LINK/iot_link/network/lwm2m/wakaama_lwm2m/wakaama-master/core\observe.c ****             targetP = observedP->watcherList;
 301:C:/Users/²Ü¼ÒºÀ/.iotlink/sdk/IoT_LINK/iot_link/network/lwm2m/wakaama_lwm2m/wakaama-master/core\observe.c ****             observedP->watcherList = observedP->watcherList->next;
 302:C:/Users/²Ü¼ÒºÀ/.iotlink/sdk/IoT_LINK/iot_link/network/lwm2m/wakaama_lwm2m/wakaama-master/core\observe.c ****         }
 303:C:/Users/²Ü¼ÒºÀ/.iotlink/sdk/IoT_LINK/iot_link/network/lwm2m/wakaama_lwm2m/wakaama-master/core\observe.c ****         else
 304:C:/Users/²Ü¼ÒºÀ/.iotlink/sdk/IoT_LINK/iot_link/network/lwm2m/wakaama_lwm2m/wakaama-master/core\observe.c ****         {
 305:C:/Users/²Ü¼ÒºÀ/.iotlink/sdk/IoT_LINK/iot_link/network/lwm2m/wakaama_lwm2m/wakaama-master/core\observe.c ****             lwm2m_watcher_t *parentP;
 306:C:/Users/²Ü¼ÒºÀ/.iotlink/sdk/IoT_LINK/iot_link/network/lwm2m/wakaama_lwm2m/wakaama-master/core\observe.c **** 
 307:C:/Users/²Ü¼ÒºÀ/.iotlink/sdk/IoT_LINK/iot_link/network/lwm2m/wakaama_lwm2m/wakaama-master/core\observe.c ****             parentP = observedP->watcherList;
 308:C:/Users/²Ü¼ÒºÀ/.iotlink/sdk/IoT_LINK/iot_link/network/lwm2m/wakaama_lwm2m/wakaama-master/core\observe.c ****             while (parentP->next != NULL
 309:C:/Users/²Ü¼ÒºÀ/.iotlink/sdk/IoT_LINK/iot_link/network/lwm2m/wakaama_lwm2m/wakaama-master/core\observe.c ****                     && (parentP->next->lastMid != mid
 310:C:/Users/²Ü¼ÒºÀ/.iotlink/sdk/IoT_LINK/iot_link/network/lwm2m/wakaama_lwm2m/wakaama-master/core\observe.c ****                  || !lwm2m_session_is_equal(parentP->next->server->sessionH, fromSessionH, contextP
 311:C:/Users/²Ü¼ÒºÀ/.iotlink/sdk/IoT_LINK/iot_link/network/lwm2m/wakaama_lwm2m/wakaama-master/core\observe.c ****             {
 312:C:/Users/²Ü¼ÒºÀ/.iotlink/sdk/IoT_LINK/iot_link/network/lwm2m/wakaama_lwm2m/wakaama-master/core\observe.c ****                 parentP = parentP->next;
 313:C:/Users/²Ü¼ÒºÀ/.iotlink/sdk/IoT_LINK/iot_link/network/lwm2m/wakaama_lwm2m/wakaama-master/core\observe.c ****             }
 314:C:/Users/²Ü¼ÒºÀ/.iotlink/sdk/IoT_LINK/iot_link/network/lwm2m/wakaama_lwm2m/wakaama-master/core\observe.c ****             if (parentP->next != NULL)
 315:C:/Users/²Ü¼ÒºÀ/.iotlink/sdk/IoT_LINK/iot_link/network/lwm2m/wakaama_lwm2m/wakaama-master/core\observe.c ****             {
 316:C:/Users/²Ü¼ÒºÀ/.iotlink/sdk/IoT_LINK/iot_link/network/lwm2m/wakaama_lwm2m/wakaama-master/core\observe.c ****                 targetP = parentP->next;
 317:C:/Users/²Ü¼ÒºÀ/.iotlink/sdk/IoT_LINK/iot_link/network/lwm2m/wakaama_lwm2m/wakaama-master/core\observe.c ****                 parentP->next = parentP->next->next;
 318:C:/Users/²Ü¼ÒºÀ/.iotlink/sdk/IoT_LINK/iot_link/network/lwm2m/wakaama_lwm2m/wakaama-master/core\observe.c ****             }
 319:C:/Users/²Ü¼ÒºÀ/.iotlink/sdk/IoT_LINK/iot_link/network/lwm2m/wakaama_lwm2m/wakaama-master/core\observe.c ****         }
 320:C:/Users/²Ü¼ÒºÀ/.iotlink/sdk/IoT_LINK/iot_link/network/lwm2m/wakaama_lwm2m/wakaama-master/core\observe.c ****         if (targetP != NULL)
 321:C:/Users/²Ü¼ÒºÀ/.iotlink/sdk/IoT_LINK/iot_link/network/lwm2m/wakaama_lwm2m/wakaama-master/core\observe.c ****         {
 322:C:/Users/²Ü¼ÒºÀ/.iotlink/sdk/IoT_LINK/iot_link/network/lwm2m/wakaama_lwm2m/wakaama-master/core\observe.c ****             osal_mutex_lock(contextP->observe_mutex);
 323:C:/Users/²Ü¼ÒºÀ/.iotlink/sdk/IoT_LINK/iot_link/network/lwm2m/wakaama_lwm2m/wakaama-master/core\observe.c ****             lwm2m_notify_even(MODULE_URI, OBSERVE_UNSUBSCRIBE, (char *) & (observedP->uri), sizeof(
 324:C:/Users/²Ü¼ÒºÀ/.iotlink/sdk/IoT_LINK/iot_link/network/lwm2m/wakaama_lwm2m/wakaama-master/core\observe.c ****             if (targetP->parameters != NULL) lwm2m_free(targetP->parameters);
 325:C:/Users/²Ü¼ÒºÀ/.iotlink/sdk/IoT_LINK/iot_link/network/lwm2m/wakaama_lwm2m/wakaama-master/core\observe.c ****             lwm2m_free(targetP);
 326:C:/Users/²Ü¼ÒºÀ/.iotlink/sdk/IoT_LINK/iot_link/network/lwm2m/wakaama_lwm2m/wakaama-master/core\observe.c ****             if (observedP->watcherList == NULL)
 327:C:/Users/²Ü¼ÒºÀ/.iotlink/sdk/IoT_LINK/iot_link/network/lwm2m/wakaama_lwm2m/wakaama-master/core\observe.c ****             {
 328:C:/Users/²Ü¼ÒºÀ/.iotlink/sdk/IoT_LINK/iot_link/network/lwm2m/wakaama_lwm2m/wakaama-master/core\observe.c ****                 prv_unlinkObserved(contextP, observedP);
 329:C:/Users/²Ü¼ÒºÀ/.iotlink/sdk/IoT_LINK/iot_link/network/lwm2m/wakaama_lwm2m/wakaama-master/core\observe.c ****                 lwm2m_free(observedP);
 330:C:/Users/²Ü¼ÒºÀ/.iotlink/sdk/IoT_LINK/iot_link/network/lwm2m/wakaama_lwm2m/wakaama-master/core\observe.c ****             }
 331:C:/Users/²Ü¼ÒºÀ/.iotlink/sdk/IoT_LINK/iot_link/network/lwm2m/wakaama_lwm2m/wakaama-master/core\observe.c ****             (void) osal_mutex_unlock(contextP->observe_mutex);
 332:C:/Users/²Ü¼ÒºÀ/.iotlink/sdk/IoT_LINK/iot_link/network/lwm2m/wakaama_lwm2m/wakaama-master/core\observe.c ****             return;
 333:C:/Users/²Ü¼ÒºÀ/.iotlink/sdk/IoT_LINK/iot_link/network/lwm2m/wakaama_lwm2m/wakaama-master/core\observe.c ****         }
 334:C:/Users/²Ü¼ÒºÀ/.iotlink/sdk/IoT_LINK/iot_link/network/lwm2m/wakaama_lwm2m/wakaama-master/core\observe.c ****     }
 335:C:/Users/²Ü¼ÒºÀ/.iotlink/sdk/IoT_LINK/iot_link/network/lwm2m/wakaama_lwm2m/wakaama-master/core\observe.c **** }
 449              		.loc 1 335 1 view .LVU125
 450 004e 07B0     		add	sp, sp, #28
 451              	.LCFI4:
 452              		.cfi_remember_state
 453              		.cfi_def_cfa_offset 28
 454              		@ sp needed
 455 0050 BDE8F083 		pop	{r4, r5, r6, r7, r8, r9, pc}
 456              	.LVL37:
 457              	.L54:
 458              	.LCFI5:
 459              		.cfi_restore_state
 460              	.LBB17:
 295:C:/Users/²Ü¼ÒºÀ/.iotlink/sdk/IoT_LINK/iot_link/network/lwm2m/wakaama_lwm2m/wakaama-master/core\observe.c **** 
ARM GAS  C:\Users\²Ü¼ÒºÀ\AppData\Local\Temp\ccA6NNYh.s 			page 16


 461              		.loc 1 295 9 is_stmt 1 view .LVU126
 297:C:/Users/²Ü¼ÒºÀ/.iotlink/sdk/IoT_LINK/iot_link/network/lwm2m/wakaama_lwm2m/wakaama-master/core\observe.c ****                 && lwm2m_session_is_equal(observedP->watcherList->server->sessionH, fromSessionH, c
 462              		.loc 1 297 9 view .LVU127
 297:C:/Users/²Ü¼ÒºÀ/.iotlink/sdk/IoT_LINK/iot_link/network/lwm2m/wakaama_lwm2m/wakaama-master/core\observe.c ****                 && lwm2m_session_is_equal(observedP->watcherList->server->sessionH, fromSessionH, c
 463              		.loc 1 297 22 is_stmt 0 view .LVU128
 464 0054 E368     		ldr	r3, [r4, #12]
 297:C:/Users/²Ü¼ÒºÀ/.iotlink/sdk/IoT_LINK/iot_link/network/lwm2m/wakaama_lwm2m/wakaama-master/core\observe.c ****                 && lwm2m_session_is_equal(observedP->watcherList->server->sessionH, fromSessionH, c
 465              		.loc 1 297 12 view .LVU129
 466 0056 9A8D     		ldrh	r2, [r3, #44]
 467 0058 BA42     		cmp	r2, r7
 468 005a 29D1     		bne	.L45
 298:C:/Users/²Ü¼ÒºÀ/.iotlink/sdk/IoT_LINK/iot_link/network/lwm2m/wakaama_lwm2m/wakaama-master/core\observe.c ****         {
 469              		.loc 1 298 20 view .LVU130
 470 005c 9B68     		ldr	r3, [r3, #8]
 471 005e 6A6B     		ldr	r2, [r5, #52]
 472 0060 D869     		ldr	r0, [r3, #28]
 473 0062 4946     		mov	r1, r9
 474 0064 FFF7FEFF 		bl	lwm2m_session_is_equal
 475              	.LVL38:
 298:C:/Users/²Ü¼ÒºÀ/.iotlink/sdk/IoT_LINK/iot_link/network/lwm2m/wakaama_lwm2m/wakaama-master/core\observe.c ****         {
 476              		.loc 1 298 17 view .LVU131
 477 0068 10B3     		cbz	r0, .L45
 300:C:/Users/²Ü¼ÒºÀ/.iotlink/sdk/IoT_LINK/iot_link/network/lwm2m/wakaama_lwm2m/wakaama-master/core\observe.c ****             observedP->watcherList = observedP->watcherList->next;
 478              		.loc 1 300 13 is_stmt 1 view .LVU132
 300:C:/Users/²Ü¼ÒºÀ/.iotlink/sdk/IoT_LINK/iot_link/network/lwm2m/wakaama_lwm2m/wakaama-master/core\observe.c ****             observedP->watcherList = observedP->watcherList->next;
 479              		.loc 1 300 21 is_stmt 0 view .LVU133
 480 006a E668     		ldr	r6, [r4, #12]
 481              	.LVL39:
 301:C:/Users/²Ü¼ÒºÀ/.iotlink/sdk/IoT_LINK/iot_link/network/lwm2m/wakaama_lwm2m/wakaama-master/core\observe.c ****         }
 482              		.loc 1 301 13 is_stmt 1 view .LVU134
 301:C:/Users/²Ü¼ÒºÀ/.iotlink/sdk/IoT_LINK/iot_link/network/lwm2m/wakaama_lwm2m/wakaama-master/core\observe.c ****         }
 483              		.loc 1 301 36 is_stmt 0 view .LVU135
 484 006c 3368     		ldr	r3, [r6]
 485 006e E360     		str	r3, [r4, #12]
 486              	.L46:
 320:C:/Users/²Ü¼ÒºÀ/.iotlink/sdk/IoT_LINK/iot_link/network/lwm2m/wakaama_lwm2m/wakaama-master/core\observe.c ****         {
 487              		.loc 1 320 9 is_stmt 1 view .LVU136
 322:C:/Users/²Ü¼ÒºÀ/.iotlink/sdk/IoT_LINK/iot_link/network/lwm2m/wakaama_lwm2m/wakaama-master/core\observe.c ****             lwm2m_notify_even(MODULE_URI, OBSERVE_UNSUBSCRIBE, (char *) & (observedP->uri), sizeof(
 488              		.loc 1 322 13 view .LVU137
 489 0070 286A     		ldr	r0, [r5, #32]
 490 0072 FFF7FEFF 		bl	osal_mutex_lock
 491              	.LVL40:
 323:C:/Users/²Ü¼ÒºÀ/.iotlink/sdk/IoT_LINK/iot_link/network/lwm2m/wakaama_lwm2m/wakaama-master/core\observe.c ****             if (targetP->parameters != NULL) lwm2m_free(targetP->parameters);
 492              		.loc 1 323 13 view .LVU138
 493 0076 0220     		movs	r0, #2
 494 0078 0823     		movs	r3, #8
 495 007a 221D     		adds	r2, r4, #4
 496 007c 0021     		movs	r1, #0
 497 007e FFF7FEFF 		bl	lwm2m_notify_even
 498              	.LVL41:
 324:C:/Users/²Ü¼ÒºÀ/.iotlink/sdk/IoT_LINK/iot_link/network/lwm2m/wakaama_lwm2m/wakaama-master/core\observe.c ****             lwm2m_free(targetP);
 499              		.loc 1 324 13 view .LVU139
 324:C:/Users/²Ü¼ÒºÀ/.iotlink/sdk/IoT_LINK/iot_link/network/lwm2m/wakaama_lwm2m/wakaama-master/core\observe.c ****             lwm2m_free(targetP);
 500              		.loc 1 324 24 is_stmt 0 view .LVU140
 501 0082 F068     		ldr	r0, [r6, #12]
 324:C:/Users/²Ü¼ÒºÀ/.iotlink/sdk/IoT_LINK/iot_link/network/lwm2m/wakaama_lwm2m/wakaama-master/core\observe.c ****             lwm2m_free(targetP);
 502              		.loc 1 324 16 view .LVU141
ARM GAS  C:\Users\²Ü¼ÒºÀ\AppData\Local\Temp\ccA6NNYh.s 			page 17


 503 0084 08B1     		cbz	r0, .L56
 324:C:/Users/²Ü¼ÒºÀ/.iotlink/sdk/IoT_LINK/iot_link/network/lwm2m/wakaama_lwm2m/wakaama-master/core\observe.c ****             lwm2m_free(targetP);
 504              		.loc 1 324 46 is_stmt 1 discriminator 1 view .LVU142
 505 0086 FFF7FEFF 		bl	lwm2m_free
 506              	.LVL42:
 507              	.L56:
 325:C:/Users/²Ü¼ÒºÀ/.iotlink/sdk/IoT_LINK/iot_link/network/lwm2m/wakaama_lwm2m/wakaama-master/core\observe.c ****             if (observedP->watcherList == NULL)
 508              		.loc 1 325 13 view .LVU143
 509 008a 3046     		mov	r0, r6
 510 008c FFF7FEFF 		bl	lwm2m_free
 511              	.LVL43:
 326:C:/Users/²Ü¼ÒºÀ/.iotlink/sdk/IoT_LINK/iot_link/network/lwm2m/wakaama_lwm2m/wakaama-master/core\observe.c ****             {
 512              		.loc 1 326 13 view .LVU144
 326:C:/Users/²Ü¼ÒºÀ/.iotlink/sdk/IoT_LINK/iot_link/network/lwm2m/wakaama_lwm2m/wakaama-master/core\observe.c ****             {
 513              		.loc 1 326 16 is_stmt 0 view .LVU145
 514 0090 E368     		ldr	r3, [r4, #12]
 515 0092 3BB9     		cbnz	r3, .L53
 328:C:/Users/²Ü¼ÒºÀ/.iotlink/sdk/IoT_LINK/iot_link/network/lwm2m/wakaama_lwm2m/wakaama-master/core\observe.c ****                 lwm2m_free(observedP);
 516              		.loc 1 328 17 is_stmt 1 view .LVU146
 517 0094 05F11C00 		add	r0, r5, #28
 518 0098 2146     		mov	r1, r4
 519 009a FFF7FEFF 		bl	prv_unlinkObserved.isra.0
 520              	.LVL44:
 329:C:/Users/²Ü¼ÒºÀ/.iotlink/sdk/IoT_LINK/iot_link/network/lwm2m/wakaama_lwm2m/wakaama-master/core\observe.c ****             }
 521              		.loc 1 329 17 view .LVU147
 522 009e 2046     		mov	r0, r4
 523 00a0 FFF7FEFF 		bl	lwm2m_free
 524              	.LVL45:
 525              	.L53:
 331:C:/Users/²Ü¼ÒºÀ/.iotlink/sdk/IoT_LINK/iot_link/network/lwm2m/wakaama_lwm2m/wakaama-master/core\observe.c ****             return;
 526              		.loc 1 331 13 view .LVU148
 331:C:/Users/²Ü¼ÒºÀ/.iotlink/sdk/IoT_LINK/iot_link/network/lwm2m/wakaama_lwm2m/wakaama-master/core\observe.c ****             return;
 527              		.loc 1 331 20 is_stmt 0 view .LVU149
 528 00a4 286A     		ldr	r0, [r5, #32]
 529              	.LBE17:
 530              		.loc 1 335 1 view .LVU150
 531 00a6 07B0     		add	sp, sp, #28
 532              	.LCFI6:
 533              		.cfi_remember_state
 534              		.cfi_def_cfa_offset 28
 535              		@ sp needed
 536 00a8 BDE8F043 		pop	{r4, r5, r6, r7, r8, r9, lr}
 537              	.LCFI7:
 538              		.cfi_restore 14
 539              		.cfi_restore 9
 540              		.cfi_restore 8
 541              		.cfi_restore 7
 542              		.cfi_restore 6
 543              		.cfi_restore 5
 544              		.cfi_restore 4
 545              		.cfi_def_cfa_offset 0
 546              	.LVL46:
 547              	.LBB20:
 331:C:/Users/²Ü¼ÒºÀ/.iotlink/sdk/IoT_LINK/iot_link/network/lwm2m/wakaama_lwm2m/wakaama-master/core\observe.c ****             return;
 548              		.loc 1 331 20 view .LVU151
 549 00ac FFF7FEBF 		b	osal_mutex_unlock
 550              	.LVL47:
ARM GAS  C:\Users\²Ü¼ÒºÀ\AppData\Local\Temp\ccA6NNYh.s 			page 18


 551              	.L45:
 552              	.LCFI8:
 553              		.cfi_restore_state
 554              	.LBB18:
 305:C:/Users/²Ü¼ÒºÀ/.iotlink/sdk/IoT_LINK/iot_link/network/lwm2m/wakaama_lwm2m/wakaama-master/core\observe.c **** 
 555              		.loc 1 305 13 is_stmt 1 view .LVU152
 307:C:/Users/²Ü¼ÒºÀ/.iotlink/sdk/IoT_LINK/iot_link/network/lwm2m/wakaama_lwm2m/wakaama-master/core\observe.c ****             while (parentP->next != NULL
 556              		.loc 1 307 13 view .LVU153
 307:C:/Users/²Ü¼ÒºÀ/.iotlink/sdk/IoT_LINK/iot_link/network/lwm2m/wakaama_lwm2m/wakaama-master/core\observe.c ****             while (parentP->next != NULL
 557              		.loc 1 307 21 is_stmt 0 view .LVU154
 558 00b0 D4F80C80 		ldr	r8, [r4, #12]
 559              	.LVL48:
 308:C:/Users/²Ü¼ÒºÀ/.iotlink/sdk/IoT_LINK/iot_link/network/lwm2m/wakaama_lwm2m/wakaama-master/core\observe.c ****                     && (parentP->next->lastMid != mid
 560              		.loc 1 308 13 is_stmt 1 view .LVU155
 561              	.L47:
 308:C:/Users/²Ü¼ÒºÀ/.iotlink/sdk/IoT_LINK/iot_link/network/lwm2m/wakaama_lwm2m/wakaama-master/core\observe.c ****                     && (parentP->next->lastMid != mid
 562              		.loc 1 308 19 view .LVU156
 308:C:/Users/²Ü¼ÒºÀ/.iotlink/sdk/IoT_LINK/iot_link/network/lwm2m/wakaama_lwm2m/wakaama-master/core\observe.c ****                     && (parentP->next->lastMid != mid
 563              		.loc 1 308 27 is_stmt 0 view .LVU157
 564 00b4 D8F80030 		ldr	r3, [r8]
 308:C:/Users/²Ü¼ÒºÀ/.iotlink/sdk/IoT_LINK/iot_link/network/lwm2m/wakaama_lwm2m/wakaama-master/core\observe.c ****                     && (parentP->next->lastMid != mid
 565              		.loc 1 308 19 view .LVU158
 566 00b8 23B9     		cbnz	r3, .L48
 567              	.L52:
 314:C:/Users/²Ü¼ÒºÀ/.iotlink/sdk/IoT_LINK/iot_link/network/lwm2m/wakaama_lwm2m/wakaama-master/core\observe.c ****             {
 568              		.loc 1 314 13 is_stmt 1 view .LVU159
 314:C:/Users/²Ü¼ÒºÀ/.iotlink/sdk/IoT_LINK/iot_link/network/lwm2m/wakaama_lwm2m/wakaama-master/core\observe.c ****             {
 569              		.loc 1 314 24 is_stmt 0 view .LVU160
 570 00ba D8F80060 		ldr	r6, [r8]
 314:C:/Users/²Ü¼ÒºÀ/.iotlink/sdk/IoT_LINK/iot_link/network/lwm2m/wakaama_lwm2m/wakaama-master/core\observe.c ****             {
 571              		.loc 1 314 16 view .LVU161
 572 00be 7EB9     		cbnz	r6, .L49
 573              	.LVL49:
 314:C:/Users/²Ü¼ÒºÀ/.iotlink/sdk/IoT_LINK/iot_link/network/lwm2m/wakaama_lwm2m/wakaama-master/core\observe.c ****             {
 574              		.loc 1 314 16 view .LVU162
 575              	.LBE18:
 576              	.LBE20:
 293:C:/Users/²Ü¼ÒºÀ/.iotlink/sdk/IoT_LINK/iot_link/network/lwm2m/wakaama_lwm2m/wakaama-master/core\observe.c ****     {
 577              		.loc 1 293 13 is_stmt 1 view .LVU163
 293:C:/Users/²Ü¼ÒºÀ/.iotlink/sdk/IoT_LINK/iot_link/network/lwm2m/wakaama_lwm2m/wakaama-master/core\observe.c ****     {
 578              		.loc 1 293 23 is_stmt 0 view .LVU164
 579 00c0 2468     		ldr	r4, [r4]
 580              	.LVL50:
 293:C:/Users/²Ü¼ÒºÀ/.iotlink/sdk/IoT_LINK/iot_link/network/lwm2m/wakaama_lwm2m/wakaama-master/core\observe.c ****     {
 581              		.loc 1 293 23 view .LVU165
 582 00c2 C3E7     		b	.L44
 583              	.LVL51:
 584              	.L48:
 585              	.LBB21:
 586              	.LBB19:
 309:C:/Users/²Ü¼ÒºÀ/.iotlink/sdk/IoT_LINK/iot_link/network/lwm2m/wakaama_lwm2m/wakaama-master/core\observe.c ****                  || !lwm2m_session_is_equal(parentP->next->server->sessionH, fromSessionH, contextP
 587              		.loc 1 309 21 view .LVU166
 588 00c4 9A8D     		ldrh	r2, [r3, #44]
 589 00c6 BA42     		cmp	r2, r7
 590 00c8 07D1     		bne	.L51
 310:C:/Users/²Ü¼ÒºÀ/.iotlink/sdk/IoT_LINK/iot_link/network/lwm2m/wakaama_lwm2m/wakaama-master/core\observe.c ****             {
 591              		.loc 1 310 22 view .LVU167
ARM GAS  C:\Users\²Ü¼ÒºÀ\AppData\Local\Temp\ccA6NNYh.s 			page 19


 592 00ca 9B68     		ldr	r3, [r3, #8]
 593 00cc 6A6B     		ldr	r2, [r5, #52]
 594 00ce D869     		ldr	r0, [r3, #28]
 595 00d0 4946     		mov	r1, r9
 596 00d2 FFF7FEFF 		bl	lwm2m_session_is_equal
 597              	.LVL52:
 310:C:/Users/²Ü¼ÒºÀ/.iotlink/sdk/IoT_LINK/iot_link/network/lwm2m/wakaama_lwm2m/wakaama-master/core\observe.c ****             {
 598              		.loc 1 310 18 view .LVU168
 599 00d6 0028     		cmp	r0, #0
 600 00d8 EFD1     		bne	.L52
 601              	.L51:
 312:C:/Users/²Ü¼ÒºÀ/.iotlink/sdk/IoT_LINK/iot_link/network/lwm2m/wakaama_lwm2m/wakaama-master/core\observe.c ****             }
 602              		.loc 1 312 17 is_stmt 1 view .LVU169
 312:C:/Users/²Ü¼ÒºÀ/.iotlink/sdk/IoT_LINK/iot_link/network/lwm2m/wakaama_lwm2m/wakaama-master/core\observe.c ****             }
 603              		.loc 1 312 25 is_stmt 0 view .LVU170
 604 00da D8F80080 		ldr	r8, [r8]
 605              	.LVL53:
 312:C:/Users/²Ü¼ÒºÀ/.iotlink/sdk/IoT_LINK/iot_link/network/lwm2m/wakaama_lwm2m/wakaama-master/core\observe.c ****             }
 606              		.loc 1 312 25 view .LVU171
 607 00de E9E7     		b	.L47
 608              	.L49:
 316:C:/Users/²Ü¼ÒºÀ/.iotlink/sdk/IoT_LINK/iot_link/network/lwm2m/wakaama_lwm2m/wakaama-master/core\observe.c ****                 parentP->next = parentP->next->next;
 609              		.loc 1 316 17 is_stmt 1 view .LVU172
 610              	.LVL54:
 317:C:/Users/²Ü¼ÒºÀ/.iotlink/sdk/IoT_LINK/iot_link/network/lwm2m/wakaama_lwm2m/wakaama-master/core\observe.c ****             }
 611              		.loc 1 317 17 view .LVU173
 317:C:/Users/²Ü¼ÒºÀ/.iotlink/sdk/IoT_LINK/iot_link/network/lwm2m/wakaama_lwm2m/wakaama-master/core\observe.c ****             }
 612              		.loc 1 317 46 is_stmt 0 view .LVU174
 613 00e0 3368     		ldr	r3, [r6]
 317:C:/Users/²Ü¼ÒºÀ/.iotlink/sdk/IoT_LINK/iot_link/network/lwm2m/wakaama_lwm2m/wakaama-master/core\observe.c ****             }
 614              		.loc 1 317 31 view .LVU175
 615 00e2 C8F80030 		str	r3, [r8]
 616 00e6 C3E7     		b	.L46
 617              	.L63:
 618              		.align	2
 619              	.L62:
 620 00e8 00000000 		.word	.LANCHOR2
 621 00ec 00000000 		.word	.LANCHOR1
 622 00f0 00000000 		.word	.LC0
 623 00f4 00000000 		.word	_impure_ptr
 624              	.LBE19:
 625              	.LBE21:
 626              		.cfi_endproc
 627              	.LFE10:
 629              		.section	.rodata.observe_handleRequest.str1.1,"aMS",%progbits,1
 630              	.LC1:
 631 0000 53544154 		.ascii	"STATE_BS_FAILED\000"
 631      455F4253 
 631      5F464149 
 631      4C454400 
 632              	.LC2:
 633 0010 53544154 		.ascii	"STATE_BS_FINISHING\000"
 633      455F4253 
 633      5F46494E 
 633      49534849 
 633      4E4700
 634              	.LC3:
ARM GAS  C:\Users\²Ü¼ÒºÀ\AppData\Local\Temp\ccA6NNYh.s 			page 20


 635 0023 53544154 		.ascii	"STATE_DEREGISTERED\000"
 635      455F4445 
 635      52454749 
 635      53544552 
 635      454400
 636              	.LC4:
 637 0036 53544154 		.ascii	"STATE_REG_PENDING\000"
 637      455F5245 
 637      475F5045 
 637      4E44494E 
 637      4700
 638              	.LC5:
 639 0048 53544154 		.ascii	"STATE_REGISTERED\000"
 639      455F5245 
 639      47495354 
 639      45524544 
 639      00
 640              	.LC6:
 641 0059 53544154 		.ascii	"STATE_REG_FAILED\000"
 641      455F5245 
 641      475F4641 
 641      494C4544 
 641      00
 642              	.LC7:
 643 006a 53544154 		.ascii	"STATE_REG_UPDATE_PENDING\000"
 643      455F5245 
 643      475F5550 
 643      44415445 
 643      5F50454E 
 644              	.LC8:
 645 0083 53544154 		.ascii	"STATE_REG_UPDATE_NEEDED\000"
 645      455F5245 
 645      475F5550 
 645      44415445 
 645      5F4E4545 
 646              	.LC9:
 647 009b 53544154 		.ascii	"STATE_REG_FULL_UPDATE_NEEDED\000"
 647      455F5245 
 647      475F4655 
 647      4C4C5F55 
 647      50444154 
 648              	.LC10:
 649 00b8 53544154 		.ascii	"STATE_DEREG_PENDING\000"
 649      455F4445 
 649      5245475F 
 649      50454E44 
 649      494E4700 
 650              	.LC11:
 651 00cc 53544154 		.ascii	"STATE_BS_HOLD_OFF\000"
 651      455F4253 
 651      5F484F4C 
 651      445F4F46 
 651      4600
 652              	.LC12:
 653 00de 53544154 		.ascii	"STATE_BS_INITIATED\000"
 653      455F4253 
 653      5F494E49 
ARM GAS  C:\Users\²Ü¼ÒºÀ\AppData\Local\Temp\ccA6NNYh.s 			page 21


 653      54494154 
 653      454400
 654              	.LC13:
 655 00f1 53544154 		.ascii	"STATE_BS_PENDING\000"
 655      455F4253 
 655      5F50454E 
 655      44494E47 
 655      00
 656              	.LC14:
 657 0102 53544154 		.ascii	"STATE_BS_FINISHED\000"
 657      455F4253 
 657      5F46494E 
 657      49534845 
 657      4400
 658              	.LC15:
 659 0114 53544154 		.ascii	"STATE_BS_FAILING\000"
 659      455F4253 
 659      5F464149 
 659      4C494E47 
 659      00
 660              	.LC16:
 661 0125 556E6B6E 		.ascii	"Unknown\000"
 661      6F776E00 
 662              	.LC17:
 663 012d 5B25735D 		.ascii	"[%s][%u][%s] [%d][%s:%d] Code: %02X, server status:"
 663      5B25755D 
 663      5B25735D 
 663      205B2564 
 663      5D5B2573 
 664 0160 2025730D 		.ascii	" %s\015\012\015\012\000"
 664      0A0D0A00 
 665              	.LC18:
 666 0168 5B25735D 		.ascii	"[%s][%u][%s] [%s:%d] NULL\015\012\015\012\000"
 666      5B25755D 
 666      5B25735D 
 666      205B2573 
 666      3A25645D 
 667              	.LC19:
 668 0186 5B25735D 		.ascii	"[%s][%u][%s] [%s:%d] /%d\015\012\000"
 668      5B25755D 
 668      5B25735D 
 668      205B2573 
 668      3A25645D 
 669              	.LC20:
 670 01a1 5B25735D 		.ascii	"[%s][%u][%s] /%d\015\012\000"
 670      5B25755D 
 670      5B25735D 
 670      202F2564 
 670      0D0A00
 671              	.LC21:
 672 01b4 5B25735D 		.ascii	"[%s][%u][%s] \015\012\015\012\000"
 672      5B25755D 
 672      5B25735D 
 672      200D0A0D 
 672      0A00
 673              		.section	.text.observe_handleRequest,"ax",%progbits
 674              		.align	1
ARM GAS  C:\Users\²Ü¼ÒºÀ\AppData\Local\Temp\ccA6NNYh.s 			page 22


 675              		.global	observe_handleRequest
 676              		.syntax unified
 677              		.thumb
 678              		.thumb_func
 679              		.fpu fpv4-sp-d16
 681              	observe_handleRequest:
 682              	.LVL55:
 683              	.LFB9:
 213:C:/Users/²Ü¼ÒºÀ/.iotlink/sdk/IoT_LINK/iot_link/network/lwm2m/wakaama_lwm2m/wakaama-master/core\observe.c ****     lwm2m_observed_t * observedP;
 684              		.loc 1 213 1 is_stmt 1 view -0
 685              		.cfi_startproc
 686              		@ args = 12, pretend = 0, frame = 16
 687              		@ frame_needed = 0, uses_anonymous_args = 0
 214:C:/Users/²Ü¼ÒºÀ/.iotlink/sdk/IoT_LINK/iot_link/network/lwm2m/wakaama_lwm2m/wakaama-master/core\observe.c ****     lwm2m_watcher_t *watcherP;
 688              		.loc 1 214 5 view .LVU177
 215:C:/Users/²Ü¼ÒºÀ/.iotlink/sdk/IoT_LINK/iot_link/network/lwm2m/wakaama_lwm2m/wakaama-master/core\observe.c ****     uint32_t count;
 689              		.loc 1 215 5 view .LVU178
 216:C:/Users/²Ü¼ÒºÀ/.iotlink/sdk/IoT_LINK/iot_link/network/lwm2m/wakaama_lwm2m/wakaama-master/core\observe.c **** 
 690              		.loc 1 216 5 view .LVU179
 218:C:/Users/²Ü¼ÒºÀ/.iotlink/sdk/IoT_LINK/iot_link/network/lwm2m/wakaama_lwm2m/wakaama-master/core\observe.c ****     LOG_URI(uriP);
 691              		.loc 1 218 5 view .LVU180
 218:C:/Users/²Ü¼ÒºÀ/.iotlink/sdk/IoT_LINK/iot_link/network/lwm2m/wakaama_lwm2m/wakaama-master/core\observe.c ****     LOG_URI(uriP);
 692              		.loc 1 218 5 view .LVU181
 213:C:/Users/²Ü¼ÒºÀ/.iotlink/sdk/IoT_LINK/iot_link/network/lwm2m/wakaama_lwm2m/wakaama-master/core\observe.c ****     lwm2m_observed_t * observedP;
 693              		.loc 1 213 1 is_stmt 0 view .LVU182
 694 0000 2DE9F047 		push	{r4, r5, r6, r7, r8, r9, r10, lr}
 695              	.LCFI9:
 696              		.cfi_def_cfa_offset 32
 697              		.cfi_offset 4, -32
 698              		.cfi_offset 5, -28
 699              		.cfi_offset 6, -24
 700              		.cfi_offset 7, -20
 701              		.cfi_offset 8, -16
 702              		.cfi_offset 9, -12
 703              		.cfi_offset 10, -8
 704              		.cfi_offset 14, -4
 705 0004 8AB0     		sub	sp, sp, #40
 706              	.LCFI10:
 707              		.cfi_def_cfa_offset 72
 213:C:/Users/²Ü¼ÒºÀ/.iotlink/sdk/IoT_LINK/iot_link/network/lwm2m/wakaama_lwm2m/wakaama-master/core\observe.c ****     lwm2m_observed_t * observedP;
 708              		.loc 1 213 1 view .LVU183
 709 0006 DDE91285 		ldrd	r8, r5, [sp, #72]
 710 000a DDF850A0 		ldr	r10, [sp, #80]
 711 000e 0746     		mov	r7, r0
 712 0010 0C46     		mov	r4, r1
 713 0012 1646     		mov	r6, r2
 218:C:/Users/²Ü¼ÒºÀ/.iotlink/sdk/IoT_LINK/iot_link/network/lwm2m/wakaama_lwm2m/wakaama-master/core\observe.c ****     LOG_URI(uriP);
 714              		.loc 1 218 5 view .LVU184
 715 0014 FFF7FEFF 		bl	link_log_level_get
 716              	.LVL56:
 218:C:/Users/²Ü¼ÒºÀ/.iotlink/sdk/IoT_LINK/iot_link/network/lwm2m/wakaama_lwm2m/wakaama-master/core\observe.c ****     LOG_URI(uriP);
 717              		.loc 1 218 5 view .LVU185
 718 0018 0128     		cmp	r0, #1
 719 001a 40D8     		bhi	.L65
 218:C:/Users/²Ü¼ÒºÀ/.iotlink/sdk/IoT_LINK/iot_link/network/lwm2m/wakaama_lwm2m/wakaama-master/core\observe.c ****     LOG_URI(uriP);
 720              		.loc 1 218 5 is_stmt 1 discriminator 1 view .LVU186
 218:C:/Users/²Ü¼ÒºÀ/.iotlink/sdk/IoT_LINK/iot_link/network/lwm2m/wakaama_lwm2m/wakaama-master/core\observe.c ****     LOG_URI(uriP);
ARM GAS  C:\Users\²Ü¼ÒºÀ\AppData\Local\Temp\ccA6NNYh.s 			page 23


 721              		.loc 1 218 5 discriminator 1 view .LVU187
 218:C:/Users/²Ü¼ÒºÀ/.iotlink/sdk/IoT_LINK/iot_link/network/lwm2m/wakaama_lwm2m/wakaama-master/core\observe.c ****     LOG_URI(uriP);
 722              		.loc 1 218 5 discriminator 1 view .LVU188
 723 001c 0120     		movs	r0, #1
 724 001e FFF7FEFF 		bl	link_log_level_name
 725              	.LVL57:
 726 0022 8146     		mov	r9, r0
 727 0024 FFF7FEFF 		bl	osal_sys_time
 728              	.LVL58:
 729 0028 0790     		str	r0, [sp, #28]
 730 002a FFF7FEFF 		bl	lwm2m_gettime
 731              	.LVL59:
 732 002e 96F82010 		ldrb	r1, [r6, #32]	@ zero_extendqisi2
 733 0032 95F806C0 		ldrb	ip, [r5, #6]	@ zero_extendqisi2
 734 0036 079A     		ldr	r2, [sp, #28]
 735 0038 0029     		cmp	r1, #0
 736 003a 58D0     		beq	.L93
 218:C:/Users/²Ü¼ÒºÀ/.iotlink/sdk/IoT_LINK/iot_link/network/lwm2m/wakaama_lwm2m/wakaama-master/core\observe.c ****     LOG_URI(uriP);
 737              		.loc 1 218 5 is_stmt 0 discriminator 3 view .LVU189
 738 003c 0129     		cmp	r1, #1
 739 003e 58D0     		beq	.L94
 218:C:/Users/²Ü¼ÒºÀ/.iotlink/sdk/IoT_LINK/iot_link/network/lwm2m/wakaama_lwm2m/wakaama-master/core\observe.c ****     LOG_URI(uriP);
 740              		.loc 1 218 5 discriminator 5 view .LVU190
 741 0040 0229     		cmp	r1, #2
 742 0042 58D0     		beq	.L95
 218:C:/Users/²Ü¼ÒºÀ/.iotlink/sdk/IoT_LINK/iot_link/network/lwm2m/wakaama_lwm2m/wakaama-master/core\observe.c ****     LOG_URI(uriP);
 743              		.loc 1 218 5 discriminator 7 view .LVU191
 744 0044 0329     		cmp	r1, #3
 745 0046 58D0     		beq	.L96
 218:C:/Users/²Ü¼ÒºÀ/.iotlink/sdk/IoT_LINK/iot_link/network/lwm2m/wakaama_lwm2m/wakaama-master/core\observe.c ****     LOG_URI(uriP);
 746              		.loc 1 218 5 discriminator 9 view .LVU192
 747 0048 0429     		cmp	r1, #4
 748 004a 58D0     		beq	.L97
 218:C:/Users/²Ü¼ÒºÀ/.iotlink/sdk/IoT_LINK/iot_link/network/lwm2m/wakaama_lwm2m/wakaama-master/core\observe.c ****     LOG_URI(uriP);
 749              		.loc 1 218 5 discriminator 11 view .LVU193
 750 004c 0529     		cmp	r1, #5
 751 004e 58D0     		beq	.L98
 218:C:/Users/²Ü¼ÒºÀ/.iotlink/sdk/IoT_LINK/iot_link/network/lwm2m/wakaama_lwm2m/wakaama-master/core\observe.c ****     LOG_URI(uriP);
 752              		.loc 1 218 5 discriminator 13 view .LVU194
 753 0050 0629     		cmp	r1, #6
 754 0052 58D0     		beq	.L99
 218:C:/Users/²Ü¼ÒºÀ/.iotlink/sdk/IoT_LINK/iot_link/network/lwm2m/wakaama_lwm2m/wakaama-master/core\observe.c ****     LOG_URI(uriP);
 755              		.loc 1 218 5 discriminator 15 view .LVU195
 756 0054 0729     		cmp	r1, #7
 757 0056 58D0     		beq	.L100
 218:C:/Users/²Ü¼ÒºÀ/.iotlink/sdk/IoT_LINK/iot_link/network/lwm2m/wakaama_lwm2m/wakaama-master/core\observe.c ****     LOG_URI(uriP);
 758              		.loc 1 218 5 discriminator 17 view .LVU196
 759 0058 0829     		cmp	r1, #8
 760 005a 58D0     		beq	.L101
 218:C:/Users/²Ü¼ÒºÀ/.iotlink/sdk/IoT_LINK/iot_link/network/lwm2m/wakaama_lwm2m/wakaama-master/core\observe.c ****     LOG_URI(uriP);
 761              		.loc 1 218 5 discriminator 19 view .LVU197
 762 005c 0929     		cmp	r1, #9
 763 005e 58D0     		beq	.L102
 218:C:/Users/²Ü¼ÒºÀ/.iotlink/sdk/IoT_LINK/iot_link/network/lwm2m/wakaama_lwm2m/wakaama-master/core\observe.c ****     LOG_URI(uriP);
 764              		.loc 1 218 5 discriminator 21 view .LVU198
 765 0060 0A29     		cmp	r1, #10
 766 0062 58D0     		beq	.L103
ARM GAS  C:\Users\²Ü¼ÒºÀ\AppData\Local\Temp\ccA6NNYh.s 			page 24


 218:C:/Users/²Ü¼ÒºÀ/.iotlink/sdk/IoT_LINK/iot_link/network/lwm2m/wakaama_lwm2m/wakaama-master/core\observe.c ****     LOG_URI(uriP);
 767              		.loc 1 218 5 discriminator 23 view .LVU199
 768 0064 0C29     		cmp	r1, #12
 769 0066 58D0     		beq	.L104
 218:C:/Users/²Ü¼ÒºÀ/.iotlink/sdk/IoT_LINK/iot_link/network/lwm2m/wakaama_lwm2m/wakaama-master/core\observe.c ****     LOG_URI(uriP);
 770              		.loc 1 218 5 discriminator 25 view .LVU200
 771 0068 0B29     		cmp	r1, #11
 772 006a 58D0     		beq	.L105
 218:C:/Users/²Ü¼ÒºÀ/.iotlink/sdk/IoT_LINK/iot_link/network/lwm2m/wakaama_lwm2m/wakaama-master/core\observe.c ****     LOG_URI(uriP);
 773              		.loc 1 218 5 discriminator 27 view .LVU201
 774 006c 0D29     		cmp	r1, #13
 775 006e 58D0     		beq	.L106
 218:C:/Users/²Ü¼ÒºÀ/.iotlink/sdk/IoT_LINK/iot_link/network/lwm2m/wakaama_lwm2m/wakaama-master/core\observe.c ****     LOG_URI(uriP);
 776              		.loc 1 218 5 discriminator 29 view .LVU202
 777 0070 904B     		ldr	r3, .L117
 778 0072 DFF89CE2 		ldr	lr, .L117+92
 779 0076 0E29     		cmp	r1, #14
 780 0078 18BF     		it	ne
 781 007a 7346     		movne	r3, lr
 782              	.L66:
 218:C:/Users/²Ü¼ÒºÀ/.iotlink/sdk/IoT_LINK/iot_link/network/lwm2m/wakaama_lwm2m/wakaama-master/core\observe.c ****     LOG_URI(uriP);
 783              		.loc 1 218 5 discriminator 62 view .LVU203
 784 007c CDE903C3 		strd	ip, r3, [sp, #12]
 785 0080 DA23     		movs	r3, #218
 786 0082 0293     		str	r3, [sp, #8]
 787 0084 8C4B     		ldr	r3, .L117+4
 788 0086 4946     		mov	r1, r9
 789 0088 CDE90003 		strd	r0, r3, [sp]
 790 008c 8B4B     		ldr	r3, .L117+8
 791 008e 8C48     		ldr	r0, .L117+12
 792 0090 FFF7FEFF 		bl	printf
 793              	.LVL60:
 218:C:/Users/²Ü¼ÒºÀ/.iotlink/sdk/IoT_LINK/iot_link/network/lwm2m/wakaama_lwm2m/wakaama-master/core\observe.c ****     LOG_URI(uriP);
 794              		.loc 1 218 5 is_stmt 1 discriminator 62 view .LVU204
 795 0094 8B4B     		ldr	r3, .L117+16
 796 0096 1B68     		ldr	r3, [r3]
 797 0098 9868     		ldr	r0, [r3, #8]
 798 009a FFF7FEFF 		bl	fflush
 799              	.LVL61:
 800              	.L65:
 218:C:/Users/²Ü¼ÒºÀ/.iotlink/sdk/IoT_LINK/iot_link/network/lwm2m/wakaama_lwm2m/wakaama-master/core\observe.c ****     LOG_URI(uriP);
 801              		.loc 1 218 5 discriminator 63 view .LVU205
 218:C:/Users/²Ü¼ÒºÀ/.iotlink/sdk/IoT_LINK/iot_link/network/lwm2m/wakaama_lwm2m/wakaama-master/core\observe.c ****     LOG_URI(uriP);
 802              		.loc 1 218 5 discriminator 63 view .LVU206
 218:C:/Users/²Ü¼ÒºÀ/.iotlink/sdk/IoT_LINK/iot_link/network/lwm2m/wakaama_lwm2m/wakaama-master/core\observe.c ****     LOG_URI(uriP);
 803              		.loc 1 218 5 discriminator 63 view .LVU207
 219:C:/Users/²Ü¼ÒºÀ/.iotlink/sdk/IoT_LINK/iot_link/network/lwm2m/wakaama_lwm2m/wakaama-master/core\observe.c **** 
 804              		.loc 1 219 5 discriminator 63 view .LVU208
 805 009e 002C     		cmp	r4, #0
 806 00a0 41D1     		bne	.L67
 219:C:/Users/²Ü¼ÒºÀ/.iotlink/sdk/IoT_LINK/iot_link/network/lwm2m/wakaama_lwm2m/wakaama-master/core\observe.c **** 
 807              		.loc 1 219 5 discriminator 1 view .LVU209
 219:C:/Users/²Ü¼ÒºÀ/.iotlink/sdk/IoT_LINK/iot_link/network/lwm2m/wakaama_lwm2m/wakaama-master/core\observe.c **** 
 808              		.loc 1 219 5 discriminator 1 view .LVU210
 809 00a2 FFF7FEFF 		bl	link_log_level_get
 810              	.LVL62:
 811 00a6 0128     		cmp	r0, #1
ARM GAS  C:\Users\²Ü¼ÒºÀ\AppData\Local\Temp\ccA6NNYh.s 			page 25


 812 00a8 14D8     		bhi	.L69
 219:C:/Users/²Ü¼ÒºÀ/.iotlink/sdk/IoT_LINK/iot_link/network/lwm2m/wakaama_lwm2m/wakaama-master/core\observe.c **** 
 813              		.loc 1 219 5 discriminator 3 view .LVU211
 219:C:/Users/²Ü¼ÒºÀ/.iotlink/sdk/IoT_LINK/iot_link/network/lwm2m/wakaama_lwm2m/wakaama-master/core\observe.c **** 
 814              		.loc 1 219 5 discriminator 3 view .LVU212
 219:C:/Users/²Ü¼ÒºÀ/.iotlink/sdk/IoT_LINK/iot_link/network/lwm2m/wakaama_lwm2m/wakaama-master/core\observe.c **** 
 815              		.loc 1 219 5 discriminator 3 view .LVU213
 816 00aa 0120     		movs	r0, #1
 817 00ac FFF7FEFF 		bl	link_log_level_name
 818              	.LVL63:
 819 00b0 8146     		mov	r9, r0
 820 00b2 FFF7FEFF 		bl	osal_sys_time
 821              	.LVL64:
 822 00b6 DB23     		movs	r3, #219
 823 00b8 0193     		str	r3, [sp, #4]
 824 00ba 7F4B     		ldr	r3, .L117+4
 825 00bc 0093     		str	r3, [sp]
 826 00be 0246     		mov	r2, r0
 827 00c0 7E4B     		ldr	r3, .L117+8
 828 00c2 8148     		ldr	r0, .L117+20
 829 00c4 4946     		mov	r1, r9
 830 00c6 FFF7FEFF 		bl	printf
 831              	.LVL65:
 219:C:/Users/²Ü¼ÒºÀ/.iotlink/sdk/IoT_LINK/iot_link/network/lwm2m/wakaama_lwm2m/wakaama-master/core\observe.c **** 
 832              		.loc 1 219 5 discriminator 3 view .LVU214
 833              	.L114:
 219:C:/Users/²Ü¼ÒºÀ/.iotlink/sdk/IoT_LINK/iot_link/network/lwm2m/wakaama_lwm2m/wakaama-master/core\observe.c **** 
 834              		.loc 1 219 5 discriminator 19 view .LVU215
 835 00ca 7E4B     		ldr	r3, .L117+16
 836 00cc 1B68     		ldr	r3, [r3]
 837 00ce 9868     		ldr	r0, [r3, #8]
 838 00d0 FFF7FEFF 		bl	fflush
 839              	.LVL66:
 840              	.L69:
 219:C:/Users/²Ü¼ÒºÀ/.iotlink/sdk/IoT_LINK/iot_link/network/lwm2m/wakaama_lwm2m/wakaama-master/core\observe.c **** 
 841              		.loc 1 219 5 discriminator 21 view .LVU216
 219:C:/Users/²Ü¼ÒºÀ/.iotlink/sdk/IoT_LINK/iot_link/network/lwm2m/wakaama_lwm2m/wakaama-master/core\observe.c **** 
 842              		.loc 1 219 5 discriminator 21 view .LVU217
 219:C:/Users/²Ü¼ÒºÀ/.iotlink/sdk/IoT_LINK/iot_link/network/lwm2m/wakaama_lwm2m/wakaama-master/core\observe.c **** 
 843              		.loc 1 219 5 discriminator 21 view .LVU218
 219:C:/Users/²Ü¼ÒºÀ/.iotlink/sdk/IoT_LINK/iot_link/network/lwm2m/wakaama_lwm2m/wakaama-master/core\observe.c **** 
 844              		.loc 1 219 18 discriminator 21 view .LVU219
 221:C:/Users/²Ü¼ÒºÀ/.iotlink/sdk/IoT_LINK/iot_link/network/lwm2m/wakaama_lwm2m/wakaama-master/core\observe.c **** 
 845              		.loc 1 221 5 discriminator 21 view .LVU220
 846 00d4 09A9     		add	r1, sp, #36
 847 00d6 2846     		mov	r0, r5
 848 00d8 FFF7FEFF 		bl	coap_get_header_observe
 849              	.LVL67:
 223:C:/Users/²Ü¼ÒºÀ/.iotlink/sdk/IoT_LINK/iot_link/network/lwm2m/wakaama_lwm2m/wakaama-master/core\observe.c ****     {
 850              		.loc 1 223 5 discriminator 21 view .LVU221
 851 00dc 099B     		ldr	r3, [sp, #36]
 852 00de 002B     		cmp	r3, #0
 853 00e0 00F08180 		beq	.L78
 223:C:/Users/²Ü¼ÒºÀ/.iotlink/sdk/IoT_LINK/iot_link/network/lwm2m/wakaama_lwm2m/wakaama-master/core\observe.c ****     {
 854              		.loc 1 223 5 is_stmt 0 view .LVU222
 855 00e4 012B     		cmp	r3, #1
 856 00e6 00F0D080 		beq	.L79
ARM GAS  C:\Users\²Ü¼ÒºÀ\AppData\Local\Temp\ccA6NNYh.s 			page 26


 857              	.L109:
 226:C:/Users/²Ü¼ÒºÀ/.iotlink/sdk/IoT_LINK/iot_link/network/lwm2m/wakaama_lwm2m/wakaama-master/core\observe.c ****         if (message->token_len == 0) return COAP_400_BAD_REQUEST;
 858              		.loc 1 226 89 view .LVU223
 859 00ea 8020     		movs	r0, #128
 860 00ec 8EE0     		b	.L112
 861              	.L93:
 218:C:/Users/²Ü¼ÒºÀ/.iotlink/sdk/IoT_LINK/iot_link/network/lwm2m/wakaama_lwm2m/wakaama-master/core\observe.c ****     LOG_URI(uriP);
 862              		.loc 1 218 5 view .LVU224
 863 00ee 774B     		ldr	r3, .L117+24
 864 00f0 C4E7     		b	.L66
 865              	.L94:
 866 00f2 774B     		ldr	r3, .L117+28
 867 00f4 C2E7     		b	.L66
 868              	.L95:
 869 00f6 774B     		ldr	r3, .L117+32
 870 00f8 C0E7     		b	.L66
 871              	.L96:
 872 00fa 774B     		ldr	r3, .L117+36
 873 00fc BEE7     		b	.L66
 874              	.L97:
 875 00fe 774B     		ldr	r3, .L117+40
 876 0100 BCE7     		b	.L66
 877              	.L98:
 878 0102 774B     		ldr	r3, .L117+44
 879 0104 BAE7     		b	.L66
 880              	.L99:
 881 0106 774B     		ldr	r3, .L117+48
 882 0108 B8E7     		b	.L66
 883              	.L100:
 884 010a 774B     		ldr	r3, .L117+52
 885 010c B6E7     		b	.L66
 886              	.L101:
 887 010e 774B     		ldr	r3, .L117+56
 888 0110 B4E7     		b	.L66
 889              	.L102:
 890 0112 774B     		ldr	r3, .L117+60
 891 0114 B2E7     		b	.L66
 892              	.L103:
 893 0116 774B     		ldr	r3, .L117+64
 894 0118 B0E7     		b	.L66
 895              	.L104:
 896 011a 774B     		ldr	r3, .L117+68
 897 011c AEE7     		b	.L66
 898              	.L105:
 899 011e 774B     		ldr	r3, .L117+72
 900 0120 ACE7     		b	.L66
 901              	.L106:
 902 0122 774B     		ldr	r3, .L117+76
 903 0124 AAE7     		b	.L66
 904              	.L67:
 219:C:/Users/²Ü¼ÒºÀ/.iotlink/sdk/IoT_LINK/iot_link/network/lwm2m/wakaama_lwm2m/wakaama-master/core\observe.c **** 
 905              		.loc 1 219 5 is_stmt 1 discriminator 2 view .LVU225
 219:C:/Users/²Ü¼ÒºÀ/.iotlink/sdk/IoT_LINK/iot_link/network/lwm2m/wakaama_lwm2m/wakaama-master/core\observe.c **** 
 906              		.loc 1 219 5 discriminator 2 view .LVU226
 907 0126 FFF7FEFF 		bl	link_log_level_get
 908              	.LVL68:
 909 012a 0128     		cmp	r0, #1
ARM GAS  C:\Users\²Ü¼ÒºÀ\AppData\Local\Temp\ccA6NNYh.s 			page 27


 910 012c 16D8     		bhi	.L70
 219:C:/Users/²Ü¼ÒºÀ/.iotlink/sdk/IoT_LINK/iot_link/network/lwm2m/wakaama_lwm2m/wakaama-master/core\observe.c **** 
 911              		.loc 1 219 5 discriminator 6 view .LVU227
 219:C:/Users/²Ü¼ÒºÀ/.iotlink/sdk/IoT_LINK/iot_link/network/lwm2m/wakaama_lwm2m/wakaama-master/core\observe.c **** 
 912              		.loc 1 219 5 discriminator 6 view .LVU228
 219:C:/Users/²Ü¼ÒºÀ/.iotlink/sdk/IoT_LINK/iot_link/network/lwm2m/wakaama_lwm2m/wakaama-master/core\observe.c **** 
 913              		.loc 1 219 5 discriminator 6 view .LVU229
 914 012e 0120     		movs	r0, #1
 915 0130 FFF7FEFF 		bl	link_log_level_name
 916              	.LVL69:
 917 0134 8146     		mov	r9, r0
 918 0136 FFF7FEFF 		bl	osal_sys_time
 919              	.LVL70:
 920 013a 6388     		ldrh	r3, [r4, #2]
 921 013c 0293     		str	r3, [sp, #8]
 922 013e DB23     		movs	r3, #219
 923 0140 0193     		str	r3, [sp, #4]
 924 0142 5D4B     		ldr	r3, .L117+4
 925 0144 0093     		str	r3, [sp]
 926 0146 0246     		mov	r2, r0
 927 0148 5C4B     		ldr	r3, .L117+8
 928 014a 6E48     		ldr	r0, .L117+80
 929 014c 4946     		mov	r1, r9
 930 014e FFF7FEFF 		bl	printf
 931              	.LVL71:
 219:C:/Users/²Ü¼ÒºÀ/.iotlink/sdk/IoT_LINK/iot_link/network/lwm2m/wakaama_lwm2m/wakaama-master/core\observe.c **** 
 932              		.loc 1 219 5 discriminator 6 view .LVU230
 933 0152 5C4B     		ldr	r3, .L117+16
 934 0154 1B68     		ldr	r3, [r3]
 935 0156 9868     		ldr	r0, [r3, #8]
 936 0158 FFF7FEFF 		bl	fflush
 937              	.LVL72:
 938              	.L70:
 219:C:/Users/²Ü¼ÒºÀ/.iotlink/sdk/IoT_LINK/iot_link/network/lwm2m/wakaama_lwm2m/wakaama-master/core\observe.c **** 
 939              		.loc 1 219 5 discriminator 8 view .LVU231
 219:C:/Users/²Ü¼ÒºÀ/.iotlink/sdk/IoT_LINK/iot_link/network/lwm2m/wakaama_lwm2m/wakaama-master/core\observe.c **** 
 940              		.loc 1 219 5 discriminator 8 view .LVU232
 219:C:/Users/²Ü¼ÒºÀ/.iotlink/sdk/IoT_LINK/iot_link/network/lwm2m/wakaama_lwm2m/wakaama-master/core\observe.c **** 
 941              		.loc 1 219 5 discriminator 8 view .LVU233
 219:C:/Users/²Ü¼ÒºÀ/.iotlink/sdk/IoT_LINK/iot_link/network/lwm2m/wakaama_lwm2m/wakaama-master/core\observe.c **** 
 942              		.loc 1 219 5 discriminator 8 view .LVU234
 943 015c 2378     		ldrb	r3, [r4]	@ zero_extendqisi2
 944 015e 9807     		lsls	r0, r3, #30
 945 0160 16D5     		bpl	.L72
 219:C:/Users/²Ü¼ÒºÀ/.iotlink/sdk/IoT_LINK/iot_link/network/lwm2m/wakaama_lwm2m/wakaama-master/core\observe.c **** 
 946              		.loc 1 219 5 discriminator 9 view .LVU235
 219:C:/Users/²Ü¼ÒºÀ/.iotlink/sdk/IoT_LINK/iot_link/network/lwm2m/wakaama_lwm2m/wakaama-master/core\observe.c **** 
 947              		.loc 1 219 5 discriminator 9 view .LVU236
 948 0162 FFF7FEFF 		bl	link_log_level_get
 949              	.LVL73:
 950 0166 0128     		cmp	r0, #1
 951 0168 12D8     		bhi	.L72
 219:C:/Users/²Ü¼ÒºÀ/.iotlink/sdk/IoT_LINK/iot_link/network/lwm2m/wakaama_lwm2m/wakaama-master/core\observe.c **** 
 952              		.loc 1 219 5 discriminator 11 view .LVU237
 219:C:/Users/²Ü¼ÒºÀ/.iotlink/sdk/IoT_LINK/iot_link/network/lwm2m/wakaama_lwm2m/wakaama-master/core\observe.c **** 
 953              		.loc 1 219 5 discriminator 11 view .LVU238
 219:C:/Users/²Ü¼ÒºÀ/.iotlink/sdk/IoT_LINK/iot_link/network/lwm2m/wakaama_lwm2m/wakaama-master/core\observe.c **** 
ARM GAS  C:\Users\²Ü¼ÒºÀ\AppData\Local\Temp\ccA6NNYh.s 			page 28


 954              		.loc 1 219 5 discriminator 11 view .LVU239
 955 016a 0120     		movs	r0, #1
 956 016c FFF7FEFF 		bl	link_log_level_name
 957              	.LVL74:
 958 0170 8146     		mov	r9, r0
 959 0172 FFF7FEFF 		bl	osal_sys_time
 960              	.LVL75:
 961 0176 A388     		ldrh	r3, [r4, #4]
 962 0178 0093     		str	r3, [sp]
 963 017a 0246     		mov	r2, r0
 964 017c 4F4B     		ldr	r3, .L117+8
 965 017e 6248     		ldr	r0, .L117+84
 966 0180 4946     		mov	r1, r9
 967 0182 FFF7FEFF 		bl	printf
 968              	.LVL76:
 219:C:/Users/²Ü¼ÒºÀ/.iotlink/sdk/IoT_LINK/iot_link/network/lwm2m/wakaama_lwm2m/wakaama-master/core\observe.c **** 
 969              		.loc 1 219 5 discriminator 11 view .LVU240
 970 0186 4F4B     		ldr	r3, .L117+16
 971 0188 1B68     		ldr	r3, [r3]
 972 018a 9868     		ldr	r0, [r3, #8]
 973 018c FFF7FEFF 		bl	fflush
 974              	.LVL77:
 975              	.L72:
 219:C:/Users/²Ü¼ÒºÀ/.iotlink/sdk/IoT_LINK/iot_link/network/lwm2m/wakaama_lwm2m/wakaama-master/core\observe.c **** 
 976              		.loc 1 219 5 discriminator 13 view .LVU241
 219:C:/Users/²Ü¼ÒºÀ/.iotlink/sdk/IoT_LINK/iot_link/network/lwm2m/wakaama_lwm2m/wakaama-master/core\observe.c **** 
 977              		.loc 1 219 5 discriminator 13 view .LVU242
 219:C:/Users/²Ü¼ÒºÀ/.iotlink/sdk/IoT_LINK/iot_link/network/lwm2m/wakaama_lwm2m/wakaama-master/core\observe.c **** 
 978              		.loc 1 219 5 discriminator 13 view .LVU243
 219:C:/Users/²Ü¼ÒºÀ/.iotlink/sdk/IoT_LINK/iot_link/network/lwm2m/wakaama_lwm2m/wakaama-master/core\observe.c **** 
 979              		.loc 1 219 5 discriminator 13 view .LVU244
 980 0190 2378     		ldrb	r3, [r4]	@ zero_extendqisi2
 981 0192 D907     		lsls	r1, r3, #31
 982 0194 16D5     		bpl	.L75
 219:C:/Users/²Ü¼ÒºÀ/.iotlink/sdk/IoT_LINK/iot_link/network/lwm2m/wakaama_lwm2m/wakaama-master/core\observe.c **** 
 983              		.loc 1 219 5 discriminator 14 view .LVU245
 219:C:/Users/²Ü¼ÒºÀ/.iotlink/sdk/IoT_LINK/iot_link/network/lwm2m/wakaama_lwm2m/wakaama-master/core\observe.c **** 
 984              		.loc 1 219 5 discriminator 14 view .LVU246
 985 0196 FFF7FEFF 		bl	link_log_level_get
 986              	.LVL78:
 987 019a 0128     		cmp	r0, #1
 988 019c 12D8     		bhi	.L75
 219:C:/Users/²Ü¼ÒºÀ/.iotlink/sdk/IoT_LINK/iot_link/network/lwm2m/wakaama_lwm2m/wakaama-master/core\observe.c **** 
 989              		.loc 1 219 5 discriminator 16 view .LVU247
 219:C:/Users/²Ü¼ÒºÀ/.iotlink/sdk/IoT_LINK/iot_link/network/lwm2m/wakaama_lwm2m/wakaama-master/core\observe.c **** 
 990              		.loc 1 219 5 discriminator 16 view .LVU248
 219:C:/Users/²Ü¼ÒºÀ/.iotlink/sdk/IoT_LINK/iot_link/network/lwm2m/wakaama_lwm2m/wakaama-master/core\observe.c **** 
 991              		.loc 1 219 5 discriminator 16 view .LVU249
 992 019e 0120     		movs	r0, #1
 993 01a0 FFF7FEFF 		bl	link_log_level_name
 994              	.LVL79:
 995 01a4 8146     		mov	r9, r0
 996 01a6 FFF7FEFF 		bl	osal_sys_time
 997              	.LVL80:
 998 01aa E388     		ldrh	r3, [r4, #6]
 999 01ac 0093     		str	r3, [sp]
 1000 01ae 0246     		mov	r2, r0
ARM GAS  C:\Users\²Ü¼ÒºÀ\AppData\Local\Temp\ccA6NNYh.s 			page 29


 1001 01b0 424B     		ldr	r3, .L117+8
 1002 01b2 5548     		ldr	r0, .L117+84
 1003 01b4 4946     		mov	r1, r9
 1004 01b6 FFF7FEFF 		bl	printf
 1005              	.LVL81:
 219:C:/Users/²Ü¼ÒºÀ/.iotlink/sdk/IoT_LINK/iot_link/network/lwm2m/wakaama_lwm2m/wakaama-master/core\observe.c **** 
 1006              		.loc 1 219 5 discriminator 16 view .LVU250
 1007 01ba 424B     		ldr	r3, .L117+16
 1008 01bc 1B68     		ldr	r3, [r3]
 1009 01be 9868     		ldr	r0, [r3, #8]
 1010 01c0 FFF7FEFF 		bl	fflush
 1011              	.LVL82:
 1012              	.L75:
 219:C:/Users/²Ü¼ÒºÀ/.iotlink/sdk/IoT_LINK/iot_link/network/lwm2m/wakaama_lwm2m/wakaama-master/core\observe.c **** 
 1013              		.loc 1 219 5 discriminator 18 view .LVU251
 219:C:/Users/²Ü¼ÒºÀ/.iotlink/sdk/IoT_LINK/iot_link/network/lwm2m/wakaama_lwm2m/wakaama-master/core\observe.c **** 
 1014              		.loc 1 219 5 discriminator 18 view .LVU252
 219:C:/Users/²Ü¼ÒºÀ/.iotlink/sdk/IoT_LINK/iot_link/network/lwm2m/wakaama_lwm2m/wakaama-master/core\observe.c **** 
 1015              		.loc 1 219 5 discriminator 18 view .LVU253
 219:C:/Users/²Ü¼ÒºÀ/.iotlink/sdk/IoT_LINK/iot_link/network/lwm2m/wakaama_lwm2m/wakaama-master/core\observe.c **** 
 1016              		.loc 1 219 5 discriminator 18 view .LVU254
 219:C:/Users/²Ü¼ÒºÀ/.iotlink/sdk/IoT_LINK/iot_link/network/lwm2m/wakaama_lwm2m/wakaama-master/core\observe.c **** 
 1017              		.loc 1 219 5 discriminator 18 view .LVU255
 1018 01c4 FFF7FEFF 		bl	link_log_level_get
 1019              	.LVL83:
 1020 01c8 0128     		cmp	r0, #1
 1021 01ca 83D8     		bhi	.L69
 219:C:/Users/²Ü¼ÒºÀ/.iotlink/sdk/IoT_LINK/iot_link/network/lwm2m/wakaama_lwm2m/wakaama-master/core\observe.c **** 
 1022              		.loc 1 219 5 discriminator 19 view .LVU256
 219:C:/Users/²Ü¼ÒºÀ/.iotlink/sdk/IoT_LINK/iot_link/network/lwm2m/wakaama_lwm2m/wakaama-master/core\observe.c **** 
 1023              		.loc 1 219 5 discriminator 19 view .LVU257
 219:C:/Users/²Ü¼ÒºÀ/.iotlink/sdk/IoT_LINK/iot_link/network/lwm2m/wakaama_lwm2m/wakaama-master/core\observe.c **** 
 1024              		.loc 1 219 5 discriminator 19 view .LVU258
 1025 01cc 0120     		movs	r0, #1
 1026 01ce FFF7FEFF 		bl	link_log_level_name
 1027              	.LVL84:
 1028 01d2 8146     		mov	r9, r0
 1029 01d4 FFF7FEFF 		bl	osal_sys_time
 1030              	.LVL85:
 1031 01d8 384B     		ldr	r3, .L117+8
 1032 01da 0246     		mov	r2, r0
 1033 01dc 4946     		mov	r1, r9
 1034 01de 4B48     		ldr	r0, .L117+88
 1035 01e0 FFF7FEFF 		bl	printf
 1036              	.LVL86:
 1037 01e4 71E7     		b	.L114
 1038              	.L78:
 226:C:/Users/²Ü¼ÒºÀ/.iotlink/sdk/IoT_LINK/iot_link/network/lwm2m/wakaama_lwm2m/wakaama-master/core\observe.c ****         if (message->token_len == 0) return COAP_400_BAD_REQUEST;
 1039              		.loc 1 226 9 view .LVU259
 226:C:/Users/²Ü¼ÒºÀ/.iotlink/sdk/IoT_LINK/iot_link/network/lwm2m/wakaama_lwm2m/wakaama-master/core\observe.c ****         if (message->token_len == 0) return COAP_400_BAD_REQUEST;
 1040              		.loc 1 226 12 is_stmt 0 view .LVU260
 1041 01e6 2378     		ldrb	r3, [r4]	@ zero_extendqisi2
 1042 01e8 03F00303 		and	r3, r3, #3
 1043 01ec 012B     		cmp	r3, #1
 1044 01ee 3FF47CAF 		beq	.L109
 227:C:/Users/²Ü¼ÒºÀ/.iotlink/sdk/IoT_LINK/iot_link/network/lwm2m/wakaama_lwm2m/wakaama-master/core\observe.c **** 
 1045              		.loc 1 227 9 is_stmt 1 view .LVU261
ARM GAS  C:\Users\²Ü¼ÒºÀ\AppData\Local\Temp\ccA6NNYh.s 			page 30


 227:C:/Users/²Ü¼ÒºÀ/.iotlink/sdk/IoT_LINK/iot_link/network/lwm2m/wakaama_lwm2m/wakaama-master/core\observe.c **** 
 1046              		.loc 1 227 12 is_stmt 0 view .LVU262
 1047 01f2 95F84C30 		ldrb	r3, [r5, #76]	@ zero_extendqisi2
 1048 01f6 002B     		cmp	r3, #0
 1049 01f8 3FF477AF 		beq	.L109
 229:C:/Users/²Ü¼ÒºÀ/.iotlink/sdk/IoT_LINK/iot_link/network/lwm2m/wakaama_lwm2m/wakaama-master/core\observe.c ****         if (watcherP == NULL) return COAP_500_INTERNAL_SERVER_ERROR;
 1050              		.loc 1 229 9 is_stmt 1 view .LVU263
 229:C:/Users/²Ü¼ÒºÀ/.iotlink/sdk/IoT_LINK/iot_link/network/lwm2m/wakaama_lwm2m/wakaama-master/core\observe.c ****         if (watcherP == NULL) return COAP_500_INTERNAL_SERVER_ERROR;
 1051              		.loc 1 229 20 is_stmt 0 view .LVU264
 1052 01fc 3246     		mov	r2, r6
 1053 01fe 2146     		mov	r1, r4
 1054 0200 3846     		mov	r0, r7
 1055 0202 FFF7FEFF 		bl	prv_getWatcher
 1056              	.LVL87:
 230:C:/Users/²Ü¼ÒºÀ/.iotlink/sdk/IoT_LINK/iot_link/network/lwm2m/wakaama_lwm2m/wakaama-master/core\observe.c **** 
 1057              		.loc 1 230 9 is_stmt 1 view .LVU265
 230:C:/Users/²Ü¼ÒºÀ/.iotlink/sdk/IoT_LINK/iot_link/network/lwm2m/wakaama_lwm2m/wakaama-master/core\observe.c **** 
 1058              		.loc 1 230 12 is_stmt 0 view .LVU266
 1059 0206 0646     		mov	r6, r0
 1060              	.LVL88:
 230:C:/Users/²Ü¼ÒºÀ/.iotlink/sdk/IoT_LINK/iot_link/network/lwm2m/wakaama_lwm2m/wakaama-master/core\observe.c **** 
 1061              		.loc 1 230 12 view .LVU267
 1062 0208 18B9     		cbnz	r0, .L81
 1063              	.LVL89:
 1064              	.L88:
 230:C:/Users/²Ü¼ÒºÀ/.iotlink/sdk/IoT_LINK/iot_link/network/lwm2m/wakaama_lwm2m/wakaama-master/core\observe.c **** 
 1065              		.loc 1 230 38 view .LVU268
 1066 020a A020     		movs	r0, #160
 1067              	.LVL90:
 1068              	.L112:
 281:C:/Users/²Ü¼ÒºÀ/.iotlink/sdk/IoT_LINK/iot_link/network/lwm2m/wakaama_lwm2m/wakaama-master/core\observe.c **** 
 1069              		.loc 1 281 1 view .LVU269
 1070 020c 0AB0     		add	sp, sp, #40
 1071              	.LCFI11:
 1072              		.cfi_remember_state
 1073              		.cfi_def_cfa_offset 32
 1074              		@ sp needed
 1075 020e BDE8F087 		pop	{r4, r5, r6, r7, r8, r9, r10, pc}
 1076              	.LVL91:
 1077              	.L81:
 1078              	.LCFI12:
 1079              		.cfi_restore_state
 232:C:/Users/²Ü¼ÒºÀ/.iotlink/sdk/IoT_LINK/iot_link/network/lwm2m/wakaama_lwm2m/wakaama-master/core\observe.c ****         memcpy(watcherP->token, message->token, message->token_len);
 1080              		.loc 1 232 9 is_stmt 1 view .LVU270
 232:C:/Users/²Ü¼ÒºÀ/.iotlink/sdk/IoT_LINK/iot_link/network/lwm2m/wakaama_lwm2m/wakaama-master/core\observe.c ****         memcpy(watcherP->token, message->token, message->token_len);
 1081              		.loc 1 232 37 is_stmt 0 view .LVU271
 1082 0212 95F84C20 		ldrb	r2, [r5, #76]	@ zero_extendqisi2
 232:C:/Users/²Ü¼ÒºÀ/.iotlink/sdk/IoT_LINK/iot_link/network/lwm2m/wakaama_lwm2m/wakaama-master/core\observe.c ****         memcpy(watcherP->token, message->token, message->token_len);
 1083              		.loc 1 232 28 view .LVU272
 1084 0216 C261     		str	r2, [r0, #28]
 233:C:/Users/²Ü¼ÒºÀ/.iotlink/sdk/IoT_LINK/iot_link/network/lwm2m/wakaama_lwm2m/wakaama-master/core\observe.c ****         watcherP->active = true;
 1085              		.loc 1 233 9 is_stmt 1 view .LVU273
 1086 0218 05F14D01 		add	r1, r5, #77
 1087 021c 1230     		adds	r0, r0, #18
 1088              	.LVL92:
 233:C:/Users/²Ü¼ÒºÀ/.iotlink/sdk/IoT_LINK/iot_link/network/lwm2m/wakaama_lwm2m/wakaama-master/core\observe.c ****         watcherP->active = true;
 1089              		.loc 1 233 9 is_stmt 0 view .LVU274
ARM GAS  C:\Users\²Ü¼ÒºÀ\AppData\Local\Temp\ccA6NNYh.s 			page 31


 1090 021e FFF7FEFF 		bl	memcpy
 1091              	.LVL93:
 234:C:/Users/²Ü¼ÒºÀ/.iotlink/sdk/IoT_LINK/iot_link/network/lwm2m/wakaama_lwm2m/wakaama-master/core\observe.c ****         watcherP->lastTime = lwm2m_gettime();
 1092              		.loc 1 234 9 is_stmt 1 view .LVU275
 234:C:/Users/²Ü¼ÒºÀ/.iotlink/sdk/IoT_LINK/iot_link/network/lwm2m/wakaama_lwm2m/wakaama-master/core\observe.c ****         watcherP->lastTime = lwm2m_gettime();
 1093              		.loc 1 234 26 is_stmt 0 view .LVU276
 1094 0222 0123     		movs	r3, #1
 1095 0224 3371     		strb	r3, [r6, #4]
 235:C:/Users/²Ü¼ÒºÀ/.iotlink/sdk/IoT_LINK/iot_link/network/lwm2m/wakaama_lwm2m/wakaama-master/core\observe.c ****         watcherP->lastMid = response->mid;
 1096              		.loc 1 235 9 is_stmt 1 view .LVU277
 235:C:/Users/²Ü¼ÒºÀ/.iotlink/sdk/IoT_LINK/iot_link/network/lwm2m/wakaama_lwm2m/wakaama-master/core\observe.c ****         watcherP->lastMid = response->mid;
 1097              		.loc 1 235 30 is_stmt 0 view .LVU278
 1098 0226 FFF7FEFF 		bl	lwm2m_gettime
 1099              	.LVL94:
 235:C:/Users/²Ü¼ÒºÀ/.iotlink/sdk/IoT_LINK/iot_link/network/lwm2m/wakaama_lwm2m/wakaama-master/core\observe.c ****         watcherP->lastMid = response->mid;
 1100              		.loc 1 235 28 view .LVU279
 1101 022a C6E90801 		strd	r0, [r6, #32]
 236:C:/Users/²Ü¼ÒºÀ/.iotlink/sdk/IoT_LINK/iot_link/network/lwm2m/wakaama_lwm2m/wakaama-master/core\observe.c ****         if (IS_OPTION(message, COAP_OPTION_ACCEPT))
 1102              		.loc 1 236 9 is_stmt 1 view .LVU280
 236:C:/Users/²Ü¼ÒºÀ/.iotlink/sdk/IoT_LINK/iot_link/network/lwm2m/wakaama_lwm2m/wakaama-master/core\observe.c ****         if (IS_OPTION(message, COAP_OPTION_ACCEPT))
 1103              		.loc 1 236 27 is_stmt 0 view .LVU281
 1104 022e BAF80830 		ldrh	r3, [r10, #8]
 1105 0232 B385     		strh	r3, [r6, #44]	@ movhi
 237:C:/Users/²Ü¼ÒºÀ/.iotlink/sdk/IoT_LINK/iot_link/network/lwm2m/wakaama_lwm2m/wakaama-master/core\observe.c ****         {
 1106              		.loc 1 237 9 is_stmt 1 view .LVU282
 237:C:/Users/²Ü¼ÒºÀ/.iotlink/sdk/IoT_LINK/iot_link/network/lwm2m/wakaama_lwm2m/wakaama-master/core\observe.c ****         {
 1107              		.loc 1 237 12 is_stmt 0 view .LVU283
 1108 0234 2B7B     		ldrb	r3, [r5, #12]	@ zero_extendqisi2
 1109 0236 9A07     		lsls	r2, r3, #30
 1110 0238 15D5     		bpl	.L82
 239:C:/Users/²Ü¼ÒºÀ/.iotlink/sdk/IoT_LINK/iot_link/network/lwm2m/wakaama_lwm2m/wakaama-master/core\observe.c ****         }
 1111              		.loc 1 239 13 is_stmt 1 view .LVU284
 239:C:/Users/²Ü¼ÒºÀ/.iotlink/sdk/IoT_LINK/iot_link/network/lwm2m/wakaama_lwm2m/wakaama-master/core\observe.c ****         }
 1112              		.loc 1 239 32 is_stmt 0 view .LVU285
 1113 023a B5F85600 		ldrh	r0, [r5, #86]
 1114 023e FFF7FEFF 		bl	utils_convertMediaType
 1115              	.LVL95:
 239:C:/Users/²Ü¼ÒºÀ/.iotlink/sdk/IoT_LINK/iot_link/network/lwm2m/wakaama_lwm2m/wakaama-master/core\observe.c ****         }
 1116              		.loc 1 239 30 view .LVU286
 1117 0242 3082     		strh	r0, [r6, #16]	@ movhi
 1118              	.L83:
 246:C:/Users/²Ü¼ÒºÀ/.iotlink/sdk/IoT_LINK/iot_link/network/lwm2m/wakaama_lwm2m/wakaama-master/core\observe.c ****         {
 1119              		.loc 1 246 9 is_stmt 1 view .LVU287
 246:C:/Users/²Ü¼ÒºÀ/.iotlink/sdk/IoT_LINK/iot_link/network/lwm2m/wakaama_lwm2m/wakaama-master/core\observe.c ****         {
 1120              		.loc 1 246 12 is_stmt 0 view .LVU288
 1121 0244 2378     		ldrb	r3, [r4]	@ zero_extendqisi2
 1122 0246 DB07     		lsls	r3, r3, #31
 1123 0248 05D5     		bpl	.L85
 248:C:/Users/²Ü¼ÒºÀ/.iotlink/sdk/IoT_LINK/iot_link/network/lwm2m/wakaama_lwm2m/wakaama-master/core\observe.c ****             {
 1124              		.loc 1 248 13 is_stmt 1 view .LVU289
 248:C:/Users/²Ü¼ÒºÀ/.iotlink/sdk/IoT_LINK/iot_link/network/lwm2m/wakaama_lwm2m/wakaama-master/core\observe.c ****             {
 1125              		.loc 1 248 26 is_stmt 0 view .LVU290
 1126 024a 98F80030 		ldrb	r3, [r8]	@ zero_extendqisi2
 1127 024e 062B     		cmp	r3, #6
 1128 0250 0DD0     		beq	.L86
 1129 0252 072B     		cmp	r3, #7
 1130 0254 13D0     		beq	.L87
ARM GAS  C:\Users\²Ü¼ÒºÀ\AppData\Local\Temp\ccA6NNYh.s 			page 32


 1131              	.L85:
 261:C:/Users/²Ü¼ÒºÀ/.iotlink/sdk/IoT_LINK/iot_link/network/lwm2m/wakaama_lwm2m/wakaama-master/core\observe.c **** 
 1132              		.loc 1 261 9 is_stmt 1 view .LVU291
 261:C:/Users/²Ü¼ÒºÀ/.iotlink/sdk/IoT_LINK/iot_link/network/lwm2m/wakaama_lwm2m/wakaama-master/core\observe.c **** 
 1133              		.loc 1 261 51 is_stmt 0 view .LVU292
 1134 0256 B16A     		ldr	r1, [r6, #40]
 261:C:/Users/²Ü¼ÒºÀ/.iotlink/sdk/IoT_LINK/iot_link/network/lwm2m/wakaama_lwm2m/wakaama-master/core\observe.c **** 
 1135              		.loc 1 261 9 view .LVU293
 1136 0258 4B1C     		adds	r3, r1, #1
 1137 025a B362     		str	r3, [r6, #40]
 1138 025c 5046     		mov	r0, r10
 1139 025e FFF7FEFF 		bl	coap_set_header_observe
 1140              	.LVL96:
 263:C:/Users/²Ü¼ÒºÀ/.iotlink/sdk/IoT_LINK/iot_link/network/lwm2m/wakaama_lwm2m/wakaama-master/core\observe.c **** 
 1141              		.loc 1 263 9 is_stmt 1 view .LVU294
 1142              	.L116:
 276:C:/Users/²Ü¼ÒºÀ/.iotlink/sdk/IoT_LINK/iot_link/network/lwm2m/wakaama_lwm2m/wakaama-master/core\observe.c **** 
 1143              		.loc 1 276 16 is_stmt 0 view .LVU295
 1144 0262 4520     		movs	r0, #69
 1145 0264 D2E7     		b	.L112
 1146              	.LVL97:
 1147              	.L82:
 243:C:/Users/²Ü¼ÒºÀ/.iotlink/sdk/IoT_LINK/iot_link/network/lwm2m/wakaama_lwm2m/wakaama-master/core\observe.c ****         }
 1148              		.loc 1 243 13 is_stmt 1 view .LVU296
 243:C:/Users/²Ü¼ÒºÀ/.iotlink/sdk/IoT_LINK/iot_link/network/lwm2m/wakaama_lwm2m/wakaama-master/core\observe.c ****         }
 1149              		.loc 1 243 30 is_stmt 0 view .LVU297
 1150 0266 42F61653 		movw	r3, #11542
 1151 026a 3382     		strh	r3, [r6, #16]	@ movhi
 1152 026c EAE7     		b	.L83
 1153              	.L86:
 251:C:/Users/²Ü¼ÒºÀ/.iotlink/sdk/IoT_LINK/iot_link/network/lwm2m/wakaama_lwm2m/wakaama-master/core\observe.c ****                 break;
 1154              		.loc 1 251 17 is_stmt 1 view .LVU298
 251:C:/Users/²Ü¼ÒºÀ/.iotlink/sdk/IoT_LINK/iot_link/network/lwm2m/wakaama_lwm2m/wakaama-master/core\observe.c ****                 break;
 1155              		.loc 1 251 26 is_stmt 0 view .LVU299
 1156 026e 06F13001 		add	r1, r6, #48
 1157 0272 4046     		mov	r0, r8
 1158 0274 FFF7FEFF 		bl	lwm2m_data_decode_int
 1159              	.LVL98:
 1160              	.L115:
 254:C:/Users/²Ü¼ÒºÀ/.iotlink/sdk/IoT_LINK/iot_link/network/lwm2m/wakaama_lwm2m/wakaama-master/core\observe.c ****                 break;
 1161              		.loc 1 254 20 view .LVU300
 1162 0278 0128     		cmp	r0, #1
 1163 027a C6D1     		bne	.L88
 1164 027c EBE7     		b	.L85
 1165              	.L87:
 254:C:/Users/²Ü¼ÒºÀ/.iotlink/sdk/IoT_LINK/iot_link/network/lwm2m/wakaama_lwm2m/wakaama-master/core\observe.c ****                 break;
 1166              		.loc 1 254 17 is_stmt 1 view .LVU301
 254:C:/Users/²Ü¼ÒºÀ/.iotlink/sdk/IoT_LINK/iot_link/network/lwm2m/wakaama_lwm2m/wakaama-master/core\observe.c ****                 break;
 1167              		.loc 1 254 26 is_stmt 0 view .LVU302
 1168 027e 06F13001 		add	r1, r6, #48
 1169 0282 4046     		mov	r0, r8
 1170 0284 FFF7FEFF 		bl	lwm2m_data_decode_float
 1171              	.LVL99:
 1172 0288 F6E7     		b	.L115
 1173              	.LVL100:
 1174              	.L79:
 267:C:/Users/²Ü¼ÒºÀ/.iotlink/sdk/IoT_LINK/iot_link/network/lwm2m/wakaama_lwm2m/wakaama-master/core\observe.c ****         if (observedP)
ARM GAS  C:\Users\²Ü¼ÒºÀ\AppData\Local\Temp\ccA6NNYh.s 			page 33


 1175              		.loc 1 267 9 is_stmt 1 view .LVU303
 267:C:/Users/²Ü¼ÒºÀ/.iotlink/sdk/IoT_LINK/iot_link/network/lwm2m/wakaama_lwm2m/wakaama-master/core\observe.c ****         if (observedP)
 1176              		.loc 1 267 21 is_stmt 0 view .LVU304
 1177 028a F869     		ldr	r0, [r7, #28]
 1178 028c 2146     		mov	r1, r4
 1179 028e FFF7FEFF 		bl	prv_findObserved.isra.0
 1180              	.LVL101:
 268:C:/Users/²Ü¼ÒºÀ/.iotlink/sdk/IoT_LINK/iot_link/network/lwm2m/wakaama_lwm2m/wakaama-master/core\observe.c ****         {
 1181              		.loc 1 268 9 is_stmt 1 view .LVU305
 268:C:/Users/²Ü¼ÒºÀ/.iotlink/sdk/IoT_LINK/iot_link/network/lwm2m/wakaama_lwm2m/wakaama-master/core\observe.c ****         {
 1182              		.loc 1 268 12 is_stmt 0 view .LVU306
 1183 0292 0028     		cmp	r0, #0
 1184 0294 E5D0     		beq	.L116
 1185              	.LVL102:
 270:C:/Users/²Ü¼ÒºÀ/.iotlink/sdk/IoT_LINK/iot_link/network/lwm2m/wakaama_lwm2m/wakaama-master/core\observe.c ****             if (watcherP)
 1186              		.loc 1 270 13 is_stmt 1 view .LVU307
 270:C:/Users/²Ü¼ÒºÀ/.iotlink/sdk/IoT_LINK/iot_link/network/lwm2m/wakaama_lwm2m/wakaama-master/core\observe.c ****             if (watcherP)
 1187              		.loc 1 270 24 is_stmt 0 view .LVU308
 1188 0296 C368     		ldr	r3, [r0, #12]
 1189              	.LVL103:
 1190              	.LBB24:
 1191              	.LBI24:
 143:C:/Users/²Ü¼ÒºÀ/.iotlink/sdk/IoT_LINK/iot_link/network/lwm2m/wakaama_lwm2m/wakaama-master/core\observe.c ****                                         lwm2m_server_t *serverP)
 1192              		.loc 1 143 25 is_stmt 1 view .LVU309
 1193              	.LBB25:
 146:C:/Users/²Ü¼ÒºÀ/.iotlink/sdk/IoT_LINK/iot_link/network/lwm2m/wakaama_lwm2m/wakaama-master/core\observe.c **** 
 1194              		.loc 1 146 5 view .LVU310
 148:C:/Users/²Ü¼ÒºÀ/.iotlink/sdk/IoT_LINK/iot_link/network/lwm2m/wakaama_lwm2m/wakaama-master/core\observe.c ****     while (targetP != NULL
 1195              		.loc 1 148 5 view .LVU311
 149:C:/Users/²Ü¼ÒºÀ/.iotlink/sdk/IoT_LINK/iot_link/network/lwm2m/wakaama_lwm2m/wakaama-master/core\observe.c ****             && targetP->server != serverP)
 1196              		.loc 1 149 5 view .LVU312
 1197              	.L90:
 149:C:/Users/²Ü¼ÒºÀ/.iotlink/sdk/IoT_LINK/iot_link/network/lwm2m/wakaama_lwm2m/wakaama-master/core\observe.c ****             && targetP->server != serverP)
 1198              		.loc 1 149 11 view .LVU313
 1199 0298 002B     		cmp	r3, #0
 1200 029a E2D0     		beq	.L116
 150:C:/Users/²Ü¼ÒºÀ/.iotlink/sdk/IoT_LINK/iot_link/network/lwm2m/wakaama_lwm2m/wakaama-master/core\observe.c ****     {
 1201              		.loc 1 150 13 is_stmt 0 view .LVU314
 1202 029c 9A68     		ldr	r2, [r3, #8]
 1203 029e 9642     		cmp	r6, r2
 1204 02a0 05D1     		bne	.L91
 155:C:/Users/²Ü¼ÒºÀ/.iotlink/sdk/IoT_LINK/iot_link/network/lwm2m/wakaama_lwm2m/wakaama-master/core\observe.c **** }
 1205              		.loc 1 155 5 is_stmt 1 view .LVU315
 1206              	.LVL104:
 155:C:/Users/²Ü¼ÒºÀ/.iotlink/sdk/IoT_LINK/iot_link/network/lwm2m/wakaama_lwm2m/wakaama-master/core\observe.c **** }
 1207              		.loc 1 155 5 is_stmt 0 view .LVU316
 1208              	.LBE25:
 1209              	.LBE24:
 271:C:/Users/²Ü¼ÒºÀ/.iotlink/sdk/IoT_LINK/iot_link/network/lwm2m/wakaama_lwm2m/wakaama-master/core\observe.c ****             {
 1210              		.loc 1 271 13 is_stmt 1 view .LVU317
 273:C:/Users/²Ü¼ÒºÀ/.iotlink/sdk/IoT_LINK/iot_link/network/lwm2m/wakaama_lwm2m/wakaama-master/core\observe.c ****             }
 1211              		.loc 1 273 17 view .LVU318
 1212 02a2 F269     		ldr	r2, [r6, #28]
 1213 02a4 998D     		ldrh	r1, [r3, #44]
 1214              	.LVL105:
 273:C:/Users/²Ü¼ÒºÀ/.iotlink/sdk/IoT_LINK/iot_link/network/lwm2m/wakaama_lwm2m/wakaama-master/core\observe.c ****             }
 1215              		.loc 1 273 17 is_stmt 0 view .LVU319
ARM GAS  C:\Users\²Ü¼ÒºÀ\AppData\Local\Temp\ccA6NNYh.s 			page 34


 1216 02a6 3846     		mov	r0, r7
 1217              	.LVL106:
 273:C:/Users/²Ü¼ÒºÀ/.iotlink/sdk/IoT_LINK/iot_link/network/lwm2m/wakaama_lwm2m/wakaama-master/core\observe.c ****             }
 1218              		.loc 1 273 17 view .LVU320
 1219 02a8 FFF7FEFF 		bl	observe_cancel
 1220              	.LVL107:
 273:C:/Users/²Ü¼ÒºÀ/.iotlink/sdk/IoT_LINK/iot_link/network/lwm2m/wakaama_lwm2m/wakaama-master/core\observe.c ****             }
 1221              		.loc 1 273 17 view .LVU321
 1222 02ac D9E7     		b	.L116
 1223              	.LVL108:
 1224              	.L91:
 1225              	.LBB27:
 1226              	.LBB26:
 152:C:/Users/²Ü¼ÒºÀ/.iotlink/sdk/IoT_LINK/iot_link/network/lwm2m/wakaama_lwm2m/wakaama-master/core\observe.c ****     }
 1227              		.loc 1 152 9 is_stmt 1 view .LVU322
 152:C:/Users/²Ü¼ÒºÀ/.iotlink/sdk/IoT_LINK/iot_link/network/lwm2m/wakaama_lwm2m/wakaama-master/core\observe.c ****     }
 1228              		.loc 1 152 17 is_stmt 0 view .LVU323
 1229 02ae 1B68     		ldr	r3, [r3]
 1230              	.LVL109:
 152:C:/Users/²Ü¼ÒºÀ/.iotlink/sdk/IoT_LINK/iot_link/network/lwm2m/wakaama_lwm2m/wakaama-master/core\observe.c ****     }
 1231              		.loc 1 152 17 view .LVU324
 1232 02b0 F2E7     		b	.L90
 1233              	.L118:
 1234 02b2 00BF     		.align	2
 1235              	.L117:
 1236 02b4 00000000 		.word	.LC1
 1237 02b8 00000000 		.word	.LANCHOR4
 1238 02bc 00000000 		.word	.LANCHOR3
 1239 02c0 2D010000 		.word	.LC17
 1240 02c4 00000000 		.word	_impure_ptr
 1241 02c8 68010000 		.word	.LC18
 1242 02cc 23000000 		.word	.LC3
 1243 02d0 36000000 		.word	.LC4
 1244 02d4 48000000 		.word	.LC5
 1245 02d8 59000000 		.word	.LC6
 1246 02dc 6A000000 		.word	.LC7
 1247 02e0 83000000 		.word	.LC8
 1248 02e4 9B000000 		.word	.LC9
 1249 02e8 B8000000 		.word	.LC10
 1250 02ec CC000000 		.word	.LC11
 1251 02f0 DE000000 		.word	.LC12
 1252 02f4 F1000000 		.word	.LC13
 1253 02f8 02010000 		.word	.LC14
 1254 02fc 10000000 		.word	.LC2
 1255 0300 14010000 		.word	.LC15
 1256 0304 86010000 		.word	.LC19
 1257 0308 A1010000 		.word	.LC20
 1258 030c B4010000 		.word	.LC21
 1259 0310 25010000 		.word	.LC16
 1260              	.LBE26:
 1261              	.LBE27:
 1262              		.cfi_endproc
 1263              	.LFE9:
 1265              		.section	.text.observe_clear,"ax",%progbits
 1266              		.align	1
 1267              		.global	observe_clear
 1268              		.syntax unified
ARM GAS  C:\Users\²Ü¼ÒºÀ\AppData\Local\Temp\ccA6NNYh.s 			page 35


 1269              		.thumb
 1270              		.thumb_func
 1271              		.fpu fpv4-sp-d16
 1273              	observe_clear:
 1274              	.LVL110:
 1275              	.LFB11:
 336:C:/Users/²Ü¼ÒºÀ/.iotlink/sdk/IoT_LINK/iot_link/network/lwm2m/wakaama_lwm2m/wakaama-master/core\observe.c **** 
 337:C:/Users/²Ü¼ÒºÀ/.iotlink/sdk/IoT_LINK/iot_link/network/lwm2m/wakaama_lwm2m/wakaama-master/core\observe.c **** void observe_clear(lwm2m_context_t *contextP,
 338:C:/Users/²Ü¼ÒºÀ/.iotlink/sdk/IoT_LINK/iot_link/network/lwm2m/wakaama_lwm2m/wakaama-master/core\observe.c ****                    lwm2m_uri_t *uriP)
 339:C:/Users/²Ü¼ÒºÀ/.iotlink/sdk/IoT_LINK/iot_link/network/lwm2m/wakaama_lwm2m/wakaama-master/core\observe.c **** {
 1276              		.loc 1 339 1 is_stmt 1 view -0
 1277              		.cfi_startproc
 1278              		@ args = 0, pretend = 0, frame = 0
 1279              		@ frame_needed = 0, uses_anonymous_args = 0
 340:C:/Users/²Ü¼ÒºÀ/.iotlink/sdk/IoT_LINK/iot_link/network/lwm2m/wakaama_lwm2m/wakaama-master/core\observe.c ****     lwm2m_observed_t *observedP;
 1280              		.loc 1 340 5 view .LVU326
 341:C:/Users/²Ü¼ÒºÀ/.iotlink/sdk/IoT_LINK/iot_link/network/lwm2m/wakaama_lwm2m/wakaama-master/core\observe.c **** 
 342:C:/Users/²Ü¼ÒºÀ/.iotlink/sdk/IoT_LINK/iot_link/network/lwm2m/wakaama_lwm2m/wakaama-master/core\observe.c ****     LOG_URI(uriP);
 1281              		.loc 1 342 5 view .LVU327
 339:C:/Users/²Ü¼ÒºÀ/.iotlink/sdk/IoT_LINK/iot_link/network/lwm2m/wakaama_lwm2m/wakaama-master/core\observe.c ****     lwm2m_observed_t *observedP;
 1282              		.loc 1 339 1 is_stmt 0 view .LVU328
 1283 0000 2DE9F043 		push	{r4, r5, r6, r7, r8, r9, lr}
 1284              	.LCFI13:
 1285              		.cfi_def_cfa_offset 28
 1286              		.cfi_offset 4, -28
 1287              		.cfi_offset 5, -24
 1288              		.cfi_offset 6, -20
 1289              		.cfi_offset 7, -16
 1290              		.cfi_offset 8, -12
 1291              		.cfi_offset 9, -8
 1292              		.cfi_offset 14, -4
 1293 0004 0646     		mov	r6, r0
 1294 0006 85B0     		sub	sp, sp, #20
 1295              	.LCFI14:
 1296              		.cfi_def_cfa_offset 48
 1297              		.loc 1 342 5 view .LVU329
 1298 0008 0D46     		mov	r5, r1
 1299 000a 09BB     		cbnz	r1, .L120
 1300              		.loc 1 342 5 is_stmt 1 discriminator 1 view .LVU330
 1301              		.loc 1 342 5 discriminator 1 view .LVU331
 1302 000c FFF7FEFF 		bl	link_log_level_get
 1303              	.LVL111:
 1304              		.loc 1 342 5 is_stmt 0 discriminator 1 view .LVU332
 1305 0010 0128     		cmp	r0, #1
 1306 0012 15D8     		bhi	.L122
 1307              		.loc 1 342 5 is_stmt 1 discriminator 3 view .LVU333
 1308              		.loc 1 342 5 discriminator 3 view .LVU334
 1309              		.loc 1 342 5 discriminator 3 view .LVU335
 1310 0014 0120     		movs	r0, #1
 1311 0016 FFF7FEFF 		bl	link_log_level_name
 1312              	.LVL112:
 1313 001a 0446     		mov	r4, r0
 1314 001c FFF7FEFF 		bl	osal_sys_time
 1315              	.LVL113:
 1316 0020 4FF4AB73 		mov	r3, #342
 1317 0024 0193     		str	r3, [sp, #4]
 1318 0026 4F4B     		ldr	r3, .L146
ARM GAS  C:\Users\²Ü¼ÒºÀ\AppData\Local\Temp\ccA6NNYh.s 			page 36


 1319 0028 0093     		str	r3, [sp]
 1320 002a 0246     		mov	r2, r0
 1321 002c 4E4B     		ldr	r3, .L146+4
 1322 002e 4F48     		ldr	r0, .L146+8
 1323 0030 2146     		mov	r1, r4
 1324 0032 FFF7FEFF 		bl	printf
 1325              	.LVL114:
 1326              		.loc 1 342 5 discriminator 3 view .LVU336
 1327              	.L145:
 1328              		.loc 1 342 5 discriminator 19 view .LVU337
 1329 0036 4E4B     		ldr	r3, .L146+12
 1330 0038 1B68     		ldr	r3, [r3]
 1331 003a 9868     		ldr	r0, [r3, #8]
 1332 003c FFF7FEFF 		bl	fflush
 1333              	.LVL115:
 1334              	.L122:
 1335              		.loc 1 342 5 discriminator 21 view .LVU338
 1336              		.loc 1 342 5 discriminator 21 view .LVU339
 1337              		.loc 1 342 5 discriminator 21 view .LVU340
 1338              		.loc 1 342 18 discriminator 21 view .LVU341
 343:C:/Users/²Ü¼ÒºÀ/.iotlink/sdk/IoT_LINK/iot_link/network/lwm2m/wakaama_lwm2m/wakaama-master/core\observe.c **** 
 344:C:/Users/²Ü¼ÒºÀ/.iotlink/sdk/IoT_LINK/iot_link/network/lwm2m/wakaama_lwm2m/wakaama-master/core\observe.c ****     observedP = contextP->observedList;
 1339              		.loc 1 344 5 discriminator 21 view .LVU342
 1340              		.loc 1 344 15 is_stmt 0 discriminator 21 view .LVU343
 1341 0040 B046     		mov	r8, r6
 1342 0042 58F81C4F 		ldr	r4, [r8, #28]!
 1343              	.LVL116:
 345:C:/Users/²Ü¼ÒºÀ/.iotlink/sdk/IoT_LINK/iot_link/network/lwm2m/wakaama_lwm2m/wakaama-master/core\observe.c ****     while(observedP != NULL)
 1344              		.loc 1 345 5 is_stmt 1 discriminator 21 view .LVU344
 1345              	.L131:
 1346              		.loc 1 345 10 view .LVU345
 1347 0046 002C     		cmp	r4, #0
 1348 0048 63D1     		bne	.L138
 346:C:/Users/²Ü¼ÒºÀ/.iotlink/sdk/IoT_LINK/iot_link/network/lwm2m/wakaama_lwm2m/wakaama-master/core\observe.c ****     {
 347:C:/Users/²Ü¼ÒºÀ/.iotlink/sdk/IoT_LINK/iot_link/network/lwm2m/wakaama_lwm2m/wakaama-master/core\observe.c ****         if (observedP->uri.objectId == uriP->objectId
 348:C:/Users/²Ü¼ÒºÀ/.iotlink/sdk/IoT_LINK/iot_link/network/lwm2m/wakaama_lwm2m/wakaama-master/core\observe.c ****                 && (LWM2M_URI_IS_SET_INSTANCE(uriP) == false
 349:C:/Users/²Ü¼ÒºÀ/.iotlink/sdk/IoT_LINK/iot_link/network/lwm2m/wakaama_lwm2m/wakaama-master/core\observe.c ****                     || observedP->uri.instanceId == uriP->instanceId))
 350:C:/Users/²Ü¼ÒºÀ/.iotlink/sdk/IoT_LINK/iot_link/network/lwm2m/wakaama_lwm2m/wakaama-master/core\observe.c ****         {
 351:C:/Users/²Ü¼ÒºÀ/.iotlink/sdk/IoT_LINK/iot_link/network/lwm2m/wakaama_lwm2m/wakaama-master/core\observe.c ****             lwm2m_observed_t *nextP;
 352:C:/Users/²Ü¼ÒºÀ/.iotlink/sdk/IoT_LINK/iot_link/network/lwm2m/wakaama_lwm2m/wakaama-master/core\observe.c ****             lwm2m_watcher_t *watcherP;
 353:C:/Users/²Ü¼ÒºÀ/.iotlink/sdk/IoT_LINK/iot_link/network/lwm2m/wakaama_lwm2m/wakaama-master/core\observe.c **** 
 354:C:/Users/²Ü¼ÒºÀ/.iotlink/sdk/IoT_LINK/iot_link/network/lwm2m/wakaama_lwm2m/wakaama-master/core\observe.c ****             osal_mutex_lock(contextP->observe_mutex);
 355:C:/Users/²Ü¼ÒºÀ/.iotlink/sdk/IoT_LINK/iot_link/network/lwm2m/wakaama_lwm2m/wakaama-master/core\observe.c ****             nextP = observedP->next;
 356:C:/Users/²Ü¼ÒºÀ/.iotlink/sdk/IoT_LINK/iot_link/network/lwm2m/wakaama_lwm2m/wakaama-master/core\observe.c **** 
 357:C:/Users/²Ü¼ÒºÀ/.iotlink/sdk/IoT_LINK/iot_link/network/lwm2m/wakaama_lwm2m/wakaama-master/core\observe.c ****             for (watcherP = observedP->watcherList; watcherP != NULL; watcherP = watcherP->next)
 358:C:/Users/²Ü¼ÒºÀ/.iotlink/sdk/IoT_LINK/iot_link/network/lwm2m/wakaama_lwm2m/wakaama-master/core\observe.c ****             {
 359:C:/Users/²Ü¼ÒºÀ/.iotlink/sdk/IoT_LINK/iot_link/network/lwm2m/wakaama_lwm2m/wakaama-master/core\observe.c ****                 if (watcherP->parameters != NULL) lwm2m_free(watcherP->parameters);
 360:C:/Users/²Ü¼ÒºÀ/.iotlink/sdk/IoT_LINK/iot_link/network/lwm2m/wakaama_lwm2m/wakaama-master/core\observe.c ****             }
 361:C:/Users/²Ü¼ÒºÀ/.iotlink/sdk/IoT_LINK/iot_link/network/lwm2m/wakaama_lwm2m/wakaama-master/core\observe.c ****             LWM2M_LIST_FREE(observedP->watcherList);
 362:C:/Users/²Ü¼ÒºÀ/.iotlink/sdk/IoT_LINK/iot_link/network/lwm2m/wakaama_lwm2m/wakaama-master/core\observe.c **** 
 363:C:/Users/²Ü¼ÒºÀ/.iotlink/sdk/IoT_LINK/iot_link/network/lwm2m/wakaama_lwm2m/wakaama-master/core\observe.c ****             prv_unlinkObserved(contextP, observedP);
 364:C:/Users/²Ü¼ÒºÀ/.iotlink/sdk/IoT_LINK/iot_link/network/lwm2m/wakaama_lwm2m/wakaama-master/core\observe.c ****             lwm2m_free(observedP);
 365:C:/Users/²Ü¼ÒºÀ/.iotlink/sdk/IoT_LINK/iot_link/network/lwm2m/wakaama_lwm2m/wakaama-master/core\observe.c **** 
 366:C:/Users/²Ü¼ÒºÀ/.iotlink/sdk/IoT_LINK/iot_link/network/lwm2m/wakaama_lwm2m/wakaama-master/core\observe.c ****             observedP = nextP;
 367:C:/Users/²Ü¼ÒºÀ/.iotlink/sdk/IoT_LINK/iot_link/network/lwm2m/wakaama_lwm2m/wakaama-master/core\observe.c ****             (void) osal_mutex_unlock(contextP->observe_mutex);
 368:C:/Users/²Ü¼ÒºÀ/.iotlink/sdk/IoT_LINK/iot_link/network/lwm2m/wakaama_lwm2m/wakaama-master/core\observe.c ****         }
 369:C:/Users/²Ü¼ÒºÀ/.iotlink/sdk/IoT_LINK/iot_link/network/lwm2m/wakaama_lwm2m/wakaama-master/core\observe.c ****         else
ARM GAS  C:\Users\²Ü¼ÒºÀ\AppData\Local\Temp\ccA6NNYh.s 			page 37


 370:C:/Users/²Ü¼ÒºÀ/.iotlink/sdk/IoT_LINK/iot_link/network/lwm2m/wakaama_lwm2m/wakaama-master/core\observe.c ****         {
 371:C:/Users/²Ü¼ÒºÀ/.iotlink/sdk/IoT_LINK/iot_link/network/lwm2m/wakaama_lwm2m/wakaama-master/core\observe.c ****             observedP = observedP->next;
 372:C:/Users/²Ü¼ÒºÀ/.iotlink/sdk/IoT_LINK/iot_link/network/lwm2m/wakaama_lwm2m/wakaama-master/core\observe.c ****         }
 373:C:/Users/²Ü¼ÒºÀ/.iotlink/sdk/IoT_LINK/iot_link/network/lwm2m/wakaama_lwm2m/wakaama-master/core\observe.c ****     }
 374:C:/Users/²Ü¼ÒºÀ/.iotlink/sdk/IoT_LINK/iot_link/network/lwm2m/wakaama_lwm2m/wakaama-master/core\observe.c **** }
 1349              		.loc 1 374 1 is_stmt 0 view .LVU346
 1350 004a 05B0     		add	sp, sp, #20
 1351              	.LCFI15:
 1352              		.cfi_remember_state
 1353              		.cfi_def_cfa_offset 28
 1354              		@ sp needed
 1355 004c BDE8F083 		pop	{r4, r5, r6, r7, r8, r9, pc}
 1356              	.LVL117:
 1357              	.L120:
 1358              	.LCFI16:
 1359              		.cfi_restore_state
 342:C:/Users/²Ü¼ÒºÀ/.iotlink/sdk/IoT_LINK/iot_link/network/lwm2m/wakaama_lwm2m/wakaama-master/core\observe.c **** 
 1360              		.loc 1 342 5 is_stmt 1 discriminator 2 view .LVU347
 342:C:/Users/²Ü¼ÒºÀ/.iotlink/sdk/IoT_LINK/iot_link/network/lwm2m/wakaama_lwm2m/wakaama-master/core\observe.c **** 
 1361              		.loc 1 342 5 discriminator 2 view .LVU348
 1362 0050 FFF7FEFF 		bl	link_log_level_get
 1363              	.LVL118:
 342:C:/Users/²Ü¼ÒºÀ/.iotlink/sdk/IoT_LINK/iot_link/network/lwm2m/wakaama_lwm2m/wakaama-master/core\observe.c **** 
 1364              		.loc 1 342 5 is_stmt 0 discriminator 2 view .LVU349
 1365 0054 0128     		cmp	r0, #1
 1366 0056 17D8     		bhi	.L123
 342:C:/Users/²Ü¼ÒºÀ/.iotlink/sdk/IoT_LINK/iot_link/network/lwm2m/wakaama_lwm2m/wakaama-master/core\observe.c **** 
 1367              		.loc 1 342 5 is_stmt 1 discriminator 6 view .LVU350
 342:C:/Users/²Ü¼ÒºÀ/.iotlink/sdk/IoT_LINK/iot_link/network/lwm2m/wakaama_lwm2m/wakaama-master/core\observe.c **** 
 1368              		.loc 1 342 5 discriminator 6 view .LVU351
 342:C:/Users/²Ü¼ÒºÀ/.iotlink/sdk/IoT_LINK/iot_link/network/lwm2m/wakaama_lwm2m/wakaama-master/core\observe.c **** 
 1369              		.loc 1 342 5 discriminator 6 view .LVU352
 1370 0058 0120     		movs	r0, #1
 1371 005a FFF7FEFF 		bl	link_log_level_name
 1372              	.LVL119:
 1373 005e 0446     		mov	r4, r0
 1374 0060 FFF7FEFF 		bl	osal_sys_time
 1375              	.LVL120:
 1376 0064 6B88     		ldrh	r3, [r5, #2]
 1377 0066 0293     		str	r3, [sp, #8]
 1378 0068 4FF4AB73 		mov	r3, #342
 1379 006c 0193     		str	r3, [sp, #4]
 1380 006e 3D4B     		ldr	r3, .L146
 1381 0070 0093     		str	r3, [sp]
 1382 0072 0246     		mov	r2, r0
 1383 0074 3C4B     		ldr	r3, .L146+4
 1384 0076 3F48     		ldr	r0, .L146+16
 1385 0078 2146     		mov	r1, r4
 1386 007a FFF7FEFF 		bl	printf
 1387              	.LVL121:
 342:C:/Users/²Ü¼ÒºÀ/.iotlink/sdk/IoT_LINK/iot_link/network/lwm2m/wakaama_lwm2m/wakaama-master/core\observe.c **** 
 1388              		.loc 1 342 5 discriminator 6 view .LVU353
 1389 007e 3C4B     		ldr	r3, .L146+12
 1390 0080 1B68     		ldr	r3, [r3]
 1391 0082 9868     		ldr	r0, [r3, #8]
 1392 0084 FFF7FEFF 		bl	fflush
 1393              	.LVL122:
ARM GAS  C:\Users\²Ü¼ÒºÀ\AppData\Local\Temp\ccA6NNYh.s 			page 38


 1394              	.L123:
 342:C:/Users/²Ü¼ÒºÀ/.iotlink/sdk/IoT_LINK/iot_link/network/lwm2m/wakaama_lwm2m/wakaama-master/core\observe.c **** 
 1395              		.loc 1 342 5 discriminator 8 view .LVU354
 342:C:/Users/²Ü¼ÒºÀ/.iotlink/sdk/IoT_LINK/iot_link/network/lwm2m/wakaama_lwm2m/wakaama-master/core\observe.c **** 
 1396              		.loc 1 342 5 discriminator 8 view .LVU355
 342:C:/Users/²Ü¼ÒºÀ/.iotlink/sdk/IoT_LINK/iot_link/network/lwm2m/wakaama_lwm2m/wakaama-master/core\observe.c **** 
 1397              		.loc 1 342 5 discriminator 8 view .LVU356
 342:C:/Users/²Ü¼ÒºÀ/.iotlink/sdk/IoT_LINK/iot_link/network/lwm2m/wakaama_lwm2m/wakaama-master/core\observe.c **** 
 1398              		.loc 1 342 5 discriminator 8 view .LVU357
 1399 0088 2B78     		ldrb	r3, [r5]	@ zero_extendqisi2
 1400 008a 9907     		lsls	r1, r3, #30
 1401 008c 16D5     		bpl	.L125
 342:C:/Users/²Ü¼ÒºÀ/.iotlink/sdk/IoT_LINK/iot_link/network/lwm2m/wakaama_lwm2m/wakaama-master/core\observe.c **** 
 1402              		.loc 1 342 5 discriminator 9 view .LVU358
 342:C:/Users/²Ü¼ÒºÀ/.iotlink/sdk/IoT_LINK/iot_link/network/lwm2m/wakaama_lwm2m/wakaama-master/core\observe.c **** 
 1403              		.loc 1 342 5 discriminator 9 view .LVU359
 1404 008e FFF7FEFF 		bl	link_log_level_get
 1405              	.LVL123:
 1406 0092 0128     		cmp	r0, #1
 1407 0094 12D8     		bhi	.L125
 342:C:/Users/²Ü¼ÒºÀ/.iotlink/sdk/IoT_LINK/iot_link/network/lwm2m/wakaama_lwm2m/wakaama-master/core\observe.c **** 
 1408              		.loc 1 342 5 discriminator 11 view .LVU360
 342:C:/Users/²Ü¼ÒºÀ/.iotlink/sdk/IoT_LINK/iot_link/network/lwm2m/wakaama_lwm2m/wakaama-master/core\observe.c **** 
 1409              		.loc 1 342 5 discriminator 11 view .LVU361
 342:C:/Users/²Ü¼ÒºÀ/.iotlink/sdk/IoT_LINK/iot_link/network/lwm2m/wakaama_lwm2m/wakaama-master/core\observe.c **** 
 1410              		.loc 1 342 5 discriminator 11 view .LVU362
 1411 0096 0120     		movs	r0, #1
 1412 0098 FFF7FEFF 		bl	link_log_level_name
 1413              	.LVL124:
 1414 009c 0446     		mov	r4, r0
 1415 009e FFF7FEFF 		bl	osal_sys_time
 1416              	.LVL125:
 1417 00a2 AB88     		ldrh	r3, [r5, #4]
 1418 00a4 0093     		str	r3, [sp]
 1419 00a6 0246     		mov	r2, r0
 1420 00a8 2F4B     		ldr	r3, .L146+4
 1421 00aa 3348     		ldr	r0, .L146+20
 1422 00ac 2146     		mov	r1, r4
 1423 00ae FFF7FEFF 		bl	printf
 1424              	.LVL126:
 342:C:/Users/²Ü¼ÒºÀ/.iotlink/sdk/IoT_LINK/iot_link/network/lwm2m/wakaama_lwm2m/wakaama-master/core\observe.c **** 
 1425              		.loc 1 342 5 discriminator 11 view .LVU363
 1426 00b2 2F4B     		ldr	r3, .L146+12
 1427 00b4 1B68     		ldr	r3, [r3]
 1428 00b6 9868     		ldr	r0, [r3, #8]
 1429 00b8 FFF7FEFF 		bl	fflush
 1430              	.LVL127:
 1431              	.L125:
 342:C:/Users/²Ü¼ÒºÀ/.iotlink/sdk/IoT_LINK/iot_link/network/lwm2m/wakaama_lwm2m/wakaama-master/core\observe.c **** 
 1432              		.loc 1 342 5 discriminator 13 view .LVU364
 342:C:/Users/²Ü¼ÒºÀ/.iotlink/sdk/IoT_LINK/iot_link/network/lwm2m/wakaama_lwm2m/wakaama-master/core\observe.c **** 
 1433              		.loc 1 342 5 discriminator 13 view .LVU365
 342:C:/Users/²Ü¼ÒºÀ/.iotlink/sdk/IoT_LINK/iot_link/network/lwm2m/wakaama_lwm2m/wakaama-master/core\observe.c **** 
 1434              		.loc 1 342 5 discriminator 13 view .LVU366
 342:C:/Users/²Ü¼ÒºÀ/.iotlink/sdk/IoT_LINK/iot_link/network/lwm2m/wakaama_lwm2m/wakaama-master/core\observe.c **** 
 1435              		.loc 1 342 5 discriminator 13 view .LVU367
 1436 00bc 2B78     		ldrb	r3, [r5]	@ zero_extendqisi2
ARM GAS  C:\Users\²Ü¼ÒºÀ\AppData\Local\Temp\ccA6NNYh.s 			page 39


 1437 00be DA07     		lsls	r2, r3, #31
 1438 00c0 16D5     		bpl	.L128
 342:C:/Users/²Ü¼ÒºÀ/.iotlink/sdk/IoT_LINK/iot_link/network/lwm2m/wakaama_lwm2m/wakaama-master/core\observe.c **** 
 1439              		.loc 1 342 5 discriminator 14 view .LVU368
 342:C:/Users/²Ü¼ÒºÀ/.iotlink/sdk/IoT_LINK/iot_link/network/lwm2m/wakaama_lwm2m/wakaama-master/core\observe.c **** 
 1440              		.loc 1 342 5 discriminator 14 view .LVU369
 1441 00c2 FFF7FEFF 		bl	link_log_level_get
 1442              	.LVL128:
 1443 00c6 0128     		cmp	r0, #1
 1444 00c8 12D8     		bhi	.L128
 342:C:/Users/²Ü¼ÒºÀ/.iotlink/sdk/IoT_LINK/iot_link/network/lwm2m/wakaama_lwm2m/wakaama-master/core\observe.c **** 
 1445              		.loc 1 342 5 discriminator 16 view .LVU370
 342:C:/Users/²Ü¼ÒºÀ/.iotlink/sdk/IoT_LINK/iot_link/network/lwm2m/wakaama_lwm2m/wakaama-master/core\observe.c **** 
 1446              		.loc 1 342 5 discriminator 16 view .LVU371
 342:C:/Users/²Ü¼ÒºÀ/.iotlink/sdk/IoT_LINK/iot_link/network/lwm2m/wakaama_lwm2m/wakaama-master/core\observe.c **** 
 1447              		.loc 1 342 5 discriminator 16 view .LVU372
 1448 00ca 0120     		movs	r0, #1
 1449 00cc FFF7FEFF 		bl	link_log_level_name
 1450              	.LVL129:
 1451 00d0 0446     		mov	r4, r0
 1452 00d2 FFF7FEFF 		bl	osal_sys_time
 1453              	.LVL130:
 1454 00d6 EB88     		ldrh	r3, [r5, #6]
 1455 00d8 0093     		str	r3, [sp]
 1456 00da 0246     		mov	r2, r0
 1457 00dc 224B     		ldr	r3, .L146+4
 1458 00de 2648     		ldr	r0, .L146+20
 1459 00e0 2146     		mov	r1, r4
 1460 00e2 FFF7FEFF 		bl	printf
 1461              	.LVL131:
 342:C:/Users/²Ü¼ÒºÀ/.iotlink/sdk/IoT_LINK/iot_link/network/lwm2m/wakaama_lwm2m/wakaama-master/core\observe.c **** 
 1462              		.loc 1 342 5 discriminator 16 view .LVU373
 1463 00e6 224B     		ldr	r3, .L146+12
 1464 00e8 1B68     		ldr	r3, [r3]
 1465 00ea 9868     		ldr	r0, [r3, #8]
 1466 00ec FFF7FEFF 		bl	fflush
 1467              	.LVL132:
 1468              	.L128:
 342:C:/Users/²Ü¼ÒºÀ/.iotlink/sdk/IoT_LINK/iot_link/network/lwm2m/wakaama_lwm2m/wakaama-master/core\observe.c **** 
 1469              		.loc 1 342 5 discriminator 18 view .LVU374
 342:C:/Users/²Ü¼ÒºÀ/.iotlink/sdk/IoT_LINK/iot_link/network/lwm2m/wakaama_lwm2m/wakaama-master/core\observe.c **** 
 1470              		.loc 1 342 5 discriminator 18 view .LVU375
 342:C:/Users/²Ü¼ÒºÀ/.iotlink/sdk/IoT_LINK/iot_link/network/lwm2m/wakaama_lwm2m/wakaama-master/core\observe.c **** 
 1471              		.loc 1 342 5 discriminator 18 view .LVU376
 342:C:/Users/²Ü¼ÒºÀ/.iotlink/sdk/IoT_LINK/iot_link/network/lwm2m/wakaama_lwm2m/wakaama-master/core\observe.c **** 
 1472              		.loc 1 342 5 discriminator 18 view .LVU377
 342:C:/Users/²Ü¼ÒºÀ/.iotlink/sdk/IoT_LINK/iot_link/network/lwm2m/wakaama_lwm2m/wakaama-master/core\observe.c **** 
 1473              		.loc 1 342 5 discriminator 18 view .LVU378
 1474 00f0 FFF7FEFF 		bl	link_log_level_get
 1475              	.LVL133:
 1476 00f4 0128     		cmp	r0, #1
 1477 00f6 A3D8     		bhi	.L122
 342:C:/Users/²Ü¼ÒºÀ/.iotlink/sdk/IoT_LINK/iot_link/network/lwm2m/wakaama_lwm2m/wakaama-master/core\observe.c **** 
 1478              		.loc 1 342 5 discriminator 19 view .LVU379
 342:C:/Users/²Ü¼ÒºÀ/.iotlink/sdk/IoT_LINK/iot_link/network/lwm2m/wakaama_lwm2m/wakaama-master/core\observe.c **** 
 1479              		.loc 1 342 5 discriminator 19 view .LVU380
 342:C:/Users/²Ü¼ÒºÀ/.iotlink/sdk/IoT_LINK/iot_link/network/lwm2m/wakaama_lwm2m/wakaama-master/core\observe.c **** 
ARM GAS  C:\Users\²Ü¼ÒºÀ\AppData\Local\Temp\ccA6NNYh.s 			page 40


 1480              		.loc 1 342 5 discriminator 19 view .LVU381
 1481 00f8 0120     		movs	r0, #1
 1482 00fa FFF7FEFF 		bl	link_log_level_name
 1483              	.LVL134:
 1484 00fe 0446     		mov	r4, r0
 1485 0100 FFF7FEFF 		bl	osal_sys_time
 1486              	.LVL135:
 1487 0104 184B     		ldr	r3, .L146+4
 1488 0106 0246     		mov	r2, r0
 1489 0108 2146     		mov	r1, r4
 1490 010a 1C48     		ldr	r0, .L146+24
 1491 010c FFF7FEFF 		bl	printf
 1492              	.LVL136:
 1493 0110 91E7     		b	.L145
 1494              	.LVL137:
 1495              	.L138:
 347:C:/Users/²Ü¼ÒºÀ/.iotlink/sdk/IoT_LINK/iot_link/network/lwm2m/wakaama_lwm2m/wakaama-master/core\observe.c ****                 && (LWM2M_URI_IS_SET_INSTANCE(uriP) == false
 1496              		.loc 1 347 9 view .LVU382
 347:C:/Users/²Ü¼ÒºÀ/.iotlink/sdk/IoT_LINK/iot_link/network/lwm2m/wakaama_lwm2m/wakaama-master/core\observe.c ****                 && (LWM2M_URI_IS_SET_INSTANCE(uriP) == false
 1497              		.loc 1 347 12 is_stmt 0 view .LVU383
 1498 0112 E288     		ldrh	r2, [r4, #6]
 1499 0114 6B88     		ldrh	r3, [r5, #2]
 1500 0116 9A42     		cmp	r2, r3
 1501 0118 22D1     		bne	.L132
 348:C:/Users/²Ü¼ÒºÀ/.iotlink/sdk/IoT_LINK/iot_link/network/lwm2m/wakaama_lwm2m/wakaama-master/core\observe.c ****                     || observedP->uri.instanceId == uriP->instanceId))
 1502              		.loc 1 348 17 view .LVU384
 1503 011a 2B78     		ldrb	r3, [r5]	@ zero_extendqisi2
 1504 011c 9B07     		lsls	r3, r3, #30
 1505 011e 03D5     		bpl	.L133
 349:C:/Users/²Ü¼ÒºÀ/.iotlink/sdk/IoT_LINK/iot_link/network/lwm2m/wakaama_lwm2m/wakaama-master/core\observe.c ****         {
 1506              		.loc 1 349 21 view .LVU385
 1507 0120 2289     		ldrh	r2, [r4, #8]
 1508 0122 AB88     		ldrh	r3, [r5, #4]
 1509 0124 9A42     		cmp	r2, r3
 1510 0126 1BD1     		bne	.L132
 1511              	.L133:
 1512              	.LBB28:
 351:C:/Users/²Ü¼ÒºÀ/.iotlink/sdk/IoT_LINK/iot_link/network/lwm2m/wakaama_lwm2m/wakaama-master/core\observe.c ****             lwm2m_watcher_t *watcherP;
 1513              		.loc 1 351 13 is_stmt 1 view .LVU386
 352:C:/Users/²Ü¼ÒºÀ/.iotlink/sdk/IoT_LINK/iot_link/network/lwm2m/wakaama_lwm2m/wakaama-master/core\observe.c **** 
 1514              		.loc 1 352 13 view .LVU387
 354:C:/Users/²Ü¼ÒºÀ/.iotlink/sdk/IoT_LINK/iot_link/network/lwm2m/wakaama_lwm2m/wakaama-master/core\observe.c ****             nextP = observedP->next;
 1515              		.loc 1 354 13 view .LVU388
 1516 0128 306A     		ldr	r0, [r6, #32]
 1517 012a FFF7FEFF 		bl	osal_mutex_lock
 1518              	.LVL138:
 355:C:/Users/²Ü¼ÒºÀ/.iotlink/sdk/IoT_LINK/iot_link/network/lwm2m/wakaama_lwm2m/wakaama-master/core\observe.c **** 
 1519              		.loc 1 355 13 view .LVU389
 355:C:/Users/²Ü¼ÒºÀ/.iotlink/sdk/IoT_LINK/iot_link/network/lwm2m/wakaama_lwm2m/wakaama-master/core\observe.c **** 
 1520              		.loc 1 355 19 is_stmt 0 view .LVU390
 1521 012e D4F80090 		ldr	r9, [r4]
 1522              	.LVL139:
 357:C:/Users/²Ü¼ÒºÀ/.iotlink/sdk/IoT_LINK/iot_link/network/lwm2m/wakaama_lwm2m/wakaama-master/core\observe.c ****             {
 1523              		.loc 1 357 13 is_stmt 1 view .LVU391
 357:C:/Users/²Ü¼ÒºÀ/.iotlink/sdk/IoT_LINK/iot_link/network/lwm2m/wakaama_lwm2m/wakaama-master/core\observe.c ****             {
 1524              		.loc 1 357 27 is_stmt 0 view .LVU392
 1525 0132 E768     		ldr	r7, [r4, #12]
ARM GAS  C:\Users\²Ü¼ÒºÀ\AppData\Local\Temp\ccA6NNYh.s 			page 41


 1526              	.LVL140:
 1527              	.L134:
 357:C:/Users/²Ü¼ÒºÀ/.iotlink/sdk/IoT_LINK/iot_link/network/lwm2m/wakaama_lwm2m/wakaama-master/core\observe.c ****             {
 1528              		.loc 1 357 53 is_stmt 1 discriminator 1 view .LVU393
 357:C:/Users/²Ü¼ÒºÀ/.iotlink/sdk/IoT_LINK/iot_link/network/lwm2m/wakaama_lwm2m/wakaama-master/core\observe.c ****             {
 1529              		.loc 1 357 13 is_stmt 0 discriminator 1 view .LVU394
 1530 0134 77B9     		cbnz	r7, .L136
 361:C:/Users/²Ü¼ÒºÀ/.iotlink/sdk/IoT_LINK/iot_link/network/lwm2m/wakaama_lwm2m/wakaama-master/core\observe.c **** 
 1531              		.loc 1 361 13 is_stmt 1 view .LVU395
 1532 0136 E068     		ldr	r0, [r4, #12]
 1533 0138 FFF7FEFF 		bl	lwm2m_list_free
 1534              	.LVL141:
 363:C:/Users/²Ü¼ÒºÀ/.iotlink/sdk/IoT_LINK/iot_link/network/lwm2m/wakaama_lwm2m/wakaama-master/core\observe.c ****             lwm2m_free(observedP);
 1535              		.loc 1 363 13 view .LVU396
 1536 013c 2146     		mov	r1, r4
 1537 013e 4046     		mov	r0, r8
 1538 0140 FFF7FEFF 		bl	prv_unlinkObserved.isra.0
 1539              	.LVL142:
 364:C:/Users/²Ü¼ÒºÀ/.iotlink/sdk/IoT_LINK/iot_link/network/lwm2m/wakaama_lwm2m/wakaama-master/core\observe.c **** 
 1540              		.loc 1 364 13 view .LVU397
 1541 0144 2046     		mov	r0, r4
 1542 0146 FFF7FEFF 		bl	lwm2m_free
 1543              	.LVL143:
 366:C:/Users/²Ü¼ÒºÀ/.iotlink/sdk/IoT_LINK/iot_link/network/lwm2m/wakaama_lwm2m/wakaama-master/core\observe.c ****             (void) osal_mutex_unlock(contextP->observe_mutex);
 1544              		.loc 1 366 13 view .LVU398
 367:C:/Users/²Ü¼ÒºÀ/.iotlink/sdk/IoT_LINK/iot_link/network/lwm2m/wakaama_lwm2m/wakaama-master/core\observe.c ****         }
 1545              		.loc 1 367 13 view .LVU399
 367:C:/Users/²Ü¼ÒºÀ/.iotlink/sdk/IoT_LINK/iot_link/network/lwm2m/wakaama_lwm2m/wakaama-master/core\observe.c ****         }
 1546              		.loc 1 367 20 is_stmt 0 view .LVU400
 1547 014a 306A     		ldr	r0, [r6, #32]
 1548 014c FFF7FEFF 		bl	osal_mutex_unlock
 1549              	.LVL144:
 366:C:/Users/²Ü¼ÒºÀ/.iotlink/sdk/IoT_LINK/iot_link/network/lwm2m/wakaama_lwm2m/wakaama-master/core\observe.c ****             (void) osal_mutex_unlock(contextP->observe_mutex);
 1550              		.loc 1 366 23 view .LVU401
 1551 0150 4C46     		mov	r4, r9
 1552              	.LBE28:
 350:C:/Users/²Ü¼ÒºÀ/.iotlink/sdk/IoT_LINK/iot_link/network/lwm2m/wakaama_lwm2m/wakaama-master/core\observe.c ****             lwm2m_observed_t *nextP;
 1553              		.loc 1 350 9 view .LVU402
 1554 0152 78E7     		b	.L131
 1555              	.LVL145:
 1556              	.L136:
 1557              	.LBB29:
 359:C:/Users/²Ü¼ÒºÀ/.iotlink/sdk/IoT_LINK/iot_link/network/lwm2m/wakaama_lwm2m/wakaama-master/core\observe.c ****             }
 1558              		.loc 1 359 17 is_stmt 1 view .LVU403
 359:C:/Users/²Ü¼ÒºÀ/.iotlink/sdk/IoT_LINK/iot_link/network/lwm2m/wakaama_lwm2m/wakaama-master/core\observe.c ****             }
 1559              		.loc 1 359 29 is_stmt 0 view .LVU404
 1560 0154 F868     		ldr	r0, [r7, #12]
 359:C:/Users/²Ü¼ÒºÀ/.iotlink/sdk/IoT_LINK/iot_link/network/lwm2m/wakaama_lwm2m/wakaama-master/core\observe.c ****             }
 1561              		.loc 1 359 20 view .LVU405
 1562 0156 08B1     		cbz	r0, .L135
 359:C:/Users/²Ü¼ÒºÀ/.iotlink/sdk/IoT_LINK/iot_link/network/lwm2m/wakaama_lwm2m/wakaama-master/core\observe.c ****             }
 1563              		.loc 1 359 51 is_stmt 1 discriminator 1 view .LVU406
 1564 0158 FFF7FEFF 		bl	lwm2m_free
 1565              	.LVL146:
 1566              	.L135:
 357:C:/Users/²Ü¼ÒºÀ/.iotlink/sdk/IoT_LINK/iot_link/network/lwm2m/wakaama_lwm2m/wakaama-master/core\observe.c ****             {
 1567              		.loc 1 357 71 discriminator 2 view .LVU407
ARM GAS  C:\Users\²Ü¼ÒºÀ\AppData\Local\Temp\ccA6NNYh.s 			page 42


 357:C:/Users/²Ü¼ÒºÀ/.iotlink/sdk/IoT_LINK/iot_link/network/lwm2m/wakaama_lwm2m/wakaama-master/core\observe.c ****             {
 1568              		.loc 1 357 80 is_stmt 0 discriminator 2 view .LVU408
 1569 015c 3F68     		ldr	r7, [r7]
 1570              	.LVL147:
 357:C:/Users/²Ü¼ÒºÀ/.iotlink/sdk/IoT_LINK/iot_link/network/lwm2m/wakaama_lwm2m/wakaama-master/core\observe.c ****             {
 1571              		.loc 1 357 80 discriminator 2 view .LVU409
 1572 015e E9E7     		b	.L134
 1573              	.LVL148:
 1574              	.L132:
 357:C:/Users/²Ü¼ÒºÀ/.iotlink/sdk/IoT_LINK/iot_link/network/lwm2m/wakaama_lwm2m/wakaama-master/core\observe.c ****             {
 1575              		.loc 1 357 80 discriminator 2 view .LVU410
 1576              	.LBE29:
 371:C:/Users/²Ü¼ÒºÀ/.iotlink/sdk/IoT_LINK/iot_link/network/lwm2m/wakaama_lwm2m/wakaama-master/core\observe.c ****         }
 1577              		.loc 1 371 13 is_stmt 1 view .LVU411
 371:C:/Users/²Ü¼ÒºÀ/.iotlink/sdk/IoT_LINK/iot_link/network/lwm2m/wakaama_lwm2m/wakaama-master/core\observe.c ****         }
 1578              		.loc 1 371 23 is_stmt 0 view .LVU412
 1579 0160 2468     		ldr	r4, [r4]
 1580              	.LVL149:
 371:C:/Users/²Ü¼ÒºÀ/.iotlink/sdk/IoT_LINK/iot_link/network/lwm2m/wakaama_lwm2m/wakaama-master/core\observe.c ****         }
 1581              		.loc 1 371 23 view .LVU413
 1582 0162 70E7     		b	.L131
 1583              	.L147:
 1584              		.align	2
 1585              	.L146:
 1586 0164 00000000 		.word	.LANCHOR6
 1587 0168 00000000 		.word	.LANCHOR5
 1588 016c 68010000 		.word	.LC18
 1589 0170 00000000 		.word	_impure_ptr
 1590 0174 86010000 		.word	.LC19
 1591 0178 A1010000 		.word	.LC20
 1592 017c B4010000 		.word	.LC21
 1593              		.cfi_endproc
 1594              	.LFE11:
 1596              		.section	.rodata.observe_setParameters.str1.1,"aMS",%progbits,1
 1597              	.LC22:
 1598 0000 5B25735D 		.ascii	"[%s][%u][%s] [%d][%s:%d] toSet: %08X, toClear: %08X"
 1598      5B25755D 
 1598      5B25735D 
 1598      205B2564 
 1598      5D5B2573 
 1599 0033 2C206D69 		.ascii	", minPeriod: %d, maxPeriod: %d, greaterThan: %f, le"
 1599      6E506572 
 1599      696F643A 
 1599      2025642C 
 1599      206D6178 
 1600 0066 73735468 		.ascii	"ssThan: %f, step: %f\015\012\015\012\000"
 1600      616E3A20 
 1600      25662C20 
 1600      73746570 
 1600      3A202566 
 1601              		.global	__aeabi_d2f
 1602              	.LC23:
 1603 007f 5B25735D 		.ascii	"[%s][%u][%s] [%d][%s:%d] Final toSet: %08X, minPeri"
 1603      5B25755D 
 1603      5B25735D 
 1603      205B2564 
 1603      5D5B2573 
ARM GAS  C:\Users\²Ü¼ÒºÀ\AppData\Local\Temp\ccA6NNYh.s 			page 43


 1604 00b2 6F643A20 		.ascii	"od: %d, maxPeriod: %d, greaterThan: %f, lessThan: %"
 1604      25642C20 
 1604      6D617850 
 1604      6572696F 
 1604      643A2025 
 1605 00e5 662C2073 		.ascii	"f, step: %f\015\012\015\012\000"
 1605      7465703A 
 1605      2025660D 
 1605      0A0D0A00 
 1606              		.section	.text.observe_setParameters,"ax",%progbits
 1607              		.align	1
 1608              		.global	observe_setParameters
 1609              		.syntax unified
 1610              		.thumb
 1611              		.thumb_func
 1612              		.fpu fpv4-sp-d16
 1614              	observe_setParameters:
 1615              	.LVL150:
 1616              	.LFB12:
 375:C:/Users/²Ü¼ÒºÀ/.iotlink/sdk/IoT_LINK/iot_link/network/lwm2m/wakaama_lwm2m/wakaama-master/core\observe.c **** 
 376:C:/Users/²Ü¼ÒºÀ/.iotlink/sdk/IoT_LINK/iot_link/network/lwm2m/wakaama_lwm2m/wakaama-master/core\observe.c **** uint8_t observe_setParameters(lwm2m_context_t *contextP,
 377:C:/Users/²Ü¼ÒºÀ/.iotlink/sdk/IoT_LINK/iot_link/network/lwm2m/wakaama_lwm2m/wakaama-master/core\observe.c ****                               lwm2m_uri_t *uriP,
 378:C:/Users/²Ü¼ÒºÀ/.iotlink/sdk/IoT_LINK/iot_link/network/lwm2m/wakaama_lwm2m/wakaama-master/core\observe.c ****                               lwm2m_server_t *serverP,
 379:C:/Users/²Ü¼ÒºÀ/.iotlink/sdk/IoT_LINK/iot_link/network/lwm2m/wakaama_lwm2m/wakaama-master/core\observe.c ****                               lwm2m_attributes_t *attrP)
 380:C:/Users/²Ü¼ÒºÀ/.iotlink/sdk/IoT_LINK/iot_link/network/lwm2m/wakaama_lwm2m/wakaama-master/core\observe.c **** {
 1617              		.loc 1 380 1 is_stmt 1 view -0
 1618              		.cfi_startproc
 1619              		@ args = 0, pretend = 0, frame = 8
 1620              		@ frame_needed = 0, uses_anonymous_args = 0
 381:C:/Users/²Ü¼ÒºÀ/.iotlink/sdk/IoT_LINK/iot_link/network/lwm2m/wakaama_lwm2m/wakaama-master/core\observe.c ****     uint8_t result;
 1621              		.loc 1 381 5 view .LVU415
 382:C:/Users/²Ü¼ÒºÀ/.iotlink/sdk/IoT_LINK/iot_link/network/lwm2m/wakaama_lwm2m/wakaama-master/core\observe.c ****     lwm2m_watcher_t *watcherP;
 1622              		.loc 1 382 5 view .LVU416
 383:C:/Users/²Ü¼ÒºÀ/.iotlink/sdk/IoT_LINK/iot_link/network/lwm2m/wakaama_lwm2m/wakaama-master/core\observe.c **** 
 384:C:/Users/²Ü¼ÒºÀ/.iotlink/sdk/IoT_LINK/iot_link/network/lwm2m/wakaama_lwm2m/wakaama-master/core\observe.c ****     LOG_URI(uriP);
 1623              		.loc 1 384 5 view .LVU417
 380:C:/Users/²Ü¼ÒºÀ/.iotlink/sdk/IoT_LINK/iot_link/network/lwm2m/wakaama_lwm2m/wakaama-master/core\observe.c ****     uint8_t result;
 1624              		.loc 1 380 1 is_stmt 0 view .LVU418
 1625 0000 2DE9F04D 		push	{r4, r5, r6, r7, r8, r10, fp, lr}
 1626              	.LCFI17:
 1627              		.cfi_def_cfa_offset 32
 1628              		.cfi_offset 4, -32
 1629              		.cfi_offset 5, -28
 1630              		.cfi_offset 6, -24
 1631              		.cfi_offset 7, -20
 1632              		.cfi_offset 8, -16
 1633              		.cfi_offset 10, -12
 1634              		.cfi_offset 11, -8
 1635              		.cfi_offset 14, -4
 1636 0004 2DED028B 		vpush.64	{d8}
 1637              	.LCFI18:
 1638              		.cfi_def_cfa_offset 40
 1639              		.cfi_offset 80, -40
 1640              		.cfi_offset 81, -36
 1641 0008 0646     		mov	r6, r0
 1642 000a 90B0     		sub	sp, sp, #64
 1643              	.LCFI19:
ARM GAS  C:\Users\²Ü¼ÒºÀ\AppData\Local\Temp\ccA6NNYh.s 			page 44


 1644              		.cfi_def_cfa_offset 104
 380:C:/Users/²Ü¼ÒºÀ/.iotlink/sdk/IoT_LINK/iot_link/network/lwm2m/wakaama_lwm2m/wakaama-master/core\observe.c ****     uint8_t result;
 1645              		.loc 1 380 1 view .LVU419
 1646 000c 1746     		mov	r7, r2
 1647 000e 1C46     		mov	r4, r3
 1648              		.loc 1 384 5 view .LVU420
 1649 0010 0D46     		mov	r5, r1
 1650 0012 0029     		cmp	r1, #0
 1651 0014 56D1     		bne	.L149
 1652              		.loc 1 384 5 is_stmt 1 discriminator 1 view .LVU421
 1653              		.loc 1 384 5 discriminator 1 view .LVU422
 1654 0016 FFF7FEFF 		bl	link_log_level_get
 1655              	.LVL151:
 1656              		.loc 1 384 5 is_stmt 0 discriminator 1 view .LVU423
 1657 001a 0128     		cmp	r0, #1
 1658 001c 15D8     		bhi	.L151
 1659              		.loc 1 384 5 is_stmt 1 discriminator 3 view .LVU424
 1660              		.loc 1 384 5 discriminator 3 view .LVU425
 1661              		.loc 1 384 5 discriminator 3 view .LVU426
 1662 001e 0120     		movs	r0, #1
 1663 0020 FFF7FEFF 		bl	link_log_level_name
 1664              	.LVL152:
 1665 0024 8046     		mov	r8, r0
 1666 0026 FFF7FEFF 		bl	osal_sys_time
 1667              	.LVL153:
 1668 002a 4FF4C073 		mov	r3, #384
 1669 002e 0193     		str	r3, [sp, #4]
 1670 0030 A34B     		ldr	r3, .L214
 1671 0032 0093     		str	r3, [sp]
 1672 0034 0246     		mov	r2, r0
 1673 0036 A34B     		ldr	r3, .L214+4
 1674 0038 A348     		ldr	r0, .L214+8
 1675 003a 4146     		mov	r1, r8
 1676 003c FFF7FEFF 		bl	printf
 1677              	.LVL154:
 1678              		.loc 1 384 5 discriminator 3 view .LVU427
 1679              	.L210:
 1680              		.loc 1 384 5 discriminator 19 view .LVU428
 1681 0040 A24B     		ldr	r3, .L214+12
 1682 0042 1B68     		ldr	r3, [r3]
 1683 0044 9868     		ldr	r0, [r3, #8]
 1684 0046 FFF7FEFF 		bl	fflush
 1685              	.LVL155:
 1686              	.L151:
 1687              		.loc 1 384 5 discriminator 21 view .LVU429
 1688              		.loc 1 384 5 discriminator 21 view .LVU430
 1689              		.loc 1 384 5 discriminator 21 view .LVU431
 1690              		.loc 1 384 18 discriminator 21 view .LVU432
 385:C:/Users/²Ü¼ÒºÀ/.iotlink/sdk/IoT_LINK/iot_link/network/lwm2m/wakaama_lwm2m/wakaama-master/core\observe.c ****     LOG_ARG("toSet: %08X, toClear: %08X, minPeriod: %d, maxPeriod: %d, greaterThan: %f, lessThan: %
 1691              		.loc 1 385 5 discriminator 21 view .LVU433
 1692              		.loc 1 385 5 discriminator 21 view .LVU434
 1693 004a FFF7FEFF 		bl	link_log_level_get
 1694              	.LVL156:
 1695 004e 0128     		cmp	r0, #1
 1696 0050 2DD8     		bhi	.L160
 1697              		.loc 1 385 5 discriminator 1 view .LVU435
 1698              		.loc 1 385 5 discriminator 1 view .LVU436
ARM GAS  C:\Users\²Ü¼ÒºÀ\AppData\Local\Temp\ccA6NNYh.s 			page 45


 1699              		.loc 1 385 5 discriminator 1 view .LVU437
 1700 0052 0120     		movs	r0, #1
 1701 0054 FFF7FEFF 		bl	link_log_level_name
 1702              	.LVL157:
 1703 0058 8046     		mov	r8, r0
 1704 005a FFF7FEFF 		bl	osal_sys_time
 1705              	.LVL158:
 1706 005e 0F90     		str	r0, [sp, #60]
 1707 0060 FFF7FEFF 		bl	lwm2m_gettime
 1708              	.LVL159:
 1709 0064 D4E908AB 		ldrd	r10, [r4, #32]
 1710 0068 CDE90CAB 		strd	r10, [sp, #48]
 1711 006c D4E906AB 		ldrd	r10, [r4, #24]
 1712 0070 CDE90AAB 		strd	r10, [sp, #40]
 1713 0074 D4E904AB 		ldrd	r10, [r4, #16]
 1714 0078 CDE908AB 		strd	r10, [sp, #32]
 1715 007c A368     		ldr	r3, [r4, #8]
 1716 007e 0693     		str	r3, [sp, #24]
 1717 0080 6368     		ldr	r3, [r4, #4]
 1718 0082 0593     		str	r3, [sp, #20]
 1719 0084 6378     		ldrb	r3, [r4, #1]	@ zero_extendqisi2
 1720 0086 0493     		str	r3, [sp, #16]
 1721 0088 2378     		ldrb	r3, [r4]	@ zero_extendqisi2
 1722 008a 0393     		str	r3, [sp, #12]
 1723 008c 40F28113 		movw	r3, #385
 1724 0090 0293     		str	r3, [sp, #8]
 1725 0092 8B4B     		ldr	r3, .L214
 1726 0094 0F9A     		ldr	r2, [sp, #60]
 1727 0096 CDE90003 		strd	r0, r3, [sp]
 1728 009a 4146     		mov	r1, r8
 1729 009c 894B     		ldr	r3, .L214+4
 1730 009e 8C48     		ldr	r0, .L214+16
 1731 00a0 FFF7FEFF 		bl	printf
 1732              	.LVL160:
 1733              		.loc 1 385 5 discriminator 1 view .LVU438
 1734 00a4 894B     		ldr	r3, .L214+12
 1735 00a6 1B68     		ldr	r3, [r3]
 1736 00a8 9868     		ldr	r0, [r3, #8]
 1737 00aa FFF7FEFF 		bl	fflush
 1738              	.LVL161:
 1739              	.L160:
 1740              		.loc 1 385 5 discriminator 3 view .LVU439
 1741              		.loc 1 385 5 discriminator 3 view .LVU440
 1742              		.loc 1 385 5 discriminator 3 view .LVU441
 386:C:/Users/²Ü¼ÒºÀ/.iotlink/sdk/IoT_LINK/iot_link/network/lwm2m/wakaama_lwm2m/wakaama-master/core\observe.c ****             attrP->toSet, attrP->toClear, (int)attrP->minPeriod, (int)attrP->maxPeriod, attrP->grea
 387:C:/Users/²Ü¼ÒºÀ/.iotlink/sdk/IoT_LINK/iot_link/network/lwm2m/wakaama_lwm2m/wakaama-master/core\observe.c **** 
 388:C:/Users/²Ü¼ÒºÀ/.iotlink/sdk/IoT_LINK/iot_link/network/lwm2m/wakaama_lwm2m/wakaama-master/core\observe.c ****     if (!LWM2M_URI_IS_SET_INSTANCE(uriP) && LWM2M_URI_IS_SET_RESOURCE(uriP)) return COAP_400_BAD_RE
 1743              		.loc 1 388 5 discriminator 3 view .LVU442
 1744              		.loc 1 388 8 is_stmt 0 discriminator 3 view .LVU443
 1745 00ae 2B78     		ldrb	r3, [r5]	@ zero_extendqisi2
 1746 00b0 03F00303 		and	r3, r3, #3
 1747 00b4 012B     		cmp	r3, #1
 1748 00b6 67D1     		bne	.L161
 1749              	.LVL162:
 1750              	.L175:
 1751              		.loc 1 388 85 view .LVU444
 1752 00b8 8020     		movs	r0, #128
ARM GAS  C:\Users\²Ü¼ÒºÀ\AppData\Local\Temp\ccA6NNYh.s 			page 46


 1753              	.LVL163:
 1754              	.L162:
 389:C:/Users/²Ü¼ÒºÀ/.iotlink/sdk/IoT_LINK/iot_link/network/lwm2m/wakaama_lwm2m/wakaama-master/core\observe.c **** 
 390:C:/Users/²Ü¼ÒºÀ/.iotlink/sdk/IoT_LINK/iot_link/network/lwm2m/wakaama_lwm2m/wakaama-master/core\observe.c ****     result = object_checkReadable(contextP, uriP);
 391:C:/Users/²Ü¼ÒºÀ/.iotlink/sdk/IoT_LINK/iot_link/network/lwm2m/wakaama_lwm2m/wakaama-master/core\observe.c ****     if (COAP_205_CONTENT != result) return result;
 392:C:/Users/²Ü¼ÒºÀ/.iotlink/sdk/IoT_LINK/iot_link/network/lwm2m/wakaama_lwm2m/wakaama-master/core\observe.c **** 
 393:C:/Users/²Ü¼ÒºÀ/.iotlink/sdk/IoT_LINK/iot_link/network/lwm2m/wakaama_lwm2m/wakaama-master/core\observe.c ****     if (0 != (attrP->toSet & ATTR_FLAG_NUMERIC))
 394:C:/Users/²Ü¼ÒºÀ/.iotlink/sdk/IoT_LINK/iot_link/network/lwm2m/wakaama_lwm2m/wakaama-master/core\observe.c ****     {
 395:C:/Users/²Ü¼ÒºÀ/.iotlink/sdk/IoT_LINK/iot_link/network/lwm2m/wakaama_lwm2m/wakaama-master/core\observe.c ****         result = object_checkNumeric(contextP, uriP);
 396:C:/Users/²Ü¼ÒºÀ/.iotlink/sdk/IoT_LINK/iot_link/network/lwm2m/wakaama_lwm2m/wakaama-master/core\observe.c ****         if (COAP_205_CONTENT != result) return result;
 397:C:/Users/²Ü¼ÒºÀ/.iotlink/sdk/IoT_LINK/iot_link/network/lwm2m/wakaama_lwm2m/wakaama-master/core\observe.c ****     }
 398:C:/Users/²Ü¼ÒºÀ/.iotlink/sdk/IoT_LINK/iot_link/network/lwm2m/wakaama_lwm2m/wakaama-master/core\observe.c **** 
 399:C:/Users/²Ü¼ÒºÀ/.iotlink/sdk/IoT_LINK/iot_link/network/lwm2m/wakaama_lwm2m/wakaama-master/core\observe.c ****     watcherP = prv_getWatcher(contextP, uriP, serverP);
 400:C:/Users/²Ü¼ÒºÀ/.iotlink/sdk/IoT_LINK/iot_link/network/lwm2m/wakaama_lwm2m/wakaama-master/core\observe.c ****     if (watcherP == NULL) return COAP_500_INTERNAL_SERVER_ERROR;
 401:C:/Users/²Ü¼ÒºÀ/.iotlink/sdk/IoT_LINK/iot_link/network/lwm2m/wakaama_lwm2m/wakaama-master/core\observe.c **** 
 402:C:/Users/²Ü¼ÒºÀ/.iotlink/sdk/IoT_LINK/iot_link/network/lwm2m/wakaama_lwm2m/wakaama-master/core\observe.c ****     // Check rule âltï¿½?value + 2*âstpï¿½?values < âgtï¿½?value
 403:C:/Users/²Ü¼ÒºÀ/.iotlink/sdk/IoT_LINK/iot_link/network/lwm2m/wakaama_lwm2m/wakaama-master/core\observe.c ****     if ((((attrP->toSet | (watcherP->parameters ? watcherP->parameters->toSet : 0)) & ~attrP->toCle
 404:C:/Users/²Ü¼ÒºÀ/.iotlink/sdk/IoT_LINK/iot_link/network/lwm2m/wakaama_lwm2m/wakaama-master/core\observe.c ****     {
 405:C:/Users/²Ü¼ÒºÀ/.iotlink/sdk/IoT_LINK/iot_link/network/lwm2m/wakaama_lwm2m/wakaama-master/core\observe.c ****         float gt;
 406:C:/Users/²Ü¼ÒºÀ/.iotlink/sdk/IoT_LINK/iot_link/network/lwm2m/wakaama_lwm2m/wakaama-master/core\observe.c ****         float lt;
 407:C:/Users/²Ü¼ÒºÀ/.iotlink/sdk/IoT_LINK/iot_link/network/lwm2m/wakaama_lwm2m/wakaama-master/core\observe.c ****         float stp;
 408:C:/Users/²Ü¼ÒºÀ/.iotlink/sdk/IoT_LINK/iot_link/network/lwm2m/wakaama_lwm2m/wakaama-master/core\observe.c **** 
 409:C:/Users/²Ü¼ÒºÀ/.iotlink/sdk/IoT_LINK/iot_link/network/lwm2m/wakaama_lwm2m/wakaama-master/core\observe.c ****         if (0 != (attrP->toSet & LWM2M_ATTR_FLAG_GREATER_THAN))
 410:C:/Users/²Ü¼ÒºÀ/.iotlink/sdk/IoT_LINK/iot_link/network/lwm2m/wakaama_lwm2m/wakaama-master/core\observe.c ****         {
 411:C:/Users/²Ü¼ÒºÀ/.iotlink/sdk/IoT_LINK/iot_link/network/lwm2m/wakaama_lwm2m/wakaama-master/core\observe.c ****             gt = attrP->greaterThan;
 412:C:/Users/²Ü¼ÒºÀ/.iotlink/sdk/IoT_LINK/iot_link/network/lwm2m/wakaama_lwm2m/wakaama-master/core\observe.c ****         }
 413:C:/Users/²Ü¼ÒºÀ/.iotlink/sdk/IoT_LINK/iot_link/network/lwm2m/wakaama_lwm2m/wakaama-master/core\observe.c ****         else
 414:C:/Users/²Ü¼ÒºÀ/.iotlink/sdk/IoT_LINK/iot_link/network/lwm2m/wakaama_lwm2m/wakaama-master/core\observe.c ****         {
 415:C:/Users/²Ü¼ÒºÀ/.iotlink/sdk/IoT_LINK/iot_link/network/lwm2m/wakaama_lwm2m/wakaama-master/core\observe.c ****             gt = watcherP->parameters->greaterThan;
 416:C:/Users/²Ü¼ÒºÀ/.iotlink/sdk/IoT_LINK/iot_link/network/lwm2m/wakaama_lwm2m/wakaama-master/core\observe.c ****         }
 417:C:/Users/²Ü¼ÒºÀ/.iotlink/sdk/IoT_LINK/iot_link/network/lwm2m/wakaama_lwm2m/wakaama-master/core\observe.c ****         if (0 != (attrP->toSet & LWM2M_ATTR_FLAG_LESS_THAN))
 418:C:/Users/²Ü¼ÒºÀ/.iotlink/sdk/IoT_LINK/iot_link/network/lwm2m/wakaama_lwm2m/wakaama-master/core\observe.c ****         {
 419:C:/Users/²Ü¼ÒºÀ/.iotlink/sdk/IoT_LINK/iot_link/network/lwm2m/wakaama_lwm2m/wakaama-master/core\observe.c ****             lt = attrP->lessThan;
 420:C:/Users/²Ü¼ÒºÀ/.iotlink/sdk/IoT_LINK/iot_link/network/lwm2m/wakaama_lwm2m/wakaama-master/core\observe.c ****         }
 421:C:/Users/²Ü¼ÒºÀ/.iotlink/sdk/IoT_LINK/iot_link/network/lwm2m/wakaama_lwm2m/wakaama-master/core\observe.c ****         else
 422:C:/Users/²Ü¼ÒºÀ/.iotlink/sdk/IoT_LINK/iot_link/network/lwm2m/wakaama_lwm2m/wakaama-master/core\observe.c ****         {
 423:C:/Users/²Ü¼ÒºÀ/.iotlink/sdk/IoT_LINK/iot_link/network/lwm2m/wakaama_lwm2m/wakaama-master/core\observe.c ****             lt = watcherP->parameters->lessThan;
 424:C:/Users/²Ü¼ÒºÀ/.iotlink/sdk/IoT_LINK/iot_link/network/lwm2m/wakaama_lwm2m/wakaama-master/core\observe.c ****         }
 425:C:/Users/²Ü¼ÒºÀ/.iotlink/sdk/IoT_LINK/iot_link/network/lwm2m/wakaama_lwm2m/wakaama-master/core\observe.c ****         if (0 != (attrP->toSet & LWM2M_ATTR_FLAG_STEP))
 426:C:/Users/²Ü¼ÒºÀ/.iotlink/sdk/IoT_LINK/iot_link/network/lwm2m/wakaama_lwm2m/wakaama-master/core\observe.c ****         {
 427:C:/Users/²Ü¼ÒºÀ/.iotlink/sdk/IoT_LINK/iot_link/network/lwm2m/wakaama_lwm2m/wakaama-master/core\observe.c ****             stp = attrP->step;
 428:C:/Users/²Ü¼ÒºÀ/.iotlink/sdk/IoT_LINK/iot_link/network/lwm2m/wakaama_lwm2m/wakaama-master/core\observe.c ****         }
 429:C:/Users/²Ü¼ÒºÀ/.iotlink/sdk/IoT_LINK/iot_link/network/lwm2m/wakaama_lwm2m/wakaama-master/core\observe.c ****         else
 430:C:/Users/²Ü¼ÒºÀ/.iotlink/sdk/IoT_LINK/iot_link/network/lwm2m/wakaama_lwm2m/wakaama-master/core\observe.c ****         {
 431:C:/Users/²Ü¼ÒºÀ/.iotlink/sdk/IoT_LINK/iot_link/network/lwm2m/wakaama_lwm2m/wakaama-master/core\observe.c ****             stp = watcherP->parameters->step;
 432:C:/Users/²Ü¼ÒºÀ/.iotlink/sdk/IoT_LINK/iot_link/network/lwm2m/wakaama_lwm2m/wakaama-master/core\observe.c ****         }
 433:C:/Users/²Ü¼ÒºÀ/.iotlink/sdk/IoT_LINK/iot_link/network/lwm2m/wakaama_lwm2m/wakaama-master/core\observe.c **** 
 434:C:/Users/²Ü¼ÒºÀ/.iotlink/sdk/IoT_LINK/iot_link/network/lwm2m/wakaama_lwm2m/wakaama-master/core\observe.c ****         if (lt + (2 * stp) >= gt) return COAP_400_BAD_REQUEST;
 435:C:/Users/²Ü¼ÒºÀ/.iotlink/sdk/IoT_LINK/iot_link/network/lwm2m/wakaama_lwm2m/wakaama-master/core\observe.c ****     }
 436:C:/Users/²Ü¼ÒºÀ/.iotlink/sdk/IoT_LINK/iot_link/network/lwm2m/wakaama_lwm2m/wakaama-master/core\observe.c **** 
 437:C:/Users/²Ü¼ÒºÀ/.iotlink/sdk/IoT_LINK/iot_link/network/lwm2m/wakaama_lwm2m/wakaama-master/core\observe.c ****     if (watcherP->parameters == NULL)
 438:C:/Users/²Ü¼ÒºÀ/.iotlink/sdk/IoT_LINK/iot_link/network/lwm2m/wakaama_lwm2m/wakaama-master/core\observe.c ****     {
 439:C:/Users/²Ü¼ÒºÀ/.iotlink/sdk/IoT_LINK/iot_link/network/lwm2m/wakaama_lwm2m/wakaama-master/core\observe.c ****         if (attrP->toSet != 0)
 440:C:/Users/²Ü¼ÒºÀ/.iotlink/sdk/IoT_LINK/iot_link/network/lwm2m/wakaama_lwm2m/wakaama-master/core\observe.c ****         {
 441:C:/Users/²Ü¼ÒºÀ/.iotlink/sdk/IoT_LINK/iot_link/network/lwm2m/wakaama_lwm2m/wakaama-master/core\observe.c ****             watcherP->parameters = (lwm2m_attributes_t *)lwm2m_malloc(sizeof(lwm2m_attributes_t));
 442:C:/Users/²Ü¼ÒºÀ/.iotlink/sdk/IoT_LINK/iot_link/network/lwm2m/wakaama_lwm2m/wakaama-master/core\observe.c ****             if (watcherP->parameters == NULL) return COAP_500_INTERNAL_SERVER_ERROR;
 443:C:/Users/²Ü¼ÒºÀ/.iotlink/sdk/IoT_LINK/iot_link/network/lwm2m/wakaama_lwm2m/wakaama-master/core\observe.c ****             memcpy(watcherP->parameters, attrP, sizeof(lwm2m_attributes_t));
ARM GAS  C:\Users\²Ü¼ÒºÀ\AppData\Local\Temp\ccA6NNYh.s 			page 47


 444:C:/Users/²Ü¼ÒºÀ/.iotlink/sdk/IoT_LINK/iot_link/network/lwm2m/wakaama_lwm2m/wakaama-master/core\observe.c ****         }
 445:C:/Users/²Ü¼ÒºÀ/.iotlink/sdk/IoT_LINK/iot_link/network/lwm2m/wakaama_lwm2m/wakaama-master/core\observe.c ****     }
 446:C:/Users/²Ü¼ÒºÀ/.iotlink/sdk/IoT_LINK/iot_link/network/lwm2m/wakaama_lwm2m/wakaama-master/core\observe.c ****     else
 447:C:/Users/²Ü¼ÒºÀ/.iotlink/sdk/IoT_LINK/iot_link/network/lwm2m/wakaama_lwm2m/wakaama-master/core\observe.c ****     {
 448:C:/Users/²Ü¼ÒºÀ/.iotlink/sdk/IoT_LINK/iot_link/network/lwm2m/wakaama_lwm2m/wakaama-master/core\observe.c ****         watcherP->parameters->toSet &= ~attrP->toClear;
 449:C:/Users/²Ü¼ÒºÀ/.iotlink/sdk/IoT_LINK/iot_link/network/lwm2m/wakaama_lwm2m/wakaama-master/core\observe.c ****         if (attrP->toSet & LWM2M_ATTR_FLAG_MIN_PERIOD)
 450:C:/Users/²Ü¼ÒºÀ/.iotlink/sdk/IoT_LINK/iot_link/network/lwm2m/wakaama_lwm2m/wakaama-master/core\observe.c ****         {
 451:C:/Users/²Ü¼ÒºÀ/.iotlink/sdk/IoT_LINK/iot_link/network/lwm2m/wakaama_lwm2m/wakaama-master/core\observe.c ****             watcherP->parameters->minPeriod = attrP->minPeriod;
 452:C:/Users/²Ü¼ÒºÀ/.iotlink/sdk/IoT_LINK/iot_link/network/lwm2m/wakaama_lwm2m/wakaama-master/core\observe.c ****         }
 453:C:/Users/²Ü¼ÒºÀ/.iotlink/sdk/IoT_LINK/iot_link/network/lwm2m/wakaama_lwm2m/wakaama-master/core\observe.c ****         if (attrP->toSet & LWM2M_ATTR_FLAG_MAX_PERIOD)
 454:C:/Users/²Ü¼ÒºÀ/.iotlink/sdk/IoT_LINK/iot_link/network/lwm2m/wakaama_lwm2m/wakaama-master/core\observe.c ****         {
 455:C:/Users/²Ü¼ÒºÀ/.iotlink/sdk/IoT_LINK/iot_link/network/lwm2m/wakaama_lwm2m/wakaama-master/core\observe.c ****             watcherP->parameters->maxPeriod = attrP->maxPeriod;
 456:C:/Users/²Ü¼ÒºÀ/.iotlink/sdk/IoT_LINK/iot_link/network/lwm2m/wakaama_lwm2m/wakaama-master/core\observe.c ****         }
 457:C:/Users/²Ü¼ÒºÀ/.iotlink/sdk/IoT_LINK/iot_link/network/lwm2m/wakaama_lwm2m/wakaama-master/core\observe.c ****         if (attrP->toSet & LWM2M_ATTR_FLAG_GREATER_THAN)
 458:C:/Users/²Ü¼ÒºÀ/.iotlink/sdk/IoT_LINK/iot_link/network/lwm2m/wakaama_lwm2m/wakaama-master/core\observe.c ****         {
 459:C:/Users/²Ü¼ÒºÀ/.iotlink/sdk/IoT_LINK/iot_link/network/lwm2m/wakaama_lwm2m/wakaama-master/core\observe.c ****             watcherP->parameters->greaterThan = attrP->greaterThan;
 460:C:/Users/²Ü¼ÒºÀ/.iotlink/sdk/IoT_LINK/iot_link/network/lwm2m/wakaama_lwm2m/wakaama-master/core\observe.c ****         }
 461:C:/Users/²Ü¼ÒºÀ/.iotlink/sdk/IoT_LINK/iot_link/network/lwm2m/wakaama_lwm2m/wakaama-master/core\observe.c ****         if (attrP->toSet & LWM2M_ATTR_FLAG_LESS_THAN)
 462:C:/Users/²Ü¼ÒºÀ/.iotlink/sdk/IoT_LINK/iot_link/network/lwm2m/wakaama_lwm2m/wakaama-master/core\observe.c ****         {
 463:C:/Users/²Ü¼ÒºÀ/.iotlink/sdk/IoT_LINK/iot_link/network/lwm2m/wakaama_lwm2m/wakaama-master/core\observe.c ****             watcherP->parameters->lessThan = attrP->lessThan;
 464:C:/Users/²Ü¼ÒºÀ/.iotlink/sdk/IoT_LINK/iot_link/network/lwm2m/wakaama_lwm2m/wakaama-master/core\observe.c ****         }
 465:C:/Users/²Ü¼ÒºÀ/.iotlink/sdk/IoT_LINK/iot_link/network/lwm2m/wakaama_lwm2m/wakaama-master/core\observe.c ****         if (attrP->toSet & LWM2M_ATTR_FLAG_STEP)
 466:C:/Users/²Ü¼ÒºÀ/.iotlink/sdk/IoT_LINK/iot_link/network/lwm2m/wakaama_lwm2m/wakaama-master/core\observe.c ****         {
 467:C:/Users/²Ü¼ÒºÀ/.iotlink/sdk/IoT_LINK/iot_link/network/lwm2m/wakaama_lwm2m/wakaama-master/core\observe.c ****             watcherP->parameters->step = attrP->step;
 468:C:/Users/²Ü¼ÒºÀ/.iotlink/sdk/IoT_LINK/iot_link/network/lwm2m/wakaama_lwm2m/wakaama-master/core\observe.c ****         }
 469:C:/Users/²Ü¼ÒºÀ/.iotlink/sdk/IoT_LINK/iot_link/network/lwm2m/wakaama_lwm2m/wakaama-master/core\observe.c ****     }
 470:C:/Users/²Ü¼ÒºÀ/.iotlink/sdk/IoT_LINK/iot_link/network/lwm2m/wakaama_lwm2m/wakaama-master/core\observe.c **** 
 471:C:/Users/²Ü¼ÒºÀ/.iotlink/sdk/IoT_LINK/iot_link/network/lwm2m/wakaama_lwm2m/wakaama-master/core\observe.c ****     LOG_ARG("Final toSet: %08X, minPeriod: %d, maxPeriod: %d, greaterThan: %f, lessThan: %f, step: 
 472:C:/Users/²Ü¼ÒºÀ/.iotlink/sdk/IoT_LINK/iot_link/network/lwm2m/wakaama_lwm2m/wakaama-master/core\observe.c ****             watcherP->parameters->toSet, (int)watcherP->parameters->minPeriod, (int)watcherP->param
 473:C:/Users/²Ü¼ÒºÀ/.iotlink/sdk/IoT_LINK/iot_link/network/lwm2m/wakaama_lwm2m/wakaama-master/core\observe.c **** 
 474:C:/Users/²Ü¼ÒºÀ/.iotlink/sdk/IoT_LINK/iot_link/network/lwm2m/wakaama_lwm2m/wakaama-master/core\observe.c ****     return COAP_204_CHANGED;
 475:C:/Users/²Ü¼ÒºÀ/.iotlink/sdk/IoT_LINK/iot_link/network/lwm2m/wakaama_lwm2m/wakaama-master/core\observe.c **** }
 1755              		.loc 1 475 1 view .LVU445
 1756 00ba 10B0     		add	sp, sp, #64
 1757              	.LCFI20:
 1758              		.cfi_remember_state
 1759              		.cfi_def_cfa_offset 40
 1760              		@ sp needed
 1761 00bc BDEC028B 		vldm	sp!, {d8}
 1762              	.LCFI21:
 1763              		.cfi_restore 80
 1764              		.cfi_restore 81
 1765              		.cfi_def_cfa_offset 32
 1766 00c0 BDE8F08D 		pop	{r4, r5, r6, r7, r8, r10, fp, pc}
 1767              	.LVL164:
 1768              	.L149:
 1769              	.LCFI22:
 1770              		.cfi_restore_state
 384:C:/Users/²Ü¼ÒºÀ/.iotlink/sdk/IoT_LINK/iot_link/network/lwm2m/wakaama_lwm2m/wakaama-master/core\observe.c ****     LOG_ARG("toSet: %08X, toClear: %08X, minPeriod: %d, maxPeriod: %d, greaterThan: %f, lessThan: %
 1771              		.loc 1 384 5 is_stmt 1 discriminator 2 view .LVU446
 384:C:/Users/²Ü¼ÒºÀ/.iotlink/sdk/IoT_LINK/iot_link/network/lwm2m/wakaama_lwm2m/wakaama-master/core\observe.c ****     LOG_ARG("toSet: %08X, toClear: %08X, minPeriod: %d, maxPeriod: %d, greaterThan: %f, lessThan: %
 1772              		.loc 1 384 5 discriminator 2 view .LVU447
 1773 00c4 FFF7FEFF 		bl	link_log_level_get
 1774              	.LVL165:
 384:C:/Users/²Ü¼ÒºÀ/.iotlink/sdk/IoT_LINK/iot_link/network/lwm2m/wakaama_lwm2m/wakaama-master/core\observe.c ****     LOG_ARG("toSet: %08X, toClear: %08X, minPeriod: %d, maxPeriod: %d, greaterThan: %f, lessThan: %
 1775              		.loc 1 384 5 is_stmt 0 discriminator 2 view .LVU448
 1776 00c8 0128     		cmp	r0, #1
ARM GAS  C:\Users\²Ü¼ÒºÀ\AppData\Local\Temp\ccA6NNYh.s 			page 48


 1777 00ca 17D8     		bhi	.L152
 384:C:/Users/²Ü¼ÒºÀ/.iotlink/sdk/IoT_LINK/iot_link/network/lwm2m/wakaama_lwm2m/wakaama-master/core\observe.c ****     LOG_ARG("toSet: %08X, toClear: %08X, minPeriod: %d, maxPeriod: %d, greaterThan: %f, lessThan: %
 1778              		.loc 1 384 5 is_stmt 1 discriminator 6 view .LVU449
 384:C:/Users/²Ü¼ÒºÀ/.iotlink/sdk/IoT_LINK/iot_link/network/lwm2m/wakaama_lwm2m/wakaama-master/core\observe.c ****     LOG_ARG("toSet: %08X, toClear: %08X, minPeriod: %d, maxPeriod: %d, greaterThan: %f, lessThan: %
 1779              		.loc 1 384 5 discriminator 6 view .LVU450
 384:C:/Users/²Ü¼ÒºÀ/.iotlink/sdk/IoT_LINK/iot_link/network/lwm2m/wakaama_lwm2m/wakaama-master/core\observe.c ****     LOG_ARG("toSet: %08X, toClear: %08X, minPeriod: %d, maxPeriod: %d, greaterThan: %f, lessThan: %
 1780              		.loc 1 384 5 discriminator 6 view .LVU451
 1781 00cc 0120     		movs	r0, #1
 1782 00ce FFF7FEFF 		bl	link_log_level_name
 1783              	.LVL166:
 1784 00d2 8046     		mov	r8, r0
 1785 00d4 FFF7FEFF 		bl	osal_sys_time
 1786              	.LVL167:
 1787 00d8 6B88     		ldrh	r3, [r5, #2]
 1788 00da 0293     		str	r3, [sp, #8]
 1789 00dc 4FF4C073 		mov	r3, #384
 1790 00e0 0193     		str	r3, [sp, #4]
 1791 00e2 774B     		ldr	r3, .L214
 1792 00e4 0093     		str	r3, [sp]
 1793 00e6 0246     		mov	r2, r0
 1794 00e8 764B     		ldr	r3, .L214+4
 1795 00ea 7A48     		ldr	r0, .L214+20
 1796 00ec 4146     		mov	r1, r8
 1797 00ee FFF7FEFF 		bl	printf
 1798              	.LVL168:
 384:C:/Users/²Ü¼ÒºÀ/.iotlink/sdk/IoT_LINK/iot_link/network/lwm2m/wakaama_lwm2m/wakaama-master/core\observe.c ****     LOG_ARG("toSet: %08X, toClear: %08X, minPeriod: %d, maxPeriod: %d, greaterThan: %f, lessThan: %
 1799              		.loc 1 384 5 discriminator 6 view .LVU452
 1800 00f2 764B     		ldr	r3, .L214+12
 1801 00f4 1B68     		ldr	r3, [r3]
 1802 00f6 9868     		ldr	r0, [r3, #8]
 1803 00f8 FFF7FEFF 		bl	fflush
 1804              	.LVL169:
 1805              	.L152:
 384:C:/Users/²Ü¼ÒºÀ/.iotlink/sdk/IoT_LINK/iot_link/network/lwm2m/wakaama_lwm2m/wakaama-master/core\observe.c ****     LOG_ARG("toSet: %08X, toClear: %08X, minPeriod: %d, maxPeriod: %d, greaterThan: %f, lessThan: %
 1806              		.loc 1 384 5 discriminator 8 view .LVU453
 384:C:/Users/²Ü¼ÒºÀ/.iotlink/sdk/IoT_LINK/iot_link/network/lwm2m/wakaama_lwm2m/wakaama-master/core\observe.c ****     LOG_ARG("toSet: %08X, toClear: %08X, minPeriod: %d, maxPeriod: %d, greaterThan: %f, lessThan: %
 1807              		.loc 1 384 5 discriminator 8 view .LVU454
 384:C:/Users/²Ü¼ÒºÀ/.iotlink/sdk/IoT_LINK/iot_link/network/lwm2m/wakaama_lwm2m/wakaama-master/core\observe.c ****     LOG_ARG("toSet: %08X, toClear: %08X, minPeriod: %d, maxPeriod: %d, greaterThan: %f, lessThan: %
 1808              		.loc 1 384 5 discriminator 8 view .LVU455
 384:C:/Users/²Ü¼ÒºÀ/.iotlink/sdk/IoT_LINK/iot_link/network/lwm2m/wakaama_lwm2m/wakaama-master/core\observe.c ****     LOG_ARG("toSet: %08X, toClear: %08X, minPeriod: %d, maxPeriod: %d, greaterThan: %f, lessThan: %
 1809              		.loc 1 384 5 discriminator 8 view .LVU456
 1810 00fc 2B78     		ldrb	r3, [r5]	@ zero_extendqisi2
 1811 00fe 9B07     		lsls	r3, r3, #30
 1812 0100 16D5     		bpl	.L154
 384:C:/Users/²Ü¼ÒºÀ/.iotlink/sdk/IoT_LINK/iot_link/network/lwm2m/wakaama_lwm2m/wakaama-master/core\observe.c ****     LOG_ARG("toSet: %08X, toClear: %08X, minPeriod: %d, maxPeriod: %d, greaterThan: %f, lessThan: %
 1813              		.loc 1 384 5 discriminator 9 view .LVU457
 384:C:/Users/²Ü¼ÒºÀ/.iotlink/sdk/IoT_LINK/iot_link/network/lwm2m/wakaama_lwm2m/wakaama-master/core\observe.c ****     LOG_ARG("toSet: %08X, toClear: %08X, minPeriod: %d, maxPeriod: %d, greaterThan: %f, lessThan: %
 1814              		.loc 1 384 5 discriminator 9 view .LVU458
 1815 0102 FFF7FEFF 		bl	link_log_level_get
 1816              	.LVL170:
 1817 0106 0128     		cmp	r0, #1
 1818 0108 12D8     		bhi	.L154
 384:C:/Users/²Ü¼ÒºÀ/.iotlink/sdk/IoT_LINK/iot_link/network/lwm2m/wakaama_lwm2m/wakaama-master/core\observe.c ****     LOG_ARG("toSet: %08X, toClear: %08X, minPeriod: %d, maxPeriod: %d, greaterThan: %f, lessThan: %
 1819              		.loc 1 384 5 discriminator 11 view .LVU459
 384:C:/Users/²Ü¼ÒºÀ/.iotlink/sdk/IoT_LINK/iot_link/network/lwm2m/wakaama_lwm2m/wakaama-master/core\observe.c ****     LOG_ARG("toSet: %08X, toClear: %08X, minPeriod: %d, maxPeriod: %d, greaterThan: %f, lessThan: %
 1820              		.loc 1 384 5 discriminator 11 view .LVU460
 384:C:/Users/²Ü¼ÒºÀ/.iotlink/sdk/IoT_LINK/iot_link/network/lwm2m/wakaama_lwm2m/wakaama-master/core\observe.c ****     LOG_ARG("toSet: %08X, toClear: %08X, minPeriod: %d, maxPeriod: %d, greaterThan: %f, lessThan: %
ARM GAS  C:\Users\²Ü¼ÒºÀ\AppData\Local\Temp\ccA6NNYh.s 			page 49


 1821              		.loc 1 384 5 discriminator 11 view .LVU461
 1822 010a 0120     		movs	r0, #1
 1823 010c FFF7FEFF 		bl	link_log_level_name
 1824              	.LVL171:
 1825 0110 8046     		mov	r8, r0
 1826 0112 FFF7FEFF 		bl	osal_sys_time
 1827              	.LVL172:
 1828 0116 AB88     		ldrh	r3, [r5, #4]
 1829 0118 0093     		str	r3, [sp]
 1830 011a 0246     		mov	r2, r0
 1831 011c 694B     		ldr	r3, .L214+4
 1832 011e 6E48     		ldr	r0, .L214+24
 1833 0120 4146     		mov	r1, r8
 1834 0122 FFF7FEFF 		bl	printf
 1835              	.LVL173:
 384:C:/Users/²Ü¼ÒºÀ/.iotlink/sdk/IoT_LINK/iot_link/network/lwm2m/wakaama_lwm2m/wakaama-master/core\observe.c ****     LOG_ARG("toSet: %08X, toClear: %08X, minPeriod: %d, maxPeriod: %d, greaterThan: %f, lessThan: %
 1836              		.loc 1 384 5 discriminator 11 view .LVU462
 1837 0126 694B     		ldr	r3, .L214+12
 1838 0128 1B68     		ldr	r3, [r3]
 1839 012a 9868     		ldr	r0, [r3, #8]
 1840 012c FFF7FEFF 		bl	fflush
 1841              	.LVL174:
 1842              	.L154:
 384:C:/Users/²Ü¼ÒºÀ/.iotlink/sdk/IoT_LINK/iot_link/network/lwm2m/wakaama_lwm2m/wakaama-master/core\observe.c ****     LOG_ARG("toSet: %08X, toClear: %08X, minPeriod: %d, maxPeriod: %d, greaterThan: %f, lessThan: %
 1843              		.loc 1 384 5 discriminator 13 view .LVU463
 384:C:/Users/²Ü¼ÒºÀ/.iotlink/sdk/IoT_LINK/iot_link/network/lwm2m/wakaama_lwm2m/wakaama-master/core\observe.c ****     LOG_ARG("toSet: %08X, toClear: %08X, minPeriod: %d, maxPeriod: %d, greaterThan: %f, lessThan: %
 1844              		.loc 1 384 5 discriminator 13 view .LVU464
 384:C:/Users/²Ü¼ÒºÀ/.iotlink/sdk/IoT_LINK/iot_link/network/lwm2m/wakaama_lwm2m/wakaama-master/core\observe.c ****     LOG_ARG("toSet: %08X, toClear: %08X, minPeriod: %d, maxPeriod: %d, greaterThan: %f, lessThan: %
 1845              		.loc 1 384 5 discriminator 13 view .LVU465
 384:C:/Users/²Ü¼ÒºÀ/.iotlink/sdk/IoT_LINK/iot_link/network/lwm2m/wakaama_lwm2m/wakaama-master/core\observe.c ****     LOG_ARG("toSet: %08X, toClear: %08X, minPeriod: %d, maxPeriod: %d, greaterThan: %f, lessThan: %
 1846              		.loc 1 384 5 discriminator 13 view .LVU466
 1847 0130 2B78     		ldrb	r3, [r5]	@ zero_extendqisi2
 1848 0132 D807     		lsls	r0, r3, #31
 1849 0134 16D5     		bpl	.L157
 384:C:/Users/²Ü¼ÒºÀ/.iotlink/sdk/IoT_LINK/iot_link/network/lwm2m/wakaama_lwm2m/wakaama-master/core\observe.c ****     LOG_ARG("toSet: %08X, toClear: %08X, minPeriod: %d, maxPeriod: %d, greaterThan: %f, lessThan: %
 1850              		.loc 1 384 5 discriminator 14 view .LVU467
 384:C:/Users/²Ü¼ÒºÀ/.iotlink/sdk/IoT_LINK/iot_link/network/lwm2m/wakaama_lwm2m/wakaama-master/core\observe.c ****     LOG_ARG("toSet: %08X, toClear: %08X, minPeriod: %d, maxPeriod: %d, greaterThan: %f, lessThan: %
 1851              		.loc 1 384 5 discriminator 14 view .LVU468
 1852 0136 FFF7FEFF 		bl	link_log_level_get
 1853              	.LVL175:
 1854 013a 0128     		cmp	r0, #1
 1855 013c 12D8     		bhi	.L157
 384:C:/Users/²Ü¼ÒºÀ/.iotlink/sdk/IoT_LINK/iot_link/network/lwm2m/wakaama_lwm2m/wakaama-master/core\observe.c ****     LOG_ARG("toSet: %08X, toClear: %08X, minPeriod: %d, maxPeriod: %d, greaterThan: %f, lessThan: %
 1856              		.loc 1 384 5 discriminator 16 view .LVU469
 384:C:/Users/²Ü¼ÒºÀ/.iotlink/sdk/IoT_LINK/iot_link/network/lwm2m/wakaama_lwm2m/wakaama-master/core\observe.c ****     LOG_ARG("toSet: %08X, toClear: %08X, minPeriod: %d, maxPeriod: %d, greaterThan: %f, lessThan: %
 1857              		.loc 1 384 5 discriminator 16 view .LVU470
 384:C:/Users/²Ü¼ÒºÀ/.iotlink/sdk/IoT_LINK/iot_link/network/lwm2m/wakaama_lwm2m/wakaama-master/core\observe.c ****     LOG_ARG("toSet: %08X, toClear: %08X, minPeriod: %d, maxPeriod: %d, greaterThan: %f, lessThan: %
 1858              		.loc 1 384 5 discriminator 16 view .LVU471
 1859 013e 0120     		movs	r0, #1
 1860 0140 FFF7FEFF 		bl	link_log_level_name
 1861              	.LVL176:
 1862 0144 8046     		mov	r8, r0
 1863 0146 FFF7FEFF 		bl	osal_sys_time
 1864              	.LVL177:
 1865 014a EB88     		ldrh	r3, [r5, #6]
 1866 014c 0093     		str	r3, [sp]
 1867 014e 0246     		mov	r2, r0
ARM GAS  C:\Users\²Ü¼ÒºÀ\AppData\Local\Temp\ccA6NNYh.s 			page 50


 1868 0150 5C4B     		ldr	r3, .L214+4
 1869 0152 6148     		ldr	r0, .L214+24
 1870 0154 4146     		mov	r1, r8
 1871 0156 FFF7FEFF 		bl	printf
 1872              	.LVL178:
 384:C:/Users/²Ü¼ÒºÀ/.iotlink/sdk/IoT_LINK/iot_link/network/lwm2m/wakaama_lwm2m/wakaama-master/core\observe.c ****     LOG_ARG("toSet: %08X, toClear: %08X, minPeriod: %d, maxPeriod: %d, greaterThan: %f, lessThan: %
 1873              		.loc 1 384 5 discriminator 16 view .LVU472
 1874 015a 5C4B     		ldr	r3, .L214+12
 1875 015c 1B68     		ldr	r3, [r3]
 1876 015e 9868     		ldr	r0, [r3, #8]
 1877 0160 FFF7FEFF 		bl	fflush
 1878              	.LVL179:
 1879              	.L157:
 384:C:/Users/²Ü¼ÒºÀ/.iotlink/sdk/IoT_LINK/iot_link/network/lwm2m/wakaama_lwm2m/wakaama-master/core\observe.c ****     LOG_ARG("toSet: %08X, toClear: %08X, minPeriod: %d, maxPeriod: %d, greaterThan: %f, lessThan: %
 1880              		.loc 1 384 5 discriminator 18 view .LVU473
 384:C:/Users/²Ü¼ÒºÀ/.iotlink/sdk/IoT_LINK/iot_link/network/lwm2m/wakaama_lwm2m/wakaama-master/core\observe.c ****     LOG_ARG("toSet: %08X, toClear: %08X, minPeriod: %d, maxPeriod: %d, greaterThan: %f, lessThan: %
 1881              		.loc 1 384 5 discriminator 18 view .LVU474
 384:C:/Users/²Ü¼ÒºÀ/.iotlink/sdk/IoT_LINK/iot_link/network/lwm2m/wakaama_lwm2m/wakaama-master/core\observe.c ****     LOG_ARG("toSet: %08X, toClear: %08X, minPeriod: %d, maxPeriod: %d, greaterThan: %f, lessThan: %
 1882              		.loc 1 384 5 discriminator 18 view .LVU475
 384:C:/Users/²Ü¼ÒºÀ/.iotlink/sdk/IoT_LINK/iot_link/network/lwm2m/wakaama_lwm2m/wakaama-master/core\observe.c ****     LOG_ARG("toSet: %08X, toClear: %08X, minPeriod: %d, maxPeriod: %d, greaterThan: %f, lessThan: %
 1883              		.loc 1 384 5 discriminator 18 view .LVU476
 384:C:/Users/²Ü¼ÒºÀ/.iotlink/sdk/IoT_LINK/iot_link/network/lwm2m/wakaama_lwm2m/wakaama-master/core\observe.c ****     LOG_ARG("toSet: %08X, toClear: %08X, minPeriod: %d, maxPeriod: %d, greaterThan: %f, lessThan: %
 1884              		.loc 1 384 5 discriminator 18 view .LVU477
 1885 0164 FFF7FEFF 		bl	link_log_level_get
 1886              	.LVL180:
 1887 0168 0128     		cmp	r0, #1
 1888 016a 3FF66EAF 		bhi	.L151
 384:C:/Users/²Ü¼ÒºÀ/.iotlink/sdk/IoT_LINK/iot_link/network/lwm2m/wakaama_lwm2m/wakaama-master/core\observe.c ****     LOG_ARG("toSet: %08X, toClear: %08X, minPeriod: %d, maxPeriod: %d, greaterThan: %f, lessThan: %
 1889              		.loc 1 384 5 discriminator 19 view .LVU478
 384:C:/Users/²Ü¼ÒºÀ/.iotlink/sdk/IoT_LINK/iot_link/network/lwm2m/wakaama_lwm2m/wakaama-master/core\observe.c ****     LOG_ARG("toSet: %08X, toClear: %08X, minPeriod: %d, maxPeriod: %d, greaterThan: %f, lessThan: %
 1890              		.loc 1 384 5 discriminator 19 view .LVU479
 384:C:/Users/²Ü¼ÒºÀ/.iotlink/sdk/IoT_LINK/iot_link/network/lwm2m/wakaama_lwm2m/wakaama-master/core\observe.c ****     LOG_ARG("toSet: %08X, toClear: %08X, minPeriod: %d, maxPeriod: %d, greaterThan: %f, lessThan: %
 1891              		.loc 1 384 5 discriminator 19 view .LVU480
 1892 016e 0120     		movs	r0, #1
 1893 0170 FFF7FEFF 		bl	link_log_level_name
 1894              	.LVL181:
 1895 0174 8046     		mov	r8, r0
 1896 0176 FFF7FEFF 		bl	osal_sys_time
 1897              	.LVL182:
 1898 017a 524B     		ldr	r3, .L214+4
 1899 017c 0246     		mov	r2, r0
 1900 017e 4146     		mov	r1, r8
 1901 0180 5648     		ldr	r0, .L214+28
 1902 0182 FFF7FEFF 		bl	printf
 1903              	.LVL183:
 1904 0186 5BE7     		b	.L210
 1905              	.L161:
 390:C:/Users/²Ü¼ÒºÀ/.iotlink/sdk/IoT_LINK/iot_link/network/lwm2m/wakaama_lwm2m/wakaama-master/core\observe.c ****     if (COAP_205_CONTENT != result) return result;
 1906              		.loc 1 390 5 view .LVU481
 390:C:/Users/²Ü¼ÒºÀ/.iotlink/sdk/IoT_LINK/iot_link/network/lwm2m/wakaama_lwm2m/wakaama-master/core\observe.c ****     if (COAP_205_CONTENT != result) return result;
 1907              		.loc 1 390 14 is_stmt 0 view .LVU482
 1908 0188 2946     		mov	r1, r5
 1909 018a 3046     		mov	r0, r6
 1910 018c FFF7FEFF 		bl	object_checkReadable
 1911              	.LVL184:
 391:C:/Users/²Ü¼ÒºÀ/.iotlink/sdk/IoT_LINK/iot_link/network/lwm2m/wakaama_lwm2m/wakaama-master/core\observe.c **** 
 1912              		.loc 1 391 5 is_stmt 1 view .LVU483
ARM GAS  C:\Users\²Ü¼ÒºÀ\AppData\Local\Temp\ccA6NNYh.s 			page 51


 391:C:/Users/²Ü¼ÒºÀ/.iotlink/sdk/IoT_LINK/iot_link/network/lwm2m/wakaama_lwm2m/wakaama-master/core\observe.c **** 
 1913              		.loc 1 391 8 is_stmt 0 view .LVU484
 1914 0190 4528     		cmp	r0, #69
 1915 0192 92D1     		bne	.L162
 393:C:/Users/²Ü¼ÒºÀ/.iotlink/sdk/IoT_LINK/iot_link/network/lwm2m/wakaama_lwm2m/wakaama-master/core\observe.c ****     {
 1916              		.loc 1 393 5 is_stmt 1 view .LVU485
 393:C:/Users/²Ü¼ÒºÀ/.iotlink/sdk/IoT_LINK/iot_link/network/lwm2m/wakaama_lwm2m/wakaama-master/core\observe.c ****     {
 1917              		.loc 1 393 8 is_stmt 0 view .LVU486
 1918 0194 2378     		ldrb	r3, [r4]	@ zero_extendqisi2
 1919 0196 13F01C0F 		tst	r3, #28
 1920 019a 08D1     		bne	.L163
 1921              	.L166:
 399:C:/Users/²Ü¼ÒºÀ/.iotlink/sdk/IoT_LINK/iot_link/network/lwm2m/wakaama_lwm2m/wakaama-master/core\observe.c ****     if (watcherP == NULL) return COAP_500_INTERNAL_SERVER_ERROR;
 1922              		.loc 1 399 5 is_stmt 1 view .LVU487
 399:C:/Users/²Ü¼ÒºÀ/.iotlink/sdk/IoT_LINK/iot_link/network/lwm2m/wakaama_lwm2m/wakaama-master/core\observe.c ****     if (watcherP == NULL) return COAP_500_INTERNAL_SERVER_ERROR;
 1923              		.loc 1 399 16 is_stmt 0 view .LVU488
 1924 019c 3046     		mov	r0, r6
 1925              	.LVL185:
 399:C:/Users/²Ü¼ÒºÀ/.iotlink/sdk/IoT_LINK/iot_link/network/lwm2m/wakaama_lwm2m/wakaama-master/core\observe.c ****     if (watcherP == NULL) return COAP_500_INTERNAL_SERVER_ERROR;
 1926              		.loc 1 399 16 view .LVU489
 1927 019e 3A46     		mov	r2, r7
 1928 01a0 2946     		mov	r1, r5
 1929 01a2 FFF7FEFF 		bl	prv_getWatcher
 1930              	.LVL186:
 400:C:/Users/²Ü¼ÒºÀ/.iotlink/sdk/IoT_LINK/iot_link/network/lwm2m/wakaama_lwm2m/wakaama-master/core\observe.c **** 
 1931              		.loc 1 400 5 is_stmt 1 view .LVU490
 400:C:/Users/²Ü¼ÒºÀ/.iotlink/sdk/IoT_LINK/iot_link/network/lwm2m/wakaama_lwm2m/wakaama-master/core\observe.c **** 
 1932              		.loc 1 400 8 is_stmt 0 view .LVU491
 1933 01a6 0646     		mov	r6, r0
 1934              	.LVL187:
 400:C:/Users/²Ü¼ÒºÀ/.iotlink/sdk/IoT_LINK/iot_link/network/lwm2m/wakaama_lwm2m/wakaama-master/core\observe.c **** 
 1935              		.loc 1 400 8 view .LVU492
 1936 01a8 48B9     		cbnz	r0, .L209
 1937              	.LVL188:
 1938              	.L164:
 400:C:/Users/²Ü¼ÒºÀ/.iotlink/sdk/IoT_LINK/iot_link/network/lwm2m/wakaama_lwm2m/wakaama-master/core\observe.c **** 
 1939              		.loc 1 400 34 view .LVU493
 1940 01aa A020     		movs	r0, #160
 1941 01ac 85E7     		b	.L162
 1942              	.LVL189:
 1943              	.L163:
 395:C:/Users/²Ü¼ÒºÀ/.iotlink/sdk/IoT_LINK/iot_link/network/lwm2m/wakaama_lwm2m/wakaama-master/core\observe.c ****         if (COAP_205_CONTENT != result) return result;
 1944              		.loc 1 395 9 is_stmt 1 view .LVU494
 395:C:/Users/²Ü¼ÒºÀ/.iotlink/sdk/IoT_LINK/iot_link/network/lwm2m/wakaama_lwm2m/wakaama-master/core\observe.c ****         if (COAP_205_CONTENT != result) return result;
 1945              		.loc 1 395 18 is_stmt 0 view .LVU495
 1946 01ae 2946     		mov	r1, r5
 1947 01b0 3046     		mov	r0, r6
 1948              	.LVL190:
 395:C:/Users/²Ü¼ÒºÀ/.iotlink/sdk/IoT_LINK/iot_link/network/lwm2m/wakaama_lwm2m/wakaama-master/core\observe.c ****         if (COAP_205_CONTENT != result) return result;
 1949              		.loc 1 395 18 view .LVU496
 1950 01b2 FFF7FEFF 		bl	object_checkNumeric
 1951              	.LVL191:
 396:C:/Users/²Ü¼ÒºÀ/.iotlink/sdk/IoT_LINK/iot_link/network/lwm2m/wakaama_lwm2m/wakaama-master/core\observe.c ****     }
 1952              		.loc 1 396 9 is_stmt 1 view .LVU497
 396:C:/Users/²Ü¼ÒºÀ/.iotlink/sdk/IoT_LINK/iot_link/network/lwm2m/wakaama_lwm2m/wakaama-master/core\observe.c ****     }
 1953              		.loc 1 396 12 is_stmt 0 view .LVU498
 1954 01b6 4528     		cmp	r0, #69
ARM GAS  C:\Users\²Ü¼ÒºÀ\AppData\Local\Temp\ccA6NNYh.s 			page 52


 1955 01b8 7FF47FAF 		bne	.L162
 1956 01bc EEE7     		b	.L166
 1957              	.LVL192:
 1958              	.L209:
 403:C:/Users/²Ü¼ÒºÀ/.iotlink/sdk/IoT_LINK/iot_link/network/lwm2m/wakaama_lwm2m/wakaama-master/core\observe.c ****     {
 1959              		.loc 1 403 5 is_stmt 1 view .LVU499
 403:C:/Users/²Ü¼ÒºÀ/.iotlink/sdk/IoT_LINK/iot_link/network/lwm2m/wakaama_lwm2m/wakaama-master/core\observe.c ****     {
 1960              		.loc 1 403 36 is_stmt 0 view .LVU500
 1961 01be C568     		ldr	r5, [r0, #12]
 1962              	.LVL193:
 403:C:/Users/²Ü¼ÒºÀ/.iotlink/sdk/IoT_LINK/iot_link/network/lwm2m/wakaama_lwm2m/wakaama-master/core\observe.c ****     {
 1963              		.loc 1 403 17 view .LVU501
 1964 01c0 2778     		ldrb	r7, [r4]	@ zero_extendqisi2
 1965              	.LVL194:
 403:C:/Users/²Ü¼ÒºÀ/.iotlink/sdk/IoT_LINK/iot_link/network/lwm2m/wakaama_lwm2m/wakaama-master/core\observe.c ****     {
 1966              		.loc 1 403 79 view .LVU502
 1967 01c2 002D     		cmp	r5, #0
 1968 01c4 71D0     		beq	.L185
 403:C:/Users/²Ü¼ÒºÀ/.iotlink/sdk/IoT_LINK/iot_link/network/lwm2m/wakaama_lwm2m/wakaama-master/core\observe.c ****     {
 1969              		.loc 1 403 79 discriminator 1 view .LVU503
 1970 01c6 2B78     		ldrb	r3, [r5]	@ zero_extendqisi2
 1971              	.L167:
 403:C:/Users/²Ü¼ÒºÀ/.iotlink/sdk/IoT_LINK/iot_link/network/lwm2m/wakaama_lwm2m/wakaama-master/core\observe.c ****     {
 1972              		.loc 1 403 93 discriminator 4 view .LVU504
 1973 01c8 6278     		ldrb	r2, [r4, #1]	@ zero_extendqisi2
 403:C:/Users/²Ü¼ÒºÀ/.iotlink/sdk/IoT_LINK/iot_link/network/lwm2m/wakaama_lwm2m/wakaama-master/core\observe.c ****     {
 1974              		.loc 1 403 25 discriminator 4 view .LVU505
 1975 01ca 3B43     		orrs	r3, r3, r7
 403:C:/Users/²Ü¼ÒºÀ/.iotlink/sdk/IoT_LINK/iot_link/network/lwm2m/wakaama_lwm2m/wakaama-master/core\observe.c ****     {
 1976              		.loc 1 403 85 discriminator 4 view .LVU506
 1977 01cc 23EA0203 		bic	r3, r3, r2
 403:C:/Users/²Ü¼ÒºÀ/.iotlink/sdk/IoT_LINK/iot_link/network/lwm2m/wakaama_lwm2m/wakaama-master/core\observe.c ****     {
 1978              		.loc 1 403 104 discriminator 4 view .LVU507
 1979 01d0 03F01C03 		and	r3, r3, #28
 403:C:/Users/²Ü¼ÒºÀ/.iotlink/sdk/IoT_LINK/iot_link/network/lwm2m/wakaama_lwm2m/wakaama-master/core\observe.c ****     {
 1980              		.loc 1 403 8 discriminator 4 view .LVU508
 1981 01d4 1C2B     		cmp	r3, #28
 403:C:/Users/²Ü¼ÒºÀ/.iotlink/sdk/IoT_LINK/iot_link/network/lwm2m/wakaama_lwm2m/wakaama-master/core\observe.c ****     {
 1982              		.loc 1 403 87 discriminator 4 view .LVU509
 1983 01d6 6FEA0208 		mvn	r8, r2
 403:C:/Users/²Ü¼ÒºÀ/.iotlink/sdk/IoT_LINK/iot_link/network/lwm2m/wakaama_lwm2m/wakaama-master/core\observe.c ****     {
 1984              		.loc 1 403 8 discriminator 4 view .LVU510
 1985 01da 21D1     		bne	.L168
 1986              	.LBB30:
 405:C:/Users/²Ü¼ÒºÀ/.iotlink/sdk/IoT_LINK/iot_link/network/lwm2m/wakaama_lwm2m/wakaama-master/core\observe.c ****         float lt;
 1987              		.loc 1 405 9 is_stmt 1 view .LVU511
 406:C:/Users/²Ü¼ÒºÀ/.iotlink/sdk/IoT_LINK/iot_link/network/lwm2m/wakaama_lwm2m/wakaama-master/core\observe.c ****         float stp;
 1988              		.loc 1 406 9 view .LVU512
 407:C:/Users/²Ü¼ÒºÀ/.iotlink/sdk/IoT_LINK/iot_link/network/lwm2m/wakaama_lwm2m/wakaama-master/core\observe.c **** 
 1989              		.loc 1 407 9 view .LVU513
 409:C:/Users/²Ü¼ÒºÀ/.iotlink/sdk/IoT_LINK/iot_link/network/lwm2m/wakaama_lwm2m/wakaama-master/core\observe.c ****         {
 1990              		.loc 1 409 9 view .LVU514
 409:C:/Users/²Ü¼ÒºÀ/.iotlink/sdk/IoT_LINK/iot_link/network/lwm2m/wakaama_lwm2m/wakaama-master/core\observe.c ****         {
 1991              		.loc 1 409 12 is_stmt 0 view .LVU515
 1992 01dc 7907     		lsls	r1, r7, #29
 1993 01de 66D5     		bpl	.L169
 411:C:/Users/²Ü¼ÒºÀ/.iotlink/sdk/IoT_LINK/iot_link/network/lwm2m/wakaama_lwm2m/wakaama-master/core\observe.c ****         }
ARM GAS  C:\Users\²Ü¼ÒºÀ\AppData\Local\Temp\ccA6NNYh.s 			page 53


 1994              		.loc 1 411 13 is_stmt 1 view .LVU516
 411:C:/Users/²Ü¼ÒºÀ/.iotlink/sdk/IoT_LINK/iot_link/network/lwm2m/wakaama_lwm2m/wakaama-master/core\observe.c ****         }
 1995              		.loc 1 411 16 is_stmt 0 view .LVU517
 1996 01e0 D4E90401 		ldrd	r0, [r4, #16]
 1997              	.LVL195:
 1998              	.L211:
 415:C:/Users/²Ü¼ÒºÀ/.iotlink/sdk/IoT_LINK/iot_link/network/lwm2m/wakaama_lwm2m/wakaama-master/core\observe.c ****         }
 1999              		.loc 1 415 16 view .LVU518
 2000 01e4 FFF7FEFF 		bl	__aeabi_d2f
 2001              	.LVL196:
 417:C:/Users/²Ü¼ÒºÀ/.iotlink/sdk/IoT_LINK/iot_link/network/lwm2m/wakaama_lwm2m/wakaama-master/core\observe.c ****         {
 2002              		.loc 1 417 12 view .LVU519
 2003 01e8 3A07     		lsls	r2, r7, #28
 415:C:/Users/²Ü¼ÒºÀ/.iotlink/sdk/IoT_LINK/iot_link/network/lwm2m/wakaama_lwm2m/wakaama-master/core\observe.c ****         }
 2004              		.loc 1 415 16 view .LVU520
 2005 01ea 08EE900A 		vmov	s17, r0
 2006              	.LVL197:
 417:C:/Users/²Ü¼ÒºÀ/.iotlink/sdk/IoT_LINK/iot_link/network/lwm2m/wakaama_lwm2m/wakaama-master/core\observe.c ****         {
 2007              		.loc 1 417 9 is_stmt 1 view .LVU521
 417:C:/Users/²Ü¼ÒºÀ/.iotlink/sdk/IoT_LINK/iot_link/network/lwm2m/wakaama_lwm2m/wakaama-master/core\observe.c ****         {
 2008              		.loc 1 417 12 is_stmt 0 view .LVU522
 2009 01ee 61D5     		bpl	.L171
 419:C:/Users/²Ü¼ÒºÀ/.iotlink/sdk/IoT_LINK/iot_link/network/lwm2m/wakaama_lwm2m/wakaama-master/core\observe.c ****         }
 2010              		.loc 1 419 13 is_stmt 1 view .LVU523
 419:C:/Users/²Ü¼ÒºÀ/.iotlink/sdk/IoT_LINK/iot_link/network/lwm2m/wakaama_lwm2m/wakaama-master/core\observe.c ****         }
 2011              		.loc 1 419 16 is_stmt 0 view .LVU524
 2012 01f0 D4E90601 		ldrd	r0, [r4, #24]
 2013              	.LVL198:
 2014              	.L212:
 423:C:/Users/²Ü¼ÒºÀ/.iotlink/sdk/IoT_LINK/iot_link/network/lwm2m/wakaama_lwm2m/wakaama-master/core\observe.c ****         }
 2015              		.loc 1 423 16 view .LVU525
 2016 01f4 FFF7FEFF 		bl	__aeabi_d2f
 2017              	.LVL199:
 425:C:/Users/²Ü¼ÒºÀ/.iotlink/sdk/IoT_LINK/iot_link/network/lwm2m/wakaama_lwm2m/wakaama-master/core\observe.c ****         {
 2018              		.loc 1 425 12 view .LVU526
 2019 01f8 FB06     		lsls	r3, r7, #27
 423:C:/Users/²Ü¼ÒºÀ/.iotlink/sdk/IoT_LINK/iot_link/network/lwm2m/wakaama_lwm2m/wakaama-master/core\observe.c ****         }
 2020              		.loc 1 423 16 view .LVU527
 2021 01fa 08EE100A 		vmov	s16, r0
 2022              	.LVL200:
 425:C:/Users/²Ü¼ÒºÀ/.iotlink/sdk/IoT_LINK/iot_link/network/lwm2m/wakaama_lwm2m/wakaama-master/core\observe.c ****         {
 2023              		.loc 1 425 9 is_stmt 1 view .LVU528
 425:C:/Users/²Ü¼ÒºÀ/.iotlink/sdk/IoT_LINK/iot_link/network/lwm2m/wakaama_lwm2m/wakaama-master/core\observe.c ****         {
 2024              		.loc 1 425 12 is_stmt 0 view .LVU529
 2025 01fe 5CD5     		bpl	.L173
 427:C:/Users/²Ü¼ÒºÀ/.iotlink/sdk/IoT_LINK/iot_link/network/lwm2m/wakaama_lwm2m/wakaama-master/core\observe.c ****         }
 2026              		.loc 1 427 13 is_stmt 1 view .LVU530
 427:C:/Users/²Ü¼ÒºÀ/.iotlink/sdk/IoT_LINK/iot_link/network/lwm2m/wakaama_lwm2m/wakaama-master/core\observe.c ****         }
 2027              		.loc 1 427 17 is_stmt 0 view .LVU531
 2028 0200 D4E90801 		ldrd	r0, [r4, #32]
 2029              	.LVL201:
 2030              	.L213:
 431:C:/Users/²Ü¼ÒºÀ/.iotlink/sdk/IoT_LINK/iot_link/network/lwm2m/wakaama_lwm2m/wakaama-master/core\observe.c ****         }
 2031              		.loc 1 431 17 view .LVU532
 2032 0204 FFF7FEFF 		bl	__aeabi_d2f
 2033              	.LVL202:
 2034 0208 07EE900A 		vmov	s15, r0
ARM GAS  C:\Users\²Ü¼ÒºÀ\AppData\Local\Temp\ccA6NNYh.s 			page 54


 2035              	.LVL203:
 434:C:/Users/²Ü¼ÒºÀ/.iotlink/sdk/IoT_LINK/iot_link/network/lwm2m/wakaama_lwm2m/wakaama-master/core\observe.c ****     }
 2036              		.loc 1 434 9 is_stmt 1 view .LVU533
 434:C:/Users/²Ü¼ÒºÀ/.iotlink/sdk/IoT_LINK/iot_link/network/lwm2m/wakaama_lwm2m/wakaama-master/core\observe.c ****     }
 2037              		.loc 1 434 16 is_stmt 0 view .LVU534
 2038 020c B0EE007A 		vmov.f32	s14, #2.0e+0
 2039 0210 A7EE878A 		vfma.f32	s16, s15, s14
 2040              	.LVL204:
 434:C:/Users/²Ü¼ÒºÀ/.iotlink/sdk/IoT_LINK/iot_link/network/lwm2m/wakaama_lwm2m/wakaama-master/core\observe.c ****     }
 2041              		.loc 1 434 12 view .LVU535
 2042 0214 B4EEE88A 		vcmpe.f32	s16, s17
 2043 0218 F1EE10FA 		vmrs	APSR_nzcv, FPSCR
 2044 021c BFF64CAF 		bge	.L175
 2045              	.LVL205:
 2046              	.L168:
 434:C:/Users/²Ü¼ÒºÀ/.iotlink/sdk/IoT_LINK/iot_link/network/lwm2m/wakaama_lwm2m/wakaama-master/core\observe.c ****     }
 2047              		.loc 1 434 12 view .LVU536
 2048              	.LBE30:
 437:C:/Users/²Ü¼ÒºÀ/.iotlink/sdk/IoT_LINK/iot_link/network/lwm2m/wakaama_lwm2m/wakaama-master/core\observe.c ****     {
 2049              		.loc 1 437 5 is_stmt 1 view .LVU537
 437:C:/Users/²Ü¼ÒºÀ/.iotlink/sdk/IoT_LINK/iot_link/network/lwm2m/wakaama_lwm2m/wakaama-master/core\observe.c ****     {
 2050              		.loc 1 437 8 is_stmt 0 view .LVU538
 2051 0220 002D     		cmp	r5, #0
 2052 0222 5FD1     		bne	.L176
 439:C:/Users/²Ü¼ÒºÀ/.iotlink/sdk/IoT_LINK/iot_link/network/lwm2m/wakaama_lwm2m/wakaama-master/core\observe.c ****         {
 2053              		.loc 1 439 9 is_stmt 1 view .LVU539
 439:C:/Users/²Ü¼ÒºÀ/.iotlink/sdk/IoT_LINK/iot_link/network/lwm2m/wakaama_lwm2m/wakaama-master/core\observe.c ****         {
 2054              		.loc 1 439 12 is_stmt 0 view .LVU540
 2055 0224 77B1     		cbz	r7, .L178
 441:C:/Users/²Ü¼ÒºÀ/.iotlink/sdk/IoT_LINK/iot_link/network/lwm2m/wakaama_lwm2m/wakaama-master/core\observe.c ****             if (watcherP->parameters == NULL) return COAP_500_INTERNAL_SERVER_ERROR;
 2056              		.loc 1 441 13 is_stmt 1 view .LVU541
 441:C:/Users/²Ü¼ÒºÀ/.iotlink/sdk/IoT_LINK/iot_link/network/lwm2m/wakaama_lwm2m/wakaama-master/core\observe.c ****             if (watcherP->parameters == NULL) return COAP_500_INTERNAL_SERVER_ERROR;
 2057              		.loc 1 441 58 is_stmt 0 view .LVU542
 2058 0226 2820     		movs	r0, #40
 2059 0228 FFF7FEFF 		bl	lwm2m_malloc
 2060              	.LVL206:
 441:C:/Users/²Ü¼ÒºÀ/.iotlink/sdk/IoT_LINK/iot_link/network/lwm2m/wakaama_lwm2m/wakaama-master/core\observe.c ****             if (watcherP->parameters == NULL) return COAP_500_INTERNAL_SERVER_ERROR;
 2061              		.loc 1 441 34 view .LVU543
 2062 022c F060     		str	r0, [r6, #12]
 442:C:/Users/²Ü¼ÒºÀ/.iotlink/sdk/IoT_LINK/iot_link/network/lwm2m/wakaama_lwm2m/wakaama-master/core\observe.c ****             memcpy(watcherP->parameters, attrP, sizeof(lwm2m_attributes_t));
 2063              		.loc 1 442 13 is_stmt 1 view .LVU544
 442:C:/Users/²Ü¼ÒºÀ/.iotlink/sdk/IoT_LINK/iot_link/network/lwm2m/wakaama_lwm2m/wakaama-master/core\observe.c ****             memcpy(watcherP->parameters, attrP, sizeof(lwm2m_attributes_t));
 2064              		.loc 1 442 16 is_stmt 0 view .LVU545
 2065 022e 0028     		cmp	r0, #0
 2066 0230 BBD0     		beq	.L164
 443:C:/Users/²Ü¼ÒºÀ/.iotlink/sdk/IoT_LINK/iot_link/network/lwm2m/wakaama_lwm2m/wakaama-master/core\observe.c ****         }
 2067              		.loc 1 443 13 is_stmt 1 view .LVU546
 2068 0232 0246     		mov	r2, r0
 2069 0234 04F12803 		add	r3, r4, #40
 2070              	.LVL207:
 2071              	.L179:
 443:C:/Users/²Ü¼ÒºÀ/.iotlink/sdk/IoT_LINK/iot_link/network/lwm2m/wakaama_lwm2m/wakaama-master/core\observe.c ****         }
 2072              		.loc 1 443 13 is_stmt 0 view .LVU547
 2073 0238 54F8041B 		ldr	r1, [r4], #4	@ unaligned
 2074 023c 42F8041B 		str	r1, [r2], #4	@ unaligned
 2075 0240 9C42     		cmp	r4, r3
 2076 0242 F9D1     		bne	.L179
ARM GAS  C:\Users\²Ü¼ÒºÀ\AppData\Local\Temp\ccA6NNYh.s 			page 55


 2077              	.LVL208:
 2078              	.L178:
 471:C:/Users/²Ü¼ÒºÀ/.iotlink/sdk/IoT_LINK/iot_link/network/lwm2m/wakaama_lwm2m/wakaama-master/core\observe.c ****             watcherP->parameters->toSet, (int)watcherP->parameters->minPeriod, (int)watcherP->param
 2079              		.loc 1 471 5 is_stmt 1 view .LVU548
 471:C:/Users/²Ü¼ÒºÀ/.iotlink/sdk/IoT_LINK/iot_link/network/lwm2m/wakaama_lwm2m/wakaama-master/core\observe.c ****             watcherP->parameters->toSet, (int)watcherP->parameters->minPeriod, (int)watcherP->param
 2080              		.loc 1 471 5 view .LVU549
 2081 0244 FFF7FEFF 		bl	link_log_level_get
 2082              	.LVL209:
 2083 0248 0128     		cmp	r0, #1
 2084 024a 2CD8     		bhi	.L186
 471:C:/Users/²Ü¼ÒºÀ/.iotlink/sdk/IoT_LINK/iot_link/network/lwm2m/wakaama_lwm2m/wakaama-master/core\observe.c ****             watcherP->parameters->toSet, (int)watcherP->parameters->minPeriod, (int)watcherP->param
 2085              		.loc 1 471 5 discriminator 1 view .LVU550
 471:C:/Users/²Ü¼ÒºÀ/.iotlink/sdk/IoT_LINK/iot_link/network/lwm2m/wakaama_lwm2m/wakaama-master/core\observe.c ****             watcherP->parameters->toSet, (int)watcherP->parameters->minPeriod, (int)watcherP->param
 2086              		.loc 1 471 5 discriminator 1 view .LVU551
 471:C:/Users/²Ü¼ÒºÀ/.iotlink/sdk/IoT_LINK/iot_link/network/lwm2m/wakaama_lwm2m/wakaama-master/core\observe.c ****             watcherP->parameters->toSet, (int)watcherP->parameters->minPeriod, (int)watcherP->param
 2087              		.loc 1 471 5 discriminator 1 view .LVU552
 2088 024c 0120     		movs	r0, #1
 2089 024e FFF7FEFF 		bl	link_log_level_name
 2090              	.LVL210:
 2091 0252 0446     		mov	r4, r0
 2092 0254 FFF7FEFF 		bl	osal_sys_time
 2093              	.LVL211:
 2094 0258 0F90     		str	r0, [sp, #60]
 2095 025a FFF7FEFF 		bl	lwm2m_gettime
 2096              	.LVL212:
 2097 025e F368     		ldr	r3, [r6, #12]
 2098 0260 0F9A     		ldr	r2, [sp, #60]
 2099 0262 D3E90867 		ldrd	r6, [r3, #32]
 2100              	.LVL213:
 471:C:/Users/²Ü¼ÒºÀ/.iotlink/sdk/IoT_LINK/iot_link/network/lwm2m/wakaama_lwm2m/wakaama-master/core\observe.c ****             watcherP->parameters->toSet, (int)watcherP->parameters->minPeriod, (int)watcherP->param
 2101              		.loc 1 471 5 is_stmt 0 discriminator 1 view .LVU553
 2102 0266 CDE90A67 		strd	r6, [sp, #40]
 2103 026a D3E90667 		ldrd	r6, [r3, #24]
 2104 026e CDE90867 		strd	r6, [sp, #32]
 2105 0272 D3E90467 		ldrd	r6, [r3, #16]
 2106 0276 CDE90667 		strd	r6, [sp, #24]
 2107 027a 9968     		ldr	r1, [r3, #8]
 2108 027c 0591     		str	r1, [sp, #20]
 2109 027e 5968     		ldr	r1, [r3, #4]
 2110 0280 0491     		str	r1, [sp, #16]
 2111 0282 1B78     		ldrb	r3, [r3]	@ zero_extendqisi2
 2112 0284 0393     		str	r3, [sp, #12]
 2113 0286 40F2D713 		movw	r3, #471
 2114 028a 0293     		str	r3, [sp, #8]
 2115 028c 0C4B     		ldr	r3, .L214
 2116 028e 2146     		mov	r1, r4
 2117 0290 CDE90003 		strd	r0, r3, [sp]
 2118 0294 0B4B     		ldr	r3, .L214+4
 2119 0296 1248     		ldr	r0, .L214+32
 2120 0298 FFF7FEFF 		bl	printf
 2121              	.LVL214:
 471:C:/Users/²Ü¼ÒºÀ/.iotlink/sdk/IoT_LINK/iot_link/network/lwm2m/wakaama_lwm2m/wakaama-master/core\observe.c ****             watcherP->parameters->toSet, (int)watcherP->parameters->minPeriod, (int)watcherP->param
 2122              		.loc 1 471 5 is_stmt 1 discriminator 1 view .LVU554
 2123 029c 0B4B     		ldr	r3, .L214+12
 2124 029e 1B68     		ldr	r3, [r3]
 2125 02a0 9868     		ldr	r0, [r3, #8]
 2126 02a2 FFF7FEFF 		bl	fflush
ARM GAS  C:\Users\²Ü¼ÒºÀ\AppData\Local\Temp\ccA6NNYh.s 			page 56


 2127              	.LVL215:
 2128              	.L186:
 474:C:/Users/²Ü¼ÒºÀ/.iotlink/sdk/IoT_LINK/iot_link/network/lwm2m/wakaama_lwm2m/wakaama-master/core\observe.c **** }
 2129              		.loc 1 474 12 is_stmt 0 view .LVU555
 2130 02a6 4420     		movs	r0, #68
 2131 02a8 07E7     		b	.L162
 2132              	.LVL216:
 2133              	.L185:
 403:C:/Users/²Ü¼ÒºÀ/.iotlink/sdk/IoT_LINK/iot_link/network/lwm2m/wakaama_lwm2m/wakaama-master/core\observe.c ****     {
 2134              		.loc 1 403 79 view .LVU556
 2135 02aa 2B46     		mov	r3, r5
 2136 02ac 8CE7     		b	.L167
 2137              	.L169:
 2138              	.LBB31:
 415:C:/Users/²Ü¼ÒºÀ/.iotlink/sdk/IoT_LINK/iot_link/network/lwm2m/wakaama_lwm2m/wakaama-master/core\observe.c ****         }
 2139              		.loc 1 415 13 is_stmt 1 view .LVU557
 415:C:/Users/²Ü¼ÒºÀ/.iotlink/sdk/IoT_LINK/iot_link/network/lwm2m/wakaama_lwm2m/wakaama-master/core\observe.c ****         }
 2140              		.loc 1 415 16 is_stmt 0 view .LVU558
 2141 02ae D5E90401 		ldrd	r0, [r5, #16]
 2142              	.LVL217:
 415:C:/Users/²Ü¼ÒºÀ/.iotlink/sdk/IoT_LINK/iot_link/network/lwm2m/wakaama_lwm2m/wakaama-master/core\observe.c ****         }
 2143              		.loc 1 415 16 view .LVU559
 2144 02b2 97E7     		b	.L211
 2145              	.LVL218:
 2146              	.L171:
 423:C:/Users/²Ü¼ÒºÀ/.iotlink/sdk/IoT_LINK/iot_link/network/lwm2m/wakaama_lwm2m/wakaama-master/core\observe.c ****         }
 2147              		.loc 1 423 13 is_stmt 1 view .LVU560
 423:C:/Users/²Ü¼ÒºÀ/.iotlink/sdk/IoT_LINK/iot_link/network/lwm2m/wakaama_lwm2m/wakaama-master/core\observe.c ****         }
 2148              		.loc 1 423 16 is_stmt 0 view .LVU561
 2149 02b4 D5E90601 		ldrd	r0, [r5, #24]
 2150              	.LVL219:
 423:C:/Users/²Ü¼ÒºÀ/.iotlink/sdk/IoT_LINK/iot_link/network/lwm2m/wakaama_lwm2m/wakaama-master/core\observe.c ****         }
 2151              		.loc 1 423 16 view .LVU562
 2152 02b8 9CE7     		b	.L212
 2153              	.LVL220:
 2154              	.L173:
 431:C:/Users/²Ü¼ÒºÀ/.iotlink/sdk/IoT_LINK/iot_link/network/lwm2m/wakaama_lwm2m/wakaama-master/core\observe.c ****         }
 2155              		.loc 1 431 13 is_stmt 1 view .LVU563
 431:C:/Users/²Ü¼ÒºÀ/.iotlink/sdk/IoT_LINK/iot_link/network/lwm2m/wakaama_lwm2m/wakaama-master/core\observe.c ****         }
 2156              		.loc 1 431 17 is_stmt 0 view .LVU564
 2157 02ba D5E90801 		ldrd	r0, [r5, #32]
 2158              	.LVL221:
 431:C:/Users/²Ü¼ÒºÀ/.iotlink/sdk/IoT_LINK/iot_link/network/lwm2m/wakaama_lwm2m/wakaama-master/core\observe.c ****         }
 2159              		.loc 1 431 17 view .LVU565
 2160 02be A1E7     		b	.L213
 2161              	.L215:
 2162              		.align	2
 2163              	.L214:
 2164 02c0 00000000 		.word	.LANCHOR8
 2165 02c4 00000000 		.word	.LANCHOR7
 2166 02c8 68010000 		.word	.LC18
 2167 02cc 00000000 		.word	_impure_ptr
 2168 02d0 00000000 		.word	.LC22
 2169 02d4 86010000 		.word	.LC19
 2170 02d8 A1010000 		.word	.LC20
 2171 02dc B4010000 		.word	.LC21
 2172 02e0 7F000000 		.word	.LC23
ARM GAS  C:\Users\²Ü¼ÒºÀ\AppData\Local\Temp\ccA6NNYh.s 			page 57


 2173              	.LVL222:
 2174              	.L176:
 431:C:/Users/²Ü¼ÒºÀ/.iotlink/sdk/IoT_LINK/iot_link/network/lwm2m/wakaama_lwm2m/wakaama-master/core\observe.c ****         }
 2175              		.loc 1 431 17 view .LVU566
 2176              	.LBE31:
 448:C:/Users/²Ü¼ÒºÀ/.iotlink/sdk/IoT_LINK/iot_link/network/lwm2m/wakaama_lwm2m/wakaama-master/core\observe.c ****         if (attrP->toSet & LWM2M_ATTR_FLAG_MIN_PERIOD)
 2177              		.loc 1 448 9 is_stmt 1 view .LVU567
 448:C:/Users/²Ü¼ÒºÀ/.iotlink/sdk/IoT_LINK/iot_link/network/lwm2m/wakaama_lwm2m/wakaama-master/core\observe.c ****         if (attrP->toSet & LWM2M_ATTR_FLAG_MIN_PERIOD)
 2178              		.loc 1 448 37 is_stmt 0 view .LVU568
 2179 02e4 2B78     		ldrb	r3, [r5]	@ zero_extendqisi2
 2180 02e6 03EA0808 		and	r8, r3, r8
 2181 02ea 85F80080 		strb	r8, [r5]
 449:C:/Users/²Ü¼ÒºÀ/.iotlink/sdk/IoT_LINK/iot_link/network/lwm2m/wakaama_lwm2m/wakaama-master/core\observe.c ****         {
 2182              		.loc 1 449 9 is_stmt 1 view .LVU569
 449:C:/Users/²Ü¼ÒºÀ/.iotlink/sdk/IoT_LINK/iot_link/network/lwm2m/wakaama_lwm2m/wakaama-master/core\observe.c ****         {
 2183              		.loc 1 449 18 is_stmt 0 view .LVU570
 2184 02ee 2378     		ldrb	r3, [r4]	@ zero_extendqisi2
 449:C:/Users/²Ü¼ÒºÀ/.iotlink/sdk/IoT_LINK/iot_link/network/lwm2m/wakaama_lwm2m/wakaama-master/core\observe.c ****         {
 2185              		.loc 1 449 12 view .LVU571
 2186 02f0 DF07     		lsls	r7, r3, #31
 451:C:/Users/²Ü¼ÒºÀ/.iotlink/sdk/IoT_LINK/iot_link/network/lwm2m/wakaama_lwm2m/wakaama-master/core\observe.c ****         }
 2187              		.loc 1 451 13 is_stmt 1 view .LVU572
 451:C:/Users/²Ü¼ÒºÀ/.iotlink/sdk/IoT_LINK/iot_link/network/lwm2m/wakaama_lwm2m/wakaama-master/core\observe.c ****         }
 2188              		.loc 1 451 52 is_stmt 0 view .LVU573
 2189 02f2 44BF     		itt	mi
 2190 02f4 6268     		ldrmi	r2, [r4, #4]
 451:C:/Users/²Ü¼ÒºÀ/.iotlink/sdk/IoT_LINK/iot_link/network/lwm2m/wakaama_lwm2m/wakaama-master/core\observe.c ****         }
 2191              		.loc 1 451 45 view .LVU574
 2192 02f6 6A60     		strmi	r2, [r5, #4]
 453:C:/Users/²Ü¼ÒºÀ/.iotlink/sdk/IoT_LINK/iot_link/network/lwm2m/wakaama_lwm2m/wakaama-master/core\observe.c ****         {
 2193              		.loc 1 453 9 is_stmt 1 view .LVU575
 453:C:/Users/²Ü¼ÒºÀ/.iotlink/sdk/IoT_LINK/iot_link/network/lwm2m/wakaama_lwm2m/wakaama-master/core\observe.c ****         {
 2194              		.loc 1 453 12 is_stmt 0 view .LVU576
 2195 02f8 9807     		lsls	r0, r3, #30
 455:C:/Users/²Ü¼ÒºÀ/.iotlink/sdk/IoT_LINK/iot_link/network/lwm2m/wakaama_lwm2m/wakaama-master/core\observe.c ****         }
 2196              		.loc 1 455 13 is_stmt 1 view .LVU577
 455:C:/Users/²Ü¼ÒºÀ/.iotlink/sdk/IoT_LINK/iot_link/network/lwm2m/wakaama_lwm2m/wakaama-master/core\observe.c ****         }
 2197              		.loc 1 455 52 is_stmt 0 view .LVU578
 2198 02fa 44BF     		itt	mi
 2199 02fc A268     		ldrmi	r2, [r4, #8]
 455:C:/Users/²Ü¼ÒºÀ/.iotlink/sdk/IoT_LINK/iot_link/network/lwm2m/wakaama_lwm2m/wakaama-master/core\observe.c ****         }
 2200              		.loc 1 455 45 view .LVU579
 2201 02fe AA60     		strmi	r2, [r5, #8]
 457:C:/Users/²Ü¼ÒºÀ/.iotlink/sdk/IoT_LINK/iot_link/network/lwm2m/wakaama_lwm2m/wakaama-master/core\observe.c ****         {
 2202              		.loc 1 457 9 is_stmt 1 view .LVU580
 457:C:/Users/²Ü¼ÒºÀ/.iotlink/sdk/IoT_LINK/iot_link/network/lwm2m/wakaama_lwm2m/wakaama-master/core\observe.c ****         {
 2203              		.loc 1 457 12 is_stmt 0 view .LVU581
 2204 0300 5907     		lsls	r1, r3, #29
 2205 0302 03D5     		bpl	.L182
 459:C:/Users/²Ü¼ÒºÀ/.iotlink/sdk/IoT_LINK/iot_link/network/lwm2m/wakaama_lwm2m/wakaama-master/core\observe.c ****         }
 2206              		.loc 1 459 13 is_stmt 1 view .LVU582
 459:C:/Users/²Ü¼ÒºÀ/.iotlink/sdk/IoT_LINK/iot_link/network/lwm2m/wakaama_lwm2m/wakaama-master/core\observe.c ****         }
 2207              		.loc 1 459 54 is_stmt 0 view .LVU583
 2208 0304 D4E90401 		ldrd	r0, [r4, #16]
 459:C:/Users/²Ü¼ÒºÀ/.iotlink/sdk/IoT_LINK/iot_link/network/lwm2m/wakaama_lwm2m/wakaama-master/core\observe.c ****         }
 2209              		.loc 1 459 47 view .LVU584
 2210 0308 C5E90401 		strd	r0, [r5, #16]
ARM GAS  C:\Users\²Ü¼ÒºÀ\AppData\Local\Temp\ccA6NNYh.s 			page 58


 2211              	.L182:
 461:C:/Users/²Ü¼ÒºÀ/.iotlink/sdk/IoT_LINK/iot_link/network/lwm2m/wakaama_lwm2m/wakaama-master/core\observe.c ****         {
 2212              		.loc 1 461 9 is_stmt 1 view .LVU585
 461:C:/Users/²Ü¼ÒºÀ/.iotlink/sdk/IoT_LINK/iot_link/network/lwm2m/wakaama_lwm2m/wakaama-master/core\observe.c ****         {
 2213              		.loc 1 461 12 is_stmt 0 view .LVU586
 2214 030c 1A07     		lsls	r2, r3, #28
 2215 030e 03D5     		bpl	.L183
 463:C:/Users/²Ü¼ÒºÀ/.iotlink/sdk/IoT_LINK/iot_link/network/lwm2m/wakaama_lwm2m/wakaama-master/core\observe.c ****         }
 2216              		.loc 1 463 13 is_stmt 1 view .LVU587
 463:C:/Users/²Ü¼ÒºÀ/.iotlink/sdk/IoT_LINK/iot_link/network/lwm2m/wakaama_lwm2m/wakaama-master/core\observe.c ****         }
 2217              		.loc 1 463 51 is_stmt 0 view .LVU588
 2218 0310 D4E90601 		ldrd	r0, [r4, #24]
 463:C:/Users/²Ü¼ÒºÀ/.iotlink/sdk/IoT_LINK/iot_link/network/lwm2m/wakaama_lwm2m/wakaama-master/core\observe.c ****         }
 2219              		.loc 1 463 44 view .LVU589
 2220 0314 C5E90601 		strd	r0, [r5, #24]
 2221              	.L183:
 465:C:/Users/²Ü¼ÒºÀ/.iotlink/sdk/IoT_LINK/iot_link/network/lwm2m/wakaama_lwm2m/wakaama-master/core\observe.c ****         {
 2222              		.loc 1 465 9 is_stmt 1 view .LVU590
 465:C:/Users/²Ü¼ÒºÀ/.iotlink/sdk/IoT_LINK/iot_link/network/lwm2m/wakaama_lwm2m/wakaama-master/core\observe.c ****         {
 2223              		.loc 1 465 12 is_stmt 0 view .LVU591
 2224 0318 DB06     		lsls	r3, r3, #27
 2225 031a 93D5     		bpl	.L178
 467:C:/Users/²Ü¼ÒºÀ/.iotlink/sdk/IoT_LINK/iot_link/network/lwm2m/wakaama_lwm2m/wakaama-master/core\observe.c ****         }
 2226              		.loc 1 467 13 is_stmt 1 view .LVU592
 467:C:/Users/²Ü¼ÒºÀ/.iotlink/sdk/IoT_LINK/iot_link/network/lwm2m/wakaama_lwm2m/wakaama-master/core\observe.c ****         }
 2227              		.loc 1 467 47 is_stmt 0 view .LVU593
 2228 031c D4E90823 		ldrd	r2, [r4, #32]
 467:C:/Users/²Ü¼ÒºÀ/.iotlink/sdk/IoT_LINK/iot_link/network/lwm2m/wakaama_lwm2m/wakaama-master/core\observe.c ****         }
 2229              		.loc 1 467 40 view .LVU594
 2230 0320 C5E90823 		strd	r2, [r5, #32]
 2231 0324 8EE7     		b	.L178
 2232              		.cfi_endproc
 2233              	.LFE12:
 2235 0326 00BF     		.section	.rodata.observe_findByUri.str1.1,"aMS",%progbits,1
 2236              	.LC24:
 2237 0000 00       		.ascii	"\000"
 2238              	.LC25:
 2239 0001 206E6F00 		.ascii	" no\000"
 2240              	.LC26:
 2241 0005 5B25735D 		.ascii	"[%s][%u][%s] [%d][%s:%d] Found one with%s observers"
 2241      5B25755D 
 2241      5B25735D 
 2241      205B2564 
 2241      5D5B2573 
 2242 0038 2E0D0A0D 		.ascii	".\015\012\015\012\000"
 2242      0A00
 2243              	.LC27:
 2244 003e 5B25735D 		.ascii	"[%s][%u][%s] [%d][%s:%d] Found nothing\015\012\015\012"
 2244      5B25755D 
 2244      5B25735D 
 2244      205B2564 
 2244      5D5B2573 
 2245 0068 00       		.ascii	"\000"
 2246              		.section	.text.observe_findByUri,"ax",%progbits
 2247              		.align	1
 2248              		.global	observe_findByUri
 2249              		.syntax unified
ARM GAS  C:\Users\²Ü¼ÒºÀ\AppData\Local\Temp\ccA6NNYh.s 			page 59


 2250              		.thumb
 2251              		.thumb_func
 2252              		.fpu fpv4-sp-d16
 2254              	observe_findByUri:
 2255              	.LVL223:
 2256              	.LFB13:
 476:C:/Users/²Ü¼ÒºÀ/.iotlink/sdk/IoT_LINK/iot_link/network/lwm2m/wakaama_lwm2m/wakaama-master/core\observe.c **** 
 477:C:/Users/²Ü¼ÒºÀ/.iotlink/sdk/IoT_LINK/iot_link/network/lwm2m/wakaama_lwm2m/wakaama-master/core\observe.c **** lwm2m_observed_t *observe_findByUri(lwm2m_context_t *contextP,
 478:C:/Users/²Ü¼ÒºÀ/.iotlink/sdk/IoT_LINK/iot_link/network/lwm2m/wakaama_lwm2m/wakaama-master/core\observe.c ****                                     lwm2m_uri_t *uriP)
 479:C:/Users/²Ü¼ÒºÀ/.iotlink/sdk/IoT_LINK/iot_link/network/lwm2m/wakaama_lwm2m/wakaama-master/core\observe.c **** {
 2257              		.loc 1 479 1 is_stmt 1 view -0
 2258              		.cfi_startproc
 2259              		@ args = 0, pretend = 0, frame = 8
 2260              		@ frame_needed = 0, uses_anonymous_args = 0
 480:C:/Users/²Ü¼ÒºÀ/.iotlink/sdk/IoT_LINK/iot_link/network/lwm2m/wakaama_lwm2m/wakaama-master/core\observe.c ****     lwm2m_observed_t *targetP;
 2261              		.loc 1 480 5 view .LVU596
 481:C:/Users/²Ü¼ÒºÀ/.iotlink/sdk/IoT_LINK/iot_link/network/lwm2m/wakaama_lwm2m/wakaama-master/core\observe.c **** 
 482:C:/Users/²Ü¼ÒºÀ/.iotlink/sdk/IoT_LINK/iot_link/network/lwm2m/wakaama_lwm2m/wakaama-master/core\observe.c ****     LOG_URI(uriP);
 2262              		.loc 1 482 5 view .LVU597
 479:C:/Users/²Ü¼ÒºÀ/.iotlink/sdk/IoT_LINK/iot_link/network/lwm2m/wakaama_lwm2m/wakaama-master/core\observe.c ****     lwm2m_observed_t *targetP;
 2263              		.loc 1 479 1 is_stmt 0 view .LVU598
 2264 0000 70B5     		push	{r4, r5, r6, lr}
 2265              	.LCFI23:
 2266              		.cfi_def_cfa_offset 16
 2267              		.cfi_offset 4, -16
 2268              		.cfi_offset 5, -12
 2269              		.cfi_offset 6, -8
 2270              		.cfi_offset 14, -4
 2271 0002 0446     		mov	r4, r0
 2272 0004 86B0     		sub	sp, sp, #24
 2273              	.LCFI24:
 2274              		.cfi_def_cfa_offset 40
 2275              		.loc 1 482 5 view .LVU599
 2276 0006 0D46     		mov	r5, r1
 2277 0008 0029     		cmp	r1, #0
 2278 000a 37D1     		bne	.L217
 2279              		.loc 1 482 5 is_stmt 1 discriminator 1 view .LVU600
 2280              		.loc 1 482 5 discriminator 1 view .LVU601
 2281 000c FFF7FEFF 		bl	link_log_level_get
 2282              	.LVL224:
 2283              		.loc 1 482 5 is_stmt 0 discriminator 1 view .LVU602
 2284 0010 0128     		cmp	r0, #1
 2285 0012 15D8     		bhi	.L219
 2286              		.loc 1 482 5 is_stmt 1 discriminator 3 view .LVU603
 2287              		.loc 1 482 5 discriminator 3 view .LVU604
 2288              		.loc 1 482 5 discriminator 3 view .LVU605
 2289 0014 0120     		movs	r0, #1
 2290 0016 FFF7FEFF 		bl	link_log_level_name
 2291              	.LVL225:
 2292 001a 0646     		mov	r6, r0
 2293 001c FFF7FEFF 		bl	osal_sys_time
 2294              	.LVL226:
 2295 0020 4FF4F173 		mov	r3, #482
 2296 0024 0193     		str	r3, [sp, #4]
 2297 0026 9E4B     		ldr	r3, .L260
 2298 0028 0093     		str	r3, [sp]
 2299 002a 0246     		mov	r2, r0
ARM GAS  C:\Users\²Ü¼ÒºÀ\AppData\Local\Temp\ccA6NNYh.s 			page 60


 2300 002c 9D4B     		ldr	r3, .L260+4
 2301 002e 9E48     		ldr	r0, .L260+8
 2302 0030 3146     		mov	r1, r6
 2303 0032 FFF7FEFF 		bl	printf
 2304              	.LVL227:
 2305              		.loc 1 482 5 discriminator 3 view .LVU606
 2306              	.L258:
 2307              		.loc 1 482 5 discriminator 19 view .LVU607
 2308 0036 9D4B     		ldr	r3, .L260+12
 2309 0038 1B68     		ldr	r3, [r3]
 2310 003a 9868     		ldr	r0, [r3, #8]
 2311 003c FFF7FEFF 		bl	fflush
 2312              	.LVL228:
 2313              	.L219:
 2314              		.loc 1 482 5 discriminator 21 view .LVU608
 2315              		.loc 1 482 5 discriminator 21 view .LVU609
 2316              		.loc 1 482 5 discriminator 21 view .LVU610
 2317              		.loc 1 482 18 discriminator 21 view .LVU611
 483:C:/Users/²Ü¼ÒºÀ/.iotlink/sdk/IoT_LINK/iot_link/network/lwm2m/wakaama_lwm2m/wakaama-master/core\observe.c ****     targetP = contextP->observedList;
 2318              		.loc 1 483 5 discriminator 21 view .LVU612
 2319              		.loc 1 483 13 is_stmt 0 discriminator 21 view .LVU613
 2320 0040 E469     		ldr	r4, [r4, #28]
 2321              	.LVL229:
 484:C:/Users/²Ü¼ÒºÀ/.iotlink/sdk/IoT_LINK/iot_link/network/lwm2m/wakaama_lwm2m/wakaama-master/core\observe.c ****     while (targetP != NULL)
 2322              		.loc 1 484 5 is_stmt 1 discriminator 21 view .LVU614
 2323              	.L228:
 2324              		.loc 1 484 11 view .LVU615
 2325 0042 002C     		cmp	r4, #0
 2326 0044 7BD1     		bne	.L244
 485:C:/Users/²Ü¼ÒºÀ/.iotlink/sdk/IoT_LINK/iot_link/network/lwm2m/wakaama_lwm2m/wakaama-master/core\observe.c ****     {
 486:C:/Users/²Ü¼ÒºÀ/.iotlink/sdk/IoT_LINK/iot_link/network/lwm2m/wakaama_lwm2m/wakaama-master/core\observe.c ****         if (targetP->uri.objectId == uriP->objectId)
 487:C:/Users/²Ü¼ÒºÀ/.iotlink/sdk/IoT_LINK/iot_link/network/lwm2m/wakaama_lwm2m/wakaama-master/core\observe.c ****         {
 488:C:/Users/²Ü¼ÒºÀ/.iotlink/sdk/IoT_LINK/iot_link/network/lwm2m/wakaama_lwm2m/wakaama-master/core\observe.c ****             if ((!LWM2M_URI_IS_SET_INSTANCE(uriP) && !LWM2M_URI_IS_SET_INSTANCE(&(targetP->uri)))
 489:C:/Users/²Ü¼ÒºÀ/.iotlink/sdk/IoT_LINK/iot_link/network/lwm2m/wakaama_lwm2m/wakaama-master/core\observe.c ****                     || (LWM2M_URI_IS_SET_INSTANCE(uriP) && LWM2M_URI_IS_SET_INSTANCE(&(targetP->uri
 490:C:/Users/²Ü¼ÒºÀ/.iotlink/sdk/IoT_LINK/iot_link/network/lwm2m/wakaama_lwm2m/wakaama-master/core\observe.c ****             {
 491:C:/Users/²Ü¼ÒºÀ/.iotlink/sdk/IoT_LINK/iot_link/network/lwm2m/wakaama_lwm2m/wakaama-master/core\observe.c ****                 if ((!LWM2M_URI_IS_SET_RESOURCE(uriP) && !LWM2M_URI_IS_SET_RESOURCE(&(targetP->uri)
 492:C:/Users/²Ü¼ÒºÀ/.iotlink/sdk/IoT_LINK/iot_link/network/lwm2m/wakaama_lwm2m/wakaama-master/core\observe.c ****                         || (LWM2M_URI_IS_SET_RESOURCE(uriP) && LWM2M_URI_IS_SET_RESOURCE(&(targetP-
 493:C:/Users/²Ü¼ÒºÀ/.iotlink/sdk/IoT_LINK/iot_link/network/lwm2m/wakaama_lwm2m/wakaama-master/core\observe.c ****                 {
 494:C:/Users/²Ü¼ÒºÀ/.iotlink/sdk/IoT_LINK/iot_link/network/lwm2m/wakaama_lwm2m/wakaama-master/core\observe.c ****                     LOG_ARG("Found one with%s observers.", targetP->watcherList ? "" : " no");
 495:C:/Users/²Ü¼ÒºÀ/.iotlink/sdk/IoT_LINK/iot_link/network/lwm2m/wakaama_lwm2m/wakaama-master/core\observe.c ****                     LOG_URI(&(targetP->uri));
 496:C:/Users/²Ü¼ÒºÀ/.iotlink/sdk/IoT_LINK/iot_link/network/lwm2m/wakaama_lwm2m/wakaama-master/core\observe.c ****                     return targetP;
 497:C:/Users/²Ü¼ÒºÀ/.iotlink/sdk/IoT_LINK/iot_link/network/lwm2m/wakaama_lwm2m/wakaama-master/core\observe.c ****                 }
 498:C:/Users/²Ü¼ÒºÀ/.iotlink/sdk/IoT_LINK/iot_link/network/lwm2m/wakaama_lwm2m/wakaama-master/core\observe.c ****             }
 499:C:/Users/²Ü¼ÒºÀ/.iotlink/sdk/IoT_LINK/iot_link/network/lwm2m/wakaama_lwm2m/wakaama-master/core\observe.c ****         }
 500:C:/Users/²Ü¼ÒºÀ/.iotlink/sdk/IoT_LINK/iot_link/network/lwm2m/wakaama_lwm2m/wakaama-master/core\observe.c ****         targetP = targetP->next;
 501:C:/Users/²Ü¼ÒºÀ/.iotlink/sdk/IoT_LINK/iot_link/network/lwm2m/wakaama_lwm2m/wakaama-master/core\observe.c ****     }
 502:C:/Users/²Ü¼ÒºÀ/.iotlink/sdk/IoT_LINK/iot_link/network/lwm2m/wakaama_lwm2m/wakaama-master/core\observe.c **** 
 503:C:/Users/²Ü¼ÒºÀ/.iotlink/sdk/IoT_LINK/iot_link/network/lwm2m/wakaama_lwm2m/wakaama-master/core\observe.c ****     LOG("Found nothing");
 2327              		.loc 1 503 5 view .LVU616
 2328              		.loc 1 503 5 view .LVU617
 2329 0046 FFF7FEFF 		bl	link_log_level_get
 2330              	.LVL230:
 2331 004a 0128     		cmp	r0, #1
 2332 004c 00F21B81 		bhi	.L216
 2333              		.loc 1 503 5 discriminator 1 view .LVU618
 2334              		.loc 1 503 5 discriminator 1 view .LVU619
 2335              		.loc 1 503 5 discriminator 1 view .LVU620
ARM GAS  C:\Users\²Ü¼ÒºÀ\AppData\Local\Temp\ccA6NNYh.s 			page 61


 2336 0050 0120     		movs	r0, #1
 2337 0052 FFF7FEFF 		bl	link_log_level_name
 2338              	.LVL231:
 2339 0056 0546     		mov	r5, r0
 2340              	.LVL232:
 2341              		.loc 1 503 5 is_stmt 0 discriminator 1 view .LVU621
 2342 0058 FFF7FEFF 		bl	osal_sys_time
 2343              	.LVL233:
 2344 005c 0590     		str	r0, [sp, #20]
 2345 005e FFF7FEFF 		bl	lwm2m_gettime
 2346              	.LVL234:
 2347 0062 40F2F713 		movw	r3, #503
 2348 0066 0293     		str	r3, [sp, #8]
 2349 0068 8D4B     		ldr	r3, .L260
 2350 006a 059A     		ldr	r2, [sp, #20]
 2351 006c CDE90003 		strd	r0, r3, [sp]
 2352 0070 2946     		mov	r1, r5
 2353 0072 8C4B     		ldr	r3, .L260+4
 2354 0074 8E48     		ldr	r0, .L260+16
 2355 0076 FFF7FEFF 		bl	printf
 2356              	.LVL235:
 2357 007a FFE0     		b	.L259
 2358              	.LVL236:
 2359              	.L217:
 482:C:/Users/²Ü¼ÒºÀ/.iotlink/sdk/IoT_LINK/iot_link/network/lwm2m/wakaama_lwm2m/wakaama-master/core\observe.c ****     targetP = contextP->observedList;
 2360              		.loc 1 482 5 is_stmt 1 discriminator 2 view .LVU622
 482:C:/Users/²Ü¼ÒºÀ/.iotlink/sdk/IoT_LINK/iot_link/network/lwm2m/wakaama_lwm2m/wakaama-master/core\observe.c ****     targetP = contextP->observedList;
 2361              		.loc 1 482 5 discriminator 2 view .LVU623
 2362 007c FFF7FEFF 		bl	link_log_level_get
 2363              	.LVL237:
 482:C:/Users/²Ü¼ÒºÀ/.iotlink/sdk/IoT_LINK/iot_link/network/lwm2m/wakaama_lwm2m/wakaama-master/core\observe.c ****     targetP = contextP->observedList;
 2364              		.loc 1 482 5 is_stmt 0 discriminator 2 view .LVU624
 2365 0080 0128     		cmp	r0, #1
 2366 0082 17D8     		bhi	.L220
 482:C:/Users/²Ü¼ÒºÀ/.iotlink/sdk/IoT_LINK/iot_link/network/lwm2m/wakaama_lwm2m/wakaama-master/core\observe.c ****     targetP = contextP->observedList;
 2367              		.loc 1 482 5 is_stmt 1 discriminator 6 view .LVU625
 482:C:/Users/²Ü¼ÒºÀ/.iotlink/sdk/IoT_LINK/iot_link/network/lwm2m/wakaama_lwm2m/wakaama-master/core\observe.c ****     targetP = contextP->observedList;
 2368              		.loc 1 482 5 discriminator 6 view .LVU626
 482:C:/Users/²Ü¼ÒºÀ/.iotlink/sdk/IoT_LINK/iot_link/network/lwm2m/wakaama_lwm2m/wakaama-master/core\observe.c ****     targetP = contextP->observedList;
 2369              		.loc 1 482 5 discriminator 6 view .LVU627
 2370 0084 0120     		movs	r0, #1
 2371 0086 FFF7FEFF 		bl	link_log_level_name
 2372              	.LVL238:
 2373 008a 0646     		mov	r6, r0
 2374 008c FFF7FEFF 		bl	osal_sys_time
 2375              	.LVL239:
 2376 0090 6B88     		ldrh	r3, [r5, #2]
 2377 0092 0293     		str	r3, [sp, #8]
 2378 0094 4FF4F173 		mov	r3, #482
 2379 0098 0193     		str	r3, [sp, #4]
 2380 009a 814B     		ldr	r3, .L260
 2381 009c 0093     		str	r3, [sp]
 2382 009e 0246     		mov	r2, r0
 2383 00a0 804B     		ldr	r3, .L260+4
 2384 00a2 8448     		ldr	r0, .L260+20
 2385 00a4 3146     		mov	r1, r6
 2386 00a6 FFF7FEFF 		bl	printf
ARM GAS  C:\Users\²Ü¼ÒºÀ\AppData\Local\Temp\ccA6NNYh.s 			page 62


 2387              	.LVL240:
 482:C:/Users/²Ü¼ÒºÀ/.iotlink/sdk/IoT_LINK/iot_link/network/lwm2m/wakaama_lwm2m/wakaama-master/core\observe.c ****     targetP = contextP->observedList;
 2388              		.loc 1 482 5 discriminator 6 view .LVU628
 2389 00aa 804B     		ldr	r3, .L260+12
 2390 00ac 1B68     		ldr	r3, [r3]
 2391 00ae 9868     		ldr	r0, [r3, #8]
 2392 00b0 FFF7FEFF 		bl	fflush
 2393              	.LVL241:
 2394              	.L220:
 482:C:/Users/²Ü¼ÒºÀ/.iotlink/sdk/IoT_LINK/iot_link/network/lwm2m/wakaama_lwm2m/wakaama-master/core\observe.c ****     targetP = contextP->observedList;
 2395              		.loc 1 482 5 discriminator 8 view .LVU629
 482:C:/Users/²Ü¼ÒºÀ/.iotlink/sdk/IoT_LINK/iot_link/network/lwm2m/wakaama_lwm2m/wakaama-master/core\observe.c ****     targetP = contextP->observedList;
 2396              		.loc 1 482 5 discriminator 8 view .LVU630
 482:C:/Users/²Ü¼ÒºÀ/.iotlink/sdk/IoT_LINK/iot_link/network/lwm2m/wakaama_lwm2m/wakaama-master/core\observe.c ****     targetP = contextP->observedList;
 2397              		.loc 1 482 5 discriminator 8 view .LVU631
 482:C:/Users/²Ü¼ÒºÀ/.iotlink/sdk/IoT_LINK/iot_link/network/lwm2m/wakaama_lwm2m/wakaama-master/core\observe.c ****     targetP = contextP->observedList;
 2398              		.loc 1 482 5 discriminator 8 view .LVU632
 2399 00b4 2B78     		ldrb	r3, [r5]	@ zero_extendqisi2
 2400 00b6 9B07     		lsls	r3, r3, #30
 2401 00b8 16D5     		bpl	.L222
 482:C:/Users/²Ü¼ÒºÀ/.iotlink/sdk/IoT_LINK/iot_link/network/lwm2m/wakaama_lwm2m/wakaama-master/core\observe.c ****     targetP = contextP->observedList;
 2402              		.loc 1 482 5 discriminator 9 view .LVU633
 482:C:/Users/²Ü¼ÒºÀ/.iotlink/sdk/IoT_LINK/iot_link/network/lwm2m/wakaama_lwm2m/wakaama-master/core\observe.c ****     targetP = contextP->observedList;
 2403              		.loc 1 482 5 discriminator 9 view .LVU634
 2404 00ba FFF7FEFF 		bl	link_log_level_get
 2405              	.LVL242:
 2406 00be 0128     		cmp	r0, #1
 2407 00c0 12D8     		bhi	.L222
 482:C:/Users/²Ü¼ÒºÀ/.iotlink/sdk/IoT_LINK/iot_link/network/lwm2m/wakaama_lwm2m/wakaama-master/core\observe.c ****     targetP = contextP->observedList;
 2408              		.loc 1 482 5 discriminator 11 view .LVU635
 482:C:/Users/²Ü¼ÒºÀ/.iotlink/sdk/IoT_LINK/iot_link/network/lwm2m/wakaama_lwm2m/wakaama-master/core\observe.c ****     targetP = contextP->observedList;
 2409              		.loc 1 482 5 discriminator 11 view .LVU636
 482:C:/Users/²Ü¼ÒºÀ/.iotlink/sdk/IoT_LINK/iot_link/network/lwm2m/wakaama_lwm2m/wakaama-master/core\observe.c ****     targetP = contextP->observedList;
 2410              		.loc 1 482 5 discriminator 11 view .LVU637
 2411 00c2 0120     		movs	r0, #1
 2412 00c4 FFF7FEFF 		bl	link_log_level_name
 2413              	.LVL243:
 2414 00c8 0646     		mov	r6, r0
 2415 00ca FFF7FEFF 		bl	osal_sys_time
 2416              	.LVL244:
 2417 00ce AB88     		ldrh	r3, [r5, #4]
 2418 00d0 0093     		str	r3, [sp]
 2419 00d2 0246     		mov	r2, r0
 2420 00d4 734B     		ldr	r3, .L260+4
 2421 00d6 7848     		ldr	r0, .L260+24
 2422 00d8 3146     		mov	r1, r6
 2423 00da FFF7FEFF 		bl	printf
 2424              	.LVL245:
 482:C:/Users/²Ü¼ÒºÀ/.iotlink/sdk/IoT_LINK/iot_link/network/lwm2m/wakaama_lwm2m/wakaama-master/core\observe.c ****     targetP = contextP->observedList;
 2425              		.loc 1 482 5 discriminator 11 view .LVU638
 2426 00de 734B     		ldr	r3, .L260+12
 2427 00e0 1B68     		ldr	r3, [r3]
 2428 00e2 9868     		ldr	r0, [r3, #8]
 2429 00e4 FFF7FEFF 		bl	fflush
 2430              	.LVL246:
 2431              	.L222:
 482:C:/Users/²Ü¼ÒºÀ/.iotlink/sdk/IoT_LINK/iot_link/network/lwm2m/wakaama_lwm2m/wakaama-master/core\observe.c ****     targetP = contextP->observedList;
ARM GAS  C:\Users\²Ü¼ÒºÀ\AppData\Local\Temp\ccA6NNYh.s 			page 63


 2432              		.loc 1 482 5 discriminator 13 view .LVU639
 482:C:/Users/²Ü¼ÒºÀ/.iotlink/sdk/IoT_LINK/iot_link/network/lwm2m/wakaama_lwm2m/wakaama-master/core\observe.c ****     targetP = contextP->observedList;
 2433              		.loc 1 482 5 discriminator 13 view .LVU640
 482:C:/Users/²Ü¼ÒºÀ/.iotlink/sdk/IoT_LINK/iot_link/network/lwm2m/wakaama_lwm2m/wakaama-master/core\observe.c ****     targetP = contextP->observedList;
 2434              		.loc 1 482 5 discriminator 13 view .LVU641
 482:C:/Users/²Ü¼ÒºÀ/.iotlink/sdk/IoT_LINK/iot_link/network/lwm2m/wakaama_lwm2m/wakaama-master/core\observe.c ****     targetP = contextP->observedList;
 2435              		.loc 1 482 5 discriminator 13 view .LVU642
 2436 00e8 2B78     		ldrb	r3, [r5]	@ zero_extendqisi2
 2437 00ea DE07     		lsls	r6, r3, #31
 2438 00ec 16D5     		bpl	.L225
 482:C:/Users/²Ü¼ÒºÀ/.iotlink/sdk/IoT_LINK/iot_link/network/lwm2m/wakaama_lwm2m/wakaama-master/core\observe.c ****     targetP = contextP->observedList;
 2439              		.loc 1 482 5 discriminator 14 view .LVU643
 482:C:/Users/²Ü¼ÒºÀ/.iotlink/sdk/IoT_LINK/iot_link/network/lwm2m/wakaama_lwm2m/wakaama-master/core\observe.c ****     targetP = contextP->observedList;
 2440              		.loc 1 482 5 discriminator 14 view .LVU644
 2441 00ee FFF7FEFF 		bl	link_log_level_get
 2442              	.LVL247:
 2443 00f2 0128     		cmp	r0, #1
 2444 00f4 12D8     		bhi	.L225
 482:C:/Users/²Ü¼ÒºÀ/.iotlink/sdk/IoT_LINK/iot_link/network/lwm2m/wakaama_lwm2m/wakaama-master/core\observe.c ****     targetP = contextP->observedList;
 2445              		.loc 1 482 5 discriminator 16 view .LVU645
 482:C:/Users/²Ü¼ÒºÀ/.iotlink/sdk/IoT_LINK/iot_link/network/lwm2m/wakaama_lwm2m/wakaama-master/core\observe.c ****     targetP = contextP->observedList;
 2446              		.loc 1 482 5 discriminator 16 view .LVU646
 482:C:/Users/²Ü¼ÒºÀ/.iotlink/sdk/IoT_LINK/iot_link/network/lwm2m/wakaama_lwm2m/wakaama-master/core\observe.c ****     targetP = contextP->observedList;
 2447              		.loc 1 482 5 discriminator 16 view .LVU647
 2448 00f6 0120     		movs	r0, #1
 2449 00f8 FFF7FEFF 		bl	link_log_level_name
 2450              	.LVL248:
 2451 00fc 0646     		mov	r6, r0
 2452 00fe FFF7FEFF 		bl	osal_sys_time
 2453              	.LVL249:
 2454 0102 EB88     		ldrh	r3, [r5, #6]
 2455 0104 0093     		str	r3, [sp]
 2456 0106 0246     		mov	r2, r0
 2457 0108 664B     		ldr	r3, .L260+4
 2458 010a 6B48     		ldr	r0, .L260+24
 2459 010c 3146     		mov	r1, r6
 2460 010e FFF7FEFF 		bl	printf
 2461              	.LVL250:
 482:C:/Users/²Ü¼ÒºÀ/.iotlink/sdk/IoT_LINK/iot_link/network/lwm2m/wakaama_lwm2m/wakaama-master/core\observe.c ****     targetP = contextP->observedList;
 2462              		.loc 1 482 5 discriminator 16 view .LVU648
 2463 0112 664B     		ldr	r3, .L260+12
 2464 0114 1B68     		ldr	r3, [r3]
 2465 0116 9868     		ldr	r0, [r3, #8]
 2466 0118 FFF7FEFF 		bl	fflush
 2467              	.LVL251:
 2468              	.L225:
 482:C:/Users/²Ü¼ÒºÀ/.iotlink/sdk/IoT_LINK/iot_link/network/lwm2m/wakaama_lwm2m/wakaama-master/core\observe.c ****     targetP = contextP->observedList;
 2469              		.loc 1 482 5 discriminator 18 view .LVU649
 482:C:/Users/²Ü¼ÒºÀ/.iotlink/sdk/IoT_LINK/iot_link/network/lwm2m/wakaama_lwm2m/wakaama-master/core\observe.c ****     targetP = contextP->observedList;
 2470              		.loc 1 482 5 discriminator 18 view .LVU650
 482:C:/Users/²Ü¼ÒºÀ/.iotlink/sdk/IoT_LINK/iot_link/network/lwm2m/wakaama_lwm2m/wakaama-master/core\observe.c ****     targetP = contextP->observedList;
 2471              		.loc 1 482 5 discriminator 18 view .LVU651
 482:C:/Users/²Ü¼ÒºÀ/.iotlink/sdk/IoT_LINK/iot_link/network/lwm2m/wakaama_lwm2m/wakaama-master/core\observe.c ****     targetP = contextP->observedList;
 2472              		.loc 1 482 5 discriminator 18 view .LVU652
 482:C:/Users/²Ü¼ÒºÀ/.iotlink/sdk/IoT_LINK/iot_link/network/lwm2m/wakaama_lwm2m/wakaama-master/core\observe.c ****     targetP = contextP->observedList;
 2473              		.loc 1 482 5 discriminator 18 view .LVU653
 2474 011c FFF7FEFF 		bl	link_log_level_get
ARM GAS  C:\Users\²Ü¼ÒºÀ\AppData\Local\Temp\ccA6NNYh.s 			page 64


 2475              	.LVL252:
 2476 0120 0128     		cmp	r0, #1
 2477 0122 8DD8     		bhi	.L219
 482:C:/Users/²Ü¼ÒºÀ/.iotlink/sdk/IoT_LINK/iot_link/network/lwm2m/wakaama_lwm2m/wakaama-master/core\observe.c ****     targetP = contextP->observedList;
 2478              		.loc 1 482 5 discriminator 19 view .LVU654
 482:C:/Users/²Ü¼ÒºÀ/.iotlink/sdk/IoT_LINK/iot_link/network/lwm2m/wakaama_lwm2m/wakaama-master/core\observe.c ****     targetP = contextP->observedList;
 2479              		.loc 1 482 5 discriminator 19 view .LVU655
 482:C:/Users/²Ü¼ÒºÀ/.iotlink/sdk/IoT_LINK/iot_link/network/lwm2m/wakaama_lwm2m/wakaama-master/core\observe.c ****     targetP = contextP->observedList;
 2480              		.loc 1 482 5 discriminator 19 view .LVU656
 2481 0124 0120     		movs	r0, #1
 2482 0126 FFF7FEFF 		bl	link_log_level_name
 2483              	.LVL253:
 2484 012a 0646     		mov	r6, r0
 2485 012c FFF7FEFF 		bl	osal_sys_time
 2486              	.LVL254:
 2487 0130 5C4B     		ldr	r3, .L260+4
 2488 0132 0246     		mov	r2, r0
 2489 0134 3146     		mov	r1, r6
 2490 0136 6148     		ldr	r0, .L260+28
 2491 0138 FFF7FEFF 		bl	printf
 2492              	.LVL255:
 2493 013c 7BE7     		b	.L258
 2494              	.LVL256:
 2495              	.L244:
 486:C:/Users/²Ü¼ÒºÀ/.iotlink/sdk/IoT_LINK/iot_link/network/lwm2m/wakaama_lwm2m/wakaama-master/core\observe.c ****         {
 2496              		.loc 1 486 9 view .LVU657
 486:C:/Users/²Ü¼ÒºÀ/.iotlink/sdk/IoT_LINK/iot_link/network/lwm2m/wakaama_lwm2m/wakaama-master/core\observe.c ****         {
 2497              		.loc 1 486 12 is_stmt 0 view .LVU658
 2498 013e E288     		ldrh	r2, [r4, #6]
 2499 0140 6B88     		ldrh	r3, [r5, #2]
 2500 0142 9A42     		cmp	r2, r3
 2501 0144 06D1     		bne	.L229
 488:C:/Users/²Ü¼ÒºÀ/.iotlink/sdk/IoT_LINK/iot_link/network/lwm2m/wakaama_lwm2m/wakaama-master/core\observe.c ****                     || (LWM2M_URI_IS_SET_INSTANCE(uriP) && LWM2M_URI_IS_SET_INSTANCE(&(targetP->uri
 2502              		.loc 1 488 13 is_stmt 1 view .LVU659
 488:C:/Users/²Ü¼ÒºÀ/.iotlink/sdk/IoT_LINK/iot_link/network/lwm2m/wakaama_lwm2m/wakaama-master/core\observe.c ****                     || (LWM2M_URI_IS_SET_INSTANCE(uriP) && LWM2M_URI_IS_SET_INSTANCE(&(targetP->uri
 2503              		.loc 1 488 19 is_stmt 0 view .LVU660
 2504 0146 2A78     		ldrb	r2, [r5]	@ zero_extendqisi2
 2505 0148 2379     		ldrb	r3, [r4, #4]	@ zero_extendqisi2
 488:C:/Users/²Ü¼ÒºÀ/.iotlink/sdk/IoT_LINK/iot_link/network/lwm2m/wakaama_lwm2m/wakaama-master/core\observe.c ****                     || (LWM2M_URI_IS_SET_INSTANCE(uriP) && LWM2M_URI_IS_SET_INSTANCE(&(targetP->uri
 2506              		.loc 1 488 16 view .LVU661
 2507 014a 9007     		lsls	r0, r2, #30
 2508 014c 03F00201 		and	r1, r3, #2
 2509 0150 02D4     		bmi	.L230
 488:C:/Users/²Ü¼ÒºÀ/.iotlink/sdk/IoT_LINK/iot_link/network/lwm2m/wakaama_lwm2m/wakaama-master/core\observe.c ****                     || (LWM2M_URI_IS_SET_INSTANCE(uriP) && LWM2M_URI_IS_SET_INSTANCE(&(targetP->uri
 2510              		.loc 1 488 51 discriminator 1 view .LVU662
 2511 0152 39B1     		cbz	r1, .L231
 2512              	.L229:
 500:C:/Users/²Ü¼ÒºÀ/.iotlink/sdk/IoT_LINK/iot_link/network/lwm2m/wakaama_lwm2m/wakaama-master/core\observe.c ****     }
 2513              		.loc 1 500 9 is_stmt 1 view .LVU663
 500:C:/Users/²Ü¼ÒºÀ/.iotlink/sdk/IoT_LINK/iot_link/network/lwm2m/wakaama_lwm2m/wakaama-master/core\observe.c ****     }
 2514              		.loc 1 500 17 is_stmt 0 view .LVU664
 2515 0154 2468     		ldr	r4, [r4]
 2516              	.LVL257:
 500:C:/Users/²Ü¼ÒºÀ/.iotlink/sdk/IoT_LINK/iot_link/network/lwm2m/wakaama_lwm2m/wakaama-master/core\observe.c ****     }
 2517              		.loc 1 500 17 view .LVU665
 2518 0156 74E7     		b	.L228
 2519              	.L230:
ARM GAS  C:\Users\²Ü¼ÒºÀ\AppData\Local\Temp\ccA6NNYh.s 			page 65


 489:C:/Users/²Ü¼ÒºÀ/.iotlink/sdk/IoT_LINK/iot_link/network/lwm2m/wakaama_lwm2m/wakaama-master/core\observe.c ****             {
 2520              		.loc 1 489 57 discriminator 1 view .LVU666
 2521 0158 0029     		cmp	r1, #0
 2522 015a FBD0     		beq	.L229
 489:C:/Users/²Ü¼ÒºÀ/.iotlink/sdk/IoT_LINK/iot_link/network/lwm2m/wakaama_lwm2m/wakaama-master/core\observe.c ****             {
 2523              		.loc 1 489 103 discriminator 2 view .LVU667
 2524 015c A888     		ldrh	r0, [r5, #4]
 2525 015e 2189     		ldrh	r1, [r4, #8]
 2526 0160 8842     		cmp	r0, r1
 2527 0162 F7D1     		bne	.L229
 2528              	.L231:
 491:C:/Users/²Ü¼ÒºÀ/.iotlink/sdk/IoT_LINK/iot_link/network/lwm2m/wakaama_lwm2m/wakaama-master/core\observe.c ****                         || (LWM2M_URI_IS_SET_RESOURCE(uriP) && LWM2M_URI_IS_SET_RESOURCE(&(targetP-
 2529              		.loc 1 491 17 is_stmt 1 view .LVU668
 491:C:/Users/²Ü¼ÒºÀ/.iotlink/sdk/IoT_LINK/iot_link/network/lwm2m/wakaama_lwm2m/wakaama-master/core\observe.c ****                         || (LWM2M_URI_IS_SET_RESOURCE(uriP) && LWM2M_URI_IS_SET_RESOURCE(&(targetP-
 2530              		.loc 1 491 20 is_stmt 0 view .LVU669
 2531 0164 D107     		lsls	r1, r2, #31
 2532 0166 03F00103 		and	r3, r3, #1
 2533 016a 00F18F80 		bmi	.L232
 491:C:/Users/²Ü¼ÒºÀ/.iotlink/sdk/IoT_LINK/iot_link/network/lwm2m/wakaama_lwm2m/wakaama-master/core\observe.c ****                         || (LWM2M_URI_IS_SET_RESOURCE(uriP) && LWM2M_URI_IS_SET_RESOURCE(&(targetP-
 2534              		.loc 1 491 55 discriminator 1 view .LVU670
 2535 016e 002B     		cmp	r3, #0
 2536 0170 F0D1     		bne	.L229
 2537              	.L233:
 494:C:/Users/²Ü¼ÒºÀ/.iotlink/sdk/IoT_LINK/iot_link/network/lwm2m/wakaama_lwm2m/wakaama-master/core\observe.c ****                     LOG_URI(&(targetP->uri));
 2538              		.loc 1 494 21 is_stmt 1 view .LVU671
 494:C:/Users/²Ü¼ÒºÀ/.iotlink/sdk/IoT_LINK/iot_link/network/lwm2m/wakaama_lwm2m/wakaama-master/core\observe.c ****                     LOG_URI(&(targetP->uri));
 2539              		.loc 1 494 21 view .LVU672
 2540 0172 FFF7FEFF 		bl	link_log_level_get
 2541              	.LVL258:
 2542 0176 0128     		cmp	r0, #1
 2543 0178 20D8     		bhi	.L234
 494:C:/Users/²Ü¼ÒºÀ/.iotlink/sdk/IoT_LINK/iot_link/network/lwm2m/wakaama_lwm2m/wakaama-master/core\observe.c ****                     LOG_URI(&(targetP->uri));
 2544              		.loc 1 494 21 discriminator 1 view .LVU673
 494:C:/Users/²Ü¼ÒºÀ/.iotlink/sdk/IoT_LINK/iot_link/network/lwm2m/wakaama_lwm2m/wakaama-master/core\observe.c ****                     LOG_URI(&(targetP->uri));
 2545              		.loc 1 494 21 discriminator 1 view .LVU674
 494:C:/Users/²Ü¼ÒºÀ/.iotlink/sdk/IoT_LINK/iot_link/network/lwm2m/wakaama_lwm2m/wakaama-master/core\observe.c ****                     LOG_URI(&(targetP->uri));
 2546              		.loc 1 494 21 discriminator 1 view .LVU675
 2547 017a 0120     		movs	r0, #1
 2548 017c FFF7FEFF 		bl	link_log_level_name
 2549              	.LVL259:
 2550 0180 0546     		mov	r5, r0
 2551              	.LVL260:
 494:C:/Users/²Ü¼ÒºÀ/.iotlink/sdk/IoT_LINK/iot_link/network/lwm2m/wakaama_lwm2m/wakaama-master/core\observe.c ****                     LOG_URI(&(targetP->uri));
 2552              		.loc 1 494 21 is_stmt 0 discriminator 1 view .LVU676
 2553 0182 FFF7FEFF 		bl	osal_sys_time
 2554              	.LVL261:
 2555 0186 0590     		str	r0, [sp, #20]
 2556 0188 FFF7FEFF 		bl	lwm2m_gettime
 2557              	.LVL262:
 2558 018c E668     		ldr	r6, [r4, #12]
 2559 018e 4C49     		ldr	r1, .L260+32
 2560 0190 4C4B     		ldr	r3, .L260+36
 2561 0192 059A     		ldr	r2, [sp, #20]
 2562 0194 002E     		cmp	r6, #0
 2563 0196 08BF     		it	eq
 2564 0198 0B46     		moveq	r3, r1
 2565 019a 0393     		str	r3, [sp, #12]
ARM GAS  C:\Users\²Ü¼ÒºÀ\AppData\Local\Temp\ccA6NNYh.s 			page 66


 2566 019c 4FF4F773 		mov	r3, #494
 2567 01a0 0293     		str	r3, [sp, #8]
 2568 01a2 3F4B     		ldr	r3, .L260
 2569 01a4 2946     		mov	r1, r5
 2570 01a6 CDE90003 		strd	r0, r3, [sp]
 2571 01aa 3E4B     		ldr	r3, .L260+4
 2572 01ac 4648     		ldr	r0, .L260+40
 2573 01ae FFF7FEFF 		bl	printf
 2574              	.LVL263:
 494:C:/Users/²Ü¼ÒºÀ/.iotlink/sdk/IoT_LINK/iot_link/network/lwm2m/wakaama_lwm2m/wakaama-master/core\observe.c ****                     LOG_URI(&(targetP->uri));
 2575              		.loc 1 494 21 is_stmt 1 discriminator 1 view .LVU677
 2576 01b2 3E4B     		ldr	r3, .L260+12
 2577 01b4 1B68     		ldr	r3, [r3]
 2578 01b6 9868     		ldr	r0, [r3, #8]
 2579 01b8 FFF7FEFF 		bl	fflush
 2580              	.LVL264:
 2581              	.L234:
 494:C:/Users/²Ü¼ÒºÀ/.iotlink/sdk/IoT_LINK/iot_link/network/lwm2m/wakaama_lwm2m/wakaama-master/core\observe.c ****                     LOG_URI(&(targetP->uri));
 2582              		.loc 1 494 21 discriminator 7 view .LVU678
 494:C:/Users/²Ü¼ÒºÀ/.iotlink/sdk/IoT_LINK/iot_link/network/lwm2m/wakaama_lwm2m/wakaama-master/core\observe.c ****                     LOG_URI(&(targetP->uri));
 2583              		.loc 1 494 21 discriminator 7 view .LVU679
 494:C:/Users/²Ü¼ÒºÀ/.iotlink/sdk/IoT_LINK/iot_link/network/lwm2m/wakaama_lwm2m/wakaama-master/core\observe.c ****                     LOG_URI(&(targetP->uri));
 2584              		.loc 1 494 21 discriminator 7 view .LVU680
 495:C:/Users/²Ü¼ÒºÀ/.iotlink/sdk/IoT_LINK/iot_link/network/lwm2m/wakaama_lwm2m/wakaama-master/core\observe.c ****                     return targetP;
 2585              		.loc 1 495 21 discriminator 7 view .LVU681
 495:C:/Users/²Ü¼ÒºÀ/.iotlink/sdk/IoT_LINK/iot_link/network/lwm2m/wakaama_lwm2m/wakaama-master/core\observe.c ****                     return targetP;
 2586              		.loc 1 495 21 discriminator 7 view .LVU682
 495:C:/Users/²Ü¼ÒºÀ/.iotlink/sdk/IoT_LINK/iot_link/network/lwm2m/wakaama_lwm2m/wakaama-master/core\observe.c ****                     return targetP;
 2587              		.loc 1 495 21 discriminator 7 view .LVU683
 2588 01bc FFF7FEFF 		bl	link_log_level_get
 2589              	.LVL265:
 2590 01c0 0128     		cmp	r0, #1
 2591 01c2 17D8     		bhi	.L236
 495:C:/Users/²Ü¼ÒºÀ/.iotlink/sdk/IoT_LINK/iot_link/network/lwm2m/wakaama_lwm2m/wakaama-master/core\observe.c ****                     return targetP;
 2592              		.loc 1 495 21 discriminator 6 view .LVU684
 495:C:/Users/²Ü¼ÒºÀ/.iotlink/sdk/IoT_LINK/iot_link/network/lwm2m/wakaama_lwm2m/wakaama-master/core\observe.c ****                     return targetP;
 2593              		.loc 1 495 21 discriminator 6 view .LVU685
 495:C:/Users/²Ü¼ÒºÀ/.iotlink/sdk/IoT_LINK/iot_link/network/lwm2m/wakaama_lwm2m/wakaama-master/core\observe.c ****                     return targetP;
 2594              		.loc 1 495 21 discriminator 6 view .LVU686
 2595 01c4 0120     		movs	r0, #1
 2596 01c6 FFF7FEFF 		bl	link_log_level_name
 2597              	.LVL266:
 2598 01ca 0546     		mov	r5, r0
 2599 01cc FFF7FEFF 		bl	osal_sys_time
 2600              	.LVL267:
 2601 01d0 E388     		ldrh	r3, [r4, #6]
 2602 01d2 0293     		str	r3, [sp, #8]
 2603 01d4 40F2EF13 		movw	r3, #495
 2604 01d8 0193     		str	r3, [sp, #4]
 2605 01da 314B     		ldr	r3, .L260
 2606 01dc 0093     		str	r3, [sp]
 2607 01de 0246     		mov	r2, r0
 2608 01e0 304B     		ldr	r3, .L260+4
 2609 01e2 3448     		ldr	r0, .L260+20
 2610 01e4 2946     		mov	r1, r5
 2611 01e6 FFF7FEFF 		bl	printf
 2612              	.LVL268:
ARM GAS  C:\Users\²Ü¼ÒºÀ\AppData\Local\Temp\ccA6NNYh.s 			page 67


 495:C:/Users/²Ü¼ÒºÀ/.iotlink/sdk/IoT_LINK/iot_link/network/lwm2m/wakaama_lwm2m/wakaama-master/core\observe.c ****                     return targetP;
 2613              		.loc 1 495 21 discriminator 6 view .LVU687
 2614 01ea 304B     		ldr	r3, .L260+12
 2615 01ec 1B68     		ldr	r3, [r3]
 2616 01ee 9868     		ldr	r0, [r3, #8]
 2617 01f0 FFF7FEFF 		bl	fflush
 2618              	.LVL269:
 2619              	.L236:
 495:C:/Users/²Ü¼ÒºÀ/.iotlink/sdk/IoT_LINK/iot_link/network/lwm2m/wakaama_lwm2m/wakaama-master/core\observe.c ****                     return targetP;
 2620              		.loc 1 495 21 discriminator 8 view .LVU688
 495:C:/Users/²Ü¼ÒºÀ/.iotlink/sdk/IoT_LINK/iot_link/network/lwm2m/wakaama_lwm2m/wakaama-master/core\observe.c ****                     return targetP;
 2621              		.loc 1 495 21 discriminator 8 view .LVU689
 495:C:/Users/²Ü¼ÒºÀ/.iotlink/sdk/IoT_LINK/iot_link/network/lwm2m/wakaama_lwm2m/wakaama-master/core\observe.c ****                     return targetP;
 2622              		.loc 1 495 21 discriminator 8 view .LVU690
 495:C:/Users/²Ü¼ÒºÀ/.iotlink/sdk/IoT_LINK/iot_link/network/lwm2m/wakaama_lwm2m/wakaama-master/core\observe.c ****                     return targetP;
 2623              		.loc 1 495 21 discriminator 8 view .LVU691
 2624 01f4 2379     		ldrb	r3, [r4, #4]	@ zero_extendqisi2
 2625 01f6 9A07     		lsls	r2, r3, #30
 2626 01f8 16D5     		bpl	.L238
 495:C:/Users/²Ü¼ÒºÀ/.iotlink/sdk/IoT_LINK/iot_link/network/lwm2m/wakaama_lwm2m/wakaama-master/core\observe.c ****                     return targetP;
 2627              		.loc 1 495 21 discriminator 9 view .LVU692
 495:C:/Users/²Ü¼ÒºÀ/.iotlink/sdk/IoT_LINK/iot_link/network/lwm2m/wakaama_lwm2m/wakaama-master/core\observe.c ****                     return targetP;
 2628              		.loc 1 495 21 discriminator 9 view .LVU693
 2629 01fa FFF7FEFF 		bl	link_log_level_get
 2630              	.LVL270:
 2631 01fe 0128     		cmp	r0, #1
 2632 0200 12D8     		bhi	.L238
 495:C:/Users/²Ü¼ÒºÀ/.iotlink/sdk/IoT_LINK/iot_link/network/lwm2m/wakaama_lwm2m/wakaama-master/core\observe.c ****                     return targetP;
 2633              		.loc 1 495 21 discriminator 11 view .LVU694
 495:C:/Users/²Ü¼ÒºÀ/.iotlink/sdk/IoT_LINK/iot_link/network/lwm2m/wakaama_lwm2m/wakaama-master/core\observe.c ****                     return targetP;
 2634              		.loc 1 495 21 discriminator 11 view .LVU695
 495:C:/Users/²Ü¼ÒºÀ/.iotlink/sdk/IoT_LINK/iot_link/network/lwm2m/wakaama_lwm2m/wakaama-master/core\observe.c ****                     return targetP;
 2635              		.loc 1 495 21 discriminator 11 view .LVU696
 2636 0202 0120     		movs	r0, #1
 2637 0204 FFF7FEFF 		bl	link_log_level_name
 2638              	.LVL271:
 2639 0208 0546     		mov	r5, r0
 2640 020a FFF7FEFF 		bl	osal_sys_time
 2641              	.LVL272:
 2642 020e 2389     		ldrh	r3, [r4, #8]
 2643 0210 0093     		str	r3, [sp]
 2644 0212 0246     		mov	r2, r0
 2645 0214 234B     		ldr	r3, .L260+4
 2646 0216 2848     		ldr	r0, .L260+24
 2647 0218 2946     		mov	r1, r5
 2648 021a FFF7FEFF 		bl	printf
 2649              	.LVL273:
 495:C:/Users/²Ü¼ÒºÀ/.iotlink/sdk/IoT_LINK/iot_link/network/lwm2m/wakaama_lwm2m/wakaama-master/core\observe.c ****                     return targetP;
 2650              		.loc 1 495 21 discriminator 11 view .LVU697
 2651 021e 234B     		ldr	r3, .L260+12
 2652 0220 1B68     		ldr	r3, [r3]
 2653 0222 9868     		ldr	r0, [r3, #8]
 2654 0224 FFF7FEFF 		bl	fflush
 2655              	.LVL274:
 2656              	.L238:
 495:C:/Users/²Ü¼ÒºÀ/.iotlink/sdk/IoT_LINK/iot_link/network/lwm2m/wakaama_lwm2m/wakaama-master/core\observe.c ****                     return targetP;
 2657              		.loc 1 495 21 discriminator 13 view .LVU698
ARM GAS  C:\Users\²Ü¼ÒºÀ\AppData\Local\Temp\ccA6NNYh.s 			page 68


 495:C:/Users/²Ü¼ÒºÀ/.iotlink/sdk/IoT_LINK/iot_link/network/lwm2m/wakaama_lwm2m/wakaama-master/core\observe.c ****                     return targetP;
 2658              		.loc 1 495 21 discriminator 13 view .LVU699
 495:C:/Users/²Ü¼ÒºÀ/.iotlink/sdk/IoT_LINK/iot_link/network/lwm2m/wakaama_lwm2m/wakaama-master/core\observe.c ****                     return targetP;
 2659              		.loc 1 495 21 discriminator 13 view .LVU700
 495:C:/Users/²Ü¼ÒºÀ/.iotlink/sdk/IoT_LINK/iot_link/network/lwm2m/wakaama_lwm2m/wakaama-master/core\observe.c ****                     return targetP;
 2660              		.loc 1 495 21 discriminator 13 view .LVU701
 2661 0228 2379     		ldrb	r3, [r4, #4]	@ zero_extendqisi2
 2662 022a DB07     		lsls	r3, r3, #31
 2663 022c 16D5     		bpl	.L241
 495:C:/Users/²Ü¼ÒºÀ/.iotlink/sdk/IoT_LINK/iot_link/network/lwm2m/wakaama_lwm2m/wakaama-master/core\observe.c ****                     return targetP;
 2664              		.loc 1 495 21 discriminator 14 view .LVU702
 495:C:/Users/²Ü¼ÒºÀ/.iotlink/sdk/IoT_LINK/iot_link/network/lwm2m/wakaama_lwm2m/wakaama-master/core\observe.c ****                     return targetP;
 2665              		.loc 1 495 21 discriminator 14 view .LVU703
 2666 022e FFF7FEFF 		bl	link_log_level_get
 2667              	.LVL275:
 2668 0232 0128     		cmp	r0, #1
 2669 0234 12D8     		bhi	.L241
 495:C:/Users/²Ü¼ÒºÀ/.iotlink/sdk/IoT_LINK/iot_link/network/lwm2m/wakaama_lwm2m/wakaama-master/core\observe.c ****                     return targetP;
 2670              		.loc 1 495 21 discriminator 16 view .LVU704
 495:C:/Users/²Ü¼ÒºÀ/.iotlink/sdk/IoT_LINK/iot_link/network/lwm2m/wakaama_lwm2m/wakaama-master/core\observe.c ****                     return targetP;
 2671              		.loc 1 495 21 discriminator 16 view .LVU705
 495:C:/Users/²Ü¼ÒºÀ/.iotlink/sdk/IoT_LINK/iot_link/network/lwm2m/wakaama_lwm2m/wakaama-master/core\observe.c ****                     return targetP;
 2672              		.loc 1 495 21 discriminator 16 view .LVU706
 2673 0236 0120     		movs	r0, #1
 2674 0238 FFF7FEFF 		bl	link_log_level_name
 2675              	.LVL276:
 2676 023c 0546     		mov	r5, r0
 2677 023e FFF7FEFF 		bl	osal_sys_time
 2678              	.LVL277:
 2679 0242 6389     		ldrh	r3, [r4, #10]
 2680 0244 0093     		str	r3, [sp]
 2681 0246 0246     		mov	r2, r0
 2682 0248 164B     		ldr	r3, .L260+4
 2683 024a 1B48     		ldr	r0, .L260+24
 2684 024c 2946     		mov	r1, r5
 2685 024e FFF7FEFF 		bl	printf
 2686              	.LVL278:
 495:C:/Users/²Ü¼ÒºÀ/.iotlink/sdk/IoT_LINK/iot_link/network/lwm2m/wakaama_lwm2m/wakaama-master/core\observe.c ****                     return targetP;
 2687              		.loc 1 495 21 discriminator 16 view .LVU707
 2688 0252 164B     		ldr	r3, .L260+12
 2689 0254 1B68     		ldr	r3, [r3]
 2690 0256 9868     		ldr	r0, [r3, #8]
 2691 0258 FFF7FEFF 		bl	fflush
 2692              	.LVL279:
 2693              	.L241:
 495:C:/Users/²Ü¼ÒºÀ/.iotlink/sdk/IoT_LINK/iot_link/network/lwm2m/wakaama_lwm2m/wakaama-master/core\observe.c ****                     return targetP;
 2694              		.loc 1 495 21 discriminator 18 view .LVU708
 495:C:/Users/²Ü¼ÒºÀ/.iotlink/sdk/IoT_LINK/iot_link/network/lwm2m/wakaama_lwm2m/wakaama-master/core\observe.c ****                     return targetP;
 2695              		.loc 1 495 21 discriminator 18 view .LVU709
 495:C:/Users/²Ü¼ÒºÀ/.iotlink/sdk/IoT_LINK/iot_link/network/lwm2m/wakaama_lwm2m/wakaama-master/core\observe.c ****                     return targetP;
 2696              		.loc 1 495 21 discriminator 18 view .LVU710
 495:C:/Users/²Ü¼ÒºÀ/.iotlink/sdk/IoT_LINK/iot_link/network/lwm2m/wakaama_lwm2m/wakaama-master/core\observe.c ****                     return targetP;
 2697              		.loc 1 495 21 discriminator 18 view .LVU711
 495:C:/Users/²Ü¼ÒºÀ/.iotlink/sdk/IoT_LINK/iot_link/network/lwm2m/wakaama_lwm2m/wakaama-master/core\observe.c ****                     return targetP;
 2698              		.loc 1 495 21 discriminator 18 view .LVU712
 2699 025c FFF7FEFF 		bl	link_log_level_get
 2700              	.LVL280:
ARM GAS  C:\Users\²Ü¼ÒºÀ\AppData\Local\Temp\ccA6NNYh.s 			page 69


 2701 0260 0128     		cmp	r0, #1
 2702 0262 10D8     		bhi	.L216
 495:C:/Users/²Ü¼ÒºÀ/.iotlink/sdk/IoT_LINK/iot_link/network/lwm2m/wakaama_lwm2m/wakaama-master/core\observe.c ****                     return targetP;
 2703              		.loc 1 495 21 discriminator 19 view .LVU713
 495:C:/Users/²Ü¼ÒºÀ/.iotlink/sdk/IoT_LINK/iot_link/network/lwm2m/wakaama_lwm2m/wakaama-master/core\observe.c ****                     return targetP;
 2704              		.loc 1 495 21 discriminator 19 view .LVU714
 495:C:/Users/²Ü¼ÒºÀ/.iotlink/sdk/IoT_LINK/iot_link/network/lwm2m/wakaama_lwm2m/wakaama-master/core\observe.c ****                     return targetP;
 2705              		.loc 1 495 21 discriminator 19 view .LVU715
 2706 0264 0120     		movs	r0, #1
 2707 0266 FFF7FEFF 		bl	link_log_level_name
 2708              	.LVL281:
 2709 026a 0546     		mov	r5, r0
 2710 026c FFF7FEFF 		bl	osal_sys_time
 2711              	.LVL282:
 2712 0270 0C4B     		ldr	r3, .L260+4
 2713 0272 0246     		mov	r2, r0
 2714 0274 2946     		mov	r1, r5
 2715 0276 1148     		ldr	r0, .L260+28
 2716 0278 FFF7FEFF 		bl	printf
 2717              	.LVL283:
 495:C:/Users/²Ü¼ÒºÀ/.iotlink/sdk/IoT_LINK/iot_link/network/lwm2m/wakaama_lwm2m/wakaama-master/core\observe.c ****                     return targetP;
 2718              		.loc 1 495 21 discriminator 19 view .LVU716
 2719              	.L259:
 2720              		.loc 1 503 5 discriminator 1 view .LVU717
 2721 027c 0B4B     		ldr	r3, .L260+12
 2722 027e 1B68     		ldr	r3, [r3]
 2723 0280 9868     		ldr	r0, [r3, #8]
 2724 0282 FFF7FEFF 		bl	fflush
 2725              	.LVL284:
 2726              	.L216:
 504:C:/Users/²Ü¼ÒºÀ/.iotlink/sdk/IoT_LINK/iot_link/network/lwm2m/wakaama_lwm2m/wakaama-master/core\observe.c ****     return NULL;
 505:C:/Users/²Ü¼ÒºÀ/.iotlink/sdk/IoT_LINK/iot_link/network/lwm2m/wakaama_lwm2m/wakaama-master/core\observe.c **** }
 2727              		.loc 1 505 1 is_stmt 0 view .LVU718
 2728 0286 2046     		mov	r0, r4
 2729 0288 06B0     		add	sp, sp, #24
 2730              	.LCFI25:
 2731              		.cfi_remember_state
 2732              		.cfi_def_cfa_offset 16
 2733              		@ sp needed
 2734 028a 70BD     		pop	{r4, r5, r6, pc}
 2735              	.LVL285:
 2736              	.L232:
 2737              	.LCFI26:
 2738              		.cfi_restore_state
 492:C:/Users/²Ü¼ÒºÀ/.iotlink/sdk/IoT_LINK/iot_link/network/lwm2m/wakaama_lwm2m/wakaama-master/core\observe.c ****                 {
 2739              		.loc 1 492 61 discriminator 1 view .LVU719
 2740 028c 002B     		cmp	r3, #0
 2741 028e 3FF461AF 		beq	.L229
 492:C:/Users/²Ü¼ÒºÀ/.iotlink/sdk/IoT_LINK/iot_link/network/lwm2m/wakaama_lwm2m/wakaama-master/core\observe.c ****                 {
 2742              		.loc 1 492 107 discriminator 2 view .LVU720
 2743 0292 EA88     		ldrh	r2, [r5, #6]
 2744 0294 6389     		ldrh	r3, [r4, #10]
 2745 0296 9A42     		cmp	r2, r3
 2746 0298 7FF45CAF 		bne	.L229
 2747 029c 69E7     		b	.L233
 2748              	.L261:
 2749 029e 00BF     		.align	2
ARM GAS  C:\Users\²Ü¼ÒºÀ\AppData\Local\Temp\ccA6NNYh.s 			page 70


 2750              	.L260:
 2751 02a0 00000000 		.word	.LANCHOR10
 2752 02a4 00000000 		.word	.LANCHOR9
 2753 02a8 68010000 		.word	.LC18
 2754 02ac 00000000 		.word	_impure_ptr
 2755 02b0 3E000000 		.word	.LC27
 2756 02b4 86010000 		.word	.LC19
 2757 02b8 A1010000 		.word	.LC20
 2758 02bc B4010000 		.word	.LC21
 2759 02c0 01000000 		.word	.LC25
 2760 02c4 00000000 		.word	.LC24
 2761 02c8 05000000 		.word	.LC26
 2762              		.cfi_endproc
 2763              	.LFE13:
 2765              		.section	.rodata.lwm2m_resource_value_changed.str1.1,"aMS",%progbits,1
 2766              	.LC28:
 2767 0000 5B25735D 		.ascii	"[%s][%u][%s] [%d][%s:%d] Found an observation\015\012"
 2767      5B25755D 
 2767      5B25735D 
 2767      205B2564 
 2767      5D5B2573 
 2768 002f 0D0A00   		.ascii	"\015\012\000"
 2769              	.LC29:
 2770 0032 5B25735D 		.ascii	"[%s][%u][%s] [%d][%s:%d] Tagging a watcher\015\012\015"
 2770      5B25755D 
 2770      5B25735D 
 2770      205B2564 
 2770      5D5B2573 
 2771 005f 0A00     		.ascii	"\012\000"
 2772              		.section	.text.lwm2m_resource_value_changed,"ax",%progbits
 2773              		.align	1
 2774              		.global	lwm2m_resource_value_changed
 2775              		.syntax unified
 2776              		.thumb
 2777              		.thumb_func
 2778              		.fpu fpv4-sp-d16
 2780              	lwm2m_resource_value_changed:
 2781              	.LVL286:
 2782              	.LFB14:
 506:C:/Users/²Ü¼ÒºÀ/.iotlink/sdk/IoT_LINK/iot_link/network/lwm2m/wakaama_lwm2m/wakaama-master/core\observe.c **** 
 507:C:/Users/²Ü¼ÒºÀ/.iotlink/sdk/IoT_LINK/iot_link/network/lwm2m/wakaama_lwm2m/wakaama-master/core\observe.c **** void lwm2m_resource_value_changed(lwm2m_context_t *contextP,
 508:C:/Users/²Ü¼ÒºÀ/.iotlink/sdk/IoT_LINK/iot_link/network/lwm2m/wakaama_lwm2m/wakaama-master/core\observe.c ****                                   lwm2m_uri_t *uriP)
 509:C:/Users/²Ü¼ÒºÀ/.iotlink/sdk/IoT_LINK/iot_link/network/lwm2m/wakaama_lwm2m/wakaama-master/core\observe.c **** {
 2783              		.loc 1 509 1 is_stmt 1 view -0
 2784              		.cfi_startproc
 2785              		@ args = 0, pretend = 0, frame = 8
 2786              		@ frame_needed = 0, uses_anonymous_args = 0
 510:C:/Users/²Ü¼ÒºÀ/.iotlink/sdk/IoT_LINK/iot_link/network/lwm2m/wakaama_lwm2m/wakaama-master/core\observe.c ****     lwm2m_observed_t *targetP;
 2787              		.loc 1 510 5 view .LVU722
 511:C:/Users/²Ü¼ÒºÀ/.iotlink/sdk/IoT_LINK/iot_link/network/lwm2m/wakaama_lwm2m/wakaama-master/core\observe.c **** 
 512:C:/Users/²Ü¼ÒºÀ/.iotlink/sdk/IoT_LINK/iot_link/network/lwm2m/wakaama_lwm2m/wakaama-master/core\observe.c ****     LOG_URI(uriP);
 2788              		.loc 1 512 5 view .LVU723
 509:C:/Users/²Ü¼ÒºÀ/.iotlink/sdk/IoT_LINK/iot_link/network/lwm2m/wakaama_lwm2m/wakaama-master/core\observe.c ****     lwm2m_observed_t *targetP;
 2789              		.loc 1 509 1 is_stmt 0 view .LVU724
 2790 0000 2DE9F047 		push	{r4, r5, r6, r7, r8, r9, r10, lr}
 2791              	.LCFI27:
 2792              		.cfi_def_cfa_offset 32
ARM GAS  C:\Users\²Ü¼ÒºÀ\AppData\Local\Temp\ccA6NNYh.s 			page 71


 2793              		.cfi_offset 4, -32
 2794              		.cfi_offset 5, -28
 2795              		.cfi_offset 6, -24
 2796              		.cfi_offset 7, -20
 2797              		.cfi_offset 8, -16
 2798              		.cfi_offset 9, -12
 2799              		.cfi_offset 10, -8
 2800              		.cfi_offset 14, -4
 2801 0004 0446     		mov	r4, r0
 2802 0006 86B0     		sub	sp, sp, #24
 2803              	.LCFI28:
 2804              		.cfi_def_cfa_offset 56
 2805              		.loc 1 512 5 view .LVU725
 2806 0008 0D46     		mov	r5, r1
 2807 000a 11BB     		cbnz	r1, .L263
 2808              		.loc 1 512 5 is_stmt 1 discriminator 1 view .LVU726
 2809              		.loc 1 512 5 discriminator 1 view .LVU727
 2810 000c FFF7FEFF 		bl	link_log_level_get
 2811              	.LVL287:
 2812              		.loc 1 512 5 is_stmt 0 discriminator 1 view .LVU728
 2813 0010 0128     		cmp	r0, #1
 2814 0012 15D8     		bhi	.L265
 2815              		.loc 1 512 5 is_stmt 1 discriminator 3 view .LVU729
 2816              		.loc 1 512 5 discriminator 3 view .LVU730
 2817              		.loc 1 512 5 discriminator 3 view .LVU731
 2818 0014 0120     		movs	r0, #1
 2819 0016 FFF7FEFF 		bl	link_log_level_name
 2820              	.LVL288:
 2821 001a 0646     		mov	r6, r0
 2822 001c FFF7FEFF 		bl	osal_sys_time
 2823              	.LVL289:
 2824 0020 4FF40073 		mov	r3, #512
 2825 0024 0193     		str	r3, [sp, #4]
 2826 0026 9D4B     		ldr	r3, .L309
 2827 0028 0093     		str	r3, [sp]
 2828 002a 0246     		mov	r2, r0
 2829 002c 9C4B     		ldr	r3, .L309+4
 2830 002e 9D48     		ldr	r0, .L309+8
 2831 0030 3146     		mov	r1, r6
 2832 0032 FFF7FEFF 		bl	printf
 2833              	.LVL290:
 2834              		.loc 1 512 5 discriminator 3 view .LVU732
 2835              	.L308:
 2836              		.loc 1 512 5 discriminator 19 view .LVU733
 2837 0036 9C4B     		ldr	r3, .L309+12
 2838 0038 1B68     		ldr	r3, [r3]
 2839 003a 9868     		ldr	r0, [r3, #8]
 2840 003c FFF7FEFF 		bl	fflush
 2841              	.LVL291:
 2842              	.L265:
 2843              		.loc 1 512 5 discriminator 21 view .LVU734
 2844              		.loc 1 512 5 discriminator 21 view .LVU735
 2845              		.loc 1 512 5 discriminator 21 view .LVU736
 2846              		.loc 1 512 18 discriminator 21 view .LVU737
 513:C:/Users/²Ü¼ÒºÀ/.iotlink/sdk/IoT_LINK/iot_link/network/lwm2m/wakaama_lwm2m/wakaama-master/core\observe.c ****     targetP = contextP->observedList;
 2847              		.loc 1 513 5 discriminator 21 view .LVU738
 2848              		.loc 1 513 13 is_stmt 0 discriminator 21 view .LVU739
ARM GAS  C:\Users\²Ü¼ÒºÀ\AppData\Local\Temp\ccA6NNYh.s 			page 72


 2849 0040 E469     		ldr	r4, [r4, #28]
 2850              	.LVL292:
 514:C:/Users/²Ü¼ÒºÀ/.iotlink/sdk/IoT_LINK/iot_link/network/lwm2m/wakaama_lwm2m/wakaama-master/core\observe.c ****     while (targetP != NULL)
 2851              		.loc 1 514 5 is_stmt 1 discriminator 21 view .LVU740
 2852              	.LBB32:
 515:C:/Users/²Ü¼ÒºÀ/.iotlink/sdk/IoT_LINK/iot_link/network/lwm2m/wakaama_lwm2m/wakaama-master/core\observe.c ****     {
 516:C:/Users/²Ü¼ÒºÀ/.iotlink/sdk/IoT_LINK/iot_link/network/lwm2m/wakaama_lwm2m/wakaama-master/core\observe.c ****         if (targetP->uri.objectId == uriP->objectId)
 517:C:/Users/²Ü¼ÒºÀ/.iotlink/sdk/IoT_LINK/iot_link/network/lwm2m/wakaama_lwm2m/wakaama-master/core\observe.c ****         {
 518:C:/Users/²Ü¼ÒºÀ/.iotlink/sdk/IoT_LINK/iot_link/network/lwm2m/wakaama_lwm2m/wakaama-master/core\observe.c ****             if (!LWM2M_URI_IS_SET_INSTANCE(uriP)
 519:C:/Users/²Ü¼ÒºÀ/.iotlink/sdk/IoT_LINK/iot_link/network/lwm2m/wakaama_lwm2m/wakaama-master/core\observe.c ****                     || (targetP->uri.flag & LWM2M_URI_FLAG_INSTANCE_ID) == 0
 520:C:/Users/²Ü¼ÒºÀ/.iotlink/sdk/IoT_LINK/iot_link/network/lwm2m/wakaama_lwm2m/wakaama-master/core\observe.c ****                     || uriP->instanceId == targetP->uri.instanceId)
 521:C:/Users/²Ü¼ÒºÀ/.iotlink/sdk/IoT_LINK/iot_link/network/lwm2m/wakaama_lwm2m/wakaama-master/core\observe.c ****             {
 522:C:/Users/²Ü¼ÒºÀ/.iotlink/sdk/IoT_LINK/iot_link/network/lwm2m/wakaama_lwm2m/wakaama-master/core\observe.c ****                 if (!LWM2M_URI_IS_SET_RESOURCE(uriP)
 523:C:/Users/²Ü¼ÒºÀ/.iotlink/sdk/IoT_LINK/iot_link/network/lwm2m/wakaama_lwm2m/wakaama-master/core\observe.c ****                         || (targetP->uri.flag & LWM2M_URI_FLAG_RESOURCE_ID) == 0
 524:C:/Users/²Ü¼ÒºÀ/.iotlink/sdk/IoT_LINK/iot_link/network/lwm2m/wakaama_lwm2m/wakaama-master/core\observe.c ****                         || uriP->resourceId == targetP->uri.resourceId)
 525:C:/Users/²Ü¼ÒºÀ/.iotlink/sdk/IoT_LINK/iot_link/network/lwm2m/wakaama_lwm2m/wakaama-master/core\observe.c ****                 {
 526:C:/Users/²Ü¼ÒºÀ/.iotlink/sdk/IoT_LINK/iot_link/network/lwm2m/wakaama_lwm2m/wakaama-master/core\observe.c ****                     lwm2m_watcher_t *watcherP;
 527:C:/Users/²Ü¼ÒºÀ/.iotlink/sdk/IoT_LINK/iot_link/network/lwm2m/wakaama_lwm2m/wakaama-master/core\observe.c **** 
 528:C:/Users/²Ü¼ÒºÀ/.iotlink/sdk/IoT_LINK/iot_link/network/lwm2m/wakaama_lwm2m/wakaama-master/core\observe.c ****                     LOG("Found an observation");
 529:C:/Users/²Ü¼ÒºÀ/.iotlink/sdk/IoT_LINK/iot_link/network/lwm2m/wakaama_lwm2m/wakaama-master/core\observe.c ****                     LOG_URI(&(targetP->uri));
 530:C:/Users/²Ü¼ÒºÀ/.iotlink/sdk/IoT_LINK/iot_link/network/lwm2m/wakaama_lwm2m/wakaama-master/core\observe.c **** 
 531:C:/Users/²Ü¼ÒºÀ/.iotlink/sdk/IoT_LINK/iot_link/network/lwm2m/wakaama_lwm2m/wakaama-master/core\observe.c ****                     for (watcherP = targetP->watcherList ; watcherP != NULL ; watcherP = watcherP->
 532:C:/Users/²Ü¼ÒºÀ/.iotlink/sdk/IoT_LINK/iot_link/network/lwm2m/wakaama_lwm2m/wakaama-master/core\observe.c ****                     {
 533:C:/Users/²Ü¼ÒºÀ/.iotlink/sdk/IoT_LINK/iot_link/network/lwm2m/wakaama_lwm2m/wakaama-master/core\observe.c ****                         if (watcherP->active == true)
 534:C:/Users/²Ü¼ÒºÀ/.iotlink/sdk/IoT_LINK/iot_link/network/lwm2m/wakaama_lwm2m/wakaama-master/core\observe.c ****                         {
 535:C:/Users/²Ü¼ÒºÀ/.iotlink/sdk/IoT_LINK/iot_link/network/lwm2m/wakaama_lwm2m/wakaama-master/core\observe.c ****                             LOG("Tagging a watcher");
 2853              		.loc 1 535 29 is_stmt 0 discriminator 21 view .LVU741
 2854 0042 DFF85882 		ldr	r8, .L309
 2855 0046 964E     		ldr	r6, .L309+4
 2856              	.L274:
 2857              		.loc 1 535 29 discriminator 21 view .LVU742
 2858              	.LBE32:
 514:C:/Users/²Ü¼ÒºÀ/.iotlink/sdk/IoT_LINK/iot_link/network/lwm2m/wakaama_lwm2m/wakaama-master/core\observe.c ****     while (targetP != NULL)
 2859              		.loc 1 514 11 is_stmt 1 view .LVU743
 2860 0048 002C     		cmp	r4, #0
 2861 004a 63D1     		bne	.L292
 536:C:/Users/²Ü¼ÒºÀ/.iotlink/sdk/IoT_LINK/iot_link/network/lwm2m/wakaama_lwm2m/wakaama-master/core\observe.c ****                             watcherP->update = true;
 537:C:/Users/²Ü¼ÒºÀ/.iotlink/sdk/IoT_LINK/iot_link/network/lwm2m/wakaama_lwm2m/wakaama-master/core\observe.c ****                         }
 538:C:/Users/²Ü¼ÒºÀ/.iotlink/sdk/IoT_LINK/iot_link/network/lwm2m/wakaama_lwm2m/wakaama-master/core\observe.c ****                     }
 539:C:/Users/²Ü¼ÒºÀ/.iotlink/sdk/IoT_LINK/iot_link/network/lwm2m/wakaama_lwm2m/wakaama-master/core\observe.c ****                 }
 540:C:/Users/²Ü¼ÒºÀ/.iotlink/sdk/IoT_LINK/iot_link/network/lwm2m/wakaama_lwm2m/wakaama-master/core\observe.c ****             }
 541:C:/Users/²Ü¼ÒºÀ/.iotlink/sdk/IoT_LINK/iot_link/network/lwm2m/wakaama_lwm2m/wakaama-master/core\observe.c ****         }
 542:C:/Users/²Ü¼ÒºÀ/.iotlink/sdk/IoT_LINK/iot_link/network/lwm2m/wakaama_lwm2m/wakaama-master/core\observe.c ****         targetP = targetP->next;
 543:C:/Users/²Ü¼ÒºÀ/.iotlink/sdk/IoT_LINK/iot_link/network/lwm2m/wakaama_lwm2m/wakaama-master/core\observe.c ****     }
 544:C:/Users/²Ü¼ÒºÀ/.iotlink/sdk/IoT_LINK/iot_link/network/lwm2m/wakaama_lwm2m/wakaama-master/core\observe.c **** 
 545:C:/Users/²Ü¼ÒºÀ/.iotlink/sdk/IoT_LINK/iot_link/network/lwm2m/wakaama_lwm2m/wakaama-master/core\observe.c **** }
 2862              		.loc 1 545 1 is_stmt 0 view .LVU744
 2863 004c 06B0     		add	sp, sp, #24
 2864              	.LCFI29:
 2865              		.cfi_remember_state
 2866              		.cfi_def_cfa_offset 32
 2867              		@ sp needed
 2868 004e BDE8F087 		pop	{r4, r5, r6, r7, r8, r9, r10, pc}
 2869              	.LVL293:
 2870              	.L263:
 2871              	.LCFI30:
 2872              		.cfi_restore_state
ARM GAS  C:\Users\²Ü¼ÒºÀ\AppData\Local\Temp\ccA6NNYh.s 			page 73


 512:C:/Users/²Ü¼ÒºÀ/.iotlink/sdk/IoT_LINK/iot_link/network/lwm2m/wakaama_lwm2m/wakaama-master/core\observe.c ****     targetP = contextP->observedList;
 2873              		.loc 1 512 5 is_stmt 1 discriminator 2 view .LVU745
 512:C:/Users/²Ü¼ÒºÀ/.iotlink/sdk/IoT_LINK/iot_link/network/lwm2m/wakaama_lwm2m/wakaama-master/core\observe.c ****     targetP = contextP->observedList;
 2874              		.loc 1 512 5 discriminator 2 view .LVU746
 2875 0052 FFF7FEFF 		bl	link_log_level_get
 2876              	.LVL294:
 512:C:/Users/²Ü¼ÒºÀ/.iotlink/sdk/IoT_LINK/iot_link/network/lwm2m/wakaama_lwm2m/wakaama-master/core\observe.c ****     targetP = contextP->observedList;
 2877              		.loc 1 512 5 is_stmt 0 discriminator 2 view .LVU747
 2878 0056 0128     		cmp	r0, #1
 2879 0058 17D8     		bhi	.L266
 512:C:/Users/²Ü¼ÒºÀ/.iotlink/sdk/IoT_LINK/iot_link/network/lwm2m/wakaama_lwm2m/wakaama-master/core\observe.c ****     targetP = contextP->observedList;
 2880              		.loc 1 512 5 is_stmt 1 discriminator 6 view .LVU748
 512:C:/Users/²Ü¼ÒºÀ/.iotlink/sdk/IoT_LINK/iot_link/network/lwm2m/wakaama_lwm2m/wakaama-master/core\observe.c ****     targetP = contextP->observedList;
 2881              		.loc 1 512 5 discriminator 6 view .LVU749
 512:C:/Users/²Ü¼ÒºÀ/.iotlink/sdk/IoT_LINK/iot_link/network/lwm2m/wakaama_lwm2m/wakaama-master/core\observe.c ****     targetP = contextP->observedList;
 2882              		.loc 1 512 5 discriminator 6 view .LVU750
 2883 005a 0120     		movs	r0, #1
 2884 005c FFF7FEFF 		bl	link_log_level_name
 2885              	.LVL295:
 2886 0060 0646     		mov	r6, r0
 2887 0062 FFF7FEFF 		bl	osal_sys_time
 2888              	.LVL296:
 2889 0066 6B88     		ldrh	r3, [r5, #2]
 2890 0068 0293     		str	r3, [sp, #8]
 2891 006a 4FF40073 		mov	r3, #512
 2892 006e 0193     		str	r3, [sp, #4]
 2893 0070 8A4B     		ldr	r3, .L309
 2894 0072 0093     		str	r3, [sp]
 2895 0074 0246     		mov	r2, r0
 2896 0076 8A4B     		ldr	r3, .L309+4
 2897 0078 8C48     		ldr	r0, .L309+16
 2898 007a 3146     		mov	r1, r6
 2899 007c FFF7FEFF 		bl	printf
 2900              	.LVL297:
 512:C:/Users/²Ü¼ÒºÀ/.iotlink/sdk/IoT_LINK/iot_link/network/lwm2m/wakaama_lwm2m/wakaama-master/core\observe.c ****     targetP = contextP->observedList;
 2901              		.loc 1 512 5 discriminator 6 view .LVU751
 2902 0080 894B     		ldr	r3, .L309+12
 2903 0082 1B68     		ldr	r3, [r3]
 2904 0084 9868     		ldr	r0, [r3, #8]
 2905 0086 FFF7FEFF 		bl	fflush
 2906              	.LVL298:
 2907              	.L266:
 512:C:/Users/²Ü¼ÒºÀ/.iotlink/sdk/IoT_LINK/iot_link/network/lwm2m/wakaama_lwm2m/wakaama-master/core\observe.c ****     targetP = contextP->observedList;
 2908              		.loc 1 512 5 discriminator 8 view .LVU752
 512:C:/Users/²Ü¼ÒºÀ/.iotlink/sdk/IoT_LINK/iot_link/network/lwm2m/wakaama_lwm2m/wakaama-master/core\observe.c ****     targetP = contextP->observedList;
 2909              		.loc 1 512 5 discriminator 8 view .LVU753
 512:C:/Users/²Ü¼ÒºÀ/.iotlink/sdk/IoT_LINK/iot_link/network/lwm2m/wakaama_lwm2m/wakaama-master/core\observe.c ****     targetP = contextP->observedList;
 2910              		.loc 1 512 5 discriminator 8 view .LVU754
 512:C:/Users/²Ü¼ÒºÀ/.iotlink/sdk/IoT_LINK/iot_link/network/lwm2m/wakaama_lwm2m/wakaama-master/core\observe.c ****     targetP = contextP->observedList;
 2911              		.loc 1 512 5 discriminator 8 view .LVU755
 2912 008a 2B78     		ldrb	r3, [r5]	@ zero_extendqisi2
 2913 008c 9807     		lsls	r0, r3, #30
 2914 008e 16D5     		bpl	.L268
 512:C:/Users/²Ü¼ÒºÀ/.iotlink/sdk/IoT_LINK/iot_link/network/lwm2m/wakaama_lwm2m/wakaama-master/core\observe.c ****     targetP = contextP->observedList;
 2915              		.loc 1 512 5 discriminator 9 view .LVU756
 512:C:/Users/²Ü¼ÒºÀ/.iotlink/sdk/IoT_LINK/iot_link/network/lwm2m/wakaama_lwm2m/wakaama-master/core\observe.c ****     targetP = contextP->observedList;
 2916              		.loc 1 512 5 discriminator 9 view .LVU757
ARM GAS  C:\Users\²Ü¼ÒºÀ\AppData\Local\Temp\ccA6NNYh.s 			page 74


 2917 0090 FFF7FEFF 		bl	link_log_level_get
 2918              	.LVL299:
 2919 0094 0128     		cmp	r0, #1
 2920 0096 12D8     		bhi	.L268
 512:C:/Users/²Ü¼ÒºÀ/.iotlink/sdk/IoT_LINK/iot_link/network/lwm2m/wakaama_lwm2m/wakaama-master/core\observe.c ****     targetP = contextP->observedList;
 2921              		.loc 1 512 5 discriminator 11 view .LVU758
 512:C:/Users/²Ü¼ÒºÀ/.iotlink/sdk/IoT_LINK/iot_link/network/lwm2m/wakaama_lwm2m/wakaama-master/core\observe.c ****     targetP = contextP->observedList;
 2922              		.loc 1 512 5 discriminator 11 view .LVU759
 512:C:/Users/²Ü¼ÒºÀ/.iotlink/sdk/IoT_LINK/iot_link/network/lwm2m/wakaama_lwm2m/wakaama-master/core\observe.c ****     targetP = contextP->observedList;
 2923              		.loc 1 512 5 discriminator 11 view .LVU760
 2924 0098 0120     		movs	r0, #1
 2925 009a FFF7FEFF 		bl	link_log_level_name
 2926              	.LVL300:
 2927 009e 0646     		mov	r6, r0
 2928 00a0 FFF7FEFF 		bl	osal_sys_time
 2929              	.LVL301:
 2930 00a4 AB88     		ldrh	r3, [r5, #4]
 2931 00a6 0093     		str	r3, [sp]
 2932 00a8 0246     		mov	r2, r0
 2933 00aa 7D4B     		ldr	r3, .L309+4
 2934 00ac 8048     		ldr	r0, .L309+20
 2935 00ae 3146     		mov	r1, r6
 2936 00b0 FFF7FEFF 		bl	printf
 2937              	.LVL302:
 512:C:/Users/²Ü¼ÒºÀ/.iotlink/sdk/IoT_LINK/iot_link/network/lwm2m/wakaama_lwm2m/wakaama-master/core\observe.c ****     targetP = contextP->observedList;
 2938              		.loc 1 512 5 discriminator 11 view .LVU761
 2939 00b4 7C4B     		ldr	r3, .L309+12
 2940 00b6 1B68     		ldr	r3, [r3]
 2941 00b8 9868     		ldr	r0, [r3, #8]
 2942 00ba FFF7FEFF 		bl	fflush
 2943              	.LVL303:
 2944              	.L268:
 512:C:/Users/²Ü¼ÒºÀ/.iotlink/sdk/IoT_LINK/iot_link/network/lwm2m/wakaama_lwm2m/wakaama-master/core\observe.c ****     targetP = contextP->observedList;
 2945              		.loc 1 512 5 discriminator 13 view .LVU762
 512:C:/Users/²Ü¼ÒºÀ/.iotlink/sdk/IoT_LINK/iot_link/network/lwm2m/wakaama_lwm2m/wakaama-master/core\observe.c ****     targetP = contextP->observedList;
 2946              		.loc 1 512 5 discriminator 13 view .LVU763
 512:C:/Users/²Ü¼ÒºÀ/.iotlink/sdk/IoT_LINK/iot_link/network/lwm2m/wakaama_lwm2m/wakaama-master/core\observe.c ****     targetP = contextP->observedList;
 2947              		.loc 1 512 5 discriminator 13 view .LVU764
 512:C:/Users/²Ü¼ÒºÀ/.iotlink/sdk/IoT_LINK/iot_link/network/lwm2m/wakaama_lwm2m/wakaama-master/core\observe.c ****     targetP = contextP->observedList;
 2948              		.loc 1 512 5 discriminator 13 view .LVU765
 2949 00be 2B78     		ldrb	r3, [r5]	@ zero_extendqisi2
 2950 00c0 D907     		lsls	r1, r3, #31
 2951 00c2 16D5     		bpl	.L271
 512:C:/Users/²Ü¼ÒºÀ/.iotlink/sdk/IoT_LINK/iot_link/network/lwm2m/wakaama_lwm2m/wakaama-master/core\observe.c ****     targetP = contextP->observedList;
 2952              		.loc 1 512 5 discriminator 14 view .LVU766
 512:C:/Users/²Ü¼ÒºÀ/.iotlink/sdk/IoT_LINK/iot_link/network/lwm2m/wakaama_lwm2m/wakaama-master/core\observe.c ****     targetP = contextP->observedList;
 2953              		.loc 1 512 5 discriminator 14 view .LVU767
 2954 00c4 FFF7FEFF 		bl	link_log_level_get
 2955              	.LVL304:
 2956 00c8 0128     		cmp	r0, #1
 2957 00ca 12D8     		bhi	.L271
 512:C:/Users/²Ü¼ÒºÀ/.iotlink/sdk/IoT_LINK/iot_link/network/lwm2m/wakaama_lwm2m/wakaama-master/core\observe.c ****     targetP = contextP->observedList;
 2958              		.loc 1 512 5 discriminator 16 view .LVU768
 512:C:/Users/²Ü¼ÒºÀ/.iotlink/sdk/IoT_LINK/iot_link/network/lwm2m/wakaama_lwm2m/wakaama-master/core\observe.c ****     targetP = contextP->observedList;
 2959              		.loc 1 512 5 discriminator 16 view .LVU769
 512:C:/Users/²Ü¼ÒºÀ/.iotlink/sdk/IoT_LINK/iot_link/network/lwm2m/wakaama_lwm2m/wakaama-master/core\observe.c ****     targetP = contextP->observedList;
 2960              		.loc 1 512 5 discriminator 16 view .LVU770
ARM GAS  C:\Users\²Ü¼ÒºÀ\AppData\Local\Temp\ccA6NNYh.s 			page 75


 2961 00cc 0120     		movs	r0, #1
 2962 00ce FFF7FEFF 		bl	link_log_level_name
 2963              	.LVL305:
 2964 00d2 0646     		mov	r6, r0
 2965 00d4 FFF7FEFF 		bl	osal_sys_time
 2966              	.LVL306:
 2967 00d8 EB88     		ldrh	r3, [r5, #6]
 2968 00da 0093     		str	r3, [sp]
 2969 00dc 0246     		mov	r2, r0
 2970 00de 704B     		ldr	r3, .L309+4
 2971 00e0 7348     		ldr	r0, .L309+20
 2972 00e2 3146     		mov	r1, r6
 2973 00e4 FFF7FEFF 		bl	printf
 2974              	.LVL307:
 512:C:/Users/²Ü¼ÒºÀ/.iotlink/sdk/IoT_LINK/iot_link/network/lwm2m/wakaama_lwm2m/wakaama-master/core\observe.c ****     targetP = contextP->observedList;
 2975              		.loc 1 512 5 discriminator 16 view .LVU771
 2976 00e8 6F4B     		ldr	r3, .L309+12
 2977 00ea 1B68     		ldr	r3, [r3]
 2978 00ec 9868     		ldr	r0, [r3, #8]
 2979 00ee FFF7FEFF 		bl	fflush
 2980              	.LVL308:
 2981              	.L271:
 512:C:/Users/²Ü¼ÒºÀ/.iotlink/sdk/IoT_LINK/iot_link/network/lwm2m/wakaama_lwm2m/wakaama-master/core\observe.c ****     targetP = contextP->observedList;
 2982              		.loc 1 512 5 discriminator 18 view .LVU772
 512:C:/Users/²Ü¼ÒºÀ/.iotlink/sdk/IoT_LINK/iot_link/network/lwm2m/wakaama_lwm2m/wakaama-master/core\observe.c ****     targetP = contextP->observedList;
 2983              		.loc 1 512 5 discriminator 18 view .LVU773
 512:C:/Users/²Ü¼ÒºÀ/.iotlink/sdk/IoT_LINK/iot_link/network/lwm2m/wakaama_lwm2m/wakaama-master/core\observe.c ****     targetP = contextP->observedList;
 2984              		.loc 1 512 5 discriminator 18 view .LVU774
 512:C:/Users/²Ü¼ÒºÀ/.iotlink/sdk/IoT_LINK/iot_link/network/lwm2m/wakaama_lwm2m/wakaama-master/core\observe.c ****     targetP = contextP->observedList;
 2985              		.loc 1 512 5 discriminator 18 view .LVU775
 512:C:/Users/²Ü¼ÒºÀ/.iotlink/sdk/IoT_LINK/iot_link/network/lwm2m/wakaama_lwm2m/wakaama-master/core\observe.c ****     targetP = contextP->observedList;
 2986              		.loc 1 512 5 discriminator 18 view .LVU776
 2987 00f2 FFF7FEFF 		bl	link_log_level_get
 2988              	.LVL309:
 2989 00f6 0128     		cmp	r0, #1
 2990 00f8 A2D8     		bhi	.L265
 512:C:/Users/²Ü¼ÒºÀ/.iotlink/sdk/IoT_LINK/iot_link/network/lwm2m/wakaama_lwm2m/wakaama-master/core\observe.c ****     targetP = contextP->observedList;
 2991              		.loc 1 512 5 discriminator 19 view .LVU777
 512:C:/Users/²Ü¼ÒºÀ/.iotlink/sdk/IoT_LINK/iot_link/network/lwm2m/wakaama_lwm2m/wakaama-master/core\observe.c ****     targetP = contextP->observedList;
 2992              		.loc 1 512 5 discriminator 19 view .LVU778
 512:C:/Users/²Ü¼ÒºÀ/.iotlink/sdk/IoT_LINK/iot_link/network/lwm2m/wakaama_lwm2m/wakaama-master/core\observe.c ****     targetP = contextP->observedList;
 2993              		.loc 1 512 5 discriminator 19 view .LVU779
 2994 00fa 0120     		movs	r0, #1
 2995 00fc FFF7FEFF 		bl	link_log_level_name
 2996              	.LVL310:
 2997 0100 0646     		mov	r6, r0
 2998 0102 FFF7FEFF 		bl	osal_sys_time
 2999              	.LVL311:
 3000 0106 664B     		ldr	r3, .L309+4
 3001 0108 0246     		mov	r2, r0
 3002 010a 3146     		mov	r1, r6
 3003 010c 6948     		ldr	r0, .L309+24
 3004 010e FFF7FEFF 		bl	printf
 3005              	.LVL312:
 3006 0112 90E7     		b	.L308
 3007              	.LVL313:
 3008              	.L292:
ARM GAS  C:\Users\²Ü¼ÒºÀ\AppData\Local\Temp\ccA6NNYh.s 			page 76


 516:C:/Users/²Ü¼ÒºÀ/.iotlink/sdk/IoT_LINK/iot_link/network/lwm2m/wakaama_lwm2m/wakaama-master/core\observe.c ****         {
 3009              		.loc 1 516 9 view .LVU780
 516:C:/Users/²Ü¼ÒºÀ/.iotlink/sdk/IoT_LINK/iot_link/network/lwm2m/wakaama_lwm2m/wakaama-master/core\observe.c ****         {
 3010              		.loc 1 516 12 is_stmt 0 view .LVU781
 3011 0114 E288     		ldrh	r2, [r4, #6]
 3012 0116 6B88     		ldrh	r3, [r5, #2]
 3013 0118 9A42     		cmp	r2, r3
 3014 011a 01D0     		beq	.L275
 3015              	.L277:
 542:C:/Users/²Ü¼ÒºÀ/.iotlink/sdk/IoT_LINK/iot_link/network/lwm2m/wakaama_lwm2m/wakaama-master/core\observe.c ****     }
 3016              		.loc 1 542 9 is_stmt 1 view .LVU782
 542:C:/Users/²Ü¼ÒºÀ/.iotlink/sdk/IoT_LINK/iot_link/network/lwm2m/wakaama_lwm2m/wakaama-master/core\observe.c ****     }
 3017              		.loc 1 542 17 is_stmt 0 view .LVU783
 3018 011c 2468     		ldr	r4, [r4]
 3019              	.LVL314:
 542:C:/Users/²Ü¼ÒºÀ/.iotlink/sdk/IoT_LINK/iot_link/network/lwm2m/wakaama_lwm2m/wakaama-master/core\observe.c ****     }
 3020              		.loc 1 542 17 view .LVU784
 3021 011e 93E7     		b	.L274
 3022              	.L275:
 518:C:/Users/²Ü¼ÒºÀ/.iotlink/sdk/IoT_LINK/iot_link/network/lwm2m/wakaama_lwm2m/wakaama-master/core\observe.c ****                     || (targetP->uri.flag & LWM2M_URI_FLAG_INSTANCE_ID) == 0
 3023              		.loc 1 518 13 is_stmt 1 view .LVU785
 518:C:/Users/²Ü¼ÒºÀ/.iotlink/sdk/IoT_LINK/iot_link/network/lwm2m/wakaama_lwm2m/wakaama-master/core\observe.c ****                     || (targetP->uri.flag & LWM2M_URI_FLAG_INSTANCE_ID) == 0
 3024              		.loc 1 518 18 is_stmt 0 view .LVU786
 3025 0120 2B78     		ldrb	r3, [r5]	@ zero_extendqisi2
 518:C:/Users/²Ü¼ÒºÀ/.iotlink/sdk/IoT_LINK/iot_link/network/lwm2m/wakaama_lwm2m/wakaama-master/core\observe.c ****                     || (targetP->uri.flag & LWM2M_URI_FLAG_INSTANCE_ID) == 0
 3026              		.loc 1 518 16 view .LVU787
 3027 0122 9A07     		lsls	r2, r3, #30
 3028 0124 06D5     		bpl	.L276
 519:C:/Users/²Ü¼ÒºÀ/.iotlink/sdk/IoT_LINK/iot_link/network/lwm2m/wakaama_lwm2m/wakaama-master/core\observe.c ****                     || uriP->instanceId == targetP->uri.instanceId)
 3029              		.loc 1 519 21 view .LVU788
 3030 0126 2279     		ldrb	r2, [r4, #4]	@ zero_extendqisi2
 3031 0128 9707     		lsls	r7, r2, #30
 3032 012a 03D5     		bpl	.L276
 520:C:/Users/²Ü¼ÒºÀ/.iotlink/sdk/IoT_LINK/iot_link/network/lwm2m/wakaama_lwm2m/wakaama-master/core\observe.c ****             {
 3033              		.loc 1 520 21 view .LVU789
 3034 012c A988     		ldrh	r1, [r5, #4]
 3035 012e 2289     		ldrh	r2, [r4, #8]
 3036 0130 9142     		cmp	r1, r2
 3037 0132 F3D1     		bne	.L277
 3038              	.L276:
 522:C:/Users/²Ü¼ÒºÀ/.iotlink/sdk/IoT_LINK/iot_link/network/lwm2m/wakaama_lwm2m/wakaama-master/core\observe.c ****                         || (targetP->uri.flag & LWM2M_URI_FLAG_RESOURCE_ID) == 0
 3039              		.loc 1 522 17 is_stmt 1 view .LVU790
 522:C:/Users/²Ü¼ÒºÀ/.iotlink/sdk/IoT_LINK/iot_link/network/lwm2m/wakaama_lwm2m/wakaama-master/core\observe.c ****                         || (targetP->uri.flag & LWM2M_URI_FLAG_RESOURCE_ID) == 0
 3040              		.loc 1 522 20 is_stmt 0 view .LVU791
 3041 0134 D807     		lsls	r0, r3, #31
 3042 0136 06D5     		bpl	.L278
 523:C:/Users/²Ü¼ÒºÀ/.iotlink/sdk/IoT_LINK/iot_link/network/lwm2m/wakaama_lwm2m/wakaama-master/core\observe.c ****                         || uriP->resourceId == targetP->uri.resourceId)
 3043              		.loc 1 523 25 view .LVU792
 3044 0138 2379     		ldrb	r3, [r4, #4]	@ zero_extendqisi2
 3045 013a D907     		lsls	r1, r3, #31
 3046 013c 03D5     		bpl	.L278
 524:C:/Users/²Ü¼ÒºÀ/.iotlink/sdk/IoT_LINK/iot_link/network/lwm2m/wakaama_lwm2m/wakaama-master/core\observe.c ****                 {
 3047              		.loc 1 524 25 view .LVU793
 3048 013e EA88     		ldrh	r2, [r5, #6]
 3049 0140 6389     		ldrh	r3, [r4, #10]
 3050 0142 9A42     		cmp	r2, r3
 3051 0144 EAD1     		bne	.L277
ARM GAS  C:\Users\²Ü¼ÒºÀ\AppData\Local\Temp\ccA6NNYh.s 			page 77


 3052              	.L278:
 3053              	.LBB33:
 526:C:/Users/²Ü¼ÒºÀ/.iotlink/sdk/IoT_LINK/iot_link/network/lwm2m/wakaama_lwm2m/wakaama-master/core\observe.c **** 
 3054              		.loc 1 526 21 is_stmt 1 view .LVU794
 528:C:/Users/²Ü¼ÒºÀ/.iotlink/sdk/IoT_LINK/iot_link/network/lwm2m/wakaama_lwm2m/wakaama-master/core\observe.c ****                     LOG_URI(&(targetP->uri));
 3055              		.loc 1 528 21 view .LVU795
 528:C:/Users/²Ü¼ÒºÀ/.iotlink/sdk/IoT_LINK/iot_link/network/lwm2m/wakaama_lwm2m/wakaama-master/core\observe.c ****                     LOG_URI(&(targetP->uri));
 3056              		.loc 1 528 21 view .LVU796
 3057 0146 FFF7FEFF 		bl	link_log_level_get
 3058              	.LVL315:
 3059 014a 0128     		cmp	r0, #1
 3060 014c 18D8     		bhi	.L279
 528:C:/Users/²Ü¼ÒºÀ/.iotlink/sdk/IoT_LINK/iot_link/network/lwm2m/wakaama_lwm2m/wakaama-master/core\observe.c ****                     LOG_URI(&(targetP->uri));
 3061              		.loc 1 528 21 discriminator 1 view .LVU797
 528:C:/Users/²Ü¼ÒºÀ/.iotlink/sdk/IoT_LINK/iot_link/network/lwm2m/wakaama_lwm2m/wakaama-master/core\observe.c ****                     LOG_URI(&(targetP->uri));
 3062              		.loc 1 528 21 discriminator 1 view .LVU798
 528:C:/Users/²Ü¼ÒºÀ/.iotlink/sdk/IoT_LINK/iot_link/network/lwm2m/wakaama_lwm2m/wakaama-master/core\observe.c ****                     LOG_URI(&(targetP->uri));
 3063              		.loc 1 528 21 discriminator 1 view .LVU799
 3064 014e 0120     		movs	r0, #1
 3065 0150 FFF7FEFF 		bl	link_log_level_name
 3066              	.LVL316:
 3067 0154 0746     		mov	r7, r0
 3068 0156 FFF7FEFF 		bl	osal_sys_time
 3069              	.LVL317:
 3070 015a 0590     		str	r0, [sp, #20]
 3071 015c FFF7FEFF 		bl	lwm2m_gettime
 3072              	.LVL318:
 3073 0160 4FF40473 		mov	r3, #528
 3074 0164 CDE90183 		strd	r8, r3, [sp, #4]
 3075 0168 0090     		str	r0, [sp]
 3076 016a 3346     		mov	r3, r6
 3077 016c 059A     		ldr	r2, [sp, #20]
 3078 016e 5248     		ldr	r0, .L309+28
 3079 0170 3946     		mov	r1, r7
 3080 0172 FFF7FEFF 		bl	printf
 3081              	.LVL319:
 528:C:/Users/²Ü¼ÒºÀ/.iotlink/sdk/IoT_LINK/iot_link/network/lwm2m/wakaama_lwm2m/wakaama-master/core\observe.c ****                     LOG_URI(&(targetP->uri));
 3082              		.loc 1 528 21 discriminator 1 view .LVU800
 3083 0176 4C4B     		ldr	r3, .L309+12
 3084 0178 1B68     		ldr	r3, [r3]
 3085 017a 9868     		ldr	r0, [r3, #8]
 3086 017c FFF7FEFF 		bl	fflush
 3087              	.LVL320:
 3088              	.L279:
 528:C:/Users/²Ü¼ÒºÀ/.iotlink/sdk/IoT_LINK/iot_link/network/lwm2m/wakaama_lwm2m/wakaama-master/core\observe.c ****                     LOG_URI(&(targetP->uri));
 3089              		.loc 1 528 21 discriminator 3 view .LVU801
 528:C:/Users/²Ü¼ÒºÀ/.iotlink/sdk/IoT_LINK/iot_link/network/lwm2m/wakaama_lwm2m/wakaama-master/core\observe.c ****                     LOG_URI(&(targetP->uri));
 3090              		.loc 1 528 21 discriminator 3 view .LVU802
 528:C:/Users/²Ü¼ÒºÀ/.iotlink/sdk/IoT_LINK/iot_link/network/lwm2m/wakaama_lwm2m/wakaama-master/core\observe.c ****                     LOG_URI(&(targetP->uri));
 3091              		.loc 1 528 21 discriminator 3 view .LVU803
 529:C:/Users/²Ü¼ÒºÀ/.iotlink/sdk/IoT_LINK/iot_link/network/lwm2m/wakaama_lwm2m/wakaama-master/core\observe.c **** 
 3092              		.loc 1 529 21 discriminator 3 view .LVU804
 529:C:/Users/²Ü¼ÒºÀ/.iotlink/sdk/IoT_LINK/iot_link/network/lwm2m/wakaama_lwm2m/wakaama-master/core\observe.c **** 
 3093              		.loc 1 529 21 discriminator 3 view .LVU805
 529:C:/Users/²Ü¼ÒºÀ/.iotlink/sdk/IoT_LINK/iot_link/network/lwm2m/wakaama_lwm2m/wakaama-master/core\observe.c **** 
 3094              		.loc 1 529 21 discriminator 3 view .LVU806
 3095 0180 FFF7FEFF 		bl	link_log_level_get
ARM GAS  C:\Users\²Ü¼ÒºÀ\AppData\Local\Temp\ccA6NNYh.s 			page 78


 3096              	.LVL321:
 3097 0184 0128     		cmp	r0, #1
 3098 0186 16D8     		bhi	.L280
 529:C:/Users/²Ü¼ÒºÀ/.iotlink/sdk/IoT_LINK/iot_link/network/lwm2m/wakaama_lwm2m/wakaama-master/core\observe.c **** 
 3099              		.loc 1 529 21 discriminator 6 view .LVU807
 529:C:/Users/²Ü¼ÒºÀ/.iotlink/sdk/IoT_LINK/iot_link/network/lwm2m/wakaama_lwm2m/wakaama-master/core\observe.c **** 
 3100              		.loc 1 529 21 discriminator 6 view .LVU808
 529:C:/Users/²Ü¼ÒºÀ/.iotlink/sdk/IoT_LINK/iot_link/network/lwm2m/wakaama_lwm2m/wakaama-master/core\observe.c **** 
 3101              		.loc 1 529 21 discriminator 6 view .LVU809
 3102 0188 0120     		movs	r0, #1
 3103 018a FFF7FEFF 		bl	link_log_level_name
 3104              	.LVL322:
 3105 018e 0746     		mov	r7, r0
 3106 0190 FFF7FEFF 		bl	osal_sys_time
 3107              	.LVL323:
 3108 0194 E388     		ldrh	r3, [r4, #6]
 3109 0196 0293     		str	r3, [sp, #8]
 3110 0198 40F21123 		movw	r3, #529
 3111 019c CDE90083 		strd	r8, r3, [sp]
 3112 01a0 0246     		mov	r2, r0
 3113 01a2 3346     		mov	r3, r6
 3114 01a4 4148     		ldr	r0, .L309+16
 3115 01a6 3946     		mov	r1, r7
 3116 01a8 FFF7FEFF 		bl	printf
 3117              	.LVL324:
 529:C:/Users/²Ü¼ÒºÀ/.iotlink/sdk/IoT_LINK/iot_link/network/lwm2m/wakaama_lwm2m/wakaama-master/core\observe.c **** 
 3118              		.loc 1 529 21 discriminator 6 view .LVU810
 3119 01ac 3E4B     		ldr	r3, .L309+12
 3120 01ae 1B68     		ldr	r3, [r3]
 3121 01b0 9868     		ldr	r0, [r3, #8]
 3122 01b2 FFF7FEFF 		bl	fflush
 3123              	.LVL325:
 3124              	.L280:
 529:C:/Users/²Ü¼ÒºÀ/.iotlink/sdk/IoT_LINK/iot_link/network/lwm2m/wakaama_lwm2m/wakaama-master/core\observe.c **** 
 3125              		.loc 1 529 21 discriminator 8 view .LVU811
 529:C:/Users/²Ü¼ÒºÀ/.iotlink/sdk/IoT_LINK/iot_link/network/lwm2m/wakaama_lwm2m/wakaama-master/core\observe.c **** 
 3126              		.loc 1 529 21 discriminator 8 view .LVU812
 529:C:/Users/²Ü¼ÒºÀ/.iotlink/sdk/IoT_LINK/iot_link/network/lwm2m/wakaama_lwm2m/wakaama-master/core\observe.c **** 
 3127              		.loc 1 529 21 discriminator 8 view .LVU813
 529:C:/Users/²Ü¼ÒºÀ/.iotlink/sdk/IoT_LINK/iot_link/network/lwm2m/wakaama_lwm2m/wakaama-master/core\observe.c **** 
 3128              		.loc 1 529 21 discriminator 8 view .LVU814
 3129 01b6 2379     		ldrb	r3, [r4, #4]	@ zero_extendqisi2
 3130 01b8 9A07     		lsls	r2, r3, #30
 3131 01ba 16D5     		bpl	.L282
 529:C:/Users/²Ü¼ÒºÀ/.iotlink/sdk/IoT_LINK/iot_link/network/lwm2m/wakaama_lwm2m/wakaama-master/core\observe.c **** 
 3132              		.loc 1 529 21 discriminator 9 view .LVU815
 529:C:/Users/²Ü¼ÒºÀ/.iotlink/sdk/IoT_LINK/iot_link/network/lwm2m/wakaama_lwm2m/wakaama-master/core\observe.c **** 
 3133              		.loc 1 529 21 discriminator 9 view .LVU816
 3134 01bc FFF7FEFF 		bl	link_log_level_get
 3135              	.LVL326:
 3136 01c0 0128     		cmp	r0, #1
 3137 01c2 12D8     		bhi	.L282
 529:C:/Users/²Ü¼ÒºÀ/.iotlink/sdk/IoT_LINK/iot_link/network/lwm2m/wakaama_lwm2m/wakaama-master/core\observe.c **** 
 3138              		.loc 1 529 21 discriminator 11 view .LVU817
 529:C:/Users/²Ü¼ÒºÀ/.iotlink/sdk/IoT_LINK/iot_link/network/lwm2m/wakaama_lwm2m/wakaama-master/core\observe.c **** 
 3139              		.loc 1 529 21 discriminator 11 view .LVU818
 529:C:/Users/²Ü¼ÒºÀ/.iotlink/sdk/IoT_LINK/iot_link/network/lwm2m/wakaama_lwm2m/wakaama-master/core\observe.c **** 
ARM GAS  C:\Users\²Ü¼ÒºÀ\AppData\Local\Temp\ccA6NNYh.s 			page 79


 3140              		.loc 1 529 21 discriminator 11 view .LVU819
 3141 01c4 0120     		movs	r0, #1
 3142 01c6 FFF7FEFF 		bl	link_log_level_name
 3143              	.LVL327:
 3144 01ca 0746     		mov	r7, r0
 3145 01cc FFF7FEFF 		bl	osal_sys_time
 3146              	.LVL328:
 3147 01d0 2389     		ldrh	r3, [r4, #8]
 3148 01d2 0093     		str	r3, [sp]
 3149 01d4 0246     		mov	r2, r0
 3150 01d6 3346     		mov	r3, r6
 3151 01d8 3548     		ldr	r0, .L309+20
 3152 01da 3946     		mov	r1, r7
 3153 01dc FFF7FEFF 		bl	printf
 3154              	.LVL329:
 529:C:/Users/²Ü¼ÒºÀ/.iotlink/sdk/IoT_LINK/iot_link/network/lwm2m/wakaama_lwm2m/wakaama-master/core\observe.c **** 
 3155              		.loc 1 529 21 discriminator 11 view .LVU820
 3156 01e0 314B     		ldr	r3, .L309+12
 3157 01e2 1B68     		ldr	r3, [r3]
 3158 01e4 9868     		ldr	r0, [r3, #8]
 3159 01e6 FFF7FEFF 		bl	fflush
 3160              	.LVL330:
 3161              	.L282:
 529:C:/Users/²Ü¼ÒºÀ/.iotlink/sdk/IoT_LINK/iot_link/network/lwm2m/wakaama_lwm2m/wakaama-master/core\observe.c **** 
 3162              		.loc 1 529 21 discriminator 13 view .LVU821
 529:C:/Users/²Ü¼ÒºÀ/.iotlink/sdk/IoT_LINK/iot_link/network/lwm2m/wakaama_lwm2m/wakaama-master/core\observe.c **** 
 3163              		.loc 1 529 21 discriminator 13 view .LVU822
 529:C:/Users/²Ü¼ÒºÀ/.iotlink/sdk/IoT_LINK/iot_link/network/lwm2m/wakaama_lwm2m/wakaama-master/core\observe.c **** 
 3164              		.loc 1 529 21 discriminator 13 view .LVU823
 529:C:/Users/²Ü¼ÒºÀ/.iotlink/sdk/IoT_LINK/iot_link/network/lwm2m/wakaama_lwm2m/wakaama-master/core\observe.c **** 
 3165              		.loc 1 529 21 discriminator 13 view .LVU824
 3166 01ea 2379     		ldrb	r3, [r4, #4]	@ zero_extendqisi2
 3167 01ec DB07     		lsls	r3, r3, #31
 3168 01ee 16D5     		bpl	.L285
 529:C:/Users/²Ü¼ÒºÀ/.iotlink/sdk/IoT_LINK/iot_link/network/lwm2m/wakaama_lwm2m/wakaama-master/core\observe.c **** 
 3169              		.loc 1 529 21 discriminator 14 view .LVU825
 529:C:/Users/²Ü¼ÒºÀ/.iotlink/sdk/IoT_LINK/iot_link/network/lwm2m/wakaama_lwm2m/wakaama-master/core\observe.c **** 
 3170              		.loc 1 529 21 discriminator 14 view .LVU826
 3171 01f0 FFF7FEFF 		bl	link_log_level_get
 3172              	.LVL331:
 3173 01f4 0128     		cmp	r0, #1
 3174 01f6 12D8     		bhi	.L285
 529:C:/Users/²Ü¼ÒºÀ/.iotlink/sdk/IoT_LINK/iot_link/network/lwm2m/wakaama_lwm2m/wakaama-master/core\observe.c **** 
 3175              		.loc 1 529 21 discriminator 16 view .LVU827
 529:C:/Users/²Ü¼ÒºÀ/.iotlink/sdk/IoT_LINK/iot_link/network/lwm2m/wakaama_lwm2m/wakaama-master/core\observe.c **** 
 3176              		.loc 1 529 21 discriminator 16 view .LVU828
 529:C:/Users/²Ü¼ÒºÀ/.iotlink/sdk/IoT_LINK/iot_link/network/lwm2m/wakaama_lwm2m/wakaama-master/core\observe.c **** 
 3177              		.loc 1 529 21 discriminator 16 view .LVU829
 3178 01f8 0120     		movs	r0, #1
 3179 01fa FFF7FEFF 		bl	link_log_level_name
 3180              	.LVL332:
 3181 01fe 0746     		mov	r7, r0
 3182 0200 FFF7FEFF 		bl	osal_sys_time
 3183              	.LVL333:
 3184 0204 6389     		ldrh	r3, [r4, #10]
 3185 0206 0093     		str	r3, [sp]
 3186 0208 0246     		mov	r2, r0
ARM GAS  C:\Users\²Ü¼ÒºÀ\AppData\Local\Temp\ccA6NNYh.s 			page 80


 3187 020a 3346     		mov	r3, r6
 3188 020c 2848     		ldr	r0, .L309+20
 3189 020e 3946     		mov	r1, r7
 3190 0210 FFF7FEFF 		bl	printf
 3191              	.LVL334:
 529:C:/Users/²Ü¼ÒºÀ/.iotlink/sdk/IoT_LINK/iot_link/network/lwm2m/wakaama_lwm2m/wakaama-master/core\observe.c **** 
 3192              		.loc 1 529 21 discriminator 16 view .LVU830
 3193 0214 244B     		ldr	r3, .L309+12
 3194 0216 1B68     		ldr	r3, [r3]
 3195 0218 9868     		ldr	r0, [r3, #8]
 3196 021a FFF7FEFF 		bl	fflush
 3197              	.LVL335:
 3198              	.L285:
 529:C:/Users/²Ü¼ÒºÀ/.iotlink/sdk/IoT_LINK/iot_link/network/lwm2m/wakaama_lwm2m/wakaama-master/core\observe.c **** 
 3199              		.loc 1 529 21 discriminator 18 view .LVU831
 529:C:/Users/²Ü¼ÒºÀ/.iotlink/sdk/IoT_LINK/iot_link/network/lwm2m/wakaama_lwm2m/wakaama-master/core\observe.c **** 
 3200              		.loc 1 529 21 discriminator 18 view .LVU832
 529:C:/Users/²Ü¼ÒºÀ/.iotlink/sdk/IoT_LINK/iot_link/network/lwm2m/wakaama_lwm2m/wakaama-master/core\observe.c **** 
 3201              		.loc 1 529 21 discriminator 18 view .LVU833
 529:C:/Users/²Ü¼ÒºÀ/.iotlink/sdk/IoT_LINK/iot_link/network/lwm2m/wakaama_lwm2m/wakaama-master/core\observe.c **** 
 3202              		.loc 1 529 21 discriminator 18 view .LVU834
 529:C:/Users/²Ü¼ÒºÀ/.iotlink/sdk/IoT_LINK/iot_link/network/lwm2m/wakaama_lwm2m/wakaama-master/core\observe.c **** 
 3203              		.loc 1 529 21 discriminator 18 view .LVU835
 3204 021e FFF7FEFF 		bl	link_log_level_get
 3205              	.LVL336:
 3206 0222 0128     		cmp	r0, #1
 3207 0224 10D8     		bhi	.L287
 529:C:/Users/²Ü¼ÒºÀ/.iotlink/sdk/IoT_LINK/iot_link/network/lwm2m/wakaama_lwm2m/wakaama-master/core\observe.c **** 
 3208              		.loc 1 529 21 discriminator 19 view .LVU836
 529:C:/Users/²Ü¼ÒºÀ/.iotlink/sdk/IoT_LINK/iot_link/network/lwm2m/wakaama_lwm2m/wakaama-master/core\observe.c **** 
 3209              		.loc 1 529 21 discriminator 19 view .LVU837
 529:C:/Users/²Ü¼ÒºÀ/.iotlink/sdk/IoT_LINK/iot_link/network/lwm2m/wakaama_lwm2m/wakaama-master/core\observe.c **** 
 3210              		.loc 1 529 21 discriminator 19 view .LVU838
 3211 0226 0120     		movs	r0, #1
 3212 0228 FFF7FEFF 		bl	link_log_level_name
 3213              	.LVL337:
 3214 022c 0746     		mov	r7, r0
 3215 022e FFF7FEFF 		bl	osal_sys_time
 3216              	.LVL338:
 3217 0232 3346     		mov	r3, r6
 3218 0234 0246     		mov	r2, r0
 3219 0236 3946     		mov	r1, r7
 3220 0238 1E48     		ldr	r0, .L309+24
 3221 023a FFF7FEFF 		bl	printf
 3222              	.LVL339:
 529:C:/Users/²Ü¼ÒºÀ/.iotlink/sdk/IoT_LINK/iot_link/network/lwm2m/wakaama_lwm2m/wakaama-master/core\observe.c **** 
 3223              		.loc 1 529 21 discriminator 19 view .LVU839
 3224 023e 1A4B     		ldr	r3, .L309+12
 3225 0240 1B68     		ldr	r3, [r3]
 3226 0242 9868     		ldr	r0, [r3, #8]
 3227 0244 FFF7FEFF 		bl	fflush
 3228              	.LVL340:
 3229              	.L287:
 529:C:/Users/²Ü¼ÒºÀ/.iotlink/sdk/IoT_LINK/iot_link/network/lwm2m/wakaama_lwm2m/wakaama-master/core\observe.c **** 
 3230              		.loc 1 529 21 discriminator 21 view .LVU840
 529:C:/Users/²Ü¼ÒºÀ/.iotlink/sdk/IoT_LINK/iot_link/network/lwm2m/wakaama_lwm2m/wakaama-master/core\observe.c **** 
 3231              		.loc 1 529 21 discriminator 21 view .LVU841
ARM GAS  C:\Users\²Ü¼ÒºÀ\AppData\Local\Temp\ccA6NNYh.s 			page 81


 529:C:/Users/²Ü¼ÒºÀ/.iotlink/sdk/IoT_LINK/iot_link/network/lwm2m/wakaama_lwm2m/wakaama-master/core\observe.c **** 
 3232              		.loc 1 529 21 discriminator 21 view .LVU842
 529:C:/Users/²Ü¼ÒºÀ/.iotlink/sdk/IoT_LINK/iot_link/network/lwm2m/wakaama_lwm2m/wakaama-master/core\observe.c **** 
 3233              		.loc 1 529 45 discriminator 21 view .LVU843
 531:C:/Users/²Ü¼ÒºÀ/.iotlink/sdk/IoT_LINK/iot_link/network/lwm2m/wakaama_lwm2m/wakaama-master/core\observe.c ****                     {
 3234              		.loc 1 531 21 discriminator 21 view .LVU844
 531:C:/Users/²Ü¼ÒºÀ/.iotlink/sdk/IoT_LINK/iot_link/network/lwm2m/wakaama_lwm2m/wakaama-master/core\observe.c ****                     {
 3235              		.loc 1 531 35 is_stmt 0 discriminator 21 view .LVU845
 3236 0248 E768     		ldr	r7, [r4, #12]
 3237              	.LVL341:
 535:C:/Users/²Ü¼ÒºÀ/.iotlink/sdk/IoT_LINK/iot_link/network/lwm2m/wakaama_lwm2m/wakaama-master/core\observe.c ****                             watcherP->update = true;
 3238              		.loc 1 535 29 discriminator 21 view .LVU846
 3239 024a DFF870A0 		ldr	r10, .L309+32
 3240              	.L288:
 531:C:/Users/²Ü¼ÒºÀ/.iotlink/sdk/IoT_LINK/iot_link/network/lwm2m/wakaama_lwm2m/wakaama-master/core\observe.c ****                     {
 3241              		.loc 1 531 60 is_stmt 1 discriminator 1 view .LVU847
 531:C:/Users/²Ü¼ÒºÀ/.iotlink/sdk/IoT_LINK/iot_link/network/lwm2m/wakaama_lwm2m/wakaama-master/core\observe.c ****                     {
 3242              		.loc 1 531 21 is_stmt 0 discriminator 1 view .LVU848
 3243 024e 002F     		cmp	r7, #0
 3244 0250 3FF464AF 		beq	.L277
 533:C:/Users/²Ü¼ÒºÀ/.iotlink/sdk/IoT_LINK/iot_link/network/lwm2m/wakaama_lwm2m/wakaama-master/core\observe.c ****                         {
 3245              		.loc 1 533 25 is_stmt 1 view .LVU849
 533:C:/Users/²Ü¼ÒºÀ/.iotlink/sdk/IoT_LINK/iot_link/network/lwm2m/wakaama_lwm2m/wakaama-master/core\observe.c ****                         {
 3246              		.loc 1 533 28 is_stmt 0 view .LVU850
 3247 0254 3B79     		ldrb	r3, [r7, #4]	@ zero_extendqisi2
 3248 0256 F3B1     		cbz	r3, .L289
 535:C:/Users/²Ü¼ÒºÀ/.iotlink/sdk/IoT_LINK/iot_link/network/lwm2m/wakaama_lwm2m/wakaama-master/core\observe.c ****                             watcherP->update = true;
 3249              		.loc 1 535 29 is_stmt 1 view .LVU851
 535:C:/Users/²Ü¼ÒºÀ/.iotlink/sdk/IoT_LINK/iot_link/network/lwm2m/wakaama_lwm2m/wakaama-master/core\observe.c ****                             watcherP->update = true;
 3250              		.loc 1 535 29 view .LVU852
 3251 0258 FFF7FEFF 		bl	link_log_level_get
 3252              	.LVL342:
 3253 025c 0128     		cmp	r0, #1
 3254 025e 18D8     		bhi	.L290
 535:C:/Users/²Ü¼ÒºÀ/.iotlink/sdk/IoT_LINK/iot_link/network/lwm2m/wakaama_lwm2m/wakaama-master/core\observe.c ****                             watcherP->update = true;
 3255              		.loc 1 535 29 discriminator 1 view .LVU853
 535:C:/Users/²Ü¼ÒºÀ/.iotlink/sdk/IoT_LINK/iot_link/network/lwm2m/wakaama_lwm2m/wakaama-master/core\observe.c ****                             watcherP->update = true;
 3256              		.loc 1 535 29 discriminator 1 view .LVU854
 535:C:/Users/²Ü¼ÒºÀ/.iotlink/sdk/IoT_LINK/iot_link/network/lwm2m/wakaama_lwm2m/wakaama-master/core\observe.c ****                             watcherP->update = true;
 3257              		.loc 1 535 29 discriminator 1 view .LVU855
 3258 0260 0120     		movs	r0, #1
 3259 0262 FFF7FEFF 		bl	link_log_level_name
 3260              	.LVL343:
 3261 0266 8146     		mov	r9, r0
 3262 0268 FFF7FEFF 		bl	osal_sys_time
 3263              	.LVL344:
 3264 026c 0590     		str	r0, [sp, #20]
 3265 026e FFF7FEFF 		bl	lwm2m_gettime
 3266              	.LVL345:
 3267 0272 40F21723 		movw	r3, #535
 3268 0276 CDE90183 		strd	r8, r3, [sp, #4]
 3269 027a 0090     		str	r0, [sp]
 3270 027c 3346     		mov	r3, r6
 3271 027e 059A     		ldr	r2, [sp, #20]
 3272 0280 4946     		mov	r1, r9
 3273 0282 5046     		mov	r0, r10
 3274 0284 FFF7FEFF 		bl	printf
ARM GAS  C:\Users\²Ü¼ÒºÀ\AppData\Local\Temp\ccA6NNYh.s 			page 82


 3275              	.LVL346:
 535:C:/Users/²Ü¼ÒºÀ/.iotlink/sdk/IoT_LINK/iot_link/network/lwm2m/wakaama_lwm2m/wakaama-master/core\observe.c ****                             watcherP->update = true;
 3276              		.loc 1 535 29 discriminator 1 view .LVU856
 3277 0288 074B     		ldr	r3, .L309+12
 3278 028a 1B68     		ldr	r3, [r3]
 3279 028c 9868     		ldr	r0, [r3, #8]
 3280 028e FFF7FEFF 		bl	fflush
 3281              	.LVL347:
 3282              	.L290:
 535:C:/Users/²Ü¼ÒºÀ/.iotlink/sdk/IoT_LINK/iot_link/network/lwm2m/wakaama_lwm2m/wakaama-master/core\observe.c ****                             watcherP->update = true;
 3283              		.loc 1 535 29 discriminator 3 view .LVU857
 535:C:/Users/²Ü¼ÒºÀ/.iotlink/sdk/IoT_LINK/iot_link/network/lwm2m/wakaama_lwm2m/wakaama-master/core\observe.c ****                             watcherP->update = true;
 3284              		.loc 1 535 29 discriminator 3 view .LVU858
 535:C:/Users/²Ü¼ÒºÀ/.iotlink/sdk/IoT_LINK/iot_link/network/lwm2m/wakaama_lwm2m/wakaama-master/core\observe.c ****                             watcherP->update = true;
 3285              		.loc 1 535 29 discriminator 3 view .LVU859
 536:C:/Users/²Ü¼ÒºÀ/.iotlink/sdk/IoT_LINK/iot_link/network/lwm2m/wakaama_lwm2m/wakaama-master/core\observe.c ****                         }
 3286              		.loc 1 536 29 discriminator 3 view .LVU860
 536:C:/Users/²Ü¼ÒºÀ/.iotlink/sdk/IoT_LINK/iot_link/network/lwm2m/wakaama_lwm2m/wakaama-master/core\observe.c ****                         }
 3287              		.loc 1 536 46 is_stmt 0 discriminator 3 view .LVU861
 3288 0292 0123     		movs	r3, #1
 3289 0294 7B71     		strb	r3, [r7, #5]
 3290              	.L289:
 531:C:/Users/²Ü¼ÒºÀ/.iotlink/sdk/IoT_LINK/iot_link/network/lwm2m/wakaama_lwm2m/wakaama-master/core\observe.c ****                     {
 3291              		.loc 1 531 79 is_stmt 1 discriminator 2 view .LVU862
 531:C:/Users/²Ü¼ÒºÀ/.iotlink/sdk/IoT_LINK/iot_link/network/lwm2m/wakaama_lwm2m/wakaama-master/core\observe.c ****                     {
 3292              		.loc 1 531 88 is_stmt 0 discriminator 2 view .LVU863
 3293 0296 3F68     		ldr	r7, [r7]
 3294              	.LVL348:
 531:C:/Users/²Ü¼ÒºÀ/.iotlink/sdk/IoT_LINK/iot_link/network/lwm2m/wakaama_lwm2m/wakaama-master/core\observe.c ****                     {
 3295              		.loc 1 531 88 discriminator 2 view .LVU864
 3296 0298 D9E7     		b	.L288
 3297              	.L310:
 3298 029a 00BF     		.align	2
 3299              	.L309:
 3300 029c 00000000 		.word	.LANCHOR12
 3301 02a0 00000000 		.word	.LANCHOR11
 3302 02a4 68010000 		.word	.LC18
 3303 02a8 00000000 		.word	_impure_ptr
 3304 02ac 86010000 		.word	.LC19
 3305 02b0 A1010000 		.word	.LC20
 3306 02b4 B4010000 		.word	.LC21
 3307 02b8 00000000 		.word	.LC28
 3308 02bc 32000000 		.word	.LC29
 3309              	.LBE33:
 3310              		.cfi_endproc
 3311              	.LFE14:
 3313              		.section	.rodata.observe_send_transaction.str1.1,"aMS",%progbits,1
 3314              	.LC30:
 3315 0000 5B25735D 		.ascii	"[%s][%u][%s] [%d][%s:%d] transaction_new null\015\012"
 3315      5B25755D 
 3315      5B25735D 
 3315      205B2564 
 3315      5D5B2573 
 3316 002f 0D0A00   		.ascii	"\015\012\000"
 3317              	.LC31:
 3318 0032 5B25735D 		.ascii	"[%s][%u][%s] [%d][%s:%d] notify con msg, cookie:%d "
 3318      5B25755D 
ARM GAS  C:\Users\²Ü¼ÒºÀ\AppData\Local\Temp\ccA6NNYh.s 			page 83


 3318      5B25735D 
 3318      205B2564 
 3318      5D5B2573 
 3319 0065 74797065 		.ascii	"type:%d,ret:%d\015\012\015\012\000"
 3319      3A25642C 
 3319      7265743A 
 3319      25640D0A 
 3319      0D0A00
 3320              		.section	.text.observe_send_transaction,"ax",%progbits
 3321              		.align	1
 3322              		.global	observe_send_transaction
 3323              		.syntax unified
 3324              		.thumb
 3325              		.thumb_func
 3326              		.fpu fpv4-sp-d16
 3328              	observe_send_transaction:
 3329              	.LVL349:
 3330              	.LFB15:
 546:C:/Users/²Ü¼ÒºÀ/.iotlink/sdk/IoT_LINK/iot_link/network/lwm2m/wakaama_lwm2m/wakaama-master/core\observe.c **** 
 547:C:/Users/²Ü¼ÒºÀ/.iotlink/sdk/IoT_LINK/iot_link/network/lwm2m/wakaama_lwm2m/wakaama-master/core\observe.c **** int observe_send_transaction(lwm2m_context_t *contextP, lwm2m_data_cfg_t  *cfg, lwm2m_watcher_t *wa
 548:C:/Users/²Ü¼ÒºÀ/.iotlink/sdk/IoT_LINK/iot_link/network/lwm2m/wakaama_lwm2m/wakaama-master/core\observe.c ****                              uint8_t *buffer, size_t length)
 549:C:/Users/²Ü¼ÒºÀ/.iotlink/sdk/IoT_LINK/iot_link/network/lwm2m/wakaama_lwm2m/wakaama-master/core\observe.c **** {
 3331              		.loc 1 549 1 is_stmt 1 view -0
 3332              		.cfi_startproc
 3333              		@ args = 4, pretend = 0, frame = 8
 3334              		@ frame_needed = 0, uses_anonymous_args = 0
 550:C:/Users/²Ü¼ÒºÀ/.iotlink/sdk/IoT_LINK/iot_link/network/lwm2m/wakaama_lwm2m/wakaama-master/core\observe.c ****     lwm2m_transaction_t *transaction;
 3335              		.loc 1 550 5 view .LVU866
 551:C:/Users/²Ü¼ÒºÀ/.iotlink/sdk/IoT_LINK/iot_link/network/lwm2m/wakaama_lwm2m/wakaama-master/core\observe.c ****     int ret;
 3336              		.loc 1 551 5 view .LVU867
 552:C:/Users/²Ü¼ÒºÀ/.iotlink/sdk/IoT_LINK/iot_link/network/lwm2m/wakaama_lwm2m/wakaama-master/core\observe.c **** 
 553:C:/Users/²Ü¼ÒºÀ/.iotlink/sdk/IoT_LINK/iot_link/network/lwm2m/wakaama_lwm2m/wakaama-master/core\observe.c ****     transaction = transaction_new(watcherP->server->sessionH, COAP_205_CONTENT, NULL, NULL, watcher
 3337              		.loc 1 553 5 view .LVU868
 549:C:/Users/²Ü¼ÒºÀ/.iotlink/sdk/IoT_LINK/iot_link/network/lwm2m/wakaama_lwm2m/wakaama-master/core\observe.c ****     lwm2m_transaction_t *transaction;
 3338              		.loc 1 549 1 is_stmt 0 view .LVU869
 3339 0000 2DE9F041 		push	{r4, r5, r6, r7, r8, lr}
 3340              	.LCFI31:
 3341              		.cfi_def_cfa_offset 24
 3342              		.cfi_offset 4, -24
 3343              		.cfi_offset 5, -20
 3344              		.cfi_offset 6, -16
 3345              		.cfi_offset 7, -12
 3346              		.cfi_offset 8, -8
 3347              		.cfi_offset 14, -4
 3348 0004 88B0     		sub	sp, sp, #32
 3349              	.LCFI32:
 3350              		.cfi_def_cfa_offset 56
 549:C:/Users/²Ü¼ÒºÀ/.iotlink/sdk/IoT_LINK/iot_link/network/lwm2m/wakaama_lwm2m/wakaama-master/core\observe.c ****     lwm2m_transaction_t *transaction;
 3351              		.loc 1 549 1 view .LVU870
 3352 0006 9846     		mov	r8, r3
 3353              		.loc 1 553 140 view .LVU871
 3354 0008 02F11203 		add	r3, r2, #18
 3355              	.LVL350:
 549:C:/Users/²Ü¼ÒºÀ/.iotlink/sdk/IoT_LINK/iot_link/network/lwm2m/wakaama_lwm2m/wakaama-master/core\observe.c ****     lwm2m_transaction_t *transaction;
 3356              		.loc 1 549 1 view .LVU872
 3357 000c 0646     		mov	r6, r0
 3358              		.loc 1 553 19 view .LVU873
ARM GAS  C:\Users\²Ü¼ÒºÀ\AppData\Local\Temp\ccA6NNYh.s 			page 84


 3359 000e 9068     		ldr	r0, [r2, #8]
 3360              	.LVL351:
 3361              		.loc 1 553 19 view .LVU874
 3362 0010 0293     		str	r3, [sp, #8]
 3363 0012 137F     		ldrb	r3, [r2, #28]	@ zero_extendqisi2
 3364 0014 0193     		str	r3, [sp, #4]
 3365 0016 938D     		ldrh	r3, [r2, #44]
 3366 0018 0093     		str	r3, [sp]
 3367 001a 0023     		movs	r3, #0
 3368 001c C069     		ldr	r0, [r0, #28]
 549:C:/Users/²Ü¼ÒºÀ/.iotlink/sdk/IoT_LINK/iot_link/network/lwm2m/wakaama_lwm2m/wakaama-master/core\observe.c ****     lwm2m_transaction_t *transaction;
 3369              		.loc 1 549 1 view .LVU875
 3370 001e 0F46     		mov	r7, r1
 3371 0020 1546     		mov	r5, r2
 3372              		.loc 1 553 19 view .LVU876
 3373 0022 4521     		movs	r1, #69
 3374              	.LVL352:
 3375              		.loc 1 553 19 view .LVU877
 3376 0024 1A46     		mov	r2, r3
 3377              	.LVL353:
 3378              		.loc 1 553 19 view .LVU878
 3379 0026 FFF7FEFF 		bl	transaction_new
 3380              	.LVL354:
 554:C:/Users/²Ü¼ÒºÀ/.iotlink/sdk/IoT_LINK/iot_link/network/lwm2m/wakaama_lwm2m/wakaama-master/core\observe.c ****     if(NULL == transaction)
 3381              		.loc 1 554 5 is_stmt 1 view .LVU879
 3382              		.loc 1 554 7 is_stmt 0 view .LVU880
 3383 002a 0446     		mov	r4, r0
 3384 002c F8B9     		cbnz	r0, .L312
 555:C:/Users/²Ü¼ÒºÀ/.iotlink/sdk/IoT_LINK/iot_link/network/lwm2m/wakaama_lwm2m/wakaama-master/core\observe.c ****     {
 556:C:/Users/²Ü¼ÒºÀ/.iotlink/sdk/IoT_LINK/iot_link/network/lwm2m/wakaama_lwm2m/wakaama-master/core\observe.c ****         LOG("transaction_new null");
 3385              		.loc 1 556 9 is_stmt 1 view .LVU881
 3386              		.loc 1 556 9 view .LVU882
 3387 002e FFF7FEFF 		bl	link_log_level_get
 3388              	.LVL355:
 3389              		.loc 1 556 9 is_stmt 0 view .LVU883
 3390 0032 0128     		cmp	r0, #1
 3391 0034 19D8     		bhi	.L314
 3392              		.loc 1 556 9 is_stmt 1 discriminator 1 view .LVU884
 3393              		.loc 1 556 9 discriminator 1 view .LVU885
 3394              		.loc 1 556 9 discriminator 1 view .LVU886
 3395 0036 0120     		movs	r0, #1
 3396 0038 FFF7FEFF 		bl	link_log_level_name
 3397              	.LVL356:
 3398 003c 0446     		mov	r4, r0
 3399              	.LVL357:
 3400              		.loc 1 556 9 is_stmt 0 discriminator 1 view .LVU887
 3401 003e FFF7FEFF 		bl	osal_sys_time
 3402              	.LVL358:
 3403 0042 0790     		str	r0, [sp, #28]
 3404 0044 FFF7FEFF 		bl	lwm2m_gettime
 3405              	.LVL359:
 3406 0048 4FF40B73 		mov	r3, #556
 3407 004c 0293     		str	r3, [sp, #8]
 3408 004e 2C4B     		ldr	r3, .L315
 3409 0050 079A     		ldr	r2, [sp, #28]
 3410 0052 CDE90003 		strd	r0, r3, [sp]
 3411 0056 2146     		mov	r1, r4
ARM GAS  C:\Users\²Ü¼ÒºÀ\AppData\Local\Temp\ccA6NNYh.s 			page 85


 3412 0058 2A4B     		ldr	r3, .L315+4
 3413 005a 2B48     		ldr	r0, .L315+8
 3414 005c FFF7FEFF 		bl	printf
 3415              	.LVL360:
 3416              		.loc 1 556 9 is_stmt 1 discriminator 1 view .LVU888
 3417 0060 2A4B     		ldr	r3, .L315+12
 3418 0062 1B68     		ldr	r3, [r3]
 3419 0064 9868     		ldr	r0, [r3, #8]
 3420 0066 FFF7FEFF 		bl	fflush
 3421              	.LVL361:
 3422              	.L314:
 557:C:/Users/²Ü¼ÒºÀ/.iotlink/sdk/IoT_LINK/iot_link/network/lwm2m/wakaama_lwm2m/wakaama-master/core\observe.c ****         return COAP_500_INTERNAL_SERVER_ERROR;
 3423              		.loc 1 557 16 is_stmt 0 view .LVU889
 3424 006a A025     		movs	r5, #160
 3425              	.LVL362:
 3426              		.loc 1 557 16 view .LVU890
 3427 006c 44E0     		b	.L311
 3428              	.LVL363:
 3429              	.L312:
 558:C:/Users/²Ü¼ÒºÀ/.iotlink/sdk/IoT_LINK/iot_link/network/lwm2m/wakaama_lwm2m/wakaama-master/core\observe.c ****     }
 559:C:/Users/²Ü¼ÒºÀ/.iotlink/sdk/IoT_LINK/iot_link/network/lwm2m/wakaama_lwm2m/wakaama-master/core\observe.c ****     transaction->cfg.callback = cfg->callback;
 3430              		.loc 1 559 5 is_stmt 1 view .LVU891
 3431              		.loc 1 559 36 is_stmt 0 view .LVU892
 3432 006e BB68     		ldr	r3, [r7, #8]
 3433              		.loc 1 559 31 view .LVU893
 3434 0070 C363     		str	r3, [r0, #60]
 560:C:/Users/²Ü¼ÒºÀ/.iotlink/sdk/IoT_LINK/iot_link/network/lwm2m/wakaama_lwm2m/wakaama-master/core\observe.c ****     transaction->cfg.cookie = cfg->cookie;
 3435              		.loc 1 560 5 is_stmt 1 view .LVU894
 3436              		.loc 1 560 34 is_stmt 0 view .LVU895
 3437 0072 7B68     		ldr	r3, [r7, #4]
 3438              		.loc 1 560 29 view .LVU896
 3439 0074 8363     		str	r3, [r0, #56]
 561:C:/Users/²Ü¼ÒºÀ/.iotlink/sdk/IoT_LINK/iot_link/network/lwm2m/wakaama_lwm2m/wakaama-master/core\observe.c ****     transaction->cfg.type = cfg->type;
 3440              		.loc 1 561 5 is_stmt 1 view .LVU897
 3441              		.loc 1 561 32 is_stmt 0 view .LVU898
 3442 0076 3B68     		ldr	r3, [r7]
 3443              		.loc 1 561 27 view .LVU899
 3444 0078 4363     		str	r3, [r0, #52]
 562:C:/Users/²Ü¼ÒºÀ/.iotlink/sdk/IoT_LINK/iot_link/network/lwm2m/wakaama_lwm2m/wakaama-master/core\observe.c ****     transaction->callback = observe_call_back;
 3445              		.loc 1 562 5 is_stmt 1 view .LVU900
 3446              		.loc 1 562 27 is_stmt 0 view .LVU901
 3447 007a 254B     		ldr	r3, .L315+16
 563:C:/Users/²Ü¼ÒºÀ/.iotlink/sdk/IoT_LINK/iot_link/network/lwm2m/wakaama_lwm2m/wakaama-master/core\observe.c ****     coap_set_header_content_type(transaction->message, watcherP->format);
 3448              		.loc 1 563 5 view .LVU902
 3449 007c 298A     		ldrh	r1, [r5, #16]
 562:C:/Users/²Ü¼ÒºÀ/.iotlink/sdk/IoT_LINK/iot_link/network/lwm2m/wakaama_lwm2m/wakaama-master/core\observe.c ****     transaction->callback = observe_call_back;
 3450              		.loc 1 562 27 view .LVU903
 3451 007e 1B68     		ldr	r3, [r3]
 3452 0080 0364     		str	r3, [r0, #64]
 3453              		.loc 1 563 5 is_stmt 1 view .LVU904
 3454 0082 806A     		ldr	r0, [r0, #40]
 3455              	.LVL364:
 3456              		.loc 1 563 5 is_stmt 0 view .LVU905
 3457 0084 FFF7FEFF 		bl	coap_set_header_content_type
 3458              	.LVL365:
 564:C:/Users/²Ü¼ÒºÀ/.iotlink/sdk/IoT_LINK/iot_link/network/lwm2m/wakaama_lwm2m/wakaama-master/core\observe.c ****     coap_set_header_observe(transaction->message, watcherP->counter++);
 3459              		.loc 1 564 5 is_stmt 1 view .LVU906
ARM GAS  C:\Users\²Ü¼ÒºÀ\AppData\Local\Temp\ccA6NNYh.s 			page 86


 3460              		.loc 1 564 59 is_stmt 0 view .LVU907
 3461 0088 A96A     		ldr	r1, [r5, #40]
 3462              		.loc 1 564 40 view .LVU908
 3463 008a A06A     		ldr	r0, [r4, #40]
 3464              		.loc 1 564 5 view .LVU909
 3465 008c 4B1C     		adds	r3, r1, #1
 3466 008e AB62     		str	r3, [r5, #40]
 3467 0090 FFF7FEFF 		bl	coap_set_header_observe
 3468              	.LVL366:
 565:C:/Users/²Ü¼ÒºÀ/.iotlink/sdk/IoT_LINK/iot_link/network/lwm2m/wakaama_lwm2m/wakaama-master/core\observe.c ****     coap_set_payload(transaction->message, buffer, length);
 3469              		.loc 1 565 5 is_stmt 1 view .LVU910
 3470 0094 0E9A     		ldr	r2, [sp, #56]
 3471 0096 A06A     		ldr	r0, [r4, #40]
 3472 0098 4146     		mov	r1, r8
 3473 009a FFF7FEFF 		bl	coap_set_payload
 3474              	.LVL367:
 566:C:/Users/²Ü¼ÒºÀ/.iotlink/sdk/IoT_LINK/iot_link/network/lwm2m/wakaama_lwm2m/wakaama-master/core\observe.c ****     contextP->transactionList = (lwm2m_transaction_t *)LWM2M_LIST_ADD(contextP->transactionList, tr
 3475              		.loc 1 566 5 view .LVU911
 3476              		.loc 1 566 56 is_stmt 0 view .LVU912
 3477 009e 2146     		mov	r1, r4
 3478 00a0 306B     		ldr	r0, [r6, #48]
 3479 00a2 FFF7FEFF 		bl	lwm2m_list_add
 3480              	.LVL368:
 567:C:/Users/²Ü¼ÒºÀ/.iotlink/sdk/IoT_LINK/iot_link/network/lwm2m/wakaama_lwm2m/wakaama-master/core\observe.c ****     ret = transaction_send(contextP, transaction);
 3481              		.loc 1 567 11 view .LVU913
 3482 00a6 2146     		mov	r1, r4
 566:C:/Users/²Ü¼ÒºÀ/.iotlink/sdk/IoT_LINK/iot_link/network/lwm2m/wakaama_lwm2m/wakaama-master/core\observe.c ****     contextP->transactionList = (lwm2m_transaction_t *)LWM2M_LIST_ADD(contextP->transactionList, tr
 3483              		.loc 1 566 31 view .LVU914
 3484 00a8 3063     		str	r0, [r6, #48]
 566:C:/Users/²Ü¼ÒºÀ/.iotlink/sdk/IoT_LINK/iot_link/network/lwm2m/wakaama_lwm2m/wakaama-master/core\observe.c ****     contextP->transactionList = (lwm2m_transaction_t *)LWM2M_LIST_ADD(contextP->transactionList, tr
 3485              		.loc 1 566 110 is_stmt 1 view .LVU915
 3486              		.loc 1 567 5 view .LVU916
 3487              		.loc 1 567 11 is_stmt 0 view .LVU917
 3488 00aa 3046     		mov	r0, r6
 3489 00ac FFF7FEFF 		bl	transaction_send
 3490              	.LVL369:
 3491 00b0 0546     		mov	r5, r0
 3492              	.LVL370:
 568:C:/Users/²Ü¼ÒºÀ/.iotlink/sdk/IoT_LINK/iot_link/network/lwm2m/wakaama_lwm2m/wakaama-master/core\observe.c ****     LOG_ARG("notify con msg, cookie:%d type:%d,ret:%d", transaction->cfg.cookie, transaction->cfg.t
 3493              		.loc 1 568 5 is_stmt 1 view .LVU918
 3494              		.loc 1 568 5 view .LVU919
 3495 00b2 FFF7FEFF 		bl	link_log_level_get
 3496              	.LVL371:
 3497              		.loc 1 568 5 is_stmt 0 view .LVU920
 3498 00b6 0128     		cmp	r0, #1
 3499 00b8 1ED8     		bhi	.L311
 3500              		.loc 1 568 5 is_stmt 1 discriminator 1 view .LVU921
 3501              		.loc 1 568 5 discriminator 1 view .LVU922
 3502              		.loc 1 568 5 discriminator 1 view .LVU923
 3503 00ba 0120     		movs	r0, #1
 3504 00bc FFF7FEFF 		bl	link_log_level_name
 3505              	.LVL372:
 3506 00c0 0646     		mov	r6, r0
 3507              	.LVL373:
 3508              		.loc 1 568 5 is_stmt 0 discriminator 1 view .LVU924
 3509 00c2 FFF7FEFF 		bl	osal_sys_time
 3510              	.LVL374:
ARM GAS  C:\Users\²Ü¼ÒºÀ\AppData\Local\Temp\ccA6NNYh.s 			page 87


 3511 00c6 0790     		str	r0, [sp, #28]
 3512 00c8 FFF7FEFF 		bl	lwm2m_gettime
 3513              	.LVL375:
 3514 00cc 0595     		str	r5, [sp, #20]
 3515 00ce 636B     		ldr	r3, [r4, #52]
 3516 00d0 0493     		str	r3, [sp, #16]
 3517 00d2 A36B     		ldr	r3, [r4, #56]
 3518 00d4 0393     		str	r3, [sp, #12]
 3519 00d6 4FF40E73 		mov	r3, #568
 3520 00da 0293     		str	r3, [sp, #8]
 3521 00dc 084B     		ldr	r3, .L315
 3522 00de 079A     		ldr	r2, [sp, #28]
 3523 00e0 CDE90003 		strd	r0, r3, [sp]
 3524 00e4 3146     		mov	r1, r6
 3525 00e6 074B     		ldr	r3, .L315+4
 3526 00e8 0A48     		ldr	r0, .L315+20
 3527 00ea FFF7FEFF 		bl	printf
 3528              	.LVL376:
 3529              		.loc 1 568 5 is_stmt 1 discriminator 1 view .LVU925
 3530 00ee 074B     		ldr	r3, .L315+12
 3531 00f0 1B68     		ldr	r3, [r3]
 3532 00f2 9868     		ldr	r0, [r3, #8]
 3533 00f4 FFF7FEFF 		bl	fflush
 3534              	.LVL377:
 3535              	.L311:
 569:C:/Users/²Ü¼ÒºÀ/.iotlink/sdk/IoT_LINK/iot_link/network/lwm2m/wakaama_lwm2m/wakaama-master/core\observe.c ****     return ret;
 570:C:/Users/²Ü¼ÒºÀ/.iotlink/sdk/IoT_LINK/iot_link/network/lwm2m/wakaama_lwm2m/wakaama-master/core\observe.c **** }
 3536              		.loc 1 570 1 is_stmt 0 view .LVU926
 3537 00f8 2846     		mov	r0, r5
 3538 00fa 08B0     		add	sp, sp, #32
 3539              	.LCFI33:
 3540              		.cfi_def_cfa_offset 24
 3541              		@ sp needed
 3542 00fc BDE8F081 		pop	{r4, r5, r6, r7, r8, pc}
 3543              	.LVL378:
 3544              	.L316:
 3545              		.loc 1 570 1 view .LVU927
 3546              		.align	2
 3547              	.L315:
 3548 0100 00000000 		.word	.LANCHOR14
 3549 0104 00000000 		.word	.LANCHOR13
 3550 0108 00000000 		.word	.LC30
 3551 010c 00000000 		.word	_impure_ptr
 3552 0110 00000000 		.word	.LANCHOR0
 3553 0114 32000000 		.word	.LC31
 3554              		.cfi_endproc
 3555              	.LFE15:
 3557              		.section	.rodata.observe_app_step.str1.1,"aMS",%progbits,1
 3558              	.LC32:
 3559 0000 5B25735D 		.ascii	"[%s][%u][%s] [%d][%s:%d] Entering\015\012\015\012\000"
 3559      5B25755D 
 3559      5B25735D 
 3559      205B2564 
 3559      5D5B2573 
 3560              	.LC33:
 3561 0026 5B25735D 		.ascii	"[%s][%u][%s] [%d][%s:%d] notify no con msg, msgid:%"
 3561      5B25755D 
ARM GAS  C:\Users\²Ü¼ÒºÀ\AppData\Local\Temp\ccA6NNYh.s 			page 88


 3561      5B25735D 
 3561      205B2564 
 3561      5D5B2573 
 3562 0059 640D0A0D 		.ascii	"d\015\012\015\012\000"
 3562      0A00
 3563              		.section	.text.observe_app_step,"ax",%progbits
 3564              		.align	1
 3565              		.global	observe_app_step
 3566              		.syntax unified
 3567              		.thumb
 3568              		.thumb_func
 3569              		.fpu fpv4-sp-d16
 3571              	observe_app_step:
 3572              	.LVL379:
 3573              	.LFB16:
 571:C:/Users/²Ü¼ÒºÀ/.iotlink/sdk/IoT_LINK/iot_link/network/lwm2m/wakaama_lwm2m/wakaama-master/core\observe.c **** 
 572:C:/Users/²Ü¼ÒºÀ/.iotlink/sdk/IoT_LINK/iot_link/network/lwm2m/wakaama_lwm2m/wakaama-master/core\observe.c **** void observe_app_step(lwm2m_context_t *contextP,
 573:C:/Users/²Ü¼ÒºÀ/.iotlink/sdk/IoT_LINK/iot_link/network/lwm2m/wakaama_lwm2m/wakaama-master/core\observe.c ****                       lwm2m_observed_t *targetP,
 574:C:/Users/²Ü¼ÒºÀ/.iotlink/sdk/IoT_LINK/iot_link/network/lwm2m/wakaama_lwm2m/wakaama-master/core\observe.c ****                       time_t currentTime,
 575:C:/Users/²Ü¼ÒºÀ/.iotlink/sdk/IoT_LINK/iot_link/network/lwm2m/wakaama_lwm2m/wakaama-master/core\observe.c ****                       time_t *timeoutP)
 576:C:/Users/²Ü¼ÒºÀ/.iotlink/sdk/IoT_LINK/iot_link/network/lwm2m/wakaama_lwm2m/wakaama-master/core\observe.c **** {
 3574              		.loc 1 576 1 is_stmt 1 view -0
 3575              		.cfi_startproc
 3576              		@ args = 4, pretend = 0, frame = 184
 3577              		@ frame_needed = 0, uses_anonymous_args = 0
 577:C:/Users/²Ü¼ÒºÀ/.iotlink/sdk/IoT_LINK/iot_link/network/lwm2m/wakaama_lwm2m/wakaama-master/core\observe.c ****     LOG("Entering");
 3578              		.loc 1 577 5 view .LVU929
 3579              		.loc 1 577 5 view .LVU930
 576:C:/Users/²Ü¼ÒºÀ/.iotlink/sdk/IoT_LINK/iot_link/network/lwm2m/wakaama_lwm2m/wakaama-master/core\observe.c ****     LOG("Entering");
 3580              		.loc 1 576 1 is_stmt 0 view .LVU931
 3581 0000 2DE9F04F 		push	{r4, r5, r6, r7, r8, r9, r10, fp, lr}
 3582              	.LCFI34:
 3583              		.cfi_def_cfa_offset 36
 3584              		.cfi_offset 4, -36
 3585              		.cfi_offset 5, -32
 3586              		.cfi_offset 6, -28
 3587              		.cfi_offset 7, -24
 3588              		.cfi_offset 8, -20
 3589              		.cfi_offset 9, -16
 3590              		.cfi_offset 10, -12
 3591              		.cfi_offset 11, -8
 3592              		.cfi_offset 14, -4
 3593 0004 B3B0     		sub	sp, sp, #204
 3594              	.LCFI35:
 3595              		.cfi_def_cfa_offset 240
 576:C:/Users/²Ü¼ÒºÀ/.iotlink/sdk/IoT_LINK/iot_link/network/lwm2m/wakaama_lwm2m/wakaama-master/core\observe.c ****     LOG("Entering");
 3596              		.loc 1 576 1 view .LVU932
 3597 0006 CDE90523 		strd	r2, r3, [sp, #20]
 3598 000a 0646     		mov	r6, r0
 3599 000c 0F46     		mov	r7, r1
 3600              		.loc 1 577 5 view .LVU933
 3601 000e FFF7FEFF 		bl	link_log_level_get
 3602              	.LVL380:
 3603              		.loc 1 577 5 view .LVU934
 3604 0012 0128     		cmp	r0, #1
 3605 0014 19D8     		bhi	.L318
 3606              		.loc 1 577 5 is_stmt 1 discriminator 1 view .LVU935
ARM GAS  C:\Users\²Ü¼ÒºÀ\AppData\Local\Temp\ccA6NNYh.s 			page 89


 3607              		.loc 1 577 5 discriminator 1 view .LVU936
 3608              		.loc 1 577 5 discriminator 1 view .LVU937
 3609 0016 0120     		movs	r0, #1
 3610 0018 FFF7FEFF 		bl	link_log_level_name
 3611              	.LVL381:
 3612 001c 0446     		mov	r4, r0
 3613 001e FFF7FEFF 		bl	osal_sys_time
 3614              	.LVL382:
 3615 0022 0790     		str	r0, [sp, #28]
 3616 0024 FFF7FEFF 		bl	lwm2m_gettime
 3617              	.LVL383:
 3618 0028 40F24123 		movw	r3, #577
 3619 002c 0293     		str	r3, [sp, #8]
 3620 002e 5C4B     		ldr	r3, .L350
 3621 0030 079A     		ldr	r2, [sp, #28]
 3622 0032 CDE90003 		strd	r0, r3, [sp]
 3623 0036 2146     		mov	r1, r4
 3624 0038 5A4B     		ldr	r3, .L350+4
 3625 003a 5B48     		ldr	r0, .L350+8
 3626 003c FFF7FEFF 		bl	printf
 3627              	.LVL384:
 3628              		.loc 1 577 5 discriminator 1 view .LVU938
 3629 0040 5A4B     		ldr	r3, .L350+12
 3630 0042 1B68     		ldr	r3, [r3]
 3631 0044 9868     		ldr	r0, [r3, #8]
 3632 0046 FFF7FEFF 		bl	fflush
 3633              	.LVL385:
 3634              	.L318:
 3635              		.loc 1 577 5 discriminator 3 view .LVU939
 3636              		.loc 1 577 5 discriminator 3 view .LVU940
 3637              		.loc 1 577 5 discriminator 3 view .LVU941
 578:C:/Users/²Ü¼ÒºÀ/.iotlink/sdk/IoT_LINK/iot_link/network/lwm2m/wakaama_lwm2m/wakaama-master/core\observe.c ****     lwm2m_watcher_t *watcherP;
 3638              		.loc 1 578 5 discriminator 3 view .LVU942
 579:C:/Users/²Ü¼ÒºÀ/.iotlink/sdk/IoT_LINK/iot_link/network/lwm2m/wakaama_lwm2m/wakaama-master/core\observe.c ****     uint8_t *buffer = NULL;
 3639              		.loc 1 579 5 discriminator 3 view .LVU943
 3640              		.loc 1 579 14 is_stmt 0 discriminator 3 view .LVU944
 3641 004a 0025     		movs	r5, #0
 580:C:/Users/²Ü¼ÒºÀ/.iotlink/sdk/IoT_LINK/iot_link/network/lwm2m/wakaama_lwm2m/wakaama-master/core\observe.c ****     size_t length = 0;
 581:C:/Users/²Ü¼ÒºÀ/.iotlink/sdk/IoT_LINK/iot_link/network/lwm2m/wakaama_lwm2m/wakaama-master/core\observe.c ****     lwm2m_data_t *dataP = NULL;
 3642              		.loc 1 581 19 discriminator 3 view .LVU945
 3643 004c CDE90955 		strd	r5, r5, [sp, #36]
 582:C:/Users/²Ü¼ÒºÀ/.iotlink/sdk/IoT_LINK/iot_link/network/lwm2m/wakaama_lwm2m/wakaama-master/core\observe.c ****     lwm2m_data_cfg_t  cfg = {0, 0, NULL};
 3644              		.loc 1 582 5 is_stmt 1 discriminator 3 view .LVU946
 3645              		.loc 1 582 23 is_stmt 0 discriminator 3 view .LVU947
 3646 0050 CDE90C55 		strd	r5, r5, [sp, #48]
 3647 0054 0E95     		str	r5, [sp, #56]
 583:C:/Users/²Ü¼ÒºÀ/.iotlink/sdk/IoT_LINK/iot_link/network/lwm2m/wakaama_lwm2m/wakaama-master/core\observe.c ****     int size = 0;
 3648              		.loc 1 583 5 is_stmt 1 discriminator 3 view .LVU948
 3649              		.loc 1 583 9 is_stmt 0 discriminator 3 view .LVU949
 3650 0056 0B95     		str	r5, [sp, #44]
 584:C:/Users/²Ü¼ÒºÀ/.iotlink/sdk/IoT_LINK/iot_link/network/lwm2m/wakaama_lwm2m/wakaama-master/core\observe.c **** 
 585:C:/Users/²Ü¼ÒºÀ/.iotlink/sdk/IoT_LINK/iot_link/network/lwm2m/wakaama_lwm2m/wakaama-master/core\observe.c ****     while (COAP_205_CONTENT == object_readData(contextP, &targetP->uri, &size, &dataP, &cfg, 0))
 3651              		.loc 1 585 5 is_stmt 1 discriminator 3 view .LVU950
 3652              	.L319:
 3653              	.LVL386:
 3654              		.loc 1 585 11 view .LVU951
 3655              		.loc 1 585 32 is_stmt 0 view .LVU952
ARM GAS  C:\Users\²Ü¼ÒºÀ\AppData\Local\Temp\ccA6NNYh.s 			page 90


 3656 0058 0023     		movs	r3, #0
 3657 005a 07F10409 		add	r9, r7, #4
 3658 005e 0DF1300A 		add	r10, sp, #48
 3659 0062 0193     		str	r3, [sp, #4]
 3660 0064 CDF800A0 		str	r10, [sp]
 3661 0068 0AAB     		add	r3, sp, #40
 3662 006a 0BAA     		add	r2, sp, #44
 3663 006c 4946     		mov	r1, r9
 3664 006e 3046     		mov	r0, r6
 3665 0070 FFF7FEFF 		bl	object_readData
 3666              	.LVL387:
 3667              		.loc 1 585 11 view .LVU953
 3668 0074 4528     		cmp	r0, #69
 3669 0076 07D0     		beq	.L333
 586:C:/Users/²Ü¼ÒºÀ/.iotlink/sdk/IoT_LINK/iot_link/network/lwm2m/wakaama_lwm2m/wakaama-master/core\observe.c ****     {
 587:C:/Users/²Ü¼ÒºÀ/.iotlink/sdk/IoT_LINK/iot_link/network/lwm2m/wakaama_lwm2m/wakaama-master/core\observe.c **** 
 588:C:/Users/²Ü¼ÒºÀ/.iotlink/sdk/IoT_LINK/iot_link/network/lwm2m/wakaama_lwm2m/wakaama-master/core\observe.c ****         for (watcherP = targetP->watcherList ; watcherP != NULL ; watcherP = watcherP->next)
 589:C:/Users/²Ü¼ÒºÀ/.iotlink/sdk/IoT_LINK/iot_link/network/lwm2m/wakaama_lwm2m/wakaama-master/core\observe.c ****         {
 590:C:/Users/²Ü¼ÒºÀ/.iotlink/sdk/IoT_LINK/iot_link/network/lwm2m/wakaama_lwm2m/wakaama-master/core\observe.c ****             int res;
 591:C:/Users/²Ü¼ÒºÀ/.iotlink/sdk/IoT_LINK/iot_link/network/lwm2m/wakaama_lwm2m/wakaama-master/core\observe.c ****             if (buffer == NULL)
 592:C:/Users/²Ü¼ÒºÀ/.iotlink/sdk/IoT_LINK/iot_link/network/lwm2m/wakaama_lwm2m/wakaama-master/core\observe.c ****             {
 593:C:/Users/²Ü¼ÒºÀ/.iotlink/sdk/IoT_LINK/iot_link/network/lwm2m/wakaama_lwm2m/wakaama-master/core\observe.c ****                 res = lwm2m_data_serialize(&targetP->uri, size, dataP, &(watcherP->format), &buffer
 594:C:/Users/²Ü¼ÒºÀ/.iotlink/sdk/IoT_LINK/iot_link/network/lwm2m/wakaama_lwm2m/wakaama-master/core\observe.c ****                 if (res < 0)
 595:C:/Users/²Ü¼ÒºÀ/.iotlink/sdk/IoT_LINK/iot_link/network/lwm2m/wakaama_lwm2m/wakaama-master/core\observe.c ****                 {
 596:C:/Users/²Ü¼ÒºÀ/.iotlink/sdk/IoT_LINK/iot_link/network/lwm2m/wakaama_lwm2m/wakaama-master/core\observe.c ****                     if (dataP != NULL)
 597:C:/Users/²Ü¼ÒºÀ/.iotlink/sdk/IoT_LINK/iot_link/network/lwm2m/wakaama_lwm2m/wakaama-master/core\observe.c ****                     {
 598:C:/Users/²Ü¼ÒºÀ/.iotlink/sdk/IoT_LINK/iot_link/network/lwm2m/wakaama_lwm2m/wakaama-master/core\observe.c ****                         lwm2m_data_free(size, dataP);
 599:C:/Users/²Ü¼ÒºÀ/.iotlink/sdk/IoT_LINK/iot_link/network/lwm2m/wakaama_lwm2m/wakaama-master/core\observe.c ****                         dataP = NULL;
 600:C:/Users/²Ü¼ÒºÀ/.iotlink/sdk/IoT_LINK/iot_link/network/lwm2m/wakaama_lwm2m/wakaama-master/core\observe.c ****                     }
 601:C:/Users/²Ü¼ÒºÀ/.iotlink/sdk/IoT_LINK/iot_link/network/lwm2m/wakaama_lwm2m/wakaama-master/core\observe.c ****                     if (buffer != NULL)
 602:C:/Users/²Ü¼ÒºÀ/.iotlink/sdk/IoT_LINK/iot_link/network/lwm2m/wakaama_lwm2m/wakaama-master/core\observe.c ****                     {
 603:C:/Users/²Ü¼ÒºÀ/.iotlink/sdk/IoT_LINK/iot_link/network/lwm2m/wakaama_lwm2m/wakaama-master/core\observe.c ****                         lwm2m_free(buffer);
 604:C:/Users/²Ü¼ÒºÀ/.iotlink/sdk/IoT_LINK/iot_link/network/lwm2m/wakaama_lwm2m/wakaama-master/core\observe.c ****                     }
 605:C:/Users/²Ü¼ÒºÀ/.iotlink/sdk/IoT_LINK/iot_link/network/lwm2m/wakaama_lwm2m/wakaama-master/core\observe.c ****                     break;
 606:C:/Users/²Ü¼ÒºÀ/.iotlink/sdk/IoT_LINK/iot_link/network/lwm2m/wakaama_lwm2m/wakaama-master/core\observe.c ****                 }
 607:C:/Users/²Ü¼ÒºÀ/.iotlink/sdk/IoT_LINK/iot_link/network/lwm2m/wakaama_lwm2m/wakaama-master/core\observe.c ****                 else
 608:C:/Users/²Ü¼ÒºÀ/.iotlink/sdk/IoT_LINK/iot_link/network/lwm2m/wakaama_lwm2m/wakaama-master/core\observe.c ****                 {
 609:C:/Users/²Ü¼ÒºÀ/.iotlink/sdk/IoT_LINK/iot_link/network/lwm2m/wakaama_lwm2m/wakaama-master/core\observe.c ****                     length = (size_t)res;
 610:C:/Users/²Ü¼ÒºÀ/.iotlink/sdk/IoT_LINK/iot_link/network/lwm2m/wakaama_lwm2m/wakaama-master/core\observe.c ****                 }
 611:C:/Users/²Ü¼ÒºÀ/.iotlink/sdk/IoT_LINK/iot_link/network/lwm2m/wakaama_lwm2m/wakaama-master/core\observe.c ****             }
 612:C:/Users/²Ü¼ÒºÀ/.iotlink/sdk/IoT_LINK/iot_link/network/lwm2m/wakaama_lwm2m/wakaama-master/core\observe.c **** 
 613:C:/Users/²Ü¼ÒºÀ/.iotlink/sdk/IoT_LINK/iot_link/network/lwm2m/wakaama_lwm2m/wakaama-master/core\observe.c ****             if (watcherP->active == true)
 614:C:/Users/²Ü¼ÒºÀ/.iotlink/sdk/IoT_LINK/iot_link/network/lwm2m/wakaama_lwm2m/wakaama-master/core\observe.c ****             {
 615:C:/Users/²Ü¼ÒºÀ/.iotlink/sdk/IoT_LINK/iot_link/network/lwm2m/wakaama_lwm2m/wakaama-master/core\observe.c ****                 watcherP->lastTime = currentTime;
 616:C:/Users/²Ü¼ÒºÀ/.iotlink/sdk/IoT_LINK/iot_link/network/lwm2m/wakaama_lwm2m/wakaama-master/core\observe.c ****                 watcherP->lastMid = contextP->nextMID++;
 617:C:/Users/²Ü¼ÒºÀ/.iotlink/sdk/IoT_LINK/iot_link/network/lwm2m/wakaama_lwm2m/wakaama-master/core\observe.c **** 
 618:C:/Users/²Ü¼ÒºÀ/.iotlink/sdk/IoT_LINK/iot_link/network/lwm2m/wakaama_lwm2m/wakaama-master/core\observe.c ****                 if (cfg.callback == NULL)
 619:C:/Users/²Ü¼ÒºÀ/.iotlink/sdk/IoT_LINK/iot_link/network/lwm2m/wakaama_lwm2m/wakaama-master/core\observe.c ****                 {
 620:C:/Users/²Ü¼ÒºÀ/.iotlink/sdk/IoT_LINK/iot_link/network/lwm2m/wakaama_lwm2m/wakaama-master/core\observe.c ****                     coap_packet_t message[1];
 621:C:/Users/²Ü¼ÒºÀ/.iotlink/sdk/IoT_LINK/iot_link/network/lwm2m/wakaama_lwm2m/wakaama-master/core\observe.c ****                     coap_init_message(message, COAP_TYPE_NON, COAP_205_CONTENT, 0);
 622:C:/Users/²Ü¼ÒºÀ/.iotlink/sdk/IoT_LINK/iot_link/network/lwm2m/wakaama_lwm2m/wakaama-master/core\observe.c ****                     coap_set_header_content_type(message, watcherP->format);
 623:C:/Users/²Ü¼ÒºÀ/.iotlink/sdk/IoT_LINK/iot_link/network/lwm2m/wakaama_lwm2m/wakaama-master/core\observe.c ****                     coap_set_payload(message, buffer, length);
 624:C:/Users/²Ü¼ÒºÀ/.iotlink/sdk/IoT_LINK/iot_link/network/lwm2m/wakaama_lwm2m/wakaama-master/core\observe.c ****                     message->mid = watcherP->lastMid;
 625:C:/Users/²Ü¼ÒºÀ/.iotlink/sdk/IoT_LINK/iot_link/network/lwm2m/wakaama_lwm2m/wakaama-master/core\observe.c ****                     coap_set_header_token(message, watcherP->token, watcherP->tokenLen);
 626:C:/Users/²Ü¼ÒºÀ/.iotlink/sdk/IoT_LINK/iot_link/network/lwm2m/wakaama_lwm2m/wakaama-master/core\observe.c ****                     coap_set_header_observe(message, watcherP->counter++);
 627:C:/Users/²Ü¼ÒºÀ/.iotlink/sdk/IoT_LINK/iot_link/network/lwm2m/wakaama_lwm2m/wakaama-master/core\observe.c ****                     (void)message_send(contextP, message, watcherP->server->sessionH);
 628:C:/Users/²Ü¼ÒºÀ/.iotlink/sdk/IoT_LINK/iot_link/network/lwm2m/wakaama_lwm2m/wakaama-master/core\observe.c ****                     LOG_ARG("notify no con msg, msgid:%d", message->mid);
ARM GAS  C:\Users\²Ü¼ÒºÀ\AppData\Local\Temp\ccA6NNYh.s 			page 91


 629:C:/Users/²Ü¼ÒºÀ/.iotlink/sdk/IoT_LINK/iot_link/network/lwm2m/wakaama_lwm2m/wakaama-master/core\observe.c ****                 }
 630:C:/Users/²Ü¼ÒºÀ/.iotlink/sdk/IoT_LINK/iot_link/network/lwm2m/wakaama_lwm2m/wakaama-master/core\observe.c ****                 else
 631:C:/Users/²Ü¼ÒºÀ/.iotlink/sdk/IoT_LINK/iot_link/network/lwm2m/wakaama_lwm2m/wakaama-master/core\observe.c ****                 {
 632:C:/Users/²Ü¼ÒºÀ/.iotlink/sdk/IoT_LINK/iot_link/network/lwm2m/wakaama_lwm2m/wakaama-master/core\observe.c ****                     (void)observe_send_transaction(contextP, &cfg, watcherP, buffer, length);
 633:C:/Users/²Ü¼ÒºÀ/.iotlink/sdk/IoT_LINK/iot_link/network/lwm2m/wakaama_lwm2m/wakaama-master/core\observe.c ****                 }
 634:C:/Users/²Ü¼ÒºÀ/.iotlink/sdk/IoT_LINK/iot_link/network/lwm2m/wakaama_lwm2m/wakaama-master/core\observe.c ****             }
 635:C:/Users/²Ü¼ÒºÀ/.iotlink/sdk/IoT_LINK/iot_link/network/lwm2m/wakaama_lwm2m/wakaama-master/core\observe.c ****         }
 636:C:/Users/²Ü¼ÒºÀ/.iotlink/sdk/IoT_LINK/iot_link/network/lwm2m/wakaama_lwm2m/wakaama-master/core\observe.c **** 
 637:C:/Users/²Ü¼ÒºÀ/.iotlink/sdk/IoT_LINK/iot_link/network/lwm2m/wakaama_lwm2m/wakaama-master/core\observe.c ****         if (dataP != NULL)
 638:C:/Users/²Ü¼ÒºÀ/.iotlink/sdk/IoT_LINK/iot_link/network/lwm2m/wakaama_lwm2m/wakaama-master/core\observe.c ****         {
 639:C:/Users/²Ü¼ÒºÀ/.iotlink/sdk/IoT_LINK/iot_link/network/lwm2m/wakaama_lwm2m/wakaama-master/core\observe.c ****             lwm2m_data_free(size, dataP);
 640:C:/Users/²Ü¼ÒºÀ/.iotlink/sdk/IoT_LINK/iot_link/network/lwm2m/wakaama_lwm2m/wakaama-master/core\observe.c ****             dataP = NULL;
 641:C:/Users/²Ü¼ÒºÀ/.iotlink/sdk/IoT_LINK/iot_link/network/lwm2m/wakaama_lwm2m/wakaama-master/core\observe.c ****         }
 642:C:/Users/²Ü¼ÒºÀ/.iotlink/sdk/IoT_LINK/iot_link/network/lwm2m/wakaama_lwm2m/wakaama-master/core\observe.c ****         if (buffer != NULL)
 643:C:/Users/²Ü¼ÒºÀ/.iotlink/sdk/IoT_LINK/iot_link/network/lwm2m/wakaama_lwm2m/wakaama-master/core\observe.c ****         {
 644:C:/Users/²Ü¼ÒºÀ/.iotlink/sdk/IoT_LINK/iot_link/network/lwm2m/wakaama_lwm2m/wakaama-master/core\observe.c ****             lwm2m_free(buffer);
 645:C:/Users/²Ü¼ÒºÀ/.iotlink/sdk/IoT_LINK/iot_link/network/lwm2m/wakaama_lwm2m/wakaama-master/core\observe.c ****             buffer = NULL;
 646:C:/Users/²Ü¼ÒºÀ/.iotlink/sdk/IoT_LINK/iot_link/network/lwm2m/wakaama_lwm2m/wakaama-master/core\observe.c ****         }
 647:C:/Users/²Ü¼ÒºÀ/.iotlink/sdk/IoT_LINK/iot_link/network/lwm2m/wakaama_lwm2m/wakaama-master/core\observe.c ****     }
 648:C:/Users/²Ü¼ÒºÀ/.iotlink/sdk/IoT_LINK/iot_link/network/lwm2m/wakaama_lwm2m/wakaama-master/core\observe.c **** 
 649:C:/Users/²Ü¼ÒºÀ/.iotlink/sdk/IoT_LINK/iot_link/network/lwm2m/wakaama_lwm2m/wakaama-master/core\observe.c ****     if (dataP != NULL)
 3670              		.loc 1 649 5 is_stmt 1 view .LVU954
 3671              		.loc 1 649 15 is_stmt 0 view .LVU955
 3672 0078 0A99     		ldr	r1, [sp, #40]
 3673              		.loc 1 649 8 view .LVU956
 3674 007a 11B1     		cbz	r1, .L317
 650:C:/Users/²Ü¼ÒºÀ/.iotlink/sdk/IoT_LINK/iot_link/network/lwm2m/wakaama_lwm2m/wakaama-master/core\observe.c ****     {
 651:C:/Users/²Ü¼ÒºÀ/.iotlink/sdk/IoT_LINK/iot_link/network/lwm2m/wakaama_lwm2m/wakaama-master/core\observe.c ****         lwm2m_data_free(size, dataP);
 3675              		.loc 1 651 9 is_stmt 1 view .LVU957
 3676 007c 0B98     		ldr	r0, [sp, #44]
 3677 007e FFF7FEFF 		bl	lwm2m_data_free
 3678              	.LVL388:
 3679              	.L317:
 652:C:/Users/²Ü¼ÒºÀ/.iotlink/sdk/IoT_LINK/iot_link/network/lwm2m/wakaama_lwm2m/wakaama-master/core\observe.c ****     }
 653:C:/Users/²Ü¼ÒºÀ/.iotlink/sdk/IoT_LINK/iot_link/network/lwm2m/wakaama_lwm2m/wakaama-master/core\observe.c **** }
 3680              		.loc 1 653 1 is_stmt 0 view .LVU958
 3681 0082 33B0     		add	sp, sp, #204
 3682              	.LCFI36:
 3683              		.cfi_remember_state
 3684              		.cfi_def_cfa_offset 36
 3685              		@ sp needed
 3686 0084 BDE8F08F 		pop	{r4, r5, r6, r7, r8, r9, r10, fp, pc}
 3687              	.LVL389:
 3688              	.L333:
 3689              	.LCFI37:
 3690              		.cfi_restore_state
 588:C:/Users/²Ü¼ÒºÀ/.iotlink/sdk/IoT_LINK/iot_link/network/lwm2m/wakaama_lwm2m/wakaama-master/core\observe.c ****         {
 3691              		.loc 1 588 9 is_stmt 1 view .LVU959
 588:C:/Users/²Ü¼ÒºÀ/.iotlink/sdk/IoT_LINK/iot_link/network/lwm2m/wakaama_lwm2m/wakaama-master/core\observe.c ****         {
 3692              		.loc 1 588 23 is_stmt 0 view .LVU960
 3693 0088 FC68     		ldr	r4, [r7, #12]
 3694              	.LVL390:
 3695              	.LBB34:
 3696              	.LBB35:
 628:C:/Users/²Ü¼ÒºÀ/.iotlink/sdk/IoT_LINK/iot_link/network/lwm2m/wakaama_lwm2m/wakaama-master/core\observe.c ****                 }
 3697              		.loc 1 628 21 view .LVU961
 3698 008a DFF824B1 		ldr	fp, .L350+16
ARM GAS  C:\Users\²Ü¼ÒºÀ\AppData\Local\Temp\ccA6NNYh.s 			page 92


 3699              	.L320:
 628:C:/Users/²Ü¼ÒºÀ/.iotlink/sdk/IoT_LINK/iot_link/network/lwm2m/wakaama_lwm2m/wakaama-master/core\observe.c ****                 }
 3700              		.loc 1 628 21 view .LVU962
 3701              	.LBE35:
 3702              	.LBE34:
 588:C:/Users/²Ü¼ÒºÀ/.iotlink/sdk/IoT_LINK/iot_link/network/lwm2m/wakaama_lwm2m/wakaama-master/core\observe.c ****         {
 3703              		.loc 1 588 48 is_stmt 1 discriminator 1 view .LVU963
 588:C:/Users/²Ü¼ÒºÀ/.iotlink/sdk/IoT_LINK/iot_link/network/lwm2m/wakaama_lwm2m/wakaama-master/core\observe.c ****         {
 3704              		.loc 1 588 9 is_stmt 0 discriminator 1 view .LVU964
 3705 008e D4B1     		cbz	r4, .L325
 3706              	.LBB37:
 590:C:/Users/²Ü¼ÒºÀ/.iotlink/sdk/IoT_LINK/iot_link/network/lwm2m/wakaama_lwm2m/wakaama-master/core\observe.c ****             if (buffer == NULL)
 3707              		.loc 1 590 13 is_stmt 1 view .LVU965
 591:C:/Users/²Ü¼ÒºÀ/.iotlink/sdk/IoT_LINK/iot_link/network/lwm2m/wakaama_lwm2m/wakaama-master/core\observe.c ****             {
 3708              		.loc 1 591 13 view .LVU966
 591:C:/Users/²Ü¼ÒºÀ/.iotlink/sdk/IoT_LINK/iot_link/network/lwm2m/wakaama_lwm2m/wakaama-master/core\observe.c ****             {
 3709              		.loc 1 591 16 is_stmt 0 view .LVU967
 3710 0090 DDF82480 		ldr	r8, [sp, #36]
 3711 0094 B8F1000F 		cmp	r8, #0
 3712 0098 25D1     		bne	.L321
 593:C:/Users/²Ü¼ÒºÀ/.iotlink/sdk/IoT_LINK/iot_link/network/lwm2m/wakaama_lwm2m/wakaama-master/core\observe.c ****                 if (res < 0)
 3713              		.loc 1 593 17 is_stmt 1 view .LVU968
 593:C:/Users/²Ü¼ÒºÀ/.iotlink/sdk/IoT_LINK/iot_link/network/lwm2m/wakaama_lwm2m/wakaama-master/core\observe.c ****                 if (res < 0)
 3714              		.loc 1 593 23 is_stmt 0 view .LVU969
 3715 009a 09AB     		add	r3, sp, #36
 3716 009c 0093     		str	r3, [sp]
 3717 009e DDE90A21 		ldrd	r2, r1, [sp, #40]
 3718 00a2 04F11003 		add	r3, r4, #16
 3719 00a6 4846     		mov	r0, r9
 3720 00a8 FFF7FEFF 		bl	lwm2m_data_serialize
 3721              	.LVL391:
 594:C:/Users/²Ü¼ÒºÀ/.iotlink/sdk/IoT_LINK/iot_link/network/lwm2m/wakaama_lwm2m/wakaama-master/core\observe.c ****                 {
 3722              		.loc 1 594 17 is_stmt 1 view .LVU970
 594:C:/Users/²Ü¼ÒºÀ/.iotlink/sdk/IoT_LINK/iot_link/network/lwm2m/wakaama_lwm2m/wakaama-master/core\observe.c ****                 {
 3723              		.loc 1 594 20 is_stmt 0 view .LVU971
 3724 00ac 0028     		cmp	r0, #0
 594:C:/Users/²Ü¼ÒºÀ/.iotlink/sdk/IoT_LINK/iot_link/network/lwm2m/wakaama_lwm2m/wakaama-master/core\observe.c ****                 {
 3725              		.loc 1 594 20 view .LVU972
 3726 00ae 19DA     		bge	.L322
 596:C:/Users/²Ü¼ÒºÀ/.iotlink/sdk/IoT_LINK/iot_link/network/lwm2m/wakaama_lwm2m/wakaama-master/core\observe.c ****                     {
 3727              		.loc 1 596 21 is_stmt 1 view .LVU973
 596:C:/Users/²Ü¼ÒºÀ/.iotlink/sdk/IoT_LINK/iot_link/network/lwm2m/wakaama_lwm2m/wakaama-master/core\observe.c ****                     {
 3728              		.loc 1 596 31 is_stmt 0 view .LVU974
 3729 00b0 0A99     		ldr	r1, [sp, #40]
 596:C:/Users/²Ü¼ÒºÀ/.iotlink/sdk/IoT_LINK/iot_link/network/lwm2m/wakaama_lwm2m/wakaama-master/core\observe.c ****                     {
 3730              		.loc 1 596 24 view .LVU975
 3731 00b2 21B1     		cbz	r1, .L323
 598:C:/Users/²Ü¼ÒºÀ/.iotlink/sdk/IoT_LINK/iot_link/network/lwm2m/wakaama_lwm2m/wakaama-master/core\observe.c ****                         dataP = NULL;
 3732              		.loc 1 598 25 is_stmt 1 view .LVU976
 3733 00b4 0B98     		ldr	r0, [sp, #44]
 3734              	.LVL392:
 598:C:/Users/²Ü¼ÒºÀ/.iotlink/sdk/IoT_LINK/iot_link/network/lwm2m/wakaama_lwm2m/wakaama-master/core\observe.c ****                         dataP = NULL;
 3735              		.loc 1 598 25 is_stmt 0 view .LVU977
 3736 00b6 FFF7FEFF 		bl	lwm2m_data_free
 3737              	.LVL393:
 599:C:/Users/²Ü¼ÒºÀ/.iotlink/sdk/IoT_LINK/iot_link/network/lwm2m/wakaama_lwm2m/wakaama-master/core\observe.c ****                     }
 3738              		.loc 1 599 25 is_stmt 1 view .LVU978
ARM GAS  C:\Users\²Ü¼ÒºÀ\AppData\Local\Temp\ccA6NNYh.s 			page 93


 599:C:/Users/²Ü¼ÒºÀ/.iotlink/sdk/IoT_LINK/iot_link/network/lwm2m/wakaama_lwm2m/wakaama-master/core\observe.c ****                     }
 3739              		.loc 1 599 31 is_stmt 0 view .LVU979
 3740 00ba CDF82880 		str	r8, [sp, #40]
 3741              	.L323:
 601:C:/Users/²Ü¼ÒºÀ/.iotlink/sdk/IoT_LINK/iot_link/network/lwm2m/wakaama_lwm2m/wakaama-master/core\observe.c ****                     {
 3742              		.loc 1 601 21 is_stmt 1 view .LVU980
 601:C:/Users/²Ü¼ÒºÀ/.iotlink/sdk/IoT_LINK/iot_link/network/lwm2m/wakaama_lwm2m/wakaama-master/core\observe.c ****                     {
 3743              		.loc 1 601 32 is_stmt 0 view .LVU981
 3744 00be 0998     		ldr	r0, [sp, #36]
 601:C:/Users/²Ü¼ÒºÀ/.iotlink/sdk/IoT_LINK/iot_link/network/lwm2m/wakaama_lwm2m/wakaama-master/core\observe.c ****                     {
 3745              		.loc 1 601 24 view .LVU982
 3746 00c0 08B1     		cbz	r0, .L325
 603:C:/Users/²Ü¼ÒºÀ/.iotlink/sdk/IoT_LINK/iot_link/network/lwm2m/wakaama_lwm2m/wakaama-master/core\observe.c ****                     }
 3747              		.loc 1 603 25 is_stmt 1 view .LVU983
 3748 00c2 FFF7FEFF 		bl	lwm2m_free
 3749              	.LVL394:
 3750              	.L325:
 603:C:/Users/²Ü¼ÒºÀ/.iotlink/sdk/IoT_LINK/iot_link/network/lwm2m/wakaama_lwm2m/wakaama-master/core\observe.c ****                     }
 3751              		.loc 1 603 25 is_stmt 0 view .LVU984
 3752              	.LBE37:
 637:C:/Users/²Ü¼ÒºÀ/.iotlink/sdk/IoT_LINK/iot_link/network/lwm2m/wakaama_lwm2m/wakaama-master/core\observe.c ****         {
 3753              		.loc 1 637 9 is_stmt 1 view .LVU985
 637:C:/Users/²Ü¼ÒºÀ/.iotlink/sdk/IoT_LINK/iot_link/network/lwm2m/wakaama_lwm2m/wakaama-master/core\observe.c ****         {
 3754              		.loc 1 637 19 is_stmt 0 view .LVU986
 3755 00c6 0A99     		ldr	r1, [sp, #40]
 637:C:/Users/²Ü¼ÒºÀ/.iotlink/sdk/IoT_LINK/iot_link/network/lwm2m/wakaama_lwm2m/wakaama-master/core\observe.c ****         {
 3756              		.loc 1 637 12 view .LVU987
 3757 00c8 21B1     		cbz	r1, .L331
 639:C:/Users/²Ü¼ÒºÀ/.iotlink/sdk/IoT_LINK/iot_link/network/lwm2m/wakaama_lwm2m/wakaama-master/core\observe.c ****             dataP = NULL;
 3758              		.loc 1 639 13 is_stmt 1 view .LVU988
 3759 00ca 0B98     		ldr	r0, [sp, #44]
 3760 00cc FFF7FEFF 		bl	lwm2m_data_free
 3761              	.LVL395:
 640:C:/Users/²Ü¼ÒºÀ/.iotlink/sdk/IoT_LINK/iot_link/network/lwm2m/wakaama_lwm2m/wakaama-master/core\observe.c ****         }
 3762              		.loc 1 640 13 view .LVU989
 640:C:/Users/²Ü¼ÒºÀ/.iotlink/sdk/IoT_LINK/iot_link/network/lwm2m/wakaama_lwm2m/wakaama-master/core\observe.c ****         }
 3763              		.loc 1 640 19 is_stmt 0 view .LVU990
 3764 00d0 0023     		movs	r3, #0
 3765 00d2 0A93     		str	r3, [sp, #40]
 3766              	.L331:
 642:C:/Users/²Ü¼ÒºÀ/.iotlink/sdk/IoT_LINK/iot_link/network/lwm2m/wakaama_lwm2m/wakaama-master/core\observe.c ****         {
 3767              		.loc 1 642 9 is_stmt 1 view .LVU991
 642:C:/Users/²Ü¼ÒºÀ/.iotlink/sdk/IoT_LINK/iot_link/network/lwm2m/wakaama_lwm2m/wakaama-master/core\observe.c ****         {
 3768              		.loc 1 642 20 is_stmt 0 view .LVU992
 3769 00d4 0998     		ldr	r0, [sp, #36]
 642:C:/Users/²Ü¼ÒºÀ/.iotlink/sdk/IoT_LINK/iot_link/network/lwm2m/wakaama_lwm2m/wakaama-master/core\observe.c ****         {
 3770              		.loc 1 642 12 view .LVU993
 3771 00d6 0028     		cmp	r0, #0
 3772 00d8 BED0     		beq	.L319
 644:C:/Users/²Ü¼ÒºÀ/.iotlink/sdk/IoT_LINK/iot_link/network/lwm2m/wakaama_lwm2m/wakaama-master/core\observe.c ****             buffer = NULL;
 3773              		.loc 1 644 13 is_stmt 1 view .LVU994
 3774 00da FFF7FEFF 		bl	lwm2m_free
 3775              	.LVL396:
 645:C:/Users/²Ü¼ÒºÀ/.iotlink/sdk/IoT_LINK/iot_link/network/lwm2m/wakaama_lwm2m/wakaama-master/core\observe.c ****         }
 3776              		.loc 1 645 13 view .LVU995
 645:C:/Users/²Ü¼ÒºÀ/.iotlink/sdk/IoT_LINK/iot_link/network/lwm2m/wakaama_lwm2m/wakaama-master/core\observe.c ****         }
 3777              		.loc 1 645 20 is_stmt 0 view .LVU996
ARM GAS  C:\Users\²Ü¼ÒºÀ\AppData\Local\Temp\ccA6NNYh.s 			page 94


 3778 00de 0023     		movs	r3, #0
 3779 00e0 0993     		str	r3, [sp, #36]
 3780 00e2 B9E7     		b	.L319
 3781              	.LVL397:
 3782              	.L322:
 3783              	.LBB38:
 609:C:/Users/²Ü¼ÒºÀ/.iotlink/sdk/IoT_LINK/iot_link/network/lwm2m/wakaama_lwm2m/wakaama-master/core\observe.c ****                 }
 3784              		.loc 1 609 21 is_stmt 1 view .LVU997
 609:C:/Users/²Ü¼ÒºÀ/.iotlink/sdk/IoT_LINK/iot_link/network/lwm2m/wakaama_lwm2m/wakaama-master/core\observe.c ****                 }
 3785              		.loc 1 609 28 is_stmt 0 view .LVU998
 3786 00e4 0546     		mov	r5, r0
 3787              	.LVL398:
 3788              	.L321:
 613:C:/Users/²Ü¼ÒºÀ/.iotlink/sdk/IoT_LINK/iot_link/network/lwm2m/wakaama_lwm2m/wakaama-master/core\observe.c ****             {
 3789              		.loc 1 613 13 is_stmt 1 view .LVU999
 613:C:/Users/²Ü¼ÒºÀ/.iotlink/sdk/IoT_LINK/iot_link/network/lwm2m/wakaama_lwm2m/wakaama-master/core\observe.c ****             {
 3790              		.loc 1 613 16 is_stmt 0 view .LVU1000
 3791 00e6 2379     		ldrb	r3, [r4, #4]	@ zero_extendqisi2
 3792 00e8 002B     		cmp	r3, #0
 3793 00ea 4ED0     		beq	.L326
 615:C:/Users/²Ü¼ÒºÀ/.iotlink/sdk/IoT_LINK/iot_link/network/lwm2m/wakaama_lwm2m/wakaama-master/core\observe.c ****                 watcherP->lastMid = contextP->nextMID++;
 3794              		.loc 1 615 17 is_stmt 1 view .LVU1001
 615:C:/Users/²Ü¼ÒºÀ/.iotlink/sdk/IoT_LINK/iot_link/network/lwm2m/wakaama_lwm2m/wakaama-master/core\observe.c ****                 watcherP->lastMid = contextP->nextMID++;
 3795              		.loc 1 615 36 is_stmt 0 view .LVU1002
 3796 00ec 059B     		ldr	r3, [sp, #20]
 3797 00ee 2362     		str	r3, [r4, #32]
 3798 00f0 069B     		ldr	r3, [sp, #24]
 3799 00f2 6362     		str	r3, [r4, #36]
 616:C:/Users/²Ü¼ÒºÀ/.iotlink/sdk/IoT_LINK/iot_link/network/lwm2m/wakaama_lwm2m/wakaama-master/core\observe.c **** 
 3800              		.loc 1 616 17 is_stmt 1 view .LVU1003
 616:C:/Users/²Ü¼ÒºÀ/.iotlink/sdk/IoT_LINK/iot_link/network/lwm2m/wakaama_lwm2m/wakaama-master/core\observe.c **** 
 3801              		.loc 1 616 45 is_stmt 0 view .LVU1004
 3802 00f4 B38D     		ldrh	r3, [r6, #44]
 616:C:/Users/²Ü¼ÒºÀ/.iotlink/sdk/IoT_LINK/iot_link/network/lwm2m/wakaama_lwm2m/wakaama-master/core\observe.c **** 
 3803              		.loc 1 616 54 view .LVU1005
 3804 00f6 5A1C     		adds	r2, r3, #1
 3805 00f8 B285     		strh	r2, [r6, #44]	@ movhi
 616:C:/Users/²Ü¼ÒºÀ/.iotlink/sdk/IoT_LINK/iot_link/network/lwm2m/wakaama_lwm2m/wakaama-master/core\observe.c **** 
 3806              		.loc 1 616 35 view .LVU1006
 3807 00fa A385     		strh	r3, [r4, #44]	@ movhi
 618:C:/Users/²Ü¼ÒºÀ/.iotlink/sdk/IoT_LINK/iot_link/network/lwm2m/wakaama_lwm2m/wakaama-master/core\observe.c ****                 {
 3808              		.loc 1 618 17 is_stmt 1 view .LVU1007
 618:C:/Users/²Ü¼ÒºÀ/.iotlink/sdk/IoT_LINK/iot_link/network/lwm2m/wakaama_lwm2m/wakaama-master/core\observe.c ****                 {
 3809              		.loc 1 618 20 is_stmt 0 view .LVU1008
 3810 00fc 0E9B     		ldr	r3, [sp, #56]
 3811 00fe 002B     		cmp	r3, #0
 3812 0100 45D1     		bne	.L327
 3813              	.LBB36:
 620:C:/Users/²Ü¼ÒºÀ/.iotlink/sdk/IoT_LINK/iot_link/network/lwm2m/wakaama_lwm2m/wakaama-master/core\observe.c ****                     coap_init_message(message, COAP_TYPE_NON, COAP_205_CONTENT, 0);
 3814              		.loc 1 620 21 is_stmt 1 view .LVU1009
 621:C:/Users/²Ü¼ÒºÀ/.iotlink/sdk/IoT_LINK/iot_link/network/lwm2m/wakaama_lwm2m/wakaama-master/core\observe.c ****                     coap_set_header_content_type(message, watcherP->format);
 3815              		.loc 1 621 21 view .LVU1010
 3816 0102 4522     		movs	r2, #69
 3817 0104 0121     		movs	r1, #1
 3818 0106 0FA8     		add	r0, sp, #60
 3819 0108 FFF7FEFF 		bl	coap_init_message
 3820              	.LVL399:
ARM GAS  C:\Users\²Ü¼ÒºÀ\AppData\Local\Temp\ccA6NNYh.s 			page 95


 622:C:/Users/²Ü¼ÒºÀ/.iotlink/sdk/IoT_LINK/iot_link/network/lwm2m/wakaama_lwm2m/wakaama-master/core\observe.c ****                     coap_set_payload(message, buffer, length);
 3821              		.loc 1 622 21 view .LVU1011
 3822 010c 218A     		ldrh	r1, [r4, #16]
 3823 010e 0FA8     		add	r0, sp, #60
 3824 0110 FFF7FEFF 		bl	coap_set_header_content_type
 3825              	.LVL400:
 623:C:/Users/²Ü¼ÒºÀ/.iotlink/sdk/IoT_LINK/iot_link/network/lwm2m/wakaama_lwm2m/wakaama-master/core\observe.c ****                     message->mid = watcherP->lastMid;
 3826              		.loc 1 623 21 view .LVU1012
 3827 0114 0999     		ldr	r1, [sp, #36]
 3828 0116 2A46     		mov	r2, r5
 3829 0118 0FA8     		add	r0, sp, #60
 3830 011a FFF7FEFF 		bl	coap_set_payload
 3831              	.LVL401:
 624:C:/Users/²Ü¼ÒºÀ/.iotlink/sdk/IoT_LINK/iot_link/network/lwm2m/wakaama_lwm2m/wakaama-master/core\observe.c ****                     coap_set_header_token(message, watcherP->token, watcherP->tokenLen);
 3832              		.loc 1 624 21 view .LVU1013
 624:C:/Users/²Ü¼ÒºÀ/.iotlink/sdk/IoT_LINK/iot_link/network/lwm2m/wakaama_lwm2m/wakaama-master/core\observe.c ****                     coap_set_header_token(message, watcherP->token, watcherP->tokenLen);
 3833              		.loc 1 624 34 is_stmt 0 view .LVU1014
 3834 011e A38D     		ldrh	r3, [r4, #44]
 625:C:/Users/²Ü¼ÒºÀ/.iotlink/sdk/IoT_LINK/iot_link/network/lwm2m/wakaama_lwm2m/wakaama-master/core\observe.c ****                     coap_set_header_observe(message, watcherP->counter++);
 3835              		.loc 1 625 21 view .LVU1015
 3836 0120 E269     		ldr	r2, [r4, #28]
 624:C:/Users/²Ü¼ÒºÀ/.iotlink/sdk/IoT_LINK/iot_link/network/lwm2m/wakaama_lwm2m/wakaama-master/core\observe.c ****                     coap_set_header_token(message, watcherP->token, watcherP->tokenLen);
 3837              		.loc 1 624 34 view .LVU1016
 3838 0122 ADF84430 		strh	r3, [sp, #68]	@ movhi
 625:C:/Users/²Ü¼ÒºÀ/.iotlink/sdk/IoT_LINK/iot_link/network/lwm2m/wakaama_lwm2m/wakaama-master/core\observe.c ****                     coap_set_header_observe(message, watcherP->counter++);
 3839              		.loc 1 625 21 is_stmt 1 view .LVU1017
 3840 0126 04F11201 		add	r1, r4, #18
 3841 012a 0FA8     		add	r0, sp, #60
 3842 012c FFF7FEFF 		bl	coap_set_header_token
 3843              	.LVL402:
 626:C:/Users/²Ü¼ÒºÀ/.iotlink/sdk/IoT_LINK/iot_link/network/lwm2m/wakaama_lwm2m/wakaama-master/core\observe.c ****                     (void)message_send(contextP, message, watcherP->server->sessionH);
 3844              		.loc 1 626 21 view .LVU1018
 626:C:/Users/²Ü¼ÒºÀ/.iotlink/sdk/IoT_LINK/iot_link/network/lwm2m/wakaama_lwm2m/wakaama-master/core\observe.c ****                     (void)message_send(contextP, message, watcherP->server->sessionH);
 3845              		.loc 1 626 62 is_stmt 0 view .LVU1019
 3846 0130 A16A     		ldr	r1, [r4, #40]
 626:C:/Users/²Ü¼ÒºÀ/.iotlink/sdk/IoT_LINK/iot_link/network/lwm2m/wakaama_lwm2m/wakaama-master/core\observe.c ****                     (void)message_send(contextP, message, watcherP->server->sessionH);
 3847              		.loc 1 626 21 view .LVU1020
 3848 0132 4B1C     		adds	r3, r1, #1
 3849 0134 A362     		str	r3, [r4, #40]
 3850 0136 0FA8     		add	r0, sp, #60
 3851 0138 FFF7FEFF 		bl	coap_set_header_observe
 3852              	.LVL403:
 627:C:/Users/²Ü¼ÒºÀ/.iotlink/sdk/IoT_LINK/iot_link/network/lwm2m/wakaama_lwm2m/wakaama-master/core\observe.c ****                     LOG_ARG("notify no con msg, msgid:%d", message->mid);
 3853              		.loc 1 627 21 is_stmt 1 view .LVU1021
 627:C:/Users/²Ü¼ÒºÀ/.iotlink/sdk/IoT_LINK/iot_link/network/lwm2m/wakaama_lwm2m/wakaama-master/core\observe.c ****                     LOG_ARG("notify no con msg, msgid:%d", message->mid);
 3854              		.loc 1 627 27 is_stmt 0 view .LVU1022
 3855 013c A368     		ldr	r3, [r4, #8]
 3856 013e 0FA9     		add	r1, sp, #60
 3857 0140 DA69     		ldr	r2, [r3, #28]
 3858 0142 3046     		mov	r0, r6
 3859 0144 FFF7FEFF 		bl	message_send
 3860              	.LVL404:
 628:C:/Users/²Ü¼ÒºÀ/.iotlink/sdk/IoT_LINK/iot_link/network/lwm2m/wakaama_lwm2m/wakaama-master/core\observe.c ****                 }
 3861              		.loc 1 628 21 is_stmt 1 view .LVU1023
 628:C:/Users/²Ü¼ÒºÀ/.iotlink/sdk/IoT_LINK/iot_link/network/lwm2m/wakaama_lwm2m/wakaama-master/core\observe.c ****                 }
 3862              		.loc 1 628 21 view .LVU1024
 3863 0148 FFF7FEFF 		bl	link_log_level_get
ARM GAS  C:\Users\²Ü¼ÒºÀ\AppData\Local\Temp\ccA6NNYh.s 			page 96


 3864              	.LVL405:
 3865 014c 0128     		cmp	r0, #1
 3866 014e 1CD8     		bhi	.L326
 628:C:/Users/²Ü¼ÒºÀ/.iotlink/sdk/IoT_LINK/iot_link/network/lwm2m/wakaama_lwm2m/wakaama-master/core\observe.c ****                 }
 3867              		.loc 1 628 21 discriminator 1 view .LVU1025
 628:C:/Users/²Ü¼ÒºÀ/.iotlink/sdk/IoT_LINK/iot_link/network/lwm2m/wakaama_lwm2m/wakaama-master/core\observe.c ****                 }
 3868              		.loc 1 628 21 discriminator 1 view .LVU1026
 628:C:/Users/²Ü¼ÒºÀ/.iotlink/sdk/IoT_LINK/iot_link/network/lwm2m/wakaama_lwm2m/wakaama-master/core\observe.c ****                 }
 3869              		.loc 1 628 21 discriminator 1 view .LVU1027
 3870 0150 0120     		movs	r0, #1
 3871 0152 FFF7FEFF 		bl	link_log_level_name
 3872              	.LVL406:
 3873 0156 8046     		mov	r8, r0
 3874 0158 FFF7FEFF 		bl	osal_sys_time
 3875              	.LVL407:
 3876 015c 0790     		str	r0, [sp, #28]
 3877 015e FFF7FEFF 		bl	lwm2m_gettime
 3878              	.LVL408:
 3879 0162 BDF84430 		ldrh	r3, [sp, #68]
 3880 0166 0393     		str	r3, [sp, #12]
 3881 0168 4FF41D73 		mov	r3, #628
 3882 016c 0293     		str	r3, [sp, #8]
 3883 016e 0C4B     		ldr	r3, .L350
 3884 0170 079A     		ldr	r2, [sp, #28]
 3885 0172 CDE90003 		strd	r0, r3, [sp]
 3886 0176 4146     		mov	r1, r8
 3887 0178 0A4B     		ldr	r3, .L350+4
 3888 017a 5846     		mov	r0, fp
 3889 017c FFF7FEFF 		bl	printf
 3890              	.LVL409:
 628:C:/Users/²Ü¼ÒºÀ/.iotlink/sdk/IoT_LINK/iot_link/network/lwm2m/wakaama_lwm2m/wakaama-master/core\observe.c ****                 }
 3891              		.loc 1 628 21 discriminator 1 view .LVU1028
 3892 0180 0A4B     		ldr	r3, .L350+12
 3893 0182 1B68     		ldr	r3, [r3]
 3894 0184 9868     		ldr	r0, [r3, #8]
 3895 0186 FFF7FEFF 		bl	fflush
 3896              	.LVL410:
 628:C:/Users/²Ü¼ÒºÀ/.iotlink/sdk/IoT_LINK/iot_link/network/lwm2m/wakaama_lwm2m/wakaama-master/core\observe.c ****                 }
 3897              		.loc 1 628 21 discriminator 1 view .LVU1029
 628:C:/Users/²Ü¼ÒºÀ/.iotlink/sdk/IoT_LINK/iot_link/network/lwm2m/wakaama_lwm2m/wakaama-master/core\observe.c ****                 }
 3898              		.loc 1 628 21 discriminator 1 view .LVU1030
 628:C:/Users/²Ü¼ÒºÀ/.iotlink/sdk/IoT_LINK/iot_link/network/lwm2m/wakaama_lwm2m/wakaama-master/core\observe.c ****                 }
 3899              		.loc 1 628 21 discriminator 1 view .LVU1031
 3900              	.L326:
 628:C:/Users/²Ü¼ÒºÀ/.iotlink/sdk/IoT_LINK/iot_link/network/lwm2m/wakaama_lwm2m/wakaama-master/core\observe.c ****                 }
 3901              		.loc 1 628 21 is_stmt 0 discriminator 1 view .LVU1032
 3902              	.LBE36:
 3903              	.LBE38:
 588:C:/Users/²Ü¼ÒºÀ/.iotlink/sdk/IoT_LINK/iot_link/network/lwm2m/wakaama_lwm2m/wakaama-master/core\observe.c ****         {
 3904              		.loc 1 588 67 is_stmt 1 discriminator 2 view .LVU1033
 588:C:/Users/²Ü¼ÒºÀ/.iotlink/sdk/IoT_LINK/iot_link/network/lwm2m/wakaama_lwm2m/wakaama-master/core\observe.c ****         {
 3905              		.loc 1 588 76 is_stmt 0 discriminator 2 view .LVU1034
 3906 018a 2468     		ldr	r4, [r4]
 3907              	.LVL411:
 588:C:/Users/²Ü¼ÒºÀ/.iotlink/sdk/IoT_LINK/iot_link/network/lwm2m/wakaama_lwm2m/wakaama-master/core\observe.c ****         {
 3908              		.loc 1 588 76 discriminator 2 view .LVU1035
 3909 018c 7FE7     		b	.L320
ARM GAS  C:\Users\²Ü¼ÒºÀ\AppData\Local\Temp\ccA6NNYh.s 			page 97


 3910              	.L327:
 3911              	.LBB39:
 632:C:/Users/²Ü¼ÒºÀ/.iotlink/sdk/IoT_LINK/iot_link/network/lwm2m/wakaama_lwm2m/wakaama-master/core\observe.c ****                 }
 3912              		.loc 1 632 21 is_stmt 1 view .LVU1036
 632:C:/Users/²Ü¼ÒºÀ/.iotlink/sdk/IoT_LINK/iot_link/network/lwm2m/wakaama_lwm2m/wakaama-master/core\observe.c ****                 }
 3913              		.loc 1 632 27 is_stmt 0 view .LVU1037
 3914 018e 099B     		ldr	r3, [sp, #36]
 3915 0190 0095     		str	r5, [sp]
 3916 0192 2246     		mov	r2, r4
 3917 0194 5146     		mov	r1, r10
 3918 0196 3046     		mov	r0, r6
 3919 0198 FFF7FEFF 		bl	observe_send_transaction
 3920              	.LVL412:
 3921 019c F5E7     		b	.L326
 3922              	.L351:
 3923 019e 00BF     		.align	2
 3924              	.L350:
 3925 01a0 00000000 		.word	.LANCHOR16
 3926 01a4 00000000 		.word	.LANCHOR15
 3927 01a8 00000000 		.word	.LC32
 3928 01ac 00000000 		.word	_impure_ptr
 3929 01b0 26000000 		.word	.LC33
 3930              	.LBE39:
 3931              		.cfi_endproc
 3932              	.LFE16:
 3934              		.section	.rodata.observe_step.str1.1,"aMS",%progbits,1
 3935              	.LC34:
 3936 0000 5B25735D 		.ascii	"[%s][%u][%s] [%d][%s:%d] Notify with no conditions\015"
 3936      5B25755D 
 3936      5B25735D 
 3936      205B2564 
 3936      5D5B2573 
 3937 0033 0A0D0A00 		.ascii	"\012\015\012\000"
 3938              	.LC35:
 3939 0037 5B25735D 		.ascii	"[%s][%u][%s] [%d][%s:%d] Checking lower threshold\015"
 3939      5B25755D 
 3939      5B25735D 
 3939      205B2564 
 3939      5D5B2573 
 3940 0069 0A0D0A00 		.ascii	"\012\015\012\000"
 3941              		.global	__aeabi_l2d
 3942              		.global	__aeabi_dcmple
 3943              		.global	__aeabi_dcmplt
 3944              		.global	__aeabi_dcmpge
 3945              		.global	__aeabi_dcmpgt
 3946              	.LC36:
 3947 006d 5B25735D 		.ascii	"[%s][%u][%s] [%d][%s:%d] Notify on lower threshold "
 3947      5B25755D 
 3947      5B25735D 
 3947      205B2564 
 3947      5D5B2573 
 3948 00a0 63726F73 		.ascii	"crossing\015\012\015\012\000"
 3948      73696E67 
 3948      0D0A0D0A 
 3948      00
 3949              	.LC37:
 3950 00ad 5B25735D 		.ascii	"[%s][%u][%s] [%d][%s:%d] Checking upper threshold\015"
ARM GAS  C:\Users\²Ü¼ÒºÀ\AppData\Local\Temp\ccA6NNYh.s 			page 98


 3950      5B25755D 
 3950      5B25735D 
 3950      205B2564 
 3950      5D5B2573 
 3951 00df 0A0D0A00 		.ascii	"\012\015\012\000"
 3952              	.LC38:
 3953 00e3 5B25735D 		.ascii	"[%s][%u][%s] [%d][%s:%d] Notify on lower upper cros"
 3953      5B25755D 
 3953      5B25735D 
 3953      205B2564 
 3953      5D5B2573 
 3954 0116 73696E67 		.ascii	"sing\015\012\015\012\000"
 3954      0D0A0D0A 
 3954      00
 3955              	.LC39:
 3956 011f 5B25735D 		.ascii	"[%s][%u][%s] [%d][%s:%d] Checking step\015\012\015\012"
 3956      5B25755D 
 3956      5B25735D 
 3956      205B2564 
 3956      5D5B2573 
 3957 0149 00       		.ascii	"\000"
 3958              	.LC40:
 3959 014a 5B25735D 		.ascii	"[%s][%u][%s] [%d][%s:%d] Notify on step condition\015"
 3959      5B25755D 
 3959      5B25735D 
 3959      205B2564 
 3959      5D5B2573 
 3960 017c 0A0D0A00 		.ascii	"\012\015\012\000"
 3961              		.global	__aeabi_dsub
 3962              	.LC41:
 3963 0180 5B25735D 		.ascii	"[%s][%u][%s] [%d][%s:%d] Checking minimal period (%"
 3963      5B25755D 
 3963      5B25735D 
 3963      205B2564 
 3963      5D5B2573 
 3964 01b3 64207329 		.ascii	"d s)\015\012\015\012\000"
 3964      0D0A0D0A 
 3964      00
 3965              	.LC42:
 3966 01bc 5B25735D 		.ascii	"[%s][%u][%s] [%d][%s:%d] Notify on minimal period\015"
 3966      5B25755D 
 3966      5B25735D 
 3966      205B2564 
 3966      5D5B2573 
 3967 01ee 0A0D0A00 		.ascii	"\012\015\012\000"
 3968              	.LC43:
 3969 01f2 5B25735D 		.ascii	"[%s][%u][%s] [%d][%s:%d] Checking maximal period (%"
 3969      5B25755D 
 3969      5B25735D 
 3969      205B2564 
 3969      5D5B2573 
 3970 0225 64207329 		.ascii	"d s)\015\012\015\012\000"
 3970      0D0A0D0A 
 3970      00
 3971              	.LC44:
 3972 022e 5B25735D 		.ascii	"[%s][%u][%s] [%d][%s:%d] Notify on maximal period\015"
 3972      5B25755D 
ARM GAS  C:\Users\²Ü¼ÒºÀ\AppData\Local\Temp\ccA6NNYh.s 			page 99


 3972      5B25735D 
 3972      205B2564 
 3972      5D5B2573 
 3973 0260 0A0D0A00 		.ascii	"\012\015\012\000"
 3974              	.LC45:
 3975 0264 5B25735D 		.ascii	"[%s][%u][%s] [%d][%s:%d] non observe, msgid:%d\015\012"
 3975      5B25755D 
 3975      5B25735D 
 3975      205B2564 
 3975      5D5B2573 
 3976 0294 0D0A00   		.ascii	"\015\012\000"
 3977              		.section	.text.observe_step,"ax",%progbits
 3978              		.align	1
 3979              		.global	observe_step
 3980              		.syntax unified
 3981              		.thumb
 3982              		.thumb_func
 3983              		.fpu fpv4-sp-d16
 3985              	observe_step:
 3986              	.LVL413:
 3987              	.LFB17:
 654:C:/Users/²Ü¼ÒºÀ/.iotlink/sdk/IoT_LINK/iot_link/network/lwm2m/wakaama_lwm2m/wakaama-master/core\observe.c **** 
 655:C:/Users/²Ü¼ÒºÀ/.iotlink/sdk/IoT_LINK/iot_link/network/lwm2m/wakaama_lwm2m/wakaama-master/core\observe.c **** void observe_step(lwm2m_context_t *contextP,
 656:C:/Users/²Ü¼ÒºÀ/.iotlink/sdk/IoT_LINK/iot_link/network/lwm2m/wakaama_lwm2m/wakaama-master/core\observe.c ****                   time_t currentTime,
 657:C:/Users/²Ü¼ÒºÀ/.iotlink/sdk/IoT_LINK/iot_link/network/lwm2m/wakaama_lwm2m/wakaama-master/core\observe.c ****                   time_t *timeoutP)
 658:C:/Users/²Ü¼ÒºÀ/.iotlink/sdk/IoT_LINK/iot_link/network/lwm2m/wakaama_lwm2m/wakaama-master/core\observe.c **** {
 3988              		.loc 1 658 1 is_stmt 1 view -0
 3989              		.cfi_startproc
 3990              		@ args = 4, pretend = 0, frame = 240
 3991              		@ frame_needed = 0, uses_anonymous_args = 0
 659:C:/Users/²Ü¼ÒºÀ/.iotlink/sdk/IoT_LINK/iot_link/network/lwm2m/wakaama_lwm2m/wakaama-master/core\observe.c ****     lwm2m_observed_t *targetP;
 3992              		.loc 1 659 5 view .LVU1039
 660:C:/Users/²Ü¼ÒºÀ/.iotlink/sdk/IoT_LINK/iot_link/network/lwm2m/wakaama_lwm2m/wakaama-master/core\observe.c **** 
 661:C:/Users/²Ü¼ÒºÀ/.iotlink/sdk/IoT_LINK/iot_link/network/lwm2m/wakaama_lwm2m/wakaama-master/core\observe.c ****     LOG("Entering");
 3993              		.loc 1 661 5 view .LVU1040
 3994              		.loc 1 661 5 view .LVU1041
 658:C:/Users/²Ü¼ÒºÀ/.iotlink/sdk/IoT_LINK/iot_link/network/lwm2m/wakaama_lwm2m/wakaama-master/core\observe.c ****     lwm2m_observed_t *targetP;
 3995              		.loc 1 658 1 is_stmt 0 view .LVU1042
 3996 0000 2DE9F04F 		push	{r4, r5, r6, r7, r8, r9, r10, fp, lr}
 3997              	.LCFI38:
 3998              		.cfi_def_cfa_offset 36
 3999              		.cfi_offset 4, -36
 4000              		.cfi_offset 5, -32
 4001              		.cfi_offset 6, -28
 4002              		.cfi_offset 7, -24
 4003              		.cfi_offset 8, -20
 4004              		.cfi_offset 9, -16
 4005              		.cfi_offset 10, -12
 4006              		.cfi_offset 11, -8
 4007              		.cfi_offset 14, -4
 4008 0004 2DED028B 		vpush.64	{d8}
 4009              	.LCFI39:
 4010              		.cfi_def_cfa_offset 44
 4011              		.cfi_offset 80, -44
 4012              		.cfi_offset 81, -40
 4013 0008 C1B0     		sub	sp, sp, #260
 4014              	.LCFI40:
ARM GAS  C:\Users\²Ü¼ÒºÀ\AppData\Local\Temp\ccA6NNYh.s 			page 100


 4015              		.cfi_def_cfa_offset 304
 658:C:/Users/²Ü¼ÒºÀ/.iotlink/sdk/IoT_LINK/iot_link/network/lwm2m/wakaama_lwm2m/wakaama-master/core\observe.c ****     lwm2m_observed_t *targetP;
 4016              		.loc 1 658 1 view .LVU1043
 4017 000a CDE90623 		strd	r2, r3, [sp, #24]
 4018 000e 0890     		str	r0, [sp, #32]
 4019              		.loc 1 661 5 view .LVU1044
 4020 0010 FFF7FEFF 		bl	link_log_level_get
 4021              	.LVL414:
 4022              		.loc 1 661 5 view .LVU1045
 4023 0014 0128     		cmp	r0, #1
 4024 0016 19D8     		bhi	.L353
 4025              		.loc 1 661 5 is_stmt 1 discriminator 1 view .LVU1046
 4026              		.loc 1 661 5 discriminator 1 view .LVU1047
 4027              		.loc 1 661 5 discriminator 1 view .LVU1048
 4028 0018 0120     		movs	r0, #1
 4029 001a FFF7FEFF 		bl	link_log_level_name
 4030              	.LVL415:
 4031 001e 0446     		mov	r4, r0
 4032 0020 FFF7FEFF 		bl	osal_sys_time
 4033              	.LVL416:
 4034 0024 0590     		str	r0, [sp, #20]
 4035 0026 FFF7FEFF 		bl	lwm2m_gettime
 4036              	.LVL417:
 4037 002a 40F29523 		movw	r3, #661
 4038 002e 0293     		str	r3, [sp, #8]
 4039 0030 554B     		ldr	r3, .L526+8
 4040 0032 059A     		ldr	r2, [sp, #20]
 4041 0034 CDE90003 		strd	r0, r3, [sp]
 4042 0038 2146     		mov	r1, r4
 4043 003a 544B     		ldr	r3, .L526+12
 4044 003c 5448     		ldr	r0, .L526+16
 4045 003e FFF7FEFF 		bl	printf
 4046              	.LVL418:
 4047              		.loc 1 661 5 discriminator 1 view .LVU1049
 4048 0042 544B     		ldr	r3, .L526+20
 4049 0044 1B68     		ldr	r3, [r3]
 4050 0046 9868     		ldr	r0, [r3, #8]
 4051 0048 FFF7FEFF 		bl	fflush
 4052              	.LVL419:
 4053              	.L353:
 4054              		.loc 1 661 5 discriminator 3 view .LVU1050
 4055              		.loc 1 661 5 discriminator 3 view .LVU1051
 4056              		.loc 1 661 5 discriminator 3 view .LVU1052
 662:C:/Users/²Ü¼ÒºÀ/.iotlink/sdk/IoT_LINK/iot_link/network/lwm2m/wakaama_lwm2m/wakaama-master/core\observe.c ****     for (targetP = contextP->observedList ; targetP != NULL ; targetP = targetP->next)
 4057              		.loc 1 662 5 discriminator 3 view .LVU1053
 4058              		.loc 1 662 18 is_stmt 0 discriminator 3 view .LVU1054
 4059 004c 089B     		ldr	r3, [sp, #32]
 4060 004e D3F81CB0 		ldr	fp, [r3, #28]
 4061              	.LVL420:
 4062              	.L354:
 4063              		.loc 1 662 45 is_stmt 1 discriminator 1 view .LVU1055
 4064              		.loc 1 662 5 is_stmt 0 discriminator 1 view .LVU1056
 4065 0052 BBF1000F 		cmp	fp, #0
 4066 0056 04D1     		bne	.L460
 663:C:/Users/²Ü¼ÒºÀ/.iotlink/sdk/IoT_LINK/iot_link/network/lwm2m/wakaama_lwm2m/wakaama-master/core\observe.c ****     {
 664:C:/Users/²Ü¼ÒºÀ/.iotlink/sdk/IoT_LINK/iot_link/network/lwm2m/wakaama_lwm2m/wakaama-master/core\observe.c ****         lwm2m_watcher_t *watcherP;
 665:C:/Users/²Ü¼ÒºÀ/.iotlink/sdk/IoT_LINK/iot_link/network/lwm2m/wakaama_lwm2m/wakaama-master/core\observe.c ****         uint8_t *buffer = NULL;
ARM GAS  C:\Users\²Ü¼ÒºÀ\AppData\Local\Temp\ccA6NNYh.s 			page 101


 666:C:/Users/²Ü¼ÒºÀ/.iotlink/sdk/IoT_LINK/iot_link/network/lwm2m/wakaama_lwm2m/wakaama-master/core\observe.c ****         size_t length = 0;
 667:C:/Users/²Ü¼ÒºÀ/.iotlink/sdk/IoT_LINK/iot_link/network/lwm2m/wakaama_lwm2m/wakaama-master/core\observe.c ****         lwm2m_data_t *dataP = NULL;
 668:C:/Users/²Ü¼ÒºÀ/.iotlink/sdk/IoT_LINK/iot_link/network/lwm2m/wakaama_lwm2m/wakaama-master/core\observe.c ****         lwm2m_data_cfg_t  cfg = {0, 0, NULL};
 669:C:/Users/²Ü¼ÒºÀ/.iotlink/sdk/IoT_LINK/iot_link/network/lwm2m/wakaama_lwm2m/wakaama-master/core\observe.c ****         int size = 0;
 670:C:/Users/²Ü¼ÒºÀ/.iotlink/sdk/IoT_LINK/iot_link/network/lwm2m/wakaama_lwm2m/wakaama-master/core\observe.c ****         double floatValue = 0;
 671:C:/Users/²Ü¼ÒºÀ/.iotlink/sdk/IoT_LINK/iot_link/network/lwm2m/wakaama_lwm2m/wakaama-master/core\observe.c ****         int64_t integerValue = 0;
 672:C:/Users/²Ü¼ÒºÀ/.iotlink/sdk/IoT_LINK/iot_link/network/lwm2m/wakaama_lwm2m/wakaama-master/core\observe.c ****         bool storeValue = false;
 673:C:/Users/²Ü¼ÒºÀ/.iotlink/sdk/IoT_LINK/iot_link/network/lwm2m/wakaama_lwm2m/wakaama-master/core\observe.c ****         coap_packet_t message[1];
 674:C:/Users/²Ü¼ÒºÀ/.iotlink/sdk/IoT_LINK/iot_link/network/lwm2m/wakaama_lwm2m/wakaama-master/core\observe.c ****         time_t interval;
 675:C:/Users/²Ü¼ÒºÀ/.iotlink/sdk/IoT_LINK/iot_link/network/lwm2m/wakaama_lwm2m/wakaama-master/core\observe.c **** 
 676:C:/Users/²Ü¼ÒºÀ/.iotlink/sdk/IoT_LINK/iot_link/network/lwm2m/wakaama_lwm2m/wakaama-master/core\observe.c ****         LOG_URI(&(targetP->uri));
 677:C:/Users/²Ü¼ÒºÀ/.iotlink/sdk/IoT_LINK/iot_link/network/lwm2m/wakaama_lwm2m/wakaama-master/core\observe.c **** 
 678:C:/Users/²Ü¼ÒºÀ/.iotlink/sdk/IoT_LINK/iot_link/network/lwm2m/wakaama_lwm2m/wakaama-master/core\observe.c **** 
 679:C:/Users/²Ü¼ÒºÀ/.iotlink/sdk/IoT_LINK/iot_link/network/lwm2m/wakaama_lwm2m/wakaama-master/core\observe.c ****         if (dm_isUriOpaqueHandle(&(targetP->uri)))
 680:C:/Users/²Ü¼ÒºÀ/.iotlink/sdk/IoT_LINK/iot_link/network/lwm2m/wakaama_lwm2m/wakaama-master/core\observe.c ****         {
 681:C:/Users/²Ü¼ÒºÀ/.iotlink/sdk/IoT_LINK/iot_link/network/lwm2m/wakaama_lwm2m/wakaama-master/core\observe.c ****             observe_app_step(contextP, targetP, currentTime, timeoutP);
 682:C:/Users/²Ü¼ÒºÀ/.iotlink/sdk/IoT_LINK/iot_link/network/lwm2m/wakaama_lwm2m/wakaama-master/core\observe.c ****             continue;
 683:C:/Users/²Ü¼ÒºÀ/.iotlink/sdk/IoT_LINK/iot_link/network/lwm2m/wakaama_lwm2m/wakaama-master/core\observe.c ****         }
 684:C:/Users/²Ü¼ÒºÀ/.iotlink/sdk/IoT_LINK/iot_link/network/lwm2m/wakaama_lwm2m/wakaama-master/core\observe.c **** 
 685:C:/Users/²Ü¼ÒºÀ/.iotlink/sdk/IoT_LINK/iot_link/network/lwm2m/wakaama_lwm2m/wakaama-master/core\observe.c ****         cfg.callback = NULL;
 686:C:/Users/²Ü¼ÒºÀ/.iotlink/sdk/IoT_LINK/iot_link/network/lwm2m/wakaama_lwm2m/wakaama-master/core\observe.c ****         if (LWM2M_URI_IS_SET_RESOURCE(&targetP->uri))
 687:C:/Users/²Ü¼ÒºÀ/.iotlink/sdk/IoT_LINK/iot_link/network/lwm2m/wakaama_lwm2m/wakaama-master/core\observe.c ****         {
 688:C:/Users/²Ü¼ÒºÀ/.iotlink/sdk/IoT_LINK/iot_link/network/lwm2m/wakaama_lwm2m/wakaama-master/core\observe.c ****             if (COAP_205_CONTENT != object_readData(contextP, &targetP->uri, &size, &dataP, &cfg, 0
 689:C:/Users/²Ü¼ÒºÀ/.iotlink/sdk/IoT_LINK/iot_link/network/lwm2m/wakaama_lwm2m/wakaama-master/core\observe.c ****             switch (dataP->type)
 690:C:/Users/²Ü¼ÒºÀ/.iotlink/sdk/IoT_LINK/iot_link/network/lwm2m/wakaama_lwm2m/wakaama-master/core\observe.c ****             {
 691:C:/Users/²Ü¼ÒºÀ/.iotlink/sdk/IoT_LINK/iot_link/network/lwm2m/wakaama_lwm2m/wakaama-master/core\observe.c ****             case LWM2M_TYPE_INTEGER:
 692:C:/Users/²Ü¼ÒºÀ/.iotlink/sdk/IoT_LINK/iot_link/network/lwm2m/wakaama_lwm2m/wakaama-master/core\observe.c ****                 if (1 != lwm2m_data_decode_int(dataP, &integerValue))
 693:C:/Users/²Ü¼ÒºÀ/.iotlink/sdk/IoT_LINK/iot_link/network/lwm2m/wakaama_lwm2m/wakaama-master/core\observe.c ****                 {
 694:C:/Users/²Ü¼ÒºÀ/.iotlink/sdk/IoT_LINK/iot_link/network/lwm2m/wakaama_lwm2m/wakaama-master/core\observe.c ****                     lwm2m_data_free(size, dataP);
 695:C:/Users/²Ü¼ÒºÀ/.iotlink/sdk/IoT_LINK/iot_link/network/lwm2m/wakaama_lwm2m/wakaama-master/core\observe.c ****                     continue;
 696:C:/Users/²Ü¼ÒºÀ/.iotlink/sdk/IoT_LINK/iot_link/network/lwm2m/wakaama_lwm2m/wakaama-master/core\observe.c ****                 }
 697:C:/Users/²Ü¼ÒºÀ/.iotlink/sdk/IoT_LINK/iot_link/network/lwm2m/wakaama_lwm2m/wakaama-master/core\observe.c ****                 storeValue = true;
 698:C:/Users/²Ü¼ÒºÀ/.iotlink/sdk/IoT_LINK/iot_link/network/lwm2m/wakaama_lwm2m/wakaama-master/core\observe.c ****                 break;
 699:C:/Users/²Ü¼ÒºÀ/.iotlink/sdk/IoT_LINK/iot_link/network/lwm2m/wakaama_lwm2m/wakaama-master/core\observe.c ****             case LWM2M_TYPE_FLOAT:
 700:C:/Users/²Ü¼ÒºÀ/.iotlink/sdk/IoT_LINK/iot_link/network/lwm2m/wakaama_lwm2m/wakaama-master/core\observe.c ****                 if (1 != lwm2m_data_decode_float(dataP, &floatValue))
 701:C:/Users/²Ü¼ÒºÀ/.iotlink/sdk/IoT_LINK/iot_link/network/lwm2m/wakaama_lwm2m/wakaama-master/core\observe.c ****                 {
 702:C:/Users/²Ü¼ÒºÀ/.iotlink/sdk/IoT_LINK/iot_link/network/lwm2m/wakaama_lwm2m/wakaama-master/core\observe.c ****                     lwm2m_data_free(size, dataP);
 703:C:/Users/²Ü¼ÒºÀ/.iotlink/sdk/IoT_LINK/iot_link/network/lwm2m/wakaama_lwm2m/wakaama-master/core\observe.c ****                     continue;
 704:C:/Users/²Ü¼ÒºÀ/.iotlink/sdk/IoT_LINK/iot_link/network/lwm2m/wakaama_lwm2m/wakaama-master/core\observe.c ****                 }
 705:C:/Users/²Ü¼ÒºÀ/.iotlink/sdk/IoT_LINK/iot_link/network/lwm2m/wakaama_lwm2m/wakaama-master/core\observe.c ****                 storeValue = true;
 706:C:/Users/²Ü¼ÒºÀ/.iotlink/sdk/IoT_LINK/iot_link/network/lwm2m/wakaama_lwm2m/wakaama-master/core\observe.c ****                 break;
 707:C:/Users/²Ü¼ÒºÀ/.iotlink/sdk/IoT_LINK/iot_link/network/lwm2m/wakaama_lwm2m/wakaama-master/core\observe.c ****             default:
 708:C:/Users/²Ü¼ÒºÀ/.iotlink/sdk/IoT_LINK/iot_link/network/lwm2m/wakaama_lwm2m/wakaama-master/core\observe.c ****                 break;
 709:C:/Users/²Ü¼ÒºÀ/.iotlink/sdk/IoT_LINK/iot_link/network/lwm2m/wakaama_lwm2m/wakaama-master/core\observe.c ****             }
 710:C:/Users/²Ü¼ÒºÀ/.iotlink/sdk/IoT_LINK/iot_link/network/lwm2m/wakaama_lwm2m/wakaama-master/core\observe.c ****         }
 711:C:/Users/²Ü¼ÒºÀ/.iotlink/sdk/IoT_LINK/iot_link/network/lwm2m/wakaama_lwm2m/wakaama-master/core\observe.c ****         for (watcherP = targetP->watcherList ; watcherP != NULL ; watcherP = watcherP->next)
 712:C:/Users/²Ü¼ÒºÀ/.iotlink/sdk/IoT_LINK/iot_link/network/lwm2m/wakaama_lwm2m/wakaama-master/core\observe.c ****         {
 713:C:/Users/²Ü¼ÒºÀ/.iotlink/sdk/IoT_LINK/iot_link/network/lwm2m/wakaama_lwm2m/wakaama-master/core\observe.c ****             if (watcherP->active == true)
 714:C:/Users/²Ü¼ÒºÀ/.iotlink/sdk/IoT_LINK/iot_link/network/lwm2m/wakaama_lwm2m/wakaama-master/core\observe.c ****             {
 715:C:/Users/²Ü¼ÒºÀ/.iotlink/sdk/IoT_LINK/iot_link/network/lwm2m/wakaama_lwm2m/wakaama-master/core\observe.c ****                 bool notify = false;
 716:C:/Users/²Ü¼ÒºÀ/.iotlink/sdk/IoT_LINK/iot_link/network/lwm2m/wakaama_lwm2m/wakaama-master/core\observe.c **** 
 717:C:/Users/²Ü¼ÒºÀ/.iotlink/sdk/IoT_LINK/iot_link/network/lwm2m/wakaama_lwm2m/wakaama-master/core\observe.c ****                 if (watcherP->update == true)
 718:C:/Users/²Ü¼ÒºÀ/.iotlink/sdk/IoT_LINK/iot_link/network/lwm2m/wakaama_lwm2m/wakaama-master/core\observe.c ****                 {
 719:C:/Users/²Ü¼ÒºÀ/.iotlink/sdk/IoT_LINK/iot_link/network/lwm2m/wakaama_lwm2m/wakaama-master/core\observe.c ****                     // value changed, should we notify the server ?
 720:C:/Users/²Ü¼ÒºÀ/.iotlink/sdk/IoT_LINK/iot_link/network/lwm2m/wakaama_lwm2m/wakaama-master/core\observe.c **** 
 721:C:/Users/²Ü¼ÒºÀ/.iotlink/sdk/IoT_LINK/iot_link/network/lwm2m/wakaama_lwm2m/wakaama-master/core\observe.c ****                     if (watcherP->parameters == NULL || watcherP->parameters->toSet == 0)
 722:C:/Users/²Ü¼ÒºÀ/.iotlink/sdk/IoT_LINK/iot_link/network/lwm2m/wakaama_lwm2m/wakaama-master/core\observe.c ****                     {
ARM GAS  C:\Users\²Ü¼ÒºÀ\AppData\Local\Temp\ccA6NNYh.s 			page 102


 723:C:/Users/²Ü¼ÒºÀ/.iotlink/sdk/IoT_LINK/iot_link/network/lwm2m/wakaama_lwm2m/wakaama-master/core\observe.c ****                         // no conditions
 724:C:/Users/²Ü¼ÒºÀ/.iotlink/sdk/IoT_LINK/iot_link/network/lwm2m/wakaama_lwm2m/wakaama-master/core\observe.c ****                         notify = true;
 725:C:/Users/²Ü¼ÒºÀ/.iotlink/sdk/IoT_LINK/iot_link/network/lwm2m/wakaama_lwm2m/wakaama-master/core\observe.c ****                         LOG("Notify with no conditions");
 726:C:/Users/²Ü¼ÒºÀ/.iotlink/sdk/IoT_LINK/iot_link/network/lwm2m/wakaama_lwm2m/wakaama-master/core\observe.c ****                         LOG_URI(&(targetP->uri));
 727:C:/Users/²Ü¼ÒºÀ/.iotlink/sdk/IoT_LINK/iot_link/network/lwm2m/wakaama_lwm2m/wakaama-master/core\observe.c ****                     }
 728:C:/Users/²Ü¼ÒºÀ/.iotlink/sdk/IoT_LINK/iot_link/network/lwm2m/wakaama_lwm2m/wakaama-master/core\observe.c **** 
 729:C:/Users/²Ü¼ÒºÀ/.iotlink/sdk/IoT_LINK/iot_link/network/lwm2m/wakaama_lwm2m/wakaama-master/core\observe.c ****                     if (notify == false
 730:C:/Users/²Ü¼ÒºÀ/.iotlink/sdk/IoT_LINK/iot_link/network/lwm2m/wakaama_lwm2m/wakaama-master/core\observe.c ****                             && watcherP->parameters != NULL
 731:C:/Users/²Ü¼ÒºÀ/.iotlink/sdk/IoT_LINK/iot_link/network/lwm2m/wakaama_lwm2m/wakaama-master/core\observe.c ****                             && (watcherP->parameters->toSet & ATTR_FLAG_NUMERIC) != 0)
 732:C:/Users/²Ü¼ÒºÀ/.iotlink/sdk/IoT_LINK/iot_link/network/lwm2m/wakaama_lwm2m/wakaama-master/core\observe.c ****                     {
 733:C:/Users/²Ü¼ÒºÀ/.iotlink/sdk/IoT_LINK/iot_link/network/lwm2m/wakaama_lwm2m/wakaama-master/core\observe.c ****                         if ((watcherP->parameters->toSet & LWM2M_ATTR_FLAG_LESS_THAN) != 0)
 734:C:/Users/²Ü¼ÒºÀ/.iotlink/sdk/IoT_LINK/iot_link/network/lwm2m/wakaama_lwm2m/wakaama-master/core\observe.c ****                         {
 735:C:/Users/²Ü¼ÒºÀ/.iotlink/sdk/IoT_LINK/iot_link/network/lwm2m/wakaama_lwm2m/wakaama-master/core\observe.c ****                             LOG("Checking lower threshold");
 736:C:/Users/²Ü¼ÒºÀ/.iotlink/sdk/IoT_LINK/iot_link/network/lwm2m/wakaama_lwm2m/wakaama-master/core\observe.c ****                             // Did we cross the lower threshold ?
 737:C:/Users/²Ü¼ÒºÀ/.iotlink/sdk/IoT_LINK/iot_link/network/lwm2m/wakaama_lwm2m/wakaama-master/core\observe.c ****                             switch (dataP->type)
 738:C:/Users/²Ü¼ÒºÀ/.iotlink/sdk/IoT_LINK/iot_link/network/lwm2m/wakaama_lwm2m/wakaama-master/core\observe.c ****                             {
 739:C:/Users/²Ü¼ÒºÀ/.iotlink/sdk/IoT_LINK/iot_link/network/lwm2m/wakaama_lwm2m/wakaama-master/core\observe.c ****                             case LWM2M_TYPE_INTEGER:
 740:C:/Users/²Ü¼ÒºÀ/.iotlink/sdk/IoT_LINK/iot_link/network/lwm2m/wakaama_lwm2m/wakaama-master/core\observe.c ****                                 if ((integerValue <= watcherP->parameters->lessThan
 741:C:/Users/²Ü¼ÒºÀ/.iotlink/sdk/IoT_LINK/iot_link/network/lwm2m/wakaama_lwm2m/wakaama-master/core\observe.c ****                                         && watcherP->lastValue.asInteger > watcherP->parameters->le
 742:C:/Users/²Ü¼ÒºÀ/.iotlink/sdk/IoT_LINK/iot_link/network/lwm2m/wakaama_lwm2m/wakaama-master/core\observe.c ****                                         || (integerValue >= watcherP->parameters->lessThan
 743:C:/Users/²Ü¼ÒºÀ/.iotlink/sdk/IoT_LINK/iot_link/network/lwm2m/wakaama_lwm2m/wakaama-master/core\observe.c ****                                             && watcherP->lastValue.asInteger < watcherP->parameters
 744:C:/Users/²Ü¼ÒºÀ/.iotlink/sdk/IoT_LINK/iot_link/network/lwm2m/wakaama_lwm2m/wakaama-master/core\observe.c ****                                 {
 745:C:/Users/²Ü¼ÒºÀ/.iotlink/sdk/IoT_LINK/iot_link/network/lwm2m/wakaama_lwm2m/wakaama-master/core\observe.c ****                                     LOG("Notify on lower threshold crossing");
 746:C:/Users/²Ü¼ÒºÀ/.iotlink/sdk/IoT_LINK/iot_link/network/lwm2m/wakaama_lwm2m/wakaama-master/core\observe.c ****                                     notify = true;
 747:C:/Users/²Ü¼ÒºÀ/.iotlink/sdk/IoT_LINK/iot_link/network/lwm2m/wakaama_lwm2m/wakaama-master/core\observe.c ****                                 }
 748:C:/Users/²Ü¼ÒºÀ/.iotlink/sdk/IoT_LINK/iot_link/network/lwm2m/wakaama_lwm2m/wakaama-master/core\observe.c ****                                 break;
 749:C:/Users/²Ü¼ÒºÀ/.iotlink/sdk/IoT_LINK/iot_link/network/lwm2m/wakaama_lwm2m/wakaama-master/core\observe.c ****                             case LWM2M_TYPE_FLOAT:
 750:C:/Users/²Ü¼ÒºÀ/.iotlink/sdk/IoT_LINK/iot_link/network/lwm2m/wakaama_lwm2m/wakaama-master/core\observe.c ****                                 if ((floatValue <= watcherP->parameters->lessThan
 751:C:/Users/²Ü¼ÒºÀ/.iotlink/sdk/IoT_LINK/iot_link/network/lwm2m/wakaama_lwm2m/wakaama-master/core\observe.c ****                                         && watcherP->lastValue.asFloat > watcherP->parameters->less
 752:C:/Users/²Ü¼ÒºÀ/.iotlink/sdk/IoT_LINK/iot_link/network/lwm2m/wakaama_lwm2m/wakaama-master/core\observe.c ****                                         || (floatValue >= watcherP->parameters->lessThan
 753:C:/Users/²Ü¼ÒºÀ/.iotlink/sdk/IoT_LINK/iot_link/network/lwm2m/wakaama_lwm2m/wakaama-master/core\observe.c ****                                             && watcherP->lastValue.asFloat < watcherP->parameters->
 754:C:/Users/²Ü¼ÒºÀ/.iotlink/sdk/IoT_LINK/iot_link/network/lwm2m/wakaama_lwm2m/wakaama-master/core\observe.c ****                                 {
 755:C:/Users/²Ü¼ÒºÀ/.iotlink/sdk/IoT_LINK/iot_link/network/lwm2m/wakaama_lwm2m/wakaama-master/core\observe.c ****                                     LOG("Notify on lower threshold crossing");
 756:C:/Users/²Ü¼ÒºÀ/.iotlink/sdk/IoT_LINK/iot_link/network/lwm2m/wakaama_lwm2m/wakaama-master/core\observe.c ****                                     notify = true;
 757:C:/Users/²Ü¼ÒºÀ/.iotlink/sdk/IoT_LINK/iot_link/network/lwm2m/wakaama_lwm2m/wakaama-master/core\observe.c ****                                 }
 758:C:/Users/²Ü¼ÒºÀ/.iotlink/sdk/IoT_LINK/iot_link/network/lwm2m/wakaama_lwm2m/wakaama-master/core\observe.c ****                                 break;
 759:C:/Users/²Ü¼ÒºÀ/.iotlink/sdk/IoT_LINK/iot_link/network/lwm2m/wakaama_lwm2m/wakaama-master/core\observe.c ****                             default:
 760:C:/Users/²Ü¼ÒºÀ/.iotlink/sdk/IoT_LINK/iot_link/network/lwm2m/wakaama_lwm2m/wakaama-master/core\observe.c ****                                 break;
 761:C:/Users/²Ü¼ÒºÀ/.iotlink/sdk/IoT_LINK/iot_link/network/lwm2m/wakaama_lwm2m/wakaama-master/core\observe.c ****                             }
 762:C:/Users/²Ü¼ÒºÀ/.iotlink/sdk/IoT_LINK/iot_link/network/lwm2m/wakaama_lwm2m/wakaama-master/core\observe.c ****                         }
 763:C:/Users/²Ü¼ÒºÀ/.iotlink/sdk/IoT_LINK/iot_link/network/lwm2m/wakaama_lwm2m/wakaama-master/core\observe.c ****                         if ((watcherP->parameters->toSet & LWM2M_ATTR_FLAG_GREATER_THAN) != 0)
 764:C:/Users/²Ü¼ÒºÀ/.iotlink/sdk/IoT_LINK/iot_link/network/lwm2m/wakaama_lwm2m/wakaama-master/core\observe.c ****                         {
 765:C:/Users/²Ü¼ÒºÀ/.iotlink/sdk/IoT_LINK/iot_link/network/lwm2m/wakaama_lwm2m/wakaama-master/core\observe.c ****                             LOG("Checking upper threshold");
 766:C:/Users/²Ü¼ÒºÀ/.iotlink/sdk/IoT_LINK/iot_link/network/lwm2m/wakaama_lwm2m/wakaama-master/core\observe.c ****                             // Did we cross the upper threshold ?
 767:C:/Users/²Ü¼ÒºÀ/.iotlink/sdk/IoT_LINK/iot_link/network/lwm2m/wakaama_lwm2m/wakaama-master/core\observe.c ****                             switch (dataP->type)
 768:C:/Users/²Ü¼ÒºÀ/.iotlink/sdk/IoT_LINK/iot_link/network/lwm2m/wakaama_lwm2m/wakaama-master/core\observe.c ****                             {
 769:C:/Users/²Ü¼ÒºÀ/.iotlink/sdk/IoT_LINK/iot_link/network/lwm2m/wakaama_lwm2m/wakaama-master/core\observe.c ****                             case LWM2M_TYPE_INTEGER:
 770:C:/Users/²Ü¼ÒºÀ/.iotlink/sdk/IoT_LINK/iot_link/network/lwm2m/wakaama_lwm2m/wakaama-master/core\observe.c ****                                 if ((integerValue <= watcherP->parameters->greaterThan
 771:C:/Users/²Ü¼ÒºÀ/.iotlink/sdk/IoT_LINK/iot_link/network/lwm2m/wakaama_lwm2m/wakaama-master/core\observe.c ****                                         && watcherP->lastValue.asInteger > watcherP->parameters->gr
 772:C:/Users/²Ü¼ÒºÀ/.iotlink/sdk/IoT_LINK/iot_link/network/lwm2m/wakaama_lwm2m/wakaama-master/core\observe.c ****                                         || (integerValue >= watcherP->parameters->greaterThan
 773:C:/Users/²Ü¼ÒºÀ/.iotlink/sdk/IoT_LINK/iot_link/network/lwm2m/wakaama_lwm2m/wakaama-master/core\observe.c ****                                             && watcherP->lastValue.asInteger < watcherP->parameters
 774:C:/Users/²Ü¼ÒºÀ/.iotlink/sdk/IoT_LINK/iot_link/network/lwm2m/wakaama_lwm2m/wakaama-master/core\observe.c ****                                 {
 775:C:/Users/²Ü¼ÒºÀ/.iotlink/sdk/IoT_LINK/iot_link/network/lwm2m/wakaama_lwm2m/wakaama-master/core\observe.c ****                                     LOG("Notify on lower upper crossing");
 776:C:/Users/²Ü¼ÒºÀ/.iotlink/sdk/IoT_LINK/iot_link/network/lwm2m/wakaama_lwm2m/wakaama-master/core\observe.c ****                                     notify = true;
 777:C:/Users/²Ü¼ÒºÀ/.iotlink/sdk/IoT_LINK/iot_link/network/lwm2m/wakaama_lwm2m/wakaama-master/core\observe.c ****                                 }
 778:C:/Users/²Ü¼ÒºÀ/.iotlink/sdk/IoT_LINK/iot_link/network/lwm2m/wakaama_lwm2m/wakaama-master/core\observe.c ****                                 break;
 779:C:/Users/²Ü¼ÒºÀ/.iotlink/sdk/IoT_LINK/iot_link/network/lwm2m/wakaama_lwm2m/wakaama-master/core\observe.c ****                             case LWM2M_TYPE_FLOAT:
ARM GAS  C:\Users\²Ü¼ÒºÀ\AppData\Local\Temp\ccA6NNYh.s 			page 103


 780:C:/Users/²Ü¼ÒºÀ/.iotlink/sdk/IoT_LINK/iot_link/network/lwm2m/wakaama_lwm2m/wakaama-master/core\observe.c ****                                 if ((floatValue <= watcherP->parameters->greaterThan
 781:C:/Users/²Ü¼ÒºÀ/.iotlink/sdk/IoT_LINK/iot_link/network/lwm2m/wakaama_lwm2m/wakaama-master/core\observe.c ****                                         && watcherP->lastValue.asFloat > watcherP->parameters->grea
 782:C:/Users/²Ü¼ÒºÀ/.iotlink/sdk/IoT_LINK/iot_link/network/lwm2m/wakaama_lwm2m/wakaama-master/core\observe.c ****                                         || (floatValue >= watcherP->parameters->greaterThan
 783:C:/Users/²Ü¼ÒºÀ/.iotlink/sdk/IoT_LINK/iot_link/network/lwm2m/wakaama_lwm2m/wakaama-master/core\observe.c ****                                             && watcherP->lastValue.asFloat < watcherP->parameters->
 784:C:/Users/²Ü¼ÒºÀ/.iotlink/sdk/IoT_LINK/iot_link/network/lwm2m/wakaama_lwm2m/wakaama-master/core\observe.c ****                                 {
 785:C:/Users/²Ü¼ÒºÀ/.iotlink/sdk/IoT_LINK/iot_link/network/lwm2m/wakaama_lwm2m/wakaama-master/core\observe.c ****                                     LOG("Notify on lower upper crossing");
 786:C:/Users/²Ü¼ÒºÀ/.iotlink/sdk/IoT_LINK/iot_link/network/lwm2m/wakaama_lwm2m/wakaama-master/core\observe.c ****                                     notify = true;
 787:C:/Users/²Ü¼ÒºÀ/.iotlink/sdk/IoT_LINK/iot_link/network/lwm2m/wakaama_lwm2m/wakaama-master/core\observe.c ****                                 }
 788:C:/Users/²Ü¼ÒºÀ/.iotlink/sdk/IoT_LINK/iot_link/network/lwm2m/wakaama_lwm2m/wakaama-master/core\observe.c ****                                 break;
 789:C:/Users/²Ü¼ÒºÀ/.iotlink/sdk/IoT_LINK/iot_link/network/lwm2m/wakaama_lwm2m/wakaama-master/core\observe.c ****                             default:
 790:C:/Users/²Ü¼ÒºÀ/.iotlink/sdk/IoT_LINK/iot_link/network/lwm2m/wakaama_lwm2m/wakaama-master/core\observe.c ****                                 break;
 791:C:/Users/²Ü¼ÒºÀ/.iotlink/sdk/IoT_LINK/iot_link/network/lwm2m/wakaama_lwm2m/wakaama-master/core\observe.c ****                             }
 792:C:/Users/²Ü¼ÒºÀ/.iotlink/sdk/IoT_LINK/iot_link/network/lwm2m/wakaama_lwm2m/wakaama-master/core\observe.c ****                         }
 793:C:/Users/²Ü¼ÒºÀ/.iotlink/sdk/IoT_LINK/iot_link/network/lwm2m/wakaama_lwm2m/wakaama-master/core\observe.c ****                         if ((watcherP->parameters->toSet & LWM2M_ATTR_FLAG_STEP) != 0)
 794:C:/Users/²Ü¼ÒºÀ/.iotlink/sdk/IoT_LINK/iot_link/network/lwm2m/wakaama_lwm2m/wakaama-master/core\observe.c ****                         {
 795:C:/Users/²Ü¼ÒºÀ/.iotlink/sdk/IoT_LINK/iot_link/network/lwm2m/wakaama_lwm2m/wakaama-master/core\observe.c ****                             LOG("Checking step");
 796:C:/Users/²Ü¼ÒºÀ/.iotlink/sdk/IoT_LINK/iot_link/network/lwm2m/wakaama_lwm2m/wakaama-master/core\observe.c **** 
 797:C:/Users/²Ü¼ÒºÀ/.iotlink/sdk/IoT_LINK/iot_link/network/lwm2m/wakaama_lwm2m/wakaama-master/core\observe.c ****                             switch (dataP->type)
 798:C:/Users/²Ü¼ÒºÀ/.iotlink/sdk/IoT_LINK/iot_link/network/lwm2m/wakaama_lwm2m/wakaama-master/core\observe.c ****                             {
 799:C:/Users/²Ü¼ÒºÀ/.iotlink/sdk/IoT_LINK/iot_link/network/lwm2m/wakaama_lwm2m/wakaama-master/core\observe.c ****                             case LWM2M_TYPE_INTEGER:
 800:C:/Users/²Ü¼ÒºÀ/.iotlink/sdk/IoT_LINK/iot_link/network/lwm2m/wakaama_lwm2m/wakaama-master/core\observe.c ****                             {
 801:C:/Users/²Ü¼ÒºÀ/.iotlink/sdk/IoT_LINK/iot_link/network/lwm2m/wakaama_lwm2m/wakaama-master/core\observe.c ****                                 int64_t diff;
 802:C:/Users/²Ü¼ÒºÀ/.iotlink/sdk/IoT_LINK/iot_link/network/lwm2m/wakaama_lwm2m/wakaama-master/core\observe.c **** 
 803:C:/Users/²Ü¼ÒºÀ/.iotlink/sdk/IoT_LINK/iot_link/network/lwm2m/wakaama_lwm2m/wakaama-master/core\observe.c ****                                 diff = integerValue - watcherP->lastValue.asInteger;
 804:C:/Users/²Ü¼ÒºÀ/.iotlink/sdk/IoT_LINK/iot_link/network/lwm2m/wakaama_lwm2m/wakaama-master/core\observe.c ****                                 if ((diff < 0 && (0 - diff) >= watcherP->parameters->step)
 805:C:/Users/²Ü¼ÒºÀ/.iotlink/sdk/IoT_LINK/iot_link/network/lwm2m/wakaama_lwm2m/wakaama-master/core\observe.c ****                                         || (diff >= 0 && diff >= watcherP->parameters->step))
 806:C:/Users/²Ü¼ÒºÀ/.iotlink/sdk/IoT_LINK/iot_link/network/lwm2m/wakaama_lwm2m/wakaama-master/core\observe.c ****                                 {
 807:C:/Users/²Ü¼ÒºÀ/.iotlink/sdk/IoT_LINK/iot_link/network/lwm2m/wakaama_lwm2m/wakaama-master/core\observe.c ****                                     LOG("Notify on step condition");
 808:C:/Users/²Ü¼ÒºÀ/.iotlink/sdk/IoT_LINK/iot_link/network/lwm2m/wakaama_lwm2m/wakaama-master/core\observe.c ****                                     notify = true;
 809:C:/Users/²Ü¼ÒºÀ/.iotlink/sdk/IoT_LINK/iot_link/network/lwm2m/wakaama_lwm2m/wakaama-master/core\observe.c ****                                 }
 810:C:/Users/²Ü¼ÒºÀ/.iotlink/sdk/IoT_LINK/iot_link/network/lwm2m/wakaama_lwm2m/wakaama-master/core\observe.c ****                             }
 811:C:/Users/²Ü¼ÒºÀ/.iotlink/sdk/IoT_LINK/iot_link/network/lwm2m/wakaama_lwm2m/wakaama-master/core\observe.c ****                             break;
 812:C:/Users/²Ü¼ÒºÀ/.iotlink/sdk/IoT_LINK/iot_link/network/lwm2m/wakaama_lwm2m/wakaama-master/core\observe.c ****                             case LWM2M_TYPE_FLOAT:
 813:C:/Users/²Ü¼ÒºÀ/.iotlink/sdk/IoT_LINK/iot_link/network/lwm2m/wakaama_lwm2m/wakaama-master/core\observe.c ****                             {
 814:C:/Users/²Ü¼ÒºÀ/.iotlink/sdk/IoT_LINK/iot_link/network/lwm2m/wakaama_lwm2m/wakaama-master/core\observe.c ****                                 double diff;
 815:C:/Users/²Ü¼ÒºÀ/.iotlink/sdk/IoT_LINK/iot_link/network/lwm2m/wakaama_lwm2m/wakaama-master/core\observe.c **** 
 816:C:/Users/²Ü¼ÒºÀ/.iotlink/sdk/IoT_LINK/iot_link/network/lwm2m/wakaama_lwm2m/wakaama-master/core\observe.c ****                                 diff = floatValue - watcherP->lastValue.asFloat;
 817:C:/Users/²Ü¼ÒºÀ/.iotlink/sdk/IoT_LINK/iot_link/network/lwm2m/wakaama_lwm2m/wakaama-master/core\observe.c ****                                 if ((diff < 0 && (0 - diff) >= watcherP->parameters->step)
 818:C:/Users/²Ü¼ÒºÀ/.iotlink/sdk/IoT_LINK/iot_link/network/lwm2m/wakaama_lwm2m/wakaama-master/core\observe.c ****                                         || (diff >= 0 && diff >= watcherP->parameters->step))
 819:C:/Users/²Ü¼ÒºÀ/.iotlink/sdk/IoT_LINK/iot_link/network/lwm2m/wakaama_lwm2m/wakaama-master/core\observe.c ****                                 {
 820:C:/Users/²Ü¼ÒºÀ/.iotlink/sdk/IoT_LINK/iot_link/network/lwm2m/wakaama_lwm2m/wakaama-master/core\observe.c ****                                     LOG("Notify on step condition");
 821:C:/Users/²Ü¼ÒºÀ/.iotlink/sdk/IoT_LINK/iot_link/network/lwm2m/wakaama_lwm2m/wakaama-master/core\observe.c ****                                     notify = true;
 822:C:/Users/²Ü¼ÒºÀ/.iotlink/sdk/IoT_LINK/iot_link/network/lwm2m/wakaama_lwm2m/wakaama-master/core\observe.c ****                                 }
 823:C:/Users/²Ü¼ÒºÀ/.iotlink/sdk/IoT_LINK/iot_link/network/lwm2m/wakaama_lwm2m/wakaama-master/core\observe.c ****                             }
 824:C:/Users/²Ü¼ÒºÀ/.iotlink/sdk/IoT_LINK/iot_link/network/lwm2m/wakaama_lwm2m/wakaama-master/core\observe.c ****                             break;
 825:C:/Users/²Ü¼ÒºÀ/.iotlink/sdk/IoT_LINK/iot_link/network/lwm2m/wakaama_lwm2m/wakaama-master/core\observe.c ****                             default:
 826:C:/Users/²Ü¼ÒºÀ/.iotlink/sdk/IoT_LINK/iot_link/network/lwm2m/wakaama_lwm2m/wakaama-master/core\observe.c ****                                 break;
 827:C:/Users/²Ü¼ÒºÀ/.iotlink/sdk/IoT_LINK/iot_link/network/lwm2m/wakaama_lwm2m/wakaama-master/core\observe.c ****                             }
 828:C:/Users/²Ü¼ÒºÀ/.iotlink/sdk/IoT_LINK/iot_link/network/lwm2m/wakaama_lwm2m/wakaama-master/core\observe.c ****                         }
 829:C:/Users/²Ü¼ÒºÀ/.iotlink/sdk/IoT_LINK/iot_link/network/lwm2m/wakaama_lwm2m/wakaama-master/core\observe.c ****                     }
 830:C:/Users/²Ü¼ÒºÀ/.iotlink/sdk/IoT_LINK/iot_link/network/lwm2m/wakaama_lwm2m/wakaama-master/core\observe.c **** 
 831:C:/Users/²Ü¼ÒºÀ/.iotlink/sdk/IoT_LINK/iot_link/network/lwm2m/wakaama_lwm2m/wakaama-master/core\observe.c ****                     if (watcherP->parameters != NULL
 832:C:/Users/²Ü¼ÒºÀ/.iotlink/sdk/IoT_LINK/iot_link/network/lwm2m/wakaama_lwm2m/wakaama-master/core\observe.c ****                             && (watcherP->parameters->toSet & LWM2M_ATTR_FLAG_MIN_PERIOD) != 0)
 833:C:/Users/²Ü¼ÒºÀ/.iotlink/sdk/IoT_LINK/iot_link/network/lwm2m/wakaama_lwm2m/wakaama-master/core\observe.c ****                     {
 834:C:/Users/²Ü¼ÒºÀ/.iotlink/sdk/IoT_LINK/iot_link/network/lwm2m/wakaama_lwm2m/wakaama-master/core\observe.c ****                         LOG_ARG("Checking minimal period (%d s)", (int)watcherP->parameters->minPer
 835:C:/Users/²Ü¼ÒºÀ/.iotlink/sdk/IoT_LINK/iot_link/network/lwm2m/wakaama_lwm2m/wakaama-master/core\observe.c **** 
 836:C:/Users/²Ü¼ÒºÀ/.iotlink/sdk/IoT_LINK/iot_link/network/lwm2m/wakaama_lwm2m/wakaama-master/core\observe.c ****                         if (watcherP->lastTime + watcherP->parameters->minPeriod > currentTime)
ARM GAS  C:\Users\²Ü¼ÒºÀ\AppData\Local\Temp\ccA6NNYh.s 			page 104


 837:C:/Users/²Ü¼ÒºÀ/.iotlink/sdk/IoT_LINK/iot_link/network/lwm2m/wakaama_lwm2m/wakaama-master/core\observe.c ****                         {
 838:C:/Users/²Ü¼ÒºÀ/.iotlink/sdk/IoT_LINK/iot_link/network/lwm2m/wakaama_lwm2m/wakaama-master/core\observe.c ****                             // Minimum Period did not elapse yet
 839:C:/Users/²Ü¼ÒºÀ/.iotlink/sdk/IoT_LINK/iot_link/network/lwm2m/wakaama_lwm2m/wakaama-master/core\observe.c ****                             interval = watcherP->lastTime + watcherP->parameters->minPeriod - curre
 840:C:/Users/²Ü¼ÒºÀ/.iotlink/sdk/IoT_LINK/iot_link/network/lwm2m/wakaama_lwm2m/wakaama-master/core\observe.c ****                             if (*timeoutP > interval) *timeoutP = interval;
 841:C:/Users/²Ü¼ÒºÀ/.iotlink/sdk/IoT_LINK/iot_link/network/lwm2m/wakaama_lwm2m/wakaama-master/core\observe.c ****                             notify = false;
 842:C:/Users/²Ü¼ÒºÀ/.iotlink/sdk/IoT_LINK/iot_link/network/lwm2m/wakaama_lwm2m/wakaama-master/core\observe.c ****                         }
 843:C:/Users/²Ü¼ÒºÀ/.iotlink/sdk/IoT_LINK/iot_link/network/lwm2m/wakaama_lwm2m/wakaama-master/core\observe.c ****                         else
 844:C:/Users/²Ü¼ÒºÀ/.iotlink/sdk/IoT_LINK/iot_link/network/lwm2m/wakaama_lwm2m/wakaama-master/core\observe.c ****                         {
 845:C:/Users/²Ü¼ÒºÀ/.iotlink/sdk/IoT_LINK/iot_link/network/lwm2m/wakaama_lwm2m/wakaama-master/core\observe.c ****                             LOG("Notify on minimal period");
 846:C:/Users/²Ü¼ÒºÀ/.iotlink/sdk/IoT_LINK/iot_link/network/lwm2m/wakaama_lwm2m/wakaama-master/core\observe.c ****                             notify = true;
 847:C:/Users/²Ü¼ÒºÀ/.iotlink/sdk/IoT_LINK/iot_link/network/lwm2m/wakaama_lwm2m/wakaama-master/core\observe.c ****                         }
 848:C:/Users/²Ü¼ÒºÀ/.iotlink/sdk/IoT_LINK/iot_link/network/lwm2m/wakaama_lwm2m/wakaama-master/core\observe.c ****                     }
 849:C:/Users/²Ü¼ÒºÀ/.iotlink/sdk/IoT_LINK/iot_link/network/lwm2m/wakaama_lwm2m/wakaama-master/core\observe.c ****                 }
 850:C:/Users/²Ü¼ÒºÀ/.iotlink/sdk/IoT_LINK/iot_link/network/lwm2m/wakaama_lwm2m/wakaama-master/core\observe.c **** 
 851:C:/Users/²Ü¼ÒºÀ/.iotlink/sdk/IoT_LINK/iot_link/network/lwm2m/wakaama_lwm2m/wakaama-master/core\observe.c ****                 // Is the Maximum Period reached ?
 852:C:/Users/²Ü¼ÒºÀ/.iotlink/sdk/IoT_LINK/iot_link/network/lwm2m/wakaama_lwm2m/wakaama-master/core\observe.c ****                 if (notify == false
 853:C:/Users/²Ü¼ÒºÀ/.iotlink/sdk/IoT_LINK/iot_link/network/lwm2m/wakaama_lwm2m/wakaama-master/core\observe.c ****                         && watcherP->parameters != NULL
 854:C:/Users/²Ü¼ÒºÀ/.iotlink/sdk/IoT_LINK/iot_link/network/lwm2m/wakaama_lwm2m/wakaama-master/core\observe.c ****                         && (watcherP->parameters->toSet & LWM2M_ATTR_FLAG_MAX_PERIOD) != 0)
 855:C:/Users/²Ü¼ÒºÀ/.iotlink/sdk/IoT_LINK/iot_link/network/lwm2m/wakaama_lwm2m/wakaama-master/core\observe.c ****                 {
 856:C:/Users/²Ü¼ÒºÀ/.iotlink/sdk/IoT_LINK/iot_link/network/lwm2m/wakaama_lwm2m/wakaama-master/core\observe.c ****                     LOG_ARG("Checking maximal period (%d s)",(int) watcherP->parameters->maxPeriod)
 857:C:/Users/²Ü¼ÒºÀ/.iotlink/sdk/IoT_LINK/iot_link/network/lwm2m/wakaama_lwm2m/wakaama-master/core\observe.c **** 
 858:C:/Users/²Ü¼ÒºÀ/.iotlink/sdk/IoT_LINK/iot_link/network/lwm2m/wakaama_lwm2m/wakaama-master/core\observe.c ****                     if (watcherP->lastTime + watcherP->parameters->maxPeriod <= currentTime)
 859:C:/Users/²Ü¼ÒºÀ/.iotlink/sdk/IoT_LINK/iot_link/network/lwm2m/wakaama_lwm2m/wakaama-master/core\observe.c ****                     {
 860:C:/Users/²Ü¼ÒºÀ/.iotlink/sdk/IoT_LINK/iot_link/network/lwm2m/wakaama_lwm2m/wakaama-master/core\observe.c ****                         LOG("Notify on maximal period");
 861:C:/Users/²Ü¼ÒºÀ/.iotlink/sdk/IoT_LINK/iot_link/network/lwm2m/wakaama_lwm2m/wakaama-master/core\observe.c ****                         notify = true;
 862:C:/Users/²Ü¼ÒºÀ/.iotlink/sdk/IoT_LINK/iot_link/network/lwm2m/wakaama_lwm2m/wakaama-master/core\observe.c ****                     }
 863:C:/Users/²Ü¼ÒºÀ/.iotlink/sdk/IoT_LINK/iot_link/network/lwm2m/wakaama_lwm2m/wakaama-master/core\observe.c ****                 }
 864:C:/Users/²Ü¼ÒºÀ/.iotlink/sdk/IoT_LINK/iot_link/network/lwm2m/wakaama_lwm2m/wakaama-master/core\observe.c **** 
 865:C:/Users/²Ü¼ÒºÀ/.iotlink/sdk/IoT_LINK/iot_link/network/lwm2m/wakaama_lwm2m/wakaama-master/core\observe.c ****                 if (notify == true)
 866:C:/Users/²Ü¼ÒºÀ/.iotlink/sdk/IoT_LINK/iot_link/network/lwm2m/wakaama_lwm2m/wakaama-master/core\observe.c ****                 {
 867:C:/Users/²Ü¼ÒºÀ/.iotlink/sdk/IoT_LINK/iot_link/network/lwm2m/wakaama_lwm2m/wakaama-master/core\observe.c ****                     if (buffer == NULL)
 868:C:/Users/²Ü¼ÒºÀ/.iotlink/sdk/IoT_LINK/iot_link/network/lwm2m/wakaama_lwm2m/wakaama-master/core\observe.c ****                     {
 869:C:/Users/²Ü¼ÒºÀ/.iotlink/sdk/IoT_LINK/iot_link/network/lwm2m/wakaama_lwm2m/wakaama-master/core\observe.c ****                         if (dataP != NULL)
 870:C:/Users/²Ü¼ÒºÀ/.iotlink/sdk/IoT_LINK/iot_link/network/lwm2m/wakaama_lwm2m/wakaama-master/core\observe.c ****                         {
 871:C:/Users/²Ü¼ÒºÀ/.iotlink/sdk/IoT_LINK/iot_link/network/lwm2m/wakaama_lwm2m/wakaama-master/core\observe.c ****                             int res;
 872:C:/Users/²Ü¼ÒºÀ/.iotlink/sdk/IoT_LINK/iot_link/network/lwm2m/wakaama_lwm2m/wakaama-master/core\observe.c **** 
 873:C:/Users/²Ü¼ÒºÀ/.iotlink/sdk/IoT_LINK/iot_link/network/lwm2m/wakaama_lwm2m/wakaama-master/core\observe.c ****                             res = lwm2m_data_serialize(&targetP->uri, size, dataP, &(watcherP->form
 874:C:/Users/²Ü¼ÒºÀ/.iotlink/sdk/IoT_LINK/iot_link/network/lwm2m/wakaama_lwm2m/wakaama-master/core\observe.c ****                             if (res < 0)
 875:C:/Users/²Ü¼ÒºÀ/.iotlink/sdk/IoT_LINK/iot_link/network/lwm2m/wakaama_lwm2m/wakaama-master/core\observe.c ****                             {
 876:C:/Users/²Ü¼ÒºÀ/.iotlink/sdk/IoT_LINK/iot_link/network/lwm2m/wakaama_lwm2m/wakaama-master/core\observe.c ****                                 break;
 877:C:/Users/²Ü¼ÒºÀ/.iotlink/sdk/IoT_LINK/iot_link/network/lwm2m/wakaama_lwm2m/wakaama-master/core\observe.c ****                             }
 878:C:/Users/²Ü¼ÒºÀ/.iotlink/sdk/IoT_LINK/iot_link/network/lwm2m/wakaama_lwm2m/wakaama-master/core\observe.c ****                             else
 879:C:/Users/²Ü¼ÒºÀ/.iotlink/sdk/IoT_LINK/iot_link/network/lwm2m/wakaama_lwm2m/wakaama-master/core\observe.c ****                             {
 880:C:/Users/²Ü¼ÒºÀ/.iotlink/sdk/IoT_LINK/iot_link/network/lwm2m/wakaama_lwm2m/wakaama-master/core\observe.c ****                                 length = (size_t)res;
 881:C:/Users/²Ü¼ÒºÀ/.iotlink/sdk/IoT_LINK/iot_link/network/lwm2m/wakaama_lwm2m/wakaama-master/core\observe.c ****                             }
 882:C:/Users/²Ü¼ÒºÀ/.iotlink/sdk/IoT_LINK/iot_link/network/lwm2m/wakaama_lwm2m/wakaama-master/core\observe.c **** 
 883:C:/Users/²Ü¼ÒºÀ/.iotlink/sdk/IoT_LINK/iot_link/network/lwm2m/wakaama_lwm2m/wakaama-master/core\observe.c ****                         }
 884:C:/Users/²Ü¼ÒºÀ/.iotlink/sdk/IoT_LINK/iot_link/network/lwm2m/wakaama_lwm2m/wakaama-master/core\observe.c ****                         else
 885:C:/Users/²Ü¼ÒºÀ/.iotlink/sdk/IoT_LINK/iot_link/network/lwm2m/wakaama_lwm2m/wakaama-master/core\observe.c ****                         {
 886:C:/Users/²Ü¼ÒºÀ/.iotlink/sdk/IoT_LINK/iot_link/network/lwm2m/wakaama_lwm2m/wakaama-master/core\observe.c ****                             if (COAP_205_CONTENT != object_read(contextP, &targetP->uri, &(watcherP
 887:C:/Users/²Ü¼ÒºÀ/.iotlink/sdk/IoT_LINK/iot_link/network/lwm2m/wakaama_lwm2m/wakaama-master/core\observe.c ****                             {
 888:C:/Users/²Ü¼ÒºÀ/.iotlink/sdk/IoT_LINK/iot_link/network/lwm2m/wakaama_lwm2m/wakaama-master/core\observe.c ****                                 buffer = NULL;
 889:C:/Users/²Ü¼ÒºÀ/.iotlink/sdk/IoT_LINK/iot_link/network/lwm2m/wakaama_lwm2m/wakaama-master/core\observe.c ****                                 break;
 890:C:/Users/²Ü¼ÒºÀ/.iotlink/sdk/IoT_LINK/iot_link/network/lwm2m/wakaama_lwm2m/wakaama-master/core\observe.c ****                             }
 891:C:/Users/²Ü¼ÒºÀ/.iotlink/sdk/IoT_LINK/iot_link/network/lwm2m/wakaama_lwm2m/wakaama-master/core\observe.c ****                         }
 892:C:/Users/²Ü¼ÒºÀ/.iotlink/sdk/IoT_LINK/iot_link/network/lwm2m/wakaama_lwm2m/wakaama-master/core\observe.c **** 
 893:C:/Users/²Ü¼ÒºÀ/.iotlink/sdk/IoT_LINK/iot_link/network/lwm2m/wakaama_lwm2m/wakaama-master/core\observe.c ****                         if(NULL == cfg.callback)
ARM GAS  C:\Users\²Ü¼ÒºÀ\AppData\Local\Temp\ccA6NNYh.s 			page 105


 894:C:/Users/²Ü¼ÒºÀ/.iotlink/sdk/IoT_LINK/iot_link/network/lwm2m/wakaama_lwm2m/wakaama-master/core\observe.c ****                         {
 895:C:/Users/²Ü¼ÒºÀ/.iotlink/sdk/IoT_LINK/iot_link/network/lwm2m/wakaama_lwm2m/wakaama-master/core\observe.c ****                             coap_init_message(message, COAP_TYPE_NON, COAP_205_CONTENT, 0);
 896:C:/Users/²Ü¼ÒºÀ/.iotlink/sdk/IoT_LINK/iot_link/network/lwm2m/wakaama_lwm2m/wakaama-master/core\observe.c ****                             coap_set_header_content_type(message, watcherP->format);
 897:C:/Users/²Ü¼ÒºÀ/.iotlink/sdk/IoT_LINK/iot_link/network/lwm2m/wakaama_lwm2m/wakaama-master/core\observe.c ****                             coap_set_payload(message, buffer, length);
 898:C:/Users/²Ü¼ÒºÀ/.iotlink/sdk/IoT_LINK/iot_link/network/lwm2m/wakaama_lwm2m/wakaama-master/core\observe.c ****                             LOG_ARG("non observe, msgid:%d", (int)message->mid);
 899:C:/Users/²Ü¼ÒºÀ/.iotlink/sdk/IoT_LINK/iot_link/network/lwm2m/wakaama_lwm2m/wakaama-master/core\observe.c ****                         }
 900:C:/Users/²Ü¼ÒºÀ/.iotlink/sdk/IoT_LINK/iot_link/network/lwm2m/wakaama_lwm2m/wakaama-master/core\observe.c ****                     }
 901:C:/Users/²Ü¼ÒºÀ/.iotlink/sdk/IoT_LINK/iot_link/network/lwm2m/wakaama_lwm2m/wakaama-master/core\observe.c **** 
 902:C:/Users/²Ü¼ÒºÀ/.iotlink/sdk/IoT_LINK/iot_link/network/lwm2m/wakaama_lwm2m/wakaama-master/core\observe.c ****                     watcherP->lastTime = currentTime;
 903:C:/Users/²Ü¼ÒºÀ/.iotlink/sdk/IoT_LINK/iot_link/network/lwm2m/wakaama_lwm2m/wakaama-master/core\observe.c ****                     watcherP->lastMid = contextP->nextMID++;
 904:C:/Users/²Ü¼ÒºÀ/.iotlink/sdk/IoT_LINK/iot_link/network/lwm2m/wakaama_lwm2m/wakaama-master/core\observe.c ****                     if(NULL == cfg.callback)
 905:C:/Users/²Ü¼ÒºÀ/.iotlink/sdk/IoT_LINK/iot_link/network/lwm2m/wakaama_lwm2m/wakaama-master/core\observe.c ****                     {
 906:C:/Users/²Ü¼ÒºÀ/.iotlink/sdk/IoT_LINK/iot_link/network/lwm2m/wakaama_lwm2m/wakaama-master/core\observe.c **** 
 907:C:/Users/²Ü¼ÒºÀ/.iotlink/sdk/IoT_LINK/iot_link/network/lwm2m/wakaama_lwm2m/wakaama-master/core\observe.c ****                         message->mid = watcherP->lastMid;
 908:C:/Users/²Ü¼ÒºÀ/.iotlink/sdk/IoT_LINK/iot_link/network/lwm2m/wakaama_lwm2m/wakaama-master/core\observe.c ****                         coap_set_header_token(message, watcherP->token, watcherP->tokenLen);
 909:C:/Users/²Ü¼ÒºÀ/.iotlink/sdk/IoT_LINK/iot_link/network/lwm2m/wakaama_lwm2m/wakaama-master/core\observe.c ****                         coap_set_header_observe(message, watcherP->counter++);
 910:C:/Users/²Ü¼ÒºÀ/.iotlink/sdk/IoT_LINK/iot_link/network/lwm2m/wakaama_lwm2m/wakaama-master/core\observe.c ****                         (void)message_send(contextP, message, watcherP->server->sessionH);
 911:C:/Users/²Ü¼ÒºÀ/.iotlink/sdk/IoT_LINK/iot_link/network/lwm2m/wakaama_lwm2m/wakaama-master/core\observe.c **** 
 912:C:/Users/²Ü¼ÒºÀ/.iotlink/sdk/IoT_LINK/iot_link/network/lwm2m/wakaama_lwm2m/wakaama-master/core\observe.c ****                     }
 913:C:/Users/²Ü¼ÒºÀ/.iotlink/sdk/IoT_LINK/iot_link/network/lwm2m/wakaama_lwm2m/wakaama-master/core\observe.c ****                     else
 914:C:/Users/²Ü¼ÒºÀ/.iotlink/sdk/IoT_LINK/iot_link/network/lwm2m/wakaama_lwm2m/wakaama-master/core\observe.c ****                     {
 915:C:/Users/²Ü¼ÒºÀ/.iotlink/sdk/IoT_LINK/iot_link/network/lwm2m/wakaama_lwm2m/wakaama-master/core\observe.c ****                         (void)observe_send_transaction(contextP, &cfg, watcherP, buffer, length);
 916:C:/Users/²Ü¼ÒºÀ/.iotlink/sdk/IoT_LINK/iot_link/network/lwm2m/wakaama_lwm2m/wakaama-master/core\observe.c ****                     }
 917:C:/Users/²Ü¼ÒºÀ/.iotlink/sdk/IoT_LINK/iot_link/network/lwm2m/wakaama_lwm2m/wakaama-master/core\observe.c ****                     osal_mutex_lock(contextP->observe_mutex);
 918:C:/Users/²Ü¼ÒºÀ/.iotlink/sdk/IoT_LINK/iot_link/network/lwm2m/wakaama_lwm2m/wakaama-master/core\observe.c ****                     watcherP->update = false;
 919:C:/Users/²Ü¼ÒºÀ/.iotlink/sdk/IoT_LINK/iot_link/network/lwm2m/wakaama_lwm2m/wakaama-master/core\observe.c ****                     (void) osal_mutex_unlock(contextP->observe_mutex);
 920:C:/Users/²Ü¼ÒºÀ/.iotlink/sdk/IoT_LINK/iot_link/network/lwm2m/wakaama_lwm2m/wakaama-master/core\observe.c ****                 }
 921:C:/Users/²Ü¼ÒºÀ/.iotlink/sdk/IoT_LINK/iot_link/network/lwm2m/wakaama_lwm2m/wakaama-master/core\observe.c **** 
 922:C:/Users/²Ü¼ÒºÀ/.iotlink/sdk/IoT_LINK/iot_link/network/lwm2m/wakaama_lwm2m/wakaama-master/core\observe.c ****                 // Store this value
 923:C:/Users/²Ü¼ÒºÀ/.iotlink/sdk/IoT_LINK/iot_link/network/lwm2m/wakaama_lwm2m/wakaama-master/core\observe.c ****                 if (notify == true && storeValue == true)
 924:C:/Users/²Ü¼ÒºÀ/.iotlink/sdk/IoT_LINK/iot_link/network/lwm2m/wakaama_lwm2m/wakaama-master/core\observe.c ****                 {
 925:C:/Users/²Ü¼ÒºÀ/.iotlink/sdk/IoT_LINK/iot_link/network/lwm2m/wakaama_lwm2m/wakaama-master/core\observe.c ****                     switch (dataP->type)
 926:C:/Users/²Ü¼ÒºÀ/.iotlink/sdk/IoT_LINK/iot_link/network/lwm2m/wakaama_lwm2m/wakaama-master/core\observe.c ****                     {
 927:C:/Users/²Ü¼ÒºÀ/.iotlink/sdk/IoT_LINK/iot_link/network/lwm2m/wakaama_lwm2m/wakaama-master/core\observe.c ****                     case LWM2M_TYPE_INTEGER:
 928:C:/Users/²Ü¼ÒºÀ/.iotlink/sdk/IoT_LINK/iot_link/network/lwm2m/wakaama_lwm2m/wakaama-master/core\observe.c ****                         watcherP->lastValue.asInteger = integerValue;
 929:C:/Users/²Ü¼ÒºÀ/.iotlink/sdk/IoT_LINK/iot_link/network/lwm2m/wakaama_lwm2m/wakaama-master/core\observe.c ****                         break;
 930:C:/Users/²Ü¼ÒºÀ/.iotlink/sdk/IoT_LINK/iot_link/network/lwm2m/wakaama_lwm2m/wakaama-master/core\observe.c ****                     case LWM2M_TYPE_FLOAT:
 931:C:/Users/²Ü¼ÒºÀ/.iotlink/sdk/IoT_LINK/iot_link/network/lwm2m/wakaama_lwm2m/wakaama-master/core\observe.c ****                         watcherP->lastValue.asFloat = floatValue;
 932:C:/Users/²Ü¼ÒºÀ/.iotlink/sdk/IoT_LINK/iot_link/network/lwm2m/wakaama_lwm2m/wakaama-master/core\observe.c ****                         break;
 933:C:/Users/²Ü¼ÒºÀ/.iotlink/sdk/IoT_LINK/iot_link/network/lwm2m/wakaama_lwm2m/wakaama-master/core\observe.c ****                     default:
 934:C:/Users/²Ü¼ÒºÀ/.iotlink/sdk/IoT_LINK/iot_link/network/lwm2m/wakaama_lwm2m/wakaama-master/core\observe.c ****                         break;
 935:C:/Users/²Ü¼ÒºÀ/.iotlink/sdk/IoT_LINK/iot_link/network/lwm2m/wakaama_lwm2m/wakaama-master/core\observe.c ****                     }
 936:C:/Users/²Ü¼ÒºÀ/.iotlink/sdk/IoT_LINK/iot_link/network/lwm2m/wakaama_lwm2m/wakaama-master/core\observe.c ****                 }
 937:C:/Users/²Ü¼ÒºÀ/.iotlink/sdk/IoT_LINK/iot_link/network/lwm2m/wakaama_lwm2m/wakaama-master/core\observe.c **** 
 938:C:/Users/²Ü¼ÒºÀ/.iotlink/sdk/IoT_LINK/iot_link/network/lwm2m/wakaama_lwm2m/wakaama-master/core\observe.c ****                 if (watcherP->parameters != NULL && (watcherP->parameters->toSet & LWM2M_ATTR_FLAG_
 939:C:/Users/²Ü¼ÒºÀ/.iotlink/sdk/IoT_LINK/iot_link/network/lwm2m/wakaama_lwm2m/wakaama-master/core\observe.c ****                 {
 940:C:/Users/²Ü¼ÒºÀ/.iotlink/sdk/IoT_LINK/iot_link/network/lwm2m/wakaama_lwm2m/wakaama-master/core\observe.c ****                     // update timers
 941:C:/Users/²Ü¼ÒºÀ/.iotlink/sdk/IoT_LINK/iot_link/network/lwm2m/wakaama_lwm2m/wakaama-master/core\observe.c ****                     interval = watcherP->lastTime + watcherP->parameters->maxPeriod - currentTime;
 942:C:/Users/²Ü¼ÒºÀ/.iotlink/sdk/IoT_LINK/iot_link/network/lwm2m/wakaama_lwm2m/wakaama-master/core\observe.c ****                     if (*timeoutP > interval) *timeoutP = interval;
 943:C:/Users/²Ü¼ÒºÀ/.iotlink/sdk/IoT_LINK/iot_link/network/lwm2m/wakaama_lwm2m/wakaama-master/core\observe.c ****                 }
 944:C:/Users/²Ü¼ÒºÀ/.iotlink/sdk/IoT_LINK/iot_link/network/lwm2m/wakaama_lwm2m/wakaama-master/core\observe.c ****             }
 945:C:/Users/²Ü¼ÒºÀ/.iotlink/sdk/IoT_LINK/iot_link/network/lwm2m/wakaama_lwm2m/wakaama-master/core\observe.c ****         }
 946:C:/Users/²Ü¼ÒºÀ/.iotlink/sdk/IoT_LINK/iot_link/network/lwm2m/wakaama_lwm2m/wakaama-master/core\observe.c ****         if (dataP != NULL) lwm2m_data_free(size, dataP);
 947:C:/Users/²Ü¼ÒºÀ/.iotlink/sdk/IoT_LINK/iot_link/network/lwm2m/wakaama_lwm2m/wakaama-master/core\observe.c ****         if (buffer != NULL) lwm2m_free(buffer);
 948:C:/Users/²Ü¼ÒºÀ/.iotlink/sdk/IoT_LINK/iot_link/network/lwm2m/wakaama_lwm2m/wakaama-master/core\observe.c ****     }
 949:C:/Users/²Ü¼ÒºÀ/.iotlink/sdk/IoT_LINK/iot_link/network/lwm2m/wakaama_lwm2m/wakaama-master/core\observe.c **** }
 4067              		.loc 1 949 1 view .LVU1057
ARM GAS  C:\Users\²Ü¼ÒºÀ\AppData\Local\Temp\ccA6NNYh.s 			page 106


 4068 0058 41B0     		add	sp, sp, #260
 4069              	.LCFI41:
 4070              		.cfi_remember_state
 4071              		.cfi_def_cfa_offset 44
 4072              		@ sp needed
 4073 005a BDEC028B 		vldm	sp!, {d8}
 4074              	.LCFI42:
 4075              		.cfi_restore 80
 4076              		.cfi_restore 81
 4077              		.cfi_def_cfa_offset 36
 4078 005e BDE8F08F 		pop	{r4, r5, r6, r7, r8, r9, r10, fp, pc}
 4079              	.LVL421:
 4080              	.L460:
 4081              	.LCFI43:
 4082              		.cfi_restore_state
 4083              	.LBB40:
 664:C:/Users/²Ü¼ÒºÀ/.iotlink/sdk/IoT_LINK/iot_link/network/lwm2m/wakaama_lwm2m/wakaama-master/core\observe.c ****         uint8_t *buffer = NULL;
 4084              		.loc 1 664 9 is_stmt 1 view .LVU1058
 665:C:/Users/²Ü¼ÒºÀ/.iotlink/sdk/IoT_LINK/iot_link/network/lwm2m/wakaama_lwm2m/wakaama-master/core\observe.c ****         size_t length = 0;
 4085              		.loc 1 665 9 view .LVU1059
 665:C:/Users/²Ü¼ÒºÀ/.iotlink/sdk/IoT_LINK/iot_link/network/lwm2m/wakaama_lwm2m/wakaama-master/core\observe.c ****         size_t length = 0;
 4086              		.loc 1 665 18 is_stmt 0 view .LVU1060
 4087 0062 0023     		movs	r3, #0
 670:C:/Users/²Ü¼ÒºÀ/.iotlink/sdk/IoT_LINK/iot_link/network/lwm2m/wakaama_lwm2m/wakaama-master/core\observe.c ****         int64_t integerValue = 0;
 4088              		.loc 1 670 16 view .LVU1061
 4089 0064 9FED467B 		vldr.64	d7, .L526
 666:C:/Users/²Ü¼ÒºÀ/.iotlink/sdk/IoT_LINK/iot_link/network/lwm2m/wakaama_lwm2m/wakaama-master/core\observe.c ****         lwm2m_data_t *dataP = NULL;
 4090              		.loc 1 666 16 view .LVU1062
 4091 0068 CDE91233 		strd	r3, r3, [sp, #72]
 667:C:/Users/²Ü¼ÒºÀ/.iotlink/sdk/IoT_LINK/iot_link/network/lwm2m/wakaama_lwm2m/wakaama-master/core\observe.c ****         lwm2m_data_cfg_t  cfg = {0, 0, NULL};
 4092              		.loc 1 667 9 is_stmt 1 view .LVU1063
 668:C:/Users/²Ü¼ÒºÀ/.iotlink/sdk/IoT_LINK/iot_link/network/lwm2m/wakaama_lwm2m/wakaama-master/core\observe.c ****         int size = 0;
 4093              		.loc 1 668 27 is_stmt 0 view .LVU1064
 4094 006c CDE91A33 		strd	r3, r3, [sp, #104]
 667:C:/Users/²Ü¼ÒºÀ/.iotlink/sdk/IoT_LINK/iot_link/network/lwm2m/wakaama_lwm2m/wakaama-master/core\observe.c ****         lwm2m_data_cfg_t  cfg = {0, 0, NULL};
 4095              		.loc 1 667 23 view .LVU1065
 4096 0070 1493     		str	r3, [sp, #80]
 668:C:/Users/²Ü¼ÒºÀ/.iotlink/sdk/IoT_LINK/iot_link/network/lwm2m/wakaama_lwm2m/wakaama-master/core\observe.c ****         int size = 0;
 4097              		.loc 1 668 9 is_stmt 1 view .LVU1066
 668:C:/Users/²Ü¼ÒºÀ/.iotlink/sdk/IoT_LINK/iot_link/network/lwm2m/wakaama_lwm2m/wakaama-master/core\observe.c ****         int size = 0;
 4098              		.loc 1 668 27 is_stmt 0 view .LVU1067
 4099 0072 1C93     		str	r3, [sp, #112]
 669:C:/Users/²Ü¼ÒºÀ/.iotlink/sdk/IoT_LINK/iot_link/network/lwm2m/wakaama_lwm2m/wakaama-master/core\observe.c ****         double floatValue = 0;
 4100              		.loc 1 669 9 is_stmt 1 view .LVU1068
 669:C:/Users/²Ü¼ÒºÀ/.iotlink/sdk/IoT_LINK/iot_link/network/lwm2m/wakaama_lwm2m/wakaama-master/core\observe.c ****         double floatValue = 0;
 4101              		.loc 1 669 13 is_stmt 0 view .LVU1069
 4102 0074 1593     		str	r3, [sp, #84]
 670:C:/Users/²Ü¼ÒºÀ/.iotlink/sdk/IoT_LINK/iot_link/network/lwm2m/wakaama_lwm2m/wakaama-master/core\observe.c ****         int64_t integerValue = 0;
 4103              		.loc 1 670 9 is_stmt 1 view .LVU1070
 671:C:/Users/²Ü¼ÒºÀ/.iotlink/sdk/IoT_LINK/iot_link/network/lwm2m/wakaama_lwm2m/wakaama-master/core\observe.c ****         bool storeValue = false;
 4104              		.loc 1 671 17 is_stmt 0 view .LVU1071
 4105 0076 0024     		movs	r4, #0
 4106 0078 0023     		movs	r3, #0
 4107 007a CDE91834 		strd	r3, [sp, #96]
 676:C:/Users/²Ü¼ÒºÀ/.iotlink/sdk/IoT_LINK/iot_link/network/lwm2m/wakaama_lwm2m/wakaama-master/core\observe.c **** 
 4108              		.loc 1 676 9 view .LVU1072
 4109 007e 0BF10403 		add	r3, fp, #4
ARM GAS  C:\Users\²Ü¼ÒºÀ\AppData\Local\Temp\ccA6NNYh.s 			page 107


 670:C:/Users/²Ü¼ÒºÀ/.iotlink/sdk/IoT_LINK/iot_link/network/lwm2m/wakaama_lwm2m/wakaama-master/core\observe.c ****         int64_t integerValue = 0;
 4110              		.loc 1 670 16 view .LVU1073
 4111 0082 8DED167B 		vstr.64	d7, [sp, #88]
 671:C:/Users/²Ü¼ÒºÀ/.iotlink/sdk/IoT_LINK/iot_link/network/lwm2m/wakaama_lwm2m/wakaama-master/core\observe.c ****         bool storeValue = false;
 4112              		.loc 1 671 9 is_stmt 1 view .LVU1074
 672:C:/Users/²Ü¼ÒºÀ/.iotlink/sdk/IoT_LINK/iot_link/network/lwm2m/wakaama_lwm2m/wakaama-master/core\observe.c ****         coap_packet_t message[1];
 4113              		.loc 1 672 9 view .LVU1075
 4114              	.LVL422:
 673:C:/Users/²Ü¼ÒºÀ/.iotlink/sdk/IoT_LINK/iot_link/network/lwm2m/wakaama_lwm2m/wakaama-master/core\observe.c ****         time_t interval;
 4115              		.loc 1 673 9 view .LVU1076
 674:C:/Users/²Ü¼ÒºÀ/.iotlink/sdk/IoT_LINK/iot_link/network/lwm2m/wakaama_lwm2m/wakaama-master/core\observe.c **** 
 4116              		.loc 1 674 9 view .LVU1077
 676:C:/Users/²Ü¼ÒºÀ/.iotlink/sdk/IoT_LINK/iot_link/network/lwm2m/wakaama_lwm2m/wakaama-master/core\observe.c **** 
 4117              		.loc 1 676 9 view .LVU1078
 4118 0086 08EE103A 		vmov	s16, r3	@ int
 676:C:/Users/²Ü¼ÒºÀ/.iotlink/sdk/IoT_LINK/iot_link/network/lwm2m/wakaama_lwm2m/wakaama-master/core\observe.c **** 
 4119              		.loc 1 676 9 view .LVU1079
 676:C:/Users/²Ü¼ÒºÀ/.iotlink/sdk/IoT_LINK/iot_link/network/lwm2m/wakaama_lwm2m/wakaama-master/core\observe.c **** 
 4120              		.loc 1 676 9 view .LVU1080
 4121 008a FFF7FEFF 		bl	link_log_level_get
 4122              	.LVL423:
 4123 008e 0128     		cmp	r0, #1
 4124 0090 18D8     		bhi	.L355
 676:C:/Users/²Ü¼ÒºÀ/.iotlink/sdk/IoT_LINK/iot_link/network/lwm2m/wakaama_lwm2m/wakaama-master/core\observe.c **** 
 4125              		.loc 1 676 9 discriminator 6 view .LVU1081
 676:C:/Users/²Ü¼ÒºÀ/.iotlink/sdk/IoT_LINK/iot_link/network/lwm2m/wakaama_lwm2m/wakaama-master/core\observe.c **** 
 4126              		.loc 1 676 9 discriminator 6 view .LVU1082
 676:C:/Users/²Ü¼ÒºÀ/.iotlink/sdk/IoT_LINK/iot_link/network/lwm2m/wakaama_lwm2m/wakaama-master/core\observe.c **** 
 4127              		.loc 1 676 9 discriminator 6 view .LVU1083
 4128 0092 0120     		movs	r0, #1
 4129 0094 FFF7FEFF 		bl	link_log_level_name
 4130              	.LVL424:
 4131 0098 0446     		mov	r4, r0
 4132 009a FFF7FEFF 		bl	osal_sys_time
 4133              	.LVL425:
 4134 009e BBF80630 		ldrh	r3, [fp, #6]
 4135 00a2 0293     		str	r3, [sp, #8]
 4136 00a4 4FF42973 		mov	r3, #676
 4137 00a8 0193     		str	r3, [sp, #4]
 4138 00aa 374B     		ldr	r3, .L526+8
 4139 00ac 0093     		str	r3, [sp]
 4140 00ae 0246     		mov	r2, r0
 4141 00b0 364B     		ldr	r3, .L526+12
 4142 00b2 3948     		ldr	r0, .L526+24
 4143 00b4 2146     		mov	r1, r4
 4144 00b6 FFF7FEFF 		bl	printf
 4145              	.LVL426:
 676:C:/Users/²Ü¼ÒºÀ/.iotlink/sdk/IoT_LINK/iot_link/network/lwm2m/wakaama_lwm2m/wakaama-master/core\observe.c **** 
 4146              		.loc 1 676 9 discriminator 6 view .LVU1084
 4147 00ba 364B     		ldr	r3, .L526+20
 4148 00bc 1B68     		ldr	r3, [r3]
 4149 00be 9868     		ldr	r0, [r3, #8]
 4150 00c0 FFF7FEFF 		bl	fflush
 4151              	.LVL427:
 4152              	.L355:
 676:C:/Users/²Ü¼ÒºÀ/.iotlink/sdk/IoT_LINK/iot_link/network/lwm2m/wakaama_lwm2m/wakaama-master/core\observe.c **** 
 4153              		.loc 1 676 9 discriminator 8 view .LVU1085
ARM GAS  C:\Users\²Ü¼ÒºÀ\AppData\Local\Temp\ccA6NNYh.s 			page 108


 676:C:/Users/²Ü¼ÒºÀ/.iotlink/sdk/IoT_LINK/iot_link/network/lwm2m/wakaama_lwm2m/wakaama-master/core\observe.c **** 
 4154              		.loc 1 676 9 discriminator 8 view .LVU1086
 676:C:/Users/²Ü¼ÒºÀ/.iotlink/sdk/IoT_LINK/iot_link/network/lwm2m/wakaama_lwm2m/wakaama-master/core\observe.c **** 
 4155              		.loc 1 676 9 discriminator 8 view .LVU1087
 676:C:/Users/²Ü¼ÒºÀ/.iotlink/sdk/IoT_LINK/iot_link/network/lwm2m/wakaama_lwm2m/wakaama-master/core\observe.c **** 
 4156              		.loc 1 676 9 discriminator 8 view .LVU1088
 4157 00c4 9BF80430 		ldrb	r3, [fp, #4]	@ zero_extendqisi2
 4158 00c8 9C07     		lsls	r4, r3, #30
 4159 00ca 17D5     		bpl	.L357
 676:C:/Users/²Ü¼ÒºÀ/.iotlink/sdk/IoT_LINK/iot_link/network/lwm2m/wakaama_lwm2m/wakaama-master/core\observe.c **** 
 4160              		.loc 1 676 9 discriminator 9 view .LVU1089
 676:C:/Users/²Ü¼ÒºÀ/.iotlink/sdk/IoT_LINK/iot_link/network/lwm2m/wakaama_lwm2m/wakaama-master/core\observe.c **** 
 4161              		.loc 1 676 9 discriminator 9 view .LVU1090
 4162 00cc FFF7FEFF 		bl	link_log_level_get
 4163              	.LVL428:
 4164 00d0 0128     		cmp	r0, #1
 4165 00d2 13D8     		bhi	.L357
 676:C:/Users/²Ü¼ÒºÀ/.iotlink/sdk/IoT_LINK/iot_link/network/lwm2m/wakaama_lwm2m/wakaama-master/core\observe.c **** 
 4166              		.loc 1 676 9 discriminator 11 view .LVU1091
 676:C:/Users/²Ü¼ÒºÀ/.iotlink/sdk/IoT_LINK/iot_link/network/lwm2m/wakaama_lwm2m/wakaama-master/core\observe.c **** 
 4167              		.loc 1 676 9 discriminator 11 view .LVU1092
 676:C:/Users/²Ü¼ÒºÀ/.iotlink/sdk/IoT_LINK/iot_link/network/lwm2m/wakaama_lwm2m/wakaama-master/core\observe.c **** 
 4168              		.loc 1 676 9 discriminator 11 view .LVU1093
 4169 00d4 0120     		movs	r0, #1
 4170 00d6 FFF7FEFF 		bl	link_log_level_name
 4171              	.LVL429:
 4172 00da 0446     		mov	r4, r0
 4173 00dc FFF7FEFF 		bl	osal_sys_time
 4174              	.LVL430:
 4175 00e0 BBF80830 		ldrh	r3, [fp, #8]
 4176 00e4 0093     		str	r3, [sp]
 4177 00e6 0246     		mov	r2, r0
 4178 00e8 284B     		ldr	r3, .L526+12
 4179 00ea 2C48     		ldr	r0, .L526+28
 4180 00ec 2146     		mov	r1, r4
 4181 00ee FFF7FEFF 		bl	printf
 4182              	.LVL431:
 676:C:/Users/²Ü¼ÒºÀ/.iotlink/sdk/IoT_LINK/iot_link/network/lwm2m/wakaama_lwm2m/wakaama-master/core\observe.c **** 
 4183              		.loc 1 676 9 discriminator 11 view .LVU1094
 4184 00f2 284B     		ldr	r3, .L526+20
 4185 00f4 1B68     		ldr	r3, [r3]
 4186 00f6 9868     		ldr	r0, [r3, #8]
 4187 00f8 FFF7FEFF 		bl	fflush
 4188              	.LVL432:
 4189              	.L357:
 676:C:/Users/²Ü¼ÒºÀ/.iotlink/sdk/IoT_LINK/iot_link/network/lwm2m/wakaama_lwm2m/wakaama-master/core\observe.c **** 
 4190              		.loc 1 676 9 discriminator 13 view .LVU1095
 676:C:/Users/²Ü¼ÒºÀ/.iotlink/sdk/IoT_LINK/iot_link/network/lwm2m/wakaama_lwm2m/wakaama-master/core\observe.c **** 
 4191              		.loc 1 676 9 discriminator 13 view .LVU1096
 676:C:/Users/²Ü¼ÒºÀ/.iotlink/sdk/IoT_LINK/iot_link/network/lwm2m/wakaama_lwm2m/wakaama-master/core\observe.c **** 
 4192              		.loc 1 676 9 discriminator 13 view .LVU1097
 676:C:/Users/²Ü¼ÒºÀ/.iotlink/sdk/IoT_LINK/iot_link/network/lwm2m/wakaama_lwm2m/wakaama-master/core\observe.c **** 
 4193              		.loc 1 676 9 discriminator 13 view .LVU1098
 4194 00fc 9BF80430 		ldrb	r3, [fp, #4]	@ zero_extendqisi2
 4195 0100 D807     		lsls	r0, r3, #31
 4196 0102 17D5     		bpl	.L360
 676:C:/Users/²Ü¼ÒºÀ/.iotlink/sdk/IoT_LINK/iot_link/network/lwm2m/wakaama_lwm2m/wakaama-master/core\observe.c **** 
ARM GAS  C:\Users\²Ü¼ÒºÀ\AppData\Local\Temp\ccA6NNYh.s 			page 109


 4197              		.loc 1 676 9 discriminator 14 view .LVU1099
 676:C:/Users/²Ü¼ÒºÀ/.iotlink/sdk/IoT_LINK/iot_link/network/lwm2m/wakaama_lwm2m/wakaama-master/core\observe.c **** 
 4198              		.loc 1 676 9 discriminator 14 view .LVU1100
 4199 0104 FFF7FEFF 		bl	link_log_level_get
 4200              	.LVL433:
 4201 0108 0128     		cmp	r0, #1
 4202 010a 13D8     		bhi	.L360
 676:C:/Users/²Ü¼ÒºÀ/.iotlink/sdk/IoT_LINK/iot_link/network/lwm2m/wakaama_lwm2m/wakaama-master/core\observe.c **** 
 4203              		.loc 1 676 9 discriminator 16 view .LVU1101
 676:C:/Users/²Ü¼ÒºÀ/.iotlink/sdk/IoT_LINK/iot_link/network/lwm2m/wakaama_lwm2m/wakaama-master/core\observe.c **** 
 4204              		.loc 1 676 9 discriminator 16 view .LVU1102
 676:C:/Users/²Ü¼ÒºÀ/.iotlink/sdk/IoT_LINK/iot_link/network/lwm2m/wakaama_lwm2m/wakaama-master/core\observe.c **** 
 4205              		.loc 1 676 9 discriminator 16 view .LVU1103
 4206 010c 0120     		movs	r0, #1
 4207 010e FFF7FEFF 		bl	link_log_level_name
 4208              	.LVL434:
 4209 0112 0446     		mov	r4, r0
 4210 0114 FFF7FEFF 		bl	osal_sys_time
 4211              	.LVL435:
 4212 0118 BBF80A30 		ldrh	r3, [fp, #10]
 4213 011c 0093     		str	r3, [sp]
 4214 011e 0246     		mov	r2, r0
 4215 0120 1A4B     		ldr	r3, .L526+12
 4216 0122 1E48     		ldr	r0, .L526+28
 4217 0124 2146     		mov	r1, r4
 4218 0126 FFF7FEFF 		bl	printf
 4219              	.LVL436:
 676:C:/Users/²Ü¼ÒºÀ/.iotlink/sdk/IoT_LINK/iot_link/network/lwm2m/wakaama_lwm2m/wakaama-master/core\observe.c **** 
 4220              		.loc 1 676 9 discriminator 16 view .LVU1104
 4221 012a 1A4B     		ldr	r3, .L526+20
 4222 012c 1B68     		ldr	r3, [r3]
 4223 012e 9868     		ldr	r0, [r3, #8]
 4224 0130 FFF7FEFF 		bl	fflush
 4225              	.LVL437:
 4226              	.L360:
 676:C:/Users/²Ü¼ÒºÀ/.iotlink/sdk/IoT_LINK/iot_link/network/lwm2m/wakaama_lwm2m/wakaama-master/core\observe.c **** 
 4227              		.loc 1 676 9 discriminator 18 view .LVU1105
 676:C:/Users/²Ü¼ÒºÀ/.iotlink/sdk/IoT_LINK/iot_link/network/lwm2m/wakaama_lwm2m/wakaama-master/core\observe.c **** 
 4228              		.loc 1 676 9 discriminator 18 view .LVU1106
 676:C:/Users/²Ü¼ÒºÀ/.iotlink/sdk/IoT_LINK/iot_link/network/lwm2m/wakaama_lwm2m/wakaama-master/core\observe.c **** 
 4229              		.loc 1 676 9 discriminator 18 view .LVU1107
 676:C:/Users/²Ü¼ÒºÀ/.iotlink/sdk/IoT_LINK/iot_link/network/lwm2m/wakaama_lwm2m/wakaama-master/core\observe.c **** 
 4230              		.loc 1 676 9 discriminator 18 view .LVU1108
 676:C:/Users/²Ü¼ÒºÀ/.iotlink/sdk/IoT_LINK/iot_link/network/lwm2m/wakaama_lwm2m/wakaama-master/core\observe.c **** 
 4231              		.loc 1 676 9 discriminator 18 view .LVU1109
 4232 0134 FFF7FEFF 		bl	link_log_level_get
 4233              	.LVL438:
 4234 0138 0128     		cmp	r0, #1
 4235 013a 10D8     		bhi	.L362
 676:C:/Users/²Ü¼ÒºÀ/.iotlink/sdk/IoT_LINK/iot_link/network/lwm2m/wakaama_lwm2m/wakaama-master/core\observe.c **** 
 4236              		.loc 1 676 9 discriminator 19 view .LVU1110
 676:C:/Users/²Ü¼ÒºÀ/.iotlink/sdk/IoT_LINK/iot_link/network/lwm2m/wakaama_lwm2m/wakaama-master/core\observe.c **** 
 4237              		.loc 1 676 9 discriminator 19 view .LVU1111
 676:C:/Users/²Ü¼ÒºÀ/.iotlink/sdk/IoT_LINK/iot_link/network/lwm2m/wakaama_lwm2m/wakaama-master/core\observe.c **** 
 4238              		.loc 1 676 9 discriminator 19 view .LVU1112
 4239 013c 0120     		movs	r0, #1
 4240 013e FFF7FEFF 		bl	link_log_level_name
ARM GAS  C:\Users\²Ü¼ÒºÀ\AppData\Local\Temp\ccA6NNYh.s 			page 110


 4241              	.LVL439:
 4242 0142 0446     		mov	r4, r0
 4243 0144 FFF7FEFF 		bl	osal_sys_time
 4244              	.LVL440:
 4245 0148 104B     		ldr	r3, .L526+12
 4246 014a 0246     		mov	r2, r0
 4247 014c 2146     		mov	r1, r4
 4248 014e 1448     		ldr	r0, .L526+32
 4249 0150 FFF7FEFF 		bl	printf
 4250              	.LVL441:
 676:C:/Users/²Ü¼ÒºÀ/.iotlink/sdk/IoT_LINK/iot_link/network/lwm2m/wakaama_lwm2m/wakaama-master/core\observe.c **** 
 4251              		.loc 1 676 9 discriminator 19 view .LVU1113
 4252 0154 0F4B     		ldr	r3, .L526+20
 4253 0156 1B68     		ldr	r3, [r3]
 4254 0158 9868     		ldr	r0, [r3, #8]
 4255 015a FFF7FEFF 		bl	fflush
 4256              	.LVL442:
 4257              	.L362:
 676:C:/Users/²Ü¼ÒºÀ/.iotlink/sdk/IoT_LINK/iot_link/network/lwm2m/wakaama_lwm2m/wakaama-master/core\observe.c **** 
 4258              		.loc 1 676 9 discriminator 21 view .LVU1114
 676:C:/Users/²Ü¼ÒºÀ/.iotlink/sdk/IoT_LINK/iot_link/network/lwm2m/wakaama_lwm2m/wakaama-master/core\observe.c **** 
 4259              		.loc 1 676 9 discriminator 21 view .LVU1115
 676:C:/Users/²Ü¼ÒºÀ/.iotlink/sdk/IoT_LINK/iot_link/network/lwm2m/wakaama_lwm2m/wakaama-master/core\observe.c **** 
 4260              		.loc 1 676 9 discriminator 21 view .LVU1116
 676:C:/Users/²Ü¼ÒºÀ/.iotlink/sdk/IoT_LINK/iot_link/network/lwm2m/wakaama_lwm2m/wakaama-master/core\observe.c **** 
 4261              		.loc 1 676 33 discriminator 21 view .LVU1117
 679:C:/Users/²Ü¼ÒºÀ/.iotlink/sdk/IoT_LINK/iot_link/network/lwm2m/wakaama_lwm2m/wakaama-master/core\observe.c ****         {
 4262              		.loc 1 679 9 discriminator 21 view .LVU1118
 679:C:/Users/²Ü¼ÒºÀ/.iotlink/sdk/IoT_LINK/iot_link/network/lwm2m/wakaama_lwm2m/wakaama-master/core\observe.c ****         {
 4263              		.loc 1 679 9 is_stmt 0 discriminator 21 view .LVU1119
 4264              	.LBE40:
 4265              		.file 2 "C:/Users/\262\334\274\322\272\300/.iotlink/sdk/IoT_LINK/iot_link/network/lwm2m/wakaama_lw
   1:C:/Users/²Ü¼ÒºÀ/.iotlink/sdk/IoT_LINK/iot_link/network/lwm2m/wakaama_lwm2m/wakaama-master/core\internals.h **** /*----------------------------------------------------------------------------
   2:C:/Users/²Ü¼ÒºÀ/.iotlink/sdk/IoT_LINK/iot_link/network/lwm2m/wakaama_lwm2m/wakaama-master/core\internals.h ****  * Copyright (c) <2016-2018>, <Huawei Technologies Co., Ltd>
   3:C:/Users/²Ü¼ÒºÀ/.iotlink/sdk/IoT_LINK/iot_link/network/lwm2m/wakaama_lwm2m/wakaama-master/core\internals.h ****  * All rights reserved.
   4:C:/Users/²Ü¼ÒºÀ/.iotlink/sdk/IoT_LINK/iot_link/network/lwm2m/wakaama_lwm2m/wakaama-master/core\internals.h ****  * Redistribution and use in source and binary forms, with or without modification,
   5:C:/Users/²Ü¼ÒºÀ/.iotlink/sdk/IoT_LINK/iot_link/network/lwm2m/wakaama_lwm2m/wakaama-master/core\internals.h ****  * are permitted provided that the following conditions are met:
   6:C:/Users/²Ü¼ÒºÀ/.iotlink/sdk/IoT_LINK/iot_link/network/lwm2m/wakaama_lwm2m/wakaama-master/core\internals.h ****  * 1. Redistributions of source code must retain the above copyright notice, this list of
   7:C:/Users/²Ü¼ÒºÀ/.iotlink/sdk/IoT_LINK/iot_link/network/lwm2m/wakaama_lwm2m/wakaama-master/core\internals.h ****  * conditions and the following disclaimer.
   8:C:/Users/²Ü¼ÒºÀ/.iotlink/sdk/IoT_LINK/iot_link/network/lwm2m/wakaama_lwm2m/wakaama-master/core\internals.h ****  * 2. Redistributions in binary form must reproduce the above copyright notice, this list
   9:C:/Users/²Ü¼ÒºÀ/.iotlink/sdk/IoT_LINK/iot_link/network/lwm2m/wakaama_lwm2m/wakaama-master/core\internals.h ****  * of conditions and the following disclaimer in the documentation and/or other materials
  10:C:/Users/²Ü¼ÒºÀ/.iotlink/sdk/IoT_LINK/iot_link/network/lwm2m/wakaama_lwm2m/wakaama-master/core\internals.h ****  * provided with the distribution.
  11:C:/Users/²Ü¼ÒºÀ/.iotlink/sdk/IoT_LINK/iot_link/network/lwm2m/wakaama_lwm2m/wakaama-master/core\internals.h ****  * 3. Neither the name of the copyright holder nor the names of its contributors may be used
  12:C:/Users/²Ü¼ÒºÀ/.iotlink/sdk/IoT_LINK/iot_link/network/lwm2m/wakaama_lwm2m/wakaama-master/core\internals.h ****  * to endorse or promote products derived from this software without specific prior written
  13:C:/Users/²Ü¼ÒºÀ/.iotlink/sdk/IoT_LINK/iot_link/network/lwm2m/wakaama_lwm2m/wakaama-master/core\internals.h ****  * permission.
  14:C:/Users/²Ü¼ÒºÀ/.iotlink/sdk/IoT_LINK/iot_link/network/lwm2m/wakaama_lwm2m/wakaama-master/core\internals.h ****  * THIS SOFTWARE IS PROVIDED BY THE COPYRIGHT HOLDERS AND CONTRIBUTORS
  15:C:/Users/²Ü¼ÒºÀ/.iotlink/sdk/IoT_LINK/iot_link/network/lwm2m/wakaama_lwm2m/wakaama-master/core\internals.h ****  * "AS IS" AND ANY EXPRESS OR IMPLIED WARRANTIES, INCLUDING, BUT NOT LIMITED TO,
  16:C:/Users/²Ü¼ÒºÀ/.iotlink/sdk/IoT_LINK/iot_link/network/lwm2m/wakaama_lwm2m/wakaama-master/core\internals.h ****  * THE IMPLIED WARRANTIES OF MERCHANTABILITY AND FITNESS FOR A PARTICULAR
  17:C:/Users/²Ü¼ÒºÀ/.iotlink/sdk/IoT_LINK/iot_link/network/lwm2m/wakaama_lwm2m/wakaama-master/core\internals.h ****  * PURPOSE ARE DISCLAIMED. IN NO EVENT SHALL THE COPYRIGHT HOLDER OR
  18:C:/Users/²Ü¼ÒºÀ/.iotlink/sdk/IoT_LINK/iot_link/network/lwm2m/wakaama_lwm2m/wakaama-master/core\internals.h ****  * CONTRIBUTORS BE LIABLE FOR ANY DIRECT, INDIRECT, INCIDENTAL, SPECIAL,
  19:C:/Users/²Ü¼ÒºÀ/.iotlink/sdk/IoT_LINK/iot_link/network/lwm2m/wakaama_lwm2m/wakaama-master/core\internals.h ****  * EXEMPLARY, OR CONSEQUENTIAL DAMAGES (INCLUDING, BUT NOT LIMITED TO,
  20:C:/Users/²Ü¼ÒºÀ/.iotlink/sdk/IoT_LINK/iot_link/network/lwm2m/wakaama_lwm2m/wakaama-master/core\internals.h ****  * PROCUREMENT OF SUBSTITUTE GOODS OR SERVICES; LOSS OF USE, DATA, OR PROFITS;
  21:C:/Users/²Ü¼ÒºÀ/.iotlink/sdk/IoT_LINK/iot_link/network/lwm2m/wakaama_lwm2m/wakaama-master/core\internals.h ****  * OR BUSINESS INTERRUPTION) HOWEVER CAUSED AND ON ANY THEORY OF LIABILITY,
  22:C:/Users/²Ü¼ÒºÀ/.iotlink/sdk/IoT_LINK/iot_link/network/lwm2m/wakaama_lwm2m/wakaama-master/core\internals.h ****  * WHETHER IN CONTRACT, STRICT LIABILITY, OR TORT (INCLUDING NEGLIGENCE OR
  23:C:/Users/²Ü¼ÒºÀ/.iotlink/sdk/IoT_LINK/iot_link/network/lwm2m/wakaama_lwm2m/wakaama-master/core\internals.h ****  * OTHERWISE) ARISING IN ANY WAY OUT OF THE USE OF THIS SOFTWARE, EVEN IF
  24:C:/Users/²Ü¼ÒºÀ/.iotlink/sdk/IoT_LINK/iot_link/network/lwm2m/wakaama_lwm2m/wakaama-master/core\internals.h ****  * ADVISED OF THE POSSIBILITY OF SUCH DAMAGE.
  25:C:/Users/²Ü¼ÒºÀ/.iotlink/sdk/IoT_LINK/iot_link/network/lwm2m/wakaama_lwm2m/wakaama-master/core\internals.h ****  *---------------------------------------------------------------------------*/
ARM GAS  C:\Users\²Ü¼ÒºÀ\AppData\Local\Temp\ccA6NNYh.s 			page 111


  26:C:/Users/²Ü¼ÒºÀ/.iotlink/sdk/IoT_LINK/iot_link/network/lwm2m/wakaama_lwm2m/wakaama-master/core\internals.h **** /*----------------------------------------------------------------------------
  27:C:/Users/²Ü¼ÒºÀ/.iotlink/sdk/IoT_LINK/iot_link/network/lwm2m/wakaama_lwm2m/wakaama-master/core\internals.h ****  * Notice of Export Control Law
  28:C:/Users/²Ü¼ÒºÀ/.iotlink/sdk/IoT_LINK/iot_link/network/lwm2m/wakaama_lwm2m/wakaama-master/core\internals.h ****  * ===============================================
  29:C:/Users/²Ü¼ÒºÀ/.iotlink/sdk/IoT_LINK/iot_link/network/lwm2m/wakaama_lwm2m/wakaama-master/core\internals.h ****  * Huawei LiteOS may be subject to applicable export control laws and regulations, which might
  30:C:/Users/²Ü¼ÒºÀ/.iotlink/sdk/IoT_LINK/iot_link/network/lwm2m/wakaama_lwm2m/wakaama-master/core\internals.h ****  * include those applicable to Huawei LiteOS of U.S. and the country in which you are located.
  31:C:/Users/²Ü¼ÒºÀ/.iotlink/sdk/IoT_LINK/iot_link/network/lwm2m/wakaama_lwm2m/wakaama-master/core\internals.h ****  * Import, export and usage of Huawei LiteOS in any manner by you shall be in compliance with such
  32:C:/Users/²Ü¼ÒºÀ/.iotlink/sdk/IoT_LINK/iot_link/network/lwm2m/wakaama_lwm2m/wakaama-master/core\internals.h ****  * applicable export control laws and regulations.
  33:C:/Users/²Ü¼ÒºÀ/.iotlink/sdk/IoT_LINK/iot_link/network/lwm2m/wakaama_lwm2m/wakaama-master/core\internals.h ****  *---------------------------------------------------------------------------*/
  34:C:/Users/²Ü¼ÒºÀ/.iotlink/sdk/IoT_LINK/iot_link/network/lwm2m/wakaama_lwm2m/wakaama-master/core\internals.h **** 
  35:C:/Users/²Ü¼ÒºÀ/.iotlink/sdk/IoT_LINK/iot_link/network/lwm2m/wakaama_lwm2m/wakaama-master/core\internals.h **** /*******************************************************************************
  36:C:/Users/²Ü¼ÒºÀ/.iotlink/sdk/IoT_LINK/iot_link/network/lwm2m/wakaama_lwm2m/wakaama-master/core\internals.h ****  *
  37:C:/Users/²Ü¼ÒºÀ/.iotlink/sdk/IoT_LINK/iot_link/network/lwm2m/wakaama_lwm2m/wakaama-master/core\internals.h ****  * Copyright (c) 2013, 2014 Intel Corporation and others.
  38:C:/Users/²Ü¼ÒºÀ/.iotlink/sdk/IoT_LINK/iot_link/network/lwm2m/wakaama_lwm2m/wakaama-master/core\internals.h ****  * All rights reserved. This program and the accompanying materials
  39:C:/Users/²Ü¼ÒºÀ/.iotlink/sdk/IoT_LINK/iot_link/network/lwm2m/wakaama_lwm2m/wakaama-master/core\internals.h ****  * are made available under the terms of the Eclipse Public License v1.0
  40:C:/Users/²Ü¼ÒºÀ/.iotlink/sdk/IoT_LINK/iot_link/network/lwm2m/wakaama_lwm2m/wakaama-master/core\internals.h ****  * and Eclipse Distribution License v1.0 which accompany this distribution.
  41:C:/Users/²Ü¼ÒºÀ/.iotlink/sdk/IoT_LINK/iot_link/network/lwm2m/wakaama_lwm2m/wakaama-master/core\internals.h ****  *
  42:C:/Users/²Ü¼ÒºÀ/.iotlink/sdk/IoT_LINK/iot_link/network/lwm2m/wakaama_lwm2m/wakaama-master/core\internals.h ****  * The Eclipse Public License is available at
  43:C:/Users/²Ü¼ÒºÀ/.iotlink/sdk/IoT_LINK/iot_link/network/lwm2m/wakaama_lwm2m/wakaama-master/core\internals.h ****  *    http://www.eclipse.org/legal/epl-v10.html
  44:C:/Users/²Ü¼ÒºÀ/.iotlink/sdk/IoT_LINK/iot_link/network/lwm2m/wakaama_lwm2m/wakaama-master/core\internals.h ****  * The Eclipse Distribution License is available at
  45:C:/Users/²Ü¼ÒºÀ/.iotlink/sdk/IoT_LINK/iot_link/network/lwm2m/wakaama_lwm2m/wakaama-master/core\internals.h ****  *    http://www.eclipse.org/org/documents/edl-v10.php.
  46:C:/Users/²Ü¼ÒºÀ/.iotlink/sdk/IoT_LINK/iot_link/network/lwm2m/wakaama_lwm2m/wakaama-master/core\internals.h ****  *
  47:C:/Users/²Ü¼ÒºÀ/.iotlink/sdk/IoT_LINK/iot_link/network/lwm2m/wakaama_lwm2m/wakaama-master/core\internals.h ****  * Contributors:
  48:C:/Users/²Ü¼ÒºÀ/.iotlink/sdk/IoT_LINK/iot_link/network/lwm2m/wakaama_lwm2m/wakaama-master/core\internals.h ****  *    David Navarro, Intel Corporation - initial API and implementation
  49:C:/Users/²Ü¼ÒºÀ/.iotlink/sdk/IoT_LINK/iot_link/network/lwm2m/wakaama_lwm2m/wakaama-master/core\internals.h ****  *    Fabien Fleutot - Please refer to git log
  50:C:/Users/²Ü¼ÒºÀ/.iotlink/sdk/IoT_LINK/iot_link/network/lwm2m/wakaama_lwm2m/wakaama-master/core\internals.h ****  *    Toby Jaffey - Please refer to git log
  51:C:/Users/²Ü¼ÒºÀ/.iotlink/sdk/IoT_LINK/iot_link/network/lwm2m/wakaama_lwm2m/wakaama-master/core\internals.h ****  *    Bosch Software Innovations GmbH - Please refer to git log
  52:C:/Users/²Ü¼ÒºÀ/.iotlink/sdk/IoT_LINK/iot_link/network/lwm2m/wakaama_lwm2m/wakaama-master/core\internals.h ****  *    Pascal Rieux - Please refer to git log
  53:C:/Users/²Ü¼ÒºÀ/.iotlink/sdk/IoT_LINK/iot_link/network/lwm2m/wakaama_lwm2m/wakaama-master/core\internals.h ****  *    Scott Bertin - Please refer to git log
  54:C:/Users/²Ü¼ÒºÀ/.iotlink/sdk/IoT_LINK/iot_link/network/lwm2m/wakaama_lwm2m/wakaama-master/core\internals.h ****  *
  55:C:/Users/²Ü¼ÒºÀ/.iotlink/sdk/IoT_LINK/iot_link/network/lwm2m/wakaama_lwm2m/wakaama-master/core\internals.h ****  *******************************************************************************/
  56:C:/Users/²Ü¼ÒºÀ/.iotlink/sdk/IoT_LINK/iot_link/network/lwm2m/wakaama_lwm2m/wakaama-master/core\internals.h **** /*
  57:C:/Users/²Ü¼ÒºÀ/.iotlink/sdk/IoT_LINK/iot_link/network/lwm2m/wakaama_lwm2m/wakaama-master/core\internals.h ****  Copyright (c) 2013, 2014 Intel Corporation
  58:C:/Users/²Ü¼ÒºÀ/.iotlink/sdk/IoT_LINK/iot_link/network/lwm2m/wakaama_lwm2m/wakaama-master/core\internals.h **** 
  59:C:/Users/²Ü¼ÒºÀ/.iotlink/sdk/IoT_LINK/iot_link/network/lwm2m/wakaama_lwm2m/wakaama-master/core\internals.h ****  Redistribution and use in source and binary forms, with or without modification,
  60:C:/Users/²Ü¼ÒºÀ/.iotlink/sdk/IoT_LINK/iot_link/network/lwm2m/wakaama_lwm2m/wakaama-master/core\internals.h ****  are permitted provided that the following conditions are met:
  61:C:/Users/²Ü¼ÒºÀ/.iotlink/sdk/IoT_LINK/iot_link/network/lwm2m/wakaama_lwm2m/wakaama-master/core\internals.h **** 
  62:C:/Users/²Ü¼ÒºÀ/.iotlink/sdk/IoT_LINK/iot_link/network/lwm2m/wakaama_lwm2m/wakaama-master/core\internals.h ****      * Redistributions of source code must retain the above copyright notice,
  63:C:/Users/²Ü¼ÒºÀ/.iotlink/sdk/IoT_LINK/iot_link/network/lwm2m/wakaama_lwm2m/wakaama-master/core\internals.h ****        this list of conditions and the following disclaimer.
  64:C:/Users/²Ü¼ÒºÀ/.iotlink/sdk/IoT_LINK/iot_link/network/lwm2m/wakaama_lwm2m/wakaama-master/core\internals.h ****      * Redistributions in binary form must reproduce the above copyright notice,
  65:C:/Users/²Ü¼ÒºÀ/.iotlink/sdk/IoT_LINK/iot_link/network/lwm2m/wakaama_lwm2m/wakaama-master/core\internals.h ****        this list of conditions and the following disclaimer in the documentation
  66:C:/Users/²Ü¼ÒºÀ/.iotlink/sdk/IoT_LINK/iot_link/network/lwm2m/wakaama_lwm2m/wakaama-master/core\internals.h ****        and/or other materials provided with the distribution.
  67:C:/Users/²Ü¼ÒºÀ/.iotlink/sdk/IoT_LINK/iot_link/network/lwm2m/wakaama_lwm2m/wakaama-master/core\internals.h ****      * Neither the name of Intel Corporation nor the names of its contributors
  68:C:/Users/²Ü¼ÒºÀ/.iotlink/sdk/IoT_LINK/iot_link/network/lwm2m/wakaama_lwm2m/wakaama-master/core\internals.h ****        may be used to endorse or promote products derived from this software
  69:C:/Users/²Ü¼ÒºÀ/.iotlink/sdk/IoT_LINK/iot_link/network/lwm2m/wakaama_lwm2m/wakaama-master/core\internals.h ****        without specific prior written permission.
  70:C:/Users/²Ü¼ÒºÀ/.iotlink/sdk/IoT_LINK/iot_link/network/lwm2m/wakaama_lwm2m/wakaama-master/core\internals.h **** 
  71:C:/Users/²Ü¼ÒºÀ/.iotlink/sdk/IoT_LINK/iot_link/network/lwm2m/wakaama_lwm2m/wakaama-master/core\internals.h ****  THIS SOFTWARE IS PROVIDED BY THE COPYRIGHT HOLDERS AND CONTRIBUTORS "AS IS" AND
  72:C:/Users/²Ü¼ÒºÀ/.iotlink/sdk/IoT_LINK/iot_link/network/lwm2m/wakaama_lwm2m/wakaama-master/core\internals.h ****  ANY EXPRESS OR IMPLIED WARRANTIES, INCLUDING, BUT NOT LIMITED TO, THE IMPLIED
  73:C:/Users/²Ü¼ÒºÀ/.iotlink/sdk/IoT_LINK/iot_link/network/lwm2m/wakaama_lwm2m/wakaama-master/core\internals.h ****  WARRANTIES OF MERCHANTABILITY AND FITNESS FOR A PARTICULAR PURPOSE ARE DISCLAIMED.
  74:C:/Users/²Ü¼ÒºÀ/.iotlink/sdk/IoT_LINK/iot_link/network/lwm2m/wakaama_lwm2m/wakaama-master/core\internals.h ****  IN NO EVENT SHALL THE COPYRIGHT OWNER OR CONTRIBUTORS BE LIABLE FOR ANY DIRECT,
  75:C:/Users/²Ü¼ÒºÀ/.iotlink/sdk/IoT_LINK/iot_link/network/lwm2m/wakaama_lwm2m/wakaama-master/core\internals.h ****  INDIRECT, INCIDENTAL, SPECIAL, EXEMPLARY, OR CONSEQUENTIAL DAMAGES (INCLUDING,
  76:C:/Users/²Ü¼ÒºÀ/.iotlink/sdk/IoT_LINK/iot_link/network/lwm2m/wakaama_lwm2m/wakaama-master/core\internals.h ****  BUT NOT LIMITED TO, PROCUREMENT OF SUBSTITUTE GOODS OR SERVICES; LOSS OF USE,
  77:C:/Users/²Ü¼ÒºÀ/.iotlink/sdk/IoT_LINK/iot_link/network/lwm2m/wakaama_lwm2m/wakaama-master/core\internals.h ****  DATA, OR PROFITS; OR BUSINESS INTERRUPTION) HOWEVER CAUSED AND ON ANY THEORY OF
  78:C:/Users/²Ü¼ÒºÀ/.iotlink/sdk/IoT_LINK/iot_link/network/lwm2m/wakaama_lwm2m/wakaama-master/core\internals.h ****  LIABILITY, WHETHER IN CONTRACT, STRICT LIABILITY, OR TORT (INCLUDING NEGLIGENCE OR
  79:C:/Users/²Ü¼ÒºÀ/.iotlink/sdk/IoT_LINK/iot_link/network/lwm2m/wakaama_lwm2m/wakaama-master/core\internals.h ****  OTHERWISE) ARISING IN ANY WAY OUT OF THE USE OF THIS SOFTWARE, EVEN IF ADVISED OF
  80:C:/Users/²Ü¼ÒºÀ/.iotlink/sdk/IoT_LINK/iot_link/network/lwm2m/wakaama_lwm2m/wakaama-master/core\internals.h ****  THE POSSIBILITY OF SUCH DAMAGE.
  81:C:/Users/²Ü¼ÒºÀ/.iotlink/sdk/IoT_LINK/iot_link/network/lwm2m/wakaama_lwm2m/wakaama-master/core\internals.h **** 
  82:C:/Users/²Ü¼ÒºÀ/.iotlink/sdk/IoT_LINK/iot_link/network/lwm2m/wakaama_lwm2m/wakaama-master/core\internals.h ****  David Navarro <david.navarro@intel.com>
ARM GAS  C:\Users\²Ü¼ÒºÀ\AppData\Local\Temp\ccA6NNYh.s 			page 112


  83:C:/Users/²Ü¼ÒºÀ/.iotlink/sdk/IoT_LINK/iot_link/network/lwm2m/wakaama_lwm2m/wakaama-master/core\internals.h **** 
  84:C:/Users/²Ü¼ÒºÀ/.iotlink/sdk/IoT_LINK/iot_link/network/lwm2m/wakaama_lwm2m/wakaama-master/core\internals.h **** */
  85:C:/Users/²Ü¼ÒºÀ/.iotlink/sdk/IoT_LINK/iot_link/network/lwm2m/wakaama_lwm2m/wakaama-master/core\internals.h **** 
  86:C:/Users/²Ü¼ÒºÀ/.iotlink/sdk/IoT_LINK/iot_link/network/lwm2m/wakaama_lwm2m/wakaama-master/core\internals.h **** #ifndef _LWM2M_INTERNALS_H_
  87:C:/Users/²Ü¼ÒºÀ/.iotlink/sdk/IoT_LINK/iot_link/network/lwm2m/wakaama_lwm2m/wakaama-master/core\internals.h **** #define _LWM2M_INTERNALS_H_
  88:C:/Users/²Ü¼ÒºÀ/.iotlink/sdk/IoT_LINK/iot_link/network/lwm2m/wakaama_lwm2m/wakaama-master/core\internals.h **** 
  89:C:/Users/²Ü¼ÒºÀ/.iotlink/sdk/IoT_LINK/iot_link/network/lwm2m/wakaama_lwm2m/wakaama-master/core\internals.h **** #include "liblwm2m.h"
  90:C:/Users/²Ü¼ÒºÀ/.iotlink/sdk/IoT_LINK/iot_link/network/lwm2m/wakaama_lwm2m/wakaama-master/core\internals.h **** 
  91:C:/Users/²Ü¼ÒºÀ/.iotlink/sdk/IoT_LINK/iot_link/network/lwm2m/wakaama_lwm2m/wakaama-master/core\internals.h **** #include <stdlib.h>
  92:C:/Users/²Ü¼ÒºÀ/.iotlink/sdk/IoT_LINK/iot_link/network/lwm2m/wakaama_lwm2m/wakaama-master/core\internals.h **** #include <string.h>
  93:C:/Users/²Ü¼ÒºÀ/.iotlink/sdk/IoT_LINK/iot_link/network/lwm2m/wakaama_lwm2m/wakaama-master/core\internals.h **** #include <stdio.h>
  94:C:/Users/²Ü¼ÒºÀ/.iotlink/sdk/IoT_LINK/iot_link/network/lwm2m/wakaama_lwm2m/wakaama-master/core\internals.h **** #include <ctype.h>
  95:C:/Users/²Ü¼ÒºÀ/.iotlink/sdk/IoT_LINK/iot_link/network/lwm2m/wakaama_lwm2m/wakaama-master/core\internals.h **** #include <stdint.h>
  96:C:/Users/²Ü¼ÒºÀ/.iotlink/sdk/IoT_LINK/iot_link/network/lwm2m/wakaama_lwm2m/wakaama-master/core\internals.h **** #include <stddef.h>
  97:C:/Users/²Ü¼ÒºÀ/.iotlink/sdk/IoT_LINK/iot_link/network/lwm2m/wakaama_lwm2m/wakaama-master/core\internals.h **** #include <stdbool.h>
  98:C:/Users/²Ü¼ÒºÀ/.iotlink/sdk/IoT_LINK/iot_link/network/lwm2m/wakaama_lwm2m/wakaama-master/core\internals.h **** 
  99:C:/Users/²Ü¼ÒºÀ/.iotlink/sdk/IoT_LINK/iot_link/network/lwm2m/wakaama_lwm2m/wakaama-master/core\internals.h **** #include "er-coap-13/er-coap-13.h"
 100:C:/Users/²Ü¼ÒºÀ/.iotlink/sdk/IoT_LINK/iot_link/network/lwm2m/wakaama_lwm2m/wakaama-master/core\internals.h **** #include "connection.h"
 101:C:/Users/²Ü¼ÒºÀ/.iotlink/sdk/IoT_LINK/iot_link/network/lwm2m/wakaama_lwm2m/wakaama-master/core\internals.h **** 
 102:C:/Users/²Ü¼ÒºÀ/.iotlink/sdk/IoT_LINK/iot_link/network/lwm2m/wakaama_lwm2m/wakaama-master/core\internals.h **** 
 103:C:/Users/²Ü¼ÒºÀ/.iotlink/sdk/IoT_LINK/iot_link/network/lwm2m/wakaama_lwm2m/wakaama-master/core\internals.h **** #ifdef LWM2M_WITH_LOGS
 104:C:/Users/²Ü¼ÒºÀ/.iotlink/sdk/IoT_LINK/iot_link/network/lwm2m/wakaama_lwm2m/wakaama-master/core\internals.h **** #include <inttypes.h>
 105:C:/Users/²Ü¼ÒºÀ/.iotlink/sdk/IoT_LINK/iot_link/network/lwm2m/wakaama_lwm2m/wakaama-master/core\internals.h **** #define LOG(STR)    lwm2m_printf("[%d][%s:%d] " STR "\r\n", (int)lwm2m_gettime(), __func__ , __LINE
 106:C:/Users/²Ü¼ÒºÀ/.iotlink/sdk/IoT_LINK/iot_link/network/lwm2m/wakaama_lwm2m/wakaama-master/core\internals.h **** #define LOG_ARG(FMT, ...) lwm2m_printf("[%d][%s:%d] " FMT "\r\n", (int)lwm2m_gettime(), __func__ , 
 107:C:/Users/²Ü¼ÒºÀ/.iotlink/sdk/IoT_LINK/iot_link/network/lwm2m/wakaama_lwm2m/wakaama-master/core\internals.h **** #define LOG_URI(URI)                                                                \
 108:C:/Users/²Ü¼ÒºÀ/.iotlink/sdk/IoT_LINK/iot_link/network/lwm2m/wakaama_lwm2m/wakaama-master/core\internals.h **** {                                                                                   \
 109:C:/Users/²Ü¼ÒºÀ/.iotlink/sdk/IoT_LINK/iot_link/network/lwm2m/wakaama_lwm2m/wakaama-master/core\internals.h ****     if ((URI) == NULL) lwm2m_printf("[%s:%d] NULL\r\n", __func__ , __LINE__);     \
 110:C:/Users/²Ü¼ÒºÀ/.iotlink/sdk/IoT_LINK/iot_link/network/lwm2m/wakaama_lwm2m/wakaama-master/core\internals.h ****     else                                                                            \
 111:C:/Users/²Ü¼ÒºÀ/.iotlink/sdk/IoT_LINK/iot_link/network/lwm2m/wakaama_lwm2m/wakaama-master/core\internals.h ****     {                                                                               \
 112:C:/Users/²Ü¼ÒºÀ/.iotlink/sdk/IoT_LINK/iot_link/network/lwm2m/wakaama_lwm2m/wakaama-master/core\internals.h ****         lwm2m_printf("[%s:%d] /%d", __func__ , __LINE__ , (int)(URI)->objectId);       \
 113:C:/Users/²Ü¼ÒºÀ/.iotlink/sdk/IoT_LINK/iot_link/network/lwm2m/wakaama_lwm2m/wakaama-master/core\internals.h ****         if (LWM2M_URI_IS_SET_INSTANCE(URI)) lwm2m_printf("/%d",(int)(URI)->instanceId); \
 114:C:/Users/²Ü¼ÒºÀ/.iotlink/sdk/IoT_LINK/iot_link/network/lwm2m/wakaama_lwm2m/wakaama-master/core\internals.h ****         if (LWM2M_URI_IS_SET_RESOURCE(URI)) lwm2m_printf("/%d", (int)(URI)->resourceId); \
 115:C:/Users/²Ü¼ÒºÀ/.iotlink/sdk/IoT_LINK/iot_link/network/lwm2m/wakaama_lwm2m/wakaama-master/core\internals.h ****           lwm2m_printf("\r\n");                                                       \
 116:C:/Users/²Ü¼ÒºÀ/.iotlink/sdk/IoT_LINK/iot_link/network/lwm2m/wakaama_lwm2m/wakaama-master/core\internals.h ****     }                                                                               \
 117:C:/Users/²Ü¼ÒºÀ/.iotlink/sdk/IoT_LINK/iot_link/network/lwm2m/wakaama_lwm2m/wakaama-master/core\internals.h **** }
 118:C:/Users/²Ü¼ÒºÀ/.iotlink/sdk/IoT_LINK/iot_link/network/lwm2m/wakaama_lwm2m/wakaama-master/core\internals.h **** #define UNUSEX(x)
 119:C:/Users/²Ü¼ÒºÀ/.iotlink/sdk/IoT_LINK/iot_link/network/lwm2m/wakaama_lwm2m/wakaama-master/core\internals.h **** #define STR_STATUS(S)                                           \
 120:C:/Users/²Ü¼ÒºÀ/.iotlink/sdk/IoT_LINK/iot_link/network/lwm2m/wakaama_lwm2m/wakaama-master/core\internals.h **** ((S) == STATE_DEREGISTERED ? "STATE_DEREGISTERED" :             \
 121:C:/Users/²Ü¼ÒºÀ/.iotlink/sdk/IoT_LINK/iot_link/network/lwm2m/wakaama_lwm2m/wakaama-master/core\internals.h **** ((S) == STATE_REG_PENDING ? "STATE_REG_PENDING" :               \
 122:C:/Users/²Ü¼ÒºÀ/.iotlink/sdk/IoT_LINK/iot_link/network/lwm2m/wakaama_lwm2m/wakaama-master/core\internals.h **** ((S) == STATE_REGISTERED ? "STATE_REGISTERED" :                 \
 123:C:/Users/²Ü¼ÒºÀ/.iotlink/sdk/IoT_LINK/iot_link/network/lwm2m/wakaama_lwm2m/wakaama-master/core\internals.h **** ((S) == STATE_REG_FAILED ? "STATE_REG_FAILED" :                 \
 124:C:/Users/²Ü¼ÒºÀ/.iotlink/sdk/IoT_LINK/iot_link/network/lwm2m/wakaama_lwm2m/wakaama-master/core\internals.h **** ((S) == STATE_REG_UPDATE_PENDING ? "STATE_REG_UPDATE_PENDING" : \
 125:C:/Users/²Ü¼ÒºÀ/.iotlink/sdk/IoT_LINK/iot_link/network/lwm2m/wakaama_lwm2m/wakaama-master/core\internals.h **** ((S) == STATE_REG_UPDATE_NEEDED ? "STATE_REG_UPDATE_NEEDED" :   \
 126:C:/Users/²Ü¼ÒºÀ/.iotlink/sdk/IoT_LINK/iot_link/network/lwm2m/wakaama_lwm2m/wakaama-master/core\internals.h **** ((S) == STATE_REG_FULL_UPDATE_NEEDED ? "STATE_REG_FULL_UPDATE_NEEDED" :   \
 127:C:/Users/²Ü¼ÒºÀ/.iotlink/sdk/IoT_LINK/iot_link/network/lwm2m/wakaama_lwm2m/wakaama-master/core\internals.h **** ((S) == STATE_DEREG_PENDING ? "STATE_DEREG_PENDING" :           \
 128:C:/Users/²Ü¼ÒºÀ/.iotlink/sdk/IoT_LINK/iot_link/network/lwm2m/wakaama_lwm2m/wakaama-master/core\internals.h **** ((S) == STATE_BS_HOLD_OFF ? "STATE_BS_HOLD_OFF" :               \
 129:C:/Users/²Ü¼ÒºÀ/.iotlink/sdk/IoT_LINK/iot_link/network/lwm2m/wakaama_lwm2m/wakaama-master/core\internals.h **** ((S) == STATE_BS_INITIATED ? "STATE_BS_INITIATED" :             \
 130:C:/Users/²Ü¼ÒºÀ/.iotlink/sdk/IoT_LINK/iot_link/network/lwm2m/wakaama_lwm2m/wakaama-master/core\internals.h **** ((S) == STATE_BS_PENDING ? "STATE_BS_PENDING" :                 \
 131:C:/Users/²Ü¼ÒºÀ/.iotlink/sdk/IoT_LINK/iot_link/network/lwm2m/wakaama_lwm2m/wakaama-master/core\internals.h **** ((S) == STATE_BS_FINISHED ? "STATE_BS_FINISHED" :               \
 132:C:/Users/²Ü¼ÒºÀ/.iotlink/sdk/IoT_LINK/iot_link/network/lwm2m/wakaama_lwm2m/wakaama-master/core\internals.h **** ((S) == STATE_BS_FINISHING ? "STATE_BS_FINISHING" :             \
 133:C:/Users/²Ü¼ÒºÀ/.iotlink/sdk/IoT_LINK/iot_link/network/lwm2m/wakaama_lwm2m/wakaama-master/core\internals.h **** ((S) == STATE_BS_FAILING ? "STATE_BS_FAILING" :                 \
 134:C:/Users/²Ü¼ÒºÀ/.iotlink/sdk/IoT_LINK/iot_link/network/lwm2m/wakaama_lwm2m/wakaama-master/core\internals.h **** ((S) == STATE_BS_FAILED ? "STATE_BS_FAILED" :                   \
 135:C:/Users/²Ü¼ÒºÀ/.iotlink/sdk/IoT_LINK/iot_link/network/lwm2m/wakaama_lwm2m/wakaama-master/core\internals.h **** "Unknown")))))))))))))))
 136:C:/Users/²Ü¼ÒºÀ/.iotlink/sdk/IoT_LINK/iot_link/network/lwm2m/wakaama_lwm2m/wakaama-master/core\internals.h **** #define STR_MEDIA_TYPE(M)                                \
 137:C:/Users/²Ü¼ÒºÀ/.iotlink/sdk/IoT_LINK/iot_link/network/lwm2m/wakaama_lwm2m/wakaama-master/core\internals.h **** ((M) == LWM2M_CONTENT_TEXT ? "LWM2M_CONTENT_TEXT" :      \
 138:C:/Users/²Ü¼ÒºÀ/.iotlink/sdk/IoT_LINK/iot_link/network/lwm2m/wakaama_lwm2m/wakaama-master/core\internals.h **** ((M) == LWM2M_CONTENT_LINK ? "LWM2M_CONTENT_LINK" :      \
 139:C:/Users/²Ü¼ÒºÀ/.iotlink/sdk/IoT_LINK/iot_link/network/lwm2m/wakaama_lwm2m/wakaama-master/core\internals.h **** ((M) == LWM2M_CONTENT_OPAQUE ? "LWM2M_CONTENT_OPAQUE" :  \
ARM GAS  C:\Users\²Ü¼ÒºÀ\AppData\Local\Temp\ccA6NNYh.s 			page 113


 140:C:/Users/²Ü¼ÒºÀ/.iotlink/sdk/IoT_LINK/iot_link/network/lwm2m/wakaama_lwm2m/wakaama-master/core\internals.h **** ((M) == LWM2M_CONTENT_TLV ? "LWM2M_CONTENT_TLV" :        \
 141:C:/Users/²Ü¼ÒºÀ/.iotlink/sdk/IoT_LINK/iot_link/network/lwm2m/wakaama_lwm2m/wakaama-master/core\internals.h **** ((M) == LWM2M_CONTENT_JSON ? "LWM2M_CONTENT_JSON" :      \
 142:C:/Users/²Ü¼ÒºÀ/.iotlink/sdk/IoT_LINK/iot_link/network/lwm2m/wakaama_lwm2m/wakaama-master/core\internals.h **** "Unknown")))))
 143:C:/Users/²Ü¼ÒºÀ/.iotlink/sdk/IoT_LINK/iot_link/network/lwm2m/wakaama_lwm2m/wakaama-master/core\internals.h **** #define STR_STATE(S)                                \
 144:C:/Users/²Ü¼ÒºÀ/.iotlink/sdk/IoT_LINK/iot_link/network/lwm2m/wakaama_lwm2m/wakaama-master/core\internals.h **** ((S) == STATE_INITIAL ? "STATE_INITIAL" :      \
 145:C:/Users/²Ü¼ÒºÀ/.iotlink/sdk/IoT_LINK/iot_link/network/lwm2m/wakaama_lwm2m/wakaama-master/core\internals.h **** ((S) == STATE_BOOTSTRAP_REQUIRED ? "STATE_BOOTSTRAP_REQUIRED" :      \
 146:C:/Users/²Ü¼ÒºÀ/.iotlink/sdk/IoT_LINK/iot_link/network/lwm2m/wakaama_lwm2m/wakaama-master/core\internals.h **** ((S) == STATE_BOOTSTRAPPING ? "STATE_BOOTSTRAPPING" :  \
 147:C:/Users/²Ü¼ÒºÀ/.iotlink/sdk/IoT_LINK/iot_link/network/lwm2m/wakaama_lwm2m/wakaama-master/core\internals.h **** ((S) == STATE_REGISTER_REQUIRED ? "STATE_REGISTER_REQUIRED" :        \
 148:C:/Users/²Ü¼ÒºÀ/.iotlink/sdk/IoT_LINK/iot_link/network/lwm2m/wakaama_lwm2m/wakaama-master/core\internals.h **** ((S) == STATE_REGISTERING ? "STATE_REGISTERING" :      \
 149:C:/Users/²Ü¼ÒºÀ/.iotlink/sdk/IoT_LINK/iot_link/network/lwm2m/wakaama_lwm2m/wakaama-master/core\internals.h **** ((S) == STATE_READY ? "STATE_READY" :      \
 150:C:/Users/²Ü¼ÒºÀ/.iotlink/sdk/IoT_LINK/iot_link/network/lwm2m/wakaama_lwm2m/wakaama-master/core\internals.h **** "Unknown"))))))
 151:C:/Users/²Ü¼ÒºÀ/.iotlink/sdk/IoT_LINK/iot_link/network/lwm2m/wakaama_lwm2m/wakaama-master/core\internals.h **** #else
 152:C:/Users/²Ü¼ÒºÀ/.iotlink/sdk/IoT_LINK/iot_link/network/lwm2m/wakaama_lwm2m/wakaama-master/core\internals.h **** #define UNUSEX(x) (x)=(x)
 153:C:/Users/²Ü¼ÒºÀ/.iotlink/sdk/IoT_LINK/iot_link/network/lwm2m/wakaama_lwm2m/wakaama-master/core\internals.h **** #define LOG_ARG(FMT, ...)
 154:C:/Users/²Ü¼ÒºÀ/.iotlink/sdk/IoT_LINK/iot_link/network/lwm2m/wakaama_lwm2m/wakaama-master/core\internals.h **** #define LOG(STR)
 155:C:/Users/²Ü¼ÒºÀ/.iotlink/sdk/IoT_LINK/iot_link/network/lwm2m/wakaama_lwm2m/wakaama-master/core\internals.h **** #define LOG_URI(URI)
 156:C:/Users/²Ü¼ÒºÀ/.iotlink/sdk/IoT_LINK/iot_link/network/lwm2m/wakaama_lwm2m/wakaama-master/core\internals.h **** #endif
 157:C:/Users/²Ü¼ÒºÀ/.iotlink/sdk/IoT_LINK/iot_link/network/lwm2m/wakaama_lwm2m/wakaama-master/core\internals.h **** 
 158:C:/Users/²Ü¼ÒºÀ/.iotlink/sdk/IoT_LINK/iot_link/network/lwm2m/wakaama_lwm2m/wakaama-master/core\internals.h **** #define LWM2M_DEFAULT_LIFETIME  86400
 159:C:/Users/²Ü¼ÒºÀ/.iotlink/sdk/IoT_LINK/iot_link/network/lwm2m/wakaama_lwm2m/wakaama-master/core\internals.h **** 
 160:C:/Users/²Ü¼ÒºÀ/.iotlink/sdk/IoT_LINK/iot_link/network/lwm2m/wakaama_lwm2m/wakaama-master/core\internals.h **** #ifdef LWM2M_SUPPORT_JSON
 161:C:/Users/²Ü¼ÒºÀ/.iotlink/sdk/IoT_LINK/iot_link/network/lwm2m/wakaama_lwm2m/wakaama-master/core\internals.h **** #define REG_LWM2M_RESOURCE_TYPE     ">;rt=\"oma.lwm2m\";ct=11543,"
 162:C:/Users/²Ü¼ÒºÀ/.iotlink/sdk/IoT_LINK/iot_link/network/lwm2m/wakaama_lwm2m/wakaama-master/core\internals.h **** #define REG_LWM2M_RESOURCE_TYPE_LEN 25
 163:C:/Users/²Ü¼ÒºÀ/.iotlink/sdk/IoT_LINK/iot_link/network/lwm2m/wakaama_lwm2m/wakaama-master/core\internals.h **** #else
 164:C:/Users/²Ü¼ÒºÀ/.iotlink/sdk/IoT_LINK/iot_link/network/lwm2m/wakaama_lwm2m/wakaama-master/core\internals.h **** #define REG_LWM2M_RESOURCE_TYPE     ">;rt=\"oma.lwm2m\","
 165:C:/Users/²Ü¼ÒºÀ/.iotlink/sdk/IoT_LINK/iot_link/network/lwm2m/wakaama_lwm2m/wakaama-master/core\internals.h **** #define REG_LWM2M_RESOURCE_TYPE_LEN 17
 166:C:/Users/²Ü¼ÒºÀ/.iotlink/sdk/IoT_LINK/iot_link/network/lwm2m/wakaama_lwm2m/wakaama-master/core\internals.h **** #endif
 167:C:/Users/²Ü¼ÒºÀ/.iotlink/sdk/IoT_LINK/iot_link/network/lwm2m/wakaama_lwm2m/wakaama-master/core\internals.h **** #define REG_START           "<"
 168:C:/Users/²Ü¼ÒºÀ/.iotlink/sdk/IoT_LINK/iot_link/network/lwm2m/wakaama_lwm2m/wakaama-master/core\internals.h **** #define REG_DEFAULT_PATH    "/"
 169:C:/Users/²Ü¼ÒºÀ/.iotlink/sdk/IoT_LINK/iot_link/network/lwm2m/wakaama_lwm2m/wakaama-master/core\internals.h **** 
 170:C:/Users/²Ü¼ÒºÀ/.iotlink/sdk/IoT_LINK/iot_link/network/lwm2m/wakaama_lwm2m/wakaama-master/core\internals.h **** #define REG_OBJECT_MIN_LEN  5   // "</n>,"
 171:C:/Users/²Ü¼ÒºÀ/.iotlink/sdk/IoT_LINK/iot_link/network/lwm2m/wakaama_lwm2m/wakaama-master/core\internals.h **** #define REG_PATH_END        ">,"
 172:C:/Users/²Ü¼ÒºÀ/.iotlink/sdk/IoT_LINK/iot_link/network/lwm2m/wakaama_lwm2m/wakaama-master/core\internals.h **** #define REG_PATH_SEPARATOR  "/"
 173:C:/Users/²Ü¼ÒºÀ/.iotlink/sdk/IoT_LINK/iot_link/network/lwm2m/wakaama_lwm2m/wakaama-master/core\internals.h **** 
 174:C:/Users/²Ü¼ÒºÀ/.iotlink/sdk/IoT_LINK/iot_link/network/lwm2m/wakaama_lwm2m/wakaama-master/core\internals.h **** #define REG_OBJECT_PATH             "<%s/%hu>,"
 175:C:/Users/²Ü¼ÒºÀ/.iotlink/sdk/IoT_LINK/iot_link/network/lwm2m/wakaama_lwm2m/wakaama-master/core\internals.h **** #define REG_OBJECT_INSTANCE_PATH    "<%s/%hu/%hu>,"
 176:C:/Users/²Ü¼ÒºÀ/.iotlink/sdk/IoT_LINK/iot_link/network/lwm2m/wakaama_lwm2m/wakaama-master/core\internals.h **** 
 177:C:/Users/²Ü¼ÒºÀ/.iotlink/sdk/IoT_LINK/iot_link/network/lwm2m/wakaama_lwm2m/wakaama-master/core\internals.h **** #define URI_REGISTRATION_SEGMENT        "rd"
 178:C:/Users/²Ü¼ÒºÀ/.iotlink/sdk/IoT_LINK/iot_link/network/lwm2m/wakaama_lwm2m/wakaama-master/core\internals.h **** #define URI_REGISTRATION_SEGMENT_LEN    2
 179:C:/Users/²Ü¼ÒºÀ/.iotlink/sdk/IoT_LINK/iot_link/network/lwm2m/wakaama_lwm2m/wakaama-master/core\internals.h **** #define URI_BOOTSTRAP_SEGMENT           "bs"
 180:C:/Users/²Ü¼ÒºÀ/.iotlink/sdk/IoT_LINK/iot_link/network/lwm2m/wakaama_lwm2m/wakaama-master/core\internals.h **** #define URI_BOOTSTRAP_SEGMENT_LEN       2
 181:C:/Users/²Ü¼ÒºÀ/.iotlink/sdk/IoT_LINK/iot_link/network/lwm2m/wakaama_lwm2m/wakaama-master/core\internals.h **** 
 182:C:/Users/²Ü¼ÒºÀ/.iotlink/sdk/IoT_LINK/iot_link/network/lwm2m/wakaama_lwm2m/wakaama-master/core\internals.h **** #define QUERY_STARTER       "?"
 183:C:/Users/²Ü¼ÒºÀ/.iotlink/sdk/IoT_LINK/iot_link/network/lwm2m/wakaama_lwm2m/wakaama-master/core\internals.h **** #define QUERY_NAME          "ep="
 184:C:/Users/²Ü¼ÒºÀ/.iotlink/sdk/IoT_LINK/iot_link/network/lwm2m/wakaama_lwm2m/wakaama-master/core\internals.h **** #define QUERY_NAME_LEN      3       // strlen("ep=")
 185:C:/Users/²Ü¼ÒºÀ/.iotlink/sdk/IoT_LINK/iot_link/network/lwm2m/wakaama_lwm2m/wakaama-master/core\internals.h **** #define QUERY_SMS           "sms="
 186:C:/Users/²Ü¼ÒºÀ/.iotlink/sdk/IoT_LINK/iot_link/network/lwm2m/wakaama_lwm2m/wakaama-master/core\internals.h **** #define QUERY_SMS_LEN       4
 187:C:/Users/²Ü¼ÒºÀ/.iotlink/sdk/IoT_LINK/iot_link/network/lwm2m/wakaama_lwm2m/wakaama-master/core\internals.h **** #define QUERY_LIFETIME      "lt="
 188:C:/Users/²Ü¼ÒºÀ/.iotlink/sdk/IoT_LINK/iot_link/network/lwm2m/wakaama_lwm2m/wakaama-master/core\internals.h **** #define QUERY_LIFETIME_LEN  3
 189:C:/Users/²Ü¼ÒºÀ/.iotlink/sdk/IoT_LINK/iot_link/network/lwm2m/wakaama_lwm2m/wakaama-master/core\internals.h **** #define QUERY_VERSION       "lwm2m="
 190:C:/Users/²Ü¼ÒºÀ/.iotlink/sdk/IoT_LINK/iot_link/network/lwm2m/wakaama_lwm2m/wakaama-master/core\internals.h **** #define QUERY_VERSION_LEN   6
 191:C:/Users/²Ü¼ÒºÀ/.iotlink/sdk/IoT_LINK/iot_link/network/lwm2m/wakaama_lwm2m/wakaama-master/core\internals.h **** #define QUERY_BINDING       "b="
 192:C:/Users/²Ü¼ÒºÀ/.iotlink/sdk/IoT_LINK/iot_link/network/lwm2m/wakaama_lwm2m/wakaama-master/core\internals.h **** #define QUERY_BINDING_LEN   2
 193:C:/Users/²Ü¼ÒºÀ/.iotlink/sdk/IoT_LINK/iot_link/network/lwm2m/wakaama_lwm2m/wakaama-master/core\internals.h **** #define QUERY_DELIMITER     "&"
 194:C:/Users/²Ü¼ÒºÀ/.iotlink/sdk/IoT_LINK/iot_link/network/lwm2m/wakaama_lwm2m/wakaama-master/core\internals.h **** 
 195:C:/Users/²Ü¼ÒºÀ/.iotlink/sdk/IoT_LINK/iot_link/network/lwm2m/wakaama_lwm2m/wakaama-master/core\internals.h **** #define LWM2M_VERSION      "1.0"
 196:C:/Users/²Ü¼ÒºÀ/.iotlink/sdk/IoT_LINK/iot_link/network/lwm2m/wakaama_lwm2m/wakaama-master/core\internals.h **** #define LWM2M_VERSION_LEN  3
ARM GAS  C:\Users\²Ü¼ÒºÀ\AppData\Local\Temp\ccA6NNYh.s 			page 114


 197:C:/Users/²Ü¼ÒºÀ/.iotlink/sdk/IoT_LINK/iot_link/network/lwm2m/wakaama_lwm2m/wakaama-master/core\internals.h **** 
 198:C:/Users/²Ü¼ÒºÀ/.iotlink/sdk/IoT_LINK/iot_link/network/lwm2m/wakaama_lwm2m/wakaama-master/core\internals.h **** #define QUERY_VERSION_FULL      QUERY_VERSION LWM2M_VERSION
 199:C:/Users/²Ü¼ÒºÀ/.iotlink/sdk/IoT_LINK/iot_link/network/lwm2m/wakaama_lwm2m/wakaama-master/core\internals.h **** #define QUERY_VERSION_FULL_LEN  QUERY_VERSION_LEN+LWM2M_VERSION_LEN
 200:C:/Users/²Ü¼ÒºÀ/.iotlink/sdk/IoT_LINK/iot_link/network/lwm2m/wakaama_lwm2m/wakaama-master/core\internals.h **** 
 201:C:/Users/²Ü¼ÒºÀ/.iotlink/sdk/IoT_LINK/iot_link/network/lwm2m/wakaama_lwm2m/wakaama-master/core\internals.h **** #define REG_URI_START       '<'
 202:C:/Users/²Ü¼ÒºÀ/.iotlink/sdk/IoT_LINK/iot_link/network/lwm2m/wakaama_lwm2m/wakaama-master/core\internals.h **** #define REG_URI_END         '>'
 203:C:/Users/²Ü¼ÒºÀ/.iotlink/sdk/IoT_LINK/iot_link/network/lwm2m/wakaama_lwm2m/wakaama-master/core\internals.h **** #define REG_DELIMITER       ','
 204:C:/Users/²Ü¼ÒºÀ/.iotlink/sdk/IoT_LINK/iot_link/network/lwm2m/wakaama_lwm2m/wakaama-master/core\internals.h **** #define REG_ATTR_SEPARATOR  ';'
 205:C:/Users/²Ü¼ÒºÀ/.iotlink/sdk/IoT_LINK/iot_link/network/lwm2m/wakaama_lwm2m/wakaama-master/core\internals.h **** #define REG_ATTR_EQUALS     '='
 206:C:/Users/²Ü¼ÒºÀ/.iotlink/sdk/IoT_LINK/iot_link/network/lwm2m/wakaama_lwm2m/wakaama-master/core\internals.h **** #define REG_ATTR_TYPE_KEY           "rt"
 207:C:/Users/²Ü¼ÒºÀ/.iotlink/sdk/IoT_LINK/iot_link/network/lwm2m/wakaama_lwm2m/wakaama-master/core\internals.h **** #define REG_ATTR_TYPE_KEY_LEN       2
 208:C:/Users/²Ü¼ÒºÀ/.iotlink/sdk/IoT_LINK/iot_link/network/lwm2m/wakaama_lwm2m/wakaama-master/core\internals.h **** #define REG_ATTR_TYPE_VALUE         "\"oma.lwm2m\""
 209:C:/Users/²Ü¼ÒºÀ/.iotlink/sdk/IoT_LINK/iot_link/network/lwm2m/wakaama_lwm2m/wakaama-master/core\internals.h **** #define REG_ATTR_TYPE_VALUE_LEN     11
 210:C:/Users/²Ü¼ÒºÀ/.iotlink/sdk/IoT_LINK/iot_link/network/lwm2m/wakaama_lwm2m/wakaama-master/core\internals.h **** #define REG_ATTR_CONTENT_KEY        "ct"
 211:C:/Users/²Ü¼ÒºÀ/.iotlink/sdk/IoT_LINK/iot_link/network/lwm2m/wakaama_lwm2m/wakaama-master/core\internals.h **** #define REG_ATTR_CONTENT_KEY_LEN    2
 212:C:/Users/²Ü¼ÒºÀ/.iotlink/sdk/IoT_LINK/iot_link/network/lwm2m/wakaama_lwm2m/wakaama-master/core\internals.h **** #define REG_ATTR_CONTENT_JSON       "11543"   // Temporary value
 213:C:/Users/²Ü¼ÒºÀ/.iotlink/sdk/IoT_LINK/iot_link/network/lwm2m/wakaama_lwm2m/wakaama-master/core\internals.h **** #define REG_ATTR_CONTENT_JSON_LEN   5
 214:C:/Users/²Ü¼ÒºÀ/.iotlink/sdk/IoT_LINK/iot_link/network/lwm2m/wakaama_lwm2m/wakaama-master/core\internals.h **** 
 215:C:/Users/²Ü¼ÒºÀ/.iotlink/sdk/IoT_LINK/iot_link/network/lwm2m/wakaama_lwm2m/wakaama-master/core\internals.h **** #define ATTR_SERVER_ID_STR       "ep="
 216:C:/Users/²Ü¼ÒºÀ/.iotlink/sdk/IoT_LINK/iot_link/network/lwm2m/wakaama_lwm2m/wakaama-master/core\internals.h **** #define ATTR_SERVER_ID_LEN       3
 217:C:/Users/²Ü¼ÒºÀ/.iotlink/sdk/IoT_LINK/iot_link/network/lwm2m/wakaama_lwm2m/wakaama-master/core\internals.h **** #define ATTR_MIN_PERIOD_STR      "pmin="
 218:C:/Users/²Ü¼ÒºÀ/.iotlink/sdk/IoT_LINK/iot_link/network/lwm2m/wakaama_lwm2m/wakaama-master/core\internals.h **** #define ATTR_MIN_PERIOD_LEN      5
 219:C:/Users/²Ü¼ÒºÀ/.iotlink/sdk/IoT_LINK/iot_link/network/lwm2m/wakaama_lwm2m/wakaama-master/core\internals.h **** #define ATTR_MAX_PERIOD_STR      "pmax="
 220:C:/Users/²Ü¼ÒºÀ/.iotlink/sdk/IoT_LINK/iot_link/network/lwm2m/wakaama_lwm2m/wakaama-master/core\internals.h **** #define ATTR_MAX_PERIOD_LEN      5
 221:C:/Users/²Ü¼ÒºÀ/.iotlink/sdk/IoT_LINK/iot_link/network/lwm2m/wakaama_lwm2m/wakaama-master/core\internals.h **** #define ATTR_GREATER_THAN_STR    "gt="
 222:C:/Users/²Ü¼ÒºÀ/.iotlink/sdk/IoT_LINK/iot_link/network/lwm2m/wakaama_lwm2m/wakaama-master/core\internals.h **** #define ATTR_GREATER_THAN_LEN    3
 223:C:/Users/²Ü¼ÒºÀ/.iotlink/sdk/IoT_LINK/iot_link/network/lwm2m/wakaama_lwm2m/wakaama-master/core\internals.h **** #define ATTR_LESS_THAN_STR       "lt="
 224:C:/Users/²Ü¼ÒºÀ/.iotlink/sdk/IoT_LINK/iot_link/network/lwm2m/wakaama_lwm2m/wakaama-master/core\internals.h **** #define ATTR_LESS_THAN_LEN       3
 225:C:/Users/²Ü¼ÒºÀ/.iotlink/sdk/IoT_LINK/iot_link/network/lwm2m/wakaama_lwm2m/wakaama-master/core\internals.h **** #define ATTR_STEP_STR            "st="
 226:C:/Users/²Ü¼ÒºÀ/.iotlink/sdk/IoT_LINK/iot_link/network/lwm2m/wakaama_lwm2m/wakaama-master/core\internals.h **** #define ATTR_STEP_LEN            3
 227:C:/Users/²Ü¼ÒºÀ/.iotlink/sdk/IoT_LINK/iot_link/network/lwm2m/wakaama_lwm2m/wakaama-master/core\internals.h **** #define ATTR_DIMENSION_STR       "dim="
 228:C:/Users/²Ü¼ÒºÀ/.iotlink/sdk/IoT_LINK/iot_link/network/lwm2m/wakaama_lwm2m/wakaama-master/core\internals.h **** #define ATTR_DIMENSION_LEN       4
 229:C:/Users/²Ü¼ÒºÀ/.iotlink/sdk/IoT_LINK/iot_link/network/lwm2m/wakaama_lwm2m/wakaama-master/core\internals.h **** 
 230:C:/Users/²Ü¼ÒºÀ/.iotlink/sdk/IoT_LINK/iot_link/network/lwm2m/wakaama_lwm2m/wakaama-master/core\internals.h **** #define URI_MAX_STRING_LEN    18      // /65535/65535/65535
 231:C:/Users/²Ü¼ÒºÀ/.iotlink/sdk/IoT_LINK/iot_link/network/lwm2m/wakaama_lwm2m/wakaama-master/core\internals.h **** #define _PRV_64BIT_BUFFER_SIZE 8
 232:C:/Users/²Ü¼ÒºÀ/.iotlink/sdk/IoT_LINK/iot_link/network/lwm2m/wakaama_lwm2m/wakaama-master/core\internals.h **** 
 233:C:/Users/²Ü¼ÒºÀ/.iotlink/sdk/IoT_LINK/iot_link/network/lwm2m/wakaama_lwm2m/wakaama-master/core\internals.h **** #define LINK_ITEM_START             "<"
 234:C:/Users/²Ü¼ÒºÀ/.iotlink/sdk/IoT_LINK/iot_link/network/lwm2m/wakaama_lwm2m/wakaama-master/core\internals.h **** #define LINK_ITEM_START_SIZE        1
 235:C:/Users/²Ü¼ÒºÀ/.iotlink/sdk/IoT_LINK/iot_link/network/lwm2m/wakaama_lwm2m/wakaama-master/core\internals.h **** #define LINK_ITEM_END               ">,"
 236:C:/Users/²Ü¼ÒºÀ/.iotlink/sdk/IoT_LINK/iot_link/network/lwm2m/wakaama_lwm2m/wakaama-master/core\internals.h **** #define LINK_ITEM_END_SIZE          2
 237:C:/Users/²Ü¼ÒºÀ/.iotlink/sdk/IoT_LINK/iot_link/network/lwm2m/wakaama_lwm2m/wakaama-master/core\internals.h **** #define LINK_ITEM_DIM_START         ">;dim="
 238:C:/Users/²Ü¼ÒºÀ/.iotlink/sdk/IoT_LINK/iot_link/network/lwm2m/wakaama_lwm2m/wakaama-master/core\internals.h **** #define LINK_ITEM_DIM_START_SIZE    6
 239:C:/Users/²Ü¼ÒºÀ/.iotlink/sdk/IoT_LINK/iot_link/network/lwm2m/wakaama_lwm2m/wakaama-master/core\internals.h **** #define LINK_ITEM_ATTR_END          ","
 240:C:/Users/²Ü¼ÒºÀ/.iotlink/sdk/IoT_LINK/iot_link/network/lwm2m/wakaama_lwm2m/wakaama-master/core\internals.h **** #define LINK_ITEM_ATTR_END_SIZE     1
 241:C:/Users/²Ü¼ÒºÀ/.iotlink/sdk/IoT_LINK/iot_link/network/lwm2m/wakaama_lwm2m/wakaama-master/core\internals.h **** #define LINK_URI_SEPARATOR          "/"
 242:C:/Users/²Ü¼ÒºÀ/.iotlink/sdk/IoT_LINK/iot_link/network/lwm2m/wakaama_lwm2m/wakaama-master/core\internals.h **** #define LINK_URI_SEPARATOR_SIZE     1
 243:C:/Users/²Ü¼ÒºÀ/.iotlink/sdk/IoT_LINK/iot_link/network/lwm2m/wakaama_lwm2m/wakaama-master/core\internals.h **** #define LINK_ATTR_SEPARATOR         ";"
 244:C:/Users/²Ü¼ÒºÀ/.iotlink/sdk/IoT_LINK/iot_link/network/lwm2m/wakaama_lwm2m/wakaama-master/core\internals.h **** #define LINK_ATTR_SEPARATOR_SIZE    1
 245:C:/Users/²Ü¼ÒºÀ/.iotlink/sdk/IoT_LINK/iot_link/network/lwm2m/wakaama_lwm2m/wakaama-master/core\internals.h **** 
 246:C:/Users/²Ü¼ÒºÀ/.iotlink/sdk/IoT_LINK/iot_link/network/lwm2m/wakaama_lwm2m/wakaama-master/core\internals.h **** #define ATTR_FLAG_NUMERIC (uint8_t)(LWM2M_ATTR_FLAG_LESS_THAN | LWM2M_ATTR_FLAG_GREATER_THAN | LWM2
 247:C:/Users/²Ü¼ÒºÀ/.iotlink/sdk/IoT_LINK/iot_link/network/lwm2m/wakaama_lwm2m/wakaama-master/core\internals.h **** 
 248:C:/Users/²Ü¼ÒºÀ/.iotlink/sdk/IoT_LINK/iot_link/network/lwm2m/wakaama_lwm2m/wakaama-master/core\internals.h **** #define LWM2M_URI_FLAG_DM           (uint8_t)0x00
 249:C:/Users/²Ü¼ÒºÀ/.iotlink/sdk/IoT_LINK/iot_link/network/lwm2m/wakaama_lwm2m/wakaama-master/core\internals.h **** #define LWM2M_URI_FLAG_DELETE_ALL   (uint8_t)0x10
 250:C:/Users/²Ü¼ÒºÀ/.iotlink/sdk/IoT_LINK/iot_link/network/lwm2m/wakaama_lwm2m/wakaama-master/core\internals.h **** #define LWM2M_URI_FLAG_REGISTRATION (uint8_t)0x20
 251:C:/Users/²Ü¼ÒºÀ/.iotlink/sdk/IoT_LINK/iot_link/network/lwm2m/wakaama_lwm2m/wakaama-master/core\internals.h **** #define LWM2M_URI_FLAG_BOOTSTRAP    (uint8_t)0x40
 252:C:/Users/²Ü¼ÒºÀ/.iotlink/sdk/IoT_LINK/iot_link/network/lwm2m/wakaama_lwm2m/wakaama-master/core\internals.h **** 
 253:C:/Users/²Ü¼ÒºÀ/.iotlink/sdk/IoT_LINK/iot_link/network/lwm2m/wakaama_lwm2m/wakaama-master/core\internals.h **** #define LWM2M_URI_MASK_TYPE (uint8_t)0x70
ARM GAS  C:\Users\²Ü¼ÒºÀ\AppData\Local\Temp\ccA6NNYh.s 			page 115


 254:C:/Users/²Ü¼ÒºÀ/.iotlink/sdk/IoT_LINK/iot_link/network/lwm2m/wakaama_lwm2m/wakaama-master/core\internals.h **** #define LWM2M_URI_MASK_ID   (uint8_t)0x07
 255:C:/Users/²Ü¼ÒºÀ/.iotlink/sdk/IoT_LINK/iot_link/network/lwm2m/wakaama_lwm2m/wakaama-master/core\internals.h **** 
 256:C:/Users/²Ü¼ÒºÀ/.iotlink/sdk/IoT_LINK/iot_link/network/lwm2m/wakaama_lwm2m/wakaama-master/core\internals.h **** typedef struct
 257:C:/Users/²Ü¼ÒºÀ/.iotlink/sdk/IoT_LINK/iot_link/network/lwm2m/wakaama_lwm2m/wakaama-master/core\internals.h **** {
 258:C:/Users/²Ü¼ÒºÀ/.iotlink/sdk/IoT_LINK/iot_link/network/lwm2m/wakaama_lwm2m/wakaama-master/core\internals.h ****     uint16_t clientID;
 259:C:/Users/²Ü¼ÒºÀ/.iotlink/sdk/IoT_LINK/iot_link/network/lwm2m/wakaama_lwm2m/wakaama-master/core\internals.h ****     lwm2m_uri_t uri;
 260:C:/Users/²Ü¼ÒºÀ/.iotlink/sdk/IoT_LINK/iot_link/network/lwm2m/wakaama_lwm2m/wakaama-master/core\internals.h ****     lwm2m_result_callback_t callback;
 261:C:/Users/²Ü¼ÒºÀ/.iotlink/sdk/IoT_LINK/iot_link/network/lwm2m/wakaama_lwm2m/wakaama-master/core\internals.h ****     void * userData;
 262:C:/Users/²Ü¼ÒºÀ/.iotlink/sdk/IoT_LINK/iot_link/network/lwm2m/wakaama_lwm2m/wakaama-master/core\internals.h **** } dm_data_t;
 263:C:/Users/²Ü¼ÒºÀ/.iotlink/sdk/IoT_LINK/iot_link/network/lwm2m/wakaama_lwm2m/wakaama-master/core\internals.h **** 
 264:C:/Users/²Ü¼ÒºÀ/.iotlink/sdk/IoT_LINK/iot_link/network/lwm2m/wakaama_lwm2m/wakaama-master/core\internals.h **** typedef enum
 265:C:/Users/²Ü¼ÒºÀ/.iotlink/sdk/IoT_LINK/iot_link/network/lwm2m/wakaama_lwm2m/wakaama-master/core\internals.h **** {
 266:C:/Users/²Ü¼ÒºÀ/.iotlink/sdk/IoT_LINK/iot_link/network/lwm2m/wakaama_lwm2m/wakaama-master/core\internals.h ****     URI_DEPTH_OBJECT,
 267:C:/Users/²Ü¼ÒºÀ/.iotlink/sdk/IoT_LINK/iot_link/network/lwm2m/wakaama_lwm2m/wakaama-master/core\internals.h ****     URI_DEPTH_OBJECT_INSTANCE,
 268:C:/Users/²Ü¼ÒºÀ/.iotlink/sdk/IoT_LINK/iot_link/network/lwm2m/wakaama_lwm2m/wakaama-master/core\internals.h ****     URI_DEPTH_RESOURCE,
 269:C:/Users/²Ü¼ÒºÀ/.iotlink/sdk/IoT_LINK/iot_link/network/lwm2m/wakaama_lwm2m/wakaama-master/core\internals.h ****     URI_DEPTH_RESOURCE_INSTANCE
 270:C:/Users/²Ü¼ÒºÀ/.iotlink/sdk/IoT_LINK/iot_link/network/lwm2m/wakaama_lwm2m/wakaama-master/core\internals.h **** } uri_depth_t;
 271:C:/Users/²Ü¼ÒºÀ/.iotlink/sdk/IoT_LINK/iot_link/network/lwm2m/wakaama_lwm2m/wakaama-master/core\internals.h **** 
 272:C:/Users/²Ü¼ÒºÀ/.iotlink/sdk/IoT_LINK/iot_link/network/lwm2m/wakaama_lwm2m/wakaama-master/core\internals.h **** #ifdef LWM2M_BOOTSTRAP_SERVER_MODE
 273:C:/Users/²Ü¼ÒºÀ/.iotlink/sdk/IoT_LINK/iot_link/network/lwm2m/wakaama_lwm2m/wakaama-master/core\internals.h **** typedef struct
 274:C:/Users/²Ü¼ÒºÀ/.iotlink/sdk/IoT_LINK/iot_link/network/lwm2m/wakaama_lwm2m/wakaama-master/core\internals.h **** {
 275:C:/Users/²Ü¼ÒºÀ/.iotlink/sdk/IoT_LINK/iot_link/network/lwm2m/wakaama_lwm2m/wakaama-master/core\internals.h ****     bool        isUri;
 276:C:/Users/²Ü¼ÒºÀ/.iotlink/sdk/IoT_LINK/iot_link/network/lwm2m/wakaama_lwm2m/wakaama-master/core\internals.h ****     lwm2m_uri_t uri;
 277:C:/Users/²Ü¼ÒºÀ/.iotlink/sdk/IoT_LINK/iot_link/network/lwm2m/wakaama_lwm2m/wakaama-master/core\internals.h ****     lwm2m_bootstrap_callback_t callback;
 278:C:/Users/²Ü¼ÒºÀ/.iotlink/sdk/IoT_LINK/iot_link/network/lwm2m/wakaama_lwm2m/wakaama-master/core\internals.h ****     void *      userData;
 279:C:/Users/²Ü¼ÒºÀ/.iotlink/sdk/IoT_LINK/iot_link/network/lwm2m/wakaama_lwm2m/wakaama-master/core\internals.h **** } bs_data_t;
 280:C:/Users/²Ü¼ÒºÀ/.iotlink/sdk/IoT_LINK/iot_link/network/lwm2m/wakaama_lwm2m/wakaama-master/core\internals.h **** #endif
 281:C:/Users/²Ü¼ÒºÀ/.iotlink/sdk/IoT_LINK/iot_link/network/lwm2m/wakaama_lwm2m/wakaama-master/core\internals.h **** 
 282:C:/Users/²Ü¼ÒºÀ/.iotlink/sdk/IoT_LINK/iot_link/network/lwm2m/wakaama_lwm2m/wakaama-master/core\internals.h **** // defined in uri.c
 283:C:/Users/²Ü¼ÒºÀ/.iotlink/sdk/IoT_LINK/iot_link/network/lwm2m/wakaama_lwm2m/wakaama-master/core\internals.h **** lwm2m_uri_t * uri_decode(char * altPath, multi_option_t *uriPath);
 284:C:/Users/²Ü¼ÒºÀ/.iotlink/sdk/IoT_LINK/iot_link/network/lwm2m/wakaama_lwm2m/wakaama-master/core\internals.h **** int uri_getNumber(uint8_t * uriString, size_t uriLength);
 285:C:/Users/²Ü¼ÒºÀ/.iotlink/sdk/IoT_LINK/iot_link/network/lwm2m/wakaama_lwm2m/wakaama-master/core\internals.h **** int uri_toString(lwm2m_uri_t * uriP, uint8_t * buffer, size_t bufferLen, uri_depth_t * depthP);
 286:C:/Users/²Ü¼ÒºÀ/.iotlink/sdk/IoT_LINK/iot_link/network/lwm2m/wakaama_lwm2m/wakaama-master/core\internals.h **** 
 287:C:/Users/²Ü¼ÒºÀ/.iotlink/sdk/IoT_LINK/iot_link/network/lwm2m/wakaama_lwm2m/wakaama-master/core\internals.h **** // defined in objects.c
 288:C:/Users/²Ü¼ÒºÀ/.iotlink/sdk/IoT_LINK/iot_link/network/lwm2m/wakaama_lwm2m/wakaama-master/core\internals.h **** uint8_t object_readData(lwm2m_context_t * contextP, lwm2m_uri_t * uriP, int * sizeP, lwm2m_data_t *
 289:C:/Users/²Ü¼ÒºÀ/.iotlink/sdk/IoT_LINK/iot_link/network/lwm2m/wakaama_lwm2m/wakaama-master/core\internals.h **** uint8_t object_read(lwm2m_context_t * contextP, lwm2m_uri_t * uriP, lwm2m_media_type_t * formatP, u
 290:C:/Users/²Ü¼ÒºÀ/.iotlink/sdk/IoT_LINK/iot_link/network/lwm2m/wakaama_lwm2m/wakaama-master/core\internals.h **** uint8_t object_write(lwm2m_context_t * contextP, lwm2m_uri_t * uriP, lwm2m_media_type_t format, uin
 291:C:/Users/²Ü¼ÒºÀ/.iotlink/sdk/IoT_LINK/iot_link/network/lwm2m/wakaama_lwm2m/wakaama-master/core\internals.h **** uint8_t object_create(lwm2m_context_t * contextP, lwm2m_uri_t * uriP, lwm2m_media_type_t format, ui
 292:C:/Users/²Ü¼ÒºÀ/.iotlink/sdk/IoT_LINK/iot_link/network/lwm2m/wakaama_lwm2m/wakaama-master/core\internals.h **** uint8_t object_execute(lwm2m_context_t * contextP, lwm2m_uri_t * uriP, uint8_t * buffer, size_t len
 293:C:/Users/²Ü¼ÒºÀ/.iotlink/sdk/IoT_LINK/iot_link/network/lwm2m/wakaama_lwm2m/wakaama-master/core\internals.h **** uint8_t object_delete(lwm2m_context_t * contextP, lwm2m_uri_t * uriP);
 294:C:/Users/²Ü¼ÒºÀ/.iotlink/sdk/IoT_LINK/iot_link/network/lwm2m/wakaama_lwm2m/wakaama-master/core\internals.h **** uint8_t object_discover(lwm2m_context_t * contextP, lwm2m_uri_t * uriP, lwm2m_server_t * serverP, u
 295:C:/Users/²Ü¼ÒºÀ/.iotlink/sdk/IoT_LINK/iot_link/network/lwm2m/wakaama_lwm2m/wakaama-master/core\internals.h **** uint8_t object_checkReadable(lwm2m_context_t * contextP, lwm2m_uri_t * uriP);
 296:C:/Users/²Ü¼ÒºÀ/.iotlink/sdk/IoT_LINK/iot_link/network/lwm2m/wakaama_lwm2m/wakaama-master/core\internals.h **** uint8_t object_checkNumeric(lwm2m_context_t * contextP, lwm2m_uri_t * uriP);
 297:C:/Users/²Ü¼ÒºÀ/.iotlink/sdk/IoT_LINK/iot_link/network/lwm2m/wakaama_lwm2m/wakaama-master/core\internals.h **** bool object_isInstanceNew(lwm2m_context_t * contextP, uint16_t objectId, uint16_t instanceId);
 298:C:/Users/²Ü¼ÒºÀ/.iotlink/sdk/IoT_LINK/iot_link/network/lwm2m/wakaama_lwm2m/wakaama-master/core\internals.h **** int object_getRegisterPayloadBufferLength(lwm2m_context_t * contextP);
 299:C:/Users/²Ü¼ÒºÀ/.iotlink/sdk/IoT_LINK/iot_link/network/lwm2m/wakaama_lwm2m/wakaama-master/core\internals.h **** int object_getRegisterPayload(lwm2m_context_t * contextP, uint8_t * buffer, size_t length);
 300:C:/Users/²Ü¼ÒºÀ/.iotlink/sdk/IoT_LINK/iot_link/network/lwm2m/wakaama_lwm2m/wakaama-master/core\internals.h **** int object_getServers(lwm2m_context_t * contextP, bool checkOnly);
 301:C:/Users/²Ü¼ÒºÀ/.iotlink/sdk/IoT_LINK/iot_link/network/lwm2m/wakaama_lwm2m/wakaama-master/core\internals.h **** uint8_t object_createInstance(lwm2m_context_t * contextP, lwm2m_uri_t * uriP, lwm2m_data_t * dataP)
 302:C:/Users/²Ü¼ÒºÀ/.iotlink/sdk/IoT_LINK/iot_link/network/lwm2m/wakaama_lwm2m/wakaama-master/core\internals.h **** uint8_t object_writeInstance(lwm2m_context_t * contextP, lwm2m_uri_t * uriP, lwm2m_data_t * dataP);
 303:C:/Users/²Ü¼ÒºÀ/.iotlink/sdk/IoT_LINK/iot_link/network/lwm2m/wakaama_lwm2m/wakaama-master/core\internals.h **** 
 304:C:/Users/²Ü¼ÒºÀ/.iotlink/sdk/IoT_LINK/iot_link/network/lwm2m/wakaama_lwm2m/wakaama-master/core\internals.h **** // defined in transaction.c
 305:C:/Users/²Ü¼ÒºÀ/.iotlink/sdk/IoT_LINK/iot_link/network/lwm2m/wakaama_lwm2m/wakaama-master/core\internals.h **** lwm2m_transaction_t * transaction_new(void * sessionH, unsigned char method, char * altPath, lwm2m_
 306:C:/Users/²Ü¼ÒºÀ/.iotlink/sdk/IoT_LINK/iot_link/network/lwm2m/wakaama_lwm2m/wakaama-master/core\internals.h **** int transaction_send(lwm2m_context_t * contextP, lwm2m_transaction_t * transacP);
 307:C:/Users/²Ü¼ÒºÀ/.iotlink/sdk/IoT_LINK/iot_link/network/lwm2m/wakaama_lwm2m/wakaama-master/core\internals.h **** void transaction_free(lwm2m_transaction_t * transacP);
 308:C:/Users/²Ü¼ÒºÀ/.iotlink/sdk/IoT_LINK/iot_link/network/lwm2m/wakaama_lwm2m/wakaama-master/core\internals.h **** void transaction_remove(lwm2m_context_t * contextP, lwm2m_transaction_t * transacP);
 309:C:/Users/²Ü¼ÒºÀ/.iotlink/sdk/IoT_LINK/iot_link/network/lwm2m/wakaama_lwm2m/wakaama-master/core\internals.h **** bool transaction_handleResponse(lwm2m_context_t * contextP, void * fromSessionH, coap_packet_t * me
 310:C:/Users/²Ü¼ÒºÀ/.iotlink/sdk/IoT_LINK/iot_link/network/lwm2m/wakaama_lwm2m/wakaama-master/core\internals.h **** void transaction_step(lwm2m_context_t * contextP, time_t currentTime, time_t * timeoutP);
ARM GAS  C:\Users\²Ü¼ÒºÀ\AppData\Local\Temp\ccA6NNYh.s 			page 116


 311:C:/Users/²Ü¼ÒºÀ/.iotlink/sdk/IoT_LINK/iot_link/network/lwm2m/wakaama_lwm2m/wakaama-master/core\internals.h **** 
 312:C:/Users/²Ü¼ÒºÀ/.iotlink/sdk/IoT_LINK/iot_link/network/lwm2m/wakaama_lwm2m/wakaama-master/core\internals.h **** // defined in management.c
 313:C:/Users/²Ü¼ÒºÀ/.iotlink/sdk/IoT_LINK/iot_link/network/lwm2m/wakaama_lwm2m/wakaama-master/core\internals.h **** uint8_t dm_handleRequest(lwm2m_context_t * contextP, lwm2m_uri_t * uriP, lwm2m_server_t * serverP, 
 314:C:/Users/²Ü¼ÒºÀ/.iotlink/sdk/IoT_LINK/iot_link/network/lwm2m/wakaama_lwm2m/wakaama-master/core\internals.h **** 
 315:C:/Users/²Ü¼ÒºÀ/.iotlink/sdk/IoT_LINK/iot_link/network/lwm2m/wakaama_lwm2m/wakaama-master/core\internals.h **** // defined in observe.c
 316:C:/Users/²Ü¼ÒºÀ/.iotlink/sdk/IoT_LINK/iot_link/network/lwm2m/wakaama_lwm2m/wakaama-master/core\internals.h **** uint8_t observe_handleRequest(lwm2m_context_t * contextP, lwm2m_uri_t * uriP, lwm2m_server_t * serv
 317:C:/Users/²Ü¼ÒºÀ/.iotlink/sdk/IoT_LINK/iot_link/network/lwm2m/wakaama_lwm2m/wakaama-master/core\internals.h **** void observe_cancel(lwm2m_context_t * contextP, uint16_t mid, void * fromSessionH);
 318:C:/Users/²Ü¼ÒºÀ/.iotlink/sdk/IoT_LINK/iot_link/network/lwm2m/wakaama_lwm2m/wakaama-master/core\internals.h **** uint8_t observe_setParameters(lwm2m_context_t * contextP, lwm2m_uri_t * uriP, lwm2m_server_t * serv
 319:C:/Users/²Ü¼ÒºÀ/.iotlink/sdk/IoT_LINK/iot_link/network/lwm2m/wakaama_lwm2m/wakaama-master/core\internals.h **** void observe_step(lwm2m_context_t * contextP, time_t currentTime, time_t * timeoutP);
 320:C:/Users/²Ü¼ÒºÀ/.iotlink/sdk/IoT_LINK/iot_link/network/lwm2m/wakaama_lwm2m/wakaama-master/core\internals.h **** void observe_clear(lwm2m_context_t * contextP, lwm2m_uri_t * uriP);
 321:C:/Users/²Ü¼ÒºÀ/.iotlink/sdk/IoT_LINK/iot_link/network/lwm2m/wakaama_lwm2m/wakaama-master/core\internals.h **** //bool observe_handleNotify(lwm2m_context_t * contextP, void * fromSessionH, coap_packet_t * messag
 322:C:/Users/²Ü¼ÒºÀ/.iotlink/sdk/IoT_LINK/iot_link/network/lwm2m/wakaama_lwm2m/wakaama-master/core\internals.h **** void observe_remove(lwm2m_observation_t * observationP);
 323:C:/Users/²Ü¼ÒºÀ/.iotlink/sdk/IoT_LINK/iot_link/network/lwm2m/wakaama_lwm2m/wakaama-master/core\internals.h **** lwm2m_observed_t * observe_findByUri(lwm2m_context_t * contextP, lwm2m_uri_t * uriP);
 324:C:/Users/²Ü¼ÒºÀ/.iotlink/sdk/IoT_LINK/iot_link/network/lwm2m/wakaama_lwm2m/wakaama-master/core\internals.h **** 
 325:C:/Users/²Ü¼ÒºÀ/.iotlink/sdk/IoT_LINK/iot_link/network/lwm2m/wakaama_lwm2m/wakaama-master/core\internals.h **** // defined in registration.c
 326:C:/Users/²Ü¼ÒºÀ/.iotlink/sdk/IoT_LINK/iot_link/network/lwm2m/wakaama_lwm2m/wakaama-master/core\internals.h **** //uint8_t registration_handleRequest(lwm2m_context_t * contextP, lwm2m_uri_t * uriP, void * fromSes
 327:C:/Users/²Ü¼ÒºÀ/.iotlink/sdk/IoT_LINK/iot_link/network/lwm2m/wakaama_lwm2m/wakaama-master/core\internals.h **** void registration_deregister(lwm2m_context_t * contextP, lwm2m_server_t * serverP);
 328:C:/Users/²Ü¼ÒºÀ/.iotlink/sdk/IoT_LINK/iot_link/network/lwm2m/wakaama_lwm2m/wakaama-master/core\internals.h **** void registration_freeClient(lwm2m_client_t * clientP);
 329:C:/Users/²Ü¼ÒºÀ/.iotlink/sdk/IoT_LINK/iot_link/network/lwm2m/wakaama_lwm2m/wakaama-master/core\internals.h **** uint8_t registration_start(lwm2m_context_t * contextP);
 330:C:/Users/²Ü¼ÒºÀ/.iotlink/sdk/IoT_LINK/iot_link/network/lwm2m/wakaama_lwm2m/wakaama-master/core\internals.h **** void registration_step(lwm2m_context_t * contextP, time_t currentTime, time_t * timeoutP);
 331:C:/Users/²Ü¼ÒºÀ/.iotlink/sdk/IoT_LINK/iot_link/network/lwm2m/wakaama_lwm2m/wakaama-master/core\internals.h **** lwm2m_status_t registration_getStatus(lwm2m_context_t * contextP);
 332:C:/Users/²Ü¼ÒºÀ/.iotlink/sdk/IoT_LINK/iot_link/network/lwm2m/wakaama_lwm2m/wakaama-master/core\internals.h **** void registration_reset(lwm2m_context_t * contextP, lwm2m_server_t * serverP);
 333:C:/Users/²Ü¼ÒºÀ/.iotlink/sdk/IoT_LINK/iot_link/network/lwm2m/wakaama_lwm2m/wakaama-master/core\internals.h **** 
 334:C:/Users/²Ü¼ÒºÀ/.iotlink/sdk/IoT_LINK/iot_link/network/lwm2m/wakaama_lwm2m/wakaama-master/core\internals.h **** // defined in packet.c
 335:C:/Users/²Ü¼ÒºÀ/.iotlink/sdk/IoT_LINK/iot_link/network/lwm2m/wakaama_lwm2m/wakaama-master/core\internals.h **** uint8_t message_send(lwm2m_context_t * contextP, coap_packet_t * message, void * sessionH);
 336:C:/Users/²Ü¼ÒºÀ/.iotlink/sdk/IoT_LINK/iot_link/network/lwm2m/wakaama_lwm2m/wakaama-master/core\internals.h **** 
 337:C:/Users/²Ü¼ÒºÀ/.iotlink/sdk/IoT_LINK/iot_link/network/lwm2m/wakaama_lwm2m/wakaama-master/core\internals.h **** // defined in bootstrap.c
 338:C:/Users/²Ü¼ÒºÀ/.iotlink/sdk/IoT_LINK/iot_link/network/lwm2m/wakaama_lwm2m/wakaama-master/core\internals.h **** void bootstrap_step(lwm2m_context_t * contextP, uint32_t currentTime, time_t* timeoutP);
 339:C:/Users/²Ü¼ÒºÀ/.iotlink/sdk/IoT_LINK/iot_link/network/lwm2m/wakaama_lwm2m/wakaama-master/core\internals.h **** uint8_t bootstrap_handleCommand(lwm2m_context_t * contextP, lwm2m_uri_t * uriP, lwm2m_server_t * se
 340:C:/Users/²Ü¼ÒºÀ/.iotlink/sdk/IoT_LINK/iot_link/network/lwm2m/wakaama_lwm2m/wakaama-master/core\internals.h **** uint8_t bootstrap_handleDeleteAll(lwm2m_context_t * context, void * fromSessionH);
 341:C:/Users/²Ü¼ÒºÀ/.iotlink/sdk/IoT_LINK/iot_link/network/lwm2m/wakaama_lwm2m/wakaama-master/core\internals.h **** uint8_t bootstrap_handleFinish(lwm2m_context_t * context, void * fromSessionH);
 342:C:/Users/²Ü¼ÒºÀ/.iotlink/sdk/IoT_LINK/iot_link/network/lwm2m/wakaama_lwm2m/wakaama-master/core\internals.h **** uint8_t bootstrap_handleRequest(lwm2m_context_t * contextP, lwm2m_uri_t * uriP, void * fromSessionH
 343:C:/Users/²Ü¼ÒºÀ/.iotlink/sdk/IoT_LINK/iot_link/network/lwm2m/wakaama_lwm2m/wakaama-master/core\internals.h **** void bootstrap_start(lwm2m_context_t * contextP);
 344:C:/Users/²Ü¼ÒºÀ/.iotlink/sdk/IoT_LINK/iot_link/network/lwm2m/wakaama_lwm2m/wakaama-master/core\internals.h **** lwm2m_status_t bootstrap_getStatus(lwm2m_context_t * contextP);
 345:C:/Users/²Ü¼ÒºÀ/.iotlink/sdk/IoT_LINK/iot_link/network/lwm2m/wakaama_lwm2m/wakaama-master/core\internals.h **** bool bootstrap_isBsServerIpValid(const lwm2m_context_t *contextP);
 346:C:/Users/²Ü¼ÒºÀ/.iotlink/sdk/IoT_LINK/iot_link/network/lwm2m/wakaama_lwm2m/wakaama-master/core\internals.h **** 
 347:C:/Users/²Ü¼ÒºÀ/.iotlink/sdk/IoT_LINK/iot_link/network/lwm2m/wakaama_lwm2m/wakaama-master/core\internals.h **** 
 348:C:/Users/²Ü¼ÒºÀ/.iotlink/sdk/IoT_LINK/iot_link/network/lwm2m/wakaama_lwm2m/wakaama-master/core\internals.h **** // defined in tlv.c
 349:C:/Users/²Ü¼ÒºÀ/.iotlink/sdk/IoT_LINK/iot_link/network/lwm2m/wakaama_lwm2m/wakaama-master/core\internals.h **** int tlv_parse(uint8_t * buffer, size_t bufferLen, lwm2m_data_t ** dataP);
 350:C:/Users/²Ü¼ÒºÀ/.iotlink/sdk/IoT_LINK/iot_link/network/lwm2m/wakaama_lwm2m/wakaama-master/core\internals.h **** int tlv_serialize(bool isResourceInstance, int size, lwm2m_data_t * dataP, uint8_t ** bufferP);
 351:C:/Users/²Ü¼ÒºÀ/.iotlink/sdk/IoT_LINK/iot_link/network/lwm2m/wakaama_lwm2m/wakaama-master/core\internals.h **** 
 352:C:/Users/²Ü¼ÒºÀ/.iotlink/sdk/IoT_LINK/iot_link/network/lwm2m/wakaama_lwm2m/wakaama-master/core\internals.h **** // defined in json.c
 353:C:/Users/²Ü¼ÒºÀ/.iotlink/sdk/IoT_LINK/iot_link/network/lwm2m/wakaama_lwm2m/wakaama-master/core\internals.h **** #ifdef LWM2M_SUPPORT_JSON
 354:C:/Users/²Ü¼ÒºÀ/.iotlink/sdk/IoT_LINK/iot_link/network/lwm2m/wakaama_lwm2m/wakaama-master/core\internals.h **** int json_parse(lwm2m_uri_t * uriP, uint8_t * buffer, size_t bufferLen, lwm2m_data_t ** dataP);
 355:C:/Users/²Ü¼ÒºÀ/.iotlink/sdk/IoT_LINK/iot_link/network/lwm2m/wakaama_lwm2m/wakaama-master/core\internals.h **** int json_serialize(lwm2m_uri_t * uriP, int size, lwm2m_data_t * tlvP, uint8_t ** bufferP);
 356:C:/Users/²Ü¼ÒºÀ/.iotlink/sdk/IoT_LINK/iot_link/network/lwm2m/wakaama_lwm2m/wakaama-master/core\internals.h **** #endif
 357:C:/Users/²Ü¼ÒºÀ/.iotlink/sdk/IoT_LINK/iot_link/network/lwm2m/wakaama_lwm2m/wakaama-master/core\internals.h **** 
 358:C:/Users/²Ü¼ÒºÀ/.iotlink/sdk/IoT_LINK/iot_link/network/lwm2m/wakaama_lwm2m/wakaama-master/core\internals.h **** // defined in discover.c
 359:C:/Users/²Ü¼ÒºÀ/.iotlink/sdk/IoT_LINK/iot_link/network/lwm2m/wakaama_lwm2m/wakaama-master/core\internals.h **** int discover_serialize(lwm2m_context_t * contextP, lwm2m_uri_t * uriP, lwm2m_server_t * serverP, in
 360:C:/Users/²Ü¼ÒºÀ/.iotlink/sdk/IoT_LINK/iot_link/network/lwm2m/wakaama_lwm2m/wakaama-master/core\internals.h **** 
 361:C:/Users/²Ü¼ÒºÀ/.iotlink/sdk/IoT_LINK/iot_link/network/lwm2m/wakaama_lwm2m/wakaama-master/core\internals.h **** // defined in block1.c
 362:C:/Users/²Ü¼ÒºÀ/.iotlink/sdk/IoT_LINK/iot_link/network/lwm2m/wakaama_lwm2m/wakaama-master/core\internals.h **** uint8_t coap_block1_handler(lwm2m_block1_data_t ** block1Data, uint16_t mid, uint8_t * buffer, size
 363:C:/Users/²Ü¼ÒºÀ/.iotlink/sdk/IoT_LINK/iot_link/network/lwm2m/wakaama_lwm2m/wakaama-master/core\internals.h **** void free_block1_buffer(lwm2m_block1_data_t * block1Data);
 364:C:/Users/²Ü¼ÒºÀ/.iotlink/sdk/IoT_LINK/iot_link/network/lwm2m/wakaama_lwm2m/wakaama-master/core\internals.h **** 
 365:C:/Users/²Ü¼ÒºÀ/.iotlink/sdk/IoT_LINK/iot_link/network/lwm2m/wakaama_lwm2m/wakaama-master/core\internals.h **** // defined in utils.c
 366:C:/Users/²Ü¼ÒºÀ/.iotlink/sdk/IoT_LINK/iot_link/network/lwm2m/wakaama_lwm2m/wakaama-master/core\internals.h **** lwm2m_data_type_t utils_depthToDatatype(uri_depth_t depth);
 367:C:/Users/²Ü¼ÒºÀ/.iotlink/sdk/IoT_LINK/iot_link/network/lwm2m/wakaama_lwm2m/wakaama-master/core\internals.h **** lwm2m_binding_t utils_stringToBinding(uint8_t *buffer, size_t length);
ARM GAS  C:\Users\²Ü¼ÒºÀ\AppData\Local\Temp\ccA6NNYh.s 			page 117


 368:C:/Users/²Ü¼ÒºÀ/.iotlink/sdk/IoT_LINK/iot_link/network/lwm2m/wakaama_lwm2m/wakaama-master/core\internals.h **** lwm2m_media_type_t utils_convertMediaType(coap_content_type_t type);
 369:C:/Users/²Ü¼ÒºÀ/.iotlink/sdk/IoT_LINK/iot_link/network/lwm2m/wakaama_lwm2m/wakaama-master/core\internals.h **** int utils_isAltPathValid(const char * altPath);
 370:C:/Users/²Ü¼ÒºÀ/.iotlink/sdk/IoT_LINK/iot_link/network/lwm2m/wakaama_lwm2m/wakaama-master/core\internals.h **** int utils_stringCopy(char * buffer, size_t length, const char * str);
 371:C:/Users/²Ü¼ÒºÀ/.iotlink/sdk/IoT_LINK/iot_link/network/lwm2m/wakaama_lwm2m/wakaama-master/core\internals.h **** size_t utils_intToText(int64_t data, uint8_t * string, size_t length);
 372:C:/Users/²Ü¼ÒºÀ/.iotlink/sdk/IoT_LINK/iot_link/network/lwm2m/wakaama_lwm2m/wakaama-master/core\internals.h **** size_t utils_floatToText(double data, uint8_t * string, size_t length);
 373:C:/Users/²Ü¼ÒºÀ/.iotlink/sdk/IoT_LINK/iot_link/network/lwm2m/wakaama_lwm2m/wakaama-master/core\internals.h **** int utils_textToInt(uint8_t * buffer, int length, int64_t * dataP);
 374:C:/Users/²Ü¼ÒºÀ/.iotlink/sdk/IoT_LINK/iot_link/network/lwm2m/wakaama_lwm2m/wakaama-master/core\internals.h **** int utils_textToFloat(uint8_t * buffer, int length, double * dataP);
 375:C:/Users/²Ü¼ÒºÀ/.iotlink/sdk/IoT_LINK/iot_link/network/lwm2m/wakaama_lwm2m/wakaama-master/core\internals.h **** void utils_copyValue(void * dst, const void * src, size_t len);
 376:C:/Users/²Ü¼ÒºÀ/.iotlink/sdk/IoT_LINK/iot_link/network/lwm2m/wakaama_lwm2m/wakaama-master/core\internals.h **** size_t utils_base64GetSize(size_t dataLen);
 377:C:/Users/²Ü¼ÒºÀ/.iotlink/sdk/IoT_LINK/iot_link/network/lwm2m/wakaama_lwm2m/wakaama-master/core\internals.h **** size_t utils_base64Encode(uint8_t * dataP, size_t dataLen, uint8_t * bufferP, size_t bufferLen);
 378:C:/Users/²Ü¼ÒºÀ/.iotlink/sdk/IoT_LINK/iot_link/network/lwm2m/wakaama_lwm2m/wakaama-master/core\internals.h **** #ifdef LWM2M_CLIENT_MODE
 379:C:/Users/²Ü¼ÒºÀ/.iotlink/sdk/IoT_LINK/iot_link/network/lwm2m/wakaama_lwm2m/wakaama-master/core\internals.h **** lwm2m_server_t * utils_findServer(lwm2m_context_t * contextP, void * fromSessionH);
 380:C:/Users/²Ü¼ÒºÀ/.iotlink/sdk/IoT_LINK/iot_link/network/lwm2m/wakaama_lwm2m/wakaama-master/core\internals.h **** lwm2m_server_t * utils_findBootstrapServer(lwm2m_context_t * contextP, void * fromSessionH);
 381:C:/Users/²Ü¼ÒºÀ/.iotlink/sdk/IoT_LINK/iot_link/network/lwm2m/wakaama_lwm2m/wakaama-master/core\internals.h **** #endif
 382:C:/Users/²Ü¼ÒºÀ/.iotlink/sdk/IoT_LINK/iot_link/network/lwm2m/wakaama_lwm2m/wakaama-master/core\internals.h **** static inline int dm_isUriOpaqueHandle(const lwm2m_uri_t * uriP)
 383:C:/Users/²Ü¼ÒºÀ/.iotlink/sdk/IoT_LINK/iot_link/network/lwm2m/wakaama_lwm2m/wakaama-master/core\internals.h **** {
 384:C:/Users/²Ü¼ÒºÀ/.iotlink/sdk/IoT_LINK/iot_link/network/lwm2m/wakaama_lwm2m/wakaama-master/core\internals.h ****     return (19 == uriP->objectId);
 4266              		.loc 2 384 5 is_stmt 1 discriminator 21 view .LVU1120
 4267              	.LBB53:
 679:C:/Users/²Ü¼ÒºÀ/.iotlink/sdk/IoT_LINK/iot_link/network/lwm2m/wakaama_lwm2m/wakaama-master/core\observe.c ****         {
 4268              		.loc 1 679 12 is_stmt 0 discriminator 21 view .LVU1121
 4269 015e BBF80630 		ldrh	r3, [fp, #6]
 4270 0162 132B     		cmp	r3, #19
 4271 0164 1ED1     		bne	.L363
 681:C:/Users/²Ü¼ÒºÀ/.iotlink/sdk/IoT_LINK/iot_link/network/lwm2m/wakaama_lwm2m/wakaama-master/core\observe.c ****             continue;
 4272              		.loc 1 681 13 is_stmt 1 view .LVU1122
 4273 0166 4C9B     		ldr	r3, [sp, #304]
 4274 0168 0093     		str	r3, [sp]
 4275 016a 0898     		ldr	r0, [sp, #32]
 4276 016c DDE90623 		ldrd	r2, [sp, #24]
 4277 0170 5946     		mov	r1, fp
 4278 0172 FFF7FEFF 		bl	observe_app_step
 4279              	.LVL443:
 682:C:/Users/²Ü¼ÒºÀ/.iotlink/sdk/IoT_LINK/iot_link/network/lwm2m/wakaama_lwm2m/wakaama-master/core\observe.c ****         }
 4280              		.loc 1 682 13 view .LVU1123
 4281              	.L364:
 682:C:/Users/²Ü¼ÒºÀ/.iotlink/sdk/IoT_LINK/iot_link/network/lwm2m/wakaama_lwm2m/wakaama-master/core\observe.c ****         }
 4282              		.loc 1 682 13 is_stmt 0 view .LVU1124
 4283              	.LBE53:
 662:C:/Users/²Ü¼ÒºÀ/.iotlink/sdk/IoT_LINK/iot_link/network/lwm2m/wakaama_lwm2m/wakaama-master/core\observe.c ****     {
 4284              		.loc 1 662 63 is_stmt 1 view .LVU1125
 662:C:/Users/²Ü¼ÒºÀ/.iotlink/sdk/IoT_LINK/iot_link/network/lwm2m/wakaama_lwm2m/wakaama-master/core\observe.c ****     {
 4285              		.loc 1 662 71 is_stmt 0 view .LVU1126
 4286 0176 DBF800B0 		ldr	fp, [fp]
 4287              	.LVL444:
 662:C:/Users/²Ü¼ÒºÀ/.iotlink/sdk/IoT_LINK/iot_link/network/lwm2m/wakaama_lwm2m/wakaama-master/core\observe.c ****     {
 4288              		.loc 1 662 71 view .LVU1127
 4289 017a 6AE7     		b	.L354
 4290              	.L527:
 4291 017c AFF30080 		.align	3
 4292              	.L526:
 4293 0180 00000000 		.word	0
 4294 0184 00000000 		.word	0
 4295 0188 00000000 		.word	.LANCHOR18
 4296 018c 00000000 		.word	.LANCHOR17
 4297 0190 00000000 		.word	.LC32
 4298 0194 00000000 		.word	_impure_ptr
ARM GAS  C:\Users\²Ü¼ÒºÀ\AppData\Local\Temp\ccA6NNYh.s 			page 118


 4299 0198 86010000 		.word	.LC19
 4300 019c A1010000 		.word	.LC20
 4301 01a0 B4010000 		.word	.LC21
 4302              	.LVL445:
 4303              	.L363:
 4304              	.LBB54:
 685:C:/Users/²Ü¼ÒºÀ/.iotlink/sdk/IoT_LINK/iot_link/network/lwm2m/wakaama_lwm2m/wakaama-master/core\observe.c ****         if (LWM2M_URI_IS_SET_RESOURCE(&targetP->uri))
 4305              		.loc 1 685 9 is_stmt 1 view .LVU1128
 685:C:/Users/²Ü¼ÒºÀ/.iotlink/sdk/IoT_LINK/iot_link/network/lwm2m/wakaama_lwm2m/wakaama-master/core\observe.c ****         if (LWM2M_URI_IS_SET_RESOURCE(&targetP->uri))
 4306              		.loc 1 685 22 is_stmt 0 view .LVU1129
 4307 01a4 0024     		movs	r4, #0
 4308 01a6 1C94     		str	r4, [sp, #112]
 686:C:/Users/²Ü¼ÒºÀ/.iotlink/sdk/IoT_LINK/iot_link/network/lwm2m/wakaama_lwm2m/wakaama-master/core\observe.c ****         {
 4309              		.loc 1 686 9 is_stmt 1 view .LVU1130
 686:C:/Users/²Ü¼ÒºÀ/.iotlink/sdk/IoT_LINK/iot_link/network/lwm2m/wakaama_lwm2m/wakaama-master/core\observe.c ****         {
 4310              		.loc 1 686 12 is_stmt 0 view .LVU1131
 4311 01a8 9BF80430 		ldrb	r3, [fp, #4]	@ zero_extendqisi2
 4312 01ac 13F00103 		ands	r3, r3, #1
 4313 01b0 00F0D280 		beq	.L461
 688:C:/Users/²Ü¼ÒºÀ/.iotlink/sdk/IoT_LINK/iot_link/network/lwm2m/wakaama_lwm2m/wakaama-master/core\observe.c ****             switch (dataP->type)
 4314              		.loc 1 688 13 is_stmt 1 view .LVU1132
 688:C:/Users/²Ü¼ÒºÀ/.iotlink/sdk/IoT_LINK/iot_link/network/lwm2m/wakaama_lwm2m/wakaama-master/core\observe.c ****             switch (dataP->type)
 4315              		.loc 1 688 37 is_stmt 0 view .LVU1133
 4316 01b4 1AAB     		add	r3, sp, #104
 4317 01b6 0093     		str	r3, [sp]
 4318 01b8 18EE101A 		vmov	r1, s16	@ int
 4319 01bc 0898     		ldr	r0, [sp, #32]
 4320 01be 0194     		str	r4, [sp, #4]
 4321 01c0 14AB     		add	r3, sp, #80
 4322 01c2 15AA     		add	r2, sp, #84
 4323 01c4 FFF7FEFF 		bl	object_readData
 4324              	.LVL446:
 688:C:/Users/²Ü¼ÒºÀ/.iotlink/sdk/IoT_LINK/iot_link/network/lwm2m/wakaama_lwm2m/wakaama-master/core\observe.c ****             switch (dataP->type)
 4325              		.loc 1 688 16 view .LVU1134
 4326 01c8 4528     		cmp	r0, #69
 4327 01ca D4D1     		bne	.L364
 689:C:/Users/²Ü¼ÒºÀ/.iotlink/sdk/IoT_LINK/iot_link/network/lwm2m/wakaama_lwm2m/wakaama-master/core\observe.c ****             {
 4328              		.loc 1 689 13 is_stmt 1 view .LVU1135
 689:C:/Users/²Ü¼ÒºÀ/.iotlink/sdk/IoT_LINK/iot_link/network/lwm2m/wakaama_lwm2m/wakaama-master/core\observe.c ****             {
 4329              		.loc 1 689 26 is_stmt 0 view .LVU1136
 4330 01cc 1498     		ldr	r0, [sp, #80]
 4331 01ce 0378     		ldrb	r3, [r0]	@ zero_extendqisi2
 689:C:/Users/²Ü¼ÒºÀ/.iotlink/sdk/IoT_LINK/iot_link/network/lwm2m/wakaama_lwm2m/wakaama-master/core\observe.c ****             {
 4332              		.loc 1 689 13 view .LVU1137
 4333 01d0 062B     		cmp	r3, #6
 4334 01d2 00F0BB80 		beq	.L367
 4335 01d6 072B     		cmp	r3, #7
 4336 01d8 00F0C080 		beq	.L368
 4337 01dc 0994     		str	r4, [sp, #36]
 4338              	.L365:
 4339              	.LVL447:
 711:C:/Users/²Ü¼ÒºÀ/.iotlink/sdk/IoT_LINK/iot_link/network/lwm2m/wakaama_lwm2m/wakaama-master/core\observe.c ****         {
 4340              		.loc 1 711 9 is_stmt 1 view .LVU1138
 711:C:/Users/²Ü¼ÒºÀ/.iotlink/sdk/IoT_LINK/iot_link/network/lwm2m/wakaama_lwm2m/wakaama-master/core\observe.c ****         {
 4341              		.loc 1 711 23 is_stmt 0 view .LVU1139
 4342 01de DBF80C50 		ldr	r5, [fp, #12]
 4343              	.LVL448:
ARM GAS  C:\Users\²Ü¼ÒºÀ\AppData\Local\Temp\ccA6NNYh.s 			page 119


 4344              	.LBB41:
 898:C:/Users/²Ü¼ÒºÀ/.iotlink/sdk/IoT_LINK/iot_link/network/lwm2m/wakaama_lwm2m/wakaama-master/core\observe.c ****                         }
 4345              		.loc 1 898 29 view .LVU1140
 4346 01e2 DFF8C4A2 		ldr	r10, .L528+36
 4347              	.L371:
 898:C:/Users/²Ü¼ÒºÀ/.iotlink/sdk/IoT_LINK/iot_link/network/lwm2m/wakaama_lwm2m/wakaama-master/core\observe.c ****                         }
 4348              		.loc 1 898 29 view .LVU1141
 4349              	.LBE41:
 711:C:/Users/²Ü¼ÒºÀ/.iotlink/sdk/IoT_LINK/iot_link/network/lwm2m/wakaama_lwm2m/wakaama-master/core\observe.c ****         {
 4350              		.loc 1 711 48 is_stmt 1 discriminator 1 view .LVU1142
 711:C:/Users/²Ü¼ÒºÀ/.iotlink/sdk/IoT_LINK/iot_link/network/lwm2m/wakaama_lwm2m/wakaama-master/core\observe.c ****         {
 4351              		.loc 1 711 9 is_stmt 0 discriminator 1 view .LVU1143
 4352 01e6 002D     		cmp	r5, #0
 4353 01e8 00F03C84 		beq	.L449
 713:C:/Users/²Ü¼ÒºÀ/.iotlink/sdk/IoT_LINK/iot_link/network/lwm2m/wakaama_lwm2m/wakaama-master/core\observe.c ****             {
 4354              		.loc 1 713 13 is_stmt 1 view .LVU1144
 713:C:/Users/²Ü¼ÒºÀ/.iotlink/sdk/IoT_LINK/iot_link/network/lwm2m/wakaama_lwm2m/wakaama-master/core\observe.c ****             {
 4355              		.loc 1 713 16 is_stmt 0 view .LVU1145
 4356 01ec 2B79     		ldrb	r3, [r5, #4]	@ zero_extendqisi2
 4357 01ee 002B     		cmp	r3, #0
 4358 01f0 00F02984 		beq	.L373
 4359              	.LBB49:
 715:C:/Users/²Ü¼ÒºÀ/.iotlink/sdk/IoT_LINK/iot_link/network/lwm2m/wakaama_lwm2m/wakaama-master/core\observe.c **** 
 4360              		.loc 1 715 17 is_stmt 1 view .LVU1146
 4361              	.LVL449:
 717:C:/Users/²Ü¼ÒºÀ/.iotlink/sdk/IoT_LINK/iot_link/network/lwm2m/wakaama_lwm2m/wakaama-master/core\observe.c ****                 {
 4362              		.loc 1 717 17 view .LVU1147
 717:C:/Users/²Ü¼ÒºÀ/.iotlink/sdk/IoT_LINK/iot_link/network/lwm2m/wakaama_lwm2m/wakaama-master/core\observe.c ****                 {
 4363              		.loc 1 717 29 is_stmt 0 view .LVU1148
 4364 01f4 6B79     		ldrb	r3, [r5, #5]	@ zero_extendqisi2
 4365 01f6 0593     		str	r3, [sp, #20]
 717:C:/Users/²Ü¼ÒºÀ/.iotlink/sdk/IoT_LINK/iot_link/network/lwm2m/wakaama_lwm2m/wakaama-master/core\observe.c ****                 {
 4366              		.loc 1 717 20 view .LVU1149
 4367 01f8 002B     		cmp	r3, #0
 4368 01fa 57D0     		beq	.L375
 4369 01fc EB68     		ldr	r3, [r5, #12]
 721:C:/Users/²Ü¼ÒºÀ/.iotlink/sdk/IoT_LINK/iot_link/network/lwm2m/wakaama_lwm2m/wakaama-master/core\observe.c ****                     {
 4370              		.loc 1 721 21 is_stmt 1 view .LVU1150
 721:C:/Users/²Ü¼ÒºÀ/.iotlink/sdk/IoT_LINK/iot_link/network/lwm2m/wakaama_lwm2m/wakaama-master/core\observe.c ****                     {
 4371              		.loc 1 721 24 is_stmt 0 view .LVU1151
 4372 01fe 002B     		cmp	r3, #0
 4373 0200 00F0B580 		beq	.L376
 721:C:/Users/²Ü¼ÒºÀ/.iotlink/sdk/IoT_LINK/iot_link/network/lwm2m/wakaama_lwm2m/wakaama-master/core\observe.c ****                     {
 4374              		.loc 1 721 77 discriminator 1 view .LVU1152
 4375 0204 1B78     		ldrb	r3, [r3]	@ zero_extendqisi2
 721:C:/Users/²Ü¼ÒºÀ/.iotlink/sdk/IoT_LINK/iot_link/network/lwm2m/wakaama_lwm2m/wakaama-master/core\observe.c ****                     {
 4376              		.loc 1 721 54 discriminator 1 view .LVU1153
 4377 0206 002B     		cmp	r3, #0
 4378 0208 00F0B180 		beq	.L376
 726:C:/Users/²Ü¼ÒºÀ/.iotlink/sdk/IoT_LINK/iot_link/network/lwm2m/wakaama_lwm2m/wakaama-master/core\observe.c ****                     }
 4379              		.loc 1 726 25 is_stmt 1 view .LVU1154
 726:C:/Users/²Ü¼ÒºÀ/.iotlink/sdk/IoT_LINK/iot_link/network/lwm2m/wakaama_lwm2m/wakaama-master/core\observe.c ****                     }
 4380              		.loc 1 726 25 view .LVU1155
 726:C:/Users/²Ü¼ÒºÀ/.iotlink/sdk/IoT_LINK/iot_link/network/lwm2m/wakaama_lwm2m/wakaama-master/core\observe.c ****                     }
 4381              		.loc 1 726 25 view .LVU1156
 726:C:/Users/²Ü¼ÒºÀ/.iotlink/sdk/IoT_LINK/iot_link/network/lwm2m/wakaama_lwm2m/wakaama-master/core\observe.c ****                     }
 4382              		.loc 1 726 49 view .LVU1157
ARM GAS  C:\Users\²Ü¼ÒºÀ\AppData\Local\Temp\ccA6NNYh.s 			page 120


 729:C:/Users/²Ü¼ÒºÀ/.iotlink/sdk/IoT_LINK/iot_link/network/lwm2m/wakaama_lwm2m/wakaama-master/core\observe.c ****                             && watcherP->parameters != NULL
 4383              		.loc 1 729 21 view .LVU1158
 731:C:/Users/²Ü¼ÒºÀ/.iotlink/sdk/IoT_LINK/iot_link/network/lwm2m/wakaama_lwm2m/wakaama-master/core\observe.c ****                     {
 4384              		.loc 1 731 29 is_stmt 0 view .LVU1159
 4385 020c 13F01C04 		ands	r4, r3, #28
 4386 0210 40F04C81 		bne	.L377
 4387              	.LVL450:
 4388              	.L378:
 831:C:/Users/²Ü¼ÒºÀ/.iotlink/sdk/IoT_LINK/iot_link/network/lwm2m/wakaama_lwm2m/wakaama-master/core\observe.c ****                             && (watcherP->parameters->toSet & LWM2M_ATTR_FLAG_MIN_PERIOD) != 0)
 4389              		.loc 1 831 21 is_stmt 1 view .LVU1160
 831:C:/Users/²Ü¼ÒºÀ/.iotlink/sdk/IoT_LINK/iot_link/network/lwm2m/wakaama_lwm2m/wakaama-master/core\observe.c ****                             && (watcherP->parameters->toSet & LWM2M_ATTR_FLAG_MIN_PERIOD) != 0)
 4390              		.loc 1 831 33 is_stmt 0 view .LVU1161
 4391 0214 EB68     		ldr	r3, [r5, #12]
 831:C:/Users/²Ü¼ÒºÀ/.iotlink/sdk/IoT_LINK/iot_link/network/lwm2m/wakaama_lwm2m/wakaama-master/core\observe.c ****                             && (watcherP->parameters->toSet & LWM2M_ATTR_FLAG_MIN_PERIOD) != 0)
 4392              		.loc 1 831 24 view .LVU1162
 4393 0216 002B     		cmp	r3, #0
 4394 0218 00F07783 		beq	.L434
 832:C:/Users/²Ü¼ÒºÀ/.iotlink/sdk/IoT_LINK/iot_link/network/lwm2m/wakaama_lwm2m/wakaama-master/core\observe.c ****                     {
 4395              		.loc 1 832 29 view .LVU1163
 4396 021c 1B78     		ldrb	r3, [r3]	@ zero_extendqisi2
 4397 021e D807     		lsls	r0, r3, #31
 4398 0220 40F17383 		bpl	.L434
 834:C:/Users/²Ü¼ÒºÀ/.iotlink/sdk/IoT_LINK/iot_link/network/lwm2m/wakaama_lwm2m/wakaama-master/core\observe.c **** 
 4399              		.loc 1 834 25 is_stmt 1 view .LVU1164
 834:C:/Users/²Ü¼ÒºÀ/.iotlink/sdk/IoT_LINK/iot_link/network/lwm2m/wakaama_lwm2m/wakaama-master/core\observe.c **** 
 4400              		.loc 1 834 25 view .LVU1165
 4401 0224 FFF7FEFF 		bl	link_log_level_get
 4402              	.LVL451:
 4403 0228 0128     		cmp	r0, #1
 4404 022a 1CD8     		bhi	.L435
 834:C:/Users/²Ü¼ÒºÀ/.iotlink/sdk/IoT_LINK/iot_link/network/lwm2m/wakaama_lwm2m/wakaama-master/core\observe.c **** 
 4405              		.loc 1 834 25 discriminator 1 view .LVU1166
 834:C:/Users/²Ü¼ÒºÀ/.iotlink/sdk/IoT_LINK/iot_link/network/lwm2m/wakaama_lwm2m/wakaama-master/core\observe.c **** 
 4406              		.loc 1 834 25 discriminator 1 view .LVU1167
 834:C:/Users/²Ü¼ÒºÀ/.iotlink/sdk/IoT_LINK/iot_link/network/lwm2m/wakaama_lwm2m/wakaama-master/core\observe.c **** 
 4407              		.loc 1 834 25 discriminator 1 view .LVU1168
 4408 022c 0120     		movs	r0, #1
 4409 022e FFF7FEFF 		bl	link_log_level_name
 4410              	.LVL452:
 4411 0232 0446     		mov	r4, r0
 4412              	.LVL453:
 834:C:/Users/²Ü¼ÒºÀ/.iotlink/sdk/IoT_LINK/iot_link/network/lwm2m/wakaama_lwm2m/wakaama-master/core\observe.c **** 
 4413              		.loc 1 834 25 is_stmt 0 discriminator 1 view .LVU1169
 4414 0234 FFF7FEFF 		bl	osal_sys_time
 4415              	.LVL454:
 4416 0238 0590     		str	r0, [sp, #20]
 4417 023a FFF7FEFF 		bl	lwm2m_gettime
 4418              	.LVL455:
 4419 023e EB68     		ldr	r3, [r5, #12]
 4420 0240 059A     		ldr	r2, [sp, #20]
 4421 0242 5B68     		ldr	r3, [r3, #4]
 4422 0244 0393     		str	r3, [sp, #12]
 4423 0246 40F24233 		movw	r3, #834
 4424 024a 0293     		str	r3, [sp, #8]
 4425 024c 8D4B     		ldr	r3, .L528
 4426 024e 2146     		mov	r1, r4
 4427 0250 CDE90003 		strd	r0, r3, [sp]
ARM GAS  C:\Users\²Ü¼ÒºÀ\AppData\Local\Temp\ccA6NNYh.s 			page 121


 4428 0254 5346     		mov	r3, r10
 4429 0256 8C48     		ldr	r0, .L528+4
 4430 0258 FFF7FEFF 		bl	printf
 4431              	.LVL456:
 834:C:/Users/²Ü¼ÒºÀ/.iotlink/sdk/IoT_LINK/iot_link/network/lwm2m/wakaama_lwm2m/wakaama-master/core\observe.c **** 
 4432              		.loc 1 834 25 is_stmt 1 discriminator 1 view .LVU1170
 4433 025c 8B4B     		ldr	r3, .L528+8
 4434 025e 1B68     		ldr	r3, [r3]
 4435 0260 9868     		ldr	r0, [r3, #8]
 4436 0262 FFF7FEFF 		bl	fflush
 4437              	.LVL457:
 4438              	.L435:
 834:C:/Users/²Ü¼ÒºÀ/.iotlink/sdk/IoT_LINK/iot_link/network/lwm2m/wakaama_lwm2m/wakaama-master/core\observe.c **** 
 4439              		.loc 1 834 25 discriminator 3 view .LVU1171
 834:C:/Users/²Ü¼ÒºÀ/.iotlink/sdk/IoT_LINK/iot_link/network/lwm2m/wakaama_lwm2m/wakaama-master/core\observe.c **** 
 4440              		.loc 1 834 25 discriminator 3 view .LVU1172
 834:C:/Users/²Ü¼ÒºÀ/.iotlink/sdk/IoT_LINK/iot_link/network/lwm2m/wakaama_lwm2m/wakaama-master/core\observe.c **** 
 4441              		.loc 1 834 25 discriminator 3 view .LVU1173
 836:C:/Users/²Ü¼ÒºÀ/.iotlink/sdk/IoT_LINK/iot_link/network/lwm2m/wakaama_lwm2m/wakaama-master/core\observe.c ****                         {
 4442              		.loc 1 836 25 discriminator 3 view .LVU1174
 836:C:/Users/²Ü¼ÒºÀ/.iotlink/sdk/IoT_LINK/iot_link/network/lwm2m/wakaama_lwm2m/wakaama-master/core\observe.c ****                         {
 4443              		.loc 1 836 70 is_stmt 0 discriminator 3 view .LVU1175
 4444 0266 EB68     		ldr	r3, [r5, #12]
 4445 0268 5968     		ldr	r1, [r3, #4]
 836:C:/Users/²Ü¼ÒºÀ/.iotlink/sdk/IoT_LINK/iot_link/network/lwm2m/wakaama_lwm2m/wakaama-master/core\observe.c ****                         {
 4446              		.loc 1 836 48 discriminator 3 view .LVU1176
 4447 026a D5E90823 		ldrd	r2, [r5, #32]
 4448 026e 5218     		adds	r2, r2, r1
 836:C:/Users/²Ü¼ÒºÀ/.iotlink/sdk/IoT_LINK/iot_link/network/lwm2m/wakaama_lwm2m/wakaama-master/core\observe.c ****                         {
 4449              		.loc 1 836 28 discriminator 3 view .LVU1177
 4450 0270 DDE90601 		ldrd	r0, [sp, #24]
 836:C:/Users/²Ü¼ÒºÀ/.iotlink/sdk/IoT_LINK/iot_link/network/lwm2m/wakaama_lwm2m/wakaama-master/core\observe.c ****                         {
 4451              		.loc 1 836 48 discriminator 3 view .LVU1178
 4452 0274 43F10003 		adc	r3, r3, #0
 836:C:/Users/²Ü¼ÒºÀ/.iotlink/sdk/IoT_LINK/iot_link/network/lwm2m/wakaama_lwm2m/wakaama-master/core\observe.c ****                         {
 4453              		.loc 1 836 28 discriminator 3 view .LVU1179
 4454 0278 9042     		cmp	r0, r2
 4455 027a 9941     		sbcs	r1, r1, r3
 4456 027c 80F22683 		bge	.L436
 839:C:/Users/²Ü¼ÒºÀ/.iotlink/sdk/IoT_LINK/iot_link/network/lwm2m/wakaama_lwm2m/wakaama-master/core\observe.c ****                             if (*timeoutP > interval) *timeoutP = interval;
 4457              		.loc 1 839 29 is_stmt 1 view .LVU1180
 839:C:/Users/²Ü¼ÒºÀ/.iotlink/sdk/IoT_LINK/iot_link/network/lwm2m/wakaama_lwm2m/wakaama-master/core\observe.c ****                             if (*timeoutP > interval) *timeoutP = interval;
 4458              		.loc 1 839 38 is_stmt 0 view .LVU1181
 4459 0280 0699     		ldr	r1, [sp, #24]
 4460 0282 511A     		subs	r1, r2, r1
 4461 0284 0C91     		str	r1, [sp, #48]
 4462 0286 0799     		ldr	r1, [sp, #28]
 4463 0288 63EB0103 		sbc	r3, r3, r1
 4464 028c 0D93     		str	r3, [sp, #52]
 4465              	.LVL458:
 840:C:/Users/²Ü¼ÒºÀ/.iotlink/sdk/IoT_LINK/iot_link/network/lwm2m/wakaama_lwm2m/wakaama-master/core\observe.c ****                             notify = false;
 4466              		.loc 1 840 29 is_stmt 1 view .LVU1182
 840:C:/Users/²Ü¼ÒºÀ/.iotlink/sdk/IoT_LINK/iot_link/network/lwm2m/wakaama_lwm2m/wakaama-master/core\observe.c ****                             notify = false;
 4467              		.loc 1 840 32 is_stmt 0 view .LVU1183
 4468 028e 4C9B     		ldr	r3, [sp, #304]
 4469 0290 DDE90C01 		ldrd	r0, [sp, #48]
 4470 0294 D3E90023 		ldrd	r2, [r3]
ARM GAS  C:\Users\²Ü¼ÒºÀ\AppData\Local\Temp\ccA6NNYh.s 			page 122


 4471 0298 9042     		cmp	r0, r2
 4472 029a 71EB0303 		sbcs	r3, r1, r3
 4473 029e 05DA     		bge	.L375
 840:C:/Users/²Ü¼ÒºÀ/.iotlink/sdk/IoT_LINK/iot_link/network/lwm2m/wakaama_lwm2m/wakaama-master/core\observe.c ****                             notify = false;
 4474              		.loc 1 840 55 is_stmt 1 discriminator 1 view .LVU1184
 840:C:/Users/²Ü¼ÒºÀ/.iotlink/sdk/IoT_LINK/iot_link/network/lwm2m/wakaama_lwm2m/wakaama-master/core\observe.c ****                             notify = false;
 4475              		.loc 1 840 65 is_stmt 0 discriminator 1 view .LVU1185
 4476 02a0 4C9B     		ldr	r3, [sp, #304]
 4477 02a2 1946     		mov	r1, r3
 4478 02a4 DDE90C23 		ldrd	r2, [sp, #48]
 4479 02a8 C1E90023 		strd	r2, [r1]
 4480              	.LVL459:
 4481              	.L375:
 853:C:/Users/²Ü¼ÒºÀ/.iotlink/sdk/IoT_LINK/iot_link/network/lwm2m/wakaama_lwm2m/wakaama-master/core\observe.c ****                         && (watcherP->parameters->toSet & LWM2M_ATTR_FLAG_MAX_PERIOD) != 0)
 4482              		.loc 1 853 36 view .LVU1186
 4483 02ac EB68     		ldr	r3, [r5, #12]
 853:C:/Users/²Ü¼ÒºÀ/.iotlink/sdk/IoT_LINK/iot_link/network/lwm2m/wakaama_lwm2m/wakaama-master/core\observe.c ****                         && (watcherP->parameters->toSet & LWM2M_ATTR_FLAG_MAX_PERIOD) != 0)
 4484              		.loc 1 853 25 view .LVU1187
 4485 02ae 002B     		cmp	r3, #0
 4486 02b0 00F0A883 		beq	.L442
 854:C:/Users/²Ü¼ÒºÀ/.iotlink/sdk/IoT_LINK/iot_link/network/lwm2m/wakaama_lwm2m/wakaama-master/core\observe.c ****                 {
 4487              		.loc 1 854 25 view .LVU1188
 4488 02b4 1B78     		ldrb	r3, [r3]	@ zero_extendqisi2
 4489 02b6 9907     		lsls	r1, r3, #30
 4490 02b8 40F1A483 		bpl	.L442
 856:C:/Users/²Ü¼ÒºÀ/.iotlink/sdk/IoT_LINK/iot_link/network/lwm2m/wakaama_lwm2m/wakaama-master/core\observe.c **** 
 4491              		.loc 1 856 21 is_stmt 1 view .LVU1189
 856:C:/Users/²Ü¼ÒºÀ/.iotlink/sdk/IoT_LINK/iot_link/network/lwm2m/wakaama_lwm2m/wakaama-master/core\observe.c **** 
 4492              		.loc 1 856 21 view .LVU1190
 4493 02bc FFF7FEFF 		bl	link_log_level_get
 4494              	.LVL460:
 4495 02c0 0128     		cmp	r0, #1
 4496 02c2 1CD8     		bhi	.L444
 856:C:/Users/²Ü¼ÒºÀ/.iotlink/sdk/IoT_LINK/iot_link/network/lwm2m/wakaama_lwm2m/wakaama-master/core\observe.c **** 
 4497              		.loc 1 856 21 discriminator 1 view .LVU1191
 856:C:/Users/²Ü¼ÒºÀ/.iotlink/sdk/IoT_LINK/iot_link/network/lwm2m/wakaama_lwm2m/wakaama-master/core\observe.c **** 
 4498              		.loc 1 856 21 discriminator 1 view .LVU1192
 856:C:/Users/²Ü¼ÒºÀ/.iotlink/sdk/IoT_LINK/iot_link/network/lwm2m/wakaama_lwm2m/wakaama-master/core\observe.c **** 
 4499              		.loc 1 856 21 discriminator 1 view .LVU1193
 4500 02c4 0120     		movs	r0, #1
 4501 02c6 FFF7FEFF 		bl	link_log_level_name
 4502              	.LVL461:
 4503 02ca 0446     		mov	r4, r0
 4504 02cc FFF7FEFF 		bl	osal_sys_time
 4505              	.LVL462:
 4506 02d0 0590     		str	r0, [sp, #20]
 4507 02d2 FFF7FEFF 		bl	lwm2m_gettime
 4508              	.LVL463:
 4509 02d6 EB68     		ldr	r3, [r5, #12]
 4510 02d8 059A     		ldr	r2, [sp, #20]
 4511 02da 9B68     		ldr	r3, [r3, #8]
 4512 02dc 0393     		str	r3, [sp, #12]
 4513 02de 4FF45673 		mov	r3, #856
 4514 02e2 0293     		str	r3, [sp, #8]
 4515 02e4 674B     		ldr	r3, .L528
 4516 02e6 2146     		mov	r1, r4
 4517 02e8 CDE90003 		strd	r0, r3, [sp]
ARM GAS  C:\Users\²Ü¼ÒºÀ\AppData\Local\Temp\ccA6NNYh.s 			page 123


 4518 02ec 5346     		mov	r3, r10
 4519 02ee 6848     		ldr	r0, .L528+12
 4520 02f0 FFF7FEFF 		bl	printf
 4521              	.LVL464:
 856:C:/Users/²Ü¼ÒºÀ/.iotlink/sdk/IoT_LINK/iot_link/network/lwm2m/wakaama_lwm2m/wakaama-master/core\observe.c **** 
 4522              		.loc 1 856 21 discriminator 1 view .LVU1194
 4523 02f4 654B     		ldr	r3, .L528+8
 4524 02f6 1B68     		ldr	r3, [r3]
 4525 02f8 9868     		ldr	r0, [r3, #8]
 4526 02fa FFF7FEFF 		bl	fflush
 4527              	.LVL465:
 4528              	.L444:
 856:C:/Users/²Ü¼ÒºÀ/.iotlink/sdk/IoT_LINK/iot_link/network/lwm2m/wakaama_lwm2m/wakaama-master/core\observe.c **** 
 4529              		.loc 1 856 21 discriminator 3 view .LVU1195
 856:C:/Users/²Ü¼ÒºÀ/.iotlink/sdk/IoT_LINK/iot_link/network/lwm2m/wakaama_lwm2m/wakaama-master/core\observe.c **** 
 4530              		.loc 1 856 21 discriminator 3 view .LVU1196
 856:C:/Users/²Ü¼ÒºÀ/.iotlink/sdk/IoT_LINK/iot_link/network/lwm2m/wakaama_lwm2m/wakaama-master/core\observe.c **** 
 4531              		.loc 1 856 21 discriminator 3 view .LVU1197
 858:C:/Users/²Ü¼ÒºÀ/.iotlink/sdk/IoT_LINK/iot_link/network/lwm2m/wakaama_lwm2m/wakaama-master/core\observe.c ****                     {
 4532              		.loc 1 858 21 discriminator 3 view .LVU1198
 858:C:/Users/²Ü¼ÒºÀ/.iotlink/sdk/IoT_LINK/iot_link/network/lwm2m/wakaama_lwm2m/wakaama-master/core\observe.c ****                     {
 4533              		.loc 1 858 66 is_stmt 0 discriminator 3 view .LVU1199
 4534 02fe EB68     		ldr	r3, [r5, #12]
 4535 0300 9968     		ldr	r1, [r3, #8]
 858:C:/Users/²Ü¼ÒºÀ/.iotlink/sdk/IoT_LINK/iot_link/network/lwm2m/wakaama_lwm2m/wakaama-master/core\observe.c ****                     {
 4536              		.loc 1 858 44 discriminator 3 view .LVU1200
 4537 0302 D5E90823 		ldrd	r2, [r5, #32]
 4538 0306 5218     		adds	r2, r2, r1
 858:C:/Users/²Ü¼ÒºÀ/.iotlink/sdk/IoT_LINK/iot_link/network/lwm2m/wakaama_lwm2m/wakaama-master/core\observe.c ****                     {
 4539              		.loc 1 858 24 discriminator 3 view .LVU1201
 4540 0308 DDE90601 		ldrd	r0, [sp, #24]
 858:C:/Users/²Ü¼ÒºÀ/.iotlink/sdk/IoT_LINK/iot_link/network/lwm2m/wakaama_lwm2m/wakaama-master/core\observe.c ****                     {
 4541              		.loc 1 858 44 discriminator 3 view .LVU1202
 4542 030c 43F10003 		adc	r3, r3, #0
 858:C:/Users/²Ü¼ÒºÀ/.iotlink/sdk/IoT_LINK/iot_link/network/lwm2m/wakaama_lwm2m/wakaama-master/core\observe.c ****                     {
 4543              		.loc 1 858 24 discriminator 3 view .LVU1203
 4544 0310 9042     		cmp	r0, r2
 4545 0312 71EB0303 		sbcs	r3, r1, r3
 4546 0316 C0F27583 		blt	.L442
 860:C:/Users/²Ü¼ÒºÀ/.iotlink/sdk/IoT_LINK/iot_link/network/lwm2m/wakaama_lwm2m/wakaama-master/core\observe.c ****                         notify = true;
 4547              		.loc 1 860 25 is_stmt 1 view .LVU1204
 860:C:/Users/²Ü¼ÒºÀ/.iotlink/sdk/IoT_LINK/iot_link/network/lwm2m/wakaama_lwm2m/wakaama-master/core\observe.c ****                         notify = true;
 4548              		.loc 1 860 25 view .LVU1205
 4549 031a FFF7FEFF 		bl	link_log_level_get
 4550              	.LVL466:
 4551 031e 0128     		cmp	r0, #1
 4552 0320 00F2F682 		bhi	.L439
 860:C:/Users/²Ü¼ÒºÀ/.iotlink/sdk/IoT_LINK/iot_link/network/lwm2m/wakaama_lwm2m/wakaama-master/core\observe.c ****                         notify = true;
 4553              		.loc 1 860 25 discriminator 1 view .LVU1206
 860:C:/Users/²Ü¼ÒºÀ/.iotlink/sdk/IoT_LINK/iot_link/network/lwm2m/wakaama_lwm2m/wakaama-master/core\observe.c ****                         notify = true;
 4554              		.loc 1 860 25 discriminator 1 view .LVU1207
 860:C:/Users/²Ü¼ÒºÀ/.iotlink/sdk/IoT_LINK/iot_link/network/lwm2m/wakaama_lwm2m/wakaama-master/core\observe.c ****                         notify = true;
 4555              		.loc 1 860 25 discriminator 1 view .LVU1208
 4556 0324 0120     		movs	r0, #1
 4557 0326 FFF7FEFF 		bl	link_log_level_name
 4558              	.LVL467:
 4559 032a 0446     		mov	r4, r0
ARM GAS  C:\Users\²Ü¼ÒºÀ\AppData\Local\Temp\ccA6NNYh.s 			page 124


 4560 032c FFF7FEFF 		bl	osal_sys_time
 4561              	.LVL468:
 4562 0330 0590     		str	r0, [sp, #20]
 4563 0332 FFF7FEFF 		bl	lwm2m_gettime
 4564              	.LVL469:
 4565 0336 4FF45773 		mov	r3, #860
 4566 033a 0293     		str	r3, [sp, #8]
 4567 033c 514B     		ldr	r3, .L528
 4568 033e 059A     		ldr	r2, [sp, #20]
 4569 0340 CDE90003 		strd	r0, r3, [sp]
 4570 0344 2146     		mov	r1, r4
 4571 0346 5348     		ldr	r0, .L528+16
 4572 0348 5346     		mov	r3, r10
 4573 034a D6E2     		b	.L523
 4574              	.LVL470:
 4575              	.L367:
 860:C:/Users/²Ü¼ÒºÀ/.iotlink/sdk/IoT_LINK/iot_link/network/lwm2m/wakaama_lwm2m/wakaama-master/core\observe.c ****                         notify = true;
 4576              		.loc 1 860 25 is_stmt 0 discriminator 1 view .LVU1209
 4577              	.LBE49:
 692:C:/Users/²Ü¼ÒºÀ/.iotlink/sdk/IoT_LINK/iot_link/network/lwm2m/wakaama_lwm2m/wakaama-master/core\observe.c ****                 {
 4578              		.loc 1 692 17 is_stmt 1 view .LVU1210
 692:C:/Users/²Ü¼ÒºÀ/.iotlink/sdk/IoT_LINK/iot_link/network/lwm2m/wakaama_lwm2m/wakaama-master/core\observe.c ****                 {
 4579              		.loc 1 692 26 is_stmt 0 view .LVU1211
 4580 034c 18A9     		add	r1, sp, #96
 4581 034e FFF7FEFF 		bl	lwm2m_data_decode_int
 4582              	.LVL471:
 4583              	.L525:
 692:C:/Users/²Ü¼ÒºÀ/.iotlink/sdk/IoT_LINK/iot_link/network/lwm2m/wakaama_lwm2m/wakaama-master/core\observe.c ****                 {
 4584              		.loc 1 692 20 view .LVU1212
 4585 0352 0128     		cmp	r0, #1
 4586 0354 06D1     		bne	.L524
 697:C:/Users/²Ü¼ÒºÀ/.iotlink/sdk/IoT_LINK/iot_link/network/lwm2m/wakaama_lwm2m/wakaama-master/core\observe.c ****                 break;
 4587              		.loc 1 697 28 view .LVU1213
 4588 0356 0123     		movs	r3, #1
 4589              	.L461:
 672:C:/Users/²Ü¼ÒºÀ/.iotlink/sdk/IoT_LINK/iot_link/network/lwm2m/wakaama_lwm2m/wakaama-master/core\observe.c ****         coap_packet_t message[1];
 4590              		.loc 1 672 14 view .LVU1214
 4591 0358 0993     		str	r3, [sp, #36]
 4592 035a 40E7     		b	.L365
 4593              	.L368:
 700:C:/Users/²Ü¼ÒºÀ/.iotlink/sdk/IoT_LINK/iot_link/network/lwm2m/wakaama_lwm2m/wakaama-master/core\observe.c ****                 {
 4594              		.loc 1 700 17 is_stmt 1 view .LVU1215
 700:C:/Users/²Ü¼ÒºÀ/.iotlink/sdk/IoT_LINK/iot_link/network/lwm2m/wakaama_lwm2m/wakaama-master/core\observe.c ****                 {
 4595              		.loc 1 700 26 is_stmt 0 view .LVU1216
 4596 035c 16A9     		add	r1, sp, #88
 4597 035e FFF7FEFF 		bl	lwm2m_data_decode_float
 4598              	.LVL472:
 4599 0362 F6E7     		b	.L525
 4600              	.L524:
 702:C:/Users/²Ü¼ÒºÀ/.iotlink/sdk/IoT_LINK/iot_link/network/lwm2m/wakaama_lwm2m/wakaama-master/core\observe.c ****                     continue;
 4601              		.loc 1 702 21 is_stmt 1 view .LVU1217
 4602 0364 DDE91410 		ldrd	r1, r0, [sp, #80]
 4603 0368 FFF7FEFF 		bl	lwm2m_data_free
 4604              	.LVL473:
 703:C:/Users/²Ü¼ÒºÀ/.iotlink/sdk/IoT_LINK/iot_link/network/lwm2m/wakaama_lwm2m/wakaama-master/core\observe.c ****                 }
 4605              		.loc 1 703 21 view .LVU1218
 4606 036c 03E7     		b	.L364
ARM GAS  C:\Users\²Ü¼ÒºÀ\AppData\Local\Temp\ccA6NNYh.s 			page 125


 4607              	.LVL474:
 4608              	.L376:
 4609              	.LBB50:
 724:C:/Users/²Ü¼ÒºÀ/.iotlink/sdk/IoT_LINK/iot_link/network/lwm2m/wakaama_lwm2m/wakaama-master/core\observe.c ****                         LOG("Notify with no conditions");
 4610              		.loc 1 724 25 view .LVU1219
 725:C:/Users/²Ü¼ÒºÀ/.iotlink/sdk/IoT_LINK/iot_link/network/lwm2m/wakaama_lwm2m/wakaama-master/core\observe.c ****                         LOG_URI(&(targetP->uri));
 4611              		.loc 1 725 25 view .LVU1220
 725:C:/Users/²Ü¼ÒºÀ/.iotlink/sdk/IoT_LINK/iot_link/network/lwm2m/wakaama_lwm2m/wakaama-master/core\observe.c ****                         LOG_URI(&(targetP->uri));
 4612              		.loc 1 725 25 view .LVU1221
 4613 036e FFF7FEFF 		bl	link_log_level_get
 4614              	.LVL475:
 4615 0372 0128     		cmp	r0, #1
 4616 0374 19D8     		bhi	.L379
 725:C:/Users/²Ü¼ÒºÀ/.iotlink/sdk/IoT_LINK/iot_link/network/lwm2m/wakaama_lwm2m/wakaama-master/core\observe.c ****                         LOG_URI(&(targetP->uri));
 4617              		.loc 1 725 25 discriminator 1 view .LVU1222
 725:C:/Users/²Ü¼ÒºÀ/.iotlink/sdk/IoT_LINK/iot_link/network/lwm2m/wakaama_lwm2m/wakaama-master/core\observe.c ****                         LOG_URI(&(targetP->uri));
 4618              		.loc 1 725 25 discriminator 1 view .LVU1223
 725:C:/Users/²Ü¼ÒºÀ/.iotlink/sdk/IoT_LINK/iot_link/network/lwm2m/wakaama_lwm2m/wakaama-master/core\observe.c ****                         LOG_URI(&(targetP->uri));
 4619              		.loc 1 725 25 discriminator 1 view .LVU1224
 4620 0376 0120     		movs	r0, #1
 4621 0378 FFF7FEFF 		bl	link_log_level_name
 4622              	.LVL476:
 4623 037c 0446     		mov	r4, r0
 4624 037e FFF7FEFF 		bl	osal_sys_time
 4625              	.LVL477:
 4626 0382 1090     		str	r0, [sp, #64]
 4627 0384 FFF7FEFF 		bl	lwm2m_gettime
 4628              	.LVL478:
 4629 0388 40F2D523 		movw	r3, #725
 4630 038c 0293     		str	r3, [sp, #8]
 4631 038e 3D4B     		ldr	r3, .L528
 4632 0390 109A     		ldr	r2, [sp, #64]
 4633 0392 CDE90003 		strd	r0, r3, [sp]
 4634 0396 2146     		mov	r1, r4
 4635 0398 5346     		mov	r3, r10
 4636 039a 3F48     		ldr	r0, .L528+20
 4637 039c FFF7FEFF 		bl	printf
 4638              	.LVL479:
 725:C:/Users/²Ü¼ÒºÀ/.iotlink/sdk/IoT_LINK/iot_link/network/lwm2m/wakaama_lwm2m/wakaama-master/core\observe.c ****                         LOG_URI(&(targetP->uri));
 4639              		.loc 1 725 25 discriminator 1 view .LVU1225
 4640 03a0 3A4B     		ldr	r3, .L528+8
 4641 03a2 1B68     		ldr	r3, [r3]
 4642 03a4 9868     		ldr	r0, [r3, #8]
 4643 03a6 FFF7FEFF 		bl	fflush
 4644              	.LVL480:
 4645              	.L379:
 725:C:/Users/²Ü¼ÒºÀ/.iotlink/sdk/IoT_LINK/iot_link/network/lwm2m/wakaama_lwm2m/wakaama-master/core\observe.c ****                         LOG_URI(&(targetP->uri));
 4646              		.loc 1 725 25 discriminator 3 view .LVU1226
 725:C:/Users/²Ü¼ÒºÀ/.iotlink/sdk/IoT_LINK/iot_link/network/lwm2m/wakaama_lwm2m/wakaama-master/core\observe.c ****                         LOG_URI(&(targetP->uri));
 4647              		.loc 1 725 25 discriminator 3 view .LVU1227
 725:C:/Users/²Ü¼ÒºÀ/.iotlink/sdk/IoT_LINK/iot_link/network/lwm2m/wakaama_lwm2m/wakaama-master/core\observe.c ****                         LOG_URI(&(targetP->uri));
 4648              		.loc 1 725 25 discriminator 3 view .LVU1228
 726:C:/Users/²Ü¼ÒºÀ/.iotlink/sdk/IoT_LINK/iot_link/network/lwm2m/wakaama_lwm2m/wakaama-master/core\observe.c ****                     }
 4649              		.loc 1 726 25 discriminator 3 view .LVU1229
 726:C:/Users/²Ü¼ÒºÀ/.iotlink/sdk/IoT_LINK/iot_link/network/lwm2m/wakaama_lwm2m/wakaama-master/core\observe.c ****                     }
 4650              		.loc 1 726 25 discriminator 3 view .LVU1230
 726:C:/Users/²Ü¼ÒºÀ/.iotlink/sdk/IoT_LINK/iot_link/network/lwm2m/wakaama_lwm2m/wakaama-master/core\observe.c ****                     }
ARM GAS  C:\Users\²Ü¼ÒºÀ\AppData\Local\Temp\ccA6NNYh.s 			page 126


 4651              		.loc 1 726 25 discriminator 3 view .LVU1231
 4652 03aa FFF7FEFF 		bl	link_log_level_get
 4653              	.LVL481:
 4654 03ae 0128     		cmp	r0, #1
 4655 03b0 18D8     		bhi	.L380
 726:C:/Users/²Ü¼ÒºÀ/.iotlink/sdk/IoT_LINK/iot_link/network/lwm2m/wakaama_lwm2m/wakaama-master/core\observe.c ****                     }
 4656              		.loc 1 726 25 discriminator 6 view .LVU1232
 726:C:/Users/²Ü¼ÒºÀ/.iotlink/sdk/IoT_LINK/iot_link/network/lwm2m/wakaama_lwm2m/wakaama-master/core\observe.c ****                     }
 4657              		.loc 1 726 25 discriminator 6 view .LVU1233
 726:C:/Users/²Ü¼ÒºÀ/.iotlink/sdk/IoT_LINK/iot_link/network/lwm2m/wakaama_lwm2m/wakaama-master/core\observe.c ****                     }
 4658              		.loc 1 726 25 discriminator 6 view .LVU1234
 4659 03b2 0120     		movs	r0, #1
 4660 03b4 FFF7FEFF 		bl	link_log_level_name
 4661              	.LVL482:
 4662 03b8 0446     		mov	r4, r0
 4663 03ba FFF7FEFF 		bl	osal_sys_time
 4664              	.LVL483:
 4665 03be BBF80630 		ldrh	r3, [fp, #6]
 4666 03c2 0293     		str	r3, [sp, #8]
 4667 03c4 40F2D623 		movw	r3, #726
 4668 03c8 0193     		str	r3, [sp, #4]
 4669 03ca 2E4B     		ldr	r3, .L528
 4670 03cc 0093     		str	r3, [sp]
 4671 03ce 0246     		mov	r2, r0
 4672 03d0 5346     		mov	r3, r10
 4673 03d2 3248     		ldr	r0, .L528+24
 4674 03d4 2146     		mov	r1, r4
 4675 03d6 FFF7FEFF 		bl	printf
 4676              	.LVL484:
 726:C:/Users/²Ü¼ÒºÀ/.iotlink/sdk/IoT_LINK/iot_link/network/lwm2m/wakaama_lwm2m/wakaama-master/core\observe.c ****                     }
 4677              		.loc 1 726 25 discriminator 6 view .LVU1235
 4678 03da 2C4B     		ldr	r3, .L528+8
 4679 03dc 1B68     		ldr	r3, [r3]
 4680 03de 9868     		ldr	r0, [r3, #8]
 4681 03e0 FFF7FEFF 		bl	fflush
 4682              	.LVL485:
 4683              	.L380:
 726:C:/Users/²Ü¼ÒºÀ/.iotlink/sdk/IoT_LINK/iot_link/network/lwm2m/wakaama_lwm2m/wakaama-master/core\observe.c ****                     }
 4684              		.loc 1 726 25 discriminator 8 view .LVU1236
 726:C:/Users/²Ü¼ÒºÀ/.iotlink/sdk/IoT_LINK/iot_link/network/lwm2m/wakaama_lwm2m/wakaama-master/core\observe.c ****                     }
 4685              		.loc 1 726 25 discriminator 8 view .LVU1237
 726:C:/Users/²Ü¼ÒºÀ/.iotlink/sdk/IoT_LINK/iot_link/network/lwm2m/wakaama_lwm2m/wakaama-master/core\observe.c ****                     }
 4686              		.loc 1 726 25 discriminator 8 view .LVU1238
 726:C:/Users/²Ü¼ÒºÀ/.iotlink/sdk/IoT_LINK/iot_link/network/lwm2m/wakaama_lwm2m/wakaama-master/core\observe.c ****                     }
 4687              		.loc 1 726 25 discriminator 8 view .LVU1239
 4688 03e4 9BF80430 		ldrb	r3, [fp, #4]	@ zero_extendqisi2
 4689 03e8 9907     		lsls	r1, r3, #30
 4690 03ea 17D5     		bpl	.L382
 726:C:/Users/²Ü¼ÒºÀ/.iotlink/sdk/IoT_LINK/iot_link/network/lwm2m/wakaama_lwm2m/wakaama-master/core\observe.c ****                     }
 4691              		.loc 1 726 25 discriminator 9 view .LVU1240
 726:C:/Users/²Ü¼ÒºÀ/.iotlink/sdk/IoT_LINK/iot_link/network/lwm2m/wakaama_lwm2m/wakaama-master/core\observe.c ****                     }
 4692              		.loc 1 726 25 discriminator 9 view .LVU1241
 4693 03ec FFF7FEFF 		bl	link_log_level_get
 4694              	.LVL486:
 4695 03f0 0128     		cmp	r0, #1
 4696 03f2 13D8     		bhi	.L382
 726:C:/Users/²Ü¼ÒºÀ/.iotlink/sdk/IoT_LINK/iot_link/network/lwm2m/wakaama_lwm2m/wakaama-master/core\observe.c ****                     }
ARM GAS  C:\Users\²Ü¼ÒºÀ\AppData\Local\Temp\ccA6NNYh.s 			page 127


 4697              		.loc 1 726 25 discriminator 11 view .LVU1242
 726:C:/Users/²Ü¼ÒºÀ/.iotlink/sdk/IoT_LINK/iot_link/network/lwm2m/wakaama_lwm2m/wakaama-master/core\observe.c ****                     }
 4698              		.loc 1 726 25 discriminator 11 view .LVU1243
 726:C:/Users/²Ü¼ÒºÀ/.iotlink/sdk/IoT_LINK/iot_link/network/lwm2m/wakaama_lwm2m/wakaama-master/core\observe.c ****                     }
 4699              		.loc 1 726 25 discriminator 11 view .LVU1244
 4700 03f4 0120     		movs	r0, #1
 4701 03f6 FFF7FEFF 		bl	link_log_level_name
 4702              	.LVL487:
 4703 03fa 0446     		mov	r4, r0
 4704 03fc FFF7FEFF 		bl	osal_sys_time
 4705              	.LVL488:
 4706 0400 BBF80830 		ldrh	r3, [fp, #8]
 4707 0404 0093     		str	r3, [sp]
 4708 0406 0246     		mov	r2, r0
 4709 0408 5346     		mov	r3, r10
 4710 040a 2548     		ldr	r0, .L528+28
 4711 040c 2146     		mov	r1, r4
 4712 040e FFF7FEFF 		bl	printf
 4713              	.LVL489:
 726:C:/Users/²Ü¼ÒºÀ/.iotlink/sdk/IoT_LINK/iot_link/network/lwm2m/wakaama_lwm2m/wakaama-master/core\observe.c ****                     }
 4714              		.loc 1 726 25 discriminator 11 view .LVU1245
 4715 0412 1E4B     		ldr	r3, .L528+8
 4716 0414 1B68     		ldr	r3, [r3]
 4717 0416 9868     		ldr	r0, [r3, #8]
 4718 0418 FFF7FEFF 		bl	fflush
 4719              	.LVL490:
 4720              	.L382:
 726:C:/Users/²Ü¼ÒºÀ/.iotlink/sdk/IoT_LINK/iot_link/network/lwm2m/wakaama_lwm2m/wakaama-master/core\observe.c ****                     }
 4721              		.loc 1 726 25 discriminator 13 view .LVU1246
 726:C:/Users/²Ü¼ÒºÀ/.iotlink/sdk/IoT_LINK/iot_link/network/lwm2m/wakaama_lwm2m/wakaama-master/core\observe.c ****                     }
 4722              		.loc 1 726 25 discriminator 13 view .LVU1247
 726:C:/Users/²Ü¼ÒºÀ/.iotlink/sdk/IoT_LINK/iot_link/network/lwm2m/wakaama_lwm2m/wakaama-master/core\observe.c ****                     }
 4723              		.loc 1 726 25 discriminator 13 view .LVU1248
 726:C:/Users/²Ü¼ÒºÀ/.iotlink/sdk/IoT_LINK/iot_link/network/lwm2m/wakaama_lwm2m/wakaama-master/core\observe.c ****                     }
 4724              		.loc 1 726 25 discriminator 13 view .LVU1249
 4725 041c 9BF80430 		ldrb	r3, [fp, #4]	@ zero_extendqisi2
 4726 0420 DA07     		lsls	r2, r3, #31
 4727 0422 17D5     		bpl	.L385
 726:C:/Users/²Ü¼ÒºÀ/.iotlink/sdk/IoT_LINK/iot_link/network/lwm2m/wakaama_lwm2m/wakaama-master/core\observe.c ****                     }
 4728              		.loc 1 726 25 discriminator 14 view .LVU1250
 726:C:/Users/²Ü¼ÒºÀ/.iotlink/sdk/IoT_LINK/iot_link/network/lwm2m/wakaama_lwm2m/wakaama-master/core\observe.c ****                     }
 4729              		.loc 1 726 25 discriminator 14 view .LVU1251
 4730 0424 FFF7FEFF 		bl	link_log_level_get
 4731              	.LVL491:
 4732 0428 0128     		cmp	r0, #1
 4733 042a 13D8     		bhi	.L385
 726:C:/Users/²Ü¼ÒºÀ/.iotlink/sdk/IoT_LINK/iot_link/network/lwm2m/wakaama_lwm2m/wakaama-master/core\observe.c ****                     }
 4734              		.loc 1 726 25 discriminator 16 view .LVU1252
 726:C:/Users/²Ü¼ÒºÀ/.iotlink/sdk/IoT_LINK/iot_link/network/lwm2m/wakaama_lwm2m/wakaama-master/core\observe.c ****                     }
 4735              		.loc 1 726 25 discriminator 16 view .LVU1253
 726:C:/Users/²Ü¼ÒºÀ/.iotlink/sdk/IoT_LINK/iot_link/network/lwm2m/wakaama_lwm2m/wakaama-master/core\observe.c ****                     }
 4736              		.loc 1 726 25 discriminator 16 view .LVU1254
 4737 042c 0120     		movs	r0, #1
 4738 042e FFF7FEFF 		bl	link_log_level_name
 4739              	.LVL492:
 4740 0432 0446     		mov	r4, r0
 4741 0434 FFF7FEFF 		bl	osal_sys_time
ARM GAS  C:\Users\²Ü¼ÒºÀ\AppData\Local\Temp\ccA6NNYh.s 			page 128


 4742              	.LVL493:
 4743 0438 BBF80A30 		ldrh	r3, [fp, #10]
 4744 043c 0093     		str	r3, [sp]
 4745 043e 0246     		mov	r2, r0
 4746 0440 5346     		mov	r3, r10
 4747 0442 1748     		ldr	r0, .L528+28
 4748 0444 2146     		mov	r1, r4
 4749 0446 FFF7FEFF 		bl	printf
 4750              	.LVL494:
 726:C:/Users/²Ü¼ÒºÀ/.iotlink/sdk/IoT_LINK/iot_link/network/lwm2m/wakaama_lwm2m/wakaama-master/core\observe.c ****                     }
 4751              		.loc 1 726 25 discriminator 16 view .LVU1255
 4752 044a 104B     		ldr	r3, .L528+8
 4753 044c 1B68     		ldr	r3, [r3]
 4754 044e 9868     		ldr	r0, [r3, #8]
 4755 0450 FFF7FEFF 		bl	fflush
 4756              	.LVL495:
 4757              	.L385:
 726:C:/Users/²Ü¼ÒºÀ/.iotlink/sdk/IoT_LINK/iot_link/network/lwm2m/wakaama_lwm2m/wakaama-master/core\observe.c ****                     }
 4758              		.loc 1 726 25 discriminator 18 view .LVU1256
 726:C:/Users/²Ü¼ÒºÀ/.iotlink/sdk/IoT_LINK/iot_link/network/lwm2m/wakaama_lwm2m/wakaama-master/core\observe.c ****                     }
 4759              		.loc 1 726 25 discriminator 18 view .LVU1257
 726:C:/Users/²Ü¼ÒºÀ/.iotlink/sdk/IoT_LINK/iot_link/network/lwm2m/wakaama_lwm2m/wakaama-master/core\observe.c ****                     }
 4760              		.loc 1 726 25 discriminator 18 view .LVU1258
 726:C:/Users/²Ü¼ÒºÀ/.iotlink/sdk/IoT_LINK/iot_link/network/lwm2m/wakaama_lwm2m/wakaama-master/core\observe.c ****                     }
 4761              		.loc 1 726 25 discriminator 18 view .LVU1259
 726:C:/Users/²Ü¼ÒºÀ/.iotlink/sdk/IoT_LINK/iot_link/network/lwm2m/wakaama_lwm2m/wakaama-master/core\observe.c ****                     }
 4762              		.loc 1 726 25 discriminator 18 view .LVU1260
 4763 0454 FFF7FEFF 		bl	link_log_level_get
 4764              	.LVL496:
 4765 0458 0128     		cmp	r0, #1
 4766 045a 01D9     		bls	.L387
 4767              	.LVL497:
 4768              	.L520:
 4769              	.LBB42:
 821:C:/Users/²Ü¼ÒºÀ/.iotlink/sdk/IoT_LINK/iot_link/network/lwm2m/wakaama_lwm2m/wakaama-master/core\observe.c ****                                 }
 4770              		.loc 1 821 44 is_stmt 0 discriminator 1 view .LVU1261
 4771 045c 059C     		ldr	r4, [sp, #20]
 4772 045e D9E6     		b	.L378
 4773              	.LVL498:
 4774              	.L387:
 821:C:/Users/²Ü¼ÒºÀ/.iotlink/sdk/IoT_LINK/iot_link/network/lwm2m/wakaama_lwm2m/wakaama-master/core\observe.c ****                                 }
 4775              		.loc 1 821 44 discriminator 1 view .LVU1262
 4776              	.LBE42:
 726:C:/Users/²Ü¼ÒºÀ/.iotlink/sdk/IoT_LINK/iot_link/network/lwm2m/wakaama_lwm2m/wakaama-master/core\observe.c ****                     }
 4777              		.loc 1 726 25 is_stmt 1 discriminator 19 view .LVU1263
 726:C:/Users/²Ü¼ÒºÀ/.iotlink/sdk/IoT_LINK/iot_link/network/lwm2m/wakaama_lwm2m/wakaama-master/core\observe.c ****                     }
 4778              		.loc 1 726 25 discriminator 19 view .LVU1264
 726:C:/Users/²Ü¼ÒºÀ/.iotlink/sdk/IoT_LINK/iot_link/network/lwm2m/wakaama_lwm2m/wakaama-master/core\observe.c ****                     }
 4779              		.loc 1 726 25 discriminator 19 view .LVU1265
 4780 0460 0120     		movs	r0, #1
 4781 0462 FFF7FEFF 		bl	link_log_level_name
 4782              	.LVL499:
 4783 0466 0446     		mov	r4, r0
 4784 0468 FFF7FEFF 		bl	osal_sys_time
 4785              	.LVL500:
 4786 046c 5346     		mov	r3, r10
 4787 046e 0246     		mov	r2, r0
ARM GAS  C:\Users\²Ü¼ÒºÀ\AppData\Local\Temp\ccA6NNYh.s 			page 129


 4788 0470 2146     		mov	r1, r4
 4789 0472 0C48     		ldr	r0, .L528+32
 4790 0474 FFF7FEFF 		bl	printf
 4791              	.LVL501:
 726:C:/Users/²Ü¼ÒºÀ/.iotlink/sdk/IoT_LINK/iot_link/network/lwm2m/wakaama_lwm2m/wakaama-master/core\observe.c ****                     }
 4792              		.loc 1 726 25 discriminator 19 view .LVU1266
 4793              	.L522:
 4794              	.LBB43:
 820:C:/Users/²Ü¼ÒºÀ/.iotlink/sdk/IoT_LINK/iot_link/network/lwm2m/wakaama_lwm2m/wakaama-master/core\observe.c ****                                     notify = true;
 4795              		.loc 1 820 37 discriminator 1 view .LVU1267
 4796 0478 044B     		ldr	r3, .L528+8
 4797 047a 1B68     		ldr	r3, [r3]
 4798 047c 9868     		ldr	r0, [r3, #8]
 4799 047e FFF7FEFF 		bl	fflush
 4800              	.LVL502:
 4801 0482 EBE7     		b	.L520
 4802              	.L529:
 4803              		.align	2
 4804              	.L528:
 4805 0484 00000000 		.word	.LANCHOR18
 4806 0488 80010000 		.word	.LC41
 4807 048c 00000000 		.word	_impure_ptr
 4808 0490 F2010000 		.word	.LC43
 4809 0494 2E020000 		.word	.LC44
 4810 0498 00000000 		.word	.LC34
 4811 049c 86010000 		.word	.LC19
 4812 04a0 A1010000 		.word	.LC20
 4813 04a4 B4010000 		.word	.LC21
 4814 04a8 00000000 		.word	.LANCHOR17
 4815              	.LVL503:
 4816              	.L377:
 820:C:/Users/²Ü¼ÒºÀ/.iotlink/sdk/IoT_LINK/iot_link/network/lwm2m/wakaama_lwm2m/wakaama-master/core\observe.c ****                                     notify = true;
 4817              		.loc 1 820 37 is_stmt 0 discriminator 1 view .LVU1268
 4818              	.LBE43:
 733:C:/Users/²Ü¼ÒºÀ/.iotlink/sdk/IoT_LINK/iot_link/network/lwm2m/wakaama_lwm2m/wakaama-master/core\observe.c ****                         {
 4819              		.loc 1 733 25 is_stmt 1 view .LVU1269
 733:C:/Users/²Ü¼ÒºÀ/.iotlink/sdk/IoT_LINK/iot_link/network/lwm2m/wakaama_lwm2m/wakaama-master/core\observe.c ****                         {
 4820              		.loc 1 733 28 is_stmt 0 view .LVU1270
 4821 04ac 1B07     		lsls	r3, r3, #28
 4822 04ae 00F19480 		bmi	.L388
 4823              	.L516:
 737:C:/Users/²Ü¼ÒºÀ/.iotlink/sdk/IoT_LINK/iot_link/network/lwm2m/wakaama_lwm2m/wakaama-master/core\observe.c ****                             {
 4824              		.loc 1 737 29 view .LVU1271
 4825 04b2 0024     		movs	r4, #0
 4826              	.L389:
 4827              	.LVL504:
 763:C:/Users/²Ü¼ÒºÀ/.iotlink/sdk/IoT_LINK/iot_link/network/lwm2m/wakaama_lwm2m/wakaama-master/core\observe.c ****                         {
 4828              		.loc 1 763 25 is_stmt 1 view .LVU1272
 763:C:/Users/²Ü¼ÒºÀ/.iotlink/sdk/IoT_LINK/iot_link/network/lwm2m/wakaama_lwm2m/wakaama-master/core\observe.c ****                         {
 4829              		.loc 1 763 50 is_stmt 0 view .LVU1273
 4830 04b4 EB68     		ldr	r3, [r5, #12]
 763:C:/Users/²Ü¼ÒºÀ/.iotlink/sdk/IoT_LINK/iot_link/network/lwm2m/wakaama_lwm2m/wakaama-master/core\observe.c ****                         {
 4831              		.loc 1 763 28 view .LVU1274
 4832 04b6 1B78     		ldrb	r3, [r3]	@ zero_extendqisi2
 4833 04b8 5F07     		lsls	r7, r3, #29
 4834 04ba 26D5     		bpl	.L406
 765:C:/Users/²Ü¼ÒºÀ/.iotlink/sdk/IoT_LINK/iot_link/network/lwm2m/wakaama_lwm2m/wakaama-master/core\observe.c ****                             // Did we cross the upper threshold ?
ARM GAS  C:\Users\²Ü¼ÒºÀ\AppData\Local\Temp\ccA6NNYh.s 			page 130


 4835              		.loc 1 765 29 is_stmt 1 view .LVU1275
 765:C:/Users/²Ü¼ÒºÀ/.iotlink/sdk/IoT_LINK/iot_link/network/lwm2m/wakaama_lwm2m/wakaama-master/core\observe.c ****                             // Did we cross the upper threshold ?
 4836              		.loc 1 765 29 view .LVU1276
 4837 04bc FFF7FEFF 		bl	link_log_level_get
 4838              	.LVL505:
 4839 04c0 0128     		cmp	r0, #1
 4840 04c2 19D8     		bhi	.L407
 765:C:/Users/²Ü¼ÒºÀ/.iotlink/sdk/IoT_LINK/iot_link/network/lwm2m/wakaama_lwm2m/wakaama-master/core\observe.c ****                             // Did we cross the upper threshold ?
 4841              		.loc 1 765 29 discriminator 1 view .LVU1277
 765:C:/Users/²Ü¼ÒºÀ/.iotlink/sdk/IoT_LINK/iot_link/network/lwm2m/wakaama_lwm2m/wakaama-master/core\observe.c ****                             // Did we cross the upper threshold ?
 4842              		.loc 1 765 29 discriminator 1 view .LVU1278
 765:C:/Users/²Ü¼ÒºÀ/.iotlink/sdk/IoT_LINK/iot_link/network/lwm2m/wakaama_lwm2m/wakaama-master/core\observe.c ****                             // Did we cross the upper threshold ?
 4843              		.loc 1 765 29 discriminator 1 view .LVU1279
 4844 04c4 0120     		movs	r0, #1
 4845 04c6 FFF7FEFF 		bl	link_log_level_name
 4846              	.LVL506:
 4847 04ca 0646     		mov	r6, r0
 4848 04cc FFF7FEFF 		bl	osal_sys_time
 4849              	.LVL507:
 4850 04d0 1090     		str	r0, [sp, #64]
 4851 04d2 FFF7FEFF 		bl	lwm2m_gettime
 4852              	.LVL508:
 4853 04d6 40F2FD23 		movw	r3, #765
 4854 04da 0293     		str	r3, [sp, #8]
 4855 04dc BB4B     		ldr	r3, .L530
 4856 04de 109A     		ldr	r2, [sp, #64]
 4857 04e0 CDE90003 		strd	r0, r3, [sp]
 4858 04e4 3146     		mov	r1, r6
 4859 04e6 5346     		mov	r3, r10
 4860 04e8 B948     		ldr	r0, .L530+4
 4861 04ea FFF7FEFF 		bl	printf
 4862              	.LVL509:
 765:C:/Users/²Ü¼ÒºÀ/.iotlink/sdk/IoT_LINK/iot_link/network/lwm2m/wakaama_lwm2m/wakaama-master/core\observe.c ****                             // Did we cross the upper threshold ?
 4863              		.loc 1 765 29 discriminator 1 view .LVU1280
 4864 04ee B94B     		ldr	r3, .L530+8
 4865 04f0 1B68     		ldr	r3, [r3]
 4866 04f2 9868     		ldr	r0, [r3, #8]
 4867 04f4 FFF7FEFF 		bl	fflush
 4868              	.LVL510:
 4869              	.L407:
 765:C:/Users/²Ü¼ÒºÀ/.iotlink/sdk/IoT_LINK/iot_link/network/lwm2m/wakaama_lwm2m/wakaama-master/core\observe.c ****                             // Did we cross the upper threshold ?
 4870              		.loc 1 765 29 discriminator 3 view .LVU1281
 765:C:/Users/²Ü¼ÒºÀ/.iotlink/sdk/IoT_LINK/iot_link/network/lwm2m/wakaama_lwm2m/wakaama-master/core\observe.c ****                             // Did we cross the upper threshold ?
 4871              		.loc 1 765 29 discriminator 3 view .LVU1282
 765:C:/Users/²Ü¼ÒºÀ/.iotlink/sdk/IoT_LINK/iot_link/network/lwm2m/wakaama_lwm2m/wakaama-master/core\observe.c ****                             // Did we cross the upper threshold ?
 4872              		.loc 1 765 29 discriminator 3 view .LVU1283
 767:C:/Users/²Ü¼ÒºÀ/.iotlink/sdk/IoT_LINK/iot_link/network/lwm2m/wakaama_lwm2m/wakaama-master/core\observe.c ****                             {
 4873              		.loc 1 767 29 discriminator 3 view .LVU1284
 767:C:/Users/²Ü¼ÒºÀ/.iotlink/sdk/IoT_LINK/iot_link/network/lwm2m/wakaama_lwm2m/wakaama-master/core\observe.c ****                             {
 4874              		.loc 1 767 42 is_stmt 0 discriminator 3 view .LVU1285
 4875 04f8 149B     		ldr	r3, [sp, #80]
 4876 04fa EE68     		ldr	r6, [r5, #12]
 4877 04fc 1B78     		ldrb	r3, [r3]	@ zero_extendqisi2
 767:C:/Users/²Ü¼ÒºÀ/.iotlink/sdk/IoT_LINK/iot_link/network/lwm2m/wakaama_lwm2m/wakaama-master/core\observe.c ****                             {
 4878              		.loc 1 767 29 discriminator 3 view .LVU1286
 4879 04fe 062B     		cmp	r3, #6
 4880 0500 00F01481 		beq	.L408
ARM GAS  C:\Users\²Ü¼ÒºÀ\AppData\Local\Temp\ccA6NNYh.s 			page 131


 767:C:/Users/²Ü¼ÒºÀ/.iotlink/sdk/IoT_LINK/iot_link/network/lwm2m/wakaama_lwm2m/wakaama-master/core\observe.c ****                             {
 4881              		.loc 1 767 29 view .LVU1287
 4882 0504 072B     		cmp	r3, #7
 4883 0506 00F06F81 		beq	.L409
 4884              	.LVL511:
 4885              	.L406:
 793:C:/Users/²Ü¼ÒºÀ/.iotlink/sdk/IoT_LINK/iot_link/network/lwm2m/wakaama_lwm2m/wakaama-master/core\observe.c ****                         {
 4886              		.loc 1 793 25 is_stmt 1 view .LVU1288
 793:C:/Users/²Ü¼ÒºÀ/.iotlink/sdk/IoT_LINK/iot_link/network/lwm2m/wakaama_lwm2m/wakaama-master/core\observe.c ****                         {
 4887              		.loc 1 793 50 is_stmt 0 view .LVU1289
 4888 050a EB68     		ldr	r3, [r5, #12]
 793:C:/Users/²Ü¼ÒºÀ/.iotlink/sdk/IoT_LINK/iot_link/network/lwm2m/wakaama_lwm2m/wakaama-master/core\observe.c ****                         {
 4889              		.loc 1 793 28 view .LVU1290
 4890 050c 1B78     		ldrb	r3, [r3]	@ zero_extendqisi2
 4891 050e DE06     		lsls	r6, r3, #27
 4892 0510 7FF580AE 		bpl	.L378
 795:C:/Users/²Ü¼ÒºÀ/.iotlink/sdk/IoT_LINK/iot_link/network/lwm2m/wakaama_lwm2m/wakaama-master/core\observe.c **** 
 4893              		.loc 1 795 29 is_stmt 1 view .LVU1291
 795:C:/Users/²Ü¼ÒºÀ/.iotlink/sdk/IoT_LINK/iot_link/network/lwm2m/wakaama_lwm2m/wakaama-master/core\observe.c **** 
 4894              		.loc 1 795 29 view .LVU1292
 4895 0514 FFF7FEFF 		bl	link_log_level_get
 4896              	.LVL512:
 4897 0518 0128     		cmp	r0, #1
 4898 051a 19D8     		bhi	.L422
 795:C:/Users/²Ü¼ÒºÀ/.iotlink/sdk/IoT_LINK/iot_link/network/lwm2m/wakaama_lwm2m/wakaama-master/core\observe.c **** 
 4899              		.loc 1 795 29 discriminator 1 view .LVU1293
 795:C:/Users/²Ü¼ÒºÀ/.iotlink/sdk/IoT_LINK/iot_link/network/lwm2m/wakaama_lwm2m/wakaama-master/core\observe.c **** 
 4900              		.loc 1 795 29 discriminator 1 view .LVU1294
 795:C:/Users/²Ü¼ÒºÀ/.iotlink/sdk/IoT_LINK/iot_link/network/lwm2m/wakaama_lwm2m/wakaama-master/core\observe.c **** 
 4901              		.loc 1 795 29 discriminator 1 view .LVU1295
 4902 051c 0120     		movs	r0, #1
 4903 051e FFF7FEFF 		bl	link_log_level_name
 4904              	.LVL513:
 4905 0522 0646     		mov	r6, r0
 4906 0524 FFF7FEFF 		bl	osal_sys_time
 4907              	.LVL514:
 4908 0528 1090     		str	r0, [sp, #64]
 4909 052a FFF7FEFF 		bl	lwm2m_gettime
 4910              	.LVL515:
 4911 052e 40F21B33 		movw	r3, #795
 4912 0532 0293     		str	r3, [sp, #8]
 4913 0534 A54B     		ldr	r3, .L530
 4914 0536 109A     		ldr	r2, [sp, #64]
 4915 0538 CDE90003 		strd	r0, r3, [sp]
 4916 053c 3146     		mov	r1, r6
 4917 053e 5346     		mov	r3, r10
 4918 0540 A548     		ldr	r0, .L530+12
 4919 0542 FFF7FEFF 		bl	printf
 4920              	.LVL516:
 795:C:/Users/²Ü¼ÒºÀ/.iotlink/sdk/IoT_LINK/iot_link/network/lwm2m/wakaama_lwm2m/wakaama-master/core\observe.c **** 
 4921              		.loc 1 795 29 discriminator 1 view .LVU1296
 4922 0546 A34B     		ldr	r3, .L530+8
 4923 0548 1B68     		ldr	r3, [r3]
 4924 054a 9868     		ldr	r0, [r3, #8]
 4925 054c FFF7FEFF 		bl	fflush
 4926              	.LVL517:
 4927              	.L422:
ARM GAS  C:\Users\²Ü¼ÒºÀ\AppData\Local\Temp\ccA6NNYh.s 			page 132


 795:C:/Users/²Ü¼ÒºÀ/.iotlink/sdk/IoT_LINK/iot_link/network/lwm2m/wakaama_lwm2m/wakaama-master/core\observe.c **** 
 4928              		.loc 1 795 29 discriminator 3 view .LVU1297
 795:C:/Users/²Ü¼ÒºÀ/.iotlink/sdk/IoT_LINK/iot_link/network/lwm2m/wakaama_lwm2m/wakaama-master/core\observe.c **** 
 4929              		.loc 1 795 29 discriminator 3 view .LVU1298
 795:C:/Users/²Ü¼ÒºÀ/.iotlink/sdk/IoT_LINK/iot_link/network/lwm2m/wakaama_lwm2m/wakaama-master/core\observe.c **** 
 4930              		.loc 1 795 29 discriminator 3 view .LVU1299
 797:C:/Users/²Ü¼ÒºÀ/.iotlink/sdk/IoT_LINK/iot_link/network/lwm2m/wakaama_lwm2m/wakaama-master/core\observe.c ****                             {
 4931              		.loc 1 797 29 discriminator 3 view .LVU1300
 797:C:/Users/²Ü¼ÒºÀ/.iotlink/sdk/IoT_LINK/iot_link/network/lwm2m/wakaama_lwm2m/wakaama-master/core\observe.c ****                             {
 4932              		.loc 1 797 42 is_stmt 0 discriminator 3 view .LVU1301
 4933 0550 149B     		ldr	r3, [sp, #80]
 4934 0552 D5F80C80 		ldr	r8, [r5, #12]
 4935 0556 1B78     		ldrb	r3, [r3]	@ zero_extendqisi2
 797:C:/Users/²Ü¼ÒºÀ/.iotlink/sdk/IoT_LINK/iot_link/network/lwm2m/wakaama_lwm2m/wakaama-master/core\observe.c ****                             {
 4936              		.loc 1 797 29 discriminator 3 view .LVU1302
 4937 0558 062B     		cmp	r3, #6
 4938 055a 00F07981 		beq	.L423
 797:C:/Users/²Ü¼ÒºÀ/.iotlink/sdk/IoT_LINK/iot_link/network/lwm2m/wakaama_lwm2m/wakaama-master/core\observe.c ****                             {
 4939              		.loc 1 797 29 view .LVU1303
 4940 055e 072B     		cmp	r3, #7
 4941 0560 7FF458AE 		bne	.L378
 4942              	.LBB44:
 814:C:/Users/²Ü¼ÒºÀ/.iotlink/sdk/IoT_LINK/iot_link/network/lwm2m/wakaama_lwm2m/wakaama-master/core\observe.c **** 
 4943              		.loc 1 814 33 is_stmt 1 view .LVU1304
 816:C:/Users/²Ü¼ÒºÀ/.iotlink/sdk/IoT_LINK/iot_link/network/lwm2m/wakaama_lwm2m/wakaama-master/core\observe.c ****                                 if ((diff < 0 && (0 - diff) >= watcherP->parameters->step)
 4944              		.loc 1 816 33 view .LVU1305
 816:C:/Users/²Ü¼ÒºÀ/.iotlink/sdk/IoT_LINK/iot_link/network/lwm2m/wakaama_lwm2m/wakaama-master/core\observe.c ****                                 if ((diff < 0 && (0 - diff) >= watcherP->parameters->step)
 4945              		.loc 1 816 38 is_stmt 0 view .LVU1306
 4946 0564 D5E90C23 		ldrd	r2, [r5, #48]
 4947 0568 DDE91601 		ldrd	r0, [sp, #88]
 4948 056c FFF7FEFF 		bl	__aeabi_dsub
 4949              	.LVL518:
 817:C:/Users/²Ü¼ÒºÀ/.iotlink/sdk/IoT_LINK/iot_link/network/lwm2m/wakaama_lwm2m/wakaama-master/core\observe.c ****                                         || (diff >= 0 && diff >= watcherP->parameters->step))
 4950              		.loc 1 817 36 view .LVU1307
 4951 0570 0022     		movs	r2, #0
 4952 0572 0023     		movs	r3, #0
 816:C:/Users/²Ü¼ÒºÀ/.iotlink/sdk/IoT_LINK/iot_link/network/lwm2m/wakaama_lwm2m/wakaama-master/core\observe.c ****                                 if ((diff < 0 && (0 - diff) >= watcherP->parameters->step)
 4953              		.loc 1 816 38 view .LVU1308
 4954 0574 0646     		mov	r6, r0
 4955 0576 0F46     		mov	r7, r1
 4956              	.LVL519:
 817:C:/Users/²Ü¼ÒºÀ/.iotlink/sdk/IoT_LINK/iot_link/network/lwm2m/wakaama_lwm2m/wakaama-master/core\observe.c ****                                         || (diff >= 0 && diff >= watcherP->parameters->step))
 4957              		.loc 1 817 33 is_stmt 1 view .LVU1309
 817:C:/Users/²Ü¼ÒºÀ/.iotlink/sdk/IoT_LINK/iot_link/network/lwm2m/wakaama_lwm2m/wakaama-master/core\observe.c ****                                         || (diff >= 0 && diff >= watcherP->parameters->step))
 4958              		.loc 1 817 36 is_stmt 0 view .LVU1310
 4959 0578 FFF7FEFF 		bl	__aeabi_dcmplt
 4960              	.LVL520:
 4961 057c 50B1     		cbz	r0, .L429
 817:C:/Users/²Ü¼ÒºÀ/.iotlink/sdk/IoT_LINK/iot_link/network/lwm2m/wakaama_lwm2m/wakaama-master/core\observe.c ****                                         || (diff >= 0 && diff >= watcherP->parameters->step))
 4962              		.loc 1 817 53 discriminator 1 view .LVU1311
 4963 057e 3246     		mov	r2, r6
 4964 0580 3B46     		mov	r3, r7
 4965 0582 0020     		movs	r0, #0
 4966 0584 0021     		movs	r1, #0
 4967 0586 FFF7FEFF 		bl	__aeabi_dsub
 4968              	.LVL521:
 817:C:/Users/²Ü¼ÒºÀ/.iotlink/sdk/IoT_LINK/iot_link/network/lwm2m/wakaama_lwm2m/wakaama-master/core\observe.c ****                                         || (diff >= 0 && diff >= watcherP->parameters->step))
ARM GAS  C:\Users\²Ü¼ÒºÀ\AppData\Local\Temp\ccA6NNYh.s 			page 133


 4969              		.loc 1 817 47 discriminator 1 view .LVU1312
 4970 058a D8E90823 		ldrd	r2, [r8, #32]
 4971 058e FFF7FEFF 		bl	__aeabi_dcmpge
 4972              	.LVL522:
 4973 0592 88B9     		cbnz	r0, .L431
 4974              	.L429:
 818:C:/Users/²Ü¼ÒºÀ/.iotlink/sdk/IoT_LINK/iot_link/network/lwm2m/wakaama_lwm2m/wakaama-master/core\observe.c ****                                 {
 4975              		.loc 1 818 41 view .LVU1313
 4976 0594 0022     		movs	r2, #0
 4977 0596 0023     		movs	r3, #0
 4978 0598 3046     		mov	r0, r6
 4979 059a 3946     		mov	r1, r7
 4980 059c FFF7FEFF 		bl	__aeabi_dcmpge
 4981              	.LVL523:
 4982 05a0 0028     		cmp	r0, #0
 4983 05a2 3FF437AE 		beq	.L378
 818:C:/Users/²Ü¼ÒºÀ/.iotlink/sdk/IoT_LINK/iot_link/network/lwm2m/wakaama_lwm2m/wakaama-master/core\observe.c ****                                 {
 4984              		.loc 1 818 55 discriminator 1 view .LVU1314
 4985 05a6 D8E90801 		ldrd	r0, [r8, #32]
 4986 05aa 3246     		mov	r2, r6
 4987 05ac 3B46     		mov	r3, r7
 4988 05ae FFF7FEFF 		bl	__aeabi_dcmple
 4989              	.LVL524:
 4990 05b2 0028     		cmp	r0, #0
 4991 05b4 3FF42EAE 		beq	.L378
 4992              	.L431:
 820:C:/Users/²Ü¼ÒºÀ/.iotlink/sdk/IoT_LINK/iot_link/network/lwm2m/wakaama_lwm2m/wakaama-master/core\observe.c ****                                     notify = true;
 4993              		.loc 1 820 37 is_stmt 1 view .LVU1315
 820:C:/Users/²Ü¼ÒºÀ/.iotlink/sdk/IoT_LINK/iot_link/network/lwm2m/wakaama_lwm2m/wakaama-master/core\observe.c ****                                     notify = true;
 4994              		.loc 1 820 37 view .LVU1316
 4995 05b8 FFF7FEFF 		bl	link_log_level_get
 4996              	.LVL525:
 4997 05bc 0128     		cmp	r0, #1
 4998 05be 3FF64DAF 		bhi	.L520
 820:C:/Users/²Ü¼ÒºÀ/.iotlink/sdk/IoT_LINK/iot_link/network/lwm2m/wakaama_lwm2m/wakaama-master/core\observe.c ****                                     notify = true;
 4999              		.loc 1 820 37 discriminator 1 view .LVU1317
 820:C:/Users/²Ü¼ÒºÀ/.iotlink/sdk/IoT_LINK/iot_link/network/lwm2m/wakaama_lwm2m/wakaama-master/core\observe.c ****                                     notify = true;
 5000              		.loc 1 820 37 discriminator 1 view .LVU1318
 820:C:/Users/²Ü¼ÒºÀ/.iotlink/sdk/IoT_LINK/iot_link/network/lwm2m/wakaama_lwm2m/wakaama-master/core\observe.c ****                                     notify = true;
 5001              		.loc 1 820 37 discriminator 1 view .LVU1319
 5002 05c2 0120     		movs	r0, #1
 5003 05c4 FFF7FEFF 		bl	link_log_level_name
 5004              	.LVL526:
 5005 05c8 0446     		mov	r4, r0
 5006              	.LVL527:
 820:C:/Users/²Ü¼ÒºÀ/.iotlink/sdk/IoT_LINK/iot_link/network/lwm2m/wakaama_lwm2m/wakaama-master/core\observe.c ****                                     notify = true;
 5007              		.loc 1 820 37 is_stmt 0 discriminator 1 view .LVU1320
 5008 05ca FFF7FEFF 		bl	osal_sys_time
 5009              	.LVL528:
 5010 05ce 1090     		str	r0, [sp, #64]
 5011 05d0 FFF7FEFF 		bl	lwm2m_gettime
 5012              	.LVL529:
 5013 05d4 4FF44D73 		mov	r3, #820
 5014 05d8 6AE1     		b	.L521
 5015              	.LVL530:
 5016              	.L388:
 820:C:/Users/²Ü¼ÒºÀ/.iotlink/sdk/IoT_LINK/iot_link/network/lwm2m/wakaama_lwm2m/wakaama-master/core\observe.c ****                                     notify = true;
ARM GAS  C:\Users\²Ü¼ÒºÀ\AppData\Local\Temp\ccA6NNYh.s 			page 134


 5017              		.loc 1 820 37 discriminator 1 view .LVU1321
 5018              	.LBE44:
 735:C:/Users/²Ü¼ÒºÀ/.iotlink/sdk/IoT_LINK/iot_link/network/lwm2m/wakaama_lwm2m/wakaama-master/core\observe.c ****                             // Did we cross the lower threshold ?
 5019              		.loc 1 735 29 is_stmt 1 view .LVU1322
 735:C:/Users/²Ü¼ÒºÀ/.iotlink/sdk/IoT_LINK/iot_link/network/lwm2m/wakaama_lwm2m/wakaama-master/core\observe.c ****                             // Did we cross the lower threshold ?
 5020              		.loc 1 735 29 view .LVU1323
 5021 05da FFF7FEFF 		bl	link_log_level_get
 5022              	.LVL531:
 5023 05de 0128     		cmp	r0, #1
 5024 05e0 19D8     		bhi	.L390
 735:C:/Users/²Ü¼ÒºÀ/.iotlink/sdk/IoT_LINK/iot_link/network/lwm2m/wakaama_lwm2m/wakaama-master/core\observe.c ****                             // Did we cross the lower threshold ?
 5025              		.loc 1 735 29 discriminator 1 view .LVU1324
 735:C:/Users/²Ü¼ÒºÀ/.iotlink/sdk/IoT_LINK/iot_link/network/lwm2m/wakaama_lwm2m/wakaama-master/core\observe.c ****                             // Did we cross the lower threshold ?
 5026              		.loc 1 735 29 discriminator 1 view .LVU1325
 735:C:/Users/²Ü¼ÒºÀ/.iotlink/sdk/IoT_LINK/iot_link/network/lwm2m/wakaama_lwm2m/wakaama-master/core\observe.c ****                             // Did we cross the lower threshold ?
 5027              		.loc 1 735 29 discriminator 1 view .LVU1326
 5028 05e2 0120     		movs	r0, #1
 5029 05e4 FFF7FEFF 		bl	link_log_level_name
 5030              	.LVL532:
 5031 05e8 0446     		mov	r4, r0
 5032 05ea FFF7FEFF 		bl	osal_sys_time
 5033              	.LVL533:
 5034 05ee 1090     		str	r0, [sp, #64]
 5035 05f0 FFF7FEFF 		bl	lwm2m_gettime
 5036              	.LVL534:
 5037 05f4 40F2DF23 		movw	r3, #735
 5038 05f8 0293     		str	r3, [sp, #8]
 5039 05fa 744B     		ldr	r3, .L530
 5040 05fc 109A     		ldr	r2, [sp, #64]
 5041 05fe CDE90003 		strd	r0, r3, [sp]
 5042 0602 2146     		mov	r1, r4
 5043 0604 5346     		mov	r3, r10
 5044 0606 7548     		ldr	r0, .L530+16
 5045 0608 FFF7FEFF 		bl	printf
 5046              	.LVL535:
 735:C:/Users/²Ü¼ÒºÀ/.iotlink/sdk/IoT_LINK/iot_link/network/lwm2m/wakaama_lwm2m/wakaama-master/core\observe.c ****                             // Did we cross the lower threshold ?
 5047              		.loc 1 735 29 discriminator 1 view .LVU1327
 5048 060c 714B     		ldr	r3, .L530+8
 5049 060e 1B68     		ldr	r3, [r3]
 5050 0610 9868     		ldr	r0, [r3, #8]
 5051 0612 FFF7FEFF 		bl	fflush
 5052              	.LVL536:
 5053              	.L390:
 735:C:/Users/²Ü¼ÒºÀ/.iotlink/sdk/IoT_LINK/iot_link/network/lwm2m/wakaama_lwm2m/wakaama-master/core\observe.c ****                             // Did we cross the lower threshold ?
 5054              		.loc 1 735 29 discriminator 3 view .LVU1328
 735:C:/Users/²Ü¼ÒºÀ/.iotlink/sdk/IoT_LINK/iot_link/network/lwm2m/wakaama_lwm2m/wakaama-master/core\observe.c ****                             // Did we cross the lower threshold ?
 5055              		.loc 1 735 29 discriminator 3 view .LVU1329
 735:C:/Users/²Ü¼ÒºÀ/.iotlink/sdk/IoT_LINK/iot_link/network/lwm2m/wakaama_lwm2m/wakaama-master/core\observe.c ****                             // Did we cross the lower threshold ?
 5056              		.loc 1 735 29 discriminator 3 view .LVU1330
 737:C:/Users/²Ü¼ÒºÀ/.iotlink/sdk/IoT_LINK/iot_link/network/lwm2m/wakaama_lwm2m/wakaama-master/core\observe.c ****                             {
 5057              		.loc 1 737 29 discriminator 3 view .LVU1331
 737:C:/Users/²Ü¼ÒºÀ/.iotlink/sdk/IoT_LINK/iot_link/network/lwm2m/wakaama_lwm2m/wakaama-master/core\observe.c ****                             {
 5058              		.loc 1 737 42 is_stmt 0 discriminator 3 view .LVU1332
 5059 0616 149B     		ldr	r3, [sp, #80]
 5060 0618 EC68     		ldr	r4, [r5, #12]
 5061 061a 1B78     		ldrb	r3, [r3]	@ zero_extendqisi2
 737:C:/Users/²Ü¼ÒºÀ/.iotlink/sdk/IoT_LINK/iot_link/network/lwm2m/wakaama_lwm2m/wakaama-master/core\observe.c ****                             {
ARM GAS  C:\Users\²Ü¼ÒºÀ\AppData\Local\Temp\ccA6NNYh.s 			page 135


 5062              		.loc 1 737 29 discriminator 3 view .LVU1333
 5063 061c 062B     		cmp	r3, #6
 5064 061e 36D0     		beq	.L391
 737:C:/Users/²Ü¼ÒºÀ/.iotlink/sdk/IoT_LINK/iot_link/network/lwm2m/wakaama_lwm2m/wakaama-master/core\observe.c ****                             {
 5065              		.loc 1 737 29 view .LVU1334
 5066 0620 072B     		cmp	r3, #7
 5067 0622 7FF446AF 		bne	.L516
 750:C:/Users/²Ü¼ÒºÀ/.iotlink/sdk/IoT_LINK/iot_link/network/lwm2m/wakaama_lwm2m/wakaama-master/core\observe.c ****                                         && watcherP->lastValue.asFloat > watcherP->parameters->less
 5068              		.loc 1 750 33 is_stmt 1 view .LVU1335
 750:C:/Users/²Ü¼ÒºÀ/.iotlink/sdk/IoT_LINK/iot_link/network/lwm2m/wakaama_lwm2m/wakaama-master/core\observe.c ****                                         && watcherP->lastValue.asFloat > watcherP->parameters->less
 5069              		.loc 1 750 72 is_stmt 0 view .LVU1336
 5070 0626 D4E90667 		ldrd	r6, [r4, #24]
 750:C:/Users/²Ü¼ÒºÀ/.iotlink/sdk/IoT_LINK/iot_link/network/lwm2m/wakaama_lwm2m/wakaama-master/core\observe.c ****                                         && watcherP->lastValue.asFloat > watcherP->parameters->less
 5071              		.loc 1 750 49 view .LVU1337
 5072 062a DDE91689 		ldrd	r8, [sp, #88]
 750:C:/Users/²Ü¼ÒºÀ/.iotlink/sdk/IoT_LINK/iot_link/network/lwm2m/wakaama_lwm2m/wakaama-master/core\observe.c ****                                         && watcherP->lastValue.asFloat > watcherP->parameters->less
 5073              		.loc 1 750 36 view .LVU1338
 5074 062e 3046     		mov	r0, r6
 5075 0630 4246     		mov	r2, r8
 5076 0632 4B46     		mov	r3, r9
 5077 0634 3946     		mov	r1, r7
 5078 0636 FFF7FEFF 		bl	__aeabi_dcmpge
 5079              	.LVL537:
 5080 063a 30B1     		cbz	r0, .L400
 751:C:/Users/²Ü¼ÒºÀ/.iotlink/sdk/IoT_LINK/iot_link/network/lwm2m/wakaama_lwm2m/wakaama-master/core\observe.c ****                                         || (floatValue >= watcherP->parameters->lessThan
 5081              		.loc 1 751 41 view .LVU1339
 5082 063c D5E90C23 		ldrd	r2, [r5, #48]
 5083 0640 3046     		mov	r0, r6
 5084 0642 3946     		mov	r1, r7
 5085 0644 FFF7FEFF 		bl	__aeabi_dcmplt
 5086              	.LVL538:
 5087 0648 88B9     		cbnz	r0, .L402
 5088              	.L400:
 752:C:/Users/²Ü¼ÒºÀ/.iotlink/sdk/IoT_LINK/iot_link/network/lwm2m/wakaama_lwm2m/wakaama-master/core\observe.c ****                                             && watcherP->lastValue.asFloat < watcherP->parameters->
 5089              		.loc 1 752 41 view .LVU1340
 5090 064a 4246     		mov	r2, r8
 5091 064c 4B46     		mov	r3, r9
 5092 064e 3046     		mov	r0, r6
 5093 0650 3946     		mov	r1, r7
 5094 0652 FFF7FEFF 		bl	__aeabi_dcmple
 5095              	.LVL539:
 5096 0656 0028     		cmp	r0, #0
 5097 0658 3FF42BAF 		beq	.L516
 753:C:/Users/²Ü¼ÒºÀ/.iotlink/sdk/IoT_LINK/iot_link/network/lwm2m/wakaama_lwm2m/wakaama-master/core\observe.c ****                                 {
 5098              		.loc 1 753 45 view .LVU1341
 5099 065c D5E90C23 		ldrd	r2, [r5, #48]
 5100 0660 3046     		mov	r0, r6
 5101 0662 3946     		mov	r1, r7
 5102 0664 FFF7FEFF 		bl	__aeabi_dcmpgt
 5103              	.LVL540:
 5104 0668 0028     		cmp	r0, #0
 5105 066a 3FF422AF 		beq	.L516
 5106              	.L402:
 755:C:/Users/²Ü¼ÒºÀ/.iotlink/sdk/IoT_LINK/iot_link/network/lwm2m/wakaama_lwm2m/wakaama-master/core\observe.c ****                                     notify = true;
 5107              		.loc 1 755 37 is_stmt 1 view .LVU1342
 755:C:/Users/²Ü¼ÒºÀ/.iotlink/sdk/IoT_LINK/iot_link/network/lwm2m/wakaama_lwm2m/wakaama-master/core\observe.c ****                                     notify = true;
 5108              		.loc 1 755 37 view .LVU1343
ARM GAS  C:\Users\²Ü¼ÒºÀ\AppData\Local\Temp\ccA6NNYh.s 			page 136


 5109 066e FFF7FEFF 		bl	link_log_level_get
 5110              	.LVL541:
 5111 0672 0128     		cmp	r0, #1
 5112 0674 3DD8     		bhi	.L514
 755:C:/Users/²Ü¼ÒºÀ/.iotlink/sdk/IoT_LINK/iot_link/network/lwm2m/wakaama_lwm2m/wakaama-master/core\observe.c ****                                     notify = true;
 5113              		.loc 1 755 37 discriminator 1 view .LVU1344
 755:C:/Users/²Ü¼ÒºÀ/.iotlink/sdk/IoT_LINK/iot_link/network/lwm2m/wakaama_lwm2m/wakaama-master/core\observe.c ****                                     notify = true;
 5114              		.loc 1 755 37 discriminator 1 view .LVU1345
 755:C:/Users/²Ü¼ÒºÀ/.iotlink/sdk/IoT_LINK/iot_link/network/lwm2m/wakaama_lwm2m/wakaama-master/core\observe.c ****                                     notify = true;
 5115              		.loc 1 755 37 discriminator 1 view .LVU1346
 5116 0676 0120     		movs	r0, #1
 5117 0678 FFF7FEFF 		bl	link_log_level_name
 5118              	.LVL542:
 5119 067c 0446     		mov	r4, r0
 5120 067e FFF7FEFF 		bl	osal_sys_time
 5121              	.LVL543:
 5122 0682 1090     		str	r0, [sp, #64]
 5123 0684 FFF7FEFF 		bl	lwm2m_gettime
 5124              	.LVL544:
 5125 0688 40F2F323 		movw	r3, #755
 5126 068c 3EE0     		b	.L515
 5127              	.L391:
 740:C:/Users/²Ü¼ÒºÀ/.iotlink/sdk/IoT_LINK/iot_link/network/lwm2m/wakaama_lwm2m/wakaama-master/core\observe.c ****                                         && watcherP->lastValue.asInteger > watcherP->parameters->le
 5128              		.loc 1 740 33 view .LVU1347
 740:C:/Users/²Ü¼ÒºÀ/.iotlink/sdk/IoT_LINK/iot_link/network/lwm2m/wakaama_lwm2m/wakaama-master/core\observe.c ****                                         && watcherP->lastValue.asInteger > watcherP->parameters->le
 5129              		.loc 1 740 51 is_stmt 0 view .LVU1348
 5130 068e DDE91801 		ldrd	r0, [sp, #96]
 5131 0692 FFF7FEFF 		bl	__aeabi_l2d
 5132              	.LVL545:
 740:C:/Users/²Ü¼ÒºÀ/.iotlink/sdk/IoT_LINK/iot_link/network/lwm2m/wakaama_lwm2m/wakaama-master/core\observe.c ****                                         && watcherP->lastValue.asInteger > watcherP->parameters->le
 5133              		.loc 1 740 74 view .LVU1349
 5134 0696 D4E90667 		ldrd	r6, [r4, #24]
 740:C:/Users/²Ü¼ÒºÀ/.iotlink/sdk/IoT_LINK/iot_link/network/lwm2m/wakaama_lwm2m/wakaama-master/core\observe.c ****                                         && watcherP->lastValue.asInteger > watcherP->parameters->le
 5135              		.loc 1 740 36 view .LVU1350
 5136 069a 3246     		mov	r2, r6
 5137 069c 3B46     		mov	r3, r7
 740:C:/Users/²Ü¼ÒºÀ/.iotlink/sdk/IoT_LINK/iot_link/network/lwm2m/wakaama_lwm2m/wakaama-master/core\observe.c ****                                         && watcherP->lastValue.asInteger > watcherP->parameters->le
 5138              		.loc 1 740 51 view .LVU1351
 5139 069e 8046     		mov	r8, r0
 5140 06a0 8946     		mov	r9, r1
 740:C:/Users/²Ü¼ÒºÀ/.iotlink/sdk/IoT_LINK/iot_link/network/lwm2m/wakaama_lwm2m/wakaama-master/core\observe.c ****                                         && watcherP->lastValue.asInteger > watcherP->parameters->le
 5141              		.loc 1 740 36 view .LVU1352
 5142 06a2 FFF7FEFF 		bl	__aeabi_dcmple
 5143              	.LVL546:
 5144 06a6 50B1     		cbz	r0, .L393
 741:C:/Users/²Ü¼ÒºÀ/.iotlink/sdk/IoT_LINK/iot_link/network/lwm2m/wakaama_lwm2m/wakaama-master/core\observe.c ****                                         || (integerValue >= watcherP->parameters->lessThan
 5145              		.loc 1 741 74 view .LVU1353
 5146 06a8 D5E90C01 		ldrd	r0, [r5, #48]
 5147 06ac FFF7FEFF 		bl	__aeabi_l2d
 5148              	.LVL547:
 5149 06b0 0246     		mov	r2, r0
 5150 06b2 0B46     		mov	r3, r1
 741:C:/Users/²Ü¼ÒºÀ/.iotlink/sdk/IoT_LINK/iot_link/network/lwm2m/wakaama_lwm2m/wakaama-master/core\observe.c ****                                         || (integerValue >= watcherP->parameters->lessThan
 5151              		.loc 1 741 41 view .LVU1354
 5152 06b4 3046     		mov	r0, r6
 5153 06b6 3946     		mov	r1, r7
 5154 06b8 FFF7FEFF 		bl	__aeabi_dcmplt
ARM GAS  C:\Users\²Ü¼ÒºÀ\AppData\Local\Temp\ccA6NNYh.s 			page 137


 5155              	.LVL548:
 5156 06bc A8B9     		cbnz	r0, .L395
 5157              	.L393:
 742:C:/Users/²Ü¼ÒºÀ/.iotlink/sdk/IoT_LINK/iot_link/network/lwm2m/wakaama_lwm2m/wakaama-master/core\observe.c ****                                             && watcherP->lastValue.asInteger < watcherP->parameters
 5158              		.loc 1 742 41 view .LVU1355
 5159 06be 3246     		mov	r2, r6
 5160 06c0 3B46     		mov	r3, r7
 5161 06c2 4046     		mov	r0, r8
 5162 06c4 4946     		mov	r1, r9
 5163 06c6 FFF7FEFF 		bl	__aeabi_dcmpge
 5164              	.LVL549:
 5165 06ca 0028     		cmp	r0, #0
 5166 06cc 3FF4F1AE 		beq	.L516
 743:C:/Users/²Ü¼ÒºÀ/.iotlink/sdk/IoT_LINK/iot_link/network/lwm2m/wakaama_lwm2m/wakaama-master/core\observe.c ****                                 {
 5167              		.loc 1 743 78 view .LVU1356
 5168 06d0 D5E90C01 		ldrd	r0, [r5, #48]
 5169 06d4 FFF7FEFF 		bl	__aeabi_l2d
 5170              	.LVL550:
 5171 06d8 0246     		mov	r2, r0
 5172 06da 0B46     		mov	r3, r1
 743:C:/Users/²Ü¼ÒºÀ/.iotlink/sdk/IoT_LINK/iot_link/network/lwm2m/wakaama_lwm2m/wakaama-master/core\observe.c ****                                 {
 5173              		.loc 1 743 45 view .LVU1357
 5174 06dc 3046     		mov	r0, r6
 5175 06de 3946     		mov	r1, r7
 5176 06e0 FFF7FEFF 		bl	__aeabi_dcmpgt
 5177              	.LVL551:
 5178 06e4 0028     		cmp	r0, #0
 5179 06e6 3FF4E4AE 		beq	.L516
 5180              	.L395:
 745:C:/Users/²Ü¼ÒºÀ/.iotlink/sdk/IoT_LINK/iot_link/network/lwm2m/wakaama_lwm2m/wakaama-master/core\observe.c ****                                     notify = true;
 5181              		.loc 1 745 37 is_stmt 1 view .LVU1358
 745:C:/Users/²Ü¼ÒºÀ/.iotlink/sdk/IoT_LINK/iot_link/network/lwm2m/wakaama_lwm2m/wakaama-master/core\observe.c ****                                     notify = true;
 5182              		.loc 1 745 37 view .LVU1359
 5183 06ea FFF7FEFF 		bl	link_log_level_get
 5184              	.LVL552:
 5185 06ee 0128     		cmp	r0, #1
 5186 06f0 01D9     		bls	.L399
 5187              	.L514:
 756:C:/Users/²Ü¼ÒºÀ/.iotlink/sdk/IoT_LINK/iot_link/network/lwm2m/wakaama_lwm2m/wakaama-master/core\observe.c ****                                 }
 5188              		.loc 1 756 44 is_stmt 0 discriminator 1 view .LVU1360
 5189 06f2 059C     		ldr	r4, [sp, #20]
 5190 06f4 DEE6     		b	.L389
 5191              	.L399:
 745:C:/Users/²Ü¼ÒºÀ/.iotlink/sdk/IoT_LINK/iot_link/network/lwm2m/wakaama_lwm2m/wakaama-master/core\observe.c ****                                     notify = true;
 5192              		.loc 1 745 37 is_stmt 1 discriminator 1 view .LVU1361
 745:C:/Users/²Ü¼ÒºÀ/.iotlink/sdk/IoT_LINK/iot_link/network/lwm2m/wakaama_lwm2m/wakaama-master/core\observe.c ****                                     notify = true;
 5193              		.loc 1 745 37 discriminator 1 view .LVU1362
 745:C:/Users/²Ü¼ÒºÀ/.iotlink/sdk/IoT_LINK/iot_link/network/lwm2m/wakaama_lwm2m/wakaama-master/core\observe.c ****                                     notify = true;
 5194              		.loc 1 745 37 discriminator 1 view .LVU1363
 5195 06f6 0120     		movs	r0, #1
 5196 06f8 FFF7FEFF 		bl	link_log_level_name
 5197              	.LVL553:
 5198 06fc 0446     		mov	r4, r0
 5199 06fe FFF7FEFF 		bl	osal_sys_time
 5200              	.LVL554:
 5201 0702 1090     		str	r0, [sp, #64]
 5202 0704 FFF7FEFF 		bl	lwm2m_gettime
ARM GAS  C:\Users\²Ü¼ÒºÀ\AppData\Local\Temp\ccA6NNYh.s 			page 138


 5203              	.LVL555:
 5204 0708 40F2E923 		movw	r3, #745
 5205              	.L515:
 755:C:/Users/²Ü¼ÒºÀ/.iotlink/sdk/IoT_LINK/iot_link/network/lwm2m/wakaama_lwm2m/wakaama-master/core\observe.c ****                                     notify = true;
 5206              		.loc 1 755 37 is_stmt 0 discriminator 1 view .LVU1364
 5207 070c 0293     		str	r3, [sp, #8]
 5208 070e 2F4B     		ldr	r3, .L530
 5209 0710 109A     		ldr	r2, [sp, #64]
 5210 0712 CDE90003 		strd	r0, r3, [sp]
 5211 0716 2146     		mov	r1, r4
 5212 0718 5346     		mov	r3, r10
 5213 071a 3148     		ldr	r0, .L530+20
 5214 071c FFF7FEFF 		bl	printf
 5215              	.LVL556:
 755:C:/Users/²Ü¼ÒºÀ/.iotlink/sdk/IoT_LINK/iot_link/network/lwm2m/wakaama_lwm2m/wakaama-master/core\observe.c ****                                     notify = true;
 5216              		.loc 1 755 37 is_stmt 1 discriminator 1 view .LVU1365
 5217 0720 2C4B     		ldr	r3, .L530+8
 5218 0722 1B68     		ldr	r3, [r3]
 5219 0724 9868     		ldr	r0, [r3, #8]
 5220 0726 FFF7FEFF 		bl	fflush
 5221              	.LVL557:
 5222 072a E2E7     		b	.L514
 5223              	.LVL558:
 5224              	.L408:
 770:C:/Users/²Ü¼ÒºÀ/.iotlink/sdk/IoT_LINK/iot_link/network/lwm2m/wakaama_lwm2m/wakaama-master/core\observe.c ****                                         && watcherP->lastValue.asInteger > watcherP->parameters->gr
 5225              		.loc 1 770 33 view .LVU1366
 770:C:/Users/²Ü¼ÒºÀ/.iotlink/sdk/IoT_LINK/iot_link/network/lwm2m/wakaama_lwm2m/wakaama-master/core\observe.c ****                                         && watcherP->lastValue.asInteger > watcherP->parameters->gr
 5226              		.loc 1 770 51 is_stmt 0 view .LVU1367
 5227 072c DDE91801 		ldrd	r0, [sp, #96]
 5228 0730 FFF7FEFF 		bl	__aeabi_l2d
 5229              	.LVL559:
 770:C:/Users/²Ü¼ÒºÀ/.iotlink/sdk/IoT_LINK/iot_link/network/lwm2m/wakaama_lwm2m/wakaama-master/core\observe.c ****                                         && watcherP->lastValue.asInteger > watcherP->parameters->gr
 5230              		.loc 1 770 74 view .LVU1368
 5231 0734 D6E90467 		ldrd	r6, [r6, #16]
 770:C:/Users/²Ü¼ÒºÀ/.iotlink/sdk/IoT_LINK/iot_link/network/lwm2m/wakaama_lwm2m/wakaama-master/core\observe.c ****                                         && watcherP->lastValue.asInteger > watcherP->parameters->gr
 5232              		.loc 1 770 36 view .LVU1369
 5233 0738 3246     		mov	r2, r6
 5234 073a 3B46     		mov	r3, r7
 770:C:/Users/²Ü¼ÒºÀ/.iotlink/sdk/IoT_LINK/iot_link/network/lwm2m/wakaama_lwm2m/wakaama-master/core\observe.c ****                                         && watcherP->lastValue.asInteger > watcherP->parameters->gr
 5235              		.loc 1 770 51 view .LVU1370
 5236 073c 8046     		mov	r8, r0
 5237 073e 8946     		mov	r9, r1
 770:C:/Users/²Ü¼ÒºÀ/.iotlink/sdk/IoT_LINK/iot_link/network/lwm2m/wakaama_lwm2m/wakaama-master/core\observe.c ****                                         && watcherP->lastValue.asInteger > watcherP->parameters->gr
 5238              		.loc 1 770 36 view .LVU1371
 5239 0740 FFF7FEFF 		bl	__aeabi_dcmple
 5240              	.LVL560:
 5241 0744 50B1     		cbz	r0, .L410
 771:C:/Users/²Ü¼ÒºÀ/.iotlink/sdk/IoT_LINK/iot_link/network/lwm2m/wakaama_lwm2m/wakaama-master/core\observe.c ****                                         || (integerValue >= watcherP->parameters->greaterThan
 5242              		.loc 1 771 74 view .LVU1372
 5243 0746 D5E90C01 		ldrd	r0, [r5, #48]
 5244 074a FFF7FEFF 		bl	__aeabi_l2d
 5245              	.LVL561:
 5246 074e 0246     		mov	r2, r0
 5247 0750 0B46     		mov	r3, r1
 771:C:/Users/²Ü¼ÒºÀ/.iotlink/sdk/IoT_LINK/iot_link/network/lwm2m/wakaama_lwm2m/wakaama-master/core\observe.c ****                                         || (integerValue >= watcherP->parameters->greaterThan
 5248              		.loc 1 771 41 view .LVU1373
 5249 0752 3046     		mov	r0, r6
ARM GAS  C:\Users\²Ü¼ÒºÀ\AppData\Local\Temp\ccA6NNYh.s 			page 139


 5250 0754 3946     		mov	r1, r7
 5251 0756 FFF7FEFF 		bl	__aeabi_dcmplt
 5252              	.LVL562:
 5253 075a A8B9     		cbnz	r0, .L412
 5254              	.L410:
 772:C:/Users/²Ü¼ÒºÀ/.iotlink/sdk/IoT_LINK/iot_link/network/lwm2m/wakaama_lwm2m/wakaama-master/core\observe.c ****                                             && watcherP->lastValue.asInteger < watcherP->parameters
 5255              		.loc 1 772 41 view .LVU1374
 5256 075c 3246     		mov	r2, r6
 5257 075e 3B46     		mov	r3, r7
 5258 0760 4046     		mov	r0, r8
 5259 0762 4946     		mov	r1, r9
 5260 0764 FFF7FEFF 		bl	__aeabi_dcmpge
 5261              	.LVL563:
 5262 0768 0028     		cmp	r0, #0
 5263 076a 3FF4CEAE 		beq	.L406
 773:C:/Users/²Ü¼ÒºÀ/.iotlink/sdk/IoT_LINK/iot_link/network/lwm2m/wakaama_lwm2m/wakaama-master/core\observe.c ****                                 {
 5264              		.loc 1 773 78 view .LVU1375
 5265 076e D5E90C01 		ldrd	r0, [r5, #48]
 5266 0772 FFF7FEFF 		bl	__aeabi_l2d
 5267              	.LVL564:
 5268 0776 0246     		mov	r2, r0
 5269 0778 0B46     		mov	r3, r1
 773:C:/Users/²Ü¼ÒºÀ/.iotlink/sdk/IoT_LINK/iot_link/network/lwm2m/wakaama_lwm2m/wakaama-master/core\observe.c ****                                 {
 5270              		.loc 1 773 45 view .LVU1376
 5271 077a 3046     		mov	r0, r6
 5272 077c 3946     		mov	r1, r7
 5273 077e FFF7FEFF 		bl	__aeabi_dcmpgt
 5274              	.LVL565:
 5275 0782 0028     		cmp	r0, #0
 5276 0784 3FF4C1AE 		beq	.L406
 5277              	.L412:
 775:C:/Users/²Ü¼ÒºÀ/.iotlink/sdk/IoT_LINK/iot_link/network/lwm2m/wakaama_lwm2m/wakaama-master/core\observe.c ****                                     notify = true;
 5278              		.loc 1 775 37 is_stmt 1 view .LVU1377
 775:C:/Users/²Ü¼ÒºÀ/.iotlink/sdk/IoT_LINK/iot_link/network/lwm2m/wakaama_lwm2m/wakaama-master/core\observe.c ****                                     notify = true;
 5279              		.loc 1 775 37 view .LVU1378
 5280 0788 FFF7FEFF 		bl	link_log_level_get
 5281              	.LVL566:
 5282 078c 0128     		cmp	r0, #1
 5283 078e 01D9     		bls	.L415
 5284              	.LVL567:
 5285              	.L517:
 786:C:/Users/²Ü¼ÒºÀ/.iotlink/sdk/IoT_LINK/iot_link/network/lwm2m/wakaama_lwm2m/wakaama-master/core\observe.c ****                                 }
 5286              		.loc 1 786 44 is_stmt 0 discriminator 1 view .LVU1379
 5287 0790 059C     		ldr	r4, [sp, #20]
 5288 0792 BAE6     		b	.L406
 5289              	.LVL568:
 5290              	.L415:
 775:C:/Users/²Ü¼ÒºÀ/.iotlink/sdk/IoT_LINK/iot_link/network/lwm2m/wakaama_lwm2m/wakaama-master/core\observe.c ****                                     notify = true;
 5291              		.loc 1 775 37 is_stmt 1 discriminator 1 view .LVU1380
 775:C:/Users/²Ü¼ÒºÀ/.iotlink/sdk/IoT_LINK/iot_link/network/lwm2m/wakaama_lwm2m/wakaama-master/core\observe.c ****                                     notify = true;
 5292              		.loc 1 775 37 discriminator 1 view .LVU1381
 775:C:/Users/²Ü¼ÒºÀ/.iotlink/sdk/IoT_LINK/iot_link/network/lwm2m/wakaama_lwm2m/wakaama-master/core\observe.c ****                                     notify = true;
 5293              		.loc 1 775 37 discriminator 1 view .LVU1382
 5294 0794 0120     		movs	r0, #1
 5295 0796 FFF7FEFF 		bl	link_log_level_name
 5296              	.LVL569:
 5297 079a 0446     		mov	r4, r0
ARM GAS  C:\Users\²Ü¼ÒºÀ\AppData\Local\Temp\ccA6NNYh.s 			page 140


 5298              	.LVL570:
 775:C:/Users/²Ü¼ÒºÀ/.iotlink/sdk/IoT_LINK/iot_link/network/lwm2m/wakaama_lwm2m/wakaama-master/core\observe.c ****                                     notify = true;
 5299              		.loc 1 775 37 is_stmt 0 discriminator 1 view .LVU1383
 5300 079c FFF7FEFF 		bl	osal_sys_time
 5301              	.LVL571:
 5302 07a0 1090     		str	r0, [sp, #64]
 5303 07a2 FFF7FEFF 		bl	lwm2m_gettime
 5304              	.LVL572:
 5305 07a6 40F20733 		movw	r3, #775
 5306              	.L518:
 785:C:/Users/²Ü¼ÒºÀ/.iotlink/sdk/IoT_LINK/iot_link/network/lwm2m/wakaama_lwm2m/wakaama-master/core\observe.c ****                                     notify = true;
 5307              		.loc 1 785 37 discriminator 1 view .LVU1384
 5308 07aa 0293     		str	r3, [sp, #8]
 5309 07ac 074B     		ldr	r3, .L530
 5310 07ae 109A     		ldr	r2, [sp, #64]
 5311 07b0 CDE90003 		strd	r0, r3, [sp]
 5312 07b4 2146     		mov	r1, r4
 5313 07b6 5346     		mov	r3, r10
 5314 07b8 0A48     		ldr	r0, .L530+24
 5315 07ba FFF7FEFF 		bl	printf
 5316              	.LVL573:
 785:C:/Users/²Ü¼ÒºÀ/.iotlink/sdk/IoT_LINK/iot_link/network/lwm2m/wakaama_lwm2m/wakaama-master/core\observe.c ****                                     notify = true;
 5317              		.loc 1 785 37 is_stmt 1 discriminator 1 view .LVU1385
 5318 07be 054B     		ldr	r3, .L530+8
 5319 07c0 1B68     		ldr	r3, [r3]
 5320 07c2 9868     		ldr	r0, [r3, #8]
 5321 07c4 FFF7FEFF 		bl	fflush
 5322              	.LVL574:
 5323 07c8 E2E7     		b	.L517
 5324              	.L531:
 5325 07ca 00BF     		.align	2
 5326              	.L530:
 5327 07cc 00000000 		.word	.LANCHOR18
 5328 07d0 AD000000 		.word	.LC37
 5329 07d4 00000000 		.word	_impure_ptr
 5330 07d8 1F010000 		.word	.LC39
 5331 07dc 37000000 		.word	.LC35
 5332 07e0 6D000000 		.word	.LC36
 5333 07e4 E3000000 		.word	.LC38
 5334              	.LVL575:
 5335              	.L409:
 780:C:/Users/²Ü¼ÒºÀ/.iotlink/sdk/IoT_LINK/iot_link/network/lwm2m/wakaama_lwm2m/wakaama-master/core\observe.c ****                                         && watcherP->lastValue.asFloat > watcherP->parameters->grea
 5336              		.loc 1 780 33 view .LVU1386
 780:C:/Users/²Ü¼ÒºÀ/.iotlink/sdk/IoT_LINK/iot_link/network/lwm2m/wakaama_lwm2m/wakaama-master/core\observe.c ****                                         && watcherP->lastValue.asFloat > watcherP->parameters->grea
 5337              		.loc 1 780 72 is_stmt 0 view .LVU1387
 5338 07e8 D6E90467 		ldrd	r6, [r6, #16]
 780:C:/Users/²Ü¼ÒºÀ/.iotlink/sdk/IoT_LINK/iot_link/network/lwm2m/wakaama_lwm2m/wakaama-master/core\observe.c ****                                         && watcherP->lastValue.asFloat > watcherP->parameters->grea
 5339              		.loc 1 780 49 view .LVU1388
 5340 07ec DDE91689 		ldrd	r8, [sp, #88]
 780:C:/Users/²Ü¼ÒºÀ/.iotlink/sdk/IoT_LINK/iot_link/network/lwm2m/wakaama_lwm2m/wakaama-master/core\observe.c ****                                         && watcherP->lastValue.asFloat > watcherP->parameters->grea
 5341              		.loc 1 780 36 view .LVU1389
 5342 07f0 3046     		mov	r0, r6
 5343 07f2 4246     		mov	r2, r8
 5344 07f4 4B46     		mov	r3, r9
 5345 07f6 3946     		mov	r1, r7
 5346 07f8 FFF7FEFF 		bl	__aeabi_dcmpge
 5347              	.LVL576:
ARM GAS  C:\Users\²Ü¼ÒºÀ\AppData\Local\Temp\ccA6NNYh.s 			page 141


 5348 07fc 30B1     		cbz	r0, .L416
 781:C:/Users/²Ü¼ÒºÀ/.iotlink/sdk/IoT_LINK/iot_link/network/lwm2m/wakaama_lwm2m/wakaama-master/core\observe.c ****                                         || (floatValue >= watcherP->parameters->greaterThan
 5349              		.loc 1 781 41 view .LVU1390
 5350 07fe D5E90C23 		ldrd	r2, [r5, #48]
 5351 0802 3046     		mov	r0, r6
 5352 0804 3946     		mov	r1, r7
 5353 0806 FFF7FEFF 		bl	__aeabi_dcmplt
 5354              	.LVL577:
 5355 080a 88B9     		cbnz	r0, .L418
 5356              	.L416:
 782:C:/Users/²Ü¼ÒºÀ/.iotlink/sdk/IoT_LINK/iot_link/network/lwm2m/wakaama_lwm2m/wakaama-master/core\observe.c ****                                             && watcherP->lastValue.asFloat < watcherP->parameters->
 5357              		.loc 1 782 41 view .LVU1391
 5358 080c 4246     		mov	r2, r8
 5359 080e 4B46     		mov	r3, r9
 5360 0810 3046     		mov	r0, r6
 5361 0812 3946     		mov	r1, r7
 5362 0814 FFF7FEFF 		bl	__aeabi_dcmple
 5363              	.LVL578:
 5364 0818 0028     		cmp	r0, #0
 5365 081a 3FF476AE 		beq	.L406
 783:C:/Users/²Ü¼ÒºÀ/.iotlink/sdk/IoT_LINK/iot_link/network/lwm2m/wakaama_lwm2m/wakaama-master/core\observe.c ****                                 {
 5366              		.loc 1 783 45 view .LVU1392
 5367 081e D5E90C23 		ldrd	r2, [r5, #48]
 5368 0822 3046     		mov	r0, r6
 5369 0824 3946     		mov	r1, r7
 5370 0826 FFF7FEFF 		bl	__aeabi_dcmpgt
 5371              	.LVL579:
 5372 082a 0028     		cmp	r0, #0
 5373 082c 3FF46DAE 		beq	.L406
 5374              	.L418:
 785:C:/Users/²Ü¼ÒºÀ/.iotlink/sdk/IoT_LINK/iot_link/network/lwm2m/wakaama_lwm2m/wakaama-master/core\observe.c ****                                     notify = true;
 5375              		.loc 1 785 37 is_stmt 1 view .LVU1393
 785:C:/Users/²Ü¼ÒºÀ/.iotlink/sdk/IoT_LINK/iot_link/network/lwm2m/wakaama_lwm2m/wakaama-master/core\observe.c ****                                     notify = true;
 5376              		.loc 1 785 37 view .LVU1394
 5377 0830 FFF7FEFF 		bl	link_log_level_get
 5378              	.LVL580:
 5379 0834 0128     		cmp	r0, #1
 5380 0836 ABD8     		bhi	.L517
 785:C:/Users/²Ü¼ÒºÀ/.iotlink/sdk/IoT_LINK/iot_link/network/lwm2m/wakaama_lwm2m/wakaama-master/core\observe.c ****                                     notify = true;
 5381              		.loc 1 785 37 discriminator 1 view .LVU1395
 785:C:/Users/²Ü¼ÒºÀ/.iotlink/sdk/IoT_LINK/iot_link/network/lwm2m/wakaama_lwm2m/wakaama-master/core\observe.c ****                                     notify = true;
 5382              		.loc 1 785 37 discriminator 1 view .LVU1396
 785:C:/Users/²Ü¼ÒºÀ/.iotlink/sdk/IoT_LINK/iot_link/network/lwm2m/wakaama_lwm2m/wakaama-master/core\observe.c ****                                     notify = true;
 5383              		.loc 1 785 37 discriminator 1 view .LVU1397
 5384 0838 0120     		movs	r0, #1
 5385 083a FFF7FEFF 		bl	link_log_level_name
 5386              	.LVL581:
 5387 083e 0446     		mov	r4, r0
 5388              	.LVL582:
 785:C:/Users/²Ü¼ÒºÀ/.iotlink/sdk/IoT_LINK/iot_link/network/lwm2m/wakaama_lwm2m/wakaama-master/core\observe.c ****                                     notify = true;
 5389              		.loc 1 785 37 is_stmt 0 discriminator 1 view .LVU1398
 5390 0840 FFF7FEFF 		bl	osal_sys_time
 5391              	.LVL583:
 5392 0844 1090     		str	r0, [sp, #64]
 5393 0846 FFF7FEFF 		bl	lwm2m_gettime
 5394              	.LVL584:
 5395 084a 40F21133 		movw	r3, #785
ARM GAS  C:\Users\²Ü¼ÒºÀ\AppData\Local\Temp\ccA6NNYh.s 			page 142


 5396 084e ACE7     		b	.L518
 5397              	.LVL585:
 5398              	.L423:
 5399              	.LBB45:
 801:C:/Users/²Ü¼ÒºÀ/.iotlink/sdk/IoT_LINK/iot_link/network/lwm2m/wakaama_lwm2m/wakaama-master/core\observe.c **** 
 5400              		.loc 1 801 33 is_stmt 1 view .LVU1399
 803:C:/Users/²Ü¼ÒºÀ/.iotlink/sdk/IoT_LINK/iot_link/network/lwm2m/wakaama_lwm2m/wakaama-master/core\observe.c ****                                 if ((diff < 0 && (0 - diff) >= watcherP->parameters->step)
 5401              		.loc 1 803 33 view .LVU1400
 803:C:/Users/²Ü¼ÒºÀ/.iotlink/sdk/IoT_LINK/iot_link/network/lwm2m/wakaama_lwm2m/wakaama-master/core\observe.c ****                                 if ((diff < 0 && (0 - diff) >= watcherP->parameters->step)
 5402              		.loc 1 803 53 is_stmt 0 view .LVU1401
 5403 0850 DDE91801 		ldrd	r0, r1, [sp, #96]
 803:C:/Users/²Ü¼ÒºÀ/.iotlink/sdk/IoT_LINK/iot_link/network/lwm2m/wakaama_lwm2m/wakaama-master/core\observe.c ****                                 if ((diff < 0 && (0 - diff) >= watcherP->parameters->step)
 5404              		.loc 1 803 74 view .LVU1402
 5405 0854 D5E90C76 		ldrd	r7, r6, [r5, #48]
 803:C:/Users/²Ü¼ÒºÀ/.iotlink/sdk/IoT_LINK/iot_link/network/lwm2m/wakaama_lwm2m/wakaama-master/core\observe.c ****                                 if ((diff < 0 && (0 - diff) >= watcherP->parameters->step)
 5406              		.loc 1 803 38 view .LVU1403
 5407 0858 C31B     		subs	r3, r0, r7
 5408 085a 0A93     		str	r3, [sp, #40]
 5409 085c 61EB0603 		sbc	r3, r1, r6
 5410 0860 0B93     		str	r3, [sp, #44]
 5411              	.LVL586:
 804:C:/Users/²Ü¼ÒºÀ/.iotlink/sdk/IoT_LINK/iot_link/network/lwm2m/wakaama_lwm2m/wakaama-master/core\observe.c ****                                         || (diff >= 0 && diff >= watcherP->parameters->step))
 5412              		.loc 1 804 33 is_stmt 1 view .LVU1404
 5413 0862 D8E90823 		ldrd	r2, [r8, #32]
 804:C:/Users/²Ü¼ÒºÀ/.iotlink/sdk/IoT_LINK/iot_link/network/lwm2m/wakaama_lwm2m/wakaama-master/core\observe.c ****                                         || (diff >= 0 && diff >= watcherP->parameters->step))
 5414              		.loc 1 804 36 is_stmt 0 view .LVU1405
 5415 0866 DDE90A89 		ldrd	r8, [sp, #40]
 5416 086a B8F1000F 		cmp	r8, #0
 5417 086e 79F1000C 		sbcs	ip, r9, #0
 5418 0872 CDE91023 		strd	r2, [sp, #64]
 5419 0876 26DA     		bge	.L425
 804:C:/Users/²Ü¼ÒºÀ/.iotlink/sdk/IoT_LINK/iot_link/network/lwm2m/wakaama_lwm2m/wakaama-master/core\observe.c ****                                         || (diff >= 0 && diff >= watcherP->parameters->step))
 5420              		.loc 1 804 61 discriminator 1 view .LVU1406
 5421 0878 381A     		subs	r0, r7, r0
 5422 087a 66EB0101 		sbc	r1, r6, r1
 5423              	.L519:
 805:C:/Users/²Ü¼ÒºÀ/.iotlink/sdk/IoT_LINK/iot_link/network/lwm2m/wakaama_lwm2m/wakaama-master/core\observe.c ****                                 {
 5424              		.loc 1 805 63 discriminator 1 view .LVU1407
 5425 087e FFF7FEFF 		bl	__aeabi_l2d
 5426              	.LVL587:
 805:C:/Users/²Ü¼ÒºÀ/.iotlink/sdk/IoT_LINK/iot_link/network/lwm2m/wakaama_lwm2m/wakaama-master/core\observe.c ****                                 {
 5427              		.loc 1 805 55 discriminator 1 view .LVU1408
 5428 0882 DDE91023 		ldrd	r2, [sp, #64]
 5429 0886 FFF7FEFF 		bl	__aeabi_dcmpge
 5430              	.LVL588:
 5431 088a 0028     		cmp	r0, #0
 5432 088c 3FF4C2AC 		beq	.L378
 807:C:/Users/²Ü¼ÒºÀ/.iotlink/sdk/IoT_LINK/iot_link/network/lwm2m/wakaama_lwm2m/wakaama-master/core\observe.c ****                                     notify = true;
 5433              		.loc 1 807 37 is_stmt 1 view .LVU1409
 807:C:/Users/²Ü¼ÒºÀ/.iotlink/sdk/IoT_LINK/iot_link/network/lwm2m/wakaama_lwm2m/wakaama-master/core\observe.c ****                                     notify = true;
 5434              		.loc 1 807 37 view .LVU1410
 5435 0890 FFF7FEFF 		bl	link_log_level_get
 5436              	.LVL589:
 5437 0894 0128     		cmp	r0, #1
 5438 0896 3FF6E1AD 		bhi	.L520
 807:C:/Users/²Ü¼ÒºÀ/.iotlink/sdk/IoT_LINK/iot_link/network/lwm2m/wakaama_lwm2m/wakaama-master/core\observe.c ****                                     notify = true;
 5439              		.loc 1 807 37 discriminator 1 view .LVU1411
ARM GAS  C:\Users\²Ü¼ÒºÀ\AppData\Local\Temp\ccA6NNYh.s 			page 143


 807:C:/Users/²Ü¼ÒºÀ/.iotlink/sdk/IoT_LINK/iot_link/network/lwm2m/wakaama_lwm2m/wakaama-master/core\observe.c ****                                     notify = true;
 5440              		.loc 1 807 37 discriminator 1 view .LVU1412
 807:C:/Users/²Ü¼ÒºÀ/.iotlink/sdk/IoT_LINK/iot_link/network/lwm2m/wakaama_lwm2m/wakaama-master/core\observe.c ****                                     notify = true;
 5441              		.loc 1 807 37 discriminator 1 view .LVU1413
 5442 089a 0120     		movs	r0, #1
 5443 089c FFF7FEFF 		bl	link_log_level_name
 5444              	.LVL590:
 5445 08a0 0446     		mov	r4, r0
 5446              	.LVL591:
 807:C:/Users/²Ü¼ÒºÀ/.iotlink/sdk/IoT_LINK/iot_link/network/lwm2m/wakaama_lwm2m/wakaama-master/core\observe.c ****                                     notify = true;
 5447              		.loc 1 807 37 is_stmt 0 discriminator 1 view .LVU1414
 5448 08a2 FFF7FEFF 		bl	osal_sys_time
 5449              	.LVL592:
 5450 08a6 1090     		str	r0, [sp, #64]
 5451 08a8 FFF7FEFF 		bl	lwm2m_gettime
 5452              	.LVL593:
 5453 08ac 40F22733 		movw	r3, #807
 5454              	.LVL594:
 5455              	.L521:
 807:C:/Users/²Ü¼ÒºÀ/.iotlink/sdk/IoT_LINK/iot_link/network/lwm2m/wakaama_lwm2m/wakaama-master/core\observe.c ****                                     notify = true;
 5456              		.loc 1 807 37 discriminator 1 view .LVU1415
 5457              	.LBE45:
 5458              	.LBB46:
 820:C:/Users/²Ü¼ÒºÀ/.iotlink/sdk/IoT_LINK/iot_link/network/lwm2m/wakaama_lwm2m/wakaama-master/core\observe.c ****                                     notify = true;
 5459              		.loc 1 820 37 discriminator 1 view .LVU1416
 5460 08b0 0293     		str	r3, [sp, #8]
 5461 08b2 7C4B     		ldr	r3, .L532
 5462 08b4 109A     		ldr	r2, [sp, #64]
 5463 08b6 CDE90003 		strd	r0, r3, [sp]
 5464 08ba 2146     		mov	r1, r4
 5465 08bc 5346     		mov	r3, r10
 5466 08be 7A48     		ldr	r0, .L532+4
 5467 08c0 FFF7FEFF 		bl	printf
 5468              	.LVL595:
 5469 08c4 D8E5     		b	.L522
 5470              	.LVL596:
 5471              	.L425:
 820:C:/Users/²Ü¼ÒºÀ/.iotlink/sdk/IoT_LINK/iot_link/network/lwm2m/wakaama_lwm2m/wakaama-master/core\observe.c ****                                     notify = true;
 5472              		.loc 1 820 37 discriminator 1 view .LVU1417
 5473              	.LBE46:
 5474              	.LBB47:
 805:C:/Users/²Ü¼ÒºÀ/.iotlink/sdk/IoT_LINK/iot_link/network/lwm2m/wakaama_lwm2m/wakaama-master/core\observe.c ****                                 {
 5475              		.loc 1 805 63 discriminator 1 view .LVU1418
 5476 08c6 DDE90A01 		ldrd	r0, [sp, #40]
 5477 08ca D8E7     		b	.L519
 5478              	.LVL597:
 5479              	.L436:
 805:C:/Users/²Ü¼ÒºÀ/.iotlink/sdk/IoT_LINK/iot_link/network/lwm2m/wakaama_lwm2m/wakaama-master/core\observe.c ****                                 {
 5480              		.loc 1 805 63 discriminator 1 view .LVU1419
 5481              	.LBE47:
 845:C:/Users/²Ü¼ÒºÀ/.iotlink/sdk/IoT_LINK/iot_link/network/lwm2m/wakaama_lwm2m/wakaama-master/core\observe.c ****                             notify = true;
 5482              		.loc 1 845 29 is_stmt 1 view .LVU1420
 845:C:/Users/²Ü¼ÒºÀ/.iotlink/sdk/IoT_LINK/iot_link/network/lwm2m/wakaama_lwm2m/wakaama-master/core\observe.c ****                             notify = true;
 5483              		.loc 1 845 29 view .LVU1421
 5484 08cc FFF7FEFF 		bl	link_log_level_get
 5485              	.LVL598:
 5486 08d0 0128     		cmp	r0, #1
ARM GAS  C:\Users\²Ü¼ÒºÀ\AppData\Local\Temp\ccA6NNYh.s 			page 144


 5487 08d2 1DD8     		bhi	.L439
 845:C:/Users/²Ü¼ÒºÀ/.iotlink/sdk/IoT_LINK/iot_link/network/lwm2m/wakaama_lwm2m/wakaama-master/core\observe.c ****                             notify = true;
 5488              		.loc 1 845 29 discriminator 1 view .LVU1422
 845:C:/Users/²Ü¼ÒºÀ/.iotlink/sdk/IoT_LINK/iot_link/network/lwm2m/wakaama_lwm2m/wakaama-master/core\observe.c ****                             notify = true;
 5489              		.loc 1 845 29 discriminator 1 view .LVU1423
 845:C:/Users/²Ü¼ÒºÀ/.iotlink/sdk/IoT_LINK/iot_link/network/lwm2m/wakaama_lwm2m/wakaama-master/core\observe.c ****                             notify = true;
 5490              		.loc 1 845 29 discriminator 1 view .LVU1424
 5491 08d4 0120     		movs	r0, #1
 5492 08d6 FFF7FEFF 		bl	link_log_level_name
 5493              	.LVL599:
 5494 08da 0446     		mov	r4, r0
 5495 08dc FFF7FEFF 		bl	osal_sys_time
 5496              	.LVL600:
 5497 08e0 0590     		str	r0, [sp, #20]
 5498 08e2 FFF7FEFF 		bl	lwm2m_gettime
 5499              	.LVL601:
 5500 08e6 40F24D33 		movw	r3, #845
 5501 08ea 0293     		str	r3, [sp, #8]
 5502 08ec 6D4B     		ldr	r3, .L532
 5503 08ee 059A     		ldr	r2, [sp, #20]
 5504 08f0 CDE90003 		strd	r0, r3, [sp]
 5505 08f4 6D48     		ldr	r0, .L532+8
 5506 08f6 5346     		mov	r3, r10
 5507 08f8 2146     		mov	r1, r4
 5508              	.L523:
 860:C:/Users/²Ü¼ÒºÀ/.iotlink/sdk/IoT_LINK/iot_link/network/lwm2m/wakaama_lwm2m/wakaama-master/core\observe.c ****                         notify = true;
 5509              		.loc 1 860 25 is_stmt 0 discriminator 1 view .LVU1425
 5510 08fa FFF7FEFF 		bl	printf
 5511              	.LVL602:
 860:C:/Users/²Ü¼ÒºÀ/.iotlink/sdk/IoT_LINK/iot_link/network/lwm2m/wakaama_lwm2m/wakaama-master/core\observe.c ****                         notify = true;
 5512              		.loc 1 860 25 is_stmt 1 discriminator 1 view .LVU1426
 5513 08fe 6C4B     		ldr	r3, .L532+12
 5514 0900 1B68     		ldr	r3, [r3]
 5515 0902 9868     		ldr	r0, [r3, #8]
 5516 0904 FFF7FEFF 		bl	fflush
 5517              	.LVL603:
 5518 0908 02E0     		b	.L439
 5519              	.LVL604:
 5520              	.L434:
 852:C:/Users/²Ü¼ÒºÀ/.iotlink/sdk/IoT_LINK/iot_link/network/lwm2m/wakaama_lwm2m/wakaama-master/core\observe.c ****                         && watcherP->parameters != NULL
 5521              		.loc 1 852 17 view .LVU1427
 852:C:/Users/²Ü¼ÒºÀ/.iotlink/sdk/IoT_LINK/iot_link/network/lwm2m/wakaama_lwm2m/wakaama-master/core\observe.c ****                         && watcherP->parameters != NULL
 5522              		.loc 1 852 20 is_stmt 0 view .LVU1428
 5523 090a 002C     		cmp	r4, #0
 5524 090c 3FF4CEAC 		beq	.L375
 5525              	.LVL605:
 5526              	.L439:
 867:C:/Users/²Ü¼ÒºÀ/.iotlink/sdk/IoT_LINK/iot_link/network/lwm2m/wakaama_lwm2m/wakaama-master/core\observe.c ****                     {
 5527              		.loc 1 867 21 is_stmt 1 view .LVU1429
 867:C:/Users/²Ü¼ÒºÀ/.iotlink/sdk/IoT_LINK/iot_link/network/lwm2m/wakaama_lwm2m/wakaama-master/core\observe.c ****                     {
 5528              		.loc 1 867 24 is_stmt 0 view .LVU1430
 5529 0910 129B     		ldr	r3, [sp, #72]
 5530 0912 002B     		cmp	r3, #0
 5531 0914 43D1     		bne	.L446
 869:C:/Users/²Ü¼ÒºÀ/.iotlink/sdk/IoT_LINK/iot_link/network/lwm2m/wakaama_lwm2m/wakaama-master/core\observe.c ****                         {
 5532              		.loc 1 869 25 is_stmt 1 view .LVU1431
 869:C:/Users/²Ü¼ÒºÀ/.iotlink/sdk/IoT_LINK/iot_link/network/lwm2m/wakaama_lwm2m/wakaama-master/core\observe.c ****                         {
ARM GAS  C:\Users\²Ü¼ÒºÀ\AppData\Local\Temp\ccA6NNYh.s 			page 145


 5533              		.loc 1 869 35 is_stmt 0 view .LVU1432
 5534 0916 149C     		ldr	r4, [sp, #80]
 5535 0918 05F11002 		add	r2, r5, #16
 5536 091c 12AB     		add	r3, sp, #72
 869:C:/Users/²Ü¼ÒºÀ/.iotlink/sdk/IoT_LINK/iot_link/network/lwm2m/wakaama_lwm2m/wakaama-master/core\observe.c ****                         {
 5537              		.loc 1 869 28 view .LVU1433
 5538 091e 002C     		cmp	r4, #0
 5539 0920 00F09480 		beq	.L447
 5540              	.LBB48:
 871:C:/Users/²Ü¼ÒºÀ/.iotlink/sdk/IoT_LINK/iot_link/network/lwm2m/wakaama_lwm2m/wakaama-master/core\observe.c **** 
 5541              		.loc 1 871 29 is_stmt 1 view .LVU1434
 873:C:/Users/²Ü¼ÒºÀ/.iotlink/sdk/IoT_LINK/iot_link/network/lwm2m/wakaama_lwm2m/wakaama-master/core\observe.c ****                             if (res < 0)
 5542              		.loc 1 873 29 view .LVU1435
 873:C:/Users/²Ü¼ÒºÀ/.iotlink/sdk/IoT_LINK/iot_link/network/lwm2m/wakaama_lwm2m/wakaama-master/core\observe.c ****                             if (res < 0)
 5543              		.loc 1 873 35 is_stmt 0 view .LVU1436
 5544 0924 0093     		str	r3, [sp]
 5545 0926 1599     		ldr	r1, [sp, #84]
 5546 0928 1346     		mov	r3, r2
 5547 092a 18EE100A 		vmov	r0, s16	@ int
 5548 092e 2246     		mov	r2, r4
 5549 0930 FFF7FEFF 		bl	lwm2m_data_serialize
 5550              	.LVL606:
 874:C:/Users/²Ü¼ÒºÀ/.iotlink/sdk/IoT_LINK/iot_link/network/lwm2m/wakaama_lwm2m/wakaama-master/core\observe.c ****                             {
 5551              		.loc 1 874 29 is_stmt 1 view .LVU1437
 874:C:/Users/²Ü¼ÒºÀ/.iotlink/sdk/IoT_LINK/iot_link/network/lwm2m/wakaama_lwm2m/wakaama-master/core\observe.c ****                             {
 5552              		.loc 1 874 32 is_stmt 0 view .LVU1438
 5553 0934 0028     		cmp	r0, #0
 874:C:/Users/²Ü¼ÒºÀ/.iotlink/sdk/IoT_LINK/iot_link/network/lwm2m/wakaama_lwm2m/wakaama-master/core\observe.c ****                             {
 5554              		.loc 1 874 32 view .LVU1439
 5555 0936 C0F29580 		blt	.L449
 880:C:/Users/²Ü¼ÒºÀ/.iotlink/sdk/IoT_LINK/iot_link/network/lwm2m/wakaama_lwm2m/wakaama-master/core\observe.c ****                             }
 5556              		.loc 1 880 33 is_stmt 1 view .LVU1440
 880:C:/Users/²Ü¼ÒºÀ/.iotlink/sdk/IoT_LINK/iot_link/network/lwm2m/wakaama_lwm2m/wakaama-master/core\observe.c ****                             }
 5557              		.loc 1 880 40 is_stmt 0 view .LVU1441
 5558 093a 1390     		str	r0, [sp, #76]
 5559              	.LVL607:
 5560              	.L450:
 880:C:/Users/²Ü¼ÒºÀ/.iotlink/sdk/IoT_LINK/iot_link/network/lwm2m/wakaama_lwm2m/wakaama-master/core\observe.c ****                             }
 5561              		.loc 1 880 40 view .LVU1442
 5562              	.LBE48:
 893:C:/Users/²Ü¼ÒºÀ/.iotlink/sdk/IoT_LINK/iot_link/network/lwm2m/wakaama_lwm2m/wakaama-master/core\observe.c ****                         {
 5563              		.loc 1 893 25 is_stmt 1 view .LVU1443
 893:C:/Users/²Ü¼ÒºÀ/.iotlink/sdk/IoT_LINK/iot_link/network/lwm2m/wakaama_lwm2m/wakaama-master/core\observe.c ****                         {
 5564              		.loc 1 893 27 is_stmt 0 view .LVU1444
 5565 093c 1C9B     		ldr	r3, [sp, #112]
 5566 093e 73BB     		cbnz	r3, .L446
 895:C:/Users/²Ü¼ÒºÀ/.iotlink/sdk/IoT_LINK/iot_link/network/lwm2m/wakaama_lwm2m/wakaama-master/core\observe.c ****                             coap_set_header_content_type(message, watcherP->format);
 5567              		.loc 1 895 29 is_stmt 1 view .LVU1445
 5568 0940 4522     		movs	r2, #69
 5569 0942 0121     		movs	r1, #1
 5570 0944 1DA8     		add	r0, sp, #116
 5571 0946 FFF7FEFF 		bl	coap_init_message
 5572              	.LVL608:
 896:C:/Users/²Ü¼ÒºÀ/.iotlink/sdk/IoT_LINK/iot_link/network/lwm2m/wakaama_lwm2m/wakaama-master/core\observe.c ****                             coap_set_payload(message, buffer, length);
 5573              		.loc 1 896 29 view .LVU1446
 5574 094a 298A     		ldrh	r1, [r5, #16]
 5575 094c 1DA8     		add	r0, sp, #116
ARM GAS  C:\Users\²Ü¼ÒºÀ\AppData\Local\Temp\ccA6NNYh.s 			page 146


 5576 094e FFF7FEFF 		bl	coap_set_header_content_type
 5577              	.LVL609:
 897:C:/Users/²Ü¼ÒºÀ/.iotlink/sdk/IoT_LINK/iot_link/network/lwm2m/wakaama_lwm2m/wakaama-master/core\observe.c ****                             LOG_ARG("non observe, msgid:%d", (int)message->mid);
 5578              		.loc 1 897 29 view .LVU1447
 5579 0952 DDE91212 		ldrd	r1, r2, [sp, #72]
 5580 0956 1DA8     		add	r0, sp, #116
 5581 0958 FFF7FEFF 		bl	coap_set_payload
 5582              	.LVL610:
 898:C:/Users/²Ü¼ÒºÀ/.iotlink/sdk/IoT_LINK/iot_link/network/lwm2m/wakaama_lwm2m/wakaama-master/core\observe.c ****                         }
 5583              		.loc 1 898 29 view .LVU1448
 898:C:/Users/²Ü¼ÒºÀ/.iotlink/sdk/IoT_LINK/iot_link/network/lwm2m/wakaama_lwm2m/wakaama-master/core\observe.c ****                         }
 5584              		.loc 1 898 29 view .LVU1449
 5585 095c FFF7FEFF 		bl	link_log_level_get
 5586              	.LVL611:
 5587 0960 0128     		cmp	r0, #1
 5588 0962 1CD8     		bhi	.L446
 898:C:/Users/²Ü¼ÒºÀ/.iotlink/sdk/IoT_LINK/iot_link/network/lwm2m/wakaama_lwm2m/wakaama-master/core\observe.c ****                         }
 5589              		.loc 1 898 29 discriminator 1 view .LVU1450
 898:C:/Users/²Ü¼ÒºÀ/.iotlink/sdk/IoT_LINK/iot_link/network/lwm2m/wakaama_lwm2m/wakaama-master/core\observe.c ****                         }
 5590              		.loc 1 898 29 discriminator 1 view .LVU1451
 898:C:/Users/²Ü¼ÒºÀ/.iotlink/sdk/IoT_LINK/iot_link/network/lwm2m/wakaama_lwm2m/wakaama-master/core\observe.c ****                         }
 5591              		.loc 1 898 29 discriminator 1 view .LVU1452
 5592 0964 0120     		movs	r0, #1
 5593 0966 FFF7FEFF 		bl	link_log_level_name
 5594              	.LVL612:
 5595 096a 0446     		mov	r4, r0
 5596 096c FFF7FEFF 		bl	osal_sys_time
 5597              	.LVL613:
 5598 0970 0590     		str	r0, [sp, #20]
 5599 0972 FFF7FEFF 		bl	lwm2m_gettime
 5600              	.LVL614:
 5601 0976 BDF87C30 		ldrh	r3, [sp, #124]
 5602 097a 0393     		str	r3, [sp, #12]
 5603 097c 40F28233 		movw	r3, #898
 5604 0980 0293     		str	r3, [sp, #8]
 5605 0982 484B     		ldr	r3, .L532
 5606 0984 059A     		ldr	r2, [sp, #20]
 5607 0986 CDE90003 		strd	r0, r3, [sp]
 5608 098a 2146     		mov	r1, r4
 5609 098c 5346     		mov	r3, r10
 5610 098e 4948     		ldr	r0, .L532+16
 5611 0990 FFF7FEFF 		bl	printf
 5612              	.LVL615:
 898:C:/Users/²Ü¼ÒºÀ/.iotlink/sdk/IoT_LINK/iot_link/network/lwm2m/wakaama_lwm2m/wakaama-master/core\observe.c ****                         }
 5613              		.loc 1 898 29 discriminator 1 view .LVU1453
 5614 0994 464B     		ldr	r3, .L532+12
 5615 0996 1B68     		ldr	r3, [r3]
 5616 0998 9868     		ldr	r0, [r3, #8]
 5617 099a FFF7FEFF 		bl	fflush
 5618              	.LVL616:
 5619              	.L446:
 898:C:/Users/²Ü¼ÒºÀ/.iotlink/sdk/IoT_LINK/iot_link/network/lwm2m/wakaama_lwm2m/wakaama-master/core\observe.c ****                         }
 5620              		.loc 1 898 29 discriminator 3 view .LVU1454
 898:C:/Users/²Ü¼ÒºÀ/.iotlink/sdk/IoT_LINK/iot_link/network/lwm2m/wakaama_lwm2m/wakaama-master/core\observe.c ****                         }
 5621              		.loc 1 898 29 discriminator 3 view .LVU1455
 898:C:/Users/²Ü¼ÒºÀ/.iotlink/sdk/IoT_LINK/iot_link/network/lwm2m/wakaama_lwm2m/wakaama-master/core\observe.c ****                         }
 5622              		.loc 1 898 29 discriminator 3 view .LVU1456
ARM GAS  C:\Users\²Ü¼ÒºÀ\AppData\Local\Temp\ccA6NNYh.s 			page 147


 902:C:/Users/²Ü¼ÒºÀ/.iotlink/sdk/IoT_LINK/iot_link/network/lwm2m/wakaama_lwm2m/wakaama-master/core\observe.c ****                     watcherP->lastMid = contextP->nextMID++;
 5623              		.loc 1 902 21 discriminator 3 view .LVU1457
 902:C:/Users/²Ü¼ÒºÀ/.iotlink/sdk/IoT_LINK/iot_link/network/lwm2m/wakaama_lwm2m/wakaama-master/core\observe.c ****                     watcherP->lastMid = contextP->nextMID++;
 5624              		.loc 1 902 40 is_stmt 0 discriminator 3 view .LVU1458
 5625 099e DDE90634 		ldrd	r3, [sp, #24]
 5626 09a2 C5E90834 		strd	r3, [r5, #32]
 903:C:/Users/²Ü¼ÒºÀ/.iotlink/sdk/IoT_LINK/iot_link/network/lwm2m/wakaama_lwm2m/wakaama-master/core\observe.c ****                     if(NULL == cfg.callback)
 5627              		.loc 1 903 21 is_stmt 1 discriminator 3 view .LVU1459
 903:C:/Users/²Ü¼ÒºÀ/.iotlink/sdk/IoT_LINK/iot_link/network/lwm2m/wakaama_lwm2m/wakaama-master/core\observe.c ****                     if(NULL == cfg.callback)
 5628              		.loc 1 903 49 is_stmt 0 discriminator 3 view .LVU1460
 5629 09a6 089B     		ldr	r3, [sp, #32]
 903:C:/Users/²Ü¼ÒºÀ/.iotlink/sdk/IoT_LINK/iot_link/network/lwm2m/wakaama_lwm2m/wakaama-master/core\observe.c ****                     if(NULL == cfg.callback)
 5630              		.loc 1 903 58 discriminator 3 view .LVU1461
 5631 09a8 0899     		ldr	r1, [sp, #32]
 903:C:/Users/²Ü¼ÒºÀ/.iotlink/sdk/IoT_LINK/iot_link/network/lwm2m/wakaama_lwm2m/wakaama-master/core\observe.c ****                     if(NULL == cfg.callback)
 5632              		.loc 1 903 49 discriminator 3 view .LVU1462
 5633 09aa 9B8D     		ldrh	r3, [r3, #44]
 903:C:/Users/²Ü¼ÒºÀ/.iotlink/sdk/IoT_LINK/iot_link/network/lwm2m/wakaama_lwm2m/wakaama-master/core\observe.c ****                     if(NULL == cfg.callback)
 5634              		.loc 1 903 58 discriminator 3 view .LVU1463
 5635 09ac 5A1C     		adds	r2, r3, #1
 5636 09ae 8A85     		strh	r2, [r1, #44]	@ movhi
 904:C:/Users/²Ü¼ÒºÀ/.iotlink/sdk/IoT_LINK/iot_link/network/lwm2m/wakaama_lwm2m/wakaama-master/core\observe.c ****                     {
 5637              		.loc 1 904 23 discriminator 3 view .LVU1464
 5638 09b0 1C9A     		ldr	r2, [sp, #112]
 903:C:/Users/²Ü¼ÒºÀ/.iotlink/sdk/IoT_LINK/iot_link/network/lwm2m/wakaama_lwm2m/wakaama-master/core\observe.c ****                     if(NULL == cfg.callback)
 5639              		.loc 1 903 39 discriminator 3 view .LVU1465
 5640 09b2 AB85     		strh	r3, [r5, #44]	@ movhi
 904:C:/Users/²Ü¼ÒºÀ/.iotlink/sdk/IoT_LINK/iot_link/network/lwm2m/wakaama_lwm2m/wakaama-master/core\observe.c ****                     {
 5641              		.loc 1 904 21 is_stmt 1 discriminator 3 view .LVU1466
 904:C:/Users/²Ü¼ÒºÀ/.iotlink/sdk/IoT_LINK/iot_link/network/lwm2m/wakaama_lwm2m/wakaama-master/core\observe.c ****                     {
 5642              		.loc 1 904 23 is_stmt 0 discriminator 3 view .LVU1467
 5643 09b4 002A     		cmp	r2, #0
 5644 09b6 62D1     		bne	.L452
 907:C:/Users/²Ü¼ÒºÀ/.iotlink/sdk/IoT_LINK/iot_link/network/lwm2m/wakaama_lwm2m/wakaama-master/core\observe.c ****                         coap_set_header_token(message, watcherP->token, watcherP->tokenLen);
 5645              		.loc 1 907 25 is_stmt 1 view .LVU1468
 908:C:/Users/²Ü¼ÒºÀ/.iotlink/sdk/IoT_LINK/iot_link/network/lwm2m/wakaama_lwm2m/wakaama-master/core\observe.c ****                         coap_set_header_observe(message, watcherP->counter++);
 5646              		.loc 1 908 25 is_stmt 0 view .LVU1469
 5647 09b8 EA69     		ldr	r2, [r5, #28]
 907:C:/Users/²Ü¼ÒºÀ/.iotlink/sdk/IoT_LINK/iot_link/network/lwm2m/wakaama_lwm2m/wakaama-master/core\observe.c ****                         coap_set_header_token(message, watcherP->token, watcherP->tokenLen);
 5648              		.loc 1 907 38 view .LVU1470
 5649 09ba ADF87C30 		strh	r3, [sp, #124]	@ movhi
 908:C:/Users/²Ü¼ÒºÀ/.iotlink/sdk/IoT_LINK/iot_link/network/lwm2m/wakaama_lwm2m/wakaama-master/core\observe.c ****                         coap_set_header_observe(message, watcherP->counter++);
 5650              		.loc 1 908 25 is_stmt 1 view .LVU1471
 5651 09be 05F11201 		add	r1, r5, #18
 5652 09c2 1DA8     		add	r0, sp, #116
 5653 09c4 FFF7FEFF 		bl	coap_set_header_token
 5654              	.LVL617:
 909:C:/Users/²Ü¼ÒºÀ/.iotlink/sdk/IoT_LINK/iot_link/network/lwm2m/wakaama_lwm2m/wakaama-master/core\observe.c ****                         (void)message_send(contextP, message, watcherP->server->sessionH);
 5655              		.loc 1 909 25 view .LVU1472
 909:C:/Users/²Ü¼ÒºÀ/.iotlink/sdk/IoT_LINK/iot_link/network/lwm2m/wakaama_lwm2m/wakaama-master/core\observe.c ****                         (void)message_send(contextP, message, watcherP->server->sessionH);
 5656              		.loc 1 909 66 is_stmt 0 view .LVU1473
 5657 09c8 A96A     		ldr	r1, [r5, #40]
 909:C:/Users/²Ü¼ÒºÀ/.iotlink/sdk/IoT_LINK/iot_link/network/lwm2m/wakaama_lwm2m/wakaama-master/core\observe.c ****                         (void)message_send(contextP, message, watcherP->server->sessionH);
 5658              		.loc 1 909 25 view .LVU1474
 5659 09ca 4B1C     		adds	r3, r1, #1
 5660 09cc AB62     		str	r3, [r5, #40]
 5661 09ce 1DA8     		add	r0, sp, #116
ARM GAS  C:\Users\²Ü¼ÒºÀ\AppData\Local\Temp\ccA6NNYh.s 			page 148


 5662 09d0 FFF7FEFF 		bl	coap_set_header_observe
 5663              	.LVL618:
 910:C:/Users/²Ü¼ÒºÀ/.iotlink/sdk/IoT_LINK/iot_link/network/lwm2m/wakaama_lwm2m/wakaama-master/core\observe.c **** 
 5664              		.loc 1 910 25 is_stmt 1 view .LVU1475
 910:C:/Users/²Ü¼ÒºÀ/.iotlink/sdk/IoT_LINK/iot_link/network/lwm2m/wakaama_lwm2m/wakaama-master/core\observe.c **** 
 5665              		.loc 1 910 31 is_stmt 0 view .LVU1476
 5666 09d4 AB68     		ldr	r3, [r5, #8]
 5667 09d6 0898     		ldr	r0, [sp, #32]
 5668 09d8 DA69     		ldr	r2, [r3, #28]
 5669 09da 1DA9     		add	r1, sp, #116
 5670 09dc FFF7FEFF 		bl	message_send
 5671              	.LVL619:
 5672              	.L453:
 917:C:/Users/²Ü¼ÒºÀ/.iotlink/sdk/IoT_LINK/iot_link/network/lwm2m/wakaama_lwm2m/wakaama-master/core\observe.c ****                     watcherP->update = false;
 5673              		.loc 1 917 21 is_stmt 1 view .LVU1477
 5674 09e0 089B     		ldr	r3, [sp, #32]
 5675 09e2 186A     		ldr	r0, [r3, #32]
 5676 09e4 FFF7FEFF 		bl	osal_mutex_lock
 5677              	.LVL620:
 918:C:/Users/²Ü¼ÒºÀ/.iotlink/sdk/IoT_LINK/iot_link/network/lwm2m/wakaama_lwm2m/wakaama-master/core\observe.c ****                     (void) osal_mutex_unlock(contextP->observe_mutex);
 5678              		.loc 1 918 21 view .LVU1478
 918:C:/Users/²Ü¼ÒºÀ/.iotlink/sdk/IoT_LINK/iot_link/network/lwm2m/wakaama_lwm2m/wakaama-master/core\observe.c ****                     (void) osal_mutex_unlock(contextP->observe_mutex);
 5679              		.loc 1 918 38 is_stmt 0 view .LVU1479
 5680 09e8 0023     		movs	r3, #0
 5681 09ea 6B71     		strb	r3, [r5, #5]
 919:C:/Users/²Ü¼ÒºÀ/.iotlink/sdk/IoT_LINK/iot_link/network/lwm2m/wakaama_lwm2m/wakaama-master/core\observe.c ****                 }
 5682              		.loc 1 919 21 is_stmt 1 view .LVU1480
 919:C:/Users/²Ü¼ÒºÀ/.iotlink/sdk/IoT_LINK/iot_link/network/lwm2m/wakaama_lwm2m/wakaama-master/core\observe.c ****                 }
 5683              		.loc 1 919 28 is_stmt 0 view .LVU1481
 5684 09ec 089B     		ldr	r3, [sp, #32]
 5685 09ee 186A     		ldr	r0, [r3, #32]
 5686 09f0 FFF7FEFF 		bl	osal_mutex_unlock
 5687              	.LVL621:
 923:C:/Users/²Ü¼ÒºÀ/.iotlink/sdk/IoT_LINK/iot_link/network/lwm2m/wakaama_lwm2m/wakaama-master/core\observe.c ****                 {
 5688              		.loc 1 923 17 is_stmt 1 view .LVU1482
 923:C:/Users/²Ü¼ÒºÀ/.iotlink/sdk/IoT_LINK/iot_link/network/lwm2m/wakaama_lwm2m/wakaama-master/core\observe.c ****                 {
 5689              		.loc 1 923 36 is_stmt 0 view .LVU1483
 5690 09f4 099B     		ldr	r3, [sp, #36]
 5691 09f6 2BB1     		cbz	r3, .L442
 925:C:/Users/²Ü¼ÒºÀ/.iotlink/sdk/IoT_LINK/iot_link/network/lwm2m/wakaama_lwm2m/wakaama-master/core\observe.c ****                     {
 5692              		.loc 1 925 21 is_stmt 1 view .LVU1484
 925:C:/Users/²Ü¼ÒºÀ/.iotlink/sdk/IoT_LINK/iot_link/network/lwm2m/wakaama_lwm2m/wakaama-master/core\observe.c ****                     {
 5693              		.loc 1 925 34 is_stmt 0 view .LVU1485
 5694 09f8 149B     		ldr	r3, [sp, #80]
 5695 09fa 1B78     		ldrb	r3, [r3]	@ zero_extendqisi2
 925:C:/Users/²Ü¼ÒºÀ/.iotlink/sdk/IoT_LINK/iot_link/network/lwm2m/wakaama_lwm2m/wakaama-master/core\observe.c ****                     {
 5696              		.loc 1 925 21 view .LVU1486
 5697 09fc 062B     		cmp	r3, #6
 5698 09fe 47D0     		beq	.L454
 5699 0a00 072B     		cmp	r3, #7
 5700 0a02 4AD0     		beq	.L455
 5701              	.L442:
 938:C:/Users/²Ü¼ÒºÀ/.iotlink/sdk/IoT_LINK/iot_link/network/lwm2m/wakaama_lwm2m/wakaama-master/core\observe.c ****                 {
 5702              		.loc 1 938 17 is_stmt 1 view .LVU1487
 938:C:/Users/²Ü¼ÒºÀ/.iotlink/sdk/IoT_LINK/iot_link/network/lwm2m/wakaama_lwm2m/wakaama-master/core\observe.c ****                 {
 5703              		.loc 1 938 29 is_stmt 0 view .LVU1488
 5704 0a04 EB68     		ldr	r3, [r5, #12]
ARM GAS  C:\Users\²Ü¼ÒºÀ\AppData\Local\Temp\ccA6NNYh.s 			page 149


 938:C:/Users/²Ü¼ÒºÀ/.iotlink/sdk/IoT_LINK/iot_link/network/lwm2m/wakaama_lwm2m/wakaama-master/core\observe.c ****                 {
 5705              		.loc 1 938 20 view .LVU1489
 5706 0a06 F3B1     		cbz	r3, .L373
 938:C:/Users/²Ü¼ÒºÀ/.iotlink/sdk/IoT_LINK/iot_link/network/lwm2m/wakaama_lwm2m/wakaama-master/core\observe.c ****                 {
 5707              		.loc 1 938 50 discriminator 1 view .LVU1490
 5708 0a08 1A78     		ldrb	r2, [r3]	@ zero_extendqisi2
 5709 0a0a 9207     		lsls	r2, r2, #30
 5710 0a0c 1BD5     		bpl	.L373
 941:C:/Users/²Ü¼ÒºÀ/.iotlink/sdk/IoT_LINK/iot_link/network/lwm2m/wakaama_lwm2m/wakaama-master/core\observe.c ****                     if (*timeoutP > interval) *timeoutP = interval;
 5711              		.loc 1 941 21 is_stmt 1 view .LVU1491
 941:C:/Users/²Ü¼ÒºÀ/.iotlink/sdk/IoT_LINK/iot_link/network/lwm2m/wakaama_lwm2m/wakaama-master/core\observe.c ****                     if (*timeoutP > interval) *timeoutP = interval;
 5712              		.loc 1 941 73 is_stmt 0 view .LVU1492
 5713 0a0e 9968     		ldr	r1, [r3, #8]
 941:C:/Users/²Ü¼ÒºÀ/.iotlink/sdk/IoT_LINK/iot_link/network/lwm2m/wakaama_lwm2m/wakaama-master/core\observe.c ****                     if (*timeoutP > interval) *timeoutP = interval;
 5714              		.loc 1 941 51 view .LVU1493
 5715 0a10 D5E90823 		ldrd	r2, [r5, #32]
 5716 0a14 5218     		adds	r2, r2, r1
 941:C:/Users/²Ü¼ÒºÀ/.iotlink/sdk/IoT_LINK/iot_link/network/lwm2m/wakaama_lwm2m/wakaama-master/core\observe.c ****                     if (*timeoutP > interval) *timeoutP = interval;
 5717              		.loc 1 941 30 view .LVU1494
 5718 0a16 0699     		ldr	r1, [sp, #24]
 941:C:/Users/²Ü¼ÒºÀ/.iotlink/sdk/IoT_LINK/iot_link/network/lwm2m/wakaama_lwm2m/wakaama-master/core\observe.c ****                     if (*timeoutP > interval) *timeoutP = interval;
 5719              		.loc 1 941 51 view .LVU1495
 5720 0a18 43F10003 		adc	r3, r3, #0
 941:C:/Users/²Ü¼ÒºÀ/.iotlink/sdk/IoT_LINK/iot_link/network/lwm2m/wakaama_lwm2m/wakaama-master/core\observe.c ****                     if (*timeoutP > interval) *timeoutP = interval;
 5721              		.loc 1 941 30 view .LVU1496
 5722 0a1c 511A     		subs	r1, r2, r1
 5723 0a1e 0E91     		str	r1, [sp, #56]
 5724 0a20 0799     		ldr	r1, [sp, #28]
 5725 0a22 63EB0103 		sbc	r3, r3, r1
 5726 0a26 0F93     		str	r3, [sp, #60]
 5727              	.LVL622:
 942:C:/Users/²Ü¼ÒºÀ/.iotlink/sdk/IoT_LINK/iot_link/network/lwm2m/wakaama_lwm2m/wakaama-master/core\observe.c ****                 }
 5728              		.loc 1 942 21 is_stmt 1 view .LVU1497
 942:C:/Users/²Ü¼ÒºÀ/.iotlink/sdk/IoT_LINK/iot_link/network/lwm2m/wakaama_lwm2m/wakaama-master/core\observe.c ****                 }
 5729              		.loc 1 942 24 is_stmt 0 view .LVU1498
 5730 0a28 4C9B     		ldr	r3, [sp, #304]
 5731 0a2a DDE90E01 		ldrd	r0, [sp, #56]
 5732 0a2e D3E90023 		ldrd	r2, [r3]
 5733 0a32 9042     		cmp	r0, r2
 5734 0a34 71EB0303 		sbcs	r3, r1, r3
 942:C:/Users/²Ü¼ÒºÀ/.iotlink/sdk/IoT_LINK/iot_link/network/lwm2m/wakaama_lwm2m/wakaama-master/core\observe.c ****                 }
 5735              		.loc 1 942 47 is_stmt 1 view .LVU1499
 942:C:/Users/²Ü¼ÒºÀ/.iotlink/sdk/IoT_LINK/iot_link/network/lwm2m/wakaama_lwm2m/wakaama-master/core\observe.c ****                 }
 5736              		.loc 1 942 57 is_stmt 0 view .LVU1500
 5737 0a38 BFBF     		itttt	lt
 5738 0a3a 4C9B     		ldrlt	r3, [sp, #304]
 5739 0a3c 1946     		movlt	r1, r3
 5740 0a3e DDE90E23 		ldrdlt	r2, [sp, #56]
 5741 0a42 C1E90023 		strdlt	r2, [r1]
 5742              	.LVL623:
 5743              	.L373:
 942:C:/Users/²Ü¼ÒºÀ/.iotlink/sdk/IoT_LINK/iot_link/network/lwm2m/wakaama_lwm2m/wakaama-master/core\observe.c ****                 }
 5744              		.loc 1 942 57 view .LVU1501
 5745              	.LBE50:
 711:C:/Users/²Ü¼ÒºÀ/.iotlink/sdk/IoT_LINK/iot_link/network/lwm2m/wakaama_lwm2m/wakaama-master/core\observe.c ****         {
 5746              		.loc 1 711 67 is_stmt 1 discriminator 2 view .LVU1502
 711:C:/Users/²Ü¼ÒºÀ/.iotlink/sdk/IoT_LINK/iot_link/network/lwm2m/wakaama_lwm2m/wakaama-master/core\observe.c ****         {
ARM GAS  C:\Users\²Ü¼ÒºÀ\AppData\Local\Temp\ccA6NNYh.s 			page 150


 5747              		.loc 1 711 76 is_stmt 0 discriminator 2 view .LVU1503
 5748 0a46 2D68     		ldr	r5, [r5]
 5749              	.LVL624:
 711:C:/Users/²Ü¼ÒºÀ/.iotlink/sdk/IoT_LINK/iot_link/network/lwm2m/wakaama_lwm2m/wakaama-master/core\observe.c ****         {
 5750              		.loc 1 711 76 discriminator 2 view .LVU1504
 5751 0a48 FFF7CDBB 		b	.L371
 5752              	.L447:
 5753              	.LBB51:
 886:C:/Users/²Ü¼ÒºÀ/.iotlink/sdk/IoT_LINK/iot_link/network/lwm2m/wakaama_lwm2m/wakaama-master/core\observe.c ****                             {
 5754              		.loc 1 886 29 is_stmt 1 view .LVU1505
 886:C:/Users/²Ü¼ÒºÀ/.iotlink/sdk/IoT_LINK/iot_link/network/lwm2m/wakaama_lwm2m/wakaama-master/core\observe.c ****                             {
 5755              		.loc 1 886 53 is_stmt 0 view .LVU1506
 5756 0a4c 13A9     		add	r1, sp, #76
 5757 0a4e 0091     		str	r1, [sp]
 5758 0a50 0898     		ldr	r0, [sp, #32]
 5759 0a52 0194     		str	r4, [sp, #4]
 5760 0a54 18EE101A 		vmov	r1, s16	@ int
 5761 0a58 FFF7FEFF 		bl	object_read
 5762              	.LVL625:
 886:C:/Users/²Ü¼ÒºÀ/.iotlink/sdk/IoT_LINK/iot_link/network/lwm2m/wakaama_lwm2m/wakaama-master/core\observe.c ****                             {
 5763              		.loc 1 886 32 view .LVU1507
 5764 0a5c 4528     		cmp	r0, #69
 5765 0a5e 3FF46DAF 		beq	.L450
 888:C:/Users/²Ü¼ÒºÀ/.iotlink/sdk/IoT_LINK/iot_link/network/lwm2m/wakaama_lwm2m/wakaama-master/core\observe.c ****                                 break;
 5766              		.loc 1 888 33 is_stmt 1 view .LVU1508
 888:C:/Users/²Ü¼ÒºÀ/.iotlink/sdk/IoT_LINK/iot_link/network/lwm2m/wakaama_lwm2m/wakaama-master/core\observe.c ****                                 break;
 5767              		.loc 1 888 40 is_stmt 0 view .LVU1509
 5768 0a62 1294     		str	r4, [sp, #72]
 889:C:/Users/²Ü¼ÒºÀ/.iotlink/sdk/IoT_LINK/iot_link/network/lwm2m/wakaama_lwm2m/wakaama-master/core\observe.c ****                             }
 5769              		.loc 1 889 33 is_stmt 1 view .LVU1510
 5770              	.L449:
 889:C:/Users/²Ü¼ÒºÀ/.iotlink/sdk/IoT_LINK/iot_link/network/lwm2m/wakaama_lwm2m/wakaama-master/core\observe.c ****                             }
 5771              		.loc 1 889 33 is_stmt 0 view .LVU1511
 5772              	.LBE51:
 946:C:/Users/²Ü¼ÒºÀ/.iotlink/sdk/IoT_LINK/iot_link/network/lwm2m/wakaama_lwm2m/wakaama-master/core\observe.c ****         if (buffer != NULL) lwm2m_free(buffer);
 5773              		.loc 1 946 9 is_stmt 1 view .LVU1512
 946:C:/Users/²Ü¼ÒºÀ/.iotlink/sdk/IoT_LINK/iot_link/network/lwm2m/wakaama_lwm2m/wakaama-master/core\observe.c ****         if (buffer != NULL) lwm2m_free(buffer);
 5774              		.loc 1 946 19 is_stmt 0 view .LVU1513
 5775 0a64 1499     		ldr	r1, [sp, #80]
 946:C:/Users/²Ü¼ÒºÀ/.iotlink/sdk/IoT_LINK/iot_link/network/lwm2m/wakaama_lwm2m/wakaama-master/core\observe.c ****         if (buffer != NULL) lwm2m_free(buffer);
 5776              		.loc 1 946 12 view .LVU1514
 5777 0a66 11B1     		cbz	r1, .L459
 946:C:/Users/²Ü¼ÒºÀ/.iotlink/sdk/IoT_LINK/iot_link/network/lwm2m/wakaama_lwm2m/wakaama-master/core\observe.c ****         if (buffer != NULL) lwm2m_free(buffer);
 5778              		.loc 1 946 28 is_stmt 1 discriminator 1 view .LVU1515
 5779 0a68 1598     		ldr	r0, [sp, #84]
 5780 0a6a FFF7FEFF 		bl	lwm2m_data_free
 5781              	.LVL626:
 5782              	.L459:
 947:C:/Users/²Ü¼ÒºÀ/.iotlink/sdk/IoT_LINK/iot_link/network/lwm2m/wakaama_lwm2m/wakaama-master/core\observe.c ****     }
 5783              		.loc 1 947 9 view .LVU1516
 947:C:/Users/²Ü¼ÒºÀ/.iotlink/sdk/IoT_LINK/iot_link/network/lwm2m/wakaama_lwm2m/wakaama-master/core\observe.c ****     }
 5784              		.loc 1 947 20 is_stmt 0 view .LVU1517
 5785 0a6e 1298     		ldr	r0, [sp, #72]
 947:C:/Users/²Ü¼ÒºÀ/.iotlink/sdk/IoT_LINK/iot_link/network/lwm2m/wakaama_lwm2m/wakaama-master/core\observe.c ****     }
 5786              		.loc 1 947 12 view .LVU1518
 5787 0a70 0028     		cmp	r0, #0
 5788 0a72 3FF480AB 		beq	.L364
ARM GAS  C:\Users\²Ü¼ÒºÀ\AppData\Local\Temp\ccA6NNYh.s 			page 151


 947:C:/Users/²Ü¼ÒºÀ/.iotlink/sdk/IoT_LINK/iot_link/network/lwm2m/wakaama_lwm2m/wakaama-master/core\observe.c ****     }
 5789              		.loc 1 947 29 is_stmt 1 discriminator 1 view .LVU1519
 5790 0a76 FFF7FEFF 		bl	lwm2m_free
 5791              	.LVL627:
 5792 0a7a FFF77CBB 		b	.L364
 5793              	.L452:
 5794              	.LBB52:
 915:C:/Users/²Ü¼ÒºÀ/.iotlink/sdk/IoT_LINK/iot_link/network/lwm2m/wakaama_lwm2m/wakaama-master/core\observe.c ****                     }
 5795              		.loc 1 915 25 view .LVU1520
 915:C:/Users/²Ü¼ÒºÀ/.iotlink/sdk/IoT_LINK/iot_link/network/lwm2m/wakaama_lwm2m/wakaama-master/core\observe.c ****                     }
 5796              		.loc 1 915 31 is_stmt 0 view .LVU1521
 5797 0a7e 139B     		ldr	r3, [sp, #76]
 5798 0a80 0093     		str	r3, [sp]
 5799 0a82 0898     		ldr	r0, [sp, #32]
 5800 0a84 129B     		ldr	r3, [sp, #72]
 5801 0a86 2A46     		mov	r2, r5
 5802 0a88 1AA9     		add	r1, sp, #104
 5803 0a8a FFF7FEFF 		bl	observe_send_transaction
 5804              	.LVL628:
 5805 0a8e A7E7     		b	.L453
 5806              	.L454:
 928:C:/Users/²Ü¼ÒºÀ/.iotlink/sdk/IoT_LINK/iot_link/network/lwm2m/wakaama_lwm2m/wakaama-master/core\observe.c ****                         break;
 5807              		.loc 1 928 25 is_stmt 1 view .LVU1522
 928:C:/Users/²Ü¼ÒºÀ/.iotlink/sdk/IoT_LINK/iot_link/network/lwm2m/wakaama_lwm2m/wakaama-master/core\observe.c ****                         break;
 5808              		.loc 1 928 55 is_stmt 0 view .LVU1523
 5809 0a90 DDE91823 		ldrd	r2, [sp, #96]
 5810 0a94 C5E90C23 		strd	r2, [r5, #48]
 929:C:/Users/²Ü¼ÒºÀ/.iotlink/sdk/IoT_LINK/iot_link/network/lwm2m/wakaama_lwm2m/wakaama-master/core\observe.c ****                     case LWM2M_TYPE_FLOAT:
 5811              		.loc 1 929 25 is_stmt 1 view .LVU1524
 5812 0a98 B4E7     		b	.L442
 5813              	.L455:
 931:C:/Users/²Ü¼ÒºÀ/.iotlink/sdk/IoT_LINK/iot_link/network/lwm2m/wakaama_lwm2m/wakaama-master/core\observe.c ****                         break;
 5814              		.loc 1 931 25 view .LVU1525
 931:C:/Users/²Ü¼ÒºÀ/.iotlink/sdk/IoT_LINK/iot_link/network/lwm2m/wakaama_lwm2m/wakaama-master/core\observe.c ****                         break;
 5815              		.loc 1 931 53 is_stmt 0 view .LVU1526
 5816 0a9a DDE91623 		ldrd	r2, [sp, #88]
 5817 0a9e C5E90C23 		strd	r2, [r5, #48]
 932:C:/Users/²Ü¼ÒºÀ/.iotlink/sdk/IoT_LINK/iot_link/network/lwm2m/wakaama_lwm2m/wakaama-master/core\observe.c ****                     default:
 5818              		.loc 1 932 25 is_stmt 1 view .LVU1527
 5819 0aa2 AFE7     		b	.L442
 5820              	.L533:
 5821              		.align	2
 5822              	.L532:
 5823 0aa4 00000000 		.word	.LANCHOR18
 5824 0aa8 4A010000 		.word	.LC40
 5825 0aac BC010000 		.word	.LC42
 5826 0ab0 00000000 		.word	_impure_ptr
 5827 0ab4 64020000 		.word	.LC45
 5828              	.LBE52:
 5829              	.LBE54:
 5830              		.cfi_endproc
 5831              	.LFE17:
 5833              		.section	.rodata.lwm2m_get_observe_info.str1.1,"aMS",%progbits,1
 5834              	.LC46:
 5835 0000 5B25735D 		.ascii	"[%s][%u][%s] [%d][%s:%d] null pointer\012\015\012\015"
 5835      5B25755D 
 5835      5B25735D 
ARM GAS  C:\Users\²Ü¼ÒºÀ\AppData\Local\Temp\ccA6NNYh.s 			page 152


 5835      205B2564 
 5835      5D5B2573 
 5836 0029 0A00     		.ascii	"\012\000"
 5837              		.section	.text.lwm2m_get_observe_info,"ax",%progbits
 5838              		.align	1
 5839              		.global	lwm2m_get_observe_info
 5840              		.syntax unified
 5841              		.thumb
 5842              		.thumb_func
 5843              		.fpu fpv4-sp-d16
 5845              	lwm2m_get_observe_info:
 5846              	.LVL629:
 5847              	.LFB18:
 950:C:/Users/²Ü¼ÒºÀ/.iotlink/sdk/IoT_LINK/iot_link/network/lwm2m/wakaama_lwm2m/wakaama-master/core\observe.c **** 
 951:C:/Users/²Ü¼ÒºÀ/.iotlink/sdk/IoT_LINK/iot_link/network/lwm2m/wakaama_lwm2m/wakaama-master/core\observe.c **** 
 952:C:/Users/²Ü¼ÒºÀ/.iotlink/sdk/IoT_LINK/iot_link/network/lwm2m/wakaama_lwm2m/wakaama-master/core\observe.c **** 
 953:C:/Users/²Ü¼ÒºÀ/.iotlink/sdk/IoT_LINK/iot_link/network/lwm2m/wakaama_lwm2m/wakaama-master/core\observe.c **** uint8_t lwm2m_get_observe_info(lwm2m_context_t *contextP, lwm2m_observe_info_t *observe_info)
 954:C:/Users/²Ü¼ÒºÀ/.iotlink/sdk/IoT_LINK/iot_link/network/lwm2m/wakaama_lwm2m/wakaama-master/core\observe.c **** {
 5848              		.loc 1 954 1 view -0
 5849              		.cfi_startproc
 5850              		@ args = 0, pretend = 0, frame = 8
 5851              		@ frame_needed = 0, uses_anonymous_args = 0
 955:C:/Users/²Ü¼ÒºÀ/.iotlink/sdk/IoT_LINK/iot_link/network/lwm2m/wakaama_lwm2m/wakaama-master/core\observe.c ****     lwm2m_observed_t *targetP;
 5852              		.loc 1 955 5 view .LVU1529
 956:C:/Users/²Ü¼ÒºÀ/.iotlink/sdk/IoT_LINK/iot_link/network/lwm2m/wakaama_lwm2m/wakaama-master/core\observe.c ****     lwm2m_watcher_t *watcherP;
 5853              		.loc 1 956 5 view .LVU1530
 957:C:/Users/²Ü¼ÒºÀ/.iotlink/sdk/IoT_LINK/iot_link/network/lwm2m/wakaama_lwm2m/wakaama-master/core\observe.c **** 
 958:C:/Users/²Ü¼ÒºÀ/.iotlink/sdk/IoT_LINK/iot_link/network/lwm2m/wakaama_lwm2m/wakaama-master/core\observe.c ****     if((NULL == observe_info) || (NULL == contextP))
 5854              		.loc 1 958 5 view .LVU1531
 954:C:/Users/²Ü¼ÒºÀ/.iotlink/sdk/IoT_LINK/iot_link/network/lwm2m/wakaama_lwm2m/wakaama-master/core\observe.c ****     lwm2m_observed_t *targetP;
 5855              		.loc 1 954 1 is_stmt 0 view .LVU1532
 5856 0000 10B5     		push	{r4, lr}
 5857              	.LCFI44:
 5858              		.cfi_def_cfa_offset 8
 5859              		.cfi_offset 4, -8
 5860              		.cfi_offset 14, -4
 5861 0002 86B0     		sub	sp, sp, #24
 5862              	.LCFI45:
 5863              		.cfi_def_cfa_offset 32
 5864              		.loc 1 958 7 view .LVU1533
 5865 0004 01B1     		cbz	r1, .L535
 5866              		.loc 1 958 31 discriminator 1 view .LVU1534
 5867 0006 08BB     		cbnz	r0, .L536
 5868              	.L535:
 959:C:/Users/²Ü¼ÒºÀ/.iotlink/sdk/IoT_LINK/iot_link/network/lwm2m/wakaama_lwm2m/wakaama-master/core\observe.c ****     {
 960:C:/Users/²Ü¼ÒºÀ/.iotlink/sdk/IoT_LINK/iot_link/network/lwm2m/wakaama_lwm2m/wakaama-master/core\observe.c ****         LOG("null pointer\n");
 5869              		.loc 1 960 9 is_stmt 1 view .LVU1535
 5870              		.loc 1 960 9 view .LVU1536
 5871 0008 FFF7FEFF 		bl	link_log_level_get
 5872              	.LVL630:
 5873              		.loc 1 960 9 is_stmt 0 view .LVU1537
 5874 000c 0128     		cmp	r0, #1
 5875 000e 02D9     		bls	.L537
 5876              	.L550:
 961:C:/Users/²Ü¼ÒºÀ/.iotlink/sdk/IoT_LINK/iot_link/network/lwm2m/wakaama_lwm2m/wakaama-master/core\observe.c ****         return COAP_500_INTERNAL_SERVER_ERROR;
 5877              		.loc 1 961 16 discriminator 1 view .LVU1538
 5878 0010 A020     		movs	r0, #160
ARM GAS  C:\Users\²Ü¼ÒºÀ\AppData\Local\Temp\ccA6NNYh.s 			page 153


 5879              	.L538:
 962:C:/Users/²Ü¼ÒºÀ/.iotlink/sdk/IoT_LINK/iot_link/network/lwm2m/wakaama_lwm2m/wakaama-master/core\observe.c ****     }
 963:C:/Users/²Ü¼ÒºÀ/.iotlink/sdk/IoT_LINK/iot_link/network/lwm2m/wakaama_lwm2m/wakaama-master/core\observe.c **** 
 964:C:/Users/²Ü¼ÒºÀ/.iotlink/sdk/IoT_LINK/iot_link/network/lwm2m/wakaama_lwm2m/wakaama-master/core\observe.c ****     for (targetP = contextP->observedList ; targetP != NULL ; targetP = targetP->next)
 965:C:/Users/²Ü¼ÒºÀ/.iotlink/sdk/IoT_LINK/iot_link/network/lwm2m/wakaama_lwm2m/wakaama-master/core\observe.c ****     {
 966:C:/Users/²Ü¼ÒºÀ/.iotlink/sdk/IoT_LINK/iot_link/network/lwm2m/wakaama_lwm2m/wakaama-master/core\observe.c ****         if((!LWM2M_URI_IS_SET_RESOURCE(&targetP->uri))
 967:C:/Users/²Ü¼ÒºÀ/.iotlink/sdk/IoT_LINK/iot_link/network/lwm2m/wakaama_lwm2m/wakaama-master/core\observe.c ****                 || (targetP->uri.objectId != LWM2M_FIRMWARE_UPDATE_OBJECT_ID)
 968:C:/Users/²Ü¼ÒºÀ/.iotlink/sdk/IoT_LINK/iot_link/network/lwm2m/wakaama_lwm2m/wakaama-master/core\observe.c ****                 || (targetP->uri.instanceId != 0)
 969:C:/Users/²Ü¼ÒºÀ/.iotlink/sdk/IoT_LINK/iot_link/network/lwm2m/wakaama_lwm2m/wakaama-master/core\observe.c ****                 || (targetP->uri.resourceId != RES_M_STATE))
 970:C:/Users/²Ü¼ÒºÀ/.iotlink/sdk/IoT_LINK/iot_link/network/lwm2m/wakaama_lwm2m/wakaama-master/core\observe.c ****         {
 971:C:/Users/²Ü¼ÒºÀ/.iotlink/sdk/IoT_LINK/iot_link/network/lwm2m/wakaama_lwm2m/wakaama-master/core\observe.c ****             continue;
 972:C:/Users/²Ü¼ÒºÀ/.iotlink/sdk/IoT_LINK/iot_link/network/lwm2m/wakaama_lwm2m/wakaama-master/core\observe.c ****         }
 973:C:/Users/²Ü¼ÒºÀ/.iotlink/sdk/IoT_LINK/iot_link/network/lwm2m/wakaama_lwm2m/wakaama-master/core\observe.c ****         watcherP = targetP->watcherList;
 974:C:/Users/²Ü¼ÒºÀ/.iotlink/sdk/IoT_LINK/iot_link/network/lwm2m/wakaama_lwm2m/wakaama-master/core\observe.c ****         observe_info->counter = watcherP->counter;
 975:C:/Users/²Ü¼ÒºÀ/.iotlink/sdk/IoT_LINK/iot_link/network/lwm2m/wakaama_lwm2m/wakaama-master/core\observe.c ****         memcpy(observe_info->token, watcherP->token, sizeof(observe_info->token));
 976:C:/Users/²Ü¼ÒºÀ/.iotlink/sdk/IoT_LINK/iot_link/network/lwm2m/wakaama_lwm2m/wakaama-master/core\observe.c ****         observe_info->tokenLen = watcherP->tokenLen;
 977:C:/Users/²Ü¼ÒºÀ/.iotlink/sdk/IoT_LINK/iot_link/network/lwm2m/wakaama_lwm2m/wakaama-master/core\observe.c ****         observe_info->format = watcherP->format;
 978:C:/Users/²Ü¼ÒºÀ/.iotlink/sdk/IoT_LINK/iot_link/network/lwm2m/wakaama_lwm2m/wakaama-master/core\observe.c ****         return COAP_NO_ERROR;
 979:C:/Users/²Ü¼ÒºÀ/.iotlink/sdk/IoT_LINK/iot_link/network/lwm2m/wakaama_lwm2m/wakaama-master/core\observe.c ****     }
 980:C:/Users/²Ü¼ÒºÀ/.iotlink/sdk/IoT_LINK/iot_link/network/lwm2m/wakaama_lwm2m/wakaama-master/core\observe.c ****     return COAP_500_INTERNAL_SERVER_ERROR;
 981:C:/Users/²Ü¼ÒºÀ/.iotlink/sdk/IoT_LINK/iot_link/network/lwm2m/wakaama_lwm2m/wakaama-master/core\observe.c **** }
 5880              		.loc 1 981 1 view .LVU1539
 5881 0012 06B0     		add	sp, sp, #24
 5882              	.LCFI46:
 5883              		.cfi_remember_state
 5884              		.cfi_def_cfa_offset 8
 5885              		@ sp needed
 5886 0014 10BD     		pop	{r4, pc}
 5887              	.L537:
 5888              	.LCFI47:
 5889              		.cfi_restore_state
 960:C:/Users/²Ü¼ÒºÀ/.iotlink/sdk/IoT_LINK/iot_link/network/lwm2m/wakaama_lwm2m/wakaama-master/core\observe.c ****         return COAP_500_INTERNAL_SERVER_ERROR;
 5890              		.loc 1 960 9 is_stmt 1 discriminator 1 view .LVU1540
 960:C:/Users/²Ü¼ÒºÀ/.iotlink/sdk/IoT_LINK/iot_link/network/lwm2m/wakaama_lwm2m/wakaama-master/core\observe.c ****         return COAP_500_INTERNAL_SERVER_ERROR;
 5891              		.loc 1 960 9 discriminator 1 view .LVU1541
 960:C:/Users/²Ü¼ÒºÀ/.iotlink/sdk/IoT_LINK/iot_link/network/lwm2m/wakaama_lwm2m/wakaama-master/core\observe.c ****         return COAP_500_INTERNAL_SERVER_ERROR;
 5892              		.loc 1 960 9 discriminator 1 view .LVU1542
 5893 0016 0120     		movs	r0, #1
 5894 0018 FFF7FEFF 		bl	link_log_level_name
 5895              	.LVL631:
 5896 001c 0446     		mov	r4, r0
 5897 001e FFF7FEFF 		bl	osal_sys_time
 5898              	.LVL632:
 5899 0022 0590     		str	r0, [sp, #20]
 5900 0024 FFF7FEFF 		bl	lwm2m_gettime
 5901              	.LVL633:
 5902 0028 4FF47073 		mov	r3, #960
 5903 002c 0293     		str	r3, [sp, #8]
 5904 002e 164B     		ldr	r3, .L551
 5905 0030 059A     		ldr	r2, [sp, #20]
 5906 0032 CDE90003 		strd	r0, r3, [sp]
 5907 0036 2146     		mov	r1, r4
 5908 0038 144B     		ldr	r3, .L551+4
 5909 003a 1548     		ldr	r0, .L551+8
 5910 003c FFF7FEFF 		bl	printf
 5911              	.LVL634:
 960:C:/Users/²Ü¼ÒºÀ/.iotlink/sdk/IoT_LINK/iot_link/network/lwm2m/wakaama_lwm2m/wakaama-master/core\observe.c ****         return COAP_500_INTERNAL_SERVER_ERROR;
ARM GAS  C:\Users\²Ü¼ÒºÀ\AppData\Local\Temp\ccA6NNYh.s 			page 154


 5912              		.loc 1 960 9 discriminator 1 view .LVU1543
 5913 0040 144B     		ldr	r3, .L551+12
 5914 0042 1B68     		ldr	r3, [r3]
 5915 0044 9868     		ldr	r0, [r3, #8]
 5916 0046 FFF7FEFF 		bl	fflush
 5917              	.LVL635:
 5918 004a E1E7     		b	.L550
 5919              	.LVL636:
 5920              	.L536:
 964:C:/Users/²Ü¼ÒºÀ/.iotlink/sdk/IoT_LINK/iot_link/network/lwm2m/wakaama_lwm2m/wakaama-master/core\observe.c ****     {
 5921              		.loc 1 964 5 view .LVU1544
 964:C:/Users/²Ü¼ÒºÀ/.iotlink/sdk/IoT_LINK/iot_link/network/lwm2m/wakaama_lwm2m/wakaama-master/core\observe.c ****     {
 5922              		.loc 1 964 18 is_stmt 0 view .LVU1545
 5923 004c C369     		ldr	r3, [r0, #28]
 5924              	.LVL637:
 5925              	.L539:
 964:C:/Users/²Ü¼ÒºÀ/.iotlink/sdk/IoT_LINK/iot_link/network/lwm2m/wakaama_lwm2m/wakaama-master/core\observe.c ****     {
 5926              		.loc 1 964 45 is_stmt 1 discriminator 1 view .LVU1546
 964:C:/Users/²Ü¼ÒºÀ/.iotlink/sdk/IoT_LINK/iot_link/network/lwm2m/wakaama_lwm2m/wakaama-master/core\observe.c ****     {
 5927              		.loc 1 964 5 is_stmt 0 discriminator 1 view .LVU1547
 5928 004e 002B     		cmp	r3, #0
 5929 0050 DED0     		beq	.L550
 966:C:/Users/²Ü¼ÒºÀ/.iotlink/sdk/IoT_LINK/iot_link/network/lwm2m/wakaama_lwm2m/wakaama-master/core\observe.c ****                 || (targetP->uri.objectId != LWM2M_FIRMWARE_UPDATE_OBJECT_ID)
 5930              		.loc 1 966 9 is_stmt 1 view .LVU1548
 966:C:/Users/²Ü¼ÒºÀ/.iotlink/sdk/IoT_LINK/iot_link/network/lwm2m/wakaama_lwm2m/wakaama-master/core\observe.c ****                 || (targetP->uri.objectId != LWM2M_FIRMWARE_UPDATE_OBJECT_ID)
 5931              		.loc 1 966 11 is_stmt 0 view .LVU1549
 5932 0052 1A79     		ldrb	r2, [r3, #4]	@ zero_extendqisi2
 5933 0054 D207     		lsls	r2, r2, #31
 5934 0056 06D5     		bpl	.L540
 967:C:/Users/²Ü¼ÒºÀ/.iotlink/sdk/IoT_LINK/iot_link/network/lwm2m/wakaama_lwm2m/wakaama-master/core\observe.c ****                 || (targetP->uri.instanceId != 0)
 5935              		.loc 1 967 17 view .LVU1550
 5936 0058 DA88     		ldrh	r2, [r3, #6]
 5937 005a 052A     		cmp	r2, #5
 5938 005c 03D1     		bne	.L540
 969:C:/Users/²Ü¼ÒºÀ/.iotlink/sdk/IoT_LINK/iot_link/network/lwm2m/wakaama_lwm2m/wakaama-master/core\observe.c ****         {
 5939              		.loc 1 969 17 view .LVU1551
 5940 005e 9A68     		ldr	r2, [r3, #8]
 5941 0060 B2F5403F 		cmp	r2, #196608
 5942 0064 01D0     		beq	.L541
 5943              	.L540:
 971:C:/Users/²Ü¼ÒºÀ/.iotlink/sdk/IoT_LINK/iot_link/network/lwm2m/wakaama_lwm2m/wakaama-master/core\observe.c ****         }
 5944              		.loc 1 971 13 is_stmt 1 view .LVU1552
 964:C:/Users/²Ü¼ÒºÀ/.iotlink/sdk/IoT_LINK/iot_link/network/lwm2m/wakaama_lwm2m/wakaama-master/core\observe.c ****     {
 5945              		.loc 1 964 63 view .LVU1553
 964:C:/Users/²Ü¼ÒºÀ/.iotlink/sdk/IoT_LINK/iot_link/network/lwm2m/wakaama_lwm2m/wakaama-master/core\observe.c ****     {
 5946              		.loc 1 964 71 is_stmt 0 view .LVU1554
 5947 0066 1B68     		ldr	r3, [r3]
 5948              	.LVL638:
 964:C:/Users/²Ü¼ÒºÀ/.iotlink/sdk/IoT_LINK/iot_link/network/lwm2m/wakaama_lwm2m/wakaama-master/core\observe.c ****     {
 5949              		.loc 1 964 71 view .LVU1555
 5950 0068 F1E7     		b	.L539
 5951              	.L541:
 973:C:/Users/²Ü¼ÒºÀ/.iotlink/sdk/IoT_LINK/iot_link/network/lwm2m/wakaama_lwm2m/wakaama-master/core\observe.c ****         observe_info->counter = watcherP->counter;
 5952              		.loc 1 973 9 is_stmt 1 view .LVU1556
 973:C:/Users/²Ü¼ÒºÀ/.iotlink/sdk/IoT_LINK/iot_link/network/lwm2m/wakaama_lwm2m/wakaama-master/core\observe.c ****         observe_info->counter = watcherP->counter;
 5953              		.loc 1 973 18 is_stmt 0 view .LVU1557
 5954 006a DB68     		ldr	r3, [r3, #12]
ARM GAS  C:\Users\²Ü¼ÒºÀ\AppData\Local\Temp\ccA6NNYh.s 			page 155


 5955              	.LVL639:
 974:C:/Users/²Ü¼ÒºÀ/.iotlink/sdk/IoT_LINK/iot_link/network/lwm2m/wakaama_lwm2m/wakaama-master/core\observe.c ****         memcpy(observe_info->token, watcherP->token, sizeof(observe_info->token));
 5956              		.loc 1 974 9 is_stmt 1 view .LVU1558
 974:C:/Users/²Ü¼ÒºÀ/.iotlink/sdk/IoT_LINK/iot_link/network/lwm2m/wakaama_lwm2m/wakaama-master/core\observe.c ****         memcpy(observe_info->token, watcherP->token, sizeof(observe_info->token));
 5957              		.loc 1 974 31 is_stmt 0 view .LVU1559
 5958 006c 9A6A     		ldr	r2, [r3, #40]
 5959 006e 0A61     		str	r2, [r1, #16]
 975:C:/Users/²Ü¼ÒºÀ/.iotlink/sdk/IoT_LINK/iot_link/network/lwm2m/wakaama_lwm2m/wakaama-master/core\observe.c ****         observe_info->tokenLen = watcherP->tokenLen;
 5960              		.loc 1 975 9 is_stmt 1 view .LVU1560
 5961 0070 1846     		mov	r0, r3
 5962              	.LVL640:
 975:C:/Users/²Ü¼ÒºÀ/.iotlink/sdk/IoT_LINK/iot_link/network/lwm2m/wakaama_lwm2m/wakaama-master/core\observe.c ****         observe_info->tokenLen = watcherP->tokenLen;
 5963              		.loc 1 975 9 is_stmt 0 view .LVU1561
 5964 0072 50F8122F 		ldr	r2, [r0, #18]!	@ unaligned
 5965 0076 4A60     		str	r2, [r1, #4]	@ unaligned
 5966 0078 4268     		ldr	r2, [r0, #4]	@ unaligned
 5967 007a 8A60     		str	r2, [r1, #8]	@ unaligned
 976:C:/Users/²Ü¼ÒºÀ/.iotlink/sdk/IoT_LINK/iot_link/network/lwm2m/wakaama_lwm2m/wakaama-master/core\observe.c ****         observe_info->format = watcherP->format;
 5968              		.loc 1 976 9 is_stmt 1 view .LVU1562
 976:C:/Users/²Ü¼ÒºÀ/.iotlink/sdk/IoT_LINK/iot_link/network/lwm2m/wakaama_lwm2m/wakaama-master/core\observe.c ****         observe_info->format = watcherP->format;
 5969              		.loc 1 976 32 is_stmt 0 view .LVU1563
 5970 007c DA69     		ldr	r2, [r3, #28]
 977:C:/Users/²Ü¼ÒºÀ/.iotlink/sdk/IoT_LINK/iot_link/network/lwm2m/wakaama_lwm2m/wakaama-master/core\observe.c ****         return COAP_NO_ERROR;
 5971              		.loc 1 977 40 view .LVU1564
 5972 007e 1B8A     		ldrh	r3, [r3, #16]
 5973              	.LVL641:
 976:C:/Users/²Ü¼ÒºÀ/.iotlink/sdk/IoT_LINK/iot_link/network/lwm2m/wakaama_lwm2m/wakaama-master/core\observe.c ****         observe_info->format = watcherP->format;
 5974              		.loc 1 976 32 view .LVU1565
 5975 0080 CA60     		str	r2, [r1, #12]
 977:C:/Users/²Ü¼ÒºÀ/.iotlink/sdk/IoT_LINK/iot_link/network/lwm2m/wakaama_lwm2m/wakaama-master/core\observe.c ****         return COAP_NO_ERROR;
 5976              		.loc 1 977 9 is_stmt 1 view .LVU1566
 977:C:/Users/²Ü¼ÒºÀ/.iotlink/sdk/IoT_LINK/iot_link/network/lwm2m/wakaama_lwm2m/wakaama-master/core\observe.c ****         return COAP_NO_ERROR;
 5977              		.loc 1 977 40 is_stmt 0 view .LVU1567
 5978 0082 0B60     		str	r3, [r1]
 978:C:/Users/²Ü¼ÒºÀ/.iotlink/sdk/IoT_LINK/iot_link/network/lwm2m/wakaama_lwm2m/wakaama-master/core\observe.c ****     }
 5979              		.loc 1 978 9 is_stmt 1 view .LVU1568
 978:C:/Users/²Ü¼ÒºÀ/.iotlink/sdk/IoT_LINK/iot_link/network/lwm2m/wakaama_lwm2m/wakaama-master/core\observe.c ****     }
 5980              		.loc 1 978 16 is_stmt 0 view .LVU1569
 5981 0084 0020     		movs	r0, #0
 5982              	.LVL642:
 978:C:/Users/²Ü¼ÒºÀ/.iotlink/sdk/IoT_LINK/iot_link/network/lwm2m/wakaama_lwm2m/wakaama-master/core\observe.c ****     }
 5983              		.loc 1 978 16 view .LVU1570
 5984 0086 C4E7     		b	.L538
 5985              	.L552:
 5986              		.align	2
 5987              	.L551:
 5988 0088 00000000 		.word	.LANCHOR20
 5989 008c 00000000 		.word	.LANCHOR19
 5990 0090 00000000 		.word	.LC46
 5991 0094 00000000 		.word	_impure_ptr
 5992              		.cfi_endproc
 5993              	.LFE18:
 5995              		.section	.rodata.lwm2m_send_notify.str1.1,"aMS",%progbits,1
 5996              	.LC47:
 5997 0000 5B25735D 		.ascii	"[%s][%u][%s] [%d][%s:%d] registration_get_registere"
 5997      5B25755D 
 5997      5B25735D 
ARM GAS  C:\Users\²Ü¼ÒºÀ\AppData\Local\Temp\ccA6NNYh.s 			page 156


 5997      205B2564 
 5997      5D5B2573 
 5998 0033 645F7365 		.ascii	"d_server fail\012\015\012\015\012\000"
 5998      72766572 
 5998      20666169 
 5998      6C0A0D0A 
 5998      0D0A00
 5999              	.LC48:
 6000 0046 5B25735D 		.ascii	"[%s][%u][%s] [%d][%s:%d] lwm2m_data_serialize fail\012"
 6000      5B25755D 
 6000      5B25735D 
 6000      205B2564 
 6000      5D5B2573 
 6001 0079 0D0A0D0A 		.ascii	"\015\012\015\012\000"
 6001      00
 6002              		.section	.text.lwm2m_send_notify,"ax",%progbits
 6003              		.align	1
 6004              		.global	lwm2m_send_notify
 6005              		.syntax unified
 6006              		.thumb
 6007              		.thumb_func
 6008              		.fpu fpv4-sp-d16
 6010              	lwm2m_send_notify:
 6011              	.LVL643:
 6012              	.LFB19:
 982:C:/Users/²Ü¼ÒºÀ/.iotlink/sdk/IoT_LINK/iot_link/network/lwm2m/wakaama_lwm2m/wakaama-master/core\observe.c **** 
 983:C:/Users/²Ü¼ÒºÀ/.iotlink/sdk/IoT_LINK/iot_link/network/lwm2m/wakaama_lwm2m/wakaama-master/core\observe.c **** uint8_t lwm2m_send_notify(lwm2m_context_t *contextP, lwm2m_observe_info_t *observe_info, int firmwa
 984:C:/Users/²Ü¼ÒºÀ/.iotlink/sdk/IoT_LINK/iot_link/network/lwm2m/wakaama_lwm2m/wakaama-master/core\observe.c **** {
 6013              		.loc 1 984 1 is_stmt 1 view -0
 6014              		.cfi_startproc
 6015              		@ args = 0, pretend = 0, frame = 96
 6016              		@ frame_needed = 0, uses_anonymous_args = 0
 985:C:/Users/²Ü¼ÒºÀ/.iotlink/sdk/IoT_LINK/iot_link/network/lwm2m/wakaama_lwm2m/wakaama-master/core\observe.c ****     lwm2m_uri_t uri;
 6017              		.loc 1 985 5 view .LVU1572
 986:C:/Users/²Ü¼ÒºÀ/.iotlink/sdk/IoT_LINK/iot_link/network/lwm2m/wakaama_lwm2m/wakaama-master/core\observe.c ****     int res;
 6018              		.loc 1 986 5 view .LVU1573
 987:C:/Users/²Ü¼ÒºÀ/.iotlink/sdk/IoT_LINK/iot_link/network/lwm2m/wakaama_lwm2m/wakaama-master/core\observe.c ****     lwm2m_data_t data;
 6019              		.loc 1 987 5 view .LVU1574
 988:C:/Users/²Ü¼ÒºÀ/.iotlink/sdk/IoT_LINK/iot_link/network/lwm2m/wakaama_lwm2m/wakaama-master/core\observe.c ****     lwm2m_media_type_t format;
 6020              		.loc 1 988 5 view .LVU1575
 989:C:/Users/²Ü¼ÒºÀ/.iotlink/sdk/IoT_LINK/iot_link/network/lwm2m/wakaama_lwm2m/wakaama-master/core\observe.c ****     uint8_t *buffer = NULL;
 6021              		.loc 1 989 5 view .LVU1576
 984:C:/Users/²Ü¼ÒºÀ/.iotlink/sdk/IoT_LINK/iot_link/network/lwm2m/wakaama_lwm2m/wakaama-master/core\observe.c ****     lwm2m_uri_t uri;
 6022              		.loc 1 984 1 is_stmt 0 view .LVU1577
 6023 0000 2DE9F043 		push	{r4, r5, r6, r7, r8, r9, lr}
 6024              	.LCFI48:
 6025              		.cfi_def_cfa_offset 28
 6026              		.cfi_offset 4, -28
 6027              		.cfi_offset 5, -24
 6028              		.cfi_offset 6, -20
 6029              		.cfi_offset 7, -16
 6030              		.cfi_offset 8, -12
 6031              		.cfi_offset 9, -8
 6032              		.cfi_offset 14, -4
 6033 0004 9DB0     		sub	sp, sp, #116
 6034              	.LCFI49:
 6035              		.cfi_def_cfa_offset 144
ARM GAS  C:\Users\²Ü¼ÒºÀ\AppData\Local\Temp\ccA6NNYh.s 			page 157


 6036              		.loc 1 989 14 view .LVU1578
 6037 0006 4FF00008 		mov	r8, #0
 984:C:/Users/²Ü¼ÒºÀ/.iotlink/sdk/IoT_LINK/iot_link/network/lwm2m/wakaama_lwm2m/wakaama-master/core\observe.c ****     lwm2m_uri_t uri;
 6038              		.loc 1 984 1 view .LVU1579
 6039 000a 0546     		mov	r5, r0
 6040 000c 9146     		mov	r9, r2
 6041 000e 1E46     		mov	r6, r3
 6042              		.loc 1 989 14 view .LVU1580
 6043 0010 CDF81C80 		str	r8, [sp, #28]
 990:C:/Users/²Ü¼ÒºÀ/.iotlink/sdk/IoT_LINK/iot_link/network/lwm2m/wakaama_lwm2m/wakaama-master/core\observe.c ****     lwm2m_server_t *server;
 6044              		.loc 1 990 5 is_stmt 1 view .LVU1581
 991:C:/Users/²Ü¼ÒºÀ/.iotlink/sdk/IoT_LINK/iot_link/network/lwm2m/wakaama_lwm2m/wakaama-master/core\observe.c ****     lwm2m_watcher_t watcherP;
 6045              		.loc 1 991 5 view .LVU1582
 992:C:/Users/²Ü¼ÒºÀ/.iotlink/sdk/IoT_LINK/iot_link/network/lwm2m/wakaama_lwm2m/wakaama-master/core\observe.c **** 
 993:C:/Users/²Ü¼ÒºÀ/.iotlink/sdk/IoT_LINK/iot_link/network/lwm2m/wakaama_lwm2m/wakaama-master/core\observe.c **** 
 994:C:/Users/²Ü¼ÒºÀ/.iotlink/sdk/IoT_LINK/iot_link/network/lwm2m/wakaama_lwm2m/wakaama-master/core\observe.c ****     if((NULL == observe_info) || (NULL == contextP) || (NULL == cfg))
 6046              		.loc 1 994 5 view .LVU1583
 6047              		.loc 1 994 7 is_stmt 0 view .LVU1584
 6048 0014 0C46     		mov	r4, r1
 6049 0016 09B1     		cbz	r1, .L554
 6050              		.loc 1 994 31 discriminator 1 view .LVU1585
 6051 0018 00B1     		cbz	r0, .L554
 6052              		.loc 1 994 53 discriminator 2 view .LVU1586
 6053 001a 13BB     		cbnz	r3, .L555
 6054              	.L554:
 995:C:/Users/²Ü¼ÒºÀ/.iotlink/sdk/IoT_LINK/iot_link/network/lwm2m/wakaama_lwm2m/wakaama-master/core\observe.c ****     {
 996:C:/Users/²Ü¼ÒºÀ/.iotlink/sdk/IoT_LINK/iot_link/network/lwm2m/wakaama_lwm2m/wakaama-master/core\observe.c ****         LOG("null pointer\n");
 6055              		.loc 1 996 9 is_stmt 1 view .LVU1587
 6056              		.loc 1 996 9 view .LVU1588
 6057 001c FFF7FEFF 		bl	link_log_level_get
 6058              	.LVL644:
 6059              		.loc 1 996 9 is_stmt 0 view .LVU1589
 6060 0020 0128     		cmp	r0, #1
 6061 0022 03D9     		bls	.L556
 6062              	.LVL645:
 6063              	.L571:
 997:C:/Users/²Ü¼ÒºÀ/.iotlink/sdk/IoT_LINK/iot_link/network/lwm2m/wakaama_lwm2m/wakaama-master/core\observe.c ****         return COAP_500_INTERNAL_SERVER_ERROR;
 6064              		.loc 1 997 16 discriminator 1 view .LVU1590
 6065 0024 A020     		movs	r0, #160
 6066              	.L557:
 998:C:/Users/²Ü¼ÒºÀ/.iotlink/sdk/IoT_LINK/iot_link/network/lwm2m/wakaama_lwm2m/wakaama-master/core\observe.c ****     }
 999:C:/Users/²Ü¼ÒºÀ/.iotlink/sdk/IoT_LINK/iot_link/network/lwm2m/wakaama_lwm2m/wakaama-master/core\observe.c **** 
1000:C:/Users/²Ü¼ÒºÀ/.iotlink/sdk/IoT_LINK/iot_link/network/lwm2m/wakaama_lwm2m/wakaama-master/core\observe.c ****     server = registration_get_registered_server(contextP);
1001:C:/Users/²Ü¼ÒºÀ/.iotlink/sdk/IoT_LINK/iot_link/network/lwm2m/wakaama_lwm2m/wakaama-master/core\observe.c ****     if(NULL == server)
1002:C:/Users/²Ü¼ÒºÀ/.iotlink/sdk/IoT_LINK/iot_link/network/lwm2m/wakaama_lwm2m/wakaama-master/core\observe.c ****     {
1003:C:/Users/²Ü¼ÒºÀ/.iotlink/sdk/IoT_LINK/iot_link/network/lwm2m/wakaama_lwm2m/wakaama-master/core\observe.c ****         LOG("registration_get_registered_server fail\n");
1004:C:/Users/²Ü¼ÒºÀ/.iotlink/sdk/IoT_LINK/iot_link/network/lwm2m/wakaama_lwm2m/wakaama-master/core\observe.c ****         return COAP_500_INTERNAL_SERVER_ERROR;
1005:C:/Users/²Ü¼ÒºÀ/.iotlink/sdk/IoT_LINK/iot_link/network/lwm2m/wakaama_lwm2m/wakaama-master/core\observe.c ****     }
1006:C:/Users/²Ü¼ÒºÀ/.iotlink/sdk/IoT_LINK/iot_link/network/lwm2m/wakaama_lwm2m/wakaama-master/core\observe.c **** 
1007:C:/Users/²Ü¼ÒºÀ/.iotlink/sdk/IoT_LINK/iot_link/network/lwm2m/wakaama_lwm2m/wakaama-master/core\observe.c ****     uri.objectId = LWM2M_FIRMWARE_UPDATE_OBJECT_ID;
1008:C:/Users/²Ü¼ÒºÀ/.iotlink/sdk/IoT_LINK/iot_link/network/lwm2m/wakaama_lwm2m/wakaama-master/core\observe.c ****     uri.instanceId = 0;
1009:C:/Users/²Ü¼ÒºÀ/.iotlink/sdk/IoT_LINK/iot_link/network/lwm2m/wakaama_lwm2m/wakaama-master/core\observe.c ****     uri.resourceId = RES_M_STATE;
1010:C:/Users/²Ü¼ÒºÀ/.iotlink/sdk/IoT_LINK/iot_link/network/lwm2m/wakaama_lwm2m/wakaama-master/core\observe.c ****     uri.flag = (LWM2M_URI_FLAG_OBJECT_ID | LWM2M_URI_FLAG_INSTANCE_ID | LWM2M_URI_FLAG_RESOURCE_ID)
1011:C:/Users/²Ü¼ÒºÀ/.iotlink/sdk/IoT_LINK/iot_link/network/lwm2m/wakaama_lwm2m/wakaama-master/core\observe.c **** 
1012:C:/Users/²Ü¼ÒºÀ/.iotlink/sdk/IoT_LINK/iot_link/network/lwm2m/wakaama_lwm2m/wakaama-master/core\observe.c ****     format = (lwm2m_media_type_t)observe_info->format;
1013:C:/Users/²Ü¼ÒºÀ/.iotlink/sdk/IoT_LINK/iot_link/network/lwm2m/wakaama_lwm2m/wakaama-master/core\observe.c ****     memset(&data, 0, sizeof(data));
1014:C:/Users/²Ü¼ÒºÀ/.iotlink/sdk/IoT_LINK/iot_link/network/lwm2m/wakaama_lwm2m/wakaama-master/core\observe.c ****     data.id = uri.resourceId;
ARM GAS  C:\Users\²Ü¼ÒºÀ\AppData\Local\Temp\ccA6NNYh.s 			page 158


1015:C:/Users/²Ü¼ÒºÀ/.iotlink/sdk/IoT_LINK/iot_link/network/lwm2m/wakaama_lwm2m/wakaama-master/core\observe.c ****     lwm2m_data_encode_int(firmware_update_state, &data);
1016:C:/Users/²Ü¼ÒºÀ/.iotlink/sdk/IoT_LINK/iot_link/network/lwm2m/wakaama_lwm2m/wakaama-master/core\observe.c ****     res = lwm2m_data_serialize(&uri, 1, &data, &format, &buffer);
1017:C:/Users/²Ü¼ÒºÀ/.iotlink/sdk/IoT_LINK/iot_link/network/lwm2m/wakaama_lwm2m/wakaama-master/core\observe.c ****     if (res < 0)
1018:C:/Users/²Ü¼ÒºÀ/.iotlink/sdk/IoT_LINK/iot_link/network/lwm2m/wakaama_lwm2m/wakaama-master/core\observe.c ****     {
1019:C:/Users/²Ü¼ÒºÀ/.iotlink/sdk/IoT_LINK/iot_link/network/lwm2m/wakaama_lwm2m/wakaama-master/core\observe.c ****         LOG("lwm2m_data_serialize fail\n");
1020:C:/Users/²Ü¼ÒºÀ/.iotlink/sdk/IoT_LINK/iot_link/network/lwm2m/wakaama_lwm2m/wakaama-master/core\observe.c ****         if (buffer != NULL)
1021:C:/Users/²Ü¼ÒºÀ/.iotlink/sdk/IoT_LINK/iot_link/network/lwm2m/wakaama_lwm2m/wakaama-master/core\observe.c ****         {
1022:C:/Users/²Ü¼ÒºÀ/.iotlink/sdk/IoT_LINK/iot_link/network/lwm2m/wakaama_lwm2m/wakaama-master/core\observe.c ****             lwm2m_free(buffer);
1023:C:/Users/²Ü¼ÒºÀ/.iotlink/sdk/IoT_LINK/iot_link/network/lwm2m/wakaama_lwm2m/wakaama-master/core\observe.c ****         }
1024:C:/Users/²Ü¼ÒºÀ/.iotlink/sdk/IoT_LINK/iot_link/network/lwm2m/wakaama_lwm2m/wakaama-master/core\observe.c ****         return COAP_500_INTERNAL_SERVER_ERROR;
1025:C:/Users/²Ü¼ÒºÀ/.iotlink/sdk/IoT_LINK/iot_link/network/lwm2m/wakaama_lwm2m/wakaama-master/core\observe.c ****     }
1026:C:/Users/²Ü¼ÒºÀ/.iotlink/sdk/IoT_LINK/iot_link/network/lwm2m/wakaama_lwm2m/wakaama-master/core\observe.c **** 
1027:C:/Users/²Ü¼ÒºÀ/.iotlink/sdk/IoT_LINK/iot_link/network/lwm2m/wakaama_lwm2m/wakaama-master/core\observe.c ****     memset(&watcherP, 0, sizeof(watcherP));
1028:C:/Users/²Ü¼ÒºÀ/.iotlink/sdk/IoT_LINK/iot_link/network/lwm2m/wakaama_lwm2m/wakaama-master/core\observe.c ****     watcherP.lastMid = contextP->nextMID++;
1029:C:/Users/²Ü¼ÒºÀ/.iotlink/sdk/IoT_LINK/iot_link/network/lwm2m/wakaama_lwm2m/wakaama-master/core\observe.c ****     watcherP.tokenLen = observe_info->tokenLen;
1030:C:/Users/²Ü¼ÒºÀ/.iotlink/sdk/IoT_LINK/iot_link/network/lwm2m/wakaama_lwm2m/wakaama-master/core\observe.c ****     memcpy(watcherP.token, observe_info->token, sizeof(watcherP.token));
1031:C:/Users/²Ü¼ÒºÀ/.iotlink/sdk/IoT_LINK/iot_link/network/lwm2m/wakaama_lwm2m/wakaama-master/core\observe.c ****     watcherP.format = format;
1032:C:/Users/²Ü¼ÒºÀ/.iotlink/sdk/IoT_LINK/iot_link/network/lwm2m/wakaama_lwm2m/wakaama-master/core\observe.c ****     watcherP.counter = observe_info->counter;
1033:C:/Users/²Ü¼ÒºÀ/.iotlink/sdk/IoT_LINK/iot_link/network/lwm2m/wakaama_lwm2m/wakaama-master/core\observe.c ****     watcherP.server = server;
1034:C:/Users/²Ü¼ÒºÀ/.iotlink/sdk/IoT_LINK/iot_link/network/lwm2m/wakaama_lwm2m/wakaama-master/core\observe.c **** 
1035:C:/Users/²Ü¼ÒºÀ/.iotlink/sdk/IoT_LINK/iot_link/network/lwm2m/wakaama_lwm2m/wakaama-master/core\observe.c ****     return (uint8_t)observe_send_transaction(contextP, cfg, &watcherP, buffer, res);
1036:C:/Users/²Ü¼ÒºÀ/.iotlink/sdk/IoT_LINK/iot_link/network/lwm2m/wakaama_lwm2m/wakaama-master/core\observe.c **** }
 6067              		.loc 1 1036 1 view .LVU1591
 6068 0026 1DB0     		add	sp, sp, #116
 6069              	.LCFI50:
 6070              		.cfi_remember_state
 6071              		.cfi_def_cfa_offset 28
 6072              		@ sp needed
 6073 0028 BDE8F083 		pop	{r4, r5, r6, r7, r8, r9, pc}
 6074              	.LVL646:
 6075              	.L556:
 6076              	.LCFI51:
 6077              		.cfi_restore_state
 996:C:/Users/²Ü¼ÒºÀ/.iotlink/sdk/IoT_LINK/iot_link/network/lwm2m/wakaama_lwm2m/wakaama-master/core\observe.c ****         return COAP_500_INTERNAL_SERVER_ERROR;
 6078              		.loc 1 996 9 is_stmt 1 discriminator 1 view .LVU1592
 996:C:/Users/²Ü¼ÒºÀ/.iotlink/sdk/IoT_LINK/iot_link/network/lwm2m/wakaama_lwm2m/wakaama-master/core\observe.c ****         return COAP_500_INTERNAL_SERVER_ERROR;
 6079              		.loc 1 996 9 discriminator 1 view .LVU1593
 996:C:/Users/²Ü¼ÒºÀ/.iotlink/sdk/IoT_LINK/iot_link/network/lwm2m/wakaama_lwm2m/wakaama-master/core\observe.c ****         return COAP_500_INTERNAL_SERVER_ERROR;
 6080              		.loc 1 996 9 discriminator 1 view .LVU1594
 6081 002c 0120     		movs	r0, #1
 6082 002e FFF7FEFF 		bl	link_log_level_name
 6083              	.LVL647:
 6084 0032 0446     		mov	r4, r0
 6085              	.LVL648:
 996:C:/Users/²Ü¼ÒºÀ/.iotlink/sdk/IoT_LINK/iot_link/network/lwm2m/wakaama_lwm2m/wakaama-master/core\observe.c ****         return COAP_500_INTERNAL_SERVER_ERROR;
 6086              		.loc 1 996 9 is_stmt 0 discriminator 1 view .LVU1595
 6087 0034 FFF7FEFF 		bl	osal_sys_time
 6088              	.LVL649:
 6089 0038 0590     		str	r0, [sp, #20]
 6090 003a FFF7FEFF 		bl	lwm2m_gettime
 6091              	.LVL650:
 6092 003e 4FF47973 		mov	r3, #996
 6093 0042 0293     		str	r3, [sp, #8]
 6094 0044 4D4B     		ldr	r3, .L573
 6095 0046 059A     		ldr	r2, [sp, #20]
 6096 0048 CDE90003 		strd	r0, r3, [sp]
 6097 004c 4C4B     		ldr	r3, .L573+4
ARM GAS  C:\Users\²Ü¼ÒºÀ\AppData\Local\Temp\ccA6NNYh.s 			page 159


 6098 004e 4D48     		ldr	r0, .L573+8
 6099 0050 2146     		mov	r1, r4
 6100              	.L572:
 6101 0052 FFF7FEFF 		bl	printf
 6102              	.LVL651:
 996:C:/Users/²Ü¼ÒºÀ/.iotlink/sdk/IoT_LINK/iot_link/network/lwm2m/wakaama_lwm2m/wakaama-master/core\observe.c ****         return COAP_500_INTERNAL_SERVER_ERROR;
 6103              		.loc 1 996 9 is_stmt 1 discriminator 1 view .LVU1596
 6104 0056 4C4B     		ldr	r3, .L573+12
 6105 0058 1B68     		ldr	r3, [r3]
 6106 005a 9868     		ldr	r0, [r3, #8]
 6107 005c FFF7FEFF 		bl	fflush
 6108              	.LVL652:
 6109 0060 E0E7     		b	.L571
 6110              	.LVL653:
 6111              	.L555:
1000:C:/Users/²Ü¼ÒºÀ/.iotlink/sdk/IoT_LINK/iot_link/network/lwm2m/wakaama_lwm2m/wakaama-master/core\observe.c ****     if(NULL == server)
 6112              		.loc 1 1000 5 view .LVU1597
1000:C:/Users/²Ü¼ÒºÀ/.iotlink/sdk/IoT_LINK/iot_link/network/lwm2m/wakaama_lwm2m/wakaama-master/core\observe.c ****     if(NULL == server)
 6113              		.loc 1 1000 14 is_stmt 0 view .LVU1598
 6114 0062 FFF7FEFF 		bl	registration_get_registered_server
 6115              	.LVL654:
1001:C:/Users/²Ü¼ÒºÀ/.iotlink/sdk/IoT_LINK/iot_link/network/lwm2m/wakaama_lwm2m/wakaama-master/core\observe.c ****     {
 6116              		.loc 1 1001 5 is_stmt 1 view .LVU1599
1001:C:/Users/²Ü¼ÒºÀ/.iotlink/sdk/IoT_LINK/iot_link/network/lwm2m/wakaama_lwm2m/wakaama-master/core\observe.c ****     {
 6117              		.loc 1 1001 7 is_stmt 0 view .LVU1600
 6118 0066 0746     		mov	r7, r0
 6119 0068 B8B9     		cbnz	r0, .L558
1003:C:/Users/²Ü¼ÒºÀ/.iotlink/sdk/IoT_LINK/iot_link/network/lwm2m/wakaama_lwm2m/wakaama-master/core\observe.c ****         return COAP_500_INTERNAL_SERVER_ERROR;
 6120              		.loc 1 1003 9 is_stmt 1 view .LVU1601
1003:C:/Users/²Ü¼ÒºÀ/.iotlink/sdk/IoT_LINK/iot_link/network/lwm2m/wakaama_lwm2m/wakaama-master/core\observe.c ****         return COAP_500_INTERNAL_SERVER_ERROR;
 6121              		.loc 1 1003 9 view .LVU1602
 6122 006a FFF7FEFF 		bl	link_log_level_get
 6123              	.LVL655:
1003:C:/Users/²Ü¼ÒºÀ/.iotlink/sdk/IoT_LINK/iot_link/network/lwm2m/wakaama_lwm2m/wakaama-master/core\observe.c ****         return COAP_500_INTERNAL_SERVER_ERROR;
 6124              		.loc 1 1003 9 is_stmt 0 view .LVU1603
 6125 006e 0128     		cmp	r0, #1
 6126 0070 D8D8     		bhi	.L571
1003:C:/Users/²Ü¼ÒºÀ/.iotlink/sdk/IoT_LINK/iot_link/network/lwm2m/wakaama_lwm2m/wakaama-master/core\observe.c ****         return COAP_500_INTERNAL_SERVER_ERROR;
 6127              		.loc 1 1003 9 is_stmt 1 discriminator 1 view .LVU1604
1003:C:/Users/²Ü¼ÒºÀ/.iotlink/sdk/IoT_LINK/iot_link/network/lwm2m/wakaama_lwm2m/wakaama-master/core\observe.c ****         return COAP_500_INTERNAL_SERVER_ERROR;
 6128              		.loc 1 1003 9 discriminator 1 view .LVU1605
1003:C:/Users/²Ü¼ÒºÀ/.iotlink/sdk/IoT_LINK/iot_link/network/lwm2m/wakaama_lwm2m/wakaama-master/core\observe.c ****         return COAP_500_INTERNAL_SERVER_ERROR;
 6129              		.loc 1 1003 9 discriminator 1 view .LVU1606
 6130 0072 0120     		movs	r0, #1
 6131 0074 FFF7FEFF 		bl	link_log_level_name
 6132              	.LVL656:
 6133 0078 0446     		mov	r4, r0
 6134              	.LVL657:
1003:C:/Users/²Ü¼ÒºÀ/.iotlink/sdk/IoT_LINK/iot_link/network/lwm2m/wakaama_lwm2m/wakaama-master/core\observe.c ****         return COAP_500_INTERNAL_SERVER_ERROR;
 6135              		.loc 1 1003 9 is_stmt 0 discriminator 1 view .LVU1607
 6136 007a FFF7FEFF 		bl	osal_sys_time
 6137              	.LVL658:
 6138 007e 0590     		str	r0, [sp, #20]
 6139 0080 FFF7FEFF 		bl	lwm2m_gettime
 6140              	.LVL659:
 6141 0084 40F2EB33 		movw	r3, #1003
 6142 0088 0293     		str	r3, [sp, #8]
ARM GAS  C:\Users\²Ü¼ÒºÀ\AppData\Local\Temp\ccA6NNYh.s 			page 160


 6143 008a 3C4B     		ldr	r3, .L573
 6144 008c 059A     		ldr	r2, [sp, #20]
 6145 008e CDE90003 		strd	r0, r3, [sp]
 6146 0092 2146     		mov	r1, r4
 6147 0094 3A4B     		ldr	r3, .L573+4
 6148 0096 3D48     		ldr	r0, .L573+16
 6149 0098 DBE7     		b	.L572
 6150              	.LVL660:
 6151              	.L558:
1007:C:/Users/²Ü¼ÒºÀ/.iotlink/sdk/IoT_LINK/iot_link/network/lwm2m/wakaama_lwm2m/wakaama-master/core\observe.c ****     uri.instanceId = 0;
 6152              		.loc 1 1007 5 is_stmt 1 view .LVU1608
1008:C:/Users/²Ü¼ÒºÀ/.iotlink/sdk/IoT_LINK/iot_link/network/lwm2m/wakaama_lwm2m/wakaama-master/core\observe.c ****     uri.resourceId = RES_M_STATE;
 6153              		.loc 1 1008 5 view .LVU1609
1009:C:/Users/²Ü¼ÒºÀ/.iotlink/sdk/IoT_LINK/iot_link/network/lwm2m/wakaama_lwm2m/wakaama-master/core\observe.c ****     uri.flag = (LWM2M_URI_FLAG_OBJECT_ID | LWM2M_URI_FLAG_INSTANCE_ID | LWM2M_URI_FLAG_RESOURCE_ID)
 6154              		.loc 1 1009 5 view .LVU1610
1007:C:/Users/²Ü¼ÒºÀ/.iotlink/sdk/IoT_LINK/iot_link/network/lwm2m/wakaama_lwm2m/wakaama-master/core\observe.c ****     uri.instanceId = 0;
 6155              		.loc 1 1007 18 is_stmt 0 view .LVU1611
 6156 009a 0523     		movs	r3, #5
 6157 009c ADF82230 		strh	r3, [sp, #34]	@ movhi
1008:C:/Users/²Ü¼ÒºÀ/.iotlink/sdk/IoT_LINK/iot_link/network/lwm2m/wakaama_lwm2m/wakaama-master/core\observe.c ****     uri.resourceId = RES_M_STATE;
 6158              		.loc 1 1008 20 view .LVU1612
 6159 00a0 4FF44033 		mov	r3, #196608
 6160 00a4 0993     		str	r3, [sp, #36]
1010:C:/Users/²Ü¼ÒºÀ/.iotlink/sdk/IoT_LINK/iot_link/network/lwm2m/wakaama_lwm2m/wakaama-master/core\observe.c **** 
 6161              		.loc 1 1010 5 is_stmt 1 view .LVU1613
1010:C:/Users/²Ü¼ÒºÀ/.iotlink/sdk/IoT_LINK/iot_link/network/lwm2m/wakaama_lwm2m/wakaama-master/core\observe.c **** 
 6162              		.loc 1 1010 14 is_stmt 0 view .LVU1614
 6163 00a6 0723     		movs	r3, #7
 6164 00a8 8DF82030 		strb	r3, [sp, #32]
1012:C:/Users/²Ü¼ÒºÀ/.iotlink/sdk/IoT_LINK/iot_link/network/lwm2m/wakaama_lwm2m/wakaama-master/core\observe.c ****     memset(&data, 0, sizeof(data));
 6165              		.loc 1 1012 5 is_stmt 1 view .LVU1615
1013:C:/Users/²Ü¼ÒºÀ/.iotlink/sdk/IoT_LINK/iot_link/network/lwm2m/wakaama_lwm2m/wakaama-master/core\observe.c ****     data.id = uri.resourceId;
 6166              		.loc 1 1013 5 is_stmt 0 view .LVU1616
 6167 00ac 1022     		movs	r2, #16
1012:C:/Users/²Ü¼ÒºÀ/.iotlink/sdk/IoT_LINK/iot_link/network/lwm2m/wakaama_lwm2m/wakaama-master/core\observe.c ****     memset(&data, 0, sizeof(data));
 6168              		.loc 1 1012 14 view .LVU1617
 6169 00ae 2368     		ldr	r3, [r4]
 6170 00b0 ADF81A30 		strh	r3, [sp, #26]	@ movhi
1013:C:/Users/²Ü¼ÒºÀ/.iotlink/sdk/IoT_LINK/iot_link/network/lwm2m/wakaama_lwm2m/wakaama-master/core\observe.c ****     data.id = uri.resourceId;
 6171              		.loc 1 1013 5 is_stmt 1 view .LVU1618
 6172 00b4 4146     		mov	r1, r8
 6173 00b6 0AA8     		add	r0, sp, #40
 6174              	.LVL661:
1013:C:/Users/²Ü¼ÒºÀ/.iotlink/sdk/IoT_LINK/iot_link/network/lwm2m/wakaama_lwm2m/wakaama-master/core\observe.c ****     data.id = uri.resourceId;
 6175              		.loc 1 1013 5 is_stmt 0 view .LVU1619
 6176 00b8 FFF7FEFF 		bl	memset
 6177              	.LVL662:
1014:C:/Users/²Ü¼ÒºÀ/.iotlink/sdk/IoT_LINK/iot_link/network/lwm2m/wakaama_lwm2m/wakaama-master/core\observe.c ****     lwm2m_data_encode_int(firmware_update_state, &data);
 6178              		.loc 1 1014 5 is_stmt 1 view .LVU1620
1015:C:/Users/²Ü¼ÒºÀ/.iotlink/sdk/IoT_LINK/iot_link/network/lwm2m/wakaama_lwm2m/wakaama-master/core\observe.c ****     res = lwm2m_data_serialize(&uri, 1, &data, &format, &buffer);
 6179              		.loc 1 1015 5 is_stmt 0 view .LVU1621
 6180 00bc 4846     		mov	r0, r9
1014:C:/Users/²Ü¼ÒºÀ/.iotlink/sdk/IoT_LINK/iot_link/network/lwm2m/wakaama_lwm2m/wakaama-master/core\observe.c ****     lwm2m_data_encode_int(firmware_update_state, &data);
 6181              		.loc 1 1014 13 view .LVU1622
 6182 00be 0323     		movs	r3, #3
1015:C:/Users/²Ü¼ÒºÀ/.iotlink/sdk/IoT_LINK/iot_link/network/lwm2m/wakaama_lwm2m/wakaama-master/core\observe.c ****     res = lwm2m_data_serialize(&uri, 1, &data, &format, &buffer);
 6183              		.loc 1 1015 5 view .LVU1623
ARM GAS  C:\Users\²Ü¼ÒºÀ\AppData\Local\Temp\ccA6NNYh.s 			page 161


 6184 00c0 C117     		asrs	r1, r0, #31
 6185 00c2 0AAA     		add	r2, sp, #40
1014:C:/Users/²Ü¼ÒºÀ/.iotlink/sdk/IoT_LINK/iot_link/network/lwm2m/wakaama_lwm2m/wakaama-master/core\observe.c ****     lwm2m_data_encode_int(firmware_update_state, &data);
 6186              		.loc 1 1014 13 view .LVU1624
 6187 00c4 ADF82A30 		strh	r3, [sp, #42]	@ movhi
1015:C:/Users/²Ü¼ÒºÀ/.iotlink/sdk/IoT_LINK/iot_link/network/lwm2m/wakaama_lwm2m/wakaama-master/core\observe.c ****     res = lwm2m_data_serialize(&uri, 1, &data, &format, &buffer);
 6188              		.loc 1 1015 5 is_stmt 1 view .LVU1625
 6189 00c8 FFF7FEFF 		bl	lwm2m_data_encode_int
 6190              	.LVL663:
1016:C:/Users/²Ü¼ÒºÀ/.iotlink/sdk/IoT_LINK/iot_link/network/lwm2m/wakaama_lwm2m/wakaama-master/core\observe.c ****     if (res < 0)
 6191              		.loc 1 1016 5 view .LVU1626
1016:C:/Users/²Ü¼ÒºÀ/.iotlink/sdk/IoT_LINK/iot_link/network/lwm2m/wakaama_lwm2m/wakaama-master/core\observe.c ****     if (res < 0)
 6192              		.loc 1 1016 11 is_stmt 0 view .LVU1627
 6193 00cc 07AB     		add	r3, sp, #28
 6194 00ce 0093     		str	r3, [sp]
 6195 00d0 0AAA     		add	r2, sp, #40
 6196 00d2 0DF11A03 		add	r3, sp, #26
 6197 00d6 0121     		movs	r1, #1
 6198 00d8 08A8     		add	r0, sp, #32
 6199 00da FFF7FEFF 		bl	lwm2m_data_serialize
 6200              	.LVL664:
1017:C:/Users/²Ü¼ÒºÀ/.iotlink/sdk/IoT_LINK/iot_link/network/lwm2m/wakaama_lwm2m/wakaama-master/core\observe.c ****     {
 6201              		.loc 1 1017 5 is_stmt 1 view .LVU1628
1017:C:/Users/²Ü¼ÒºÀ/.iotlink/sdk/IoT_LINK/iot_link/network/lwm2m/wakaama_lwm2m/wakaama-master/core\observe.c ****     {
 6202              		.loc 1 1017 8 is_stmt 0 view .LVU1629
 6203 00de B0F10009 		subs	r9, r0, #0
 6204              	.LVL665:
1017:C:/Users/²Ü¼ÒºÀ/.iotlink/sdk/IoT_LINK/iot_link/network/lwm2m/wakaama_lwm2m/wakaama-master/core\observe.c ****     {
 6205              		.loc 1 1017 8 view .LVU1630
 6206 00e2 24DA     		bge	.L560
1019:C:/Users/²Ü¼ÒºÀ/.iotlink/sdk/IoT_LINK/iot_link/network/lwm2m/wakaama_lwm2m/wakaama-master/core\observe.c ****         if (buffer != NULL)
 6207              		.loc 1 1019 9 is_stmt 1 view .LVU1631
1019:C:/Users/²Ü¼ÒºÀ/.iotlink/sdk/IoT_LINK/iot_link/network/lwm2m/wakaama_lwm2m/wakaama-master/core\observe.c ****         if (buffer != NULL)
 6208              		.loc 1 1019 9 view .LVU1632
 6209 00e4 FFF7FEFF 		bl	link_log_level_get
 6210              	.LVL666:
1019:C:/Users/²Ü¼ÒºÀ/.iotlink/sdk/IoT_LINK/iot_link/network/lwm2m/wakaama_lwm2m/wakaama-master/core\observe.c ****         if (buffer != NULL)
 6211              		.loc 1 1019 9 is_stmt 0 view .LVU1633
 6212 00e8 0128     		cmp	r0, #1
 6213 00ea 19D8     		bhi	.L561
1019:C:/Users/²Ü¼ÒºÀ/.iotlink/sdk/IoT_LINK/iot_link/network/lwm2m/wakaama_lwm2m/wakaama-master/core\observe.c ****         if (buffer != NULL)
 6214              		.loc 1 1019 9 is_stmt 1 discriminator 1 view .LVU1634
1019:C:/Users/²Ü¼ÒºÀ/.iotlink/sdk/IoT_LINK/iot_link/network/lwm2m/wakaama_lwm2m/wakaama-master/core\observe.c ****         if (buffer != NULL)
 6215              		.loc 1 1019 9 discriminator 1 view .LVU1635
1019:C:/Users/²Ü¼ÒºÀ/.iotlink/sdk/IoT_LINK/iot_link/network/lwm2m/wakaama_lwm2m/wakaama-master/core\observe.c ****         if (buffer != NULL)
 6216              		.loc 1 1019 9 discriminator 1 view .LVU1636
 6217 00ec 0120     		movs	r0, #1
 6218 00ee FFF7FEFF 		bl	link_log_level_name
 6219              	.LVL667:
 6220 00f2 0446     		mov	r4, r0
 6221              	.LVL668:
1019:C:/Users/²Ü¼ÒºÀ/.iotlink/sdk/IoT_LINK/iot_link/network/lwm2m/wakaama_lwm2m/wakaama-master/core\observe.c ****         if (buffer != NULL)
 6222              		.loc 1 1019 9 is_stmt 0 discriminator 1 view .LVU1637
 6223 00f4 FFF7FEFF 		bl	osal_sys_time
 6224              	.LVL669:
 6225 00f8 0590     		str	r0, [sp, #20]
 6226 00fa FFF7FEFF 		bl	lwm2m_gettime
ARM GAS  C:\Users\²Ü¼ÒºÀ\AppData\Local\Temp\ccA6NNYh.s 			page 162


 6227              	.LVL670:
 6228 00fe 40F2FB33 		movw	r3, #1019
 6229 0102 0293     		str	r3, [sp, #8]
 6230 0104 1D4B     		ldr	r3, .L573
 6231 0106 059A     		ldr	r2, [sp, #20]
 6232 0108 CDE90003 		strd	r0, r3, [sp]
 6233 010c 2146     		mov	r1, r4
 6234 010e 1C4B     		ldr	r3, .L573+4
 6235 0110 1F48     		ldr	r0, .L573+20
 6236 0112 FFF7FEFF 		bl	printf
 6237              	.LVL671:
1019:C:/Users/²Ü¼ÒºÀ/.iotlink/sdk/IoT_LINK/iot_link/network/lwm2m/wakaama_lwm2m/wakaama-master/core\observe.c ****         if (buffer != NULL)
 6238              		.loc 1 1019 9 is_stmt 1 discriminator 1 view .LVU1638
 6239 0116 1C4B     		ldr	r3, .L573+12
 6240 0118 1B68     		ldr	r3, [r3]
 6241 011a 9868     		ldr	r0, [r3, #8]
 6242 011c FFF7FEFF 		bl	fflush
 6243              	.LVL672:
 6244              	.L561:
1019:C:/Users/²Ü¼ÒºÀ/.iotlink/sdk/IoT_LINK/iot_link/network/lwm2m/wakaama_lwm2m/wakaama-master/core\observe.c ****         if (buffer != NULL)
 6245              		.loc 1 1019 9 discriminator 3 view .LVU1639
1019:C:/Users/²Ü¼ÒºÀ/.iotlink/sdk/IoT_LINK/iot_link/network/lwm2m/wakaama_lwm2m/wakaama-master/core\observe.c ****         if (buffer != NULL)
 6246              		.loc 1 1019 9 discriminator 3 view .LVU1640
1019:C:/Users/²Ü¼ÒºÀ/.iotlink/sdk/IoT_LINK/iot_link/network/lwm2m/wakaama_lwm2m/wakaama-master/core\observe.c ****         if (buffer != NULL)
 6247              		.loc 1 1019 9 discriminator 3 view .LVU1641
1020:C:/Users/²Ü¼ÒºÀ/.iotlink/sdk/IoT_LINK/iot_link/network/lwm2m/wakaama_lwm2m/wakaama-master/core\observe.c ****         {
 6248              		.loc 1 1020 9 discriminator 3 view .LVU1642
1020:C:/Users/²Ü¼ÒºÀ/.iotlink/sdk/IoT_LINK/iot_link/network/lwm2m/wakaama_lwm2m/wakaama-master/core\observe.c ****         {
 6249              		.loc 1 1020 20 is_stmt 0 discriminator 3 view .LVU1643
 6250 0120 0798     		ldr	r0, [sp, #28]
1020:C:/Users/²Ü¼ÒºÀ/.iotlink/sdk/IoT_LINK/iot_link/network/lwm2m/wakaama_lwm2m/wakaama-master/core\observe.c ****         {
 6251              		.loc 1 1020 12 discriminator 3 view .LVU1644
 6252 0122 0028     		cmp	r0, #0
 6253 0124 3FF47EAF 		beq	.L571
1022:C:/Users/²Ü¼ÒºÀ/.iotlink/sdk/IoT_LINK/iot_link/network/lwm2m/wakaama_lwm2m/wakaama-master/core\observe.c ****         }
 6254              		.loc 1 1022 13 is_stmt 1 view .LVU1645
 6255 0128 FFF7FEFF 		bl	lwm2m_free
 6256              	.LVL673:
 6257 012c 7AE7     		b	.L571
 6258              	.LVL674:
 6259              	.L560:
1027:C:/Users/²Ü¼ÒºÀ/.iotlink/sdk/IoT_LINK/iot_link/network/lwm2m/wakaama_lwm2m/wakaama-master/core\observe.c ****     watcherP.lastMid = contextP->nextMID++;
 6260              		.loc 1 1027 5 view .LVU1646
 6261 012e 3822     		movs	r2, #56
 6262 0130 4146     		mov	r1, r8
 6263 0132 0DEB0200 		add	r0, sp, r2
 6264              	.LVL675:
1027:C:/Users/²Ü¼ÒºÀ/.iotlink/sdk/IoT_LINK/iot_link/network/lwm2m/wakaama_lwm2m/wakaama-master/core\observe.c ****     watcherP.lastMid = contextP->nextMID++;
 6265              		.loc 1 1027 5 is_stmt 0 view .LVU1647
 6266 0136 FFF7FEFF 		bl	memset
 6267              	.LVL676:
1028:C:/Users/²Ü¼ÒºÀ/.iotlink/sdk/IoT_LINK/iot_link/network/lwm2m/wakaama_lwm2m/wakaama-master/core\observe.c ****     watcherP.tokenLen = observe_info->tokenLen;
 6268              		.loc 1 1028 5 is_stmt 1 view .LVU1648
1028:C:/Users/²Ü¼ÒºÀ/.iotlink/sdk/IoT_LINK/iot_link/network/lwm2m/wakaama_lwm2m/wakaama-master/core\observe.c ****     watcherP.tokenLen = observe_info->tokenLen;
 6269              		.loc 1 1028 32 is_stmt 0 view .LVU1649
 6270 013a AB8D     		ldrh	r3, [r5, #44]
1028:C:/Users/²Ü¼ÒºÀ/.iotlink/sdk/IoT_LINK/iot_link/network/lwm2m/wakaama_lwm2m/wakaama-master/core\observe.c ****     watcherP.tokenLen = observe_info->tokenLen;
ARM GAS  C:\Users\²Ü¼ÒºÀ\AppData\Local\Temp\ccA6NNYh.s 			page 163


 6271              		.loc 1 1028 22 view .LVU1650
 6272 013c ADF86430 		strh	r3, [sp, #100]	@ movhi
1029:C:/Users/²Ü¼ÒºÀ/.iotlink/sdk/IoT_LINK/iot_link/network/lwm2m/wakaama_lwm2m/wakaama-master/core\observe.c ****     memcpy(watcherP.token, observe_info->token, sizeof(watcherP.token));
 6273              		.loc 1 1029 5 is_stmt 1 view .LVU1651
1028:C:/Users/²Ü¼ÒºÀ/.iotlink/sdk/IoT_LINK/iot_link/network/lwm2m/wakaama_lwm2m/wakaama-master/core\observe.c ****     watcherP.tokenLen = observe_info->tokenLen;
 6274              		.loc 1 1028 41 is_stmt 0 view .LVU1652
 6275 0140 5A1C     		adds	r2, r3, #1
 6276 0142 AA85     		strh	r2, [r5, #44]	@ movhi
1030:C:/Users/²Ü¼ÒºÀ/.iotlink/sdk/IoT_LINK/iot_link/network/lwm2m/wakaama_lwm2m/wakaama-master/core\observe.c ****     watcherP.format = format;
 6277              		.loc 1 1030 5 view .LVU1653
 6278 0144 2246     		mov	r2, r4
1029:C:/Users/²Ü¼ÒºÀ/.iotlink/sdk/IoT_LINK/iot_link/network/lwm2m/wakaama_lwm2m/wakaama-master/core\observe.c ****     memcpy(watcherP.token, observe_info->token, sizeof(watcherP.token));
 6279              		.loc 1 1029 23 view .LVU1654
 6280 0146 E368     		ldr	r3, [r4, #12]
 6281 0148 1593     		str	r3, [sp, #84]
1030:C:/Users/²Ü¼ÒºÀ/.iotlink/sdk/IoT_LINK/iot_link/network/lwm2m/wakaama_lwm2m/wakaama-master/core\observe.c ****     watcherP.format = format;
 6282              		.loc 1 1030 5 is_stmt 1 view .LVU1655
 6283 014a 52F8043F 		ldr	r3, [r2, #4]!	@ unaligned
 6284 014e CDF84A30 		str	r3, [sp, #74]	@ unaligned
 6285 0152 5368     		ldr	r3, [r2, #4]	@ unaligned
 6286 0154 CDF84E30 		str	r3, [sp, #78]	@ unaligned
1031:C:/Users/²Ü¼ÒºÀ/.iotlink/sdk/IoT_LINK/iot_link/network/lwm2m/wakaama_lwm2m/wakaama-master/core\observe.c ****     watcherP.counter = observe_info->counter;
 6287              		.loc 1 1031 5 view .LVU1656
1031:C:/Users/²Ü¼ÒºÀ/.iotlink/sdk/IoT_LINK/iot_link/network/lwm2m/wakaama_lwm2m/wakaama-master/core\observe.c ****     watcherP.counter = observe_info->counter;
 6288              		.loc 1 1031 21 is_stmt 0 view .LVU1657
 6289 0158 BDF81A30 		ldrh	r3, [sp, #26]
 6290 015c ADF84830 		strh	r3, [sp, #72]	@ movhi
1032:C:/Users/²Ü¼ÒºÀ/.iotlink/sdk/IoT_LINK/iot_link/network/lwm2m/wakaama_lwm2m/wakaama-master/core\observe.c ****     watcherP.server = server;
 6291              		.loc 1 1032 5 is_stmt 1 view .LVU1658
1032:C:/Users/²Ü¼ÒºÀ/.iotlink/sdk/IoT_LINK/iot_link/network/lwm2m/wakaama_lwm2m/wakaama-master/core\observe.c ****     watcherP.server = server;
 6292              		.loc 1 1032 22 is_stmt 0 view .LVU1659
 6293 0160 2369     		ldr	r3, [r4, #16]
 6294 0162 1893     		str	r3, [sp, #96]
1033:C:/Users/²Ü¼ÒºÀ/.iotlink/sdk/IoT_LINK/iot_link/network/lwm2m/wakaama_lwm2m/wakaama-master/core\observe.c **** 
 6295              		.loc 1 1033 5 is_stmt 1 view .LVU1660
1035:C:/Users/²Ü¼ÒºÀ/.iotlink/sdk/IoT_LINK/iot_link/network/lwm2m/wakaama_lwm2m/wakaama-master/core\observe.c **** }
 6296              		.loc 1 1035 21 is_stmt 0 view .LVU1661
 6297 0164 CDF80090 		str	r9, [sp]
 6298 0168 079B     		ldr	r3, [sp, #28]
1033:C:/Users/²Ü¼ÒºÀ/.iotlink/sdk/IoT_LINK/iot_link/network/lwm2m/wakaama_lwm2m/wakaama-master/core\observe.c **** 
 6299              		.loc 1 1033 21 view .LVU1662
 6300 016a 1097     		str	r7, [sp, #64]
1035:C:/Users/²Ü¼ÒºÀ/.iotlink/sdk/IoT_LINK/iot_link/network/lwm2m/wakaama_lwm2m/wakaama-master/core\observe.c **** }
 6301              		.loc 1 1035 5 is_stmt 1 view .LVU1663
1035:C:/Users/²Ü¼ÒºÀ/.iotlink/sdk/IoT_LINK/iot_link/network/lwm2m/wakaama_lwm2m/wakaama-master/core\observe.c **** }
 6302              		.loc 1 1035 21 is_stmt 0 view .LVU1664
 6303 016c 0EAA     		add	r2, sp, #56
 6304 016e 3146     		mov	r1, r6
 6305 0170 2846     		mov	r0, r5
 6306 0172 FFF7FEFF 		bl	observe_send_transaction
 6307              	.LVL677:
1035:C:/Users/²Ü¼ÒºÀ/.iotlink/sdk/IoT_LINK/iot_link/network/lwm2m/wakaama_lwm2m/wakaama-master/core\observe.c **** }
 6308              		.loc 1 1035 12 view .LVU1665
 6309 0176 C0B2     		uxtb	r0, r0
 6310 0178 55E7     		b	.L557
 6311              	.L574:
 6312 017a 00BF     		.align	2
ARM GAS  C:\Users\²Ü¼ÒºÀ\AppData\Local\Temp\ccA6NNYh.s 			page 164


 6313              	.L573:
 6314 017c 00000000 		.word	.LANCHOR22
 6315 0180 00000000 		.word	.LANCHOR21
 6316 0184 00000000 		.word	.LC46
 6317 0188 00000000 		.word	_impure_ptr
 6318 018c 00000000 		.word	.LC47
 6319 0190 46000000 		.word	.LC48
 6320              		.cfi_endproc
 6321              	.LFE19:
 6323              		.section	.bss.observe_call_back,"aw",%nobits
 6324              		.align	2
 6325              		.set	.LANCHOR0,. + 0
 6328              	observe_call_back:
 6329 0000 00000000 		.space	4
 6330              		.section	.rodata.__FUNCTION__.8690,"a"
 6331              		.set	.LANCHOR3,. + 0
 6334              	__FUNCTION__.8690:
 6335 0000 6F627365 		.ascii	"observe_handleRequest\000"
 6335      7276655F 
 6335      68616E64 
 6335      6C655265 
 6335      71756573 
 6336              		.section	.rodata.__FUNCTION__.8705,"a"
 6337              		.set	.LANCHOR1,. + 0
 6340              	__FUNCTION__.8705:
 6341 0000 6F627365 		.ascii	"observe_cancel\000"
 6341      7276655F 
 6341      63616E63 
 6341      656C00
 6342              		.section	.rodata.__FUNCTION__.8720,"a"
 6343              		.set	.LANCHOR5,. + 0
 6346              	__FUNCTION__.8720:
 6347 0000 6F627365 		.ascii	"observe_clear\000"
 6347      7276655F 
 6347      636C6561 
 6347      7200
 6348              		.section	.rodata.__FUNCTION__.8738,"a"
 6349              		.set	.LANCHOR7,. + 0
 6352              	__FUNCTION__.8738:
 6353 0000 6F627365 		.ascii	"observe_setParameters\000"
 6353      7276655F 
 6353      73657450 
 6353      6172616D 
 6353      65746572 
 6354              		.section	.rodata.__FUNCTION__.8748,"a"
 6355              		.set	.LANCHOR9,. + 0
 6358              	__FUNCTION__.8748:
 6359 0000 6F627365 		.ascii	"observe_findByUri\000"
 6359      7276655F 
 6359      66696E64 
 6359      42795572 
 6359      6900
 6360              		.section	.rodata.__FUNCTION__.8758,"a"
 6361              		.set	.LANCHOR11,. + 0
 6364              	__FUNCTION__.8758:
 6365 0000 6C776D32 		.ascii	"lwm2m_resource_value_changed\000"
 6365      6D5F7265 
ARM GAS  C:\Users\²Ü¼ÒºÀ\AppData\Local\Temp\ccA6NNYh.s 			page 165


 6365      736F7572 
 6365      63655F76 
 6365      616C7565 
 6366              		.section	.rodata.__FUNCTION__.8776,"a"
 6367              		.set	.LANCHOR13,. + 0
 6370              	__FUNCTION__.8776:
 6371 0000 6F627365 		.ascii	"observe_send_transaction\000"
 6371      7276655F 
 6371      73656E64 
 6371      5F747261 
 6371      6E736163 
 6372              		.section	.rodata.__FUNCTION__.8784,"a"
 6373              		.set	.LANCHOR15,. + 0
 6376              	__FUNCTION__.8784:
 6377 0000 6F627365 		.ascii	"observe_app_step\000"
 6377      7276655F 
 6377      6170705F 
 6377      73746570 
 6377      00
 6378              		.section	.rodata.__FUNCTION__.8806,"a"
 6379              		.set	.LANCHOR17,. + 0
 6382              	__FUNCTION__.8806:
 6383 0000 6F627365 		.ascii	"observe_step\000"
 6383      7276655F 
 6383      73746570 
 6383      00
 6384              		.section	.rodata.__FUNCTION__.8856,"a"
 6385              		.set	.LANCHOR19,. + 0
 6388              	__FUNCTION__.8856:
 6389 0000 6C776D32 		.ascii	"lwm2m_get_observe_info\000"
 6389      6D5F6765 
 6389      745F6F62 
 6389      73657276 
 6389      655F696E 
 6390              		.section	.rodata.__FUNCTION__.8875,"a"
 6391              		.set	.LANCHOR21,. + 0
 6394              	__FUNCTION__.8875:
 6395 0000 6C776D32 		.ascii	"lwm2m_send_notify\000"
 6395      6D5F7365 
 6395      6E645F6E 
 6395      6F746966 
 6395      7900
 6396              		.section	.rodata.__func__.8691,"a"
 6397              		.set	.LANCHOR4,. + 0
 6400              	__func__.8691:
 6401 0000 6F627365 		.ascii	"observe_handleRequest\000"
 6401      7276655F 
 6401      68616E64 
 6401      6C655265 
 6401      71756573 
 6402              		.section	.rodata.__func__.8706,"a"
 6403              		.set	.LANCHOR2,. + 0
 6406              	__func__.8706:
 6407 0000 6F627365 		.ascii	"observe_cancel\000"
 6407      7276655F 
 6407      63616E63 
 6407      656C00
ARM GAS  C:\Users\²Ü¼ÒºÀ\AppData\Local\Temp\ccA6NNYh.s 			page 166


 6408              		.section	.rodata.__func__.8721,"a"
 6409              		.set	.LANCHOR6,. + 0
 6412              	__func__.8721:
 6413 0000 6F627365 		.ascii	"observe_clear\000"
 6413      7276655F 
 6413      636C6561 
 6413      7200
 6414              		.section	.rodata.__func__.8739,"a"
 6415              		.set	.LANCHOR8,. + 0
 6418              	__func__.8739:
 6419 0000 6F627365 		.ascii	"observe_setParameters\000"
 6419      7276655F 
 6419      73657450 
 6419      6172616D 
 6419      65746572 
 6420              		.section	.rodata.__func__.8749,"a"
 6421              		.set	.LANCHOR10,. + 0
 6424              	__func__.8749:
 6425 0000 6F627365 		.ascii	"observe_findByUri\000"
 6425      7276655F 
 6425      66696E64 
 6425      42795572 
 6425      6900
 6426              		.section	.rodata.__func__.8759,"a"
 6427              		.set	.LANCHOR12,. + 0
 6430              	__func__.8759:
 6431 0000 6C776D32 		.ascii	"lwm2m_resource_value_changed\000"
 6431      6D5F7265 
 6431      736F7572 
 6431      63655F76 
 6431      616C7565 
 6432              		.section	.rodata.__func__.8777,"a"
 6433              		.set	.LANCHOR14,. + 0
 6436              	__func__.8777:
 6437 0000 6F627365 		.ascii	"observe_send_transaction\000"
 6437      7276655F 
 6437      73656E64 
 6437      5F747261 
 6437      6E736163 
 6438              		.section	.rodata.__func__.8785,"a"
 6439              		.set	.LANCHOR16,. + 0
 6442              	__func__.8785:
 6443 0000 6F627365 		.ascii	"observe_app_step\000"
 6443      7276655F 
 6443      6170705F 
 6443      73746570 
 6443      00
 6444              		.section	.rodata.__func__.8807,"a"
 6445              		.set	.LANCHOR18,. + 0
 6448              	__func__.8807:
 6449 0000 6F627365 		.ascii	"observe_step\000"
 6449      7276655F 
 6449      73746570 
 6449      00
 6450              		.section	.rodata.__func__.8857,"a"
 6451              		.set	.LANCHOR20,. + 0
 6454              	__func__.8857:
ARM GAS  C:\Users\²Ü¼ÒºÀ\AppData\Local\Temp\ccA6NNYh.s 			page 167


 6455 0000 6C776D32 		.ascii	"lwm2m_get_observe_info\000"
 6455      6D5F6765 
 6455      745F6F62 
 6455      73657276 
 6455      655F696E 
 6456              		.section	.rodata.__func__.8876,"a"
 6457              		.set	.LANCHOR22,. + 0
 6460              	__func__.8876:
 6461 0000 6C776D32 		.ascii	"lwm2m_send_notify\000"
 6461      6D5F7365 
 6461      6E645F6E 
 6461      6F746966 
 6461      7900
 6462              		.text
 6463              	.Letext0:
 6464              		.file 3 "c:\\users\\\262\334\274\322\272\300\\.iotlink\\tools\\gcc-arm-none-eabi\\arm-none-eabi\\i
 6465              		.file 4 "c:\\users\\\262\334\274\322\272\300\\.iotlink\\tools\\gcc-arm-none-eabi\\arm-none-eabi\\i
 6466              		.file 5 "C:/Users/\262\334\274\322\272\300/.iotlink/sdk/IoT_LINK/iot_link/network/lwm2m/wakaama_lw
 6467              		.file 6 "c:\\users\\\262\334\274\322\272\300\\.iotlink\\tools\\gcc-arm-none-eabi\\lib\\gcc\\arm-no
 6468              		.file 7 "c:\\users\\\262\334\274\322\272\300\\.iotlink\\tools\\gcc-arm-none-eabi\\arm-none-eabi\\i
 6469              		.file 8 "c:\\users\\\262\334\274\322\272\300\\.iotlink\\tools\\gcc-arm-none-eabi\\arm-none-eabi\\i
 6470              		.file 9 "c:\\users\\\262\334\274\322\272\300\\.iotlink\\tools\\gcc-arm-none-eabi\\arm-none-eabi\\i
 6471              		.file 10 "c:\\users\\\262\334\274\322\272\300\\.iotlink\\tools\\gcc-arm-none-eabi\\arm-none-eabi\\
 6472              		.file 11 "c:\\users\\\262\334\274\322\272\300\\.iotlink\\tools\\gcc-arm-none-eabi\\arm-none-eabi\\
 6473              		.file 12 "C:/Users/\262\334\274\322\272\300/.iotlink/sdk/IoT_LINK/iot_link/network/lwm2m/wakaama_l
 6474              		.file 13 "C:/Users/\262\334\274\322\272\300/.iotlink/sdk/IoT_LINK/iot_link/inc/link_log.h"
 6475              		.file 14 "C:/Users/\262\334\274\322\272\300/.iotlink/sdk/IoT_LINK/iot_link/network/lwm2m/wakaama_l
 6476              		.file 15 "c:\\users\\\262\334\274\322\272\300\\.iotlink\\tools\\gcc-arm-none-eabi\\arm-none-eabi\\
 6477              		.file 16 "c:\\users\\\262\334\274\322\272\300\\.iotlink\\tools\\gcc-arm-none-eabi\\arm-none-eabi\\
 6478              		.file 17 "C:/Users/\262\334\274\322\272\300/.iotlink/sdk/IoT_LINK/iot_link/network/lwm2m/wakaama_l
 6479              		.file 18 "c:\\users\\\262\334\274\322\272\300\\.iotlink\\tools\\gcc-arm-none-eabi\\arm-none-eabi\\
 6480              		.file 19 "C:/Users/\262\334\274\322\272\300/.iotlink/sdk/IoT_LINK/iot_link/os/osal/osal.h"
 6481              		.file 20 "<built-in>"
ARM GAS  C:\Users\²Ü¼ÒºÀ\AppData\Local\Temp\ccA6NNYh.s 			page 168


DEFINED SYMBOLS
                            *ABS*:00000000 observe.c
C:\Users\²Ü¼ÒºÀ\AppData\Local\Temp\ccA6NNYh.s:18     .text.prv_findObserved.isra.0:00000000 $t
C:\Users\²Ü¼ÒºÀ\AppData\Local\Temp\ccA6NNYh.s:25     .text.prv_findObserved.isra.0:00000000 prv_findObserved.isra.0
C:\Users\²Ü¼ÒºÀ\AppData\Local\Temp\ccA6NNYh.s:85     .text.prv_unlinkObserved.isra.0:00000000 $t
C:\Users\²Ü¼ÒºÀ\AppData\Local\Temp\ccA6NNYh.s:91     .text.prv_unlinkObserved.isra.0:00000000 prv_unlinkObserved.isra.0
C:\Users\²Ü¼ÒºÀ\AppData\Local\Temp\ccA6NNYh.s:139    .text.prv_getWatcher:00000000 $t
C:\Users\²Ü¼ÒºÀ\AppData\Local\Temp\ccA6NNYh.s:145    .text.prv_getWatcher:00000000 prv_getWatcher
C:\Users\²Ü¼ÒºÀ\AppData\Local\Temp\ccA6NNYh.s:335    .text.lwm2m_register_observe_ack_call_back:00000000 $t
C:\Users\²Ü¼ÒºÀ\AppData\Local\Temp\ccA6NNYh.s:342    .text.lwm2m_register_observe_ack_call_back:00000000 lwm2m_register_observe_ack_call_back
C:\Users\²Ü¼ÒºÀ\AppData\Local\Temp\ccA6NNYh.s:359    .text.lwm2m_register_observe_ack_call_back:00000008 $d
C:\Users\²Ü¼ÒºÀ\AppData\Local\Temp\ccA6NNYh.s:367    .text.observe_cancel:00000000 $t
C:\Users\²Ü¼ÒºÀ\AppData\Local\Temp\ccA6NNYh.s:374    .text.observe_cancel:00000000 observe_cancel
C:\Users\²Ü¼ÒºÀ\AppData\Local\Temp\ccA6NNYh.s:620    .text.observe_cancel:000000e8 $d
C:\Users\²Ü¼ÒºÀ\AppData\Local\Temp\ccA6NNYh.s:674    .text.observe_handleRequest:00000000 $t
C:\Users\²Ü¼ÒºÀ\AppData\Local\Temp\ccA6NNYh.s:681    .text.observe_handleRequest:00000000 observe_handleRequest
C:\Users\²Ü¼ÒºÀ\AppData\Local\Temp\ccA6NNYh.s:1236   .text.observe_handleRequest:000002b4 $d
C:\Users\²Ü¼ÒºÀ\AppData\Local\Temp\ccA6NNYh.s:1266   .text.observe_clear:00000000 $t
C:\Users\²Ü¼ÒºÀ\AppData\Local\Temp\ccA6NNYh.s:1273   .text.observe_clear:00000000 observe_clear
C:\Users\²Ü¼ÒºÀ\AppData\Local\Temp\ccA6NNYh.s:1586   .text.observe_clear:00000164 $d
C:\Users\²Ü¼ÒºÀ\AppData\Local\Temp\ccA6NNYh.s:1607   .text.observe_setParameters:00000000 $t
C:\Users\²Ü¼ÒºÀ\AppData\Local\Temp\ccA6NNYh.s:1614   .text.observe_setParameters:00000000 observe_setParameters
C:\Users\²Ü¼ÒºÀ\AppData\Local\Temp\ccA6NNYh.s:2164   .text.observe_setParameters:000002c0 $d
C:\Users\²Ü¼ÒºÀ\AppData\Local\Temp\ccA6NNYh.s:2179   .text.observe_setParameters:000002e4 $t
C:\Users\²Ü¼ÒºÀ\AppData\Local\Temp\ccA6NNYh.s:2247   .text.observe_findByUri:00000000 $t
C:\Users\²Ü¼ÒºÀ\AppData\Local\Temp\ccA6NNYh.s:2254   .text.observe_findByUri:00000000 observe_findByUri
C:\Users\²Ü¼ÒºÀ\AppData\Local\Temp\ccA6NNYh.s:2751   .text.observe_findByUri:000002a0 $d
C:\Users\²Ü¼ÒºÀ\AppData\Local\Temp\ccA6NNYh.s:2773   .text.lwm2m_resource_value_changed:00000000 $t
C:\Users\²Ü¼ÒºÀ\AppData\Local\Temp\ccA6NNYh.s:2780   .text.lwm2m_resource_value_changed:00000000 lwm2m_resource_value_changed
C:\Users\²Ü¼ÒºÀ\AppData\Local\Temp\ccA6NNYh.s:3300   .text.lwm2m_resource_value_changed:0000029c $d
C:\Users\²Ü¼ÒºÀ\AppData\Local\Temp\ccA6NNYh.s:3321   .text.observe_send_transaction:00000000 $t
C:\Users\²Ü¼ÒºÀ\AppData\Local\Temp\ccA6NNYh.s:3328   .text.observe_send_transaction:00000000 observe_send_transaction
C:\Users\²Ü¼ÒºÀ\AppData\Local\Temp\ccA6NNYh.s:3548   .text.observe_send_transaction:00000100 $d
C:\Users\²Ü¼ÒºÀ\AppData\Local\Temp\ccA6NNYh.s:3564   .text.observe_app_step:00000000 $t
C:\Users\²Ü¼ÒºÀ\AppData\Local\Temp\ccA6NNYh.s:3571   .text.observe_app_step:00000000 observe_app_step
C:\Users\²Ü¼ÒºÀ\AppData\Local\Temp\ccA6NNYh.s:3925   .text.observe_app_step:000001a0 $d
C:\Users\²Ü¼ÒºÀ\AppData\Local\Temp\ccA6NNYh.s:3978   .text.observe_step:00000000 $t
C:\Users\²Ü¼ÒºÀ\AppData\Local\Temp\ccA6NNYh.s:3985   .text.observe_step:00000000 observe_step
C:\Users\²Ü¼ÒºÀ\AppData\Local\Temp\ccA6NNYh.s:4293   .text.observe_step:00000180 $d
C:\Users\²Ü¼ÒºÀ\AppData\Local\Temp\ccA6NNYh.s:4307   .text.observe_step:000001a4 $t
C:\Users\²Ü¼ÒºÀ\AppData\Local\Temp\ccA6NNYh.s:4805   .text.observe_step:00000484 $d
C:\Users\²Ü¼ÒºÀ\AppData\Local\Temp\ccA6NNYh.s:4821   .text.observe_step:000004ac $t
C:\Users\²Ü¼ÒºÀ\AppData\Local\Temp\ccA6NNYh.s:5327   .text.observe_step:000007cc $d
C:\Users\²Ü¼ÒºÀ\AppData\Local\Temp\ccA6NNYh.s:5338   .text.observe_step:000007e8 $t
C:\Users\²Ü¼ÒºÀ\AppData\Local\Temp\ccA6NNYh.s:5823   .text.observe_step:00000aa4 $d
C:\Users\²Ü¼ÒºÀ\AppData\Local\Temp\ccA6NNYh.s:5838   .text.lwm2m_get_observe_info:00000000 $t
C:\Users\²Ü¼ÒºÀ\AppData\Local\Temp\ccA6NNYh.s:5845   .text.lwm2m_get_observe_info:00000000 lwm2m_get_observe_info
C:\Users\²Ü¼ÒºÀ\AppData\Local\Temp\ccA6NNYh.s:5988   .text.lwm2m_get_observe_info:00000088 $d
C:\Users\²Ü¼ÒºÀ\AppData\Local\Temp\ccA6NNYh.s:6003   .text.lwm2m_send_notify:00000000 $t
C:\Users\²Ü¼ÒºÀ\AppData\Local\Temp\ccA6NNYh.s:6010   .text.lwm2m_send_notify:00000000 lwm2m_send_notify
C:\Users\²Ü¼ÒºÀ\AppData\Local\Temp\ccA6NNYh.s:6314   .text.lwm2m_send_notify:0000017c $d
C:\Users\²Ü¼ÒºÀ\AppData\Local\Temp\ccA6NNYh.s:6324   .bss.observe_call_back:00000000 $d
C:\Users\²Ü¼ÒºÀ\AppData\Local\Temp\ccA6NNYh.s:6328   .bss.observe_call_back:00000000 observe_call_back
C:\Users\²Ü¼ÒºÀ\AppData\Local\Temp\ccA6NNYh.s:6334   .rodata.__FUNCTION__.8690:00000000 __FUNCTION__.8690
C:\Users\²Ü¼ÒºÀ\AppData\Local\Temp\ccA6NNYh.s:6340   .rodata.__FUNCTION__.8705:00000000 __FUNCTION__.8705
C:\Users\²Ü¼ÒºÀ\AppData\Local\Temp\ccA6NNYh.s:6346   .rodata.__FUNCTION__.8720:00000000 __FUNCTION__.8720
C:\Users\²Ü¼ÒºÀ\AppData\Local\Temp\ccA6NNYh.s:6352   .rodata.__FUNCTION__.8738:00000000 __FUNCTION__.8738
ARM GAS  C:\Users\²Ü¼ÒºÀ\AppData\Local\Temp\ccA6NNYh.s 			page 169


C:\Users\²Ü¼ÒºÀ\AppData\Local\Temp\ccA6NNYh.s:6358   .rodata.__FUNCTION__.8748:00000000 __FUNCTION__.8748
C:\Users\²Ü¼ÒºÀ\AppData\Local\Temp\ccA6NNYh.s:6364   .rodata.__FUNCTION__.8758:00000000 __FUNCTION__.8758
C:\Users\²Ü¼ÒºÀ\AppData\Local\Temp\ccA6NNYh.s:6370   .rodata.__FUNCTION__.8776:00000000 __FUNCTION__.8776
C:\Users\²Ü¼ÒºÀ\AppData\Local\Temp\ccA6NNYh.s:6376   .rodata.__FUNCTION__.8784:00000000 __FUNCTION__.8784
C:\Users\²Ü¼ÒºÀ\AppData\Local\Temp\ccA6NNYh.s:6382   .rodata.__FUNCTION__.8806:00000000 __FUNCTION__.8806
C:\Users\²Ü¼ÒºÀ\AppData\Local\Temp\ccA6NNYh.s:6388   .rodata.__FUNCTION__.8856:00000000 __FUNCTION__.8856
C:\Users\²Ü¼ÒºÀ\AppData\Local\Temp\ccA6NNYh.s:6394   .rodata.__FUNCTION__.8875:00000000 __FUNCTION__.8875
C:\Users\²Ü¼ÒºÀ\AppData\Local\Temp\ccA6NNYh.s:6400   .rodata.__func__.8691:00000000 __func__.8691
C:\Users\²Ü¼ÒºÀ\AppData\Local\Temp\ccA6NNYh.s:6406   .rodata.__func__.8706:00000000 __func__.8706
C:\Users\²Ü¼ÒºÀ\AppData\Local\Temp\ccA6NNYh.s:6412   .rodata.__func__.8721:00000000 __func__.8721
C:\Users\²Ü¼ÒºÀ\AppData\Local\Temp\ccA6NNYh.s:6418   .rodata.__func__.8739:00000000 __func__.8739
C:\Users\²Ü¼ÒºÀ\AppData\Local\Temp\ccA6NNYh.s:6424   .rodata.__func__.8749:00000000 __func__.8749
C:\Users\²Ü¼ÒºÀ\AppData\Local\Temp\ccA6NNYh.s:6430   .rodata.__func__.8759:00000000 __func__.8759
C:\Users\²Ü¼ÒºÀ\AppData\Local\Temp\ccA6NNYh.s:6436   .rodata.__func__.8777:00000000 __func__.8777
C:\Users\²Ü¼ÒºÀ\AppData\Local\Temp\ccA6NNYh.s:6442   .rodata.__func__.8785:00000000 __func__.8785
C:\Users\²Ü¼ÒºÀ\AppData\Local\Temp\ccA6NNYh.s:6448   .rodata.__func__.8807:00000000 __func__.8807
C:\Users\²Ü¼ÒºÀ\AppData\Local\Temp\ccA6NNYh.s:6454   .rodata.__func__.8857:00000000 __func__.8857
C:\Users\²Ü¼ÒºÀ\AppData\Local\Temp\ccA6NNYh.s:6460   .rodata.__func__.8876:00000000 __func__.8876

UNDEFINED SYMBOLS
lwm2m_malloc
memset
osal_mutex_lock
osal_mutex_unlock
lwm2m_free
link_log_level_get
link_log_level_name
osal_sys_time
lwm2m_gettime
printf
fflush
lwm2m_session_is_equal
lwm2m_notify_even
_impure_ptr
coap_get_header_observe
memcpy
utils_convertMediaType
coap_set_header_observe
lwm2m_data_decode_int
lwm2m_data_decode_float
lwm2m_list_free
__aeabi_d2f
object_checkReadable
object_checkNumeric
transaction_new
coap_set_header_content_type
coap_set_payload
lwm2m_list_add
transaction_send
object_readData
lwm2m_data_free
lwm2m_data_serialize
coap_init_message
coap_set_header_token
message_send
__aeabi_l2d
__aeabi_dcmple
ARM GAS  C:\Users\²Ü¼ÒºÀ\AppData\Local\Temp\ccA6NNYh.s 			page 170


__aeabi_dcmplt
__aeabi_dcmpge
__aeabi_dcmpgt
__aeabi_dsub
object_read
registration_get_registered_server
lwm2m_data_encode_int
