ARM GAS  C:\Users\²Ü¼ÒºÀ\AppData\Local\Temp\ccA6NNYh.s 			page 1


   1              		.cpu cortex-m4
   2              		.eabi_attribute 27, 1
   3              		.eabi_attribute 28, 1
   4              		.eabi_attribute 20, 1
   5              		.eabi_attribute 21, 1
   6              		.eabi_attribute 23, 3
   7              		.eabi_attribute 24, 1
   8              		.eabi_attribute 25, 1
   9              		.eabi_attribute 26, 1
  10              		.eabi_attribute 30, 4
  11              		.eabi_attribute 34, 1
  12              		.eabi_attribute 18, 4
  13              		.file	"observe.c"
  14              		.text
  15              	.Ltext0:
  16              		.cfi_sections	.debug_frame
  17              		.section	.text.prv_findObserved.isra.0,"ax",%progbits
  18              		.align	1
  19              		.arch armv7e-m
  20              		.syntax unified
  21              		.thumb
  22              		.thumb_func
  23              		.fpu fpv4-sp-d16
  25              	prv_findObserved.isra.0:
  26              	.LVL0:
  27              	.LFB21:
  28              		.file 1 "C:/Users/\262\334\274\322\272\300/.iotlink/sdk/IoT_LINK/iot_link/network/lwm2m/wakaama_lw
   1:C:/Users/²Ü¼ÒºÀ/.iotlink/sdk/IoT_LINK/iot_link/network/lwm2m/wakaama_lwm2m/wakaama-master/core\observe.c **** /*----------------------------------------------------------------------------
   2:C:/Users/²Ü¼ÒºÀ/.iotlink/sdk/IoT_LINK/iot_link/network/lwm2m/wakaama_lwm2m/wakaama-master/core\observe.c ****  * Copyright (c) <2016-2018>, <Huawei Technologies Co., Ltd>
   3:C:/Users/²Ü¼ÒºÀ/.iotlink/sdk/IoT_LINK/iot_link/network/lwm2m/wakaama_lwm2m/wakaama-master/core\observe.c ****  * All rights reserved.
   4:C:/Users/²Ü¼ÒºÀ/.iotlink/sdk/IoT_LINK/iot_link/network/lwm2m/wakaama_lwm2m/wakaama-master/core\observe.c ****  * Redistribution and use in source and binary forms, with or without modification,
   5:C:/Users/²Ü¼ÒºÀ/.iotlink/sdk/IoT_LINK/iot_link/network/lwm2m/wakaama_lwm2m/wakaama-master/core\observe.c ****  * are permitted provided that the following conditions are met:
   6:C:/Users/²Ü¼ÒºÀ/.iotlink/sdk/IoT_LINK/iot_link/network/lwm2m/wakaama_lwm2m/wakaama-master/core\observe.c ****  * 1. Redistributions of source code must retain the above copyright notice, this list of
   7:C:/Users/²Ü¼ÒºÀ/.iotlink/sdk/IoT_LINK/iot_link/network/lwm2m/wakaama_lwm2m/wakaama-master/core\observe.c ****  * conditions and the following disclaimer.
   8:C:/Users/²Ü¼ÒºÀ/.iotlink/sdk/IoT_LINK/iot_link/network/lwm2m/wakaama_lwm2m/wakaama-master/core\observe.c ****  * 2. Redistributions in binary form must reproduce the above copyright notice, this list
   9:C:/Users/²Ü¼ÒºÀ/.iotlink/sdk/IoT_LINK/iot_link/network/lwm2m/wakaama_lwm2m/wakaama-master/core\observe.c ****  * of conditions and the following disclaimer in the documentation and/or other materials
  10:C:/Users/²Ü¼ÒºÀ/.iotlink/sdk/IoT_LINK/iot_link/network/lwm2m/wakaama_lwm2m/wakaama-master/core\observe.c ****  * provided with the distribution.
  11:C:/Users/²Ü¼ÒºÀ/.iotlink/sdk/IoT_LINK/iot_link/network/lwm2m/wakaama_lwm2m/wakaama-master/core\observe.c ****  * 3. Neither the name of the copyright holder nor the names of its contributors may be used
  12:C:/Users/²Ü¼ÒºÀ/.iotlink/sdk/IoT_LINK/iot_link/network/lwm2m/wakaama_lwm2m/wakaama-master/core\observe.c ****  * to endorse or promote products derived from this software without specific prior written
  13:C:/Users/²Ü¼ÒºÀ/.iotlink/sdk/IoT_LINK/iot_link/network/lwm2m/wakaama_lwm2m/wakaama-master/core\observe.c ****  * permission.
  14:C:/Users/²Ü¼ÒºÀ/.iotlink/sdk/IoT_LINK/iot_link/network/lwm2m/wakaama_lwm2m/wakaama-master/core\observe.c ****  * THIS SOFTWARE IS PROVIDED BY THE COPYRIGHT HOLDERS AND CONTRIBUTORS
  15:C:/Users/²Ü¼ÒºÀ/.iotlink/sdk/IoT_LINK/iot_link/network/lwm2m/wakaama_lwm2m/wakaama-master/core\observe.c ****  * "AS IS" AND ANY EXPRESS OR IMPLIED WARRANTIES, INCLUDING, BUT NOT LIMITED TO,
  16:C:/Users/²Ü¼ÒºÀ/.iotlink/sdk/IoT_LINK/iot_link/network/lwm2m/wakaama_lwm2m/wakaama-master/core\observe.c ****  * THE IMPLIED WARRANTIES OF MERCHANTABILITY AND FITNESS FOR A PARTICULAR
  17:C:/Users/²Ü¼ÒºÀ/.iotlink/sdk/IoT_LINK/iot_link/network/lwm2m/wakaama_lwm2m/wakaama-master/core\observe.c ****  * PURPOSE ARE DISCLAIMED. IN NO EVENT SHALL THE COPYRIGHT HOLDER OR
  18:C:/Users/²Ü¼ÒºÀ/.iotlink/sdk/IoT_LINK/iot_link/network/lwm2m/wakaama_lwm2m/wakaama-master/core\observe.c ****  * CONTRIBUTORS BE LIABLE FOR ANY DIRECT, INDIRECT, INCIDENTAL, SPECIAL,
  19:C:/Users/²Ü¼ÒºÀ/.iotlink/sdk/IoT_LINK/iot_link/network/lwm2m/wakaama_lwm2m/wakaama-master/core\observe.c ****  * EXEMPLARY, OR CONSEQUENTIAL DAMAGES (INCLUDING, BUT NOT LIMITED TO,
  20:C:/Users/²Ü¼ÒºÀ/.iotlink/sdk/IoT_LINK/iot_link/network/lwm2m/wakaama_lwm2m/wakaama-master/core\observe.c ****  * PROCUREMENT OF SUBSTITUTE GOODS OR SERVICES; LOSS OF USE, DATA, OR PROFITS;
  21:C:/Users/²Ü¼ÒºÀ/.iotlink/sdk/IoT_LINK/iot_link/network/lwm2m/wakaama_lwm2m/wakaama-master/core\observe.c ****  * OR BUSINESS INTERRUPTION) HOWEVER CAUSED AND ON ANY THEORY OF LIABILITY,
  22:C:/Users/²Ü¼ÒºÀ/.iotlink/sdk/IoT_LINK/iot_link/network/lwm2m/wakaama_lwm2m/wakaama-master/core\observe.c ****  * WHETHER IN CONTRACT, STRICT LIABILITY, OR TORT (INCLUDING NEGLIGENCE OR
  23:C:/Users/²Ü¼ÒºÀ/.iotlink/sdk/IoT_LINK/iot_link/network/lwm2m/wakaama_lwm2m/wakaama-master/core\observe.c ****  * OTHERWISE) ARISING IN ANY WAY OUT OF THE USE OF THIS SOFTWARE, EVEN IF
  24:C:/Users/²Ü¼ÒºÀ/.iotlink/sdk/IoT_LINK/iot_link/network/lwm2m/wakaama_lwm2m/wakaama-master/core\observe.c ****  * ADVISED OF THE POSSIBILITY OF SUCH DAMAGE.
  25:C:/Users/²Ü¼ÒºÀ/.iotlink/sdk/IoT_LINK/iot_link/network/lwm2m/wakaama_lwm2m/wakaama-master/core\observe.c ****  *---------------------------------------------------------------------------*/
  26:C:/Users/²Ü¼ÒºÀ/.iotlink/sdk/IoT_LINK/iot_link/network/lwm2m/wakaama_lwm2m/wakaama-master/core\observe.c **** /*----------------------------------------------------------------------------
  27:C:/Users/²Ü¼ÒºÀ/.iotlink/sdk/IoT_LINK/iot_link/network/lwm2m/wakaama_lwm2m/wakaama-master/core\observe.c ****  * Notice of Export Control Law
  28:C:/Users/²Ü¼ÒºÀ/.iotlink/sdk/IoT_LINK/iot_link/network/lwm2m/wakaama_lwm2m/wakaama-master/core\observe.c ****  * ===============================================
  29:C:/Users/²Ü¼ÒºÀ/.iotlink/sdk/IoT_LINK/iot_link/network/lwm2m/wakaama_lwm2m/wakaama-master/core\observe.c ****  * Huawei LiteOS may be subject to applicable export control laws and regulations, which might
  30:C:/Users/²Ü¼ÒºÀ/.iotlink/sdk/IoT_LINK/iot_link/network/lwm2m/wakaama_lwm2m/wakaama-master/core\observe.c ****  * include those applicable to Huawei LiteOS of U.S. and the country in which you are located.
ARM GAS  C:\Users\²Ü¼ÒºÀ\AppData\Local\Temp\ccA6NNYh.s 			page 2


  31:C:/Users/²Ü¼ÒºÀ/.iotlink/sdk/IoT_LINK/iot_link/network/lwm2m/wakaama_lwm2m/wakaama-master/core\observe.c ****  * Import, export and usage of Huawei LiteOS in any manner by you shall be in compliance with such
  32:C:/Users/²Ü¼ÒºÀ/.iotlink/sdk/IoT_LINK/iot_link/network/lwm2m/wakaama_lwm2m/wakaama-master/core\observe.c ****  * applicable export control laws and regulations.
  33:C:/Users/²Ü¼ÒºÀ/.iotlink/sdk/IoT_LINK/iot_link/network/lwm2m/wakaama_lwm2m/wakaama-master/core\observe.c ****  *---------------------------------------------------------------------------*/
  34:C:/Users/²Ü¼ÒºÀ/.iotlink/sdk/IoT_LINK/iot_link/network/lwm2m/wakaama_lwm2m/wakaama-master/core\observe.c **** 
  35:C:/Users/²Ü¼ÒºÀ/.iotlink/sdk/IoT_LINK/iot_link/network/lwm2m/wakaama_lwm2m/wakaama-master/core\observe.c **** /*******************************************************************************
  36:C:/Users/²Ü¼ÒºÀ/.iotlink/sdk/IoT_LINK/iot_link/network/lwm2m/wakaama_lwm2m/wakaama-master/core\observe.c ****  *
  37:C:/Users/²Ü¼ÒºÀ/.iotlink/sdk/IoT_LINK/iot_link/network/lwm2m/wakaama_lwm2m/wakaama-master/core\observe.c ****  * Copyright (c) 2013, 2014 Intel Corporation and others.
  38:C:/Users/²Ü¼ÒºÀ/.iotlink/sdk/IoT_LINK/iot_link/network/lwm2m/wakaama_lwm2m/wakaama-master/core\observe.c ****  * All rights reserved. This program and the accompanying materials
  39:C:/Users/²Ü¼ÒºÀ/.iotlink/sdk/IoT_LINK/iot_link/network/lwm2m/wakaama_lwm2m/wakaama-master/core\observe.c ****  * are made available under the terms of the Eclipse Public License v1.0
  40:C:/Users/²Ü¼ÒºÀ/.iotlink/sdk/IoT_LINK/iot_link/network/lwm2m/wakaama_lwm2m/wakaama-master/core\observe.c ****  * and Eclipse Distribution License v1.0 which accompany this distribution.
  41:C:/Users/²Ü¼ÒºÀ/.iotlink/sdk/IoT_LINK/iot_link/network/lwm2m/wakaama_lwm2m/wakaama-master/core\observe.c ****  *
  42:C:/Users/²Ü¼ÒºÀ/.iotlink/sdk/IoT_LINK/iot_link/network/lwm2m/wakaama_lwm2m/wakaama-master/core\observe.c ****  * The Eclipse Public License is available at
  43:C:/Users/²Ü¼ÒºÀ/.iotlink/sdk/IoT_LINK/iot_link/network/lwm2m/wakaama_lwm2m/wakaama-master/core\observe.c ****  *    http://www.eclipse.org/legal/epl-v10.html
  44:C:/Users/²Ü¼ÒºÀ/.iotlink/sdk/IoT_LINK/iot_link/network/lwm2m/wakaama_lwm2m/wakaama-master/core\observe.c ****  * The Eclipse Distribution License is available at
  45:C:/Users/²Ü¼ÒºÀ/.iotlink/sdk/IoT_LINK/iot_link/network/lwm2m/wakaama_lwm2m/wakaama-master/core\observe.c ****  *    http://www.eclipse.org/org/documents/edl-v10.php.
  46:C:/Users/²Ü¼ÒºÀ/.iotlink/sdk/IoT_LINK/iot_link/network/lwm2m/wakaama_lwm2m/wakaama-master/core\observe.c ****  *
  47:C:/Users/²Ü¼ÒºÀ/.iotlink/sdk/IoT_LINK/iot_link/network/lwm2m/wakaama_lwm2m/wakaama-master/core\observe.c ****  * Contributors:
  48:C:/Users/²Ü¼ÒºÀ/.iotlink/sdk/IoT_LINK/iot_link/network/lwm2m/wakaama_lwm2m/wakaama-master/core\observe.c ****  *    David Navarro, Intel Corporation - initial API and implementation
  49:C:/Users/²Ü¼ÒºÀ/.iotlink/sdk/IoT_LINK/iot_link/network/lwm2m/wakaama_lwm2m/wakaama-master/core\observe.c ****  *    Toby Jaffey - Please refer to git log
  50:C:/Users/²Ü¼ÒºÀ/.iotlink/sdk/IoT_LINK/iot_link/network/lwm2m/wakaama_lwm2m/wakaama-master/core\observe.c ****  *    Bosch Software Innovations GmbH - Please refer to git log
  51:C:/Users/²Ü¼ÒºÀ/.iotlink/sdk/IoT_LINK/iot_link/network/lwm2m/wakaama_lwm2m/wakaama-master/core\observe.c ****  *
  52:C:/Users/²Ü¼ÒºÀ/.iotlink/sdk/IoT_LINK/iot_link/network/lwm2m/wakaama_lwm2m/wakaama-master/core\observe.c ****  *******************************************************************************/
  53:C:/Users/²Ü¼ÒºÀ/.iotlink/sdk/IoT_LINK/iot_link/network/lwm2m/wakaama_lwm2m/wakaama-master/core\observe.c **** 
  54:C:/Users/²Ü¼ÒºÀ/.iotlink/sdk/IoT_LINK/iot_link/network/lwm2m/wakaama_lwm2m/wakaama-master/core\observe.c **** /*
  55:C:/Users/²Ü¼ÒºÀ/.iotlink/sdk/IoT_LINK/iot_link/network/lwm2m/wakaama_lwm2m/wakaama-master/core\observe.c ****  Copyright (c) 2013, 2014 Intel Corporation
  56:C:/Users/²Ü¼ÒºÀ/.iotlink/sdk/IoT_LINK/iot_link/network/lwm2m/wakaama_lwm2m/wakaama-master/core\observe.c **** 
  57:C:/Users/²Ü¼ÒºÀ/.iotlink/sdk/IoT_LINK/iot_link/network/lwm2m/wakaama_lwm2m/wakaama-master/core\observe.c ****  Redistribution and use in source and binary forms, with or without modification,
  58:C:/Users/²Ü¼ÒºÀ/.iotlink/sdk/IoT_LINK/iot_link/network/lwm2m/wakaama_lwm2m/wakaama-master/core\observe.c ****  are permitted provided that the following conditions are met:
  59:C:/Users/²Ü¼ÒºÀ/.iotlink/sdk/IoT_LINK/iot_link/network/lwm2m/wakaama_lwm2m/wakaama-master/core\observe.c **** 
  60:C:/Users/²Ü¼ÒºÀ/.iotlink/sdk/IoT_LINK/iot_link/network/lwm2m/wakaama_lwm2m/wakaama-master/core\observe.c ****      * Redistributions of source code must retain the above copyright notice,
  61:C:/Users/²Ü¼ÒºÀ/.iotlink/sdk/IoT_LINK/iot_link/network/lwm2m/wakaama_lwm2m/wakaama-master/core\observe.c ****        this list of conditions and the following disclaimer.
  62:C:/Users/²Ü¼ÒºÀ/.iotlink/sdk/IoT_LINK/iot_link/network/lwm2m/wakaama_lwm2m/wakaama-master/core\observe.c ****      * Redistributions in binary form must reproduce the above copyright notice,
  63:C:/Users/²Ü¼ÒºÀ/.iotlink/sdk/IoT_LINK/iot_link/network/lwm2m/wakaama_lwm2m/wakaama-master/core\observe.c ****        this list of conditions and the following disclaimer in the documentation
  64:C:/Users/²Ü¼ÒºÀ/.iotlink/sdk/IoT_LINK/iot_link/network/lwm2m/wakaama_lwm2m/wakaama-master/core\observe.c ****        and/or other materials provided with the distribution.
  65:C:/Users/²Ü¼ÒºÀ/.iotlink/sdk/IoT_LINK/iot_link/network/lwm2m/wakaama_lwm2m/wakaama-master/core\observe.c ****      * Neither the name of Intel Corporation nor the names of its contributors
  66:C:/Users/²Ü¼ÒºÀ/.iotlink/sdk/IoT_LINK/iot_link/network/lwm2m/wakaama_lwm2m/wakaama-master/core\observe.c ****        may be used to endorse or promote products derived from this software
  67:C:/Users/²Ü¼ÒºÀ/.iotlink/sdk/IoT_LINK/iot_link/network/lwm2m/wakaama_lwm2m/wakaama-master/core\observe.c ****        without specific prior written permission.
  68:C:/Users/²Ü¼ÒºÀ/.iotlink/sdk/IoT_LINK/iot_link/network/lwm2m/wakaama_lwm2m/wakaama-master/core\observe.c **** 
  69:C:/Users/²Ü¼ÒºÀ/.iotlink/sdk/IoT_LINK/iot_link/network/lwm2m/wakaama_lwm2m/wakaama-master/core\observe.c ****  THIS SOFTWARE IS PROVIDED BY THE COPYRIGHT HOLDERS AND CONTRIBUTORS "AS IS" AND
  70:C:/Users/²Ü¼ÒºÀ/.iotlink/sdk/IoT_LINK/iot_link/network/lwm2m/wakaama_lwm2m/wakaama-master/core\observe.c ****  ANY EXPRESS OR IMPLIED WARRANTIES, INCLUDING, BUT NOT LIMITED TO, THE IMPLIED
  71:C:/Users/²Ü¼ÒºÀ/.iotlink/sdk/IoT_LINK/iot_link/network/lwm2m/wakaama_lwm2m/wakaama-master/core\observe.c ****  WARRANTIES OF MERCHANTABILITY AND FITNESS FOR A PARTICULAR PURPOSE ARE DISCLAIMED.
  72:C:/Users/²Ü¼ÒºÀ/.iotlink/sdk/IoT_LINK/iot_link/network/lwm2m/wakaama_lwm2m/wakaama-master/core\observe.c ****  IN NO EVENT SHALL THE COPYRIGHT OWNER OR CONTRIBUTORS BE LIABLE FOR ANY DIRECT,
  73:C:/Users/²Ü¼ÒºÀ/.iotlink/sdk/IoT_LINK/iot_link/network/lwm2m/wakaama_lwm2m/wakaama-master/core\observe.c ****  INDIRECT, INCIDENTAL, SPECIAL, EXEMPLARY, OR CONSEQUENTIAL DAMAGES (INCLUDING,
  74:C:/Users/²Ü¼ÒºÀ/.iotlink/sdk/IoT_LINK/iot_link/network/lwm2m/wakaama_lwm2m/wakaama-master/core\observe.c ****  BUT NOT LIMITED TO, PROCUREMENT OF SUBSTITUTE GOODS OR SERVICES; LOSS OF USE,
  75:C:/Users/²Ü¼ÒºÀ/.iotlink/sdk/IoT_LINK/iot_link/network/lwm2m/wakaama_lwm2m/wakaama-master/core\observe.c ****  DATA, OR PROFITS; OR BUSINESS INTERRUPTION) HOWEVER CAUSED AND ON ANY THEORY OF
  76:C:/Users/²Ü¼ÒºÀ/.iotlink/sdk/IoT_LINK/iot_link/network/lwm2m/wakaama_lwm2m/wakaama-master/core\observe.c ****  LIABILITY, WHETHER IN CONTRACT, STRICT LIABILITY, OR TORT (INCLUDING NEGLIGENCE OR
  77:C:/Users/²Ü¼ÒºÀ/.iotlink/sdk/IoT_LINK/iot_link/network/lwm2m/wakaama_lwm2m/wakaama-master/core\observe.c ****  OTHERWISE) ARISING IN ANY WAY OUT OF THE USE OF THIS SOFTWARE, EVEN IF ADVISED OF
  78:C:/Users/²Ü¼ÒºÀ/.iotlink/sdk/IoT_LINK/iot_link/network/lwm2m/wakaama_lwm2m/wakaama-master/core\observe.c ****  THE POSSIBILITY OF SUCH DAMAGE.
  79:C:/Users/²Ü¼ÒºÀ/.iotlink/sdk/IoT_LINK/iot_link/network/lwm2m/wakaama_lwm2m/wakaama-master/core\observe.c **** 
  80:C:/Users/²Ü¼ÒºÀ/.iotlink/sdk/IoT_LINK/iot_link/network/lwm2m/wakaama_lwm2m/wakaama-master/core\observe.c ****  David Navarro <david.navarro@intel.com>
  81:C:/Users/²Ü¼ÒºÀ/.iotlink/sdk/IoT_LINK/iot_link/network/lwm2m/wakaama_lwm2m/wakaama-master/core\observe.c **** 
  82:C:/Users/²Ü¼ÒºÀ/.iotlink/sdk/IoT_LINK/iot_link/network/lwm2m/wakaama_lwm2m/wakaama-master/core\observe.c **** */
  83:C:/Users/²Ü¼ÒºÀ/.iotlink/sdk/IoT_LINK/iot_link/network/lwm2m/wakaama_lwm2m/wakaama-master/core\observe.c **** 
  84:C:/Users/²Ü¼ÒºÀ/.iotlink/sdk/IoT_LINK/iot_link/network/lwm2m/wakaama_lwm2m/wakaama-master/core\observe.c **** #include "internals.h"
  85:C:/Users/²Ü¼ÒºÀ/.iotlink/sdk/IoT_LINK/iot_link/network/lwm2m/wakaama_lwm2m/wakaama-master/core\observe.c **** #include <osal.h>
  86:C:/Users/²Ü¼ÒºÀ/.iotlink/sdk/IoT_LINK/iot_link/network/lwm2m/wakaama_lwm2m/wakaama-master/core\observe.c **** #include <stdio.h>
  87:C:/Users/²Ü¼ÒºÀ/.iotlink/sdk/IoT_LINK/iot_link/network/lwm2m/wakaama_lwm2m/wakaama-master/core\observe.c **** 
ARM GAS  C:\Users\²Ü¼ÒºÀ\AppData\Local\Temp\ccA6NNYh.s 			page 3


  88:C:/Users/²Ü¼ÒºÀ/.iotlink/sdk/IoT_LINK/iot_link/network/lwm2m/wakaama_lwm2m/wakaama-master/core\observe.c **** 
  89:C:/Users/²Ü¼ÒºÀ/.iotlink/sdk/IoT_LINK/iot_link/network/lwm2m/wakaama_lwm2m/wakaama-master/core\observe.c **** #ifdef LWM2M_CLIENT_MODE
  90:C:/Users/²Ü¼ÒºÀ/.iotlink/sdk/IoT_LINK/iot_link/network/lwm2m/wakaama_lwm2m/wakaama-master/core\observe.c **** 
  91:C:/Users/²Ü¼ÒºÀ/.iotlink/sdk/IoT_LINK/iot_link/network/lwm2m/wakaama_lwm2m/wakaama-master/core\observe.c **** #define RES_M_STATE  3
  92:C:/Users/²Ü¼ÒºÀ/.iotlink/sdk/IoT_LINK/iot_link/network/lwm2m/wakaama_lwm2m/wakaama-master/core\observe.c **** 
  93:C:/Users/²Ü¼ÒºÀ/.iotlink/sdk/IoT_LINK/iot_link/network/lwm2m/wakaama_lwm2m/wakaama-master/core\observe.c **** static lwm2m_transaction_callback_t  observe_call_back;
  94:C:/Users/²Ü¼ÒºÀ/.iotlink/sdk/IoT_LINK/iot_link/network/lwm2m/wakaama_lwm2m/wakaama-master/core\observe.c **** 
  95:C:/Users/²Ü¼ÒºÀ/.iotlink/sdk/IoT_LINK/iot_link/network/lwm2m/wakaama_lwm2m/wakaama-master/core\observe.c **** void lwm2m_register_observe_ack_call_back(lwm2m_transaction_callback_t callback)
  96:C:/Users/²Ü¼ÒºÀ/.iotlink/sdk/IoT_LINK/iot_link/network/lwm2m/wakaama_lwm2m/wakaama-master/core\observe.c **** {
  97:C:/Users/²Ü¼ÒºÀ/.iotlink/sdk/IoT_LINK/iot_link/network/lwm2m/wakaama_lwm2m/wakaama-master/core\observe.c ****     observe_call_back = callback;
  98:C:/Users/²Ü¼ÒºÀ/.iotlink/sdk/IoT_LINK/iot_link/network/lwm2m/wakaama_lwm2m/wakaama-master/core\observe.c **** }
  99:C:/Users/²Ü¼ÒºÀ/.iotlink/sdk/IoT_LINK/iot_link/network/lwm2m/wakaama_lwm2m/wakaama-master/core\observe.c **** 
 100:C:/Users/²Ü¼ÒºÀ/.iotlink/sdk/IoT_LINK/iot_link/network/lwm2m/wakaama_lwm2m/wakaama-master/core\observe.c **** 
 101:C:/Users/²Ü¼ÒºÀ/.iotlink/sdk/IoT_LINK/iot_link/network/lwm2m/wakaama_lwm2m/wakaama-master/core\observe.c **** static lwm2m_observed_t *prv_findObserved(lwm2m_context_t *contextP,
  29              		.loc 1 101 26 view -0
  30              		.cfi_startproc
  31              		@ args = 0, pretend = 0, frame = 0
  32              		@ frame_needed = 0, uses_anonymous_args = 0
  33              		.loc 1 101 26 is_stmt 0 view .LVU1
  34 0000 10B5     		push	{r4, lr}
  35              	.LCFI0:
  36              		.cfi_def_cfa_offset 8
  37              		.cfi_offset 4, -8
  38              		.cfi_offset 14, -4
  39              	.L2:
  40              	.LVL1:
 102:C:/Users/²Ü¼ÒºÀ/.iotlink/sdk/IoT_LINK/iot_link/network/lwm2m/wakaama_lwm2m/wakaama-master/core\observe.c ****         lwm2m_uri_t *uriP)
 103:C:/Users/²Ü¼ÒºÀ/.iotlink/sdk/IoT_LINK/iot_link/network/lwm2m/wakaama_lwm2m/wakaama-master/core\observe.c **** {
 104:C:/Users/²Ü¼ÒºÀ/.iotlink/sdk/IoT_LINK/iot_link/network/lwm2m/wakaama_lwm2m/wakaama-master/core\observe.c ****     lwm2m_observed_t *targetP;
 105:C:/Users/²Ü¼ÒºÀ/.iotlink/sdk/IoT_LINK/iot_link/network/lwm2m/wakaama_lwm2m/wakaama-master/core\observe.c **** 
 106:C:/Users/²Ü¼ÒºÀ/.iotlink/sdk/IoT_LINK/iot_link/network/lwm2m/wakaama_lwm2m/wakaama-master/core\observe.c ****     targetP = contextP->observedList;
 107:C:/Users/²Ü¼ÒºÀ/.iotlink/sdk/IoT_LINK/iot_link/network/lwm2m/wakaama_lwm2m/wakaama-master/core\observe.c ****     while (targetP != NULL
  41              		.loc 1 107 11 is_stmt 1 view .LVU2
  42 0002 98B1     		cbz	r0, .L1
 108:C:/Users/²Ü¼ÒºÀ/.iotlink/sdk/IoT_LINK/iot_link/network/lwm2m/wakaama_lwm2m/wakaama-master/core\observe.c ****             && (targetP->uri.objectId != uriP->objectId
  43              		.loc 1 108 13 is_stmt 0 view .LVU3
  44 0004 C288     		ldrh	r2, [r0, #6]
  45 0006 4B88     		ldrh	r3, [r1, #2]
  46 0008 9A42     		cmp	r2, r3
  47 000a 10D1     		bne	.L4
 109:C:/Users/²Ü¼ÒºÀ/.iotlink/sdk/IoT_LINK/iot_link/network/lwm2m/wakaama_lwm2m/wakaama-master/core\observe.c ****                 || targetP->uri.flag != uriP->flag
  48              		.loc 1 109 45 view .LVU4
  49 000c 0B78     		ldrb	r3, [r1]	@ zero_extendqisi2
  50              		.loc 1 109 17 view .LVU5
  51 000e 0279     		ldrb	r2, [r0, #4]	@ zero_extendqisi2
  52 0010 9A42     		cmp	r2, r3
  53 0012 0CD1     		bne	.L4
 110:C:/Users/²Ü¼ÒºÀ/.iotlink/sdk/IoT_LINK/iot_link/network/lwm2m/wakaama_lwm2m/wakaama-master/core\observe.c ****                 || (LWM2M_URI_IS_SET_INSTANCE(uriP) && targetP->uri.instanceId != uriP->instanceId)
  54              		.loc 1 110 17 view .LVU6
  55 0014 9A07     		lsls	r2, r3, #30
  56 0016 03D5     		bpl	.L5
  57              		.loc 1 110 53 view .LVU7
  58 0018 0489     		ldrh	r4, [r0, #8]
  59 001a 8A88     		ldrh	r2, [r1, #4]
  60 001c 9442     		cmp	r4, r2
  61 001e 06D1     		bne	.L4
  62              	.L5:
ARM GAS  C:\Users\²Ü¼ÒºÀ\AppData\Local\Temp\ccA6NNYh.s 			page 4


 111:C:/Users/²Ü¼ÒºÀ/.iotlink/sdk/IoT_LINK/iot_link/network/lwm2m/wakaama_lwm2m/wakaama-master/core\observe.c ****                 || (LWM2M_URI_IS_SET_RESOURCE(uriP) && targetP->uri.resourceId != uriP->resourceId)
  63              		.loc 1 111 17 view .LVU8
  64 0020 DB07     		lsls	r3, r3, #31
  65 0022 03D5     		bpl	.L1
  66              		.loc 1 111 53 view .LVU9
  67 0024 4289     		ldrh	r2, [r0, #10]
  68 0026 CB88     		ldrh	r3, [r1, #6]
  69 0028 9A42     		cmp	r2, r3
  70 002a 00D1     		bne	.L4
  71              	.L1:
 112:C:/Users/²Ü¼ÒºÀ/.iotlink/sdk/IoT_LINK/iot_link/network/lwm2m/wakaama_lwm2m/wakaama-master/core\observe.c ****     {
 113:C:/Users/²Ü¼ÒºÀ/.iotlink/sdk/IoT_LINK/iot_link/network/lwm2m/wakaama_lwm2m/wakaama-master/core\observe.c ****         targetP = targetP->next;
 114:C:/Users/²Ü¼ÒºÀ/.iotlink/sdk/IoT_LINK/iot_link/network/lwm2m/wakaama_lwm2m/wakaama-master/core\observe.c ****     }
 115:C:/Users/²Ü¼ÒºÀ/.iotlink/sdk/IoT_LINK/iot_link/network/lwm2m/wakaama_lwm2m/wakaama-master/core\observe.c **** 
 116:C:/Users/²Ü¼ÒºÀ/.iotlink/sdk/IoT_LINK/iot_link/network/lwm2m/wakaama_lwm2m/wakaama-master/core\observe.c ****     return targetP;
 117:C:/Users/²Ü¼ÒºÀ/.iotlink/sdk/IoT_LINK/iot_link/network/lwm2m/wakaama_lwm2m/wakaama-master/core\observe.c **** }
  72              		.loc 1 117 1 view .LVU10
  73 002c 10BD     		pop	{r4, pc}
  74              	.L4:
 113:C:/Users/²Ü¼ÒºÀ/.iotlink/sdk/IoT_LINK/iot_link/network/lwm2m/wakaama_lwm2m/wakaama-master/core\observe.c ****     }
  75              		.loc 1 113 9 is_stmt 1 view .LVU11
 113:C:/Users/²Ü¼ÒºÀ/.iotlink/sdk/IoT_LINK/iot_link/network/lwm2m/wakaama_lwm2m/wakaama-master/core\observe.c ****     }
  76              		.loc 1 113 17 is_stmt 0 view .LVU12
  77 002e 0068     		ldr	r0, [r0]
  78              	.LVL2:
 113:C:/Users/²Ü¼ÒºÀ/.iotlink/sdk/IoT_LINK/iot_link/network/lwm2m/wakaama_lwm2m/wakaama-master/core\observe.c ****     }
  79              		.loc 1 113 17 view .LVU13
  80 0030 E7E7     		b	.L2
  81              		.cfi_endproc
  82              	.LFE21:
  84              		.section	.text.prv_unlinkObserved.isra.0,"ax",%progbits
  85              		.align	1
  86              		.syntax unified
  87              		.thumb
  88              		.thumb_func
  89              		.fpu fpv4-sp-d16
  91              	prv_unlinkObserved.isra.0:
  92              	.LVL3:
  93              	.LFB22:
 118:C:/Users/²Ü¼ÒºÀ/.iotlink/sdk/IoT_LINK/iot_link/network/lwm2m/wakaama_lwm2m/wakaama-master/core\observe.c **** 
 119:C:/Users/²Ü¼ÒºÀ/.iotlink/sdk/IoT_LINK/iot_link/network/lwm2m/wakaama_lwm2m/wakaama-master/core\observe.c **** static void prv_unlinkObserved(lwm2m_context_t *contextP,
  94              		.loc 1 119 13 is_stmt 1 view -0
  95              		.cfi_startproc
  96              		@ args = 0, pretend = 0, frame = 0
  97              		@ frame_needed = 0, uses_anonymous_args = 0
  98              		@ link register save eliminated.
 120:C:/Users/²Ü¼ÒºÀ/.iotlink/sdk/IoT_LINK/iot_link/network/lwm2m/wakaama_lwm2m/wakaama-master/core\observe.c ****                                lwm2m_observed_t *observedP)
 121:C:/Users/²Ü¼ÒºÀ/.iotlink/sdk/IoT_LINK/iot_link/network/lwm2m/wakaama_lwm2m/wakaama-master/core\observe.c **** {
 122:C:/Users/²Ü¼ÒºÀ/.iotlink/sdk/IoT_LINK/iot_link/network/lwm2m/wakaama_lwm2m/wakaama-master/core\observe.c ****     if (contextP->observedList == observedP)
  99              		.loc 1 122 5 view .LVU15
 100              		.loc 1 122 17 is_stmt 0 view .LVU16
 101 0000 0368     		ldr	r3, [r0]
 102              		.loc 1 122 8 view .LVU17
 103 0002 8B42     		cmp	r3, r1
 104 0004 02D1     		bne	.L16
 123:C:/Users/²Ü¼ÒºÀ/.iotlink/sdk/IoT_LINK/iot_link/network/lwm2m/wakaama_lwm2m/wakaama-master/core\observe.c ****     {
 124:C:/Users/²Ü¼ÒºÀ/.iotlink/sdk/IoT_LINK/iot_link/network/lwm2m/wakaama_lwm2m/wakaama-master/core\observe.c ****         contextP->observedList = contextP->observedList->next;
ARM GAS  C:\Users\²Ü¼ÒºÀ\AppData\Local\Temp\ccA6NNYh.s 			page 5


 105              		.loc 1 124 9 is_stmt 1 view .LVU18
 106              		.loc 1 124 56 is_stmt 0 view .LVU19
 107 0006 1B68     		ldr	r3, [r3]
 108              		.loc 1 124 32 view .LVU20
 109 0008 0360     		str	r3, [r0]
 110 000a 7047     		bx	lr
 111              	.L16:
 112              	.LVL4:
 113              	.LBB10:
 125:C:/Users/²Ü¼ÒºÀ/.iotlink/sdk/IoT_LINK/iot_link/network/lwm2m/wakaama_lwm2m/wakaama-master/core\observe.c ****     }
 126:C:/Users/²Ü¼ÒºÀ/.iotlink/sdk/IoT_LINK/iot_link/network/lwm2m/wakaama_lwm2m/wakaama-master/core\observe.c ****     else
 127:C:/Users/²Ü¼ÒºÀ/.iotlink/sdk/IoT_LINK/iot_link/network/lwm2m/wakaama_lwm2m/wakaama-master/core\observe.c ****     {
 128:C:/Users/²Ü¼ÒºÀ/.iotlink/sdk/IoT_LINK/iot_link/network/lwm2m/wakaama_lwm2m/wakaama-master/core\observe.c ****         lwm2m_observed_t *parentP;
 129:C:/Users/²Ü¼ÒºÀ/.iotlink/sdk/IoT_LINK/iot_link/network/lwm2m/wakaama_lwm2m/wakaama-master/core\observe.c **** 
 130:C:/Users/²Ü¼ÒºÀ/.iotlink/sdk/IoT_LINK/iot_link/network/lwm2m/wakaama_lwm2m/wakaama-master/core\observe.c ****         parentP = contextP->observedList;
 131:C:/Users/²Ü¼ÒºÀ/.iotlink/sdk/IoT_LINK/iot_link/network/lwm2m/wakaama_lwm2m/wakaama-master/core\observe.c ****         while (parentP->next != NULL
 114              		.loc 1 131 15 is_stmt 1 view .LVU21
 115 000c 1A46     		mov	r2, r3
 116              		.loc 1 131 23 is_stmt 0 view .LVU22
 117 000e 1B68     		ldr	r3, [r3]
 118              	.LVL5:
 119              		.loc 1 131 15 view .LVU23
 120 0010 1BB1     		cbz	r3, .L15
 132:C:/Users/²Ü¼ÒºÀ/.iotlink/sdk/IoT_LINK/iot_link/network/lwm2m/wakaama_lwm2m/wakaama-master/core\observe.c ****                 && parentP->next != observedP)
 121              		.loc 1 132 17 view .LVU24
 122 0012 9942     		cmp	r1, r3
 123 0014 FAD1     		bne	.L16
 133:C:/Users/²Ü¼ÒºÀ/.iotlink/sdk/IoT_LINK/iot_link/network/lwm2m/wakaama_lwm2m/wakaama-master/core\observe.c ****         {
 134:C:/Users/²Ü¼ÒºÀ/.iotlink/sdk/IoT_LINK/iot_link/network/lwm2m/wakaama_lwm2m/wakaama-master/core\observe.c ****             parentP = parentP->next;
 135:C:/Users/²Ü¼ÒºÀ/.iotlink/sdk/IoT_LINK/iot_link/network/lwm2m/wakaama_lwm2m/wakaama-master/core\observe.c ****         }
 136:C:/Users/²Ü¼ÒºÀ/.iotlink/sdk/IoT_LINK/iot_link/network/lwm2m/wakaama_lwm2m/wakaama-master/core\observe.c ****         if (parentP->next != NULL)
 124              		.loc 1 136 9 is_stmt 1 view .LVU25
 137:C:/Users/²Ü¼ÒºÀ/.iotlink/sdk/IoT_LINK/iot_link/network/lwm2m/wakaama_lwm2m/wakaama-master/core\observe.c ****         {
 138:C:/Users/²Ü¼ÒºÀ/.iotlink/sdk/IoT_LINK/iot_link/network/lwm2m/wakaama_lwm2m/wakaama-master/core\observe.c ****             parentP->next = parentP->next->next;
 125              		.loc 1 138 13 view .LVU26
 126              		.loc 1 138 42 is_stmt 0 view .LVU27
 127 0016 0B68     		ldr	r3, [r1]
 128              		.loc 1 138 27 view .LVU28
 129 0018 1360     		str	r3, [r2]
 130              	.L15:
 131              		.loc 1 138 27 view .LVU29
 132              	.LBE10:
 139:C:/Users/²Ü¼ÒºÀ/.iotlink/sdk/IoT_LINK/iot_link/network/lwm2m/wakaama_lwm2m/wakaama-master/core\observe.c ****         }
 140:C:/Users/²Ü¼ÒºÀ/.iotlink/sdk/IoT_LINK/iot_link/network/lwm2m/wakaama_lwm2m/wakaama-master/core\observe.c ****     }
 141:C:/Users/²Ü¼ÒºÀ/.iotlink/sdk/IoT_LINK/iot_link/network/lwm2m/wakaama_lwm2m/wakaama-master/core\observe.c **** }
 133              		.loc 1 141 1 view .LVU30
 134 001a 7047     		bx	lr
 135              		.cfi_endproc
 136              	.LFE22:
 138              		.section	.text.prv_getWatcher,"ax",%progbits
 139              		.align	1
 140              		.syntax unified
 141              		.thumb
 142              		.thumb_func
 143              		.fpu fpv4-sp-d16
 145              	prv_getWatcher:
 146              	.LVL6:
ARM GAS  C:\Users\²Ü¼ÒºÀ\AppData\Local\Temp\ccA6NNYh.s 			page 6


 147              	.LFB8:
 142:C:/Users/²Ü¼ÒºÀ/.iotlink/sdk/IoT_LINK/iot_link/network/lwm2m/wakaama_lwm2m/wakaama-master/core\observe.c **** 
 143:C:/Users/²Ü¼ÒºÀ/.iotlink/sdk/IoT_LINK/iot_link/network/lwm2m/wakaama_lwm2m/wakaama-master/core\observe.c **** static lwm2m_watcher_t *prv_findWatcher(lwm2m_observed_t *observedP,
 144:C:/Users/²Ü¼ÒºÀ/.iotlink/sdk/IoT_LINK/iot_link/network/lwm2m/wakaama_lwm2m/wakaama-master/core\observe.c ****                                         lwm2m_server_t *serverP)
 145:C:/Users/²Ü¼ÒºÀ/.iotlink/sdk/IoT_LINK/iot_link/network/lwm2m/wakaama_lwm2m/wakaama-master/core\observe.c **** {
 146:C:/Users/²Ü¼ÒºÀ/.iotlink/sdk/IoT_LINK/iot_link/network/lwm2m/wakaama_lwm2m/wakaama-master/core\observe.c ****     lwm2m_watcher_t *targetP;
 147:C:/Users/²Ü¼ÒºÀ/.iotlink/sdk/IoT_LINK/iot_link/network/lwm2m/wakaama_lwm2m/wakaama-master/core\observe.c **** 
 148:C:/Users/²Ü¼ÒºÀ/.iotlink/sdk/IoT_LINK/iot_link/network/lwm2m/wakaama_lwm2m/wakaama-master/core\observe.c ****     targetP = observedP->watcherList;
 149:C:/Users/²Ü¼ÒºÀ/.iotlink/sdk/IoT_LINK/iot_link/network/lwm2m/wakaama_lwm2m/wakaama-master/core\observe.c ****     while (targetP != NULL
 150:C:/Users/²Ü¼ÒºÀ/.iotlink/sdk/IoT_LINK/iot_link/network/lwm2m/wakaama_lwm2m/wakaama-master/core\observe.c ****             && targetP->server != serverP)
 151:C:/Users/²Ü¼ÒºÀ/.iotlink/sdk/IoT_LINK/iot_link/network/lwm2m/wakaama_lwm2m/wakaama-master/core\observe.c ****     {
 152:C:/Users/²Ü¼ÒºÀ/.iotlink/sdk/IoT_LINK/iot_link/network/lwm2m/wakaama_lwm2m/wakaama-master/core\observe.c ****         targetP = targetP->next;
 153:C:/Users/²Ü¼ÒºÀ/.iotlink/sdk/IoT_LINK/iot_link/network/lwm2m/wakaama_lwm2m/wakaama-master/core\observe.c ****     }
 154:C:/Users/²Ü¼ÒºÀ/.iotlink/sdk/IoT_LINK/iot_link/network/lwm2m/wakaama_lwm2m/wakaama-master/core\observe.c **** 
 155:C:/Users/²Ü¼ÒºÀ/.iotlink/sdk/IoT_LINK/iot_link/network/lwm2m/wakaama_lwm2m/wakaama-master/core\observe.c ****     return targetP;
 156:C:/Users/²Ü¼ÒºÀ/.iotlink/sdk/IoT_LINK/iot_link/network/lwm2m/wakaama_lwm2m/wakaama-master/core\observe.c **** }
 157:C:/Users/²Ü¼ÒºÀ/.iotlink/sdk/IoT_LINK/iot_link/network/lwm2m/wakaama_lwm2m/wakaama-master/core\observe.c **** 
 158:C:/Users/²Ü¼ÒºÀ/.iotlink/sdk/IoT_LINK/iot_link/network/lwm2m/wakaama_lwm2m/wakaama-master/core\observe.c **** static lwm2m_watcher_t *prv_getWatcher(lwm2m_context_t *contextP,
 159:C:/Users/²Ü¼ÒºÀ/.iotlink/sdk/IoT_LINK/iot_link/network/lwm2m/wakaama_lwm2m/wakaama-master/core\observe.c ****                                        lwm2m_uri_t *uriP,
 160:C:/Users/²Ü¼ÒºÀ/.iotlink/sdk/IoT_LINK/iot_link/network/lwm2m/wakaama_lwm2m/wakaama-master/core\observe.c ****                                        lwm2m_server_t *serverP)
 161:C:/Users/²Ü¼ÒºÀ/.iotlink/sdk/IoT_LINK/iot_link/network/lwm2m/wakaama_lwm2m/wakaama-master/core\observe.c **** {
 148              		.loc 1 161 1 is_stmt 1 view -0
 149              		.cfi_startproc
 150              		@ args = 0, pretend = 0, frame = 0
 151              		@ frame_needed = 0, uses_anonymous_args = 0
 162:C:/Users/²Ü¼ÒºÀ/.iotlink/sdk/IoT_LINK/iot_link/network/lwm2m/wakaama_lwm2m/wakaama-master/core\observe.c ****     lwm2m_observed_t *observedP;
 152              		.loc 1 162 5 view .LVU32
 163:C:/Users/²Ü¼ÒºÀ/.iotlink/sdk/IoT_LINK/iot_link/network/lwm2m/wakaama_lwm2m/wakaama-master/core\observe.c ****     bool allocatedObserver;
 153              		.loc 1 163 5 view .LVU33
 164:C:/Users/²Ü¼ÒºÀ/.iotlink/sdk/IoT_LINK/iot_link/network/lwm2m/wakaama_lwm2m/wakaama-master/core\observe.c ****     lwm2m_watcher_t *watcherP;
 154              		.loc 1 164 5 view .LVU34
 165:C:/Users/²Ü¼ÒºÀ/.iotlink/sdk/IoT_LINK/iot_link/network/lwm2m/wakaama_lwm2m/wakaama-master/core\observe.c **** 
 166:C:/Users/²Ü¼ÒºÀ/.iotlink/sdk/IoT_LINK/iot_link/network/lwm2m/wakaama_lwm2m/wakaama-master/core\observe.c ****     allocatedObserver = false;
 155              		.loc 1 166 5 view .LVU35
 167:C:/Users/²Ü¼ÒºÀ/.iotlink/sdk/IoT_LINK/iot_link/network/lwm2m/wakaama_lwm2m/wakaama-master/core\observe.c **** 
 168:C:/Users/²Ü¼ÒºÀ/.iotlink/sdk/IoT_LINK/iot_link/network/lwm2m/wakaama_lwm2m/wakaama-master/core\observe.c ****     observedP = prv_findObserved(contextP, uriP);
 156              		.loc 1 168 5 view .LVU36
 161:C:/Users/²Ü¼ÒºÀ/.iotlink/sdk/IoT_LINK/iot_link/network/lwm2m/wakaama_lwm2m/wakaama-master/core\observe.c ****     lwm2m_observed_t *observedP;
 157              		.loc 1 161 1 is_stmt 0 view .LVU37
 158 0000 2DE9F041 		push	{r4, r5, r6, r7, r8, lr}
 159              	.LCFI1:
 160              		.cfi_def_cfa_offset 24
 161              		.cfi_offset 4, -24
 162              		.cfi_offset 5, -20
 163              		.cfi_offset 6, -16
 164              		.cfi_offset 7, -12
 165              		.cfi_offset 8, -8
 166              		.cfi_offset 14, -4
 161:C:/Users/²Ü¼ÒºÀ/.iotlink/sdk/IoT_LINK/iot_link/network/lwm2m/wakaama_lwm2m/wakaama-master/core\observe.c ****     lwm2m_observed_t *observedP;
 167              		.loc 1 161 1 view .LVU38
 168 0004 0646     		mov	r6, r0
 169              		.loc 1 168 17 view .LVU39
 170 0006 C069     		ldr	r0, [r0, #28]
 171              	.LVL7:
 161:C:/Users/²Ü¼ÒºÀ/.iotlink/sdk/IoT_LINK/iot_link/network/lwm2m/wakaama_lwm2m/wakaama-master/core\observe.c ****     lwm2m_observed_t *observedP;
 172              		.loc 1 161 1 view .LVU40
 173 0008 0D46     		mov	r5, r1
ARM GAS  C:\Users\²Ü¼ÒºÀ\AppData\Local\Temp\ccA6NNYh.s 			page 7


 174 000a 1746     		mov	r7, r2
 175              		.loc 1 168 17 view .LVU41
 176 000c FFF7FEFF 		bl	prv_findObserved.isra.0
 177              	.LVL8:
 169:C:/Users/²Ü¼ÒºÀ/.iotlink/sdk/IoT_LINK/iot_link/network/lwm2m/wakaama_lwm2m/wakaama-master/core\observe.c ****     if (observedP == NULL)
 178              		.loc 1 169 5 is_stmt 1 view .LVU42
 179              		.loc 1 169 8 is_stmt 0 view .LVU43
 180 0010 0446     		mov	r4, r0
 181 0012 10BB     		cbnz	r0, .L34
 170:C:/Users/²Ü¼ÒºÀ/.iotlink/sdk/IoT_LINK/iot_link/network/lwm2m/wakaama_lwm2m/wakaama-master/core\observe.c ****     {
 171:C:/Users/²Ü¼ÒºÀ/.iotlink/sdk/IoT_LINK/iot_link/network/lwm2m/wakaama_lwm2m/wakaama-master/core\observe.c ****         observedP = (lwm2m_observed_t *)lwm2m_malloc(sizeof(lwm2m_observed_t));
 182              		.loc 1 171 9 is_stmt 1 view .LVU44
 183              		.loc 1 171 41 is_stmt 0 view .LVU45
 184 0014 1020     		movs	r0, #16
 185              	.LVL9:
 186              		.loc 1 171 41 view .LVU46
 187 0016 FFF7FEFF 		bl	lwm2m_malloc
 188              	.LVL10:
 172:C:/Users/²Ü¼ÒºÀ/.iotlink/sdk/IoT_LINK/iot_link/network/lwm2m/wakaama_lwm2m/wakaama-master/core\observe.c ****         if (observedP == NULL) return NULL;
 189              		.loc 1 172 9 is_stmt 1 view .LVU47
 190              		.loc 1 172 12 is_stmt 0 view .LVU48
 191 001a 0446     		mov	r4, r0
 192 001c 18B9     		cbnz	r0, .L26
 193              	.LVL11:
 194              	.L31:
 195              		.loc 1 172 39 view .LVU49
 196 001e 0025     		movs	r5, #0
 197              	.L24:
 173:C:/Users/²Ü¼ÒºÀ/.iotlink/sdk/IoT_LINK/iot_link/network/lwm2m/wakaama_lwm2m/wakaama-master/core\observe.c ****         allocatedObserver = true;
 174:C:/Users/²Ü¼ÒºÀ/.iotlink/sdk/IoT_LINK/iot_link/network/lwm2m/wakaama_lwm2m/wakaama-master/core\observe.c ****         memset(observedP, 0, sizeof(lwm2m_observed_t));
 175:C:/Users/²Ü¼ÒºÀ/.iotlink/sdk/IoT_LINK/iot_link/network/lwm2m/wakaama_lwm2m/wakaama-master/core\observe.c ****         memcpy(&(observedP->uri), uriP, sizeof(lwm2m_uri_t));
 176:C:/Users/²Ü¼ÒºÀ/.iotlink/sdk/IoT_LINK/iot_link/network/lwm2m/wakaama_lwm2m/wakaama-master/core\observe.c ****         osal_mutex_lock(contextP->observe_mutex);
 177:C:/Users/²Ü¼ÒºÀ/.iotlink/sdk/IoT_LINK/iot_link/network/lwm2m/wakaama_lwm2m/wakaama-master/core\observe.c ****         observedP->next = contextP->observedList;
 178:C:/Users/²Ü¼ÒºÀ/.iotlink/sdk/IoT_LINK/iot_link/network/lwm2m/wakaama_lwm2m/wakaama-master/core\observe.c ****         contextP->observedList = observedP;
 179:C:/Users/²Ü¼ÒºÀ/.iotlink/sdk/IoT_LINK/iot_link/network/lwm2m/wakaama_lwm2m/wakaama-master/core\observe.c ****         (void) osal_mutex_unlock(contextP->observe_mutex);
 180:C:/Users/²Ü¼ÒºÀ/.iotlink/sdk/IoT_LINK/iot_link/network/lwm2m/wakaama_lwm2m/wakaama-master/core\observe.c ****     }
 181:C:/Users/²Ü¼ÒºÀ/.iotlink/sdk/IoT_LINK/iot_link/network/lwm2m/wakaama_lwm2m/wakaama-master/core\observe.c **** 
 182:C:/Users/²Ü¼ÒºÀ/.iotlink/sdk/IoT_LINK/iot_link/network/lwm2m/wakaama_lwm2m/wakaama-master/core\observe.c ****     watcherP = prv_findWatcher(observedP, serverP);
 183:C:/Users/²Ü¼ÒºÀ/.iotlink/sdk/IoT_LINK/iot_link/network/lwm2m/wakaama_lwm2m/wakaama-master/core\observe.c ****     if (watcherP == NULL)
 184:C:/Users/²Ü¼ÒºÀ/.iotlink/sdk/IoT_LINK/iot_link/network/lwm2m/wakaama_lwm2m/wakaama-master/core\observe.c ****     {
 185:C:/Users/²Ü¼ÒºÀ/.iotlink/sdk/IoT_LINK/iot_link/network/lwm2m/wakaama_lwm2m/wakaama-master/core\observe.c ****         watcherP = (lwm2m_watcher_t *)lwm2m_malloc(sizeof(lwm2m_watcher_t));
 186:C:/Users/²Ü¼ÒºÀ/.iotlink/sdk/IoT_LINK/iot_link/network/lwm2m/wakaama_lwm2m/wakaama-master/core\observe.c ****         if (watcherP == NULL)
 187:C:/Users/²Ü¼ÒºÀ/.iotlink/sdk/IoT_LINK/iot_link/network/lwm2m/wakaama_lwm2m/wakaama-master/core\observe.c ****         {
 188:C:/Users/²Ü¼ÒºÀ/.iotlink/sdk/IoT_LINK/iot_link/network/lwm2m/wakaama_lwm2m/wakaama-master/core\observe.c ****             if (allocatedObserver == true)
 189:C:/Users/²Ü¼ÒºÀ/.iotlink/sdk/IoT_LINK/iot_link/network/lwm2m/wakaama_lwm2m/wakaama-master/core\observe.c ****             {
 190:C:/Users/²Ü¼ÒºÀ/.iotlink/sdk/IoT_LINK/iot_link/network/lwm2m/wakaama_lwm2m/wakaama-master/core\observe.c ****                 lwm2m_free(observedP);
 191:C:/Users/²Ü¼ÒºÀ/.iotlink/sdk/IoT_LINK/iot_link/network/lwm2m/wakaama_lwm2m/wakaama-master/core\observe.c ****             }
 192:C:/Users/²Ü¼ÒºÀ/.iotlink/sdk/IoT_LINK/iot_link/network/lwm2m/wakaama_lwm2m/wakaama-master/core\observe.c ****             return NULL;
 193:C:/Users/²Ü¼ÒºÀ/.iotlink/sdk/IoT_LINK/iot_link/network/lwm2m/wakaama_lwm2m/wakaama-master/core\observe.c ****         }
 194:C:/Users/²Ü¼ÒºÀ/.iotlink/sdk/IoT_LINK/iot_link/network/lwm2m/wakaama_lwm2m/wakaama-master/core\observe.c ****         memset(watcherP, 0, sizeof(lwm2m_watcher_t));
 195:C:/Users/²Ü¼ÒºÀ/.iotlink/sdk/IoT_LINK/iot_link/network/lwm2m/wakaama_lwm2m/wakaama-master/core\observe.c ****         watcherP->active = false;
 196:C:/Users/²Ü¼ÒºÀ/.iotlink/sdk/IoT_LINK/iot_link/network/lwm2m/wakaama_lwm2m/wakaama-master/core\observe.c ****         watcherP->server = serverP;
 197:C:/Users/²Ü¼ÒºÀ/.iotlink/sdk/IoT_LINK/iot_link/network/lwm2m/wakaama_lwm2m/wakaama-master/core\observe.c ****         osal_mutex_lock(contextP->observe_mutex);
 198:C:/Users/²Ü¼ÒºÀ/.iotlink/sdk/IoT_LINK/iot_link/network/lwm2m/wakaama_lwm2m/wakaama-master/core\observe.c ****         watcherP->next = observedP->watcherList;
 199:C:/Users/²Ü¼ÒºÀ/.iotlink/sdk/IoT_LINK/iot_link/network/lwm2m/wakaama_lwm2m/wakaama-master/core\observe.c ****         observedP->watcherList = watcherP;
 200:C:/Users/²Ü¼ÒºÀ/.iotlink/sdk/IoT_LINK/iot_link/network/lwm2m/wakaama_lwm2m/wakaama-master/core\observe.c ****         (void) osal_mutex_unlock(contextP->observe_mutex);
 201:C:/Users/²Ü¼ÒºÀ/.iotlink/sdk/IoT_LINK/iot_link/network/lwm2m/wakaama_lwm2m/wakaama-master/core\observe.c ****     }
ARM GAS  C:\Users\²Ü¼ÒºÀ\AppData\Local\Temp\ccA6NNYh.s 			page 8


 202:C:/Users/²Ü¼ÒºÀ/.iotlink/sdk/IoT_LINK/iot_link/network/lwm2m/wakaama_lwm2m/wakaama-master/core\observe.c **** 
 203:C:/Users/²Ü¼ÒºÀ/.iotlink/sdk/IoT_LINK/iot_link/network/lwm2m/wakaama_lwm2m/wakaama-master/core\observe.c ****     return watcherP;
 204:C:/Users/²Ü¼ÒºÀ/.iotlink/sdk/IoT_LINK/iot_link/network/lwm2m/wakaama_lwm2m/wakaama-master/core\observe.c **** }
 198              		.loc 1 204 1 view .LVU50
 199 0020 2846     		mov	r0, r5
 200 0022 BDE8F081 		pop	{r4, r5, r6, r7, r8, pc}
 201              	.LVL12:
 202              	.L26:
 173:C:/Users/²Ü¼ÒºÀ/.iotlink/sdk/IoT_LINK/iot_link/network/lwm2m/wakaama_lwm2m/wakaama-master/core\observe.c ****         allocatedObserver = true;
 203              		.loc 1 173 9 is_stmt 1 view .LVU51
 174:C:/Users/²Ü¼ÒºÀ/.iotlink/sdk/IoT_LINK/iot_link/network/lwm2m/wakaama_lwm2m/wakaama-master/core\observe.c ****         memcpy(&(observedP->uri), uriP, sizeof(lwm2m_uri_t));
 204              		.loc 1 174 9 view .LVU52
 205 0026 1022     		movs	r2, #16
 206 0028 0021     		movs	r1, #0
 207 002a FFF7FEFF 		bl	memset
 208              	.LVL13:
 175:C:/Users/²Ü¼ÒºÀ/.iotlink/sdk/IoT_LINK/iot_link/network/lwm2m/wakaama_lwm2m/wakaama-master/core\observe.c ****         osal_mutex_lock(contextP->observe_mutex);
 209              		.loc 1 175 9 view .LVU53
 210 002e 2B68     		ldr	r3, [r5]	@ unaligned
 211 0030 6360     		str	r3, [r4, #4]	@ unaligned
 212 0032 6B68     		ldr	r3, [r5, #4]	@ unaligned
 213 0034 A360     		str	r3, [r4, #8]	@ unaligned
 176:C:/Users/²Ü¼ÒºÀ/.iotlink/sdk/IoT_LINK/iot_link/network/lwm2m/wakaama_lwm2m/wakaama-master/core\observe.c ****         observedP->next = contextP->observedList;
 214              		.loc 1 176 9 view .LVU54
 215 0036 306A     		ldr	r0, [r6, #32]
 216 0038 FFF7FEFF 		bl	osal_mutex_lock
 217              	.LVL14:
 177:C:/Users/²Ü¼ÒºÀ/.iotlink/sdk/IoT_LINK/iot_link/network/lwm2m/wakaama_lwm2m/wakaama-master/core\observe.c ****         contextP->observedList = observedP;
 218              		.loc 1 177 9 view .LVU55
 177:C:/Users/²Ü¼ÒºÀ/.iotlink/sdk/IoT_LINK/iot_link/network/lwm2m/wakaama_lwm2m/wakaama-master/core\observe.c ****         contextP->observedList = observedP;
 219              		.loc 1 177 25 is_stmt 0 view .LVU56
 220 003c F369     		ldr	r3, [r6, #28]
 221 003e 2360     		str	r3, [r4]
 178:C:/Users/²Ü¼ÒºÀ/.iotlink/sdk/IoT_LINK/iot_link/network/lwm2m/wakaama_lwm2m/wakaama-master/core\observe.c ****         (void) osal_mutex_unlock(contextP->observe_mutex);
 222              		.loc 1 178 9 is_stmt 1 view .LVU57
 179:C:/Users/²Ü¼ÒºÀ/.iotlink/sdk/IoT_LINK/iot_link/network/lwm2m/wakaama_lwm2m/wakaama-master/core\observe.c ****     }
 223              		.loc 1 179 16 is_stmt 0 view .LVU58
 224 0040 306A     		ldr	r0, [r6, #32]
 178:C:/Users/²Ü¼ÒºÀ/.iotlink/sdk/IoT_LINK/iot_link/network/lwm2m/wakaama_lwm2m/wakaama-master/core\observe.c ****         (void) osal_mutex_unlock(contextP->observe_mutex);
 225              		.loc 1 178 32 view .LVU59
 226 0042 F461     		str	r4, [r6, #28]
 179:C:/Users/²Ü¼ÒºÀ/.iotlink/sdk/IoT_LINK/iot_link/network/lwm2m/wakaama_lwm2m/wakaama-master/core\observe.c ****     }
 227              		.loc 1 179 9 is_stmt 1 view .LVU60
 179:C:/Users/²Ü¼ÒºÀ/.iotlink/sdk/IoT_LINK/iot_link/network/lwm2m/wakaama_lwm2m/wakaama-master/core\observe.c ****     }
 228              		.loc 1 179 16 is_stmt 0 view .LVU61
 229 0044 FFF7FEFF 		bl	osal_mutex_unlock
 230              	.LVL15:
 173:C:/Users/²Ü¼ÒºÀ/.iotlink/sdk/IoT_LINK/iot_link/network/lwm2m/wakaama_lwm2m/wakaama-master/core\observe.c ****         memset(observedP, 0, sizeof(lwm2m_observed_t));
 231              		.loc 1 173 27 view .LVU62
 232 0048 4FF00108 		mov	r8, #1
 233              	.LVL16:
 234              	.L25:
 182:C:/Users/²Ü¼ÒºÀ/.iotlink/sdk/IoT_LINK/iot_link/network/lwm2m/wakaama_lwm2m/wakaama-master/core\observe.c ****     if (watcherP == NULL)
 235              		.loc 1 182 5 is_stmt 1 view .LVU63
 182:C:/Users/²Ü¼ÒºÀ/.iotlink/sdk/IoT_LINK/iot_link/network/lwm2m/wakaama_lwm2m/wakaama-master/core\observe.c ****     if (watcherP == NULL)
 236              		.loc 1 182 16 is_stmt 0 view .LVU64
 237 004c E568     		ldr	r5, [r4, #12]
ARM GAS  C:\Users\²Ü¼ÒºÀ\AppData\Local\Temp\ccA6NNYh.s 			page 9


 238              	.LVL17:
 239              	.LBB13:
 240              	.LBI13:
 143:C:/Users/²Ü¼ÒºÀ/.iotlink/sdk/IoT_LINK/iot_link/network/lwm2m/wakaama_lwm2m/wakaama-master/core\observe.c ****                                         lwm2m_server_t *serverP)
 241              		.loc 1 143 25 is_stmt 1 view .LVU65
 242              	.LBB14:
 146:C:/Users/²Ü¼ÒºÀ/.iotlink/sdk/IoT_LINK/iot_link/network/lwm2m/wakaama_lwm2m/wakaama-master/core\observe.c **** 
 243              		.loc 1 146 5 view .LVU66
 148:C:/Users/²Ü¼ÒºÀ/.iotlink/sdk/IoT_LINK/iot_link/network/lwm2m/wakaama_lwm2m/wakaama-master/core\observe.c ****     while (targetP != NULL
 244              		.loc 1 148 5 view .LVU67
 149:C:/Users/²Ü¼ÒºÀ/.iotlink/sdk/IoT_LINK/iot_link/network/lwm2m/wakaama_lwm2m/wakaama-master/core\observe.c ****             && targetP->server != serverP)
 245              		.loc 1 149 5 view .LVU68
 246              	.L28:
 149:C:/Users/²Ü¼ÒºÀ/.iotlink/sdk/IoT_LINK/iot_link/network/lwm2m/wakaama_lwm2m/wakaama-master/core\observe.c ****             && targetP->server != serverP)
 247              		.loc 1 149 11 view .LVU69
 248 004e C5B1     		cbz	r5, .L29
 150:C:/Users/²Ü¼ÒºÀ/.iotlink/sdk/IoT_LINK/iot_link/network/lwm2m/wakaama_lwm2m/wakaama-master/core\observe.c ****     {
 249              		.loc 1 150 13 is_stmt 0 view .LVU70
 250 0050 AB68     		ldr	r3, [r5, #8]
 251 0052 9F42     		cmp	r7, r3
 252 0054 E4D0     		beq	.L24
 152:C:/Users/²Ü¼ÒºÀ/.iotlink/sdk/IoT_LINK/iot_link/network/lwm2m/wakaama_lwm2m/wakaama-master/core\observe.c ****     }
 253              		.loc 1 152 9 is_stmt 1 view .LVU71
 152:C:/Users/²Ü¼ÒºÀ/.iotlink/sdk/IoT_LINK/iot_link/network/lwm2m/wakaama_lwm2m/wakaama-master/core\observe.c ****     }
 254              		.loc 1 152 17 is_stmt 0 view .LVU72
 255 0056 2D68     		ldr	r5, [r5]
 256              	.LVL18:
 152:C:/Users/²Ü¼ÒºÀ/.iotlink/sdk/IoT_LINK/iot_link/network/lwm2m/wakaama_lwm2m/wakaama-master/core\observe.c ****     }
 257              		.loc 1 152 17 view .LVU73
 258 0058 F9E7     		b	.L28
 259              	.LVL19:
 260              	.L34:
 152:C:/Users/²Ü¼ÒºÀ/.iotlink/sdk/IoT_LINK/iot_link/network/lwm2m/wakaama_lwm2m/wakaama-master/core\observe.c ****     }
 261              		.loc 1 152 17 view .LVU74
 262              	.LBE14:
 263              	.LBE13:
 166:C:/Users/²Ü¼ÒºÀ/.iotlink/sdk/IoT_LINK/iot_link/network/lwm2m/wakaama_lwm2m/wakaama-master/core\observe.c **** 
 264              		.loc 1 166 23 view .LVU75
 265 005a 4FF00008 		mov	r8, #0
 266 005e F5E7     		b	.L25
 267              	.LVL20:
 268              	.L38:
 194:C:/Users/²Ü¼ÒºÀ/.iotlink/sdk/IoT_LINK/iot_link/network/lwm2m/wakaama_lwm2m/wakaama-master/core\observe.c ****         watcherP->active = false;
 269              		.loc 1 194 9 is_stmt 1 view .LVU76
 270 0060 3822     		movs	r2, #56
 271 0062 0021     		movs	r1, #0
 272 0064 FFF7FEFF 		bl	memset
 273              	.LVL21:
 195:C:/Users/²Ü¼ÒºÀ/.iotlink/sdk/IoT_LINK/iot_link/network/lwm2m/wakaama_lwm2m/wakaama-master/core\observe.c ****         watcherP->server = serverP;
 274              		.loc 1 195 9 view .LVU77
 195:C:/Users/²Ü¼ÒºÀ/.iotlink/sdk/IoT_LINK/iot_link/network/lwm2m/wakaama_lwm2m/wakaama-master/core\observe.c ****         watcherP->server = serverP;
 275              		.loc 1 195 26 is_stmt 0 view .LVU78
 276 0068 0023     		movs	r3, #0
 277 006a 2B71     		strb	r3, [r5, #4]
 196:C:/Users/²Ü¼ÒºÀ/.iotlink/sdk/IoT_LINK/iot_link/network/lwm2m/wakaama_lwm2m/wakaama-master/core\observe.c ****         osal_mutex_lock(contextP->observe_mutex);
 278              		.loc 1 196 9 is_stmt 1 view .LVU79
 197:C:/Users/²Ü¼ÒºÀ/.iotlink/sdk/IoT_LINK/iot_link/network/lwm2m/wakaama_lwm2m/wakaama-master/core\observe.c ****         watcherP->next = observedP->watcherList;
ARM GAS  C:\Users\²Ü¼ÒºÀ\AppData\Local\Temp\ccA6NNYh.s 			page 10


 279              		.loc 1 197 9 is_stmt 0 view .LVU80
 280 006c 306A     		ldr	r0, [r6, #32]
 196:C:/Users/²Ü¼ÒºÀ/.iotlink/sdk/IoT_LINK/iot_link/network/lwm2m/wakaama_lwm2m/wakaama-master/core\observe.c ****         osal_mutex_lock(contextP->observe_mutex);
 281              		.loc 1 196 26 view .LVU81
 282 006e AF60     		str	r7, [r5, #8]
 197:C:/Users/²Ü¼ÒºÀ/.iotlink/sdk/IoT_LINK/iot_link/network/lwm2m/wakaama_lwm2m/wakaama-master/core\observe.c ****         watcherP->next = observedP->watcherList;
 283              		.loc 1 197 9 is_stmt 1 view .LVU82
 284 0070 FFF7FEFF 		bl	osal_mutex_lock
 285              	.LVL22:
 198:C:/Users/²Ü¼ÒºÀ/.iotlink/sdk/IoT_LINK/iot_link/network/lwm2m/wakaama_lwm2m/wakaama-master/core\observe.c ****         observedP->watcherList = watcherP;
 286              		.loc 1 198 9 view .LVU83
 198:C:/Users/²Ü¼ÒºÀ/.iotlink/sdk/IoT_LINK/iot_link/network/lwm2m/wakaama_lwm2m/wakaama-master/core\observe.c ****         observedP->watcherList = watcherP;
 287              		.loc 1 198 24 is_stmt 0 view .LVU84
 288 0074 E368     		ldr	r3, [r4, #12]
 289 0076 2B60     		str	r3, [r5]
 199:C:/Users/²Ü¼ÒºÀ/.iotlink/sdk/IoT_LINK/iot_link/network/lwm2m/wakaama_lwm2m/wakaama-master/core\observe.c ****         (void) osal_mutex_unlock(contextP->observe_mutex);
 290              		.loc 1 199 9 is_stmt 1 view .LVU85
 200:C:/Users/²Ü¼ÒºÀ/.iotlink/sdk/IoT_LINK/iot_link/network/lwm2m/wakaama_lwm2m/wakaama-master/core\observe.c ****     }
 291              		.loc 1 200 16 is_stmt 0 view .LVU86
 292 0078 306A     		ldr	r0, [r6, #32]
 199:C:/Users/²Ü¼ÒºÀ/.iotlink/sdk/IoT_LINK/iot_link/network/lwm2m/wakaama_lwm2m/wakaama-master/core\observe.c ****         (void) osal_mutex_unlock(contextP->observe_mutex);
 293              		.loc 1 199 32 view .LVU87
 294 007a E560     		str	r5, [r4, #12]
 200:C:/Users/²Ü¼ÒºÀ/.iotlink/sdk/IoT_LINK/iot_link/network/lwm2m/wakaama_lwm2m/wakaama-master/core\observe.c ****     }
 295              		.loc 1 200 9 is_stmt 1 view .LVU88
 200:C:/Users/²Ü¼ÒºÀ/.iotlink/sdk/IoT_LINK/iot_link/network/lwm2m/wakaama_lwm2m/wakaama-master/core\observe.c ****     }
 296              		.loc 1 200 16 is_stmt 0 view .LVU89
 297 007c FFF7FEFF 		bl	osal_mutex_unlock
 298              	.LVL23:
 200:C:/Users/²Ü¼ÒºÀ/.iotlink/sdk/IoT_LINK/iot_link/network/lwm2m/wakaama_lwm2m/wakaama-master/core\observe.c ****     }
 299              		.loc 1 200 16 view .LVU90
 300 0080 CEE7     		b	.L24
 301              	.LVL24:
 302              	.L29:
 303              	.LBB16:
 304              	.LBB15:
 155:C:/Users/²Ü¼ÒºÀ/.iotlink/sdk/IoT_LINK/iot_link/network/lwm2m/wakaama_lwm2m/wakaama-master/core\observe.c **** }
 305              		.loc 1 155 5 is_stmt 1 view .LVU91
 155:C:/Users/²Ü¼ÒºÀ/.iotlink/sdk/IoT_LINK/iot_link/network/lwm2m/wakaama_lwm2m/wakaama-master/core\observe.c **** }
 306              		.loc 1 155 5 is_stmt 0 view .LVU92
 307              	.LBE15:
 308              	.LBE16:
 183:C:/Users/²Ü¼ÒºÀ/.iotlink/sdk/IoT_LINK/iot_link/network/lwm2m/wakaama_lwm2m/wakaama-master/core\observe.c ****     {
 309              		.loc 1 183 5 is_stmt 1 view .LVU93
 185:C:/Users/²Ü¼ÒºÀ/.iotlink/sdk/IoT_LINK/iot_link/network/lwm2m/wakaama_lwm2m/wakaama-master/core\observe.c ****         if (watcherP == NULL)
 310              		.loc 1 185 9 view .LVU94
 185:C:/Users/²Ü¼ÒºÀ/.iotlink/sdk/IoT_LINK/iot_link/network/lwm2m/wakaama_lwm2m/wakaama-master/core\observe.c ****         if (watcherP == NULL)
 311              		.loc 1 185 39 is_stmt 0 view .LVU95
 312 0082 3820     		movs	r0, #56
 313 0084 FFF7FEFF 		bl	lwm2m_malloc
 314              	.LVL25:
 186:C:/Users/²Ü¼ÒºÀ/.iotlink/sdk/IoT_LINK/iot_link/network/lwm2m/wakaama_lwm2m/wakaama-master/core\observe.c ****         {
 315              		.loc 1 186 9 is_stmt 1 view .LVU96
 186:C:/Users/²Ü¼ÒºÀ/.iotlink/sdk/IoT_LINK/iot_link/network/lwm2m/wakaama_lwm2m/wakaama-master/core\observe.c ****         {
 316              		.loc 1 186 12 is_stmt 0 view .LVU97
 317 0088 0546     		mov	r5, r0
 318 008a 0028     		cmp	r0, #0
ARM GAS  C:\Users\²Ü¼ÒºÀ\AppData\Local\Temp\ccA6NNYh.s 			page 11


 319 008c E8D1     		bne	.L38
 188:C:/Users/²Ü¼ÒºÀ/.iotlink/sdk/IoT_LINK/iot_link/network/lwm2m/wakaama_lwm2m/wakaama-master/core\observe.c ****             {
 320              		.loc 1 188 13 is_stmt 1 view .LVU98
 188:C:/Users/²Ü¼ÒºÀ/.iotlink/sdk/IoT_LINK/iot_link/network/lwm2m/wakaama_lwm2m/wakaama-master/core\observe.c ****             {
 321              		.loc 1 188 16 is_stmt 0 view .LVU99
 322 008e B8F1000F 		cmp	r8, #0
 323 0092 C4D0     		beq	.L31
 190:C:/Users/²Ü¼ÒºÀ/.iotlink/sdk/IoT_LINK/iot_link/network/lwm2m/wakaama_lwm2m/wakaama-master/core\observe.c ****             }
 324              		.loc 1 190 17 is_stmt 1 view .LVU100
 325 0094 2046     		mov	r0, r4
 326              	.LVL26:
 190:C:/Users/²Ü¼ÒºÀ/.iotlink/sdk/IoT_LINK/iot_link/network/lwm2m/wakaama_lwm2m/wakaama-master/core\observe.c ****             }
 327              		.loc 1 190 17 is_stmt 0 view .LVU101
 328 0096 FFF7FEFF 		bl	lwm2m_free
 329              	.LVL27:
 330 009a C1E7     		b	.L24
 331              		.cfi_endproc
 332              	.LFE8:
 334              		.section	.text.lwm2m_register_observe_ack_call_back,"ax",%progbits
 335              		.align	1
 336              		.global	lwm2m_register_observe_ack_call_back
 337              		.syntax unified
 338              		.thumb
 339              		.thumb_func
 340              		.fpu fpv4-sp-d16
 342              	lwm2m_register_observe_ack_call_back:
 343              	.LVL28:
 344              	.LFB4:
  96:C:/Users/²Ü¼ÒºÀ/.iotlink/sdk/IoT_LINK/iot_link/network/lwm2m/wakaama_lwm2m/wakaama-master/core\observe.c ****     observe_call_back = callback;
 345              		.loc 1 96 1 is_stmt 1 view -0
 346              		.cfi_startproc
 347              		@ args = 0, pretend = 0, frame = 0
 348              		@ frame_needed = 0, uses_anonymous_args = 0
 349              		@ link register save eliminated.
  97:C:/Users/²Ü¼ÒºÀ/.iotlink/sdk/IoT_LINK/iot_link/network/lwm2m/wakaama_lwm2m/wakaama-master/core\observe.c **** }
 350              		.loc 1 97 5 view .LVU103
  97:C:/Users/²Ü¼ÒºÀ/.iotlink/sdk/IoT_LINK/iot_link/network/lwm2m/wakaama_lwm2m/wakaama-master/core\observe.c **** }
 351              		.loc 1 97 23 is_stmt 0 view .LVU104
 352 0000 014B     		ldr	r3, .L40
 353 0002 1860     		str	r0, [r3]
  98:C:/Users/²Ü¼ÒºÀ/.iotlink/sdk/IoT_LINK/iot_link/network/lwm2m/wakaama_lwm2m/wakaama-master/core\observe.c **** 
 354              		.loc 1 98 1 view .LVU105
 355 0004 7047     		bx	lr
 356              	.L41:
 357 0006 00BF     		.align	2
 358              	.L40:
 359 0008 00000000 		.word	.LANCHOR0
 360              		.cfi_endproc
 361              	.LFE4:
 363              		.section	.rodata.observe_cancel.str1.1,"aMS",%progbits,1
 364              	.LC0:
 365 0000 5B25735D 		.ascii	"[%s][%u][%s] [%d][%s:%d] mid: %d\015\012\015\012\000"
 365      5B25755D 
 365      5B25735D 
 365      205B2564 
 365      5D5B2573 
 366              		.section	.text.observe_cancel,"ax",%progbits
ARM GAS  C:\Users\²Ü¼ÒºÀ\AppData\Local\Temp\ccA6NNYh.s 			page 12


 367              		.align	1
 368              		.global	observe_cancel
 369              		.syntax unified
 370              		.thumb
 371              		.thumb_func
 372              		.fpu fpv4-sp-d16
 374              	observe_cancel:
 375              	.LVL29:
 376              	.LFB10:
 205:C:/Users/²Ü¼ÒºÀ/.iotlink/sdk/IoT_LINK/iot_link/network/lwm2m/wakaama_lwm2m/wakaama-master/core\observe.c **** 
 206:C:/Users/²Ü¼ÒºÀ/.iotlink/sdk/IoT_LINK/iot_link/network/lwm2m/wakaama_lwm2m/wakaama-master/core\observe.c **** uint8_t observe_handleRequest(lwm2m_context_t *contextP,
 207:C:/Users/²Ü¼ÒºÀ/.iotlink/sdk/IoT_LINK/iot_link/network/lwm2m/wakaama_lwm2m/wakaama-master/core\observe.c ****                               lwm2m_uri_t *uriP,
 208:C:/Users/²Ü¼ÒºÀ/.iotlink/sdk/IoT_LINK/iot_link/network/lwm2m/wakaama_lwm2m/wakaama-master/core\observe.c ****                               lwm2m_server_t *serverP,
 209:C:/Users/²Ü¼ÒºÀ/.iotlink/sdk/IoT_LINK/iot_link/network/lwm2m/wakaama_lwm2m/wakaama-master/core\observe.c ****                               int size,
 210:C:/Users/²Ü¼ÒºÀ/.iotlink/sdk/IoT_LINK/iot_link/network/lwm2m/wakaama_lwm2m/wakaama-master/core\observe.c ****                               lwm2m_data_t *dataP,
 211:C:/Users/²Ü¼ÒºÀ/.iotlink/sdk/IoT_LINK/iot_link/network/lwm2m/wakaama_lwm2m/wakaama-master/core\observe.c ****                               coap_packet_t *message,
 212:C:/Users/²Ü¼ÒºÀ/.iotlink/sdk/IoT_LINK/iot_link/network/lwm2m/wakaama_lwm2m/wakaama-master/core\observe.c ****                               coap_packet_t *response)
 213:C:/Users/²Ü¼ÒºÀ/.iotlink/sdk/IoT_LINK/iot_link/network/lwm2m/wakaama_lwm2m/wakaama-master/core\observe.c **** {
 214:C:/Users/²Ü¼ÒºÀ/.iotlink/sdk/IoT_LINK/iot_link/network/lwm2m/wakaama_lwm2m/wakaama-master/core\observe.c ****     lwm2m_observed_t * observedP;
 215:C:/Users/²Ü¼ÒºÀ/.iotlink/sdk/IoT_LINK/iot_link/network/lwm2m/wakaama_lwm2m/wakaama-master/core\observe.c ****     lwm2m_watcher_t *watcherP;
 216:C:/Users/²Ü¼ÒºÀ/.iotlink/sdk/IoT_LINK/iot_link/network/lwm2m/wakaama_lwm2m/wakaama-master/core\observe.c ****     uint32_t count;
 217:C:/Users/²Ü¼ÒºÀ/.iotlink/sdk/IoT_LINK/iot_link/network/lwm2m/wakaama_lwm2m/wakaama-master/core\observe.c **** 
 218:C:/Users/²Ü¼ÒºÀ/.iotlink/sdk/IoT_LINK/iot_link/network/lwm2m/wakaama_lwm2m/wakaama-master/core\observe.c ****     LOG_ARG("Code: %02X, server status: %s", message->code, STR_STATUS(serverP->status));
 219:C:/Users/²Ü¼ÒºÀ/.iotlink/sdk/IoT_LINK/iot_link/network/lwm2m/wakaama_lwm2m/wakaama-master/core\observe.c ****     LOG_URI(uriP);
 220:C:/Users/²Ü¼ÒºÀ/.iotlink/sdk/IoT_LINK/iot_link/network/lwm2m/wakaama_lwm2m/wakaama-master/core\observe.c **** 
 221:C:/Users/²Ü¼ÒºÀ/.iotlink/sdk/IoT_LINK/iot_link/network/lwm2m/wakaama_lwm2m/wakaama-master/core\observe.c ****     coap_get_header_observe(message, &count);
 222:C:/Users/²Ü¼ÒºÀ/.iotlink/sdk/IoT_LINK/iot_link/network/lwm2m/wakaama_lwm2m/wakaama-master/core\observe.c **** 
 223:C:/Users/²Ü¼ÒºÀ/.iotlink/sdk/IoT_LINK/iot_link/network/lwm2m/wakaama_lwm2m/wakaama-master/core\observe.c ****     switch (count)
 224:C:/Users/²Ü¼ÒºÀ/.iotlink/sdk/IoT_LINK/iot_link/network/lwm2m/wakaama_lwm2m/wakaama-master/core\observe.c ****     {
 225:C:/Users/²Ü¼ÒºÀ/.iotlink/sdk/IoT_LINK/iot_link/network/lwm2m/wakaama_lwm2m/wakaama-master/core\observe.c ****     case 0:
 226:C:/Users/²Ü¼ÒºÀ/.iotlink/sdk/IoT_LINK/iot_link/network/lwm2m/wakaama_lwm2m/wakaama-master/core\observe.c ****         if (!LWM2M_URI_IS_SET_INSTANCE(uriP) && LWM2M_URI_IS_SET_RESOURCE(uriP)) return COAP_400_BA
 227:C:/Users/²Ü¼ÒºÀ/.iotlink/sdk/IoT_LINK/iot_link/network/lwm2m/wakaama_lwm2m/wakaama-master/core\observe.c ****         if (message->token_len == 0) return COAP_400_BAD_REQUEST;
 228:C:/Users/²Ü¼ÒºÀ/.iotlink/sdk/IoT_LINK/iot_link/network/lwm2m/wakaama_lwm2m/wakaama-master/core\observe.c **** 
 229:C:/Users/²Ü¼ÒºÀ/.iotlink/sdk/IoT_LINK/iot_link/network/lwm2m/wakaama_lwm2m/wakaama-master/core\observe.c ****         watcherP = prv_getWatcher(contextP, uriP, serverP);
 230:C:/Users/²Ü¼ÒºÀ/.iotlink/sdk/IoT_LINK/iot_link/network/lwm2m/wakaama_lwm2m/wakaama-master/core\observe.c ****         if (watcherP == NULL) return COAP_500_INTERNAL_SERVER_ERROR;
 231:C:/Users/²Ü¼ÒºÀ/.iotlink/sdk/IoT_LINK/iot_link/network/lwm2m/wakaama_lwm2m/wakaama-master/core\observe.c **** 
 232:C:/Users/²Ü¼ÒºÀ/.iotlink/sdk/IoT_LINK/iot_link/network/lwm2m/wakaama_lwm2m/wakaama-master/core\observe.c ****         watcherP->tokenLen = message->token_len;
 233:C:/Users/²Ü¼ÒºÀ/.iotlink/sdk/IoT_LINK/iot_link/network/lwm2m/wakaama_lwm2m/wakaama-master/core\observe.c ****         memcpy(watcherP->token, message->token, message->token_len);
 234:C:/Users/²Ü¼ÒºÀ/.iotlink/sdk/IoT_LINK/iot_link/network/lwm2m/wakaama_lwm2m/wakaama-master/core\observe.c ****         watcherP->active = true;
 235:C:/Users/²Ü¼ÒºÀ/.iotlink/sdk/IoT_LINK/iot_link/network/lwm2m/wakaama_lwm2m/wakaama-master/core\observe.c ****         watcherP->lastTime = lwm2m_gettime();
 236:C:/Users/²Ü¼ÒºÀ/.iotlink/sdk/IoT_LINK/iot_link/network/lwm2m/wakaama_lwm2m/wakaama-master/core\observe.c ****         watcherP->lastMid = response->mid;
 237:C:/Users/²Ü¼ÒºÀ/.iotlink/sdk/IoT_LINK/iot_link/network/lwm2m/wakaama_lwm2m/wakaama-master/core\observe.c ****         if (IS_OPTION(message, COAP_OPTION_ACCEPT))
 238:C:/Users/²Ü¼ÒºÀ/.iotlink/sdk/IoT_LINK/iot_link/network/lwm2m/wakaama_lwm2m/wakaama-master/core\observe.c ****         {
 239:C:/Users/²Ü¼ÒºÀ/.iotlink/sdk/IoT_LINK/iot_link/network/lwm2m/wakaama_lwm2m/wakaama-master/core\observe.c ****             watcherP->format = utils_convertMediaType((coap_content_type_t)message->accept[0]);
 240:C:/Users/²Ü¼ÒºÀ/.iotlink/sdk/IoT_LINK/iot_link/network/lwm2m/wakaama_lwm2m/wakaama-master/core\observe.c ****         }
 241:C:/Users/²Ü¼ÒºÀ/.iotlink/sdk/IoT_LINK/iot_link/network/lwm2m/wakaama_lwm2m/wakaama-master/core\observe.c ****         else
 242:C:/Users/²Ü¼ÒºÀ/.iotlink/sdk/IoT_LINK/iot_link/network/lwm2m/wakaama_lwm2m/wakaama-master/core\observe.c ****         {
 243:C:/Users/²Ü¼ÒºÀ/.iotlink/sdk/IoT_LINK/iot_link/network/lwm2m/wakaama_lwm2m/wakaama-master/core\observe.c ****             watcherP->format = LWM2M_CONTENT_TLV;
 244:C:/Users/²Ü¼ÒºÀ/.iotlink/sdk/IoT_LINK/iot_link/network/lwm2m/wakaama_lwm2m/wakaama-master/core\observe.c ****         }
 245:C:/Users/²Ü¼ÒºÀ/.iotlink/sdk/IoT_LINK/iot_link/network/lwm2m/wakaama_lwm2m/wakaama-master/core\observe.c **** 
 246:C:/Users/²Ü¼ÒºÀ/.iotlink/sdk/IoT_LINK/iot_link/network/lwm2m/wakaama_lwm2m/wakaama-master/core\observe.c ****         if (LWM2M_URI_IS_SET_RESOURCE(uriP))
 247:C:/Users/²Ü¼ÒºÀ/.iotlink/sdk/IoT_LINK/iot_link/network/lwm2m/wakaama_lwm2m/wakaama-master/core\observe.c ****         {
 248:C:/Users/²Ü¼ÒºÀ/.iotlink/sdk/IoT_LINK/iot_link/network/lwm2m/wakaama_lwm2m/wakaama-master/core\observe.c ****             switch (dataP->type)
 249:C:/Users/²Ü¼ÒºÀ/.iotlink/sdk/IoT_LINK/iot_link/network/lwm2m/wakaama_lwm2m/wakaama-master/core\observe.c ****             {
 250:C:/Users/²Ü¼ÒºÀ/.iotlink/sdk/IoT_LINK/iot_link/network/lwm2m/wakaama_lwm2m/wakaama-master/core\observe.c ****             case LWM2M_TYPE_INTEGER:
 251:C:/Users/²Ü¼ÒºÀ/.iotlink/sdk/IoT_LINK/iot_link/network/lwm2m/wakaama_lwm2m/wakaama-master/core\observe.c ****                 if (1 != lwm2m_data_decode_int(dataP, &(watcherP->lastValue.asInteger))) return COA
 252:C:/Users/²Ü¼ÒºÀ/.iotlink/sdk/IoT_LINK/iot_link/network/lwm2m/wakaama_lwm2m/wakaama-master/core\observe.c ****                 break;
ARM GAS  C:\Users\²Ü¼ÒºÀ\AppData\Local\Temp\ccA6NNYh.s 			page 13


 253:C:/Users/²Ü¼ÒºÀ/.iotlink/sdk/IoT_LINK/iot_link/network/lwm2m/wakaama_lwm2m/wakaama-master/core\observe.c ****             case LWM2M_TYPE_FLOAT:
 254:C:/Users/²Ü¼ÒºÀ/.iotlink/sdk/IoT_LINK/iot_link/network/lwm2m/wakaama_lwm2m/wakaama-master/core\observe.c ****                 if (1 != lwm2m_data_decode_float(dataP, &(watcherP->lastValue.asFloat))) return COA
 255:C:/Users/²Ü¼ÒºÀ/.iotlink/sdk/IoT_LINK/iot_link/network/lwm2m/wakaama_lwm2m/wakaama-master/core\observe.c ****                 break;
 256:C:/Users/²Ü¼ÒºÀ/.iotlink/sdk/IoT_LINK/iot_link/network/lwm2m/wakaama_lwm2m/wakaama-master/core\observe.c ****             default:
 257:C:/Users/²Ü¼ÒºÀ/.iotlink/sdk/IoT_LINK/iot_link/network/lwm2m/wakaama_lwm2m/wakaama-master/core\observe.c ****                 break;
 258:C:/Users/²Ü¼ÒºÀ/.iotlink/sdk/IoT_LINK/iot_link/network/lwm2m/wakaama_lwm2m/wakaama-master/core\observe.c ****             }
 259:C:/Users/²Ü¼ÒºÀ/.iotlink/sdk/IoT_LINK/iot_link/network/lwm2m/wakaama_lwm2m/wakaama-master/core\observe.c ****         }
 260:C:/Users/²Ü¼ÒºÀ/.iotlink/sdk/IoT_LINK/iot_link/network/lwm2m/wakaama_lwm2m/wakaama-master/core\observe.c **** 
 261:C:/Users/²Ü¼ÒºÀ/.iotlink/sdk/IoT_LINK/iot_link/network/lwm2m/wakaama_lwm2m/wakaama-master/core\observe.c ****         coap_set_header_observe(response, watcherP->counter++);
 262:C:/Users/²Ü¼ÒºÀ/.iotlink/sdk/IoT_LINK/iot_link/network/lwm2m/wakaama_lwm2m/wakaama-master/core\observe.c **** 
 263:C:/Users/²Ü¼ÒºÀ/.iotlink/sdk/IoT_LINK/iot_link/network/lwm2m/wakaama_lwm2m/wakaama-master/core\observe.c ****         return COAP_205_CONTENT;
 264:C:/Users/²Ü¼ÒºÀ/.iotlink/sdk/IoT_LINK/iot_link/network/lwm2m/wakaama_lwm2m/wakaama-master/core\observe.c **** 
 265:C:/Users/²Ü¼ÒºÀ/.iotlink/sdk/IoT_LINK/iot_link/network/lwm2m/wakaama_lwm2m/wakaama-master/core\observe.c ****     case 1:
 266:C:/Users/²Ü¼ÒºÀ/.iotlink/sdk/IoT_LINK/iot_link/network/lwm2m/wakaama_lwm2m/wakaama-master/core\observe.c ****         // cancellation
 267:C:/Users/²Ü¼ÒºÀ/.iotlink/sdk/IoT_LINK/iot_link/network/lwm2m/wakaama_lwm2m/wakaama-master/core\observe.c ****         observedP = prv_findObserved(contextP, uriP);
 268:C:/Users/²Ü¼ÒºÀ/.iotlink/sdk/IoT_LINK/iot_link/network/lwm2m/wakaama_lwm2m/wakaama-master/core\observe.c ****         if (observedP)
 269:C:/Users/²Ü¼ÒºÀ/.iotlink/sdk/IoT_LINK/iot_link/network/lwm2m/wakaama_lwm2m/wakaama-master/core\observe.c ****         {
 270:C:/Users/²Ü¼ÒºÀ/.iotlink/sdk/IoT_LINK/iot_link/network/lwm2m/wakaama_lwm2m/wakaama-master/core\observe.c ****             watcherP = prv_findWatcher(observedP, serverP);
 271:C:/Users/²Ü¼ÒºÀ/.iotlink/sdk/IoT_LINK/iot_link/network/lwm2m/wakaama_lwm2m/wakaama-master/core\observe.c ****             if (watcherP)
 272:C:/Users/²Ü¼ÒºÀ/.iotlink/sdk/IoT_LINK/iot_link/network/lwm2m/wakaama_lwm2m/wakaama-master/core\observe.c ****             {
 273:C:/Users/²Ü¼ÒºÀ/.iotlink/sdk/IoT_LINK/iot_link/network/lwm2m/wakaama_lwm2m/wakaama-master/core\observe.c ****                 observe_cancel(contextP, watcherP->lastMid, serverP->sessionH);
 274:C:/Users/²Ü¼ÒºÀ/.iotlink/sdk/IoT_LINK/iot_link/network/lwm2m/wakaama_lwm2m/wakaama-master/core\observe.c ****             }
 275:C:/Users/²Ü¼ÒºÀ/.iotlink/sdk/IoT_LINK/iot_link/network/lwm2m/wakaama_lwm2m/wakaama-master/core\observe.c ****         }
 276:C:/Users/²Ü¼ÒºÀ/.iotlink/sdk/IoT_LINK/iot_link/network/lwm2m/wakaama_lwm2m/wakaama-master/core\observe.c ****         return COAP_205_CONTENT;
 277:C:/Users/²Ü¼ÒºÀ/.iotlink/sdk/IoT_LINK/iot_link/network/lwm2m/wakaama_lwm2m/wakaama-master/core\observe.c **** 
 278:C:/Users/²Ü¼ÒºÀ/.iotlink/sdk/IoT_LINK/iot_link/network/lwm2m/wakaama_lwm2m/wakaama-master/core\observe.c ****     default:
 279:C:/Users/²Ü¼ÒºÀ/.iotlink/sdk/IoT_LINK/iot_link/network/lwm2m/wakaama_lwm2m/wakaama-master/core\observe.c ****         return COAP_400_BAD_REQUEST;
 280:C:/Users/²Ü¼ÒºÀ/.iotlink/sdk/IoT_LINK/iot_link/network/lwm2m/wakaama_lwm2m/wakaama-master/core\observe.c ****     }
 281:C:/Users/²Ü¼ÒºÀ/.iotlink/sdk/IoT_LINK/iot_link/network/lwm2m/wakaama_lwm2m/wakaama-master/core\observe.c **** }
 282:C:/Users/²Ü¼ÒºÀ/.iotlink/sdk/IoT_LINK/iot_link/network/lwm2m/wakaama_lwm2m/wakaama-master/core\observe.c **** 
 283:C:/Users/²Ü¼ÒºÀ/.iotlink/sdk/IoT_LINK/iot_link/network/lwm2m/wakaama_lwm2m/wakaama-master/core\observe.c **** void observe_cancel(lwm2m_context_t *contextP,
 284:C:/Users/²Ü¼ÒºÀ/.iotlink/sdk/IoT_LINK/iot_link/network/lwm2m/wakaama_lwm2m/wakaama-master/core\observe.c ****                     uint16_t mid,
 285:C:/Users/²Ü¼ÒºÀ/.iotlink/sdk/IoT_LINK/iot_link/network/lwm2m/wakaama_lwm2m/wakaama-master/core\observe.c ****                     void *fromSessionH)
 286:C:/Users/²Ü¼ÒºÀ/.iotlink/sdk/IoT_LINK/iot_link/network/lwm2m/wakaama_lwm2m/wakaama-master/core\observe.c **** {
 377              		.loc 1 286 1 is_stmt 1 view -0
 378              		.cfi_startproc
 379              		@ args = 0, pretend = 0, frame = 8
 380              		@ frame_needed = 0, uses_anonymous_args = 0
 287:C:/Users/²Ü¼ÒºÀ/.iotlink/sdk/IoT_LINK/iot_link/network/lwm2m/wakaama_lwm2m/wakaama-master/core\observe.c ****     lwm2m_observed_t *observedP;
 381              		.loc 1 287 5 view .LVU107
 288:C:/Users/²Ü¼ÒºÀ/.iotlink/sdk/IoT_LINK/iot_link/network/lwm2m/wakaama_lwm2m/wakaama-master/core\observe.c **** 
 289:C:/Users/²Ü¼ÒºÀ/.iotlink/sdk/IoT_LINK/iot_link/network/lwm2m/wakaama_lwm2m/wakaama-master/core\observe.c ****     LOG_ARG("mid: %d", mid);
 382              		.loc 1 289 5 view .LVU108
 383              		.loc 1 289 5 view .LVU109
 286:C:/Users/²Ü¼ÒºÀ/.iotlink/sdk/IoT_LINK/iot_link/network/lwm2m/wakaama_lwm2m/wakaama-master/core\observe.c ****     lwm2m_observed_t *observedP;
 384              		.loc 1 286 1 is_stmt 0 view .LVU110
 385 0000 2DE9F043 		push	{r4, r5, r6, r7, r8, r9, lr}
 386              	.LCFI2:
 387              		.cfi_def_cfa_offset 28
 388              		.cfi_offset 4, -28
 389              		.cfi_offset 5, -24
 390              		.cfi_offset 6, -20
 391              		.cfi_offset 7, -16
 392              		.cfi_offset 8, -12
 393              		.cfi_offset 9, -8
 394              		.cfi_offset 14, -4
 395 0004 87B0     		sub	sp, sp, #28
ARM GAS  C:\Users\²Ü¼ÒºÀ\AppData\Local\Temp\ccA6NNYh.s 			page 14


 396              	.LCFI3:
 397              		.cfi_def_cfa_offset 56
 286:C:/Users/²Ü¼ÒºÀ/.iotlink/sdk/IoT_LINK/iot_link/network/lwm2m/wakaama_lwm2m/wakaama-master/core\observe.c ****     lwm2m_observed_t *observedP;
 398              		.loc 1 286 1 view .LVU111
 399 0006 0546     		mov	r5, r0
 400 0008 0F46     		mov	r7, r1
 401 000a 9146     		mov	r9, r2
 402              		.loc 1 289 5 view .LVU112
 403 000c FFF7FEFF 		bl	link_log_level_get
 404              	.LVL30:
 405              		.loc 1 289 5 view .LVU113
 406 0010 0128     		cmp	r0, #1
 407 0012 1AD8     		bhi	.L43
 408              		.loc 1 289 5 is_stmt 1 discriminator 1 view .LVU114
 409              		.loc 1 289 5 discriminator 1 view .LVU115
 410              		.loc 1 289 5 discriminator 1 view .LVU116
 411 0014 0120     		movs	r0, #1
 412 0016 FFF7FEFF 		bl	link_log_level_name
 413              	.LVL31:
 414 001a 0446     		mov	r4, r0
 415 001c FFF7FEFF 		bl	osal_sys_time
 416              	.LVL32:
 417 0020 0590     		str	r0, [sp, #20]
 418 0022 FFF7FEFF 		bl	lwm2m_gettime
 419              	.LVL33:
 420 0026 40F22113 		movw	r3, #289
 421 002a 0293     		str	r3, [sp, #8]
 422 002c 2E4B     		ldr	r3, .L62
 423 002e 059A     		ldr	r2, [sp, #20]
 424 0030 0397     		str	r7, [sp, #12]
 425 0032 CDE90003 		strd	r0, r3, [sp]
 426 0036 2146     		mov	r1, r4
 427 0038 2C4B     		ldr	r3, .L62+4
 428 003a 2D48     		ldr	r0, .L62+8
 429 003c FFF7FEFF 		bl	printf
 430              	.LVL34:
 431              		.loc 1 289 5 discriminator 1 view .LVU117
 432 0040 2C4B     		ldr	r3, .L62+12
 433 0042 1B68     		ldr	r3, [r3]
 434 0044 9868     		ldr	r0, [r3, #8]
 435 0046 FFF7FEFF 		bl	fflush
 436              	.LVL35:
 437              	.L43:
 438              		.loc 1 289 5 discriminator 3 view .LVU118
 439              		.loc 1 289 5 discriminator 3 view .LVU119
 440              		.loc 1 289 5 discriminator 3 view .LVU120
 290:C:/Users/²Ü¼ÒºÀ/.iotlink/sdk/IoT_LINK/iot_link/network/lwm2m/wakaama_lwm2m/wakaama-master/core\observe.c **** 
 291:C:/Users/²Ü¼ÒºÀ/.iotlink/sdk/IoT_LINK/iot_link/network/lwm2m/wakaama_lwm2m/wakaama-master/core\observe.c ****     for (observedP = contextP->observedList;
 441              		.loc 1 291 5 discriminator 3 view .LVU121
 442              		.loc 1 291 20 is_stmt 0 discriminator 3 view .LVU122
 443 004a EC69     		ldr	r4, [r5, #28]
 444              	.LVL36:
 445              	.L44:
 292:C:/Users/²Ü¼ÒºÀ/.iotlink/sdk/IoT_LINK/iot_link/network/lwm2m/wakaama_lwm2m/wakaama-master/core\observe.c ****             observedP != NULL;
 446              		.loc 1 292 13 is_stmt 1 discriminator 1 view .LVU123
 291:C:/Users/²Ü¼ÒºÀ/.iotlink/sdk/IoT_LINK/iot_link/network/lwm2m/wakaama_lwm2m/wakaama-master/core\observe.c ****             observedP != NULL;
 447              		.loc 1 291 5 is_stmt 0 discriminator 1 view .LVU124
ARM GAS  C:\Users\²Ü¼ÒºÀ\AppData\Local\Temp\ccA6NNYh.s 			page 15


 448 004c 14B9     		cbnz	r4, .L54
 293:C:/Users/²Ü¼ÒºÀ/.iotlink/sdk/IoT_LINK/iot_link/network/lwm2m/wakaama_lwm2m/wakaama-master/core\observe.c ****             observedP = observedP->next)
 294:C:/Users/²Ü¼ÒºÀ/.iotlink/sdk/IoT_LINK/iot_link/network/lwm2m/wakaama_lwm2m/wakaama-master/core\observe.c ****     {
 295:C:/Users/²Ü¼ÒºÀ/.iotlink/sdk/IoT_LINK/iot_link/network/lwm2m/wakaama_lwm2m/wakaama-master/core\observe.c ****         lwm2m_watcher_t *targetP = NULL;
 296:C:/Users/²Ü¼ÒºÀ/.iotlink/sdk/IoT_LINK/iot_link/network/lwm2m/wakaama_lwm2m/wakaama-master/core\observe.c **** 
 297:C:/Users/²Ü¼ÒºÀ/.iotlink/sdk/IoT_LINK/iot_link/network/lwm2m/wakaama_lwm2m/wakaama-master/core\observe.c ****         if (observedP->watcherList->lastMid == mid
 298:C:/Users/²Ü¼ÒºÀ/.iotlink/sdk/IoT_LINK/iot_link/network/lwm2m/wakaama_lwm2m/wakaama-master/core\observe.c ****                 && lwm2m_session_is_equal(observedP->watcherList->server->sessionH, fromSessionH, c
 299:C:/Users/²Ü¼ÒºÀ/.iotlink/sdk/IoT_LINK/iot_link/network/lwm2m/wakaama_lwm2m/wakaama-master/core\observe.c ****         {
 300:C:/Users/²Ü¼ÒºÀ/.iotlink/sdk/IoT_LINK/iot_link/network/lwm2m/wakaama_lwm2m/wakaama-master/core\observe.c ****             targetP = observedP->watcherList;
 301:C:/Users/²Ü¼ÒºÀ/.iotlink/sdk/IoT_LINK/iot_link/network/lwm2m/wakaama_lwm2m/wakaama-master/core\observe.c ****             observedP->watcherList = observedP->watcherList->next;
 302:C:/Users/²Ü¼ÒºÀ/.iotlink/sdk/IoT_LINK/iot_link/network/lwm2m/wakaama_lwm2m/wakaama-master/core\observe.c ****         }
 303:C:/Users/²Ü¼ÒºÀ/.iotlink/sdk/IoT_LINK/iot_link/network/lwm2m/wakaama_lwm2m/wakaama-master/core\observe.c ****         else
 304:C:/Users/²Ü¼ÒºÀ/.iotlink/sdk/IoT_LINK/iot_link/network/lwm2m/wakaama_lwm2m/wakaama-master/core\observe.c ****         {
 305:C:/Users/²Ü¼ÒºÀ/.iotlink/sdk/IoT_LINK/iot_link/network/lwm2m/wakaama_lwm2m/wakaama-master/core\observe.c ****             lwm2m_watcher_t *parentP;
 306:C:/Users/²Ü¼ÒºÀ/.iotlink/sdk/IoT_LINK/iot_link/network/lwm2m/wakaama_lwm2m/wakaama-master/core\observe.c **** 
 307:C:/Users/²Ü¼ÒºÀ/.iotlink/sdk/IoT_LINK/iot_link/network/lwm2m/wakaama_lwm2m/wakaama-master/core\observe.c ****             parentP = observedP->watcherList;
 308:C:/Users/²Ü¼ÒºÀ/.iotlink/sdk/IoT_LINK/iot_link/network/lwm2m/wakaama_lwm2m/wakaama-master/core\observe.c ****             while (parentP->next != NULL
 309:C:/Users/²Ü¼ÒºÀ/.iotlink/sdk/IoT_LINK/iot_link/network/lwm2m/wakaama_lwm2m/wakaama-master/core\observe.c ****                     && (parentP->next->lastMid != mid
 310:C:/Users/²Ü¼ÒºÀ/.iotlink/sdk/IoT_LINK/iot_link/network/lwm2m/wakaama_lwm2m/wakaama-master/core\observe.c ****                  || !lwm2m_session_is_equal(parentP->next->server->sessionH, fromSessionH, contextP
 311:C:/Users/²Ü¼ÒºÀ/.iotlink/sdk/IoT_LINK/iot_link/network/lwm2m/wakaama_lwm2m/wakaama-master/core\observe.c ****             {
 312:C:/Users/²Ü¼ÒºÀ/.iotlink/sdk/IoT_LINK/iot_link/network/lwm2m/wakaama_lwm2m/wakaama-master/core\observe.c ****                 parentP = parentP->next;
 313:C:/Users/²Ü¼ÒºÀ/.iotlink/sdk/IoT_LINK/iot_link/network/lwm2m/wakaama_lwm2m/wakaama-master/core\observe.c ****             }
 314:C:/Users/²Ü¼ÒºÀ/.iotlink/sdk/IoT_LINK/iot_link/network/lwm2m/wakaama_lwm2m/wakaama-master/core\observe.c ****             if (parentP->next != NULL)
 315:C:/Users/²Ü¼ÒºÀ/.iotlink/sdk/IoT_LINK/iot_link/network/lwm2m/wakaama_lwm2m/wakaama-master/core\observe.c ****             {
 316:C:/Users/²Ü¼ÒºÀ/.iotlink/sdk/IoT_LINK/iot_link/network/lwm2m/wakaama_lwm2m/wakaama-master/core\observe.c ****                 targetP = parentP->next;
 317:C:/Users/²Ü¼ÒºÀ/.iotlink/sdk/IoT_LINK/iot_link/network/lwm2m/wakaama_lwm2m/wakaama-master/core\observe.c ****                 parentP->next = parentP->next->next;
 318:C:/Users/²Ü¼ÒºÀ/.iotlink/sdk/IoT_LINK/iot_link/network/lwm2m/wakaama_lwm2m/wakaama-master/core\observe.c ****             }
 319:C:/Users/²Ü¼ÒºÀ/.iotlink/sdk/IoT_LINK/iot_link/network/lwm2m/wakaama_lwm2m/wakaama-master/core\observe.c ****         }
 320:C:/Users/²Ü¼ÒºÀ/.iotlink/sdk/IoT_LINK/iot_link/network/lwm2m/wakaama_lwm2m/wakaama-master/core\observe.c ****         if (targetP != NULL)
 321:C:/Users/²Ü¼ÒºÀ/.iotlink/sdk/IoT_LINK/iot_link/network/lwm2m/wakaama_lwm2m/wakaama-master/core\observe.c ****         {
 322:C:/Users/²Ü¼ÒºÀ/.iotlink/sdk/IoT_LINK/iot_link/network/lwm2m/wakaama_lwm2m/wakaama-master/core\observe.c ****             osal_mutex_lock(contextP->observe_mutex);
 323:C:/Users/²Ü¼ÒºÀ/.iotlink/sdk/IoT_LINK/iot_link/network/lwm2m/wakaama_lwm2m/wakaama-master/core\observe.c ****             lwm2m_notify_even(MODULE_URI, OBSERVE_UNSUBSCRIBE, (char *) & (observedP->uri), sizeof(
 324:C:/Users/²Ü¼ÒºÀ/.iotlink/sdk/IoT_LINK/iot_link/network/lwm2m/wakaama_lwm2m/wakaama-master/core\observe.c ****             if (targetP->parameters != NULL) lwm2m_free(targetP->parameters);
 325:C:/Users/²Ü¼ÒºÀ/.iotlink/sdk/IoT_LINK/iot_link/network/lwm2m/wakaama_lwm2m/wakaama-master/core\observe.c ****             lwm2m_free(targetP);
 326:C:/Users/²Ü¼ÒºÀ/.iotlink/sdk/IoT_LINK/iot_link/network/lwm2m/wakaama_lwm2m/wakaama-master/core\observe.c ****             if (observedP->watcherList == NULL)
 327:C:/Users/²Ü¼ÒºÀ/.iotlink/sdk/IoT_LINK/iot_link/network/lwm2m/wakaama_lwm2m/wakaama-master/core\observe.c ****             {
 328:C:/Users/²Ü¼ÒºÀ/.iotlink/sdk/IoT_LINK/iot_link/network/lwm2m/wakaama_lwm2m/wakaama-master/core\observe.c ****                 prv_unlinkObserved(contextP, observedP);
 329:C:/Users/²Ü¼ÒºÀ/.iotlink/sdk/IoT_LINK/iot_link/network/lwm2m/wakaama_lwm2m/wakaama-master/core\observe.c ****                 lwm2m_free(observedP);
 330:C:/Users/²Ü¼ÒºÀ/.iotlink/sdk/IoT_LINK/iot_link/network/lwm2m/wakaama_lwm2m/wakaama-master/core\observe.c ****             }
 331:C:/Users/²Ü¼ÒºÀ/.iotlink/sdk/IoT_LINK/iot_link/network/lwm2m/wakaama_lwm2m/wakaama-master/core\observe.c ****             (void) osal_mutex_unlock(contextP->observe_mutex);
 332:C:/Users/²Ü¼ÒºÀ/.iotlink/sdk/IoT_LINK/iot_link/network/lwm2m/wakaama_lwm2m/wakaama-master/core\observe.c ****             return;
 333:C:/Users/²Ü¼ÒºÀ/.iotlink/sdk/IoT_LINK/iot_link/network/lwm2m/wakaama_lwm2m/wakaama-master/core\observe.c ****         }
 334:C:/Users/²Ü¼ÒºÀ/.iotlink/sdk/IoT_LINK/iot_link/network/lwm2m/wakaama_lwm2m/wakaama-master/core\observe.c ****     }
 335:C:/Users/²Ü¼ÒºÀ/.iotlink/sdk/IoT_LINK/iot_link/network/lwm2m/wakaama_lwm2m/wakaama-master/core\observe.c **** }
 449              		.loc 1 335 1 view .LVU125
 450 004e 07B0     		add	sp, sp, #28
 451              	.LCFI4:
 452              		.cfi_remember_state
 453              		.cfi_def_cfa_offset 28
 454              		@ sp needed
 455 0050 BDE8F083 		pop	{r4, r5, r6, r7, r8, r9, pc}
 456              	.LVL37:
 457              	.L54:
 458              	.LCFI5:
 459              		.cfi_restore_state
 460              	.LBB17:
 295:C:/Users/²Ü¼ÒºÀ/.iotlink/sdk/IoT_LINK/iot_link/network/lwm2m/wakaama_lwm2m/wakaama-master/core\observe.c **** 
ARM GAS  C:\Users\²Ü¼ÒºÀ\AppData\Local\Temp\ccA6NNYh.s 			page 16


 461              		.loc 1 295 9 is_stmt 1 view .LVU126
 297:C:/Users/²Ü¼ÒºÀ/.iotlink/sdk/IoT_LINK/iot_link/network/lwm2m/wakaama_lwm2m/wakaama-master/core\observe.c ****                 && lwm2m_session_is_equal(observedP->watcherList->server->sessionH, fromSessionH, c
 462              		.loc 1 297 9 view .LVU127
 297:C:/Users/²Ü¼ÒºÀ/.iotlink/sdk/IoT_LINK/iot_link/network/lwm2m/wakaama_lwm2m/wakaama-master/core\observe.c ****                 && lwm2m_session_is_equal(observedP->watcherList->server->sessionH, fromSessionH, c
 463              		.loc 1 297 22 is_stmt 0 view .LVU128
 464 0054 E368     		ldr	r3, [r4, #12]
 297:C:/Users/²Ü¼ÒºÀ/.iotlink/sdk/IoT_LINK/iot_link/network/lwm2m/wakaama_lwm2m/wakaama-master/core\observe.c ****                 && lwm2m_session_is_equal(observedP->watcherList->server->sessionH, fromSessionH, c
 465              		.loc 1 297 12 view .LVU129
 466 0056 9A8D     		ldrh	r2, [r3, #44]
 467 0058 BA42     		cmp	r2, r7
 468 005a 29D1     		bne	.L45
 298:C:/Users/²Ü¼ÒºÀ/.iotlink/sdk/IoT_LINK/iot_link/network/lwm2m/wakaama_lwm2m/wakaama-master/core\observe.c ****         {
 469              		.loc 1 298 20 view .LVU130
 470 005c 9B68     		ldr	r3, [r3, #8]
 471 005e 6A6B     		ldr	r2, [r5, #52]
 472 0060 D869     		ldr	r0, [r3, #28]
 473 0062 4946     		mov	r1, r9
 474 0064 FFF7FEFF 		bl	lwm2m_session_is_equal
 475              	.LVL38:
 298:C:/Users/²Ü¼ÒºÀ/.iotlink/sdk/IoT_LINK/iot_link/network/lwm2m/wakaama_lwm2m/wakaama-master/core\observe.c ****         {
 476              		.loc 1 298 17 view .LVU131
 477 0068 10B3     		cbz	r0, .L45
 300:C:/Users/²Ü¼ÒºÀ/.iotlink/sdk/IoT_LINK/iot_link/network/lwm2m/wakaama_lwm2m/wakaama-master/core\observe.c ****             observedP->watcherList = observedP->watcherList->next;
 478              		.loc 1 300 13 is_stmt 1 view .LVU132
 300:C:/Users/²Ü¼ÒºÀ/.iotlink/sdk/IoT_LINK/iot_link/network/lwm2m/wakaama_lwm2m/wakaama-master/core\observe.c ****             observedP->watcherList = observedP->watcherList->next;
 479              		.loc 1 300 21 is_stmt 0 view .LVU133
 480 006a E668     		ldr	r6, [r4, #12]
 481              	.LVL39:
 301:C:/Users/²Ü¼ÒºÀ/.iotlink/sdk/IoT_LINK/iot_link/network/lwm2m/wakaama_lwm2m/wakaama-master/core\observe.c ****         }
 482              		.loc 1 301 13 is_stmt 1 view .LVU134
 301:C:/Users/²Ü¼ÒºÀ/.iotlink/sdk/IoT_LINK/iot_link/network/lwm2m/wakaama_lwm2m/wakaama-master/core\observe.c ****         }
 483              		.loc 1 301 36 is_stmt 0 view .LVU135
 484 006c 3368     		ldr	r3, [r6]
 485 006e E360     		str	r3, [r4, #12]
 486              	.L46:
 320:C:/Users/²Ü¼ÒºÀ/.iotlink/sdk/IoT_LINK/iot_link/network/lwm2m/wakaama_lwm2m/wakaama-master/core\observe.c ****         {
 487              		.loc 1 320 9 is_stmt 1 view .LVU136
 322:C:/Users/²Ü¼ÒºÀ/.iotlink/sdk/IoT_LINK/iot_link/network/lwm2m/wakaama_lwm2m/wakaama-master/core\observe.c ****             lwm2m_notify_even(MODULE_URI, OBSERVE_UNSUBSCRIBE, (char *) & (observedP->uri), sizeof(
 488              		.loc 1 322 13 view .LVU137
 489 0070 286A     		ldr	r0, [r5, #32]
 490 0072 FFF7FEFF 		bl	osal_mutex_lock
 491              	.LVL40:
 323:C:/Users/²Ü¼ÒºÀ/.iotlink/sdk/IoT_LINK/iot_link/network/lwm2m/wakaama_lwm2m/wakaama-master/core\observe.c ****             if (targetP->parameters != NULL) lwm2m_free(targetP->parameters);
 492              		.loc 1 323 13 view .LVU138
 493 0076 0220     		movs	r0, #2
 494 0078 0823     		movs	r3, #8
 495 007a 221D     		adds	r2, r4, #4
 496 007c 0021     		movs	r1, #0
 497 007e FFF7FEFF 		bl	lwm2m_notify_even
 498              	.LVL41:
 324:C:/Users/²Ü¼ÒºÀ/.iotlink/sdk/IoT_LINK/iot_link/network/lwm2m/wakaama_lwm2m/wakaama-master/core\observe.c ****             lwm2m_free(targetP);
 499              		.loc 1 324 13 view .LVU139
 324:C:/Users/²Ü¼ÒºÀ/.iotlink/sdk/IoT_LINK/iot_link/network/lwm2m/wakaama_lwm2m/wakaama-master/core\observe.c ****             lwm2m_free(targetP);
 500              		.loc 1 324 24 is_stmt 0 view .LVU140
 501 0082 F068     		ldr	r0, [r6, #12]
 324:C:/Users/²Ü¼ÒºÀ/.iotlink/sdk/IoT_LINK/iot_link/network/lwm2m/wakaama_lwm2m/wakaama-master/core\observe.c ****             lwm2m_free(targetP);
 502              		.loc 1 324 16 view .LVU141
ARM GAS  C:\Users\²Ü¼ÒºÀ\AppData\Local\Temp\ccA6NNYh.s 			page 17


 503 0084 08B1     		cbz	r0, .L56
 324:C:/Users/²Ü¼ÒºÀ/.iotlink/sdk/IoT_LINK/iot_link/network/lwm2m/wakaama_lwm2m/wakaama-master/core\observe.c ****             lwm2m_free(targetP);
 504              		.loc 1 324 46 is_stmt 1 discriminator 1 view .LVU142
 505 0086 FFF7FEFF 		bl	lwm2m_free
 506              	.LVL42:
 507              	.L56:
 325:C:/Users/²Ü¼ÒºÀ/.iotlink/sdk/IoT_LINK/iot_link/network/lwm2m/wakaama_lwm2m/wakaama-master/core\observe.c ****             if (observedP->watcherList == NULL)
 508              		.loc 1 325 13 view .LVU143
 509 008a 3046     		mov	r0, r6
 510 008c FFF7FEFF 		bl	lwm2m_free
 511              	.LVL43:
 326:C:/Users/²Ü¼ÒºÀ/.iotlink/sdk/IoT_LINK/iot_link/network/lwm2m/wakaama_lwm2m/wakaama-master/core\observe.c ****             {
 512              		.loc 1 326 13 view .LVU144
 326:C:/Users/²Ü¼ÒºÀ/.iotlink/sdk/IoT_LINK/iot_link/network/lwm2m/wakaama_lwm2m/wakaama-master/core\observe.c ****             {
 513              		.loc 1 326 16 is_stmt 0 view .LVU145
 514 0090 E368     		ldr	r3, [r4, #12]
 515 0092 3BB9     		cbnz	r3, .L53
 328:C:/Users/²Ü¼ÒºÀ/.iotlink/sdk/IoT_LINK/iot_link/network/lwm2m/wakaama_lwm2m/wakaama-master/core\observe.c ****                 lwm2m_free(observedP);
 516              		.loc 1 328 17 is_stmt 1 view .LVU146
 517 0094 05F11C00 		add	r0, r5, #28
 518 0098 2146     		mov	r1, r4
 519 009a FFF7FEFF 		bl	prv_unlinkObserved.isra.0
 520              	.LVL44:
 329:C:/Users/²Ü¼ÒºÀ/.iotlink/sdk/IoT_LINK/iot_link/network/lwm2m/wakaama_lwm2m/wakaama-master/core\observe.c ****             }
 521              		.loc 1 329 17 view .LVU147
 522 009e 2046     		mov	r0, r4
 523 00a0 FFF7FEFF 		bl	lwm2m_free
 524              	.LVL45:
 525              	.L53:
 331:C:/Users/²Ü¼ÒºÀ/.iotlink/sdk/IoT_LINK/iot_link/network/lwm2m/wakaama_lwm2m/wakaama-master/core\observe.c ****             return;
 526              		.loc 1 331 13 view .LVU148
 331:C:/Users/²Ü¼ÒºÀ/.iotlink/sdk/IoT_LINK/iot_link/network/lwm2m/wakaama_lwm2m/wakaama-master/core\observe.c ****             return;
 527              		.loc 1 331 20 is_stmt 0 view .LVU149
 528 00a4 286A     		ldr	r0, [r5, #32]
 529              	.LBE17:
 530              		.loc 1 335 1 view .LVU150
 531 00a6 07B0     		add	sp, sp, #28
 532              	.LCFI6:
 533              		.cfi_remember_state
 534              		.cfi_def_cfa_offset 28
 535              		@ sp needed
 536 00a8 BDE8F043 		pop	{r4, r5, r6, r7, r8, r9, lr}
 537              	.LCFI7:
 538              		.cfi_restore 14
 539              		.cfi_restore 9
 540              		.cfi_restore 8
 541              		.cfi_restore 7
 542              		.cfi_restore 6
 543              		.cfi_restore 5
 544              		.cfi_restore 4
 545              		.cfi_def_cfa_offset 0
 546              	.LVL46:
 547              	.LBB20:
 331:C:/Users/²Ü¼ÒºÀ/.iotlink/sdk/IoT_LINK/iot_link/network/lwm2m/wakaama_lwm2m/wakaama-master/core\observe.c ****             return;
 548              		.loc 1 331 20 view .LVU151
 549 00ac FFF7FEBF 		b	osal_mutex_unlock
 550              	.LVL47:
ARM GAS  C:\Users\²Ü¼ÒºÀ\AppData\Local\Temp\ccA6NNYh.s 			page 18


 551              	.L45:
 552              	.LCFI8:
 553              		.cfi_restore_state
 554              	.LBB18:
 305:C:/Users/²Ü¼ÒºÀ/.iotlink/sdk/IoT_LINK/iot_link/network/lwm2m/wakaama_lwm2m/wakaama-master/core\observe.c **** 
 555              		.loc 1 305 13 is_stmt 1 view .LVU152
 307:C:/Users/²Ü¼ÒºÀ/.iotlink/sdk/IoT_LINK/iot_link/network/lwm2m/wakaama_lwm2m/wakaama-master/core\observe.c ****             while (parentP->next != NULL
 556              		.loc 1 307 13 view .LVU153
 307:C:/Users/²Ü¼ÒºÀ/.iotlink/sdk/IoT_LINK/iot_link/network/lwm2m/wakaama_lwm2m/wakaama-master/core\observe.c ****             while (parentP->next != NULL
 557              		.loc 1 307 21 is_stmt 0 view .LVU154
 558 00b0 D4F80C80 		ldr	r8, [r4, #12]
 559              	.LVL48:
 308:C:/Users/²Ü¼ÒºÀ/.iotlink/sdk/IoT_LINK/iot_link/network/lwm2m/wakaama_lwm2m/wakaama-master/core\observe.c ****                     && (parentP->next->lastMid != mid
 560              		.loc 1 308 13 is_stmt 1 view .LVU155
 561              	.L47:
 308:C:/Users/²Ü¼ÒºÀ/.iotlink/sdk/IoT_LINK/iot_link/network/lwm2m/wakaama_lwm2m/wakaama-master/core\observe.c ****                     && (parentP->next->lastMid != mid
 562              		.loc 1 308 19 view .LVU156
 308:C:/Users/²Ü¼ÒºÀ/.iotlink/sdk/IoT_LINK/iot_link/network/lwm2m/wakaama_lwm2m/wakaama-master/core\observe.c ****                     && (parentP->next->lastMid != mid
 563              		.loc 1 308 27 is_stmt 0 view .LVU157
 564 00b4 D8F80030 		ldr	r3, [r8]
 308:C:/Users/²Ü¼ÒºÀ/.iotlink/sdk/IoT_LINK/iot_link/network/lwm2m/wakaama_lwm2m/wakaama-master/core\observe.c ****                     && (parentP->next->lastMid != mid
 565              		.loc 1 308 19 view .LVU158
 566 00b8 23B9     		cbnz	r3, .L48
 567              	.L52:
 314:C:/Users/²Ü¼ÒºÀ/.iotlink/sdk/IoT_LINK/iot_link/network/lwm2m/wakaama_lwm2m/wakaama-master/core\observe.c ****             {
 568              		.loc 1 314 13 is_stmt 1 view .LVU159
 314:C:/Users/²Ü¼ÒºÀ/.iotlink/sdk/IoT_LINK/iot_link/network/lwm2m/wakaama_lwm2m/wakaama-master/core\observe.c ****             {
 569              		.loc 1 314 24 is_stmt 0 view .LVU160
 570 00ba D8F80060 		ldr	r6, [r8]
 314:C:/Users/²Ü¼ÒºÀ/.iotlink/sdk/IoT_LINK/iot_link/network/lwm2m/wakaama_lwm2m/wakaama-master/core\observe.c ****             {
 571              		.loc 1 314 16 view .LVU161
 572 00be 7EB9     		cbnz	r6, .L49
 573              	.LVL49:
 314:C:/Users/²Ü¼ÒºÀ/.iotlink/sdk/IoT_LINK/iot_link/network/lwm2m/wakaama_lwm2m/wakaama-master/core\observe.c ****             {
 574              		.loc 1 314 16 view .LVU162
 575              	.LBE18:
 576              	.LBE20:
 293:C:/Users/²Ü¼ÒºÀ/.iotlink/sdk/IoT_LINK/iot_link/network/lwm2m/wakaama_lwm2m/wakaama-master/core\observe.c ****     {
 577              		.loc 1 293 13 is_stmt 1 view .LVU163
 293:C:/Users/²Ü¼ÒºÀ/.iotlink/sdk/IoT_LINK/iot_link/network/lwm2m/wakaama_lwm2m/wakaama-master/core\observe.c ****     {
 578              		.loc 1 293 23 is_stmt 0 view .LVU164
 579 00c0 2468     		ldr	r4, [r4]
 580              	.LVL50:
 293:C:/Users/²Ü¼ÒºÀ/.iotlink/sdk/IoT_LINK/iot_link/network/lwm2m/wakaama_lwm2m/wakaama-master/core\observe.c ****     {
 581              		.loc 1 293 23 view .LVU165
 582 00c2 C3E7     		b	.L44
 583              	.LVL51:
 584              	.L48:
 585              	.LBB21:
 586              	.LBB19:
 309:C:/Users/²Ü¼ÒºÀ/.iotlink/sdk/IoT_LINK/iot_link/network/lwm2m/wakaama_lwm2m/wakaama-master/core\observe.c ****                  || !lwm2m_session_is_equal(parentP->next->server->sessionH, fromSessionH, contextP
 587              		.loc 1 309 21 view .LVU166
 588 00c4 9A8D     		ldrh	r2, [r3, #44]
 589 00c6 BA42     		cmp	r2, r7
 590 00c8 07D1     		bne	.L51
 310:C:/Users/²Ü¼ÒºÀ/.iotlink/sdk/IoT_LINK/iot_link/network/lwm2m/wakaama_lwm2m/wakaama-master/core\observe.c ****             {
 591              		.loc 1 310 22 view .LVU167
ARM GAS  C:\Users\²Ü¼ÒºÀ\AppData\Local\Temp\ccA6NNYh.s 			page 19


 592 00ca 9B68     		ldr	r3, [r3, #8]
 593 00cc 6A6B     		ldr	r2, [r5, #52]
 594 00ce D869     		ldr	r0, [r3, #28]
 595 00d0 4946     		mov	r1, r9
 596 00d2 FFF7FEFF 		bl	lwm2m_session_is_equal
 597              	.LVL52:
 310:C:/Users/²Ü¼ÒºÀ/.iotlink/sdk/IoT_LINK/iot_link/network/lwm2m/wakaama_lwm2m/wakaama-master/core\observe.c ****             {
 598              		.loc 1 310 18 view .LVU168
 599 00d6 0028     		cmp	r0, #0
 600 00d8 EFD1     		bne	.L52
 601              	.L51:
 312:C:/Users/²Ü¼ÒºÀ/.iotlink/sdk/IoT_LINK/iot_link/network/lwm2m/wakaama_lwm2m/wakaama-master/core\observe.c ****             }
 602              		.loc 1 312 17 is_stmt 1 view .LVU169
 312:C:/Users/²Ü¼ÒºÀ/.iotlink/sdk/IoT_LINK/iot_link/network/lwm2m/wakaama_lwm2m/wakaama-master/core\observe.c ****             }
 603              		.loc 1 312 25 is_stmt 0 view .LVU170
 604 00da D8F80080 		ldr	r8, [r8]
 605              	.LVL53:
 312:C:/Users/²Ü¼ÒºÀ/.iotlink/sdk/IoT_LINK/iot_link/network/lwm2m/wakaama_lwm2m/wakaama-master/core\observe.c ****             }
 606              		.loc 1 312 25 view .LVU171
 607 00de E9E7     		b	.L47
 608              	.L49:
 316:C:/Users/²Ü¼ÒºÀ/.iotlink/sdk/IoT_LINK/iot_link/network/lwm2m/wakaama_lwm2m/wakaama-master/core\observe.c ****                 parentP->next = parentP->next->next;
 609              		.loc 1 316 17 is_stmt 1 view .LVU172
 610              	.LVL54:
 317:C:/Users/²Ü¼ÒºÀ/.iotlink/sdk/IoT_LINK/iot_link/network/lwm2m/wakaama_lwm2m/wakaama-master/core\observe.c ****             }
 611              		.loc 1 317 17 view .LVU173
 317:C:/Users/²Ü¼ÒºÀ/.iotlink/sdk/IoT_LINK/iot_link/network/lwm2m/wakaama_lwm2m/wakaama-master/core\observe.c ****             }
 612              		.loc 1 317 46 is_stmt 0 view .LVU174
 613 00e0 3368     		ldr	r3, [r6]
 317:C:/Users/²Ü¼ÒºÀ/.iotlink/sdk/IoT_LINK/iot_link/network/lwm2m/wakaama_lwm2m/wakaama-master/core\observe.c ****             }
 614              		.loc 1 317 31 view .LVU175
 615 00e2 C8F80030 		str	r3, [r8]
 616 00e6 C3E7     		b	.L46
 617              	.L63:
 618              		.align	2
 619              	.L62:
 620 00e8 00000000 		.word	.LANCHOR2
 621 00ec 00000000 		.word	.LANCHOR1
 622 00f0 00000000 		.word	.LC0
 623 00f4 00000000 		.word	_impure_ptr
 624              	.LBE19:
 625              	.LBE21:
 626              		.cfi_endproc
 627              	.LFE10:
 629              		.section	.rodata.observe_handleRequest.str1.1,"aMS",%progbits,1
 630              	.LC1:
 631 0000 53544154 		.ascii	"STATE_BS_FAILED\000"
 631      455F4253 
 631      5F464149 
 631      4C454400 
 632              	.LC2:
 633 0010 53544154 		.ascii	"STATE_BS_FINISHING\000"
 633      455F4253 
 633      5F46494E 
 633      49534849 
 633      4E4700
 634              	.LC3:
ARM GAS  C:\Users\²Ü¼ÒºÀ\AppData\Local\Temp\ccA6NNYh.s 			page 20


 635 0023 53544154 		.ascii	"STATE_DEREGISTERED\000"
 635      455F4445 
 635      52454749 
 635      53544552 
 635      454400
 636              	.LC4:
 637 0036 53544154 		.ascii	"STATE_REG_PENDING\000"
 637      455F5245 
 637      475F5045 
 637      4E44494E 
 637      4700
 638              	.LC5:
 639 0048 53544154 		.ascii	"STATE_REGISTERED\000"
 639      455F5245 
 639      47495354 
 639      45524544 
 639      00
 640              	.LC6:
 641 0059 53544154 		.ascii	"STATE_REG_FAILED\000"
 641      455F5245 
 641      475F4641 
 641      494C4544 
 641      00
 642              	.LC7:
 643 006a 53544154 		.ascii	"STATE_REG_UPDATE_PENDING\000"
 643      455F5245 
 643      475F5550 
 643      44415445 
 643      5F50454E 
 644              	.LC8:
 645 0083 53544154 		.ascii	"STATE_REG_UPDATE_NEEDED\000"
 645      455F5245 
 645      475F5550 
 645      44415445 
 645      5F4E4545 
 646              	.LC9:
 647 009b 53544154 		.ascii	"STATE_REG_FULL_UPDATE_NEEDED\000"
 647      455F5245 
 647      475F4655 
 647      4C4C5F55 
 647      50444154 
 648              	.LC10:
 649 00b8 53544154 		.ascii	"STATE_DEREG_PENDING\000"
 649      455F4445 
 649      5245475F 
 649      50454E44 
 649      494E4700 
 650              	.LC11:
 651 00cc 53544154 		.ascii	"STATE_BS_HOLD_OFF\000"
 651      455F4253 
 651      5F484F4C 
 651      445F4F46 
 651      4600
 652              	.LC12:
 653 00de 53544154 		.ascii	"STATE_BS_INITIATED\000"
 653      455F4253 
 653      5F494E49 
ARM GAS  C:\Users\²Ü¼ÒºÀ\AppData\Local\Temp\ccA6NNYh.s 			page 21


 653      54494154 
 653      454400
 654              	.LC13:
 655 00f1 53544154 		.ascii	"STATE_BS_PENDING\000"
 655      455F4253 
 655      5F50454E 
 655      44494E47 
 655      00
 656              	.LC14:
 657 0102 53544154 		.ascii	"STATE_BS_FINISHED\000"
 657      455F4253 
 657      5F46494E 
 657      49534845 
 657      4400
 658              	.LC15:
 659 0114 53544154 		.ascii	"STATE_BS_FAILING\000"
 659      455F4253 
 659      5F464149 
 659      4C494E47 
 659      00
 660              	.LC16:
 661 0125 556E6B6E 		.ascii	"Unknown\000"
 661      6F776E00 
 662              	.LC17:
 663 012d 5B25735D 		.ascii	"[%s][%u][%s] [%d][%s:%d] Code: %02X, server status:"
 663      5B25755D 
 663      5B25735D 
 663      205B2564 
 663      5D5B2573 
 664 0160 2025730D 		.ascii	" %s\015\012\015\012\000"
 664      0A0D0A00 
 665              	.LC18:
 666 0168 5B25735D 		.ascii	"[%s][%u][%s] [%s:%d] NULL\015\012\015\012\000"
 666      5B25755D 
 666      5B25735D 
 666      205B2573 
 666      3A25645D 
 667              	.LC19:
 668 0186 5B25735D 		.ascii	"[%s][%u][%s] [%s:%d] /%d\015\012\000"
 668      5B25755D 
 668      5B25735D 
 668      205B2573 
 668      3A25645D 
 669              	.LC20:
 670 01a1 5B25735D 		.ascii	"[%s][%u][%s] /%d\015\012\000"
 670      5B25755D 
 670      5B25735D 
 670      202F2564 
 670      0D0A00
 671              	.LC21:
 672 01b4 5B25735D 		.ascii	"[%s][%u][%s] \015\012\015\012\000"
 672      5B25755D 
 672      5B25735D 
 672      200D0A0D 
 672      0A00
 673              		.section	.text.observe_handleRequest,"ax",%progbits
 674              		.align	1
ARM GAS  C:\Users\²Ü¼ÒºÀ\AppData\Local\Temp\ccA6NNYh.s 			page 22


 675              		.global	observe_handleRequest
 676              		.syntax unified
 677              		.thumb
 678              		.thumb_func
 679              		.fpu fpv4-sp-d16
 681              	observe_handleRequest:
 682              	.LVL55:
 683              	.LFB9:
 213:C:/Users/²Ü¼ÒºÀ/.iotlink/sdk/IoT_LINK/iot_link/network/lwm2m/wakaama_lwm2m/wakaama-master/core\observe.c ****     lwm2m_observed_t * observedP;
 684              		.loc 1 213 1 is_stmt 1 view -0
 685              		.cfi_startproc
 686              		@ args = 12, pretend = 0, frame = 16
 687              		@ frame_needed = 0, uses_anonymous_args = 0
 214:C:/Users/²Ü¼ÒºÀ/.iotlink/sdk/IoT_LINK/iot_link/network/lwm2m/wakaama_lwm2m/wakaama-master/core\observe.c ****     lwm2m_watcher_t *watcherP;
 688              		.loc 1 214 5 view .LVU177
 215:C:/Users/²Ü¼ÒºÀ/.iotlink/sdk/IoT_LINK/iot_link/network/lwm2m/wakaama_lwm2m/wakaama-master/core\observe.c ****     uint32_t count;
 689              		.loc 1 215 5 view .LVU178
 216:C:/Users/²Ü¼ÒºÀ/.iotlink/sdk/IoT_LINK/iot_link/network/lwm2m/wakaama_lwm2m/wakaama-master/core\observe.c **** 
 690              		.loc 1 216 5 view .LVU179
 218:C:/Users/²Ü¼ÒºÀ/.iotlink/sdk/IoT_LINK/iot_link/network/lwm2m/wakaama_lwm2m/wakaama-master/core\observe.c ****     LOG_URI(uriP);
 691              		.loc 1 218 5 view .LVU180
 218:C:/Users/²Ü¼ÒºÀ/.iotlink/sdk/IoT_LINK/iot_link/network/lwm2m/wakaama_lwm2m/wakaama-master/core\observe.c ****     LOG_URI(uriP);
 692              		.loc 1 218 5 view .LVU181
 213:C:/Users/²Ü¼ÒºÀ/.iotlink/sdk/IoT_LINK/iot_link/network/lwm2m/wakaama_lwm2m/wakaama-master/core\observe.c ****     lwm2m_observed_t * observedP;
 693              		.loc 1 213 1 is_stmt 0 view .LVU182
 694 0000 2DE9F047 		push	{r4, r5, r6, r7, r8, r9, r10, lr}
 695              	.LCFI9:
 696              		.cfi_def_cfa_offset 32
 697              		.cfi_offset 4, -32
 698              		.cfi_offset 5, -28
 699              		.cfi_offset 6, -24
 700              		.cfi_offset 7, -20
 701              		.cfi_offset 8, -16
 702              		.cfi_offset 9, -12
 703              		.cfi_offset 10, -8
 704              		.cfi_offset 14, -4
 705 0004 8AB0     		sub	sp, sp, #40
 706              	.LCFI10:
 707              		.cfi_def_cfa_offset 72
 213:C:/Users/²Ü¼ÒºÀ/.iotlink/sdk/IoT_LINK/iot_link/network/lwm2m/wakaama_lwm2m/wakaama-master/core\observe.c ****     lwm2m_observed_t * observedP;
 708              		.loc 1 213 1 view .LVU183
 709 0006 DDE91285 		ldrd	r8, r5, [sp, #72]
 710 000a DDF850A0 		ldr	r10, [sp, #80]
 711 000e 0746     		mov	r7, r0
 712 0010 0C46     		mov	r4, r1
 713 0012 1646     		mov	r6, r2
 218:C:/Users/²Ü¼ÒºÀ/.iotlink/sdk/IoT_LINK/iot_link/network/lwm2m/wakaama_lwm2m/wakaama-master/core\observe.c ****     LOG_URI(uriP);
 714              		.loc 1 218 5 view .LVU184
 715 0014 FFF7FEFF 		bl	link_log_level_get
 716              	.LVL56:
 218:C:/Users/²Ü¼ÒºÀ/.iotlink/sdk/IoT_LINK/iot_link/network/lwm2m/wakaama_lwm2m/wakaama-master/core\observe.c ****     LOG_URI(uriP);
 717              		.loc 1 218 5 view .LVU185
 718 0018 0128     		cmp	r0, #1
 719 001a 40D8     		bhi	.L65
 218:C:/Users/²Ü¼ÒºÀ/.iotlink/sdk/IoT_LINK/iot_link/network/lwm2m/wakaama_lwm2m/wakaama-master/core\observe.c ****     LOG_URI(uriP);
 720              		.loc 1 218 5 is_stmt 1 discriminator 1 view .LVU186
 218:C:/Users/²Ü¼ÒºÀ/.iotlink/sdk/IoT_LINK/iot_link/network/lwm2m/wakaama_lwm2m/wakaama-master/core\observe.c ****     LOG_URI(uriP);
ARM GAS  C:\Users\²Ü¼ÒºÀ\AppData\Local\Temp\ccA6NNYh.s 			page 23


 721              		.loc 1 218 5 discriminator 1 view .LVU187
 218:C:/Users/²Ü¼ÒºÀ/.iotlink/sdk/IoT_LINK/iot_link/network/lwm2m/wakaama_lwm2m/wakaama-master/core\observe.c ****     LOG_URI(uriP);
 722              		.loc 1 218 5 discriminator 1 view .LVU188
 723 001c 0120     		movs	r0, #1
 724 001e FFF7FEFF 		bl	link_log_level_name
 725              	.LVL57:
 726 0022 8146     		mov	r9, r0
 727 0024 FFF7FEFF 		bl	osal_sys_time
 728              	.LVL58:
 729 0028 0790     		str	r0, [sp, #28]
 730 002a FFF7FEFF 		bl	lwm2m_gettime
 731              	.LVL59:
 732 002e 96F82010 		ldrb	r1, [r6, #32]	@ zero_extendqisi2
 733 0032 95F806C0 		ldrb	ip, [r5, #6]	@ zero_extendqisi2
 734 0036 079A     		ldr	r2, [sp, #28]
 735 0038 0029     		cmp	r1, #0
 736 003a 58D0     		beq	.L93
 218:C:/Users/²Ü¼ÒºÀ/.iotlink/sdk/IoT_LINK/iot_link/network/lwm2m/wakaama_lwm2m/wakaama-master/core\observe.c ****     LOG_URI(uriP);
 737              		.loc 1 218 5 is_stmt 0 discriminator 3 view .LVU189
 738 003c 0129     		cmp	r1, #1
 739 003e 58D0     		beq	.L94
 218:C:/Users/²Ü¼ÒºÀ/.iotlink/sdk/IoT_LINK/iot_link/network/lwm2m/wakaama_lwm2m/wakaama-master/core\observe.c ****     LOG_URI(uriP);
 740              		.loc 1 218 5 discriminator 5 view .LVU190
 741 0040 0229     		cmp	r1, #2
 742 0042 58D0     		beq	.L95
 218:C:/Users/²Ü¼ÒºÀ/.iotlink/sdk/IoT_LINK/iot_link/network/lwm2m/wakaama_lwm2m/wakaama-master/core\observe.c ****     LOG_URI(uriP);
 743              		.loc 1 218 5 discriminator 7 view .LVU191
 744 0044 0329     		cmp	r1, #3
 745 0046 58D0     		beq	.L96
 218:C:/Users/²Ü¼ÒºÀ/.iotlink/sdk/IoT_LINK/iot_link/network/lwm2m/wakaama_lwm2m/wakaama-master/core\observe.c ****     LOG_URI(uriP);
 746              		.loc 1 218 5 discriminator 9 view .LVU192
 747 0048 0429     		cmp	r1, #4
 748 004a 58D0     		beq	.L97
 218:C:/Users/²Ü¼ÒºÀ/.iotlink/sdk/IoT_LINK/iot_link/network/lwm2m/wakaama_lwm2m/wakaama-master/core\observe.c ****     LOG_URI(uriP);
 749              		.loc 1 218 5 discriminator 11 view .LVU193
 750 004c 0529     		cmp	r1, #5
 751 004e 58D0     		beq	.L98
 218:C:/Users/²Ü¼ÒºÀ/.iotlink/sdk/IoT_LINK/iot_link/network/lwm2m/wakaama_lwm2m/wakaama-master/core\observe.c ****     LOG_URI(uriP);
 752              		.loc 1 218 5 discriminator 13 view .LVU194
 753 0050 0629     		cmp	r1, #6
 754 0052 58D0     		beq	.L99
 218:C:/Users/²Ü¼ÒºÀ/.iotlink/sdk/IoT_LINK/iot_link/network/lwm2m/wakaama_lwm2m/wakaama-master/core\observe.c ****     LOG_URI(uriP);
 755              		.loc 1 218 5 discriminator 15 view .LVU195
 756 0054 0729     		cmp	r1, #7
 757 0056 58D0     		beq	.L100
 218:C:/Users/²Ü¼ÒºÀ/.iotlink/sdk/IoT_LINK/iot_link/network/lwm2m/wakaama_lwm2m/wakaama-master/core\observe.c ****     LOG_URI(uriP);
 758              		.loc 1 218 5 discriminator 17 view .LVU196
 759 0058 0829     		cmp	r1, #8
 760 005a 58D0     		beq	.L101
 218:C:/Users/²Ü¼ÒºÀ/.iotlink/sdk/IoT_LINK/iot_link/network/lwm2m/wakaama_lwm2m/wakaama-master/core\observe.c ****     LOG_URI(uriP);
 761              		.loc 1 218 5 discriminator 19 view .LVU197
 762 005c 0929     		cmp	r1, #9
 763 005e 58D0     		beq	.L102
 218:C:/Users/²Ü¼ÒºÀ/.iotlink/sdk/IoT_LINK/iot_link/network/lwm2m/wakaama_lwm2m/wakaama-master/core\observe.c ****     LOG_URI(uriP);
 764              		.loc 1 218 5 discriminator 21 view .LVU198
 765 0060 0A29     		cmp	r1, #10
 766 0062 58D0     		beq	.L103
ARM GAS  C:\Users\²Ü¼ÒºÀ\AppData\Local\Temp\ccA6NNYh.s 			page 24


 218:C:/Users/²Ü¼ÒºÀ/.iotlink/sdk/IoT_LINK/iot_link/network/lwm2m/wakaama_lwm2m/wakaama-master/core\observe.c ****     LOG_URI(uriP);
 767              		.loc 1 218 5 discriminator 23 view .LVU199
 768 0064 0C29     		cmp	r1, #12
 769 0066 58D0     		beq	.L104
 218:C:/Users/²Ü¼ÒºÀ/.iotlink/sdk/IoT_LINK/iot_link/network/lwm2m/wakaama_lwm2m/wakaama-master/core\observe.c ****     LOG_URI(uriP);
 770              		.loc 1 218 5 discriminator 25 view .LVU200
 771 0068 0B29     		cmp	r1, #11
 772 006a 58D0     		beq	.L105
 218:C:/Users/²Ü¼ÒºÀ/.iotlink/sdk/IoT_LINK/iot_link/network/lwm2m/wakaama_lwm2m/wakaama-master/core\observe.c ****     LOG_URI(uriP);
 773              		.loc 1 218 5 discriminator 27 view .LVU201
 774 006c 0D29     		cmp	r1, #13
 775 006e 58D0     		beq	.L106
 218:C:/Users/²Ü¼ÒºÀ/.iotlink/sdk/IoT_LINK/iot_link/network/lwm2m/wakaama_lwm2m/wakaama-master/core\observe.c ****     LOG_URI(uriP);
 776              		.loc 1 218 5 discriminator 29 view .LVU202
 777 0070 904B     		ldr	r3, .L117
 778 0072 DFF89CE2 		ldr	lr, .L117+92
 779 0076 0E29     		cmp	r1, #14
 780 0078 18BF     		it	ne
 781 007a 7346     		movne	r3, lr
 782              	.L66:
 218:C:/Users/²Ü¼ÒºÀ/.iotlink/sdk/IoT_LINK/iot_link/network/lwm2m/wakaama_lwm2m/wakaama-master/core\observe.c ****     LOG_URI(uriP);
 783              		.loc 1 218 5 discriminator 62 view .LVU203
 784 007c CDE903C3 		strd	ip, r3, [sp, #12]
 785 0080 DA23     		movs	r3, #218
 786 0082 0293     		str	r3, [sp, #8]
 787 0084 8C4B     		ldr	r3, .L117+4
 788 0086 4946     		mov	r1, r9
 789 0088 CDE90003 		strd	r0, r3, [sp]
 790 008c 8B4B     		ldr	r3, .L117+8
 791 008e 8C48     		ldr	r0, .L117+12
 792 0090 FFF7FEFF 		bl	printf
 793              	.LVL60:
 218:C:/Users/²Ü¼ÒºÀ/.iotlink/sdk/IoT_LINK/iot_link/network/lwm2m/wakaama_lwm2m/wakaama-master/core\observe.c ****     LOG_URI(uriP);
 794              		.loc 1 218 5 is_stmt 1 discriminator 62 view .LVU204
 795 0094 8B4B     		ldr	r3, .L117+16
 796 0096 1B68     		ldr	r3, [r3]
 797 0098 9868     		ldr	r0, [r3, #8]
 798 009a FFF7FEFF 		bl	fflush
 799              	.LVL61:
 800              	.L65:
 218:C:/Users/²Ü¼ÒºÀ/.iotlink/sdk/IoT_LINK/iot_link/network/lwm2m/wakaama_lwm2m/wakaama-master/core\observe.c ****     LOG_URI(uriP);
 801              		.loc 1 218 5 discriminator 63 view .LVU205
 218:C:/Users/²Ü¼ÒºÀ/.iotlink/sdk/IoT_LINK/iot_link/network/lwm2m/wakaama_lwm2m/wakaama-master/core\observe.c ****     LOG_URI(uriP);
 802              		.loc 1 218 5 discriminator 63 view .LVU206
 218:C:/Users/²Ü¼ÒºÀ/.iotlink/sdk/IoT_LINK/iot_link/network/lwm2m/wakaama_lwm2m/wakaama-master/core\observe.c ****     LOG_URI(uriP);
 803              		.loc 1 218 5 discriminator 63 view .LVU207
 219:C:/Users/²Ü¼ÒºÀ/.iotlink/sdk/IoT_LINK/iot_link/network/lwm2m/wakaama_lwm2m/wakaama-master/core\observe.c **** 
 804              		.loc 1 219 5 discriminator 63 view .LVU208
 805 009e 002C     		cmp	r4, #0
 806 00a0 41D1     		bne	.L67
 219:C:/Users/²Ü¼ÒºÀ/.iotlink/sdk/IoT_LINK/iot_link/network/lwm2m/wakaama_lwm2m/wakaama-master/core\observe.c **** 
 807              		.loc 1 219 5 discriminator 1 view .LVU209
 219:C:/Users/²Ü¼ÒºÀ/.iotlink/sdk/IoT_LINK/iot_link/network/lwm2m/wakaama_lwm2m/wakaama-master/core\observe.c **** 
 808              		.loc 1 219 5 discriminator 1 view .LVU210
 809 00a2 FFF7FEFF 		bl	link_log_level_get
 810              	.LVL62:
 811 00a6 0128     		cmp	r0, #1
ARM GAS  C:\Users\²Ü¼ÒºÀ\AppData\Local\Temp\ccA6NNYh.s 			page 25


 812 00a8 14D8     		bhi	.L69
 219:C:/Users/²Ü¼ÒºÀ/.iotlink/sdk/IoT_LINK/iot_link/network/lwm2m/wakaama_lwm2m/wakaama-master/core\observe.c **** 
 813              		.loc 1 219 5 discriminator 3 view .LVU211
 219:C:/Users/²Ü¼ÒºÀ/.iotlink/sdk/IoT_LINK/iot_link/network/lwm2m/wakaama_lwm2m/wakaama-master/core\observe.c **** 
 814              		.loc 1 219 5 discriminator 3 view .LVU212
 219:C:/Users/²Ü¼ÒºÀ/.iotlink/sdk/IoT_LINK/iot_link/network/lwm2m/wakaama_lwm2m/wakaama-master/core\observe.c **** 
 815              		.loc 1 219 5 discriminator 3 view .LVU213
 816 00aa 0120     		movs	r0, #1
 817 00ac FFF7FEFF 		bl	link_log_level_name
 818              	.LVL63:
 819 00b0 8146     		mov	r9, r0
 820 00b2 FFF7FEFF 		bl	osal_sys_time
 821              	.LVL64:
 822 00b6 DB23     		movs	r3, #219
 823 00b8 0193     		str	r3, [sp, #4]
 824 00ba 7F4B     		ldr	r3, .L117+4
 825 00bc 0093     		str	r3, [sp]
 826 00be 0246     		mov	r2, r0
 827 00c0 7E4B     		ldr	r3, .L117+8
 828 00c2 8148     		ldr	r0, .L117+20
 829 00c4 4946     		mov	r1, r9
 830 00c6 FFF7FEFF 		bl	printf
 831              	.LVL65:
 219:C:/Users/²Ü¼ÒºÀ/.iotlink/sdk/IoT_LINK/iot_link/network/lwm2m/wakaama_lwm2m/wakaama-master/core\observe.c **** 
 832              		.loc 1 219 5 discriminator 3 view .LVU214
 833              	.L114:
 219:C:/Users/²Ü¼ÒºÀ/.iotlink/sdk/IoT_LINK/iot_link/network/lwm2m/wakaama_lwm2m/wakaama-master/core\observe.c **** 
 834              		.loc 1 219 5 discriminator 19 view .LVU215
 835 00ca 7E4B     		ldr	r3, .L117+16
 836 00cc 1B68     		ldr	r3, [r3]
 837 00ce 9868     		ldr	r0, [r3, #8]
 838 00d0 FFF7FEFF 		bl	fflush
 839              	.LVL66:
 840              	.L69:
 219:C:/Users/²Ü¼ÒºÀ/.iotlink/sdk/IoT_LINK/iot_link/network/lwm2m/wakaama_lwm2m/wakaama-master/core\observe.c **** 
 841              		.loc 1 219 5 discriminator 21 view .LVU216
 219:C:/Users/²Ü¼ÒºÀ/.iotlink/sdk/IoT_LINK/iot_link/network/lwm2m/wakaama_lwm2m/wakaama-master/core\observe.c **** 
 842              		.loc 1 219 5 discriminator 21 view .LVU217
 219:C:/Users/²Ü¼ÒºÀ/.iotlink/sdk/IoT_LINK/iot_link/network/lwm2m/wakaama_lwm2m/wakaama-master/core\observe.c **** 
 843              		.loc 1 219 5 discriminator 21 view .LVU218
 219:C:/Users/²Ü¼ÒºÀ/.iotlink/sdk/IoT_LINK/iot_link/network/lwm2m/wakaama_lwm2m/wakaama-master/core\observe.c **** 
 844              		.loc 1 219 18 discriminator 21 view .LVU219
 221:C:/Users/²Ü¼ÒºÀ/.iotlink/sdk/IoT_LINK/iot_link/network/lwm2m/wakaama_lwm2m/wakaama-master/core\observe.c **** 
 845              		.loc 1 221 5 discriminator 21 view .LVU220
 846 00d4 09A9     		add	r1, sp, #36
 847 00d6 2846     		mov	r0, r5
 848 00d8 FFF7FEFF 		bl	coap_get_header_observe
 849              	.LVL67:
 223:C:/Users/²Ü¼ÒºÀ/.iotlink/sdk/IoT_LINK/iot_link/network/lwm2m/wakaama_lwm2m/wakaama-master/core\observe.c ****     {
 850              		.loc 1 223 5 discriminator 21 view .LVU221
 851 00dc 099B     		ldr	r3, [sp, #36]
 852 00de 002B     		cmp	r3, #0
 853 00e0 00F08180 		beq	.L78
 223:C:/Users/²Ü¼ÒºÀ/.iotlink/sdk/IoT_LINK/iot_link/network/lwm2m/wakaama_lwm2m/wakaama-master/core\observe.c ****     {
 854              		.loc 1 223 5 is_stmt 0 view .LVU222
 855 00e4 012B     		cmp	r3, #1
 856 00e6 00F0D080 		beq	.L79
ARM GAS  C:\Users\²Ü¼ÒºÀ\AppData\Local\Temp\ccA6NNYh.s 			page 26


 857              	.L109:
 226:C:/Users/²Ü¼ÒºÀ/.iotlink/sdk/IoT_LINK/iot_link/network/lwm2m/wakaama_lwm2m/wakaama-master/core\observe.c ****         if (message->token_len == 0) return COAP_400_BAD_REQUEST;
 858              		.loc 1 226 89 view .LVU223
 859 00ea 8020     		movs	r0, #128
 860 00ec 8EE0     		b	.L112
 861              	.L93:
 218:C:/Users/²Ü¼ÒºÀ/.iotlink/sdk/IoT_LINK/iot_link/network/lwm2m/wakaama_lwm2m/wakaama-master/core\observe.c ****     LOG_URI(uriP);
 862              		.loc 1 218 5 view .LVU224
 863 00ee 774B     		ldr	r3, .L117+24
 864 00f0 C4E7     		b	.L66
 865              	.L94:
 866 00f2 774B     		ldr	r3, .L117+28
 867 00f4 C2E7     		b	.L66
 868              	.L95:
 869 00f6 774B     		ldr	r3, .L117+32
 870 00f8 C0E7     		b	.L66
 871              	.L96:
 872 00fa 774B     		ldr	r3, .L117+36
 873 00fc BEE7     		b	.L66
 874              	.L97:
 875 00fe 774B     		ldr	r3, .L117+40
 876 0100 BCE7     		b	.L66
 877              	.L98:
 878 0102 774B     		ldr	r3, .L117+44
 879 0104 BAE7     		b	.L66
 880              	.L99:
 881 0106 774B     		ldr	r3, .L117+48
 882 0108 B8E7     		b	.L66
 883              	.L100:
 884 010a 774B     		ldr	r3, .L117+52
 885 010c B6E7     		b	.L66
 886              	.L101:
 887 010e 774B     		ldr	r3, .L117+56
 888 0110 B4E7     		b	.L66
 889              	.L102:
 890 0112 774B     		ldr	r3, .L117+60
 891 0114 B2E7     		b	.L66
 892              	.L103:
 893 0116 774B     		ldr	r3, .L117+64
 894 0118 B0E7     		b	.L66
 895              	.L104:
 896 011a 774B     		ldr	r3, .L117+68
 897 011c AEE7     		b	.L66
 898              	.L105:
 899 011e 774B     		ldr	r3, .L117+72
 900 0120 ACE7     		b	.L66
 901              	.L106:
 902 0122 774B     		ldr	r3, .L117+76
 903 0124 AAE7     		b	.L66
 904              	.L67:
 219:C:/Users/²Ü¼ÒºÀ/.iotlink/sdk/IoT_LINK/iot_link/network/lwm2m/wakaama_lwm2m/wakaama-master/core\observe.c **** 
 905              		.loc 1 219 5 is_stmt 1 discriminator 2 view .LVU225
 219:C:/Users/²Ü¼ÒºÀ/.iotlink/sdk/IoT_LINK/iot_link/network/lwm2m/wakaama_lwm2m/wakaama-master/core\observe.c **** 
 906              		.loc 1 219 5 discriminator 2 view .LVU226
 907 0126 FFF7FEFF 		bl	link_log_level_get
 908              	.LVL68:
 909 012a 0128     		cmp	r0, #1
ARM GAS  C:\Users\²Ü¼ÒºÀ\AppData\Local\Temp\ccA6NNYh.s 			page 27


 910 012c 16D8     		bhi	.L70
 219:C:/Users/²Ü¼ÒºÀ/.iotlink/sdk/IoT_LINK/iot_link/network/lwm2m/wakaama_lwm2m/wakaama-master/core\observe.c **** 
 911              		.loc 1 219 5 discriminator 6 view .LVU227
 219:C:/Users/²Ü¼ÒºÀ/.iotlink/sdk/IoT_LINK/iot_link/network/lwm2m/wakaama_lwm2m/wakaama-master/core\observe.c **** 
 912              		.loc 1 219 5 discriminator 6 view .LVU228
 219:C:/Users/²Ü¼ÒºÀ/.iotlink/sdk/IoT_LINK/iot_link/network/lwm2m/wakaama_lwm2m/wakaama-master/core\observe.c **** 
 913              		.loc 1 219 5 discriminator 6 view .LVU229
 914 012e 0120     		movs	r0, #1
 915 0130 FFF7FEFF 		bl	link_log_level_name
 916              	.LVL69:
 917 0134 8146     		mov	r9, r0
 918 0136 FFF7FEFF 		bl	osal_sys_time
 919              	.LVL70:
 920 013a 6388     		ldrh	r3, [r4, #2]
 921 013c 0293     		str	r3, [sp, #8]
 922 013e DB23     		movs	r3, #219
 923 0140 0193     		str	r3, [sp, #4]
 924 0142 5D4B     		ldr	r3, .L117+4
 925 0144 0093     		str	r3, [sp]
 926 0146 0246     		mov	r2, r0
 927 0148 5C4B     		ldr	r3, .L117+8
 928 014a 6E48     		ldr	r0, .L117+80
 929 014c 4946     		mov	r1, r9
 930 014e FFF7FEFF 		bl	printf
 931              	.LVL71:
 219:C:/Users/²Ü¼ÒºÀ/.iotlink/sdk/IoT_LINK/iot_link/network/lwm2m/wakaama_lwm2m/wakaama-master/core\observe.c **** 
 932              		.loc 1 219 5 discriminator 6 view .LVU230
 933 0152 5C4B     		ldr	r3, .L117+16
 934 0154 1B68     		ldr	r3, [r3]
 935 0156 9868     		ldr	r0, [r3, #8]
 936 0158 FFF7FEFF 		bl	fflush
 937              	.LVL72:
 938              	.L70:
 219:C:/Users/²Ü¼ÒºÀ/.iotlink/sdk/IoT_LINK/iot_link/network/lwm2m/wakaama_lwm2m/wakaama-master/core\observe.c **** 
 939              		.loc 1 219 5 discriminator 8 view .LVU231
 219:C:/Users/²Ü¼ÒºÀ/.iotlink/sdk/IoT_LINK/iot_link/network/lwm2m/wakaama_lwm2m/wakaama-master/core\observe.c **** 
 940              		.loc 1 219 5 discriminator 8 view .LVU232
 219:C:/Users/²Ü¼ÒºÀ/.iotlink/sdk/IoT_LINK/iot_link/network/lwm2m/wakaama_lwm2m/wakaama-master/core\observe.c **** 
 941              		.loc 1 219 5 discriminator 8 view .LVU233
 219:C:/Users/²Ü¼ÒºÀ/.iotlink/sdk/IoT_LINK/iot_link/network/lwm2m/wakaama_lwm2m/wakaama-master/core\observe.c **** 
 942              		.loc 1 219 5 discriminator 8 view .LVU234
 943 015c 2378     		ldrb	r3, [r4]	@ zero_extendqisi2
 944 015e 9807     		lsls	r0, r3, #30
 945 0160 16D5     		bpl	.L72
 219:C:/Users/²Ü¼ÒºÀ/.iotlink/sdk/IoT_LINK/iot_link/network/lwm2m/wakaama_lwm2m/wakaama-master/core\observe.c **** 
 946              		.loc 1 219 5 discriminator 9 view .LVU235
 219:C:/Users/²Ü¼ÒºÀ/.iotlink/sdk/IoT_LINK/iot_link/network/lwm2m/wakaama_lwm2m/wakaama-master/core\observe.c **** 
 947              		.loc 1 219 5 discriminator 9 view .LVU236
 948 0162 FFF7FEFF 		bl	link_log_level_get
 949              	.LVL73:
 950 0166 0128     		cmp	r0, #1
 951 0168 12D8     		bhi	.L72
 219:C:/Users/²Ü¼ÒºÀ/.iotlink/sdk/IoT_LINK/iot_link/network/lwm2m/wakaama_lwm2m/wakaama-master/core\observe.c **** 
 952              		.loc 1 219 5 discriminator 11 view .LVU237
 219:C:/Users/²Ü¼ÒºÀ/.iotlink/sdk/IoT_LINK/iot_link/network/lwm2m/wakaama_lwm2m/wakaama-master/core\observe.c **** 
 953              		.loc 1 219 5 discriminator 11 view .LVU238
 219:C:/Users/²Ü¼ÒºÀ/.iotlink/sdk/IoT_LINK/iot_link/network/lwm2m/wakaama_lwm2m/wakaama-master/core\observe.c **** 
ARM GAS  C:\Users\²Ü¼ÒºÀ\AppData\Local\Temp\ccA6NNYh.s 			page 28


 954              		.loc 1 219 5 discriminator 11 view .LVU239
 955 016a 0120     		movs	r0, #1
 956 016c FFF7FEFF 		bl	link_log_level_name
 957              	.LVL74:
 958 0170 8146     		mov	r9, r0
 959 0172 FFF7FEFF 		bl	osal_sys_time
 960              	.LVL75:
 961 0176 A388     		ldrh	r3, [r4, #4]
 962 0178 0093     		str	r3, [sp]
 963 017a 0246     		mov	r2, r0
 964 017c 4F4B     		ldr	r3, .L117+8
 965 017e 6248     		ldr	r0, .L117+84
 966 0180 4946     		mov	r1, r9
 967 0182 FFF7FEFF 		bl	printf
 968              	.LVL76:
 219:C:/Users/²Ü¼ÒºÀ/.iotlink/sdk/IoT_LINK/iot_link/network/lwm2m/wakaama_lwm2m/wakaama-master/core\observe.c **** 
 969              		.loc 1 219 5 discriminator 11 view .LVU240
 970 0186 4F4B     		ldr	r3, .L117+16
 971 0188 1B68     		ldr	r3, [r3]
 972 018a 9868     		ldr	r0, [r3, #8]
 973 018c FFF7FEFF 		bl	fflush
 974              	.LVL77:
 975              	.L72:
 219:C:/Users/²Ü¼ÒºÀ/.iotlink/sdk/IoT_LINK/iot_link/network/lwm2m/wakaama_lwm2m/wakaama-master/core\observe.c **** 
 976              		.loc 1 219 5 discriminator 13 view .LVU241
 219:C:/Users/²Ü¼ÒºÀ/.iotlink/sdk/IoT_LINK/iot_link/network/lwm2m/wakaama_lwm2m/wakaama-master/core\observe.c **** 
 977              		.loc 1 219 5 discriminator 13 view .LVU242
 219:C:/Users/²Ü¼ÒºÀ/.iotlink/sdk/IoT_LINK/iot_link/network/lwm2m/wakaama_lwm2m/wakaama-master/core\observe.c **** 
 978              		.loc 1 219 5 discriminator 13 view .LVU243
 219:C:/Users/²Ü¼ÒºÀ/.iotlink/sdk/IoT_LINK/iot_link/network/lwm2m/wakaama_lwm2m/wakaama-master/core\observe.c **** 
 979              		.loc 1 219 5 discriminator 13 view .LVU244
 980 0190 2378     		ldrb	r3, [r4]	@ zero_extendqisi2
 981 0192 D907     		lsls	r1, r3, #31
 982 0194 16D5     		bpl	.L75
 219:C:/Users/²Ü¼ÒºÀ/.iotlink/sdk/IoT_LINK/iot_link/network/lwm2m/wakaama_lwm2m/wakaama-master/core\observe.c **** 
 983              		.loc 1 219 5 discriminator 14 view .LVU245
 219:C:/Users/²Ü¼ÒºÀ/.iotlink/sdk/IoT_LINK/iot_link/network/lwm2m/wakaama_lwm2m/wakaama-master/core\observe.c **** 
 984              		.loc 1 219 5 discriminator 14 view .LVU246
 985 0196 FFF7FEFF 		bl	link_log_level_get
 986              	.LVL78:
 987 019a 0128     		cmp	r0, #1
 988 019c 12D8     		bhi	.L75
 219:C:/Users/²Ü¼ÒºÀ/.iotlink/sdk/IoT_LINK/iot_link/network/lwm2m/wakaama_lwm2m/wakaama-master/core\observe.c **** 
 989              		.loc 1 219 5 discriminator 16 view .LVU247
 219:C:/Users/²Ü¼ÒºÀ/.iotlink/sdk/IoT_LINK/iot_link/network/lwm2m/wakaama_lwm2m/wakaama-master/core\observe.c **** 
 990              		.loc 1 219 5 discriminator 16 view .LVU248
 219:C:/Users/²Ü¼ÒºÀ/.iotlink/sdk/IoT_LINK/iot_link/network/lwm2m/wakaama_lwm2m/wakaama-master/core\observe.c **** 
 991              		.loc 1 219 5 discriminator 16 view .LVU249
 992 019e 0120     		movs	r0, #1
 993 01a0 FFF7FEFF 		bl	link_log_level_name
 994              	.LVL79:
 995 01a4 8146     		mov	r9, r0
 996 01a6 FFF7FEFF 		bl	osal_sys_time
 997              	.LVL80:
 998 01aa E388     		ldrh	r3, [r4, #6]
 999 01ac 0093     		str	r3, [sp]
 1000 01ae 0246     		mov	r2, r0
ARM GAS  C:\Users\²Ü¼ÒºÀ\AppData\Local\Temp\ccA6NNYh.s 			page 29


 1001 01b0 424B     		ldr	r3, .L117+8
 1002 01b2 5548     		ldr	r0, .L117+84
 1003 01b4 4946     		mov	r1, r9
 1004 01b6 FFF7FEFF 		bl	printf
 1005              	.LVL81:
 219:C:/Users/²Ü¼ÒºÀ/.iotlink/sdk/IoT_LINK/iot_link/network/lwm2m/wakaama_lwm2m/wakaama-master/core\observe.c **** 
 1006              		.loc 1 219 5 discriminator 16 view .LVU250
 1007 01ba 424B     		ldr	r3, .L117+16
 1008 01bc 1B68     		ldr	r3, [r3]
 1009 01be 9868     		ldr	r0, [r3, #8]
 1010 01c0 FFF7FEFF 		bl	fflush
 1011              	.LVL82:
 1012              	.L75:
 219:C:/Users/²Ü¼ÒºÀ/.iotlink/sdk/IoT_LINK/iot_link/network/lwm2m/wakaama_lwm2m/wakaama-master/core\observe.c **** 
 1013              		.loc 1 219 5 discriminator 18 view .LVU251
 219:C:/Users/²Ü¼ÒºÀ/.iotlink/sdk/IoT_LINK/iot_link/network/lwm2m/wakaama_lwm2m/wakaama-master/core\observe.c **** 
 1014              		.loc 1 219 5 discriminator 18 view .LVU252
 219:C:/Users/²Ü¼ÒºÀ/.iotlink/sdk/IoT_LINK/iot_link/network/lwm2m/wakaama_lwm2m/wakaama-master/core\observe.c **** 
 1015              		.loc 1 219 5 discriminator 18 view .LVU253
 219:C:/Users/²Ü¼ÒºÀ/.iotlink/sdk/IoT_LINK/iot_link/network/lwm2m/wakaama_lwm2m/wakaama-master/core\observe.c **** 
 1016              		.loc 1 219 5 discriminator 18 view .LVU254
 219:C:/Users/²Ü¼ÒºÀ/.iotlink/sdk/IoT_LINK/iot_link/network/lwm2m/wakaama_lwm2m/wakaama-master/core\observe.c **** 
 1017              		.loc 1 219 5 discriminator 18 view .LVU255
 1018 01c4 FFF7FEFF 		bl	link_log_level_get
 1019              	.LVL83:
 1020 01c8 0128     		cmp	r0, #1
 1021 01ca 83D8     		bhi	.L69
 219:C:/Users/²Ü¼ÒºÀ/.iotlink/sdk/IoT_LINK/iot_link/network/lwm2m/wakaama_lwm2m/wakaama-master/core\observe.c **** 
 1022              		.loc 1 219 5 discriminator 19 view .LVU256
 219:C:/Users/²Ü¼ÒºÀ/.iotlink/sdk/IoT_LINK/iot_link/network/lwm2m/wakaama_lwm2m/wakaama-master/core\observe.c **** 
 1023              		.loc 1 219 5 discriminator 19 view .LVU257
 219:C:/Users/²Ü¼ÒºÀ/.iotlink/sdk/IoT_LINK/iot_link/network/lwm2m/wakaama_lwm2m/wakaama-master/core\observe.c **** 
 1024              		.loc 1 219 5 discriminator 19 view .LVU258
 1025 01cc 0120     		movs	r0, #1
 1026 01ce FFF7FEFF 		bl	link_log_level_name
 1027              	.LVL84:
 1028 01d2 8146     		mov	r9, r0
 1029 01d4 FFF7FEFF 		bl	osal_sys_time
 1030              	.LVL85:
 1031 01d8 384B     		ldr	r3, .L117+8
 1032 01da 0246     		mov	r2, r0
 1033 01dc 4946     		mov	r1, r9
 1034 01de 4B48     		ldr	r0, .L117+88
 1035 01e0 FFF7FEFF 		bl	printf
 1036              	.LVL86:
 1037 01e4 71E7     		b	.L114
 1038              	.L78:
 226:C:/Users/²Ü¼ÒºÀ/.iotlink/sdk/IoT_LINK/iot_link/network/lwm2m/wakaama_lwm2m/wakaama-master/core\observe.c ****         if (message->token_len == 0) return COAP_400_BAD_REQUEST;
 1039              		.loc 1 226 9 view .LVU259
 226:C:/Users/²Ü¼ÒºÀ/.iotlink/sdk/IoT_LINK/iot_link/network/lwm2m/wakaama_lwm2m/wakaama-master/core\observe.c ****         if (message->token_len == 0) return COAP_400_BAD_REQUEST;
 1040              		.loc 1 226 12 is_stmt 0 view .LVU260
 1041 01e6 2378     		ldrb	r3, [r4]	@ zero_extendqisi2
 1042 01e8 03F00303 		and	r3, r3, #3
 1043 01ec 012B     		cmp	r3, #1
 1044 01ee 3FF47CAF 		beq	.L109
 227:C:/Users/²Ü¼ÒºÀ/.iotlink/sdk/IoT_LINK/iot_link/network/lwm2m/wakaama_lwm2m/wakaama-master/core\observe.c **** 
 1045              		.loc 1 227 9 is_stmt 1 view .LVU261
ARM GAS  C:\Users\²Ü¼ÒºÀ\AppData\Local\Temp\ccA6NNYh.s 			page 30


 227:C:/Users/²Ü¼ÒºÀ/.iotlink/sdk/IoT_LINK/iot_link/network/lwm2m/wakaama_lwm2m/wakaama-master/core\observe.c **** 
 1046              		.loc 1 227 12 is_stmt 0 view .LVU262
 1047 01f2 95F84C30 		ldrb	r3, [r5, #76]	@ zero_extendqisi2
 1048 01f6 002B     		cmp	r3, #0
 1049 01f8 3FF477AF 		beq	.L109
 229:C:/Users/²Ü¼ÒºÀ/.iotlink/sdk/IoT_LINK/iot_link/network/lwm2m/wakaama_lwm2m/wakaama-master/core\observe.c ****         if (watcherP == NULL) return COAP_500_INTERNAL_SERVER_ERROR;
 1050              		.loc 1 229 9 is_stmt 1 view .LVU263
 229:C:/Users/²Ü¼ÒºÀ/.iotlink/sdk/IoT_LINK/iot_link/network/lwm2m/wakaama_lwm2m/wakaama-master/core\observe.c ****         if (watcherP == NULL) return COAP_500_INTERNAL_SERVER_ERROR;
 1051              		.loc 1 229 20 is_stmt 0 view .LVU264
 1052 01fc 3246     		mov	r2, r6
 1053 01fe 2146     		mov	r1, r4
 1054 0200 3846     		mov	r0, r7
 1055 0202 FFF7FEFF 		bl	prv_getWatcher
 1056              	.LVL87:
 230:C:/Users/²Ü¼ÒºÀ/.iotlink/sdk/IoT_LINK/iot_link/network/lwm2m/wakaama_lwm2m/wakaama-master/core\observe.c **** 
 1057              		.loc 1 230 9 is_stmt 1 view .LVU265
 230:C:/Users/²Ü¼ÒºÀ/.iotlink/sdk/IoT_LINK/iot_link/network/lwm2m/wakaama_lwm2m/wakaama-master/core\observe.c **** 
 1058              		.loc 1 230 12 is_stmt 0 view .LVU266
 1059 0206 0646     		mov	r6, r0
 1060              	.LVL88:
 230:C:/Users/²Ü¼ÒºÀ/.iotlink/sdk/IoT_LINK/iot_link/network/lwm2m/wakaama_lwm2m/wakaama-master/core\observe.c **** 
 1061              		.loc 1 230 12 view .LVU267
 1062 0208 18B9     		cbnz	r0, .L81
 1063              	.LVL89:
 1064              	.L88:
 230:C:/Users/²Ü¼ÒºÀ/.iotlink/sdk/IoT_LINK/iot_link/network/lwm2m/wakaama_lwm2m/wakaama-master/core\observe.c **** 
 1065              		.loc 1 230 38 view .LVU268
 1066 020a A020     		movs	r0, #160
 1067              	.LVL90:
 1068              	.L112:
 281:C:/Users/²Ü¼ÒºÀ/.iotlink/sdk/IoT_LINK/iot_link/network/lwm2m/wakaama_lwm2m/wakaama-master/core\observe.c **** 
 1069              		.loc 1 281 1 view .LVU269
 1070 020c 0AB0     		add	sp, sp, #40
 1071              	.LCFI11:
 1072              		.cfi_remember_state
 1073              		.cfi_def_cfa_offset 32
 1074              		@ sp needed
 1075 020e BDE8F087 		pop	{r4, r5, r6, r7, r8, r9, r10, pc}
 1076              	.LVL91:
 1077              	.L81:
 1078              	.LCFI12:
 1079              		.cfi_restore_state
 232:C:/Users/²Ü¼ÒºÀ/.iotlink/sdk/IoT_LINK/iot_link/network/lwm2m/wakaama_lwm2m/wakaama-master/core\observe.c ****         memcpy(watcherP->token, message->token, message->token_len);
 1080              		.loc 1 232 9 is_stmt 1 view .LVU270
 232:C:/Users/²Ü¼ÒºÀ/.iotlink/sdk/IoT_LINK/iot_link/network/lwm2m/wakaama_lwm2m/wakaama-master/core\observe.c ****         memcpy(watcherP->token, message->token, message->token_len);
 1081              		.loc 1 232 37 is_stmt 0 view .LVU271
 1082 0212 95F84C20 		ldrb	r2, [r5, #76]	@ zero_extendqisi2
 232:C:/Users/²Ü¼ÒºÀ/.iotlink/sdk/IoT_LINK/iot_link/network/lwm2m/wakaama_lwm2m/wakaama-master/core\observe.c ****         memcpy(watcherP->token, message->token, message->token_len);
 1083              		.loc 1 232 28 view .LVU272
 1084 0216 C261     		str	r2, [r0, #28]
 233:C:/Users/²Ü¼ÒºÀ/.iotlink/sdk/IoT_LINK/iot_link/network/lwm2m/wakaama_lwm2m/wakaama-master/core\observe.c ****         watcherP->active = true;
 1085              		.loc 1 233 9 is_stmt 1 view .LVU273
 1086 0218 05F14D01 		add	r1, r5, #77
 1087 021c 1230     		adds	r0, r0, #18
 1088              	.LVL92:
 233:C:/Users/²Ü¼ÒºÀ/.iotlink/sdk/IoT_LINK/iot_link/network/lwm2m/wakaama_lwm2m/wakaama-master/core\observe.c ****         watcherP->active = true;
 1089              		.loc 1 233 9 is_stmt 0 view .LVU274
ARM GAS  C:\Users\²Ü¼ÒºÀ\AppData\Local\Temp\ccA6NNYh.s 			page 31


 1090 021e FFF7FEFF 		bl	memcpy
 1091              	.LVL93:
 234:C:/Users/²Ü¼ÒºÀ/.iotlink/sdk/IoT_LINK/iot_link/network/lwm2m/wakaama_lwm2m/wakaama-master/core\observe.c ****         watcherP->lastTime = lwm2m_gettime();
 1092              		.loc 1 234 9 is_stmt 1 view .LVU275
 234:C:/Users/²Ü¼ÒºÀ/.iotlink/sdk/IoT_LINK/iot_link/network/lwm2m/wakaama_lwm2m/wakaama-master/core\observe.c ****         watcherP->lastTime = lwm2m_gettime();
 1093              		.loc 1 234 26 is_stmt 0 view .LVU276
 1094 0222 0123     		movs	r3, #1
 1095 0224 3371     		strb	r3, [r6, #4]
 235:C:/Users/²Ü¼ÒºÀ/.iotlink/sdk/IoT_LINK/iot_link/network/lwm2m/wakaama_lwm2m/wakaama-master/core\observe.c ****         watcherP->lastMid = response->mid;
 1096              		.loc 1 235 9 is_stmt 1 view .LVU277
 235:C:/Users/²Ü¼ÒºÀ/.iotlink/sdk/IoT_LINK/iot_link/network/lwm2m/wakaama_lwm2m/wakaama-master/core\observe.c ****         watcherP->lastMid = response->mid;
 1097              		.loc 1 235 30 is_stmt 0 view .LVU278
 1098 0226 FFF7FEFF 		bl	lwm2m_gettime
 1099              	.LVL94:
 235:C:/Users/²Ü¼ÒºÀ/.iotlink/sdk/IoT_LINK/iot_link/network/lwm2m/wakaama_lwm2m/wakaama-master/core\observe.c ****         watcherP->lastMid = response->mid;
 1100              		.loc 1 235 28 view .LVU279
 1101 022a C6E90801 		strd	r0, [r6, #32]
 236:C:/Users/²Ü¼ÒºÀ/.iotlink/sdk/IoT_LINK/iot_link/network/lwm2m/wakaama_lwm2m/wakaama-master/core\observe.c ****         if (IS_OPTION(message, COAP_OPTION_ACCEPT))
 1102              		.loc 1 236 9 is_stmt 1 view .LVU280
 236:C:/Users/²Ü¼ÒºÀ/.iotlink/sdk/IoT_LINK/iot_link/network/lwm2m/wakaama_lwm2m/wakaama-master/core\observe.c ****         if (IS_OPTION(message, COAP_OPTION_ACCEPT))
 1103              		.loc 1 236 27 is_stmt 0 view .LVU281
 1104 022e BAF80830 		ldrh	r3, [r10, #8]
 1105 0232 B385     		strh	r3, [r6, #44]	@ movhi
 237:C:/Users/²Ü¼ÒºÀ/.iotlink/sdk/IoT_LINK/iot_link/network/lwm2m/wakaama_lwm2m/wakaama-master/core\observe.c ****         {
 1106              		.loc 1 237 9 is_stmt 1 view .LVU282
 237:C:/Users/²Ü¼ÒºÀ/.iotlink/sdk/IoT_LINK/iot_link/network/lwm2m/wakaama_lwm2m/wakaama-master/core\observe.c ****         {
 1107              		.loc 1 237 12 is_stmt 0 view .LVU283
 1108 0234 2B7B     		ldrb	r3, [r5, #12]	@ zero_extendqisi2
 1109 0236 9A07     		lsls	r2, r3, #30
 1110 0238 15D5     		bpl	.L82
 239:C:/Users/²Ü¼ÒºÀ/.iotlink/sdk/IoT_LINK/iot_link/network/lwm2m/wakaama_lwm2m/wakaama-master/core\observe.c ****         }
 1111              		.loc 1 239 13 is_stmt 1 view .LVU284
 239:C:/Users/²Ü¼ÒºÀ/.iotlink/sdk/IoT_LINK/iot_link/network/lwm2m/wakaama_lwm2m/wakaama-master/core\observe.c ****         }
 1112              		.loc 1 239 32 is_stmt 0 view .LVU285
 1113 023a B5F85600 		ldrh	r0, [r5, #86]
 1114 023e FFF7FEFF 		bl	utils_convertMediaType
 1115              	.LVL95:
 239:C:/Users/²Ü¼ÒºÀ/.iotlink/sdk/IoT_LINK/iot_link/network/lwm2m/wakaama_lwm2m/wakaama-master/core\observe.c ****         }
 1116              		.loc 1 239 30 view .LVU286
 1117 0242 3082     		strh	r0, [r6, #16]	@ movhi
 1118              	.L83:
 246:C:/Users/²Ü¼ÒºÀ/.iotlink/sdk/IoT_LINK/iot_link/network/lwm2m/wakaama_lwm2m/wakaama-master/core\observe.c ****         {
 1119              		.loc 1 246 9 is_stmt 1 view .LVU287
 246:C:/Users/²Ü¼ÒºÀ/.iotlink/sdk/IoT_LINK/iot_link/network/lwm2m/wakaama_lwm2m/wakaama-master/core\observe.c ****         {
 1120              		.loc 1 246 12 is_stmt 0 view .LVU288
 1121 0244 2378     		ldrb	r3, [r4]	@ zero_extendqisi2
 1122 0246 DB07     		lsls	r3, r3, #31
 1123 0248 05D5     		bpl	.L85
 248:C:/Users/²Ü¼ÒºÀ/.iotlink/sdk/IoT_LINK/iot_link/network/lwm2m/wakaama_lwm2m/wakaama-master/core\observe.c ****             {
 1124              		.loc 1 248 13 is_stmt 1 view .LVU289
 248:C:/Users/²Ü¼ÒºÀ/.iotlink/sdk/IoT_LINK/iot_link/network/lwm2m/wakaama_lwm2m/wakaama-master/core\observe.c ****             {
 1125              		.loc 1 248 26 is_stmt 0 view .LVU290
 1126 024a 98F80030 		ldrb	r3, [r8]	@ zero_extendqisi2
 1127 024e 062B     		cmp	r3, #6
 1128 0250 0DD0     		beq	.L86
 1129 0252 072B     		cmp	r3, #7
 1130 0254 13D0     		beq	.L87
ARM GAS  C:\Users\²Ü¼ÒºÀ\AppData\Local\Temp\ccA6NNYh.s 			page 32


 1131              	.L85:
 261:C:/Users/²Ü¼ÒºÀ/.iotlink/sdk/IoT_LINK/iot_link/network/lwm2m/wakaama_lwm2m/wakaama-master/core\observe.c **** 
 1132              		.loc 1 261 9 is_stmt 1 view .LVU291
 261:C:/Users/²Ü¼ÒºÀ/.iotlink/sdk/IoT_LINK/iot_link/network/lwm2m/wakaama_lwm2m/wakaama-master/core\observe.c **** 
 1133              		.loc 1 261 51 is_stmt 0 view .LVU292
 1134 0256 B16A     		ldr	r1, [r6, #40]
 261:C:/Users/²Ü¼ÒºÀ/.iotlink/sdk/IoT_LINK/iot_link/network/lwm2m/wakaama_lwm2m/wakaama-master/core\observe.c **** 
 1135              		.loc 1 261 9 view .LVU293
 1136 0258 4B1C     		adds	r3, r1, #1
 1137 025a B362     		str	r3, [r6, #40]
 1138 025c 5046     		mov	r0, r10
 1139 025e FFF7FEFF 		bl	coap_set_header_observe
 1140              	.LVL96:
 263:C:/Users/²Ü¼ÒºÀ/.iotlink/sdk/IoT_LINK/iot_link/network/lwm2m/wakaama_lwm2m/wakaama-master/core\observe.c **** 
 1141              		.loc 1 263 9 is_stmt 1 view .LVU294
 1142              	.L116:
 276:C:/Users/²Ü¼ÒºÀ/.iotlink/sdk/IoT_LINK/iot_link/network/lwm2m/wakaama_lwm2m/wakaama-master/core\observe.c **** 
 1143              		.loc 1 276 16 is_stmt 0 view .LVU295
 1144 0262 4520     		movs	r0, #69
 1145 0264 D2E7     		b	.L112
 1146              	.LVL97:
 1147              	.L82:
 243:C:/Users/²Ü¼ÒºÀ/.iotlink/sdk/IoT_LINK/iot_link/network/lwm2m/wakaama_lwm2m/wakaama-master/core\observe.c ****         }
 1148              		.loc 1 243 13 is_stmt 1 view .LVU296
 243:C:/Users/²Ü¼ÒºÀ/.iotlink/sdk/IoT_LINK/iot_link/network/lwm2m/wakaama_lwm2m/wakaama-master/core\observe.c ****         }
 1149              		.loc 1 243 30 is_stmt 0 view .LVU297
 1150 0266 42F61653 		movw	r3, #11542
 1151 026a 3382     		strh	r3, [r6, #16]	@ movhi
 1152 026c EAE7     		b	.L83
 1153              	.L86:
 251:C:/Users/²Ü¼ÒºÀ/.iotlink/sdk/IoT_LINK/iot_link/network/lwm2m/wakaama_lwm2m/wakaama-master/core\observe.c ****                 break;
 1154              		.loc 1 251 17 is_stmt 1 view .LVU298
 251:C:/Users/²Ü¼ÒºÀ/.iotlink/sdk/IoT_LINK/iot_link/network/lwm2m/wakaama_lwm2m/wakaama-master/core\observe.c ****                 break;
 1155              		.loc 1 251 26 is_stmt 0 view .LVU299
 1156 026e 06F13001 		add	r1, r6, #48
 1157 0272 4046     		mov	r0, r8
 1158 0274 FFF7FEFF 		bl	lwm2m_data_decode_int
 1159              	.LVL98:
 1160              	.L115:
 254:C:/Users/²Ü¼ÒºÀ/.iotlink/sdk/IoT_LINK/iot_link/network/lwm2m/wakaama_lwm2m/wakaama-master/core\observe.c ****                 break;
 1161              		.loc 1 254 20 view .LVU300
 1162 0278 0128     		cmp	r0, #1
 1163 027a C6D1     		bne	.L88
 1164 027c EBE7     		b	.L85
 1165              	.L87:
 254:C:/Users/²Ü¼ÒºÀ/.iotlink/sdk/IoT_LINK/iot_link/network/lwm2m/wakaama_lwm2m/wakaama-master/core\observe.c ****                 break;
 1166              		.loc 1 254 17 is_stmt 1 view .LVU301
 254:C:/Users/²Ü¼ÒºÀ/.iotlink/sdk/IoT_LINK/iot_link/network/lwm2m/wakaama_lwm2m/wakaama-master/core\observe.c ****                 break;
 1167              		.loc 1 254 26 is_stmt 0 view .LVU302
 1168 027e 06F13001 		add	r1, r6, #48
 1169 0282 4046     		mov	r0, r8
 1170 0284 FFF7FEFF 		bl	lwm2m_data_decode_float
 1171              	.LVL99:
 1172 0288 F6E7     		b	.L115
 1173              	.LVL100:
 1174              	.L79:
 267:C:/Users/²Ü¼ÒºÀ/.iotlink/sdk/IoT_LINK/iot_link/network/lwm2m/wakaama_lwm2m/wakaama-master/core\observe.c ****         if (observedP)
ARM GAS  C:\Users\²Ü¼ÒºÀ\AppData\Local\Temp\ccA6NNYh.s 			page 33


 1175              		.loc 1 267 9 is_stmt 1 view .LVU303
 267:C:/Users/²Ü¼ÒºÀ/.iotlink/sdk/IoT_LINK/iot_link/network/lwm2m/wakaama_lwm2m/wakaama-master/core\observe.c ****         if (observedP)
 1176              		.loc 1 267 21 is_stmt 0 view .LVU304
 1177 028a F869     		ldr	r0, [r7, #28]
 1178 028c 2146     		mov	r1, r4
 1179 028e FFF7FEFF 		bl	prv_findObserved.isra.0
 1180              	.LVL101:
 268:C:/Users/²Ü¼ÒºÀ/.iotlink/sdk/IoT_LINK/iot_link/network/lwm2m/wakaama_lwm2m/wakaama-master/core\observe.c ****         {
 1181              		.loc 1 268 9 is_stmt 1 view .LVU305
 268:C:/Users/²Ü¼ÒºÀ/.iotlink/sdk/IoT_LINK/iot_link/network/lwm2m/wakaama_lwm2m/wakaama-master/core\observe.c ****         {
 1182              		.loc 1 268 12 is_stmt 0 view .LVU306
 1183 0292 0028     		cmp	r0, #0
 1184 0294 E5D0     		beq	.L116
 1185              	.LVL102:
 270:C:/Users/²Ü¼ÒºÀ/.iotlink/sdk/IoT_LINK/iot_link/network/lwm2m/wakaama_lwm2m/wakaama-master/core\observe.c ****             if (watcherP)
 1186              		.loc 1 270 13 is_stmt 1 view .LVU307
 270:C:/Users/²Ü¼ÒºÀ/.iotlink/sdk/IoT_LINK/iot_link/network/lwm2m/wakaama_lwm2m/wakaama-master/core\observe.c ****             if (watcherP)
 1187              		.loc 1 270 24 is_stmt 0 view .LVU308
 1188 0296 C368     		ldr	r3, [r0, #12]
 1189              	.LVL103:
 1190              	.LBB24:
 1191              	.LBI24:
 143:C:/Users/²Ü¼ÒºÀ/.iotlink/sdk/IoT_LINK/iot_link/network/lwm2m/wakaama_lwm2m/wakaama-master/core\observe.c ****                                         lwm2m_server_t *serverP)
 1192              		.loc 1 143 25 is_stmt 1 view .LVU309
 1193              	.LBB25:
 146:C:/Users/²Ü¼ÒºÀ/.iotlink/sdk/IoT_LINK/iot_link/network/lwm2m/wakaama_lwm2m/wakaama-master/core\observe.c **** 
 1194              		.loc 1 146 5 view .LVU310
 148:C:/Users/²Ü¼ÒºÀ/.iotlink/sdk/IoT_LINK/iot_link/network/lwm2m/wakaama_lwm2m/wakaama-master/core\observe.c ****     while (targetP != NULL
 1195              		.loc 1 148 5 view .LVU311
 149:C:/Users/²Ü¼ÒºÀ/.iotlink/sdk/IoT_LINK/iot_link/network/lwm2m/wakaama_lwm2m/wakaama-master/core\observe.c ****             && targetP->server != serverP)
 1196              		.loc 1 149 5 view .LVU312
 1197              	.L90:
 149:C:/Users/²Ü¼ÒºÀ/.iotlink/sdk/IoT_LINK/iot_link/network/lwm2m/wakaama_lwm2m/wakaama-master/core\observe.c ****             && targetP->server != serverP)
 1198              		.loc 1 149 11 view .LVU313
 1199 0298 002B     		cmp	r3, #0
 1200 029a E2D0     		beq	.L116
 150:C:/Users/²Ü¼ÒºÀ/.iotlink/sdk/IoT_LINK/iot_link/network/lwm2m/wakaama_lwm2m/wakaama-master/core\observe.c ****     {
 1201              		.loc 1 150 13 is_stmt 0 view .LVU314
 1202 029c 9A68     		ldr	r2, [r3, #8]
 1203 029e 9642     		cmp	r6, r2
 1204 02a0 05D1     		bne	.L91
 155:C:/Users/²Ü¼ÒºÀ/.iotlink/sdk/IoT_LINK/iot_link/network/lwm2m/wakaama_lwm2m/wakaama-master/core\observe.c **** }
 1205              		.loc 1 155 5 is_stmt 1 view .LVU315
 1206              	.LVL104:
 155:C:/Users/²Ü¼ÒºÀ/.iotlink/sdk/IoT_LINK/iot_link/network/lwm2m/wakaama_lwm2m/wakaama-master/core\observe.c **** }
 1207              		.loc 1 155 5 is_stmt 0 view .LVU316
 1208              	.LBE25:
 1209              	.LBE24:
 271:C:/Users/²Ü¼ÒºÀ/.iotlink/sdk/IoT_LINK/iot_link/network/lwm2m/wakaama_lwm2m/wakaama-master/core\observe.c ****             {
 1210              		.loc 1 271 13 is_stmt 1 view .LVU317
 273:C:/Users/²Ü¼ÒºÀ/.iotlink/sdk/IoT_LINK/iot_link/network/lwm2m/wakaama_lwm2m/wakaama-master/core\observe.c ****             }
 1211              		.loc 1 273 17 view .LVU318
 1212 02a2 F269     		ldr	r2, [r6, #28]
 1213 02a4 998D     		ldrh	r1, [r3, #44]
 1214              	.LVL105:
 273:C:/Users/²Ü¼ÒºÀ/.iotlink/sdk/IoT_LINK/iot_link/network/lwm2m/wakaama_lwm2m/wakaama-master/core\observe.c ****             }
 1215              		.loc 1 273 17 is_stmt 0 view .LVU319
ARM GAS  C:\Users\²Ü¼ÒºÀ\AppData\Local\Temp\ccA6NNYh.s 			page 34


 1216 02a6 3846     		mov	r0, r7
 1217              	.LVL106:
 273:C:/Users/²Ü¼ÒºÀ/.iotlink/sdk/IoT_LINK/iot_link/network/lwm2m/wakaama_lwm2m/wakaama-master/core\observe.c ****             }
 1218              		.loc 1 273 17 view .LVU320
 1219 02a8 FFF7FEFF 		bl	observe_cancel
 1220              	.LVL107:
 273:C:/Users/²Ü¼ÒºÀ/.iotlink/sdk/IoT_LINK/iot_link/network/lwm2m/wakaama_lwm2m/wakaama-master/core\observe.c ****             }
 1221              		.loc 1 273 17 view .LVU321
 1222 02ac D9E7     		b	.L116
 1223              	.LVL108:
 1224              	.L91:
 1225              	.LBB27:
 1226              	.LBB26:
 152:C:/Users/²Ü¼ÒºÀ/.iotlink/sdk/IoT_LINK/iot_link/network/lwm2m/wakaama_lwm2m/wakaama-master/core\observe.c ****     }
 1227              		.loc 1 152 9 is_stmt 1 view .LVU322
 152:C:/Users/²Ü¼ÒºÀ/.iotlink/sdk/IoT_LINK/iot_link/network/lwm2m/wakaama_lwm2m/wakaama-master/core\observe.c ****     }
 1228              		.loc 1 152 17 is_stmt 0 view .LVU323
 1229 02ae 1B68     		ldr	r3, [r3]
 1230              	.LVL109:
 152:C:/Users/²Ü¼ÒºÀ/.iotlink/sdk/IoT_LINK/iot_link/network/lwm2m/wakaama_lwm2m/wakaama-master/core\observe.c ****     }
 1231              		.loc 1 152 17 view .LVU324
 1232 02b0 F2E7     		b	.L90
 1233              	.L118:
 1234 02b2 00BF     		.align	2
 1235              	.L117:
 1236 02b4 00000000 		.word	.LC1
 1237 02b8 00000000 		.word	.LANCHOR4
 1238 02bc 00000000 		.word	.LANCHOR3
 1239 02c0 2D010000 		.word	.LC17
 1240 02c4 00000000 		.word	_impure_ptr
 1241 02c8 68010000 		.word	.LC18
 1242 02cc 23000000 		.word	.LC3
 1243 02d0 36000000 		.word	.LC4
 1244 02d4 48000000 		.word	.LC5
 1245 02d8 59000000 		.word	.LC6
 1246 02dc 6A000000 		.word	.LC7
 1247 02e0 83000000 		.word	.LC8
 1248 02e4 9B000000 		.word	.LC9
 1249 02e8 B8000000 		.word	.LC10
 1250 02ec CC000000 		.word	.LC11
 1251 02f0 DE000000 		.word	.LC12
 1252 02f4 F1000000 		.word	.LC13
 1253 02f8 02010000 		.word	.LC14
 1254 02fc 10000000 		.word	.LC2
 1255 0300 14010000 		.word	.LC15
 1256 0304 86010000 		.word	.LC19
 1257 0308 A1010000 		.word	.LC20
 1258 030c B4010000 		.word	.LC21
 1259 0310 25010000 		.word	.LC16
 1260              	.LBE26:
 1261              	.LBE27:
 1262              		.cfi_endproc
 1263              	.LFE9:
 1265              		.section	.text.observe_clear,"ax",%progbits
 1266              		.align	1
 1267              		.global	observe_clear
 1268              		.syntax unified
ARM GAS  C:\Users\²Ü¼ÒºÀ\AppData\Local\Temp\ccA6NNYh.s 			page 35


 1269              		.thumb
 1270              		.thumb_func
 1271              		.fpu fpv4-sp-d16
 1273              	observe_clear:
 1274              	.LVL110:
 1275              	.LFB11:
 336:C:/Users/²Ü¼ÒºÀ/.iotlink/sdk/IoT_LINK/iot_link/network/lwm2m/wakaama_lwm2m/wakaama-master/core\observe.c **** 
 337:C:/Users/²Ü¼ÒºÀ/.iotlink/sdk/IoT_LINK/iot_link/network/lwm2m/wakaama_lwm2m/wakaama-master/core\observe.c **** void observe_clear(lwm2m_context_t *contextP,
 338:C:/Users/²Ü¼ÒºÀ/.iotlink/sdk/IoT_LINK/iot_link/network/lwm2m/wakaama_lwm2m/wakaama-master/core\observe.c ****                    lwm2m_uri_t *uriP)
 339:C:/Users/²Ü¼ÒºÀ/.iotlink/sdk/IoT_LINK/iot_link/network/lwm2m/wakaama_lwm2m/wakaama-master/core\observe.c **** {
 1276              		.loc 1 339 1 is_stmt 1 view -0
 1277              		.cfi_startproc
 1278              		@ args = 0, pretend = 0, frame = 0
 1279              		@ frame_needed = 0, uses_anonymous_args = 0
 340:C:/Users/²Ü¼ÒºÀ/.iotlink/sdk/IoT_LINK/iot_link/network/lwm2m/wakaama_lwm2m/wakaama-master/core\observe.c ****     lwm2m_observed_t *observedP;
 1280              		.loc 1 340 5 view .LVU326
 341:C:/Users/²Ü¼ÒºÀ/.iotlink/sdk/IoT_LINK/iot_link/network/lwm2m/wakaama_lwm2m/wakaama-master/core\observe.c **** 
 342:C:/Users/²Ü¼ÒºÀ/.iotlink/sdk/IoT_LINK/iot_link/network/lwm2m/wakaama_lwm2m/wakaama-master/core\observe.c ****     LOG_URI(uriP);
 1281              		.loc 1 342 5 view .LVU327
 339:C:/Users/²Ü¼ÒºÀ/.iotlink/sdk/IoT_LINK/iot_link/network/lwm2m/wakaama_lwm2m/wakaama-master/core\observe.c ****     lwm2m_observed_t *observedP;
 1282              		.loc 1 339 1 is_stmt 0 view .LVU328
 1283 0000 2DE9F043 		push	{r4, r5, r6, r7, r8, r9, lr}
 1284              	.LCFI13:
 1285              		.cfi_def_cfa_offset 28
 1286              		.cfi_offset 4, -28
 1287              		.cfi_offset 5, -24
 1288              		.cfi_offset 6, -20
 1289              		.cfi_offset 7, -16
 1290              		.cfi_offset 8, -12
 1291              		.cfi_offset 9, -8
 1292              		.cfi_offset 14, -4
 1293 0004 0646     		mov	r6, r0
 1294 0006 85B0     		sub	sp, sp, #20
 1295              	.LCFI14:
 1296              		.cfi_def_cfa_offset 48
 1297              		.loc 1 342 5 view .LVU329
 1298 0008 0D46     		mov	r5, r1
 1299 000a 09BB     		cbnz	r1, .L120
 1300              		.loc 1 342 5 is_stmt 1 discriminator 1 view .LVU330
 1301              		.loc 1 342 5 discriminator 1 view .LVU331
 1302 000c FFF7FEFF 		bl	link_log_level_get
 1303              	.LVL111:
 1304              		.loc 1 342 5 is_stmt 0 discriminator 1 view .LVU332
 1305 0010 0128     		cmp	r0, #1
 1306 0012 15D8     		bhi	.L122
 1307              		.loc 1 342 5 is_stmt 1 discriminator 3 view .LVU333
 1308              		.loc 1 342 5 discriminator 3 view .LVU334
 1309              		.loc 1 342 5 discriminator 3 view .LVU335
 1310 0014 0120     		movs	r0, #1
 1311 0016 FFF7FEFF 		bl	link_log_level_name
 1312              	.LVL112:
 1313 001a 0446     		mov	r4, r0
 1314 001c FFF7FEFF 		bl	osal_sys_time
 1315              	.LVL113:
 1316 0020 4FF4AB73 		mov	r3, #342
 1317 0024 0193     		str	r3, [sp, #4]
 1318 0026 4F4B     		ldr	r3, .L146
ARM GAS  C:\Users\²Ü¼ÒºÀ\AppData\Local\Temp\ccA6NNYh.s 			page 36


 1319 0028 0093     		str	r3, [sp]
 1320 002a 0246     		mov	r2, r0
 1321 002c 4E4B     		ldr	r3, .L146+4
 1322 002e 4F48     		ldr	r0, .L146+8
 1323 0030 2146     		mov	r1, r4
 1324 0032 FFF7FEFF 		bl	printf
 1325              	.LVL114:
 1326              		.loc 1 342 5 discriminator 3 view .LVU336
 1327              	.L145:
 1328              		.loc 1 342 5 discriminator 19 view .LVU337
 1329 0036 4E4B     		ldr	r3, .L146+12
 1330 0038 1B68     		ldr	r3, [r3]
 1331 003a 9868     		ldr	r0, [r3, #8]
 1332 003c FFF7FEFF 		bl	fflush
 1333              	.LVL115:
 1334              	.L122:
 1335              		.loc 1 342 5 discriminator 21 view .LVU338
 1336              		.loc 1 342 5 discriminator 21 view .LVU339
 1337              		.loc 1 342 5 discriminator 21 view .LVU340
 1338              		.loc 1 342 18 discriminator 21 view .LVU341
 343:C:/Users/²Ü¼ÒºÀ/.iotlink/sdk/IoT_LINK/iot_link/network/lwm2m/wakaama_lwm2m/wakaama-master/core\observe.c **** 
 344:C:/Users/²Ü¼ÒºÀ/.iotlink/sdk/IoT_LINK/iot_link/network/lwm2m/wakaama_lwm2m/wakaama-master/core\observe.c ****     observedP = contextP->observedList;
 1339              		.loc 1 344 5 discriminator 21 view .LVU342
 1340              		.loc 1 344 15 is_stmt 0 discriminator 21 view .LVU343
 1341 0040 B046     		mov	r8, r6
 1342 0042 58F81C4F 		ldr	r4, [r8, #28]!
 1343              	.LVL116:
 345:C:/Users/²Ü¼ÒºÀ/.iotlink/sdk/IoT_LINK/iot_link/network/lwm2m/wakaama_lwm2m/wakaama-master/core\observe.c ****     while(observedP != NULL)
 1344              		.loc 1 345 5 is_stmt 1 discriminator 21 view .LVU344
 1345              	.L131:
 1346              		.loc 1 345 10 view .LVU345
 1347 0046 002C     		cmp	r4, #0
 1348 0048 63D1     		bne	.L138
 346:C:/Users/²Ü¼ÒºÀ/.iotlink/sdk/IoT_LINK/iot_link/network/lwm2m/wakaama_lwm2m/wakaama-master/core\observe.c ****     {
 347:C:/Users/²Ü¼ÒºÀ/.iotlink/sdk/IoT_LINK/iot_link/network/lwm2m/wakaama_lwm2m/wakaama-master/core\observe.c ****         if (observedP->uri.objectId == uriP->objectId
 348:C:/Users/²Ü¼ÒºÀ/.iotlink/sdk/IoT_LINK/iot_link/network/lwm2m/wakaama_lwm2m/wakaama-master/core\observe.c ****                 && (LWM2M_URI_IS_SET_INSTANCE(uriP) == false
 349:C:/Users/²Ü¼ÒºÀ/.iotlink/sdk/IoT_LINK/iot_link/network/lwm2m/wakaama_lwm2m/wakaama-master/core\observe.c ****                     || observedP->uri.instanceId == uriP->instanceId))
 350:C:/Users/²Ü¼ÒºÀ/.iotlink/sdk/IoT_LINK/iot_link/network/lwm2m/wakaama_lwm2m/wakaama-master/core\observe.c ****         {
 351:C:/Users/²Ü¼ÒºÀ/.iotlink/sdk/IoT_LINK/iot_link/network/lwm2m/wakaama_lwm2m/wakaama-master/core\observe.c ****             lwm2m_observed_t *nextP;
 352:C:/Users/²Ü¼ÒºÀ/.iotlink/sdk/IoT_LINK/iot_link/network/lwm2m/wakaama_lwm2m/wakaama-master/core\observe.c ****             lwm2m_watcher_t *watcherP;
 353:C:/Users/²Ü¼ÒºÀ/.iotlink/sdk/IoT_LINK/iot_link/network/lwm2m/wakaama_lwm2m/wakaama-master/core\observe.c **** 
 354:C:/Users/²Ü¼ÒºÀ/.iotlink/sdk/IoT_LINK/iot_link/network/lwm2m/wakaama_lwm2m/wakaama-master/core\observe.c ****             osal_mutex_lock(contextP->observe_mutex);
 355:C:/Users/²Ü¼ÒºÀ/.iotlink/sdk/IoT_LINK/iot_link/network/lwm2m/wakaama_lwm2m/wakaama-master/core\observe.c ****             nextP = observedP->next;
 356:C:/Users/²Ü¼ÒºÀ/.iotlink/sdk/IoT_LINK/iot_link/network/lwm2m/wakaama_lwm2m/wakaama-master/core\observe.c **** 
 357:C:/Users/²Ü¼ÒºÀ/.iotlink/sdk/IoT_LINK/iot_link/network/lwm2m/wakaama_lwm2m/wakaama-master/core\observe.c ****             for (watcherP = observedP->watcherList; watcherP != NULL; watcherP = watcherP->next)
 358:C:/Users/²Ü¼ÒºÀ/.iotlink/sdk/IoT_LINK/iot_link/network/lwm2m/wakaama_lwm2m/wakaama-master/core\observe.c ****             {
 359:C:/Users/²Ü¼ÒºÀ/.iotlink/sdk/IoT_LINK/iot_link/network/lwm2m/wakaama_lwm2m/wakaama-master/core\observe.c ****                 if (watcherP->parameters != NULL) lwm2m_free(watcherP->parameters);
 360:C:/Users/²Ü¼ÒºÀ/.iotlink/sdk/IoT_LINK/iot_link/network/lwm2m/wakaama_lwm2m/wakaama-master/core\observe.c ****             }
 361:C:/Users/²Ü¼ÒºÀ/.iotlink/sdk/IoT_LINK/iot_link/network/lwm2m/wakaama_lwm2m/wakaama-master/core\observe.c ****             LWM2M_LIST_FREE(observedP->watcherList);
 362:C:/Users/²Ü¼ÒºÀ/.iotlink/sdk/IoT_LINK/iot_link/network/lwm2m/wakaama_lwm2m/wakaama-master/core\observe.c **** 
 363:C:/Users/²Ü¼ÒºÀ/.iotlink/sdk/IoT_LINK/iot_link/network/lwm2m/wakaama_lwm2m/wakaama-master/core\observe.c ****             prv_unlinkObserved(contextP, observedP);
 364:C:/Users/²Ü¼ÒºÀ/.iotlink/sdk/IoT_LINK/iot_link/network/lwm2m/wakaama_lwm2m/wakaama-master/core\observe.c ****             lwm2m_free(observedP);
 365:C:/Users/²Ü¼ÒºÀ/.iotlink/sdk/IoT_LINK/iot_link/network/lwm2m/wakaama_lwm2m/wakaama-master/core\observe.c **** 
 366:C:/Users/²Ü¼ÒºÀ/.iotlink/sdk/IoT_LINK/iot_link/network/lwm2m/wakaama_lwm2m/wakaama-master/core\observe.c ****             observedP = nextP;
 367:C:/Users/²Ü¼ÒºÀ/.iotlink/sdk/IoT_LINK/iot_link/network/lwm2m/wakaama_lwm2m/wakaama-master/core\observe.c ****             (void) osal_mutex_unlock(contextP->observe_mutex);
 368:C:/Users/²Ü¼ÒºÀ/.iotlink/sdk/IoT_LINK/iot_link/network/lwm2m/wakaama_lwm2m/wakaama-master/core\observe.c ****         }
 369:C:/Users/²Ü¼ÒºÀ/.iotlink/sdk/IoT_LINK/iot_link/network/lwm2m/wakaama_lwm2m/wakaama-master/core\observe.c ****         else
ARM GAS  C:\Users\²Ü¼ÒºÀ\AppData\Local\Temp\ccA6NNYh.s 			page 37


 370:C:/Users/²Ü¼ÒºÀ/.iotlink/sdk/IoT_LINK/iot_link/network/lwm2m/wakaama_lwm2m/wakaama-master/core\observe.c ****         {
 371:C:/Users/²Ü¼ÒºÀ/.iotlink/sdk/IoT_LINK/iot_link/network/lwm2m/wakaama_lwm2m/wakaama-master/core\observe.c ****             observedP = observedP->next;
 372:C:/Users/²Ü¼ÒºÀ/.iotlink/sdk/IoT_LINK/iot_link/network/lwm2m/wakaama_lwm2m/wakaama-master/core\observe.c ****         }
 373:C:/Users/²Ü¼ÒºÀ/.iotlink/sdk/IoT_LINK/iot_link/network/lwm2m/wakaama_lwm2m/wakaama-master/core\observe.c ****     }
 374:C:/Users/²Ü¼ÒºÀ/.iotlink/sdk/IoT_LINK/iot_link/network/lwm2m/wakaama_lwm2m/wakaama-master/core\observe.c **** }
 1349              		.loc 1 374 1 is_stmt 0 view .LVU346
 1350 004a 05B0     		add	sp, sp, #20
 1351              	.LCFI15:
 1352              		.cfi_remember_state
 1353              		.cfi_def_cfa_offset 28
 1354              		@ sp needed
 1355 004c BDE8F083 		pop	{r4, r5, r6, r7, r8, r9, pc}
 1356              	.LVL117:
 1357              	.L120:
 1358              	.LCFI16:
 1359              		.cfi_restore_state
 342:C:/Users/²Ü¼ÒºÀ/.iotlink/sdk/IoT_LINK/iot_link/network/lwm2m/wakaama_lwm2m/wakaama-master/core\observe.c **** 
 1360              		.loc 1 342 5 is_stmt 1 discriminator 2 view .LVU347
 342:C:/Users/²Ü¼ÒºÀ/.iotlink/sdk/IoT_LINK/iot_link/network/lwm2m/wakaama_lwm2m/wakaama-master/core\observe.c **** 
 1361              		.loc 1 342 5 discriminator 2 view .LVU348
 1362 0050 FFF7FEFF 		bl	link_log_level_get
 1363              	.LVL118:
 342:C:/Users/²Ü¼ÒºÀ/.iotlink/sdk/IoT_LINK/iot_link/network/lwm2m/wakaama_lwm2m/wakaama-master/core\observe.c **** 
 1364              		.loc 1 342 5 is_stmt 0 discriminator 2 view .LVU349
 1365 0054 0128     		cmp	r0, #1
 1366 0056 17D8     		bhi	.L123
 342:C:/Users/²Ü¼ÒºÀ/.iotlink/sdk/IoT_LINK/iot_link/network/lwm2m/wakaama_lwm2m/wakaama-master/core\observe.c **** 
 1367              		.loc 1 342 5 is_stmt 1 discriminator 6 view .LVU350
 342:C:/Users/²Ü¼ÒºÀ/.iotlink/sdk/IoT_LINK/iot_link/network/lwm2m/wakaama_lwm2m/wakaama-master/core\observe.c **** 
 1368              		.loc 1 342 5 discriminator 6 view .LVU351
 342:C:/Users/²Ü¼ÒºÀ/.iotlink/sdk/IoT_LINK/iot_link/network/lwm2m/wakaama_lwm2m/wakaama-master/core\observe.c **** 
 1369              		.loc 1 342 5 discriminator 6 view .LVU352
 1370 0058 0120     		movs	r0, #1
 1371 005a FFF7FEFF 		bl	link_log_level_name
 1372              	.LVL119:
 1373 005e 0446     		mov	r4, r0
 1374 0060 FFF7FEFF 		bl	osal_sys_time
 1375              	.LVL120:
 1376 0064 6B88     		ldrh	r3, [r5, #2]
 1377 0066 0293     		str	r3, [sp, #8]
 1378 0068 4FF4AB73 		mov	r3, #342
 1379 006c 0193     		str	r3, [sp, #4]
 1380 006e 3D4B     		ldr	r3, .L146
 1381 0070 0093     		str	r3, [sp]
 1382 0072 0246     		mov	r2, r0
 1383 0074 3C4B     		ldr	r3, .L146+4
 1384 0076 3F48     		ldr	r0, .L146+16
 1385 0078 2146     		mov	r1, r4
 1386 007a FFF7FEFF 		bl	printf
 1387              	.LVL121:
 342:C:/Users/²Ü¼ÒºÀ/.iotlink/sdk/IoT_LINK/iot_link/network/lwm2m/wakaama_lwm2m/wakaama-master/core\observe.c **** 
 1388              		.loc 1 342 5 discriminator 6 view .LVU353
 1389 007e 3C4B     		ldr	r3, .L146+12
 1390 0080 1B68     		ldr	r3, [r3]
 1391 0082 9868     		ldr	r0, [r3, #8]
 1392 0084 FFF7FEFF 		bl	fflush
 1393              	.LVL122:
ARM GAS  C:\Users\²Ü¼ÒºÀ\AppData\Local\Temp\ccA6NNYh.s 			page 38


 1394              	.L123:
 342:C:/Users/²Ü¼ÒºÀ/.iotlink/sdk/IoT_LINK/iot_link/network/lwm2m/wakaama_lwm2m/wakaama-master/core\observe.c **** 
 1395              		.loc 1 342 5 discriminator 8 view .LVU354
 342:C:/Users/²Ü¼ÒºÀ/.iotlink/sdk/IoT_LINK/iot_link/network/lwm2m/wakaama_lwm2m/wakaama-master/core\observe.c **** 
 1396              		.loc 1 342 5 discriminator 8 view .LVU355
 342:C:/Users/²Ü¼ÒºÀ/.iotlink/sdk/IoT_LINK/iot_link/network/lwm2m/wakaama_lwm2m/wakaama-master/core\observe.c **** 
 1397              		.loc 1 342 5 discriminator 8 view .LVU356
 342:C:/Users/²Ü¼ÒºÀ/.iotlink/sdk/IoT_LINK/iot_link/network/lwm2m/wakaama_lwm2m/wakaama-master/core\observe.c **** 
 1398              		.loc 1 342 5 discriminator 8 view .LVU357
 1399 0088 2B78     		ldrb	r3, [r5]	@ zero_extendqisi2
 1400 008a 9907     		lsls	r1, r3, #30
 1401 008c 16D5     		bpl	.L125
 342:C:/Users/²Ü¼ÒºÀ/.iotlink/sdk/IoT_LINK/iot_link/network/lwm2m/wakaama_lwm2m/wakaama-master/core\observe.c **** 
 1402              		.loc 1 342 5 discriminator 9 view .LVU358
 342:C:/Users/²Ü¼ÒºÀ/.iotlink/sdk/IoT_LINK/iot_link/network/lwm2m/wakaama_lwm2m/wakaama-master/core\observe.c **** 
 1403              		.loc 1 342 5 discriminator 9 view .LVU359
 1404 008e FFF7FEFF 		bl	link_log_level_get
 1405              	.LVL123:
 1406 0092 0128     		cmp	r0, #1
 1407 0094 12D8     		bhi	.L125
 342:C:/Users/²Ü¼ÒºÀ/.iotlink/sdk/IoT_LINK/iot_link/network/lwm2m/wakaama_lwm2m/wakaama-master/core\observe.c **** 
 1408              		.loc 1 342 5 discriminator 11 view .LVU360
 342:C:/Users/²Ü¼ÒºÀ/.iotlink/sdk/IoT_LINK/iot_link/network/lwm2m/wakaama_lwm2m/wakaama-master/core\observe.c **** 
 1409              		.loc 1 342 5 discriminator 11 view .LVU361
 342:C:/Users/²Ü¼ÒºÀ/.iotlink/sdk/IoT_LINK/iot_link/network/lwm2m/wakaama_lwm2m/wakaama-master/core\observe.c **** 
 1410              		.loc 1 342 5 discriminator 11 view .LVU362
 1411 0096 0120     		movs	r0, #1
 1412 0098 FFF7FEFF 		bl	link_log_level_name
 1413              	.LVL124:
 1414 009c 0446     		mov	r4, r0
 1415 009e FFF7FEFF 		bl	osal_sys_time
 1416              	.LVL125:
 1417 00a2 AB88     		ldrh	r3, [r5, #4]
 1418 00a4 0093     		str	r3, [sp]
 1419 00a6 0246     		mov	r2, r0
 1420 00a8 2F4B     		ldr	r3, .L146+4
 1421 00aa 3348     		ldr	r0, .L146+20
 1422 00ac 2146     		mov	r1, r4
 1423 00ae FFF7FEFF 		bl	printf
 1424              	.LVL126:
 342:C:/Users/²Ü¼ÒºÀ/.iotlink/sdk/IoT_LINK/iot_link/network/lwm2m/wakaama_lwm2m/wakaama-master/core\observe.c **** 
 1425              		.loc 1 342 5 discriminator 11 view .LVU363
 1426 00b2 2F4B     		ldr	r3, .L146+12
 1427 00b4 1B68     		ldr	r3, [r3]
 1428 00b6 9868     		ldr	r0, [r3, #8]
 1429 00b8 FFF7FEFF 		bl	fflush
 1430              	.LVL127:
 1431              	.L125:
 342:C:/Users/²Ü¼ÒºÀ/.iotlink/sdk/IoT_LINK/iot_link/network/lwm2m/wakaama_lwm2m/wakaama-master/core\observe.c **** 
 1432              		.loc 1 342 5 discriminator 13 view .LVU364
 342:C:/Users/²Ü¼ÒºÀ/.iotlink/sdk/IoT_LINK/iot_link/network/lwm2m/wakaama_lwm2m/wakaama-master/core\observe.c **** 
 1433              		.loc 1 342 5 discriminator 13 view .LVU365
 342:C:/Users/²Ü¼ÒºÀ/.iotlink/sdk/IoT_LINK/iot_link/network/lwm2m/wakaama_lwm2m/wakaama-master/core\observe.c **** 
 1434              		.loc 1 342 5 discriminator 13 view .LVU366
 342:C:/Users/²Ü¼ÒºÀ/.iotlink/sdk/IoT_LINK/iot_link/network/lwm2m/wakaama_lwm2m/wakaama-master/core\observe.c **** 
 1435              		.loc 1 342 5 discriminator 13 view .LVU367
 1436 00bc 2B78     		ldrb	r3, [r5]	@ zero_extendqisi2
ARM GAS  C:\Users\²Ü¼ÒºÀ\AppData\Local\Temp\ccA6NNYh.s 			page 39


 1437 00be DA07     		lsls	r2, r3, #31
 1438 00c0 16D5     		bpl	.L128
 342:C:/Users/²Ü¼ÒºÀ/.iotlink/sdk/IoT_LINK/iot_link/network/lwm2m/wakaama_lwm2m/wakaama-master/core\observe.c **** 
 1439              		.loc 1 342 5 discriminator 14 view .LVU368
 342:C:/Users/²Ü¼ÒºÀ/.iotlink/sdk/IoT_LINK/iot_link/network/lwm2m/wakaama_lwm2m/wakaama-master/core\observe.c **** 
 1440              		.loc 1 342 5 discriminator 14 view .LVU369
 1441 00c2 FFF7FEFF 		bl	link_log_level_get
 1442              	.LVL128:
 1443 00c6 0128     		cmp	r0, #1
 1444 00c8 12D8     		bhi	.L128
 342:C:/Users/²Ü¼ÒºÀ/.iotlink/sdk/IoT_LINK/iot_link/network/lwm2m/wakaama_lwm2m/wakaama-master/core\observe.c **** 
 1445              		.loc 1 342 5 discriminator 16 view .LVU370
 342:C:/Users/²Ü¼ÒºÀ/.iotlink/sdk/IoT_LINK/iot_link/network/lwm2m/wakaama_lwm2m/wakaama-master/core\observe.c **** 
 1446              		.loc 1 342 5 discriminator 16 view .LVU371
 342:C:/Users/²Ü¼ÒºÀ/.iotlink/sdk/IoT_LINK/iot_link/network/lwm2m/wakaama_lwm2m/wakaama-master/core\observe.c **** 
 1447              		.loc 1 342 5 discriminator 16 view .LVU372
 1448 00ca 0120     		movs	r0, #1
 1449 00cc FFF7FEFF 		bl	link_log_level_name
 1450              	.LVL129:
 1451 00d0 0446     		mov	r4, r0
 1452 00d2 FFF7FEFF 		bl	osal_sys_time
 1453              	.LVL130:
 1454 00d6 EB88     		ldrh	r3, [r5, #6]
 1455 00d8 0093     		str	r3, [sp]
 1456 00da 0246     		mov	r2, r0
 1457 00dc 224B     		ldr	r3, .L146+4
 1458 00de 2648     		ldr	r0, .L146+20
 1459 00e0 2146     		mov	r1, r4
 1460 00e2 FFF7FEFF 		bl	printf
 1461              	.LVL131:
 342:C:/Users/²Ü¼ÒºÀ/.iotlink/sdk/IoT_LINK/iot_link/network/lwm2m/wakaama_lwm2m/wakaama-master/core\observe.c **** 
 1462              		.loc 1 342 5 discriminator 16 view .LVU373
 1463 00e6 224B     		ldr	r3, .L146+12
 1464 00e8 1B68     		ldr	r3, [r3]
 1465 00ea 9868     		ldr	r0, [r3, #8]
 1466 00ec FFF7FEFF 		bl	fflush
 1467              	.LVL132:
 1468              	.L128:
 342:C:/Users/²Ü¼ÒºÀ/.iotlink/sdk/IoT_LINK/iot_link/network/lwm2m/wakaama_lwm2m/wakaama-master/core\observe.c **** 
 1469              		.loc 1 342 5 discriminator 18 view .LVU374
 342:C:/Users/²Ü¼ÒºÀ/.iotlink/sdk/IoT_LINK/iot_link/network/lwm2m/wakaama_lwm2m/wakaama-master/core\observe.c **** 
 1470              		.loc 1 342 5 discriminator 18 view .LVU375
 342:C:/Users/²Ü¼ÒºÀ/.iotlink/sdk/IoT_LINK/iot_link/network/lwm2m/wakaama_lwm2m/wakaama-master/core\observe.c **** 
 1471              		.loc 1 342 5 discriminator 18 view .LVU376
 342:C:/Users/²Ü¼ÒºÀ/.iotlink/sdk/IoT_LINK/iot_link/network/lwm2m/wakaama_lwm2m/wakaama-master/core\observe.c **** 
 1472              		.loc 1 342 5 discriminator 18 view .LVU377
 342:C:/Users/²Ü¼ÒºÀ/.iotlink/sdk/IoT_LINK/iot_link/network/lwm2m/wakaama_lwm2m/wakaama-master/core\observe.c **** 
 1473              		.loc 1 342 5 discriminator 18 view .LVU378
 1474 00f0 FFF7FEFF 		bl	link_log_level_get
 1475              	.LVL133:
 1476 00f4 0128     		cmp	r0, #1
 1477 00f6 A3D8     		bhi	.L122
 342:C:/Users/²Ü¼ÒºÀ/.iotlink/sdk/IoT_LINK/iot_link/network/lwm2m/wakaama_lwm2m/wakaama-master/core\observe.c **** 
 1478              		.loc 1 342 5 discriminator 19 view .LVU379
 342:C:/Users/²Ü¼ÒºÀ/.iotlink/sdk/IoT_LINK/iot_link/network/lwm2m/wakaama_lwm2m/wakaama-master/core\observe.c **** 
 1479              		.loc 1 342 5 discriminator 19 view .LVU380
 342:C:/Users/²Ü¼ÒºÀ/.iotlink/sdk/IoT_LINK/iot_link/network/lwm2m/wakaama_lwm2m/wakaama-master/core\observe.c **** 
ARM GAS  C:\Users\²Ü¼ÒºÀ\AppData\Local\Temp\ccA6NNYh.s 			page 40


 1480              		.loc 1 342 5 discriminator 19 view .LVU381
 1481 00f8 0120     		movs	r0, #1
 1482 00fa FFF7FEFF 		bl	link_log_level_name
 1483              	.LVL134:
 1484 00fe 0446     		mov	r4, r0
 1485 0100 FFF7FEFF 		bl	osal_sys_time
 1486              	.LVL135:
 1487 0104 184B     		ldr	r3, .L146+4
 1488 0106 0246     		mov	r2, r0
 1489 0108 2146     		mov	r1, r4
 1490 010a 1C48     		ldr	r0, .L146+24
 1491 010c FFF7FEFF 		bl	printf
 1492              	.LVL136:
 1493 0110 91E7     		b	.L145
 1494              	.LVL137:
 1495              	.L138:
 347:C:/Users/²Ü¼ÒºÀ/.iotlink/sdk/IoT_LINK/iot_link/network/lwm2m/wakaama_lwm2m/wakaama-master/core\observe.c ****                 && (LWM2M_URI_IS_SET_INSTANCE(uriP) == false
 1496              		.loc 1 347 9 view .LVU382
 347:C:/Users/²Ü¼ÒºÀ/.iotlink/sdk/IoT_LINK/iot_link/network/lwm2m/wakaama_lwm2m/wakaama-master/core\observe.c ****                 && (LWM2M_URI_IS_SET_INSTANCE(uriP) == false
 1497              		.loc 1 347 12 is_stmt 0 view .LVU383
 1498 0112 E288     		ldrh	r2, [r4, #6]
 1499 0114 6B88     		ldrh	r3, [r5, #2]
 1500 0116 9A42     		cmp	r2, r3
 1501 0118 22D1     		bne	.L132
 348:C:/Users/²Ü¼ÒºÀ/.iotlink/sdk/IoT_LINK/iot_link/network/lwm2m/wakaama_lwm2m/wakaama-master/core\observe.c ****                     || observedP->uri.instanceId == uriP->instanceId))
 1502              		.loc 1 348 17 view .LVU384
 1503 011a 2B78     		ldrb	r3, [r5]	@ zero_extendqisi2
 1504 011c 9B07     		lsls	r3, r3, #30
 1505 011e 03D5     		bpl	.L133
 349:C:/Users/²Ü¼ÒºÀ/.iotlink/sdk/IoT_LINK/iot_link/network/lwm2m/wakaama_lwm2m/wakaama-master/core\observe.c ****         {
 1506              		.loc 1 349 21 view .LVU385
 1507 0120 2289     		ldrh	r2, [r4, #8]
 1508 0122 AB88     		ldrh	r3, [r5, #4]
 1509 0124 9A42     		cmp	r2, r3
 1510 0126 1BD1     		bne	.L132
 1511              	.L133:
 1512              	.LBB28:
 351:C:/Users/²Ü¼ÒºÀ/.iotlink/sdk/IoT_LINK/iot_link/network/lwm2m/wakaama_lwm2m/wakaama-master/core\observe.c ****             lwm2m_watcher_t *watcherP;
 1513              		.loc 1 351 13 is_stmt 1 view .LVU386
 352:C:/Users/²Ü¼ÒºÀ/.iotlink/sdk/IoT_LINK/iot_link/network/lwm2m/wakaama_lwm2m/wakaama-master/core\observe.c **** 
 1514              		.loc 1 352 13 view .LVU387
 354:C:/Users/²Ü¼ÒºÀ/.iotlink/sdk/IoT_LINK/iot_link/network/lwm2m/wakaama_lwm2m/wakaama-master/core\observe.c ****             nextP = observedP->next;
 1515              		.loc 1 354 13 view .LVU388
 1516 0128 306A     		ldr	r0, [r6, #32]
 1517 012a FFF7FEFF 		bl	osal_mutex_lock
 1518              	.LVL138:
 355:C:/Users/²Ü¼ÒºÀ/.iotlink/sdk/IoT_LINK/iot_link/network/lwm2m/wakaama_lwm2m/wakaama-master/core\observe.c **** 
 1519              		.loc 1 355 13 view .LVU389
 355:C:/Users/²Ü¼ÒºÀ/.iotlink/sdk/IoT_LINK/iot_link/network/lwm2m/wakaama_lwm2m/wakaama-master/core\observe.c **** 
 1520              		.loc 1 355 19 is_stmt 0 view .LVU390
 1521 012e D4F80090 		ldr	r9, [r4]
 1522              	.LVL139:
 357:C:/Users/²Ü¼ÒºÀ/.iotlink/sdk/IoT_LINK/iot_link/network/lwm2m/wakaama_lwm2m/wakaama-master/core\observe.c ****             {
 1523              		.loc 1 357 13 is_stmt 1 view .LVU391
 357:C:/Users/²Ü¼ÒºÀ/.iotlink/sdk/IoT_LINK/iot_link/network/lwm2m/wakaama_lwm2m/wakaama-master/core\observe.c ****             {
 1524              		.loc 1 357 27 is_stmt 0 view .LVU392
 1525 0132 E768     		ldr	r7, [r4, #12]
ARM GAS  C:\Users\²Ü¼ÒºÀ\AppData\Local\Temp\ccA6NNYh.s 			page 41


 1526              	.LVL140:
 1527              	.L134:
 357:C:/Users/²Ü¼ÒºÀ/.iotlink/sdk/IoT_LINK/iot_link/network/lwm2m/wakaama_lwm2m/wakaama-master/core\observe.c ****             {
 1528              		.loc 1 357 53 is_stmt 1 discriminator 1 view .LVU393
 357:C:/Users/²Ü¼ÒºÀ/.iotlink/sdk/IoT_LINK/iot_link/network/lwm2m/wakaama_lwm2m/wakaama-master/core\observe.c ****             {
 1529              		.loc 1 357 13 is_stmt 0 discriminator 1 view .LVU394
 1530 0134 77B9     		cbnz	r7, .L136
 361:C:/Users/²Ü¼ÒºÀ/.iotlink/sdk/IoT_LINK/iot_link/network/lwm2m/wakaama_lwm2m/wakaama-master/core\observe.c **** 
 1531              		.loc 1 361 13 is_stmt 1 view .LVU395
 1532 0136 E068     		ldr	r0, [r4, #12]
 1533 0138 FFF7FEFF 		bl	lwm2m_list_free
 1534              	.LVL141:
 363:C:/Users/²Ü¼ÒºÀ/.iotlink/sdk/IoT_LINK/iot_link/network/lwm2m/wakaama_lwm2m/wakaama-master/core\observe.c ****             lwm2m_free(observedP);
 1535              		.loc 1 363 13 view .LVU396
 1536 013c 2146     		mov	r1, r4
 1537 013e 4046     		mov	r0, r8
 1538 0140 FFF7FEFF 		bl	prv_unlinkObserved.isra.0
 1539              	.LVL142:
 364:C:/Users/²Ü¼ÒºÀ/.iotlink/sdk/IoT_LINK/iot_link/network/lwm2m/wakaama_lwm2m/wakaama-master/core\observe.c **** 
 1540              		.loc 1 364 13 view .LVU397
 1541 0144 2046     		mov	r0, r4
 1542 0146 FFF7FEFF 		bl	lwm2m_free
 1543              	.LVL143:
 366:C:/Users/²Ü¼ÒºÀ/.iotlink/sdk/IoT_LINK/iot_link/network/lwm2m/wakaama_lwm2m/wakaama-master/core\observe.c ****             (void) osal_mutex_unlock(contextP->observe_mutex);
 1544              		.loc 1 366 13 view .LVU398
 367:C:/Users/²Ü¼ÒºÀ/.iotlink/sdk/IoT_LINK/iot_link/network/lwm2m/wakaama_lwm2m/wakaama-master/core\observe.c ****         }
 1545              		.loc 1 367 13 view .LVU399
 367:C:/Users/²Ü¼ÒºÀ/.iotlink/sdk/IoT_LINK/iot_link/network/lwm2m/wakaama_lwm2m/wakaama-master/core\observe.c ****         }
 1546              		.loc 1 367 20 is_stmt 0 view .LVU400
 1547 014a 306A     		ldr	r0, [r6, #32]
 1548 014c FFF7FEFF 		bl	osal_mutex_unlock
 1549              	.LVL144:
 366:C:/Users/²Ü¼ÒºÀ/.iotlink/sdk/IoT_LINK/iot_link/network/lwm2m/wakaama_lwm2m/wakaama-master/core\observe.c ****             (void) osal_mutex_unlock(contextP->observe_mutex);
 1550              		.loc 1 366 23 view .LVU401
 1551 0150 4C46     		mov	r4, r9
 1552              	.LBE28:
 350:C:/Users/²Ü¼ÒºÀ/.iotlink/sdk/IoT_LINK/iot_link/network/lwm2m/wakaama_lwm2m/wakaama-master/core\observe.c ****             lwm2m_observed_t *nextP;
 1553              		.loc 1 350 9 view .LVU402
 1554 0152 78E7     		b	.L131
 1555              	.LVL145:
 1556              	.L136:
 1557              	.LBB29:
 359:C:/Users/²Ü¼ÒºÀ/.iotlink/sdk/IoT_LINK/iot_link/network/lwm2m/wakaama_lwm2m/wakaama-master/core\observe.c ****             }
 1558              		.loc 1 359 17 is_stmt 1 view .LVU403
 359:C:/Users/²Ü¼ÒºÀ/.iotlink/sdk/IoT_LINK/iot_link/network/lwm2m/wakaama_lwm2m/wakaama-master/core\observe.c ****             }
 1559              		.loc 1 359 29 is_stmt 0 view .LVU404
 1560 0154 F868     		ldr	r0, [r7, #12]
 359:C:/Users/²Ü¼ÒºÀ/.iotlink/sdk/IoT_LINK/iot_link/network/lwm2m/wakaama_lwm2m/wakaama-master/core\observe.c ****             }
 1561              		.loc 1 359 20 view .LVU405
 1562 0156 08B1     		cbz	r0, .L135
 359:C:/Users/²Ü¼ÒºÀ/.iotlink/sdk/IoT_LINK/iot_link/network/lwm2m/wakaama_lwm2m/wakaama-master/core\observe.c ****             }
 1563              		.loc 1 359 51 is_stmt 1 discriminator 1 view .LVU406
 1564 0158 FFF7FEFF 		bl	lwm2m_free
 1565              	.LVL146:
 1566              	.L135:
 357:C:/Users/²Ü¼ÒºÀ/.iotlink/sdk/IoT_LINK/iot_link/network/lwm2m/wakaama_lwm2m/wakaama-master/core\observe.c ****             {
 1567              		.loc 1 357 71 discriminator 2 view .LVU407
ARM GAS  C:\Users\²Ü¼ÒºÀ\AppData\Local\Temp\ccA6NNYh.s 			page 42


 357:C:/Users/²Ü¼ÒºÀ/.iotlink/sdk/IoT_LINK/iot_link/network/lwm2m/wakaama_lwm2m/wakaama-master/core\observe.c ****             {
 1568              		.loc 1 357 80 is_stmt 0 discriminator 2 view .LVU408
 1569 015c 3F68     		ldr	r7, [r7]
 1570              	.LVL147:
 357:C:/Users/²Ü¼ÒºÀ/.iotlink/sdk/IoT_LINK/iot_link/network/lwm2m/wakaama_lwm2m/wakaama-master/core\observe.c ****             {
 1571              		.loc 1 357 80 discriminator 2 view .LVU409
 1572 015e E9E7     		b	.L134
 1573              	.LVL148:
 1574              	.L132:
 357:C:/Users/²Ü¼ÒºÀ/.iotlink/sdk/IoT_LINK/iot_link/network/lwm2m/wakaama_lwm2m/wakaama-master/core\observe.c ****             {
 1575              		.loc 1 357 80 discriminator 2 view .LVU410
 1576              	.LBE29:
 371:C:/Users/²Ü¼ÒºÀ/.iotlink/sdk/IoT_LINK/iot_link/network/lwm2m/wakaama_lwm2m/wakaama-master/core\observe.c ****         }
 1577              		.loc 1 371 13 is_stmt 1 view .LVU411
 371:C:/Users/²Ü¼ÒºÀ/.iotlink/sdk/IoT_LINK/iot_link/network/lwm2m/wakaama_lwm2m/wakaama-master/core\observe.c ****         }
 1578              		.loc 1 371 23 is_stmt 0 view .LVU412
 1579 0160 2468     		ldr	r4, [r4]
 1580              	.LVL149:
 371:C:/Users/²Ü¼ÒºÀ/.iotlink/sdk/IoT_LINK/iot_link/network/lwm2m/wakaama_lwm2m/wakaama-master/core\observe.c ****         }
 1581              		.loc 1 371 23 view .LVU413
 1582 0162 70E7     		b	.L131
 1583              	.L147:
 1584              		.align	2
 1585              	.L146:
 1586 0164 00000000 		.word	.LANCHOR6
 1587 0168 00000000 		.word	.LANCHOR5
 1588 016c 68010000 		.word	.LC18
 1589 0170 00000000 		.word	_impure_ptr
 1590 0174 86010000 		.word	.LC19
 1591 0178 A1010000 		.word	.LC20
 1592 017c B4010000 		.word	.LC21
 1593              		.cfi_endproc
 1594              	.LFE11:
 1596              		.section	.rodata.observe_setParameters.str1.1,"aMS",%progbits,1
 1597              	.LC22:
 1598 0000 5B25735D 		.ascii	"[%s][%u][%s] [%d][%s:%d] toSet: %08X, toClear: %08X"
 1598      5B25755D 
 1598      5B25735D 
 1598      205B2564 
 1598      5D5B2573 
 1599 0033 2C206D69 		.ascii	", minPeriod: %d, maxPeriod: %d, greaterThan: %f, le"
 1599      6E506572 
 1599      696F643A 
 1599      2025642C 
 1599      206D6178 
 1600 0066 73735468 		.ascii	"ssThan: %f, step: %f\015\012\015\012\000"
 1600      616E3A20 
 1600      25662C20 
 1600      73746570 
 1600      3A202566 
 1601              		.global	__aeabi_d2f
 1602              	.LC23:
 1603 007f 5B25735D 		.ascii	"[%s][%u][%s] [%d][%s:%d] Final toSet: %08X, minPeri"
 1603      5B25755D 
 1603      5B25735D 
 1603      205B2564 
 1603      5D5B2573 
ARM GAS  C:\Users\²Ü¼ÒºÀ\AppData\Local\Temp\ccA6NNYh.s 			page 43


 1604 00b2 6F643A20 		.ascii	"od: %d, maxPeriod: %d, greaterThan: %f, lessThan: %"
 1604      25642C20 
 1604      6D617850 
 1604      6572696F 
 1604      643A2025 
 1605 00e5 662C2073 		.ascii	"f, step: %f\015\012\015\012\000"
 1605      7465703A 
 1605      2025660D 
 1605      0A0D0A00 
 1606              		.section	.text.observe_setParameters,"ax",%progbits
 1607              		.align	1
 1608              		.global	observe_setParameters
 1609              		.syntax unified
 1610              		.thumb
 1611              		.thumb_func
 1612              		.fpu fpv4-sp-d16
 1614              	observe_setParameters:
 1615              	.LVL150:
 1616              	.LFB12:
 375:C:/Users/²Ü¼ÒºÀ/.iotlink/sdk/IoT_LINK/iot_link/network/lwm2m/wakaama_lwm2m/wakaama-master/core\observe.c **** 
 376:C:/Users/²Ü¼ÒºÀ/.iotlink/sdk/IoT_LINK/iot_link/network/lwm2m/wakaama_lwm2m/wakaama-master/core\observe.c **** uint8_t observe_setParameters(lwm2m_context_t *contextP,
 377:C:/Users/²Ü¼ÒºÀ/.iotlink/sdk/IoT_LINK/iot_link/network/lwm2m/wakaama_lwm2m/wakaama-master/core\observe.c ****                               lwm2m_uri_t *uriP,
 378:C:/Users/²Ü¼ÒºÀ/.iotlink/sdk/IoT_LINK/iot_link/network/lwm2m/wakaama_lwm2m/wakaama-master/core\observe.c ****                               lwm2m_server_t *serverP,
 379:C:/Users/²Ü¼ÒºÀ/.iotlink/sdk/IoT_LINK/iot_link/network/lwm2m/wakaama_lwm2m/wakaama-master/core\observe.c ****                               lwm2m_attributes_t *attrP)
 380:C:/Users/²Ü¼ÒºÀ/.iotlink/sdk/IoT_LINK/iot_link/network/lwm2m/wakaama_lwm2m/wakaama-master/core\observe.c **** {
 1617              		.loc 1 380 1 is_stmt 1 view -0
 1618              		.cfi_startproc
 1619              		@ args = 0, pretend = 0, frame = 8
 1620              		@ frame_needed = 0, uses_anonymous_args = 0
 381:C:/Users/²Ü¼ÒºÀ/.iotlink/sdk/IoT_LINK/iot_link/network/lwm2m/wakaama_lwm2m/wakaama-master/core\observe.c ****     uint8_t result;
 1621              		.loc 1 381 5 view .LVU415
 382:C:/Users/²Ü¼ÒºÀ/.iotlink/sdk/IoT_LINK/iot_link/network/lwm2m/wakaama_lwm2m/wakaama-master/core\observe.c ****     lwm2m_watcher_t *watcherP;
 1622              		.loc 1 382 5 view .LVU416
 383:C:/Users/²Ü¼ÒºÀ/.iotlink/sdk/IoT_LINK/iot_link/network/lwm2m/wakaama_lwm2m/wakaama-master/core\observe.c **** 
 384:C:/Users/²Ü¼ÒºÀ/.iotlink/sdk/IoT_LINK/iot_link/network/lwm2m/wakaama_lwm2m/wakaama-master/core\observe.c ****     LOG_URI(uriP);
 1623              		.loc 1 384 5 view .LVU417
 380:C:/Users/²Ü¼ÒºÀ/.iotlink/sdk/IoT_LINK/iot_link/network/lwm2m/wakaama_lwm2m/wakaama-master/core\observe.c ****     uint8_t result;
 1624              		.loc 1 380 1 is_stmt 0 view .LVU418
 1625 0000 2DE9F04D 		push	{r4, r5, r6, r7, r8, r10, fp, lr}
 1626              	.LCFI17:
 1627              		.cfi_def_cfa_offset 32
 1628              		.cfi_offset 4, -32
 1629              		.cfi_offset 5, -28
 1630              		.cfi_offset 6, -24
 1631              		.cfi_offset 7, -20
 1632              		.cfi_offset 8, -16
 1633              		.cfi_offset 10, -12
 1634              		.cfi_offset 11, -8
 1635              		.cfi_offset 14, -4
 1636 0004 2DED028B 		vpush.64	{d8}
 1637              	.LCFI18:
 1638              		.cfi_def_cfa_offset 40
 1639              		.cfi_offset 80, -40
 1640              		.cfi_offset 81, -36
 1641 0008 0646     		mov	r6, r0
 1642 000a 90B0     		sub	sp, sp, #64
 1643              	.LCFI19:
ARM GAS  C:\Users\²Ü¼ÒºÀ\AppData\Local\Temp\ccA6NNYh.s 			page 44


 1644              		.cfi_def_cfa_offset 104
 380:C:/Users/²Ü¼ÒºÀ/.iotlink/sdk/IoT_LINK/iot_link/network/lwm2m/wakaama_lwm2m/wakaama-master/core\observe.c ****     uint8_t result;
 1645              		.loc 1 380 1 view .LVU419
 1646 000c 1746     		mov	r7, r2
 1647 000e 1C46     		mov	r4, r3
 1648              		.loc 1 384 5 view .LVU420
 1649 0010 0D46     		mov	r5, r1
 1650 0012 0029     		cmp	r1, #0
 1651 0014 56D1     		bne	.L149
 1652              		.loc 1 384 5 is_stmt 1 discriminator 1 view .LVU421
 1653              		.loc 1 384 5 discriminator 1 view .LVU422
 1654 0016 FFF7FEFF 		bl	link_log_level_get
 1655              	.LVL151:
 1656              		.loc 1 384 5 is_stmt 0 discriminator 1 view .LVU423
 1657 001a 0128     		cmp	r0, #1
 1658 001c 15D8     		bhi	.L151
 1659              		.loc 1 384 5 is_stmt 1 discriminator 3 view .LVU424
 1660              		.loc 1 384 5 discriminator 3 view .LVU425
 1661              		.loc 1 384 5 discriminator 3 view .LVU426
 1662 001e 0120     		movs	r0, #1
 1663 0020 FFF7FEFF 		bl	link_log_level_name
 1664              	.LVL152:
 1665 0024 8046     		mov	r8, r0
 1666 0026 FFF7FEFF 		bl	osal_sys_time
 1667              	.LVL153:
 1668 002a 4FF4C073 		mov	r3, #384
 1669 002e 0193     		str	r3, [sp, #4]
 1670 0030 A34B     		ldr	r3, .L214
 1671 0032 0093     		str	r3, [sp]
 1672 0034 0246     		mov	r2, r0
 1673 0036 A34B     		ldr	r3, .L214+4
 1674 0038 A348     		ldr	r0, .L214+8
 1675 003a 4146     		mov	r1, r8
 1676 003c FFF7FEFF 		bl	printf
 1677              	.LVL154:
 1678              		.loc 1 384 5 discriminator 3 view .LVU427
 1679              	.L210:
 1680              		.loc 1 384 5 discriminator 19 view .LVU428
 1681 0040 A24B     		ldr	r3, .L214+12
 1682 0042 1B68     		ldr	r3, [r3]
 1683 0044 9868     		ldr	r0, [r3, #8]
 1684 0046 FFF7FEFF 		bl	fflush
 1685              	.LVL155:
 1686              	.L151:
 1687              		.loc 1 384 5 discriminator 21 view .LVU429
 1688              		.loc 1 384 5 discriminator 21 view .LVU430
 1689              		.loc 1 384 5 discriminator 21 view .LVU431
 1690              		.loc 1 384 18 discriminator 21 view .LVU432
 385:C:/Users/²Ü¼ÒºÀ/.iotlink/sdk/IoT_LINK/iot_link/network/lwm2m/wakaama_lwm2m/wakaama-master/core\observe.c ****     LOG_ARG("toSet: %08X, toClear: %08X, minPeriod: %d, maxPeriod: %d, greaterThan: %f, lessThan: %
 1691              		.loc 1 385 5 discriminator 21 view .LVU433
 1692              		.loc 1 385 5 discriminator 21 view .LVU434
 1693 004a FFF7FEFF 		bl	link_log_level_get
 1694              	.LVL156:
 1695 004e 0128     		cmp	r0, #1
 1696 0050 2DD8     		bhi	.L160
 1697              		.loc 1 385 5 discriminator 1 view .LVU435
 1698              		.loc 1 385 5 discriminator 1 view .LVU436
ARM GAS  C:\Users\²Ü¼ÒºÀ\AppData\Local\Temp\ccA6NNYh.s 			page 45


 1699              		.loc 1 385 5 discriminator 1 view .LVU437
 1700 0052 0120     		movs	r0, #1
 1701 0054 FFF7FEFF 		bl	link_log_level_name
 1702              	.LVL157:
 1703 0058 8046     		mov	r8, r0
 1704 005a FFF7FEFF 		bl	osal_sys_time
 1705              	.LVL158:
 1706 005e 0F90     		str	r0, [sp, #60]
 1707 0060 FFF7FEFF 		bl	lwm2m_gettime
 1708              	.LVL159:
 1709 0064 D4E908AB 		ldrd	r10, [r4, #32]
 1710 0068 CDE90CAB 		strd	r10, [sp, #48]
 1711 006c D4E906AB 		ldrd	r10, [r4, #24]
 1712 0070 CDE90AAB 		strd	r10, [sp, #40]
 1713 0074 D4E904AB 		ldrd	r10, [r4, #16]
 1714 0078 CDE908AB 		strd	r10, [sp, #32]
 1715 007c A368     		ldr	r3, [r4, #8]
 1716 007e 0693     		str	r3, [sp, #24]
 1717 0080 6368     		ldr	r3, [r4, #4]
 1718 0082 0593     		str	r3, [sp, #20]
 1719 0084 6378     		ldrb	r3, [r4, #1]	@ zero_extendqisi2
 1720 0086 0493     		str	r3, [sp, #16]
 1721 0088 2378     		ldrb	r3, [r4]	@ zero_extendqisi2
 1722 008a 0393     		str	r3, [sp, #12]
 1723 008c 40F28113 		movw	r3, #385
 1724 0090 0293     		str	r3, [sp, #8]
 1725 0092 8B4B     		ldr	r3, .L214
 1726 0094 0F9A     		ldr	r2, [sp, #60]
 1727 0096 CDE90003 		strd	r0, r3, [sp]
 1728 009a 4146     		mov	r1, r8
 1729 009c 894B     		ldr	r3, .L214+4
 1730 009e 8C48     		ldr	r0, .L214+16
 1731 00a0 FFF7FEFF 		bl	printf
 1732              	.LVL160:
 1733              		.loc 1 385 5 discriminator 1 view .LVU438
 1734 00a4 894B     		ldr	r3, .L214+12
 1735 00a6 1B68     		ldr	r3, [r3]
 1736 00a8 9868     		ldr	r0, [r3, #8]
 1737 00aa FFF7FEFF 		bl	fflush
 1738              	.LVL161:
 1739              	.L160:
 1740              		.loc 1 385 5 discriminator 3 view .LVU439
 1741              		.loc 1 385 5 discriminator 3 view .LVU440
 1742              		.loc 1 385 5 discriminator 3 view .LVU441
 386:C:/Users/²Ü¼ÒºÀ/.iotlink/sdk/IoT_LINK/iot_link/network/lwm2m/wakaama_lwm2m/wakaama-master/core\observe.c ****             attrP->toSet, attrP->toClear, (int)attrP->minPeriod, (int)attrP->maxPeriod, attrP->grea
 387:C:/Users/²Ü¼ÒºÀ/.iotlink/sdk/IoT_LINK/iot_link/network/lwm2m/wakaama_lwm2m/wakaama-master/core\observe.c **** 
 388:C:/Users/²Ü¼ÒºÀ/.iotlink/sdk/IoT_LINK/iot_link/network/lwm2m/wakaama_lwm2m/wakaama-master/core\observe.c ****     if (!LWM2M_URI_IS_SET_INSTANCE(uriP) && LWM2M_URI_IS_SET_RESOURCE(uriP)) return COAP_400_BAD_RE
 1743              		.loc 1 388 5 discriminator 3 view .LVU442
 1744              		.loc 1 388 8 is_stmt 0 discriminator 3 view .LVU443
 1745 00ae 2B78     		ldrb	r3, [r5]	@ zero_extendqisi2
 1746 00b0 03F00303 		and	r3, r3, #3
 1747 00b4 012B     		cmp	r3, #1
 1748 00b6 67D1     		bne	.L161
 1749              	.LVL162:
 1750              	.L175:
 1751              		.loc 1 388 85 view .LVU444
 1752 00b8 8020     		movs	r0, #128
ARM GAS  C:\Users\²Ü¼ÒºÀ\AppData\Local\Temp\ccA6NNYh.s 			page 46


 1753              	.LVL163:
 1754              	.L162:
 389:C:/Users/²Ü¼ÒºÀ/.iotlink/sdk/IoT_LINK/iot_link/network/lwm2m/wakaama_lwm2m/wakaama-master/core\observe.c **** 
 390:C:/Users/²Ü¼ÒºÀ/.iotlink/sdk/IoT_LINK/iot_link/network/lwm2m/wakaama_lwm2m/wakaama-master/core\observe.c ****     result = object_checkReadable(contextP, uriP);
 391:C:/Users/²Ü¼ÒºÀ/.iotlink/sdk/IoT_LINK/iot_link/network/lwm2m/wakaama_lwm2m/wakaama-master/core\observe.c ****     if (COAP_205_CONTENT != result) return result;
 392:C:/Users/²Ü¼ÒºÀ/.iotlink/sdk/IoT_LINK/iot_link/network/lwm2m/wakaama_lwm2m/wakaama-master/core\observe.c **** 
 393:C:/Users/²Ü¼ÒºÀ/.iotlink/sdk/IoT_LINK/iot_link/network/lwm2m/wakaama_lwm2m/wakaama-master/core\observe.c ****     if (0 != (attrP->toSet & ATTR_FLAG_NUMERIC))
 394:C:/Users/²Ü¼ÒºÀ/.iotlink/sdk/IoT_LINK/iot_link/network/lwm2m/wakaama_lwm2m/wakaama-master/core\observe.c ****     {
 395:C:/Users/²Ü¼ÒºÀ/.iotlink/sdk/IoT_LINK/iot_link/network/lwm2m/wakaama_lwm2m/wakaama-master/core\observe.c ****         result = object_checkNumeric(contextP, uriP);
 396:C:/Users/²Ü¼ÒºÀ/.iotlink/sdk/IoT_LINK/iot_link/network/lwm2m/wakaama_lwm2m/wakaama-master/core\observe.c ****         if (COAP_205_CONTENT != result) return result;
 397:C:/Users/²Ü¼ÒºÀ/.iotlink/sdk/IoT_LINK/iot_link/network/lwm2m/wakaama_lwm2m/wakaama-master/core\observe.c ****     }
 398:C:/Users/²Ü¼ÒºÀ/.iotlink/sdk/IoT_LINK/iot_link/network/lwm2m/wakaama_lwm2m/wakaama-master/core\observe.c **** 
 399:C:/Users/²Ü¼ÒºÀ/.iotlink/sdk/IoT_LINK/iot_link/network/lwm2m/wakaama_lwm2m/wakaama-master/core\observe.c ****     watcherP = prv_getWatcher(contextP, uriP, serverP);
 400:C:/Users/²Ü¼ÒºÀ/.iotlink/sdk/IoT_LINK/iot_link/network/lwm2m/wakaama_lwm2m/wakaama-master/core\observe.c ****     if (watcherP == NULL) return COAP_500_INTERNAL_SERVER_ERROR;
 401:C:/Users/²Ü¼ÒºÀ/.iotlink/sdk/IoT_LINK/iot_link/network/lwm2m/wakaama_lwm2m/wakaama-master/core\observe.c **** 
 402:C:/Users/²Ü¼ÒºÀ/.iotlink/sdk/IoT_LINK/iot_link/network/lwm2m/wakaama_lwm2m/wakaama-master/core\observe.c ****     // Check rule âltï¿½?value + 2*âstpï¿½?values < âgtï¿½?value
 403:C:/Users/²Ü¼ÒºÀ/.iotlink/sdk/IoT_LINK/iot_link/network/lwm2m/wakaama_lwm2m/wakaama-master/core\observe.c ****     if ((((attrP->toSet | (watcherP->parameters ? watcherP->parameters->toSet : 0)) & ~attrP->toCle
 404:C:/Users/²Ü¼ÒºÀ/.iotlink/sdk/IoT_LINK/iot_link/network/lwm2m/wakaama_lwm2m/wakaama-master/core\observe.c ****     {
 405:C:/Users/²Ü¼ÒºÀ/.iotlink/sdk/IoT_LINK/iot_link/network/lwm2m/wakaama_lwm2m/wakaama-master/core\observe.c ****         float gt;
 406:C:/Users/²Ü¼ÒºÀ/.iotlink/sdk/IoT_LINK/iot_link/network/lwm2m/wakaama_lwm2m/wakaama-master/core\observe.c ****         float lt;
 407:C:/Users/²Ü¼ÒºÀ/.iotlink/sdk/IoT_LINK/iot_link/network/lwm2m/wakaama_lwm2m/wakaama-master/core\observe.c ****         float stp;
 408:C:/Users/²Ü¼ÒºÀ/.iotlink/sdk/IoT_LINK/iot_link/network/lwm2m/wakaama_lwm2m/wakaama-master/core\observe.c **** 
 409:C:/Users/²Ü¼ÒºÀ/.iotlink/sdk/IoT_LINK/iot_link/network/lwm2m/wakaama_lwm2m/wakaama-master/core\observe.c ****         if (0 != (attrP->toSet & LWM2M_ATTR_FLAG_GREATER_THAN))
 410:C:/Users/²Ü¼ÒºÀ/.iotlink/sdk/IoT_LINK/iot_link/network/lwm2m/wakaama_lwm2m/wakaama-master/core\observe.c ****         {
 411:C:/Users/²Ü¼ÒºÀ/.iotlink/sdk/IoT_LINK/iot_link/network/lwm2m/wakaama_lwm2m/wakaama-master/core\observe.c ****             gt = attrP->greaterThan;
 412:C:/Users/²Ü¼ÒºÀ/.iotlink/sdk/IoT_LINK/iot_link/network/lwm2m/wakaama_lwm2m/wakaama-master/core\observe.c ****         }
 413:C:/Users/²Ü¼ÒºÀ/.iotlink/sdk/IoT_LINK/iot_link/network/lwm2m/wakaama_lwm2m/wakaama-master/core\observe.c ****         else
 414:C:/Users/²Ü¼ÒºÀ/.iotlink/sdk/IoT_LINK/iot_link/network/lwm2m/wakaama_lwm2m/wakaama-master/core\observe.c ****         {
 415:C:/Users/²Ü¼ÒºÀ/.iotlink/sdk/IoT_LINK/iot_link/network/lwm2m/wakaama_lwm2m/wakaama-master/core\observe.c ****             gt = watcherP->parameters->greaterThan;
 416:C:/Users/²Ü¼ÒºÀ/.iotlink/sdk/IoT_LINK/iot_link/network/lwm2m/wakaama_lwm2m/wakaama-master/core\observe.c ****         }
 417:C:/Users/²Ü¼ÒºÀ/.iotlink/sdk/IoT_LINK/iot_link/network/lwm2m/wakaama_lwm2m/wakaama-master/core\observe.c ****         if (0 != (attrP->toSet & LWM2M_ATTR_FLAG_LESS_THAN))
 418:C:/Users/²Ü¼ÒºÀ/.iotlink/sdk/IoT_LINK/iot_link/network/lwm2m/wakaama_lwm2m/wakaama-master/core\observe.c ****         {
 419:C:/Users/²Ü¼ÒºÀ/.iotlink/sdk/IoT_LINK/iot_link/network/lwm2m/wakaama_lwm2m/wakaama-master/core\observe.c ****             lt = attrP->lessThan;
 420:C:/Users/²Ü¼ÒºÀ/.iotlink/sdk/IoT_LINK/iot_link/network/lwm2m/wakaama_lwm2m/wakaama-master/core\observe.c ****         }
 421:C:/Users/²Ü¼ÒºÀ/.iotlink/sdk/IoT_LINK/iot_link/network/lwm2m/wakaama_lwm2m/wakaama-master/core\observe.c ****         else
 422:C:/Users/²Ü¼ÒºÀ/.iotlink/sdk/IoT_LINK/iot_link/network/lwm2m/wakaama_lwm2m/wakaama-master/core\observe.c ****         {
 423:C:/Users/²Ü¼ÒºÀ/.iotlink/sdk/IoT_LINK/iot_link/network/lwm2m/wakaama_lwm2m/wakaama-master/core\observe.c ****             lt = watcherP->parameters->lessThan;
 424:C:/Users/²Ü¼ÒºÀ/.iotlink/sdk/IoT_LINK/iot_link/network/lwm2m/wakaama_lwm2m/wakaama-master/core\observe.c ****         }
 425:C:/Users/²Ü¼ÒºÀ/.iotlink/sdk/IoT_LINK/iot_link/network/lwm2m/wakaama_lwm2m/wakaama-master/core\observe.c ****         if (0 != (attrP->toSet & LWM2M_ATTR_FLAG_STEP))
 426:C:/Users/²Ü¼ÒºÀ/.iotlink/sdk/IoT_LINK/iot_link/network/lwm2m/wakaama_lwm2m/wakaama-master/core\observe.c ****         {
 427:C:/Users/²Ü¼ÒºÀ/.iotlink/sdk/IoT_LINK/iot_link/network/lwm2m/wakaama_lwm2m/wakaama-master/core\observe.c ****             stp = attrP->step;
 428:C:/Users/²Ü¼ÒºÀ/.iotlink/sdk/IoT_LINK/iot_link/network/lwm2m/wakaama_lwm2m/wakaama-master/core\observe.c ****         }
 429:C:/Users/²Ü¼ÒºÀ/.iotlink/sdk/IoT_LINK/iot_link/network/lwm2m/wakaama_lwm2m/wakaama-master/core\observe.c ****         else
 430:C:/Users/²Ü¼ÒºÀ/.iotlink/sdk/IoT_LINK/iot_link/network/lwm2m/wakaama_lwm2m/wakaama-master/core\observe.c ****         {
 431:C:/Users/²Ü¼ÒºÀ/.iotlink/sdk/IoT_LINK/iot_link/network/lwm2m/wakaama_lwm2m/wakaama-master/core\observe.c ****             stp = watcherP->parameters->step;
 432:C:/Users/²Ü¼ÒºÀ/.iotlink/sdk/IoT_LINK/iot_link/network/lwm2m/wakaama_lwm2m/wakaama-master/core\observe.c ****         }
 433:C:/Users/²Ü¼ÒºÀ/.iotlink/sdk/IoT_LINK/iot_link/network/lwm2m/wakaama_lwm2m/wakaama-master/core\observe.c **** 
 434:C:/Users/²Ü¼ÒºÀ/.iotlink/sdk/IoT_LINK/iot_link/network/lwm2m/wakaama_lwm2m/wakaama-master/core\observe.c ****         if (lt + (2 * stp) >= gt) return COAP_400_BAD_REQUEST;
 435:C:/Users/²Ü¼ÒºÀ/.iotlink/sdk/IoT_LINK/iot_link/network/lwm2m/wakaama_lwm2m/wakaama-master/core\observe.c ****     }
 436:C:/Users/²Ü¼ÒºÀ/.iotlink/sdk/IoT_LINK/iot_link/network/lwm2m/wakaama_lwm2m/wakaama-master/core\observe.c **** 
 437:C:/Users/²Ü¼ÒºÀ/.iotlink/sdk/IoT_LINK/iot_link/network/lwm2m/wakaama_lwm2m/wakaama-master/core\observe.c ****     if (watcherP->parameters == NULL)
 438:C:/Users/²Ü¼ÒºÀ/.iotlink/sdk/IoT_LINK/iot_link/network/lwm2m/wakaama_lwm2m/wakaama-master/core\observe.c ****     {
 439:C:/Users/²Ü¼ÒºÀ/.iotlink/sdk/IoT_LINK/iot_link/network/lwm2m/wakaama_lwm2m/wakaama-master/core\observe.c ****         if (attrP->toSet != 0)
 440:C:/Users/²Ü¼ÒºÀ/.iotlink/sdk/IoT_LINK/iot_link/network/lwm2m/wakaama_lwm2m/wakaama-master/core\observe.c ****         {
 441:C:/Users/²Ü¼ÒºÀ/.iotlink/sdk/IoT_LINK/iot_link/network/lwm2m/wakaama_lwm2m/wakaama-master/core\observe.c ****             watcherP->parameters = (lwm2m_attributes_t *)lwm2m_malloc(sizeof(lwm2m_attributes_t));
 442:C:/Users/²Ü¼ÒºÀ/.iotlink/sdk/IoT_LINK/iot_link/network/lwm2m/wakaama_lwm2m/wakaama-master/core\observe.c ****             if (watcherP->parameters == NULL) return COAP_500_INTERNAL_SERVER_ERROR;
 443:C:/Users/²Ü¼ÒºÀ/.iotlink/sdk/IoT_LINK/iot_link/network/lwm2m/wakaama_lwm2m/wakaama-master/core\observe.c ****             memcpy(watcherP->parameters, attrP, sizeof(lwm2m_attributes_t));
ARM GAS  C:\Users\²Ü¼ÒºÀ\AppData\Local\Temp\ccA6NNYh.s 			page 47


 444:C:/Users/²Ü¼ÒºÀ/.iotlink/sdk/IoT_LINK/iot_link/network/lwm2m/wakaama_lwm2m/wakaama-master/core\observe.c ****         }
 445:C:/Users/²Ü¼ÒºÀ/.iotlink/sdk/IoT_LINK/iot_link/network/lwm2m/wakaama_lwm2m/wakaama-master/core\observe.c ****     }
 446:C:/Users/²Ü¼ÒºÀ/.iotlink/sdk/IoT_LINK/iot_link/network/lwm2m/wakaama_lwm2m/wakaama-master/core\observe.c ****     else
 447:C:/Users/²Ü¼ÒºÀ/.iotlink/sdk/IoT_LINK/iot_link/network/lwm2m/wakaama_lwm2m/wakaama-master/core\observe.c ****     {
 448:C:/Users/²Ü¼ÒºÀ/.iotlink/sdk/IoT_LINK/iot_link/network/lwm2m/wakaama_lwm2m/wakaama-master/core\observe.c ****         watcherP->parameters->toSet &= ~attrP->toClear;
 449:C:/Users/²Ü¼ÒºÀ/.iotlink/sdk/IoT_LINK/iot_link/network/lwm2m/wakaama_lwm2m/wakaama-master/core\observe.c ****         if (attrP->toSet & LWM2M_ATTR_FLAG_MIN_PERIOD)
 450:C:/Users/²Ü¼ÒºÀ/.iotlink/sdk/IoT_LINK/iot_link/network/lwm2m/wakaama_lwm2m/wakaama-master/core\observe.c ****         {
 451:C:/Users/²Ü¼ÒºÀ/.iotlink/sdk/IoT_LINK/iot_link/network/lwm2m/wakaama_lwm2m/wakaama-master/core\observe.c ****             watcherP->parameters->minPeriod = attrP->minPeriod;
 452:C:/Users/²Ü¼ÒºÀ/.iotlink/sdk/IoT_LINK/iot_link/network/lwm2m/wakaama_lwm2m/wakaama-master/core\observe.c ****         }
 453:C:/Users/²Ü¼ÒºÀ/.iotlink/sdk/IoT_LINK/iot_link/network/lwm2m/wakaama_lwm2m/wakaama-master/core\observe.c ****         if (attrP->toSet & LWM2M_ATTR_FLAG_MAX_PERIOD)
 454:C:/Users/²Ü¼ÒºÀ/.iotlink/sdk/IoT_LINK/iot_link/network/lwm2m/wakaama_lwm2m/wakaama-master/core\observe.c ****         {
 455:C:/Users/²Ü¼ÒºÀ/.iotlink/sdk/IoT_LINK/iot_link/network/lwm2m/wakaama_lwm2m/wakaama-master/core\observe.c ****             watcherP->parameters->maxPeriod = attrP->maxPeriod;
 456:C:/Users/²Ü¼ÒºÀ/.iotlink/sdk/IoT_LINK/iot_link/network/lwm2m/wakaama_lwm2m/wakaama-master/core\observe.c ****         }
 457:C:/Users/²Ü¼ÒºÀ/.iotlink/sdk/IoT_LINK/iot_link/network/lwm2m/wakaama_lwm2m/wakaama-master/core\observe.c ****         if (attrP->toSet & LWM2M_ATTR_FLAG_GREATER_THAN)
 458:C:/Users/²Ü¼ÒºÀ/.iotlink/sdk/IoT_LINK/iot_link/network/lwm2m/wakaama_lwm2m/wakaama-master/core\observe.c ****         {
 459:C:/Users/²Ü¼ÒºÀ/.iotlink/sdk/IoT_LINK/iot_link/network/lwm2m/wakaama_lwm2m/wakaama-master/core\observe.c ****             watcherP->parameters->greaterThan = attrP->greaterThan;
 460:C:/Users/²Ü¼ÒºÀ/.iotlink/sdk/IoT_LINK/iot_link/network/lwm2m/wakaama_lwm2m/wakaama-master/core\observe.c ****         }
 461:C:/Users/²Ü¼ÒºÀ/.iotlink/sdk/IoT_LINK/iot_link/network/lwm2m/wakaama_lwm2m/wakaama-master/core\observe.c ****         if (attrP->toSet & LWM2M_ATTR_FLAG_LESS_THAN)
 462:C:/Users/²Ü¼ÒºÀ/.iotlink/sdk/IoT_LINK/iot_link/network/lwm2m/wakaama_lwm2m/wakaama-master/core\observe.c ****         {
 463:C:/Users/²Ü¼ÒºÀ/.iotlink/sdk/IoT_LINK/iot_link/network/lwm2m/wakaama_lwm2m/wakaama-master/core\observe.c ****             watcherP->parameters->lessThan = attrP->lessThan;
 464:C:/Users/²Ü¼ÒºÀ/.iotlink/sdk/IoT_LINK/iot_link/network/lwm2m/wakaama_lwm2m/wakaama-master/core\observe.c ****         }
 465:C:/Users/²Ü¼ÒºÀ/.iotlink/sdk/IoT_LINK/iot_link/network/lwm2m/wakaama_lwm2m/wakaama-master/core\observe.c ****         if (attrP->toSet & LWM2M_ATTR_FLAG_STEP)
 466:C:/Users/²Ü¼ÒºÀ/.iotlink/sdk/IoT_LINK/iot_link/network/lwm2m/wakaama_lwm2m/wakaama-master/core\observe.c ****         {
 467:C:/Users/²Ü¼ÒºÀ/.iotlink/sdk/IoT_LINK/iot_link/network/lwm2m/wakaama_lwm2m/wakaama-master/core\observe.c ****             watcherP->parameters->step = attrP->step;
 468:C:/Users/²Ü¼ÒºÀ/.iotlink/sdk/IoT_LINK/iot_link/network/lwm2m/wakaama_lwm2m/wakaama-master/core\observe.c ****         }
 469:C:/Users/²Ü¼ÒºÀ/.iotlink/sdk/IoT_LINK/iot_link/network/lwm2m/wakaama_lwm2m/wakaama-master/core\observe.c ****     }
 470:C:/Users/²Ü¼ÒºÀ/.iotlink/sdk/IoT_LINK/iot_link/network/lwm2m/wakaama_lwm2m/wakaama-master/core\observe.c **** 
 471:C:/Users/²Ü¼ÒºÀ/.iotlink/sdk/IoT_LINK/iot_link/network/lwm2m/wakaama_lwm2m/wakaama-master/core\observe.c ****     LOG_ARG("Final toSet: %08X, minPeriod: %d, maxPeriod: %d, greaterThan: %f, lessThan: %f, step: 
 472:C:/Users/²Ü¼ÒºÀ/.iotlink/sdk/IoT_LINK/iot_link/network/lwm2m/wakaama_lwm2m/wakaama-master/core\observe.c ****             watcherP->parameters->toSet, (int)watcherP->parameters->minPeriod, (int)watcherP->param
 473:C:/Users/²Ü¼ÒºÀ/.iotlink/sdk/IoT_LINK/iot_link/network/lwm2m/wakaama_lwm2m/wakaama-master/core\observe.c **** 
 474:C:/Users/²Ü¼ÒºÀ/.iotlink/sdk/IoT_LINK/iot_link/network/lwm2m/wakaama_lwm2m/wakaama-master/core\observe.c ****     return COAP_204_CHANGED;
 475:C:/Users/²Ü¼ÒºÀ/.iotlink/sdk/IoT_LINK/iot_link/network/lwm2m/wakaama_lwm2m/wakaama-master/core\observe.c **** }
 1755              		.loc 1 475 1 view .LVU445
 1756 00ba 10B0     		add	sp, sp, #64
 1757              	.LCFI20:
 1758              		.cfi_remember_state
 1759              		.cfi_def_cfa_offset 40
 1760              		@ sp needed
 1761 00bc BDEC028B 		vldm	sp!, {d8}
 1762              	.LCFI21:
 1763              		.cfi_restore 80
 1764              		.cfi_restore 81
 1765              		.cfi_def_cfa_offset 32
 1766 00c0 BDE8F08D 		pop	{r4, r5, r6, r7, r8, r10, fp, pc}
 1767              	.LVL164:
 1768              	.L149:
 1769              	.LCFI22:
 1770              		.cfi_restore_state
 384:C:/Users/²Ü¼ÒºÀ/.iotlink/sdk/IoT_LINK/iot_link/network/lwm2m/wakaama_lwm2m/wakaama-master/core\observe.c ****     LOG_ARG("toSet: %08X, toClear: %08X, minPeriod: %d, maxPeriod: %d, greaterThan: %f, lessThan: %
 1771              		.loc 1 384 5 is_stmt 1 discriminator 2 view .LVU446
 384:C:/Users/²Ü¼ÒºÀ/.iotlink/sdk/IoT_LINK/iot_link/network/lwm2m/wakaama_lwm2m/wakaama-master/core\observe.c ****     LOG_ARG("toSet: %08X, toClear: %08X, minPeriod: %d, maxPeriod: %d, greaterThan: %f, lessThan: %
 1772              		.loc 1 384 5 discriminator 2 view .LVU447
 1773 00c4 FFF7FEFF 		bl	link_log_level_get
 1774              	.LVL165:
 384:C:/Users/²Ü¼ÒºÀ/.iotlink/sdk/IoT_LINK/iot_link/network/lwm2m/wakaama_lwm2m/wakaama-master/core\observe.c ****     LOG_ARG("toSet: %08X, toClear: %08X, minPeriod: %d, maxPeriod: %d, greaterThan: %f, lessThan: %
 1775              		.loc 1 384 5 is_stmt 0 discriminator 2 view .LVU448
 1776 00c8 0128     		cmp	r0, #1
ARM GAS  C:\Users\²Ü¼ÒºÀ\AppData\Local\Temp\ccA6NNYh.s 			page 48


 1777 00ca 17D8     		bhi	.L152
 384:C:/Users/²Ü¼ÒºÀ/.iotlink/sdk/IoT_LINK/iot_link/network/lwm2m/wakaama_lwm2m/wakaama-master/core\observe.c ****     LOG_ARG("toSet: %08X, toClear: %08X, minPeriod: %d, maxPeriod: %d, greaterThan: %f, lessThan: %
 1778              		.loc 1 384 5 is_stmt 1 discriminator 6 view .LVU449
 384:C:/Users/²Ü¼ÒºÀ/.iotlink/sdk/IoT_LINK/iot_link/network/lwm2m/wakaama_lwm2m/wakaama-master/core\observe.c ****     LOG_ARG("toSet: %08X, toClear: %08X, minPeriod: %d, maxPeriod: %d, greaterThan: %f, lessThan: %
 1779              		.loc 1 384 5 discriminator 6 view .LVU450
 384:C:/Users/²Ü¼ÒºÀ/.iotlink/sdk/IoT_LINK/iot_link/network/lwm2m/wakaama_lwm2m/wakaama-master/core\observe.c ****     LOG_ARG("toSet: %08X, toClear: %08X, minPeriod: %d, maxPeriod: %d, greaterThan: %f, lessThan: %
 1780              		.loc 1 384 5 discriminator 6 view .LVU451
 1781 00cc 0120     		movs	r0, #1
 1782 00ce FFF7FEFF 		bl	link_log_level_name
 1783              	.LVL166:
 1784 00d2 8046     		mov	r8, r0
 1785 00d4 FFF7FEFF 		bl	osal_sys_time
 1786              	.LVL167:
 1787 00d8 6B88     		ldrh	r3, [r5, #2]
 1788 00da 0293     		str	r3, [sp, #8]
 1789 00dc 4FF4C073 		mov	r3, #384
 1790 00e0 0193     		str	r3, [sp, #4]
 1791 00e2 774B     		ldr	r3, .L214
 1792 00e4 0093     		str	r3, [sp]
 1793 00e6 0246     		mov	r2, r0
 1794 00e8 764B     		ldr	r3, .L214+4
 1795 00ea 7A48     		ldr	r0, .L214+20
 1796 00ec 4146     		mov	r1, r8
 1797 00ee FFF7FEFF 		bl	printf
 1798              	.LVL168:
 384:C:/Users/²Ü¼ÒºÀ/.iotlink/sdk/IoT_LINK/iot_link/network/lwm2m/wakaama_lwm2m/wakaama-master/core\observe.c ****     LOG_ARG("toSet: %08X, toClear: %08X, minPeriod: %d, maxPeriod: %d, greaterThan: %f, lessThan: %
 1799              		.loc 1 384 5 discriminator 6 view .LVU452
 1800 00f2 764B     		ldr	r3, .L214+12
 1801 00f4 1B68     		ldr	r3, [r3]
 1802 00f6 9868     		ldr	r0, [r3, #8]
 1803 00f8 FFF7FEFF 		bl	fflush
 1804              	.LVL169:
 1805              	.L152:
 384:C:/Users/²Ü¼ÒºÀ/.iotlink/sdk/IoT_LINK/iot_link/network/lwm2m/wakaama_lwm2m/wakaama-master/core\observe.c ****     LOG_ARG("toSet: %08X, toClear: %08X, minPeriod: %d, maxPeriod: %d, greaterThan: %f, lessThan: %
 1806              		.loc 1 384 5 discriminator 8 view .LVU453
 384:C:/Users/²Ü¼ÒºÀ/.iotlink/sdk/IoT_LINK/iot_link/network/lwm2m/wakaama_lwm2m/wakaama-master/core\observe.c ****     LOG_ARG("toSet: %08X, toClear: %08X, minPeriod: %d, maxPeriod: %d, greaterThan: %f, lessThan: %
 1807              		.loc 1 384 5 discriminator 8 view .LVU454
 384:C:/Users/²Ü¼ÒºÀ/.iotlink/sdk/IoT_LINK/iot_link/network/lwm2m/wakaama_lwm2m/wakaama-master/core\observe.c ****     LOG_ARG("toSet: %08X, toClear: %08X, minPeriod: %d, maxPeriod: %d, greaterThan: %f, lessThan: %
 1808              		.loc 1 384 5 discriminator 8 view .LVU455
 384:C:/Users/²Ü¼ÒºÀ/.iotlink/sdk/IoT_LINK/iot_link/network/lwm2m/wakaama_lwm2m/wakaama-master/core\observe.c ****     LOG_ARG("toSet: %08X, toClear: %08X, minPeriod: %d, maxPeriod: %d, greaterThan: %f, lessThan: %
 1809              		.loc 1 384 5 discriminator 8 view .LVU456
 1810 00fc 2B78     		ldrb	r3, [r5]	@ zero_extendqisi2
 1811 00fe 9B07     		lsls	r3, r3, #30
 1812 0100 16D5     		bpl	.L154
 384:C:/Users/²Ü¼ÒºÀ/.iotlink/sdk/IoT_LINK/iot_link/network/lwm2m/wakaama_lwm2m/wakaama-master/core\observe.c ****     LOG_ARG("toSet: %08X, toClear: %08X, minPeriod: %d, maxPeriod: %d, greaterThan: %f, lessThan: %
 1813              		.loc 1 384 5 discriminator 9 view .LVU457
 384:C:/Users/²Ü¼ÒºÀ/.iotlink/sdk/IoT_LINK/iot_link/network/lwm2m/wakaama_lwm2m/wakaama-master/core\observe.c ****     LOG_ARG("toSet: %08X, toClear: %08X, minPeriod: %d, maxPeriod: %d, greaterThan: %f, lessThan: %
 1814              		.loc 1 384 5 discriminator 9 view .LVU458
 1815 0102 FFF7FEFF 		bl	link_log_level_get
 1816              	.LVL170:
 1817 0106 0128     		cmp	r0, #1
 1818 0108 12D8     		bhi	.L154
 384:C:/Users/²Ü¼ÒºÀ/.iotlink/sdk/IoT_LINK/iot_link/network/lwm2m/wakaama_lwm2m/wakaama-master/core\observe.c ****     LOG_ARG("toSet: %08X, toClear: %08X, minPeriod: %d, maxPeriod: %d, greaterThan: %f, lessThan: %
 1819              		.loc 1 384 5 discriminator 11 view .LVU459
 384:C:/Users/²Ü¼ÒºÀ/.iotlink/sdk/IoT_LINK/iot_link/network/lwm2m/wakaama_lwm2m/wakaama-master/core\observe.c ****     LOG_ARG("toSet: %08X, toClear: %08X, minPeriod: %d, maxPeriod: %d, greaterThan: %f, lessThan: %
 1820              		.loc 1 384 5 discriminator 11 view .LVU460
 384:C:/Users/²Ü¼ÒºÀ/.iotlink/sdk/IoT_LINK/iot_link/network/lwm2m/wakaama_lwm2m/wakaama-master/core\observe.c ****     LOG_ARG("toSet: %08X, toClear: %08X, minPeriod: %d, maxPeriod: %d, greaterThan: %f, lessThan: %
ARM GAS  C:\Users\²Ü¼ÒºÀ\AppData\Local\Temp\ccA6NNYh.s 			page 49


 1821              		.loc 1 384 5 discriminator 11 view .LVU461
 1822 010a 0120     		movs	r0, #1
 1823 010c FFF7FEFF 		bl	link_log_level_name
 1824              	.LVL171:
 1825 0110 8046     		mov	r8, r0
 1826 0112 FFF7FEFF 		bl	osal_sys_time
 1827              	.LVL172:
 1828 0116 AB88     		ldrh	r3, [r5, #4]
 1829 0118 0093     		str	r3, [sp]
 1830 011a 0246     		mov	r2, r0
 1831 011c 694B     		ldr	r3, .L214+4
 1832 011e 6E48     		ldr	r0, .L214+24
 1833 0120 4146     		mov	r1, r8
 1834 0122 FFF7FEFF 		bl	printf
 1835              	.LVL173:
 384:C:/Users/²Ü¼ÒºÀ/.iotlink/sdk/IoT_LINK/iot_link/network/lwm2m/wakaama_lwm2m/wakaama-master/core\observe.c ****     LOG_ARG("toSet: %08X, toClear: %08X, minPeriod: %d, maxPeriod: %d, greaterThan: %f, lessThan: %
 1836              		.loc 1 384 5 discriminator 11 view .LVU462
 1837 0126 694B     		ldr	r3, .L214+12
 1838 0128 1B68     		ldr	r3, [r3]
 1839 012a 9868     		ldr	r0, [r3, #8]
 1840 012c FFF7FEFF 		bl	fflush
 1841              	.LVL174:
 1842              	.L154:
 384:C:/Users/²Ü¼ÒºÀ/.iotlink/sdk/IoT_LINK/iot_link/network/lwm2m/wakaama_lwm2m/wakaama-master/core\observe.c ****     LOG_ARG("toSet: %08X, toClear: %08X, minPeriod: %d, maxPeriod: %d, greaterThan: %f, lessThan: %
 1843              		.loc 1 384 5 discriminator 13 view .LVU463
 384:C:/Users/²Ü¼ÒºÀ/.iotlink/sdk/IoT_LINK/iot_link/network/lwm2m/wakaama_lwm2m/wakaama-master/core\observe.c ****     LOG_ARG("toSet: %08X, toClear: %08X, minPeriod: %d, maxPeriod: %d, greaterThan: %f, lessThan: %
 1844              		.loc 1 384 5 discriminator 13 view .LVU464
 384:C:/Users/²Ü¼ÒºÀ/.iotlink/sdk/IoT_LINK/iot_link/network/lwm2m/wakaama_lwm2m/wakaama-master/core\observe.c ****     LOG_ARG("toSet: %08X, toClear: %08X, minPeriod: %d, maxPeriod: %d, greaterThan: %f, lessThan: %
 1845              		.loc 1 384 5 discriminator 13 view .LVU465
 384:C:/Users/²Ü¼ÒºÀ/.iotlink/sdk/IoT_LINK/iot_link/network/lwm2m/wakaama_lwm2m/wakaama-master/core\observe.c ****     LOG_ARG("toSet: %08X, toClear: %08X, minPeriod: %d, maxPeriod: %d, greaterThan: %f, lessThan: %
 1846              		.loc 1 384 5 discriminator 13 view .LVU466
 1847 0130 2B78     		ldrb	r3, [r5]	@ zero_extendqisi2
 1848 0132 D807     		lsls	r0, r3, #31
 1849 0134 16D5     		bpl	.L157
 384:C:/Users/²Ü¼ÒºÀ/.iotlink/sdk/IoT_LINK/iot_link/network/lwm2m/wakaama_lwm2m/wakaama-master/core\observe.c ****     LOG_ARG("toSet: %08X, toClear: %08X, minPeriod: %d, maxPeriod: %d, greaterThan: %f, lessThan: %
 1850              		.loc 1 384 5 discriminator 14 view .LVU467
 384:C:/Users/²Ü¼ÒºÀ/.iotlink/sdk/IoT_LINK/iot_link/network/lwm2m/wakaama_lwm2m/wakaama-master/core\observe.c ****     LOG_ARG("toSet: %08X, toClear: %08X, minPeriod: %d, maxPeriod: %d, greaterThan: %f, lessThan: %
 1851              		.loc 1 384 5 discriminator 14 view .LVU468
 1852 0136 FFF7FEFF 		bl	link_log_level_get
 1853              	.LVL175:
 1854 013a 0128     		cmp	r0, #1
 1855 013c 12D8     		bhi	.L157
 384:C:/Users/²Ü¼ÒºÀ/.iotlink/sdk/IoT_LINK/iot_link/network/lwm2m/wakaama_lwm2m/wakaama-master/core\observe.c ****     LOG_ARG("toSet: %08X, toClear: %08X, minPeriod: %d, maxPeriod: %d, greaterThan: %f, lessThan: %
 1856              		.loc 1 384 5 discriminator 16 view .LVU469
 384:C:/Users/²Ü¼ÒºÀ/.iotlink/sdk/IoT_LINK/iot_link/network/lwm2m/wakaama_lwm2m/wakaama-master/core\observe.c ****     LOG_ARG("toSet: %08X, toClear: %08X, minPeriod: %d, maxPeriod: %d, greaterThan: %f, lessThan: %
 1857              		.loc 1 384 5 discriminator 16 view .LVU470
 384:C:/Users/²Ü¼ÒºÀ/.iotlink/sdk/IoT_LINK/iot_link/network/lwm2m/wakaama_lwm2m/wakaama-master/core\observe.c ****     LOG_ARG("toSet: %08X, toClear: %08X, minPeriod: %d, maxPeriod: %d, greaterThan: %f, lessThan: %
 1858              		.loc 1 384 5 discriminator 16 view .LVU471
 1859 013e 0120     		movs	r0, #1
 1860 0140 FFF7FEFF 		bl	link_log_level_name
 1861              	.LVL176:
 1862 0144 8046     		mov	r8, r0
 1863 0146 FFF7FEFF 		bl	osal_sys_time
 1864              	.LVL177:
 1865 014a EB88     		ldrh	r3, [r5, #6]
 1866 014c 0093     		str	r3, [sp]
 1867 014e 0246     		mov	r2, r0
ARM GAS  C:\Users\²Ü¼ÒºÀ\AppData\Local\Temp\ccA6NNYh.s 			page 50


 1868 0150 5C4B     		ldr	r3, .L214+4
 1869 0152 6148     		ldr	r0, .L214+24
 1870 0154 4146     		mov	r1, r8
 1871 0156 FFF7FEFF 		bl	printf
 1872              	.LVL178:
 384:C:/Users/²Ü¼ÒºÀ/.iotlink/sdk/IoT_LINK/iot_link/network/lwm2m/wakaama_lwm2m/wakaama-master/core\observe.c ****     LOG_ARG("toSet: %08X, toClear: %08X, minPeriod: %d, maxPeriod: %d, greaterThan: %f, lessThan: %
 1873              		.loc 1 384 5 discriminator 16 view .LVU472
 1874 015a 5C4B     		ldr	r3, .L214+12
 1875 015c 1B68     		ldr	r3, [r3]
 1876 015e 9868     		ldr	r0, [r3, #8]
 1877 0160 FFF7FEFF 		bl	fflush
 1878              	.LVL179:
 1879              	.L157:
 384:C:/Users/²Ü¼ÒºÀ/.iotlink/sdk/IoT_LINK/iot_link/network/lwm2m/wakaama_lwm2m/wakaama-master/core\observe.c ****     LOG_ARG("toSet: %08X, toClear: %08X, minPeriod: %d, maxPeriod: %d, greaterThan: %f, lessThan: %
 1880              		.loc 1 384 5 discriminator 18 view .LVU473
 384:C:/Users/²Ü¼ÒºÀ/.iotlink/sdk/IoT_LINK/iot_link/network/lwm2m/wakaama_lwm2m/wakaama-master/core\observe.c ****     LOG_ARG("toSet: %08X, toClear: %08X, minPeriod: %d, maxPeriod: %d, greaterThan: %f, lessThan: %
 1881              		.loc 1 384 5 discriminator 18 view .LVU474
 384:C:/Users/²Ü¼ÒºÀ/.iotlink/sdk/IoT_LINK/iot_link/network/lwm2m/wakaama_lwm2m/wakaama-master/core\observe.c ****     LOG_ARG("toSet: %08X, toClear: %08X, minPeriod: %d, maxPeriod: %d, greaterThan: %f, lessThan: %
 1882              		.loc 1 384 5 discriminator 18 view .LVU475
 384:C:/Users/²Ü¼ÒºÀ/.iotlink/sdk/IoT_LINK/iot_link/network/lwm2m/wakaama_lwm2m/wakaama-master/core\observe.c ****     LOG_ARG("toSet: %08X, toClear: %08X, minPeriod: %d, maxPeriod: %d, greaterThan: %f, lessThan: %
 1883              		.loc 1 384 5 discriminator 18 view .LVU476
 384:C:/Users/²Ü¼ÒºÀ/.iotlink/sdk/IoT_LINK/iot_link/network/lwm2m/wakaama_lwm2m/wakaama-master/core\observe.c ****     LOG_ARG("toSet: %08X, toClear: %08X, minPeriod: %d, maxPeriod: %d, greaterThan: %f, lessThan: %
 1884              		.loc 1 384 5 discriminator 18 view .LVU477
 1885 0164 FFF7FEFF 		bl	link_log_level_get
 1886              	.LVL180:
 1887 0168 0128     		cmp	r0, #1
 1888 016a 3FF66EAF 		bhi	.L151
 384:C:/Users/²Ü¼ÒºÀ/.iotlink/sdk/IoT_LINK/iot_link/network/lwm2m/wakaama_lwm2m/wakaama-master/core\observe.c ****     LOG_ARG("toSet: %08X, toClear: %08X, minPeriod: %d, maxPeriod: %d, greaterThan: %f, lessThan: %
 1889              		.loc 1 384 5 discriminator 19 view .LVU478
 384:C:/Users/²Ü¼ÒºÀ/.iotlink/sdk/IoT_LINK/iot_link/network/lwm2m/wakaama_lwm2m/wakaama-master/core\observe.c ****     LOG_ARG("toSet: %08X, toClear: %08X, minPeriod: %d, maxPeriod: %d, greaterThan: %f, lessThan: %
 1890              		.loc 1 384 5 discriminator 19 view .LVU479
 384:C:/Users/²Ü¼ÒºÀ/.iotlink/sdk/IoT_LINK/iot_link/network/lwm2m/wakaama_lwm2m/wakaama-master/core\observe.c ****     LOG_ARG("toSet: %08X, toClear: %08X, minPeriod: %d, maxPeriod: %d, greaterThan: %f, lessThan: %
 1891              		.loc 1 384 5 discriminator 19 view .LVU480
 1892 016e 0120     		movs	r0, #1
 1893 0170 FFF7FEFF 		bl	link_log_level_name
 1894              	.LVL181:
 1895 0174 8046     		mov	r8, r0
 1896 0176 FFF7FEFF 		bl	osal_sys_time
 1897              	.LVL182:
 1898 017a 524B     		ldr	r3, .L214+4
 1899 017c 0246     		mov	r2, r0
 1900 017e 4146     		mov	r1, r8
 1901 0180 5648     		ldr	r0, .L214+28
 1902 0182 FFF7FEFF 		bl	printf
 1903              	.LVL183:
 1904 0186 5BE7     		b	.L210
 1905              	.L161:
 390:C:/Users/²Ü¼ÒºÀ/.iotlink/sdk/IoT_LINK/iot_link/network/lwm2m/wakaama_lwm2m/wakaama-master/core\observe.c ****     if (COAP_205_CONTENT != result) return result;
 1906              		.loc 1 390 5 view .LVU481
 390:C:/Users/²Ü¼ÒºÀ/.iotlink/sdk/IoT_LINK/iot_link/network/lwm2m/wakaama_lwm2m/wakaama-master/core\observe.c ****     if (COAP_205_CONTENT != result) return result;
 1907              		.loc 1 390 14 is_stmt 0 view .LVU482
 1908 0188 2946     		mov	r1, r5
 1909 018a 3046     		mov	r0, r6
 1910 018c FFF7FEFF 		bl	object_checkReadable
 1911              	.LVL184:
 391:C:/Users/²Ü¼ÒºÀ/.iotlink/sdk/IoT_LINK/iot_link/network/lwm2m/wakaama_lwm2m/wakaama-master/core\observe.c **** 
 1912              		.loc 1 391 5 is_stmt 1 view .LVU483
ARM GAS  C:\Users\²Ü¼ÒºÀ\AppData\Local\Temp\ccA6NNYh.s 			page 51


 391:C:/Users/²Ü¼ÒºÀ/.iotlink/sdk/IoT_LINK/iot_link/network/lwm2m/wakaama_lwm2m/wakaama-master/core\observe.c **** 
 1913              		.loc 1 391 8 is_stmt 0 view .LVU484
 1914 0190 4528     		cmp	r0, #69
 1915 0192 92D1     		bne	.L162
 393:C:/Users/²Ü¼ÒºÀ/.iotlink/sdk/IoT_LINK/iot_link/network/lwm2m/wakaama_lwm2m/wakaama-master/core\observe.c ****     {
 1916              		.loc 1 393 5 is_stmt 1 view .LVU485
 393:C:/Users/²Ü¼ÒºÀ/.iotlink/sdk/IoT_LINK/iot_link/network/lwm2m/wakaama_lwm2m/wakaama-master/core\observe.c ****     {
 1917              		.loc 1 393 8 is_stmt 0 view .LVU486
 1918 0194 2378     		ldrb	r3, [r4]	@ zero_extendqisi2
 1919 0196 13F01C0F 		tst	r3, #28
 1920 019a 08D1     		bne	.L163
 1921              	.L166:
 399:C:/Users/²Ü¼ÒºÀ/.iotlink/sdk/IoT_LINK/iot_link/network/lwm2m/wakaama_lwm2m/wakaama-master/core\observe.c ****     if (watcherP == NULL) return COAP_500_INTERNAL_SERVER_ERROR;
 1922              		.loc 1 399 5 is_stmt 1 view .LVU487
 399:C:/Users/²Ü¼ÒºÀ/.iotlink/sdk/IoT_LINK/iot_link/network/lwm2m/wakaama_lwm2m/wakaama-master/core\observe.c ****     if (watcherP == NULL) return COAP_500_INTERNAL_SERVER_ERROR;
 1923              		.loc 1 399 16 is_stmt 0 view .LVU488
 1924 019c 3046     		mov	r0, r6
 1925              	.LVL185:
 399:C:/Users/²Ü¼ÒºÀ/.iotlink/sdk/IoT_LINK/iot_link/network/lwm2m/wakaama_lwm2m/wakaama-master/core\observe.c ****     if (watcherP == NULL) return COAP_500_INTERNAL_SERVER_ERROR;
 1926              		.loc 1 399 16 view .LVU489
 1927 019e 3A46     		mov	r2, r7
 1928 01a0 2946     		mov	r1, r5
 1929 01a2 FFF7FEFF 		bl	prv_getWatcher
 1930              	.LVL186:
 400:C:/Users/²Ü¼ÒºÀ/.iotlink/sdk/IoT_LINK/iot_link/network/lwm2m/wakaama_lwm2m/wakaama-master/core\observe.c **** 
 1931              		.loc 1 400 5 is_stmt 1 view .LVU490
 400:C:/Users/²Ü¼ÒºÀ/.iotlink/sdk/IoT_LINK/iot_link/network/lwm2m/wakaama_lwm2m/wakaama-master/core\observe.c **** 
 1932              		.loc 1 400 8 is_stmt 0 view .LVU491
 1933 01a6 0646     		mov	r6, r0
 1934              	.LVL187:
 400:C:/Users/²Ü¼ÒºÀ/.iotlink/sdk/IoT_LINK/iot_link/network/lwm2m/wakaama_lwm2m/wakaama-master/core\observe.c **** 
 1935              		.loc 1 400 8 view .LVU492
 1936 01a8 48B9     		cbnz	r0, .L209
 1937              	.LVL188:
 1938              	.L164:
 400:C:/Users/²Ü¼ÒºÀ/.iotlink/sdk/IoT_LINK/iot_link/network/lwm2m/wakaama_lwm2m/wakaama-master/core\observe.c **** 
 1939              		.loc 1 400 34 view .LVU493
 1940 01aa A020     		movs	r0, #160
 1941 01ac 85E7     		b	.L162
 1942              	.LVL189:
 1943              	.L163:
 395:C:/Users/²Ü¼ÒºÀ/.iotlink/sdk/IoT_LINK/iot_link/network/lwm2m/wakaama_lwm2m/wakaama-master/core\observe.c ****         if (COAP_205_CONTENT != result) return result;
 1944              		.loc 1 395 9 is_stmt 1 view .LVU494
 395:C:/Users/²Ü¼ÒºÀ/.iotlink/sdk/IoT_LINK/iot_link/network/lwm2m/wakaama_lwm2m/wakaama-master/core\observe.c ****         if (COAP_205_CONTENT != result) return result;
 1945              		.loc 1 395 18 is_stmt 0 view .LVU495
 1946 01ae 2946     		mov	r1, r5
 1947 01b0 3046     		mov	r0, r6
 1948              	.LVL190:
 395:C:/Users/²Ü¼ÒºÀ/.iotlink/sdk/IoT_LINK/iot_link/network/lwm2m/wakaama_lwm2m/wakaama-master/core\observe.c ****         if (COAP_205_CONTENT != result) return result;
 1949              		.loc 1 395 18 view .LVU496
 1950 01b2 FFF7FEFF 		bl	object_checkNumeric
 1951              	.LVL191:
 396:C:/Users/²Ü¼ÒºÀ/.iotlink/sdk/IoT_LINK/iot_link/network/lwm2m/wakaama_lwm2m/wakaama-master/core\observe.c ****     }
 1952              		.loc 1 396 9 is_stmt 1 view .LVU497
 396:C:/Users/²Ü¼ÒºÀ/.iotlink/sdk/IoT_LINK/iot_link/network/lwm2m/wakaama_lwm2m/wakaama-master/core\observe.c ****     }
 1953              		.loc 1 396 12 is_stmt 0 view .LVU498
 1954 01b6 4528     		cmp	r0, #69
ARM GAS  C:\Users\²Ü¼ÒºÀ\AppData\Local\Temp\ccA6NNYh.s 			page 52


 1955 01b8 7FF47FAF 		bne	.L162
 1956 01bc EEE7     		b	.L166
 1957              	.LVL192:
 1958              	.L209:
 403:C:/Users/²Ü¼ÒºÀ/.iotlink/sdk/IoT_LINK/iot_link/network/lwm2m/wakaama_lwm2m/wakaama-master/core\observe.c ****     {
 1959              		.loc 1 403 5 is_stmt 1 view .LVU499
 403:C:/Users/²Ü¼ÒºÀ/.iotlink/sdk/IoT_LINK/iot_link/network/lwm2m/wakaama_lwm2m/wakaama-master/core\observe.c ****     {
 1960              		.loc 1 403 36 is_stmt 0 view .LVU500
 1961 01be C568     		ldr	r5, [r0, #12]
 1962              	.LVL193:
 403:C:/Users/²Ü¼ÒºÀ/.iotlink/sdk/IoT_LINK/iot_link/network/lwm2m/wakaama_lwm2m/wakaama-master/core\observe.c ****     {
 1963              		.loc 1 403 17 view .LVU501
 1964 01c0 2778     		ldrb	r7, [r4]	@ zero_extendqisi2
 1965              	.LVL194:
 403:C:/Users/²Ü¼ÒºÀ/.iotlink/sdk/IoT_LINK/iot_link/network/lwm2m/wakaama_lwm2m/wakaama-master/core\observe.c ****     {
 1966              		.loc 1 403 79 view .LVU502
 1967 01c2 002D     		cmp	r5, #0
 1968 01c4 71D0     		beq	.L185
 403:C:/Users/²Ü¼ÒºÀ/.iotlink/sdk/IoT_LINK/iot_link/network/lwm2m/wakaama_lwm2m/wakaama-master/core\observe.c ****     {
 1969              		.loc 1 403 79 discriminator 1 view .LVU503
 1970 01c6 2B78     		ldrb	r3, [r5]	@ zero_extendqisi2
 1971              	.L167:
 403:C:/Users/²Ü¼ÒºÀ/.iotlink/sdk/IoT_LINK/iot_link/network/lwm2m/wakaama_lwm2m/wakaama-master/core\observe.c ****     {
 1972              		.loc 1 403 93 discriminator 4 view .LVU504
 1973 01c8 6278     		ldrb	r2, [r4, #1]	@ zero_extendqisi2
 403:C:/Users/²Ü¼ÒºÀ/.iotlink/sdk/IoT_LINK/iot_link/network/lwm2m/wakaama_lwm2m/wakaama-master/core\observe.c ****     {
 1974              		.loc 1 403 25 discriminator 4 view .LVU505
 1975 01ca 3B43     		orrs	r3, r3, r7
 403:C:/Users/²Ü¼ÒºÀ/.iotlink/sdk/IoT_LINK/iot_link/network/lwm2m/wakaama_lwm2m/wakaama-master/core\observe.c ****     {
 1976              		.loc 1 403 85 discriminator 4 view .LVU506
 1977 01cc 23EA0203 		bic	r3, r3, r2
 403:C:/Users/²Ü¼ÒºÀ/.iotlink/sdk/IoT_LINK/iot_link/network/lwm2m/wakaama_lwm2m/wakaama-master/core\observe.c ****     {
 1978              		.loc 1 403 104 discriminator 4 view .LVU507
 1979 01d0 03F01C03 		and	r3, r3, #28
 403:C:/Users/²Ü¼ÒºÀ/.iotlink/sdk/IoT_LINK/iot_link/network/lwm2m/wakaama_lwm2m/wakaama-master/core\observe.c ****     {
 1980              		.loc 1 403 8 discriminator 4 view .LVU508
 1981 01d4 1C2B     		cmp	r3, #28
 403:C:/Users/²Ü¼ÒºÀ/.iotlink/sdk/IoT_LINK/iot_link/network/lwm2m/wakaama_lwm2m/wakaama-master/core\observe.c ****     {
 1982              		.loc 1 403 87 discriminator 4 view .LVU509
 1983 01d6 6FEA0208 		mvn	r8, r2
 403:C:/Users/²Ü¼ÒºÀ/.iotlink/sdk/IoT_LINK/iot_link/network/lwm2m/wakaama_lwm2m/wakaama-master/core\observe.c ****     {
 1984              		.loc 1 403 8 discriminator 4 view .LVU510
 1985 01da 21D1     		bne	.L168
 1986              	.LBB30:
 405:C:/Users/²Ü¼ÒºÀ/.iotlink/sdk/IoT_LINK/iot_link/network/lwm2m/wakaama_lwm2m/wakaama-master/core\observe.c ****         float lt;
 1987              		.loc 1 405 9 is_stmt 1 view .LVU511
 406:C:/Users/²Ü¼ÒºÀ/.iotlink/sdk/IoT_LINK/iot_link/network/lwm2m/wakaama_lwm2m/wakaama-master/core\observe.c ****         float stp;
 1988              		.loc 1 406 9 view .LVU512
 407:C:/Users/²Ü¼ÒºÀ/.iotlink/sdk/IoT_LINK/iot_link/network/lwm2m/wakaama_lwm2m/wakaama-master/core\observe.c **** 
 1989              		.loc 1 407 9 view .LVU513
 409:C:/Users/²Ü¼ÒºÀ/.iotlink/sdk/IoT_LINK/iot_link/network/lwm2m/wakaama_lwm2m/wakaama-master/core\observe.c ****         {
 1990              		.loc 1 409 9 view .LVU514
 409:C:/Users/²Ü¼ÒºÀ/.iotlink/sdk/IoT_LINK/iot_link/network/lwm2m/wakaama_lwm2m/wakaama-master/core\observe.c ****         {
 1991              		.loc 1 409 12 is_stmt 0 view .LVU515
 1992 01dc 7907     		lsls	r1, r7, #29
 1993 01de 66D5     		bpl	.L169
 411:C:/Users/²Ü¼ÒºÀ/.iotlink/sdk/IoT_LINK/iot_link/network/lwm2m/wakaama_lwm2m/wakaama-master/core\observe.c ****         }
ARM GAS  C:\Users\²Ü¼ÒºÀ\AppData\Local\Temp\ccA6NNYh.s 			page 53


 1994              		.loc 1 411 13 is_stmt 1 view .LVU516
 411:C:/Users/²Ü¼ÒºÀ/.iotlink/sdk/IoT_LINK/iot_link/network/lwm2m/wakaama_lwm2m/wakaama-master/core\observe.c ****         }
 1995              		.loc 1 411 16 is_stmt 0 view .LVU517
 1996 01e0 D4E90401 		ldrd	r0, [r4, #16]
 1997              	.LVL195:
 1998              	.L211:
 415:C:/Users/²Ü¼ÒºÀ/.iotlink/sdk/IoT_LINK/iot_link/network/lwm2m/wakaama_lwm2m/wakaama-master/core\observe.c ****         }
 1999              		.loc 1 415 16 view .LVU518
 2000 01e4 FFF7FEFF 		bl	__aeabi_d2f
 2001              	.LVL196:
 417:C:/Users/²Ü¼ÒºÀ/.iotlink/sdk/IoT_LINK/iot_link/network/lwm2m/wakaama_lwm2m/wakaama-master/core\observe.c ****         {
 2002              		.loc 1 417 12 view .LVU519
 2003 01e8 3A07     		lsls	r2, r7, #28
 415:C:/Users/²Ü¼ÒºÀ/.iotlink/sdk/IoT_LINK/iot_link/network/lwm2m/wakaama_lwm2m/wakaama-master/core\observe.c ****         }
 2004              		.loc 1 415 16 view .LVU520
 2005 01ea 08EE900A 		vmov	s17, r0
 2006              	.LVL197:
 417:C:/Users/²Ü¼ÒºÀ/.iotlink/sdk/IoT_LINK/iot_link/network/lwm2m/wakaama_lwm2m/wakaama-master/core\observe.c ****         {
 2007              		.loc 1 417 9 is_stmt 1 view .LVU521
 417:C:/Users/²Ü¼ÒºÀ/.iotlink/sdk/IoT_LINK/iot_link/network/lwm2m/wakaama_lwm2m/wakaama-master/core\observe.c ****         {
 2008              		.loc 1 417 12 is_stmt 0 view .LVU522
 2009 01ee 61D5     		bpl	.L171
 419:C:/Users/²Ü¼ÒºÀ/.iotlink/sdk/IoT_LINK/iot_link/network/lwm2m/wakaama_lwm2m/wakaama-master/core\observe.c ****         }
 2010              		.loc 1 419 13 is_stmt 1 view .LVU523
 419:C:/Users/²Ü¼ÒºÀ/.iotlink/sdk/IoT_LINK/iot_link/network/lwm2m/wakaama_lwm2m/wakaama-master/core\observe.c ****         }
 2011              		.loc 1 419 16 is_stmt 0 view .LVU524
 2012 01f0 D4E90601 		ldrd	r0, [r4, #24]
 2013              	.LVL198:
 2014              	.L212:
 423:C:/Users/²Ü¼ÒºÀ/.iotlink/sdk/IoT_LINK/iot_link/network/lwm2m/wakaama_lwm2m/wakaama-master/core\observe.c ****         }
 2015              		.loc 1 423 16 view .LVU525
 2016 01f4 FFF7FEFF 		bl	__aeabi_d2f
 2017              	.LVL199:
 425:C:/Users/²Ü¼ÒºÀ/.iotlink/sdk/IoT_LINK/iot_link/network/lwm2m/wakaama_lwm2m/wakaama-master/core\observe.c ****         {
 2018              		.loc 1 425 12 view .LVU526
 2019 01f8 FB06     		lsls	r3, r7, #27
 423:C:/Users/²Ü¼ÒºÀ/.iotlink/sdk/IoT_LINK/iot_link/network/lwm2m/wakaama_lwm2m/wakaama-master/core\observe.c ****         }
 2020              		.loc 1 423 16 view .LVU527
 2021 01fa 08EE100A 		vmov	s16, r0
 2022              	.LVL200:
 425:C:/Users/²Ü¼ÒºÀ/.iotlink/sdk/IoT_LINK/iot_link/network/lwm2m/wakaama_lwm2m/wakaama-master/core\observe.c ****         {
 2023              		.loc 1 425 9 is_stmt 1 view .LVU528
 425:C:/Users/²Ü¼ÒºÀ/.iotlink/sdk/IoT_LINK/iot_link/network/lwm2m/wakaama_lwm2m/wakaama-master/core\observe.c ****         {
 2024              		.loc 1 425 12 is_stmt 0 view .LVU529
 2025 01fe 5CD5     		bpl	.L173
 427:C:/Users/²Ü¼ÒºÀ/.iotlink/sdk/IoT_LINK/iot_link/network/lwm2m/wakaama_lwm2m/wakaama-master/core\observe.c ****         }
 2026              		.loc 1 427 13 is_stmt 1 view .LVU530
 427:C:/Users/²Ü¼ÒºÀ/.iotlink/sdk/IoT_LINK/iot_link/network/lwm2m/wakaama_lwm2m/wakaama-master/core\observe.c ****         }
 2027              		.loc 1 427 17 is_stmt 0 view .LVU531
 2028 0200 D4E90801 		ldrd	r0, [r4, #32]
 2029              	.LVL201:
 2030              	.L213:
 431:C:/Users/²Ü¼ÒºÀ/.iotlink/sdk/IoT_LINK/iot_link/network/lwm2m/wakaama_lwm2m/wakaama-master/core\observe.c ****         }
 2031              		.loc 1 431 17 view .LVU532
 2032 0204 FFF7FEFF 		bl	__aeabi_d2f
 2033              	.LVL202:
 2034 0208 07EE900A 		vmov	s15, r0
ARM GAS  C:\Users\²Ü¼ÒºÀ\AppData\Local\Temp\ccA6NNYh.s 			page 54


 2035              	.LVL203:
 434:C:/Users/²Ü¼ÒºÀ/.iotlink/sdk/IoT_LINK/iot_link/network/lwm2m/wakaama_lwm2m/wakaama-master/core\observe.c ****     }
 2036              		.loc 1 434 9 is_stmt 1 view .LVU533
 434:C:/Users/²Ü¼ÒºÀ/.iotlink/sdk/IoT_LINK/iot_link/network/lwm2m/wakaama_lwm2m/wakaama-master/core\observe.c ****     }
 2037              		.loc 1 434 16 is_stmt 0 view .LVU534
 2038 020c B0EE007A 		vmov.f32	s14, #2.0e+0
 2039 0210 A7EE878A 		vfma.f32	s16, s15, s14
 2040              	.LVL204:
 434:C:/Users/²Ü¼ÒºÀ/.iotlink/sdk/IoT_LINK/iot_link/network/lwm2m/wakaama_lwm2m/wakaama-master/core\observe.c ****     }
 2041              		.loc 1 434 12 view .LVU535
 2042 0214 B4EEE88A 		vcmpe.f32	s16, s17
 2043 0218 F1EE10FA 		vmrs	APSR_nzcv, FPSCR
 2044 021c BFF64CAF 		bge	.L175
 2045              	.LVL205:
 2046              	.L168:
 434:C:/Users/²Ü¼ÒºÀ/.iotlink/sdk/IoT_LINK/iot_link/network/lwm2m/wakaama_lwm2m/wakaama-master/core\observe.c ****     }
 2047              		.loc 1 434 12 view .LVU536
 2048              	.LBE30:
 437:C:/Users/²Ü¼ÒºÀ/.iotlink/sdk/IoT_LINK/iot_link/network/lwm2m/wakaama_lwm2m/wakaama-master/core\observe.c ****     {
 2049              		.loc 1 437 5 is_stmt 1 view .LVU537
 437:C:/Users/²Ü¼ÒºÀ/.iotlink/sdk/IoT_LINK/iot_link/network/lwm2m/wakaama_lwm2m/wakaama-master/core\observe.c ****     {
 2050              		.loc 1 437 8 is_stmt 0 view .LVU538
 2051 0220 002D     		cmp	r5, #0
 2052 0222 5FD1     		bne	.L176
 439:C:/Users/²Ü¼ÒºÀ/.iotlink/sdk/IoT_LINK/iot_link/network/lwm2m/wakaama_lwm2m/wakaama-master/core\observe.c ****         {
 2053              		.loc 1 439 9 is_stmt 1 view .LVU539
 439:C:/Users/²Ü¼ÒºÀ/.iotlink/sdk/IoT_LINK/iot_link/network/lwm2m/wakaama_lwm2m/wakaama-master/core\observe.c ****         {
 2054              		.loc 1 439 12 is_stmt 0 view .LVU540
 2055 0224 77B1     		cbz	r7, .L178
 441:C:/Users/²Ü¼ÒºÀ/.iotlink/sdk/IoT_LINK/iot_link/network/lwm2m/wakaama_lwm2m/wakaama-master/core\observe.c ****             if (watcherP->parameters == NULL) return COAP_500_INTERNAL_SERVER_ERROR;
 2056              		.loc 1 441 13 is_stmt 1 view .LVU541
 441:C:/Users/²Ü¼ÒºÀ/.iotlink/sdk/IoT_LINK/iot_link/network/lwm2m/wakaama_lwm2m/wakaama-master/core\observe.c ****             if (watcherP->parameters == NULL) return COAP_500_INTERNAL_SERVER_ERROR;
 2057              		.loc 1 441 58 is_stmt 0 view .LVU542
 2058 0226 2820     		movs	r0, #40
 2059 0228 FFF7FEFF 		bl	lwm2m_malloc
 2060              	.LVL206:
 441:C:/Users/²Ü¼ÒºÀ/.iotlink/sdk/IoT_LINK/iot_link/network/lwm2m/wakaama_lwm2m/wakaama-master/core\observe.c ****             if (watcherP->parameters == NULL) return COAP_500_INTERNAL_SERVER_ERROR;
 2061              		.loc 1 441 34 view .LVU543
 2062 022c F060     		str	r0, [r6, #12]
 442:C:/Users/²Ü¼ÒºÀ/.iotlink/sdk/IoT_LINK/iot_link/network/lwm2m/wakaama_lwm2m/wakaama-master/core\observe.c ****             memcpy(watcherP->parameters, attrP, sizeof(lwm2m_attributes_t));
 2063              		.loc 1 442 13 is_stmt 1 view .LVU544
 442:C:/Users/²Ü¼ÒºÀ/.iotlink/sdk/IoT_LINK/iot_link/network/lwm2m/wakaama_lwm2m/wakaama-master/core\observe.c ****             memcpy(watcherP->parameters, attrP, sizeof(lwm2m_attributes_t));
 2064              		.loc 1 442 16 is_stmt 0 view .LVU545
 2065 022e 0028     		cmp	r0, #0
 2066 0230 BBD0     		beq	.L164
 443:C:/Users/²Ü¼ÒºÀ/.iotlink/sdk/IoT_LINK/iot_link/network/lwm2m/wakaama_lwm2m/wakaama-master/core\observe.c ****         }
 2067              		.loc 1 443 13 is_stmt 1 view .LVU546
 2068 0232 0246     		mov	r2, r0
 2069 0234 04F12803 		add	r3, r4, #40
 2070              	.LVL207:
 2071              	.L179:
 443:C:/Users/²Ü¼ÒºÀ/.iotlink/sdk/IoT_LINK/iot_link/network/lwm2m/wakaama_lwm2m/wakaama-master/core\observe.c ****         }
 2072              		.loc 1 443 13 is_stmt 0 view .LVU547
 2073 0238 54F8041B 		ldr	r1, [r4], #4	@ unaligned
 2074 023c 42F8041B 		str	r1, [r2], #4	@ unaligned
 2075 0240 9C42     		cmp	r4, r3
 2076 0242 F9D1     		bne	.L179
ARM GAS  C:\Users\²Ü¼ÒºÀ\AppData\Local\Temp\ccA6NNYh.s 			page 55


 2077              	.LVL208:
 2078              	.L178:
 471:C:/Users/²Ü¼ÒºÀ/.iotlink/sdk/IoT_LINK/iot_link/network/lwm2m/wakaama_lwm2m/wakaama-master/core\observe.c ****             watcherP->parameters->toSet, (int)watcherP->parameters->minPeriod, (int)watcherP->param
 2079              		.loc 1 471 5 is_stmt 1 view .LVU548
 471:C:/Users/²Ü¼ÒºÀ/.iotlink/sdk/IoT_LINK/iot_link/network/lwm2m/wakaama_lwm2m/wakaama-master/core\observe.c ****             watcherP->parameters->toSet, (int)watcherP->parameters->minPeriod, (int)watcherP->param
 2080              		.loc 1 471 5 view .LVU549
 2081 0244 FFF7FEFF 		bl	link_log_level_get
 2082              	.LVL209:
 2083 0248 0128     		cmp	r0, #1
 2084 024a 2CD8     		bhi	.L186
 471:C:/Users/²Ü¼ÒºÀ/.iotlink/sdk/IoT_LINK/iot_link/network/lwm2m/wakaama_lwm2m/wakaama-master/core\observe.c ****             watcherP->parameters->toSet, (int)watcherP->parameters->minPeriod, (int)watcherP->param
 2085              		.loc 1 471 5 discriminator 1 view .LVU550
 471:C:/Users/²Ü¼ÒºÀ/.iotlink/sdk/IoT_LINK/iot_link/network/lwm2m/wakaama_lwm2m/wakaama-master/core\observe.c ****             watcherP->parameters->toSet, (int)watcherP->parameters->minPeriod, (int)watcherP->param
 2086              		.loc 1 471 5 discriminator 1 view .LVU551
 471:C:/Users/²Ü¼ÒºÀ/.iotlink/sdk/IoT_LINK/iot_link/network/lwm2m/wakaama_lwm2m/wakaama-master/core\observe.c ****             watcherP->parameters->toSet, (int)watcherP->parameters->minPeriod, (int)watcherP->param
 2087              		.loc 1 471 5 discriminator 1 view .LVU552
 2088 024c 0120     		movs	r0, #1
 2089 024e FFF7FEFF 		bl	link_log_level_name
 2090              	.LVL210:
 2091 0252 0446     		mov	r4, r0
 2092 0254 FFF7FEFF 		bl	osal_sys_time
 2093              	.LVL211:
 2094 0258 0F90     		str	r0, [sp, #60]
 2095 025a FFF7FEFF 		bl	lwm2m_gettime
 2096              	.LVL212:
 2097 025e F368     		ldr	r3, [r6, #12]
 2098 0260 0F9A     		ldr	r2, [sp, #60]
 2099 0262 D3E90867 		ldrd	r6, [r3, #32]
 2100              	.LVL213:
 471:C:/Users/²Ü¼ÒºÀ/.iotlink/sdk/IoT_LINK/iot_link/network/lwm2m/wakaama_lwm2m/wakaama-master/core\observe.c ****             watcherP->parameters->toSet, (int)watcherP->parameters->minPeriod, (int)watcherP->param
 2101              		.loc 1 471 5 is_stmt 0 discriminator 1 view .LVU553
 2102 0266 CDE90A67 		strd	r6, [sp, #40]
 2103 026a D3E90667 		ldrd	r6, [r3, #24]
 2104 026e CDE90867 		strd	r6, [sp, #32]
 2105 0272 D3E90467 		ldrd	r6, [r3, #16]
 2106 0276 CDE90667 		strd	r6, [sp, #24]
 2107 027a 9968     		ldr	r1, [r3, #8]
 2108 027c 0591     		str	r1, [sp, #20]
 2109 027e 5968     		ldr	r1, [r3, #4]
 2110 0280 0491     		str	r1, [sp, #16]
 2111 0282 1B78     		ldrb	r3, [r3]	@ zero_extendqisi2
 2112 0284 0393     		str	r3, [sp, #12]
 2113 0286 40F2D713 		movw	r3, #471
 2114 028a 0293     		str	r3, [sp, #8]
 2115 028c 0C4B     		ldr	r3, .L214
 2116 028e 2146     		mov	r1, r4
 2117 0290 CDE90003 		strd	r0, r3, [sp]
 2118 0294 0B4B     		ldr	r3, .L214+4
 2119 0296 1248     		ldr	r0, .L214+32
 2120 0298 FFF7FEFF 		bl	printf
 2121              	.LVL214:
 471:C:/Users/²Ü¼ÒºÀ/.iotlink/sdk/IoT_LINK/iot_link/network/lwm2m/wakaama_lwm2m/wakaama-master/core\observe.c ****             watcherP->parameters->toSet, (int)watcherP->parameters->minPeriod, (int)watcherP->param
 2122              		.loc 1 471 5 is_stmt 1 discriminator 1 view .LVU554
 2123 029c 0B4B     		ldr	r3, .L214+12
 2124 029e 1B68     		ldr	r3, [r3]
 2125 02a0 9868     		ldr	r0, [r3, #8]
 2126 02a2 FFF7FEFF 		bl	fflush
ARM GAS  C:\Users\²Ü¼ÒºÀ\AppData\Local\Temp\ccA6NNYh.s 			page 56


 2127              	.LVL215:
 2128              	.L186:
 474:C:/Users/²Ü¼ÒºÀ/.iotlink/sdk/IoT_LINK/iot_link/network/lwm2m/wakaama_lwm2m/wakaama-master/core\observe.c **** }
 2129              		.loc 1 474 12 is_stmt 0 view .LVU555
 2130 02a6 4420     		movs	r0, #68
 2131 02a8 07E7     		b	.L162
 2132              	.LVL216:
 2133              	.L185:
 403:C:/Users/²Ü¼ÒºÀ/.iotlink/sdk/IoT_LINK/iot_link/network/lwm2m/wakaama_lwm2m/wakaama-master/core\observe.c ****     {
 2134              		.loc 1 403 79 view .LVU556
 2135 02aa 2B46     		mov	r3, r5
 2136 02ac 8CE7     		b	.L167
 2137              	.L169:
 2138              	.LBB31:
 415:C:/Users/²Ü¼ÒºÀ/.iotlink/sdk/IoT_LINK/iot_link/network/lwm2m/wakaama_lwm2m/wakaama-master/core\observe.c ****         }
 2139              		.loc 1 415 13 is_stmt 1 view .LVU557
 415:C:/Users/²Ü¼ÒºÀ/.iotlink/sdk/IoT_LINK/iot_link/network/lwm2m/wakaama_lwm2m/wakaama-master/core\observe.c ****         }
 2140              		.loc 1 415 16 is_stmt 0 view .LVU558
 2141 02ae D5E90401 		ldrd	r0, [r5, #16]
 2142              	.LVL217:
 415:C:/Users/²Ü¼ÒºÀ/.iotlink/sdk/IoT_LINK/iot_link/network/lwm2m/wakaama_lwm2m/wakaama-master/core\observe.c ****         }
 2143              		.loc 1 415 16 view .LVU559
 2144 02b2 97E7     		b	.L211
 2145              	.LVL218:
 2146              	.L171:
 423:C:/Users/²Ü¼ÒºÀ/.iotlink/sdk/IoT_LINK/iot_link/network/lwm2m/wakaama_lwm2m/wakaama-master/core\observe.c ****         }
 2147              		.loc 1 423 13 is_stmt 1 view .LVU560
 423:C:/Users/²Ü¼ÒºÀ/.iotlink/sdk/IoT_LINK/iot_link/network/lwm2m/wakaama_lwm2m/wakaama-master/core\observe.c ****         }
 2148              		.loc 1 423 16 is_stmt 0 view .LVU561
 2149 02b4 D5E90601 		ldrd	r0, [r5, #24]
 2150              	.LVL219:
 423:C:/Users/²Ü¼ÒºÀ/.iotlink/sdk/IoT_LINK/iot_link/network/lwm2m/wakaama_lwm2m/wakaama-master/core\observe.c ****         }
 2151              		.loc 1 423 16 view .LVU562
 2152 02b8 9CE7     		b	.L212
 2153              	.LVL220:
 2154              	.L173:
 431:C:/Users/²Ü¼ÒºÀ/.iotlink/sdk/IoT_LINK/iot_link/network/lwm2m/wakaama_lwm2m/wakaama-master/core\observe.c ****         }
 2155              		.loc 1 431 13 is_stmt 1 view .LVU563
 431:C:/Users/²Ü¼ÒºÀ/.iotlink/sdk/IoT_LINK/iot_link/network/lwm2m/wakaama_lwm2m/wakaama-master/core\observe.c ****         }
 2156              		.loc 1 431 17 is_stmt 0 view .LVU564
 2157 02ba D5E90801 		ldrd	r0, [r5, #32]
 2158              	.LVL221:
 431:C:/Users/²Ü¼ÒºÀ/.iotlink/sdk/IoT_LINK/iot_link/network/lwm2m/wakaama_lwm2m/wakaama-master/core\observe.c ****         }
 2159              		.loc 1 431 17 view .LVU565
 2160 02be A1E7     		b	.L213
 2161              	.L215:
 2162              		.align	2
 2163              	.L214:
 2164 02c0 00000000 		.word	.LANCHOR8
 2165 02c4 00000000 		.word	.LANCHOR7
 2166 02c8 68010000 		.word	.LC18
 2167 02cc 00000000 		.word	_impure_ptr
 2168 02d0 00000000 		.word	.LC22
 2169 02d4 86010000 		.word	.LC19
 2170 02d8 A1010000 		.word	.LC20
 2171 02dc B4010000 		.word	.LC21
 2172 02e0 7F000000 		.word	.LC23
ARM GAS  C:\Users\²Ü¼ÒºÀ\AppData\Local\Temp\ccA6NNYh.s 			page 57


 2173              	.LVL222:
 2174              	.L176:
 431:C:/Users/²Ü¼ÒºÀ/.iotlink/sdk/IoT_LINK/iot_link/network/lwm2m/wakaama_lwm2m/wakaama-master/core\observe.c ****         }
 2175              		.loc 1 431 17 view .LVU566
 2176              	.LBE31:
 448:C:/Users/²Ü¼ÒºÀ/.iotlink/sdk/IoT_LINK/iot_link/network/lwm2m/wakaama_lwm2m/wakaama-master/core\observe.c ****         if (attrP->toSet & LWM2M_ATTR_FLAG_MIN_PERIOD)
 2177              		.loc 1 448 9 is_stmt 1 view .LVU567
 448:C:/Users/²Ü¼ÒºÀ/.iotlink/sdk/IoT_LINK/iot_link/network/lwm2m/wakaama_lwm2m/wakaama-master/core\observe.c ****         if (attrP->toSet & LWM2M_ATTR_FLAG_MIN_PERIOD)
 2178              		.loc 1 448 37 is_stmt 0 view .LVU568
 2179 02e4 2B78     		ldrb	r3, [r5]	@ zero_extendqisi2
 2180 02e6 03EA0808 		and	r8, r3, r8
 2181 02ea 85F80080 		strb	r8, [r5]
 449:C:/Users/²Ü¼ÒºÀ/.iotlink/sdk/IoT_LINK/iot_link/network/lwm2m/wakaama_lwm2m/wakaama-master/core\observe.c ****         {
 2182              		.loc 1 449 9 is_stmt 1 view .LVU569
 449:C:/Users/²Ü¼ÒºÀ/.iotlink/sdk/IoT_LINK/iot_link/network/lwm2m/wakaama_lwm2m/wakaama-master/core\observe.c ****         {
 2183              		.loc 1 449 18 is_stmt 0 view .LVU570
 2184 02ee 2378     		ldrb	r3, [r4]	@ zero_extendqisi2
 449:C:/Users/²Ü¼ÒºÀ/.iotlink/sdk/IoT_LINK/iot_link/network/lwm2m/wakaama_lwm2m/wakaama-master/core\observe.c ****         {
 2185              		.loc 1 449 12 view .LVU571
 2186 02f0 DF07     		lsls	r7, r3, #31
 451:C:/Users/²Ü¼ÒºÀ/.iotlink/sdk/IoT_LINK/iot_link/network/lwm2m/wakaama_lwm2m/wakaama-master/core\observe.c ****         }
 2187              		.loc 1 451 13 is_stmt 1 view .LVU572
 451:C:/Users/²Ü¼ÒºÀ/.iotlink/sdk/IoT_LINK/iot_link/network/lwm2m/wakaama_lwm2m/wakaama-master/core\observe.c ****         }
 2188              		.loc 1 451 52 is_stmt 0 view .LVU573
 2189 02f2 44BF     		itt	mi
 2190 02f4 6268     		ldrmi	r2, [r4, #4]
 451:C:/Users/²Ü¼ÒºÀ/.iotlink/sdk/IoT_LINK/iot_link/network/lwm2m/wakaama_lwm2m/wakaama-master/core\observe.c ****         }
 2191              		.loc 1 451 45 view .LVU574
 2192 02f6 6A60     		strmi	r2, [r5, #4]
 453:C:/Users/²Ü¼ÒºÀ/.iotlink/sdk/IoT_LINK/iot_link/network/lwm2m/wakaama_lwm2m/wakaama-master/core\observe.c ****         {
 2193              		.loc 1 453 9 is_stmt 1 view .LVU575
 453:C:/Users/²Ü¼ÒºÀ/.iotlink/sdk/IoT_LINK/iot_link/network/lwm2m/wakaama_lwm2m/wakaama-master/core\observe.c ****         {
 2194              		.loc 1 453 12 is_stmt 0 view .LVU576
 2195 02f8 9807     		lsls	r0, r3, #30
 455:C:/Users/²Ü¼ÒºÀ/.iotlink/sdk/IoT_LINK/iot_link/network/lwm2m/wakaama_lwm2m/wakaama-master/core\observe.c ****         }
 2196              		.loc 1 455 13 is_stmt 1 view .LVU577
 455:C:/Users/²Ü¼ÒºÀ/.iotlink/sdk/IoT_LINK/iot_link/network/lwm2m/wakaama_lwm2m/wakaama-master/core\observe.c ****         }
 2197              		.loc 1 455 52 is_stmt 0 view .LVU578
 2198 02fa 44BF     		itt	mi
 2199 02fc A268     		ldrmi	r2, [r4, #8]
 455:C:/Users/²Ü¼ÒºÀ/.iotlink/sdk/IoT_LINK/iot_link/network/lwm2m/wakaama_lwm2m/wakaama-master/core\observe.c ****         }
 2200              		.loc 1 455 45 view .LVU579
 2201 02fe AA60     		strmi	r2, [r5, #8]
 457:C:/Users/²Ü¼ÒºÀ/.iotlink/sdk/IoT_LINK/iot_link/network/lwm2m/wakaama_lwm2m/wakaama-master/core\observe.c ****         {
 2202              		.loc 1 457 9 is_stmt 1 view .LVU580
 457:C:/Users/²Ü¼ÒºÀ/.iotlink/sdk/IoT_LINK/iot_link/network/lwm2m/wakaama_lwm2m/wakaama-master/core\observe.c ****         {
 2203              		.loc 1 457 12 is_stmt 0 view .LVU581
 2204 0300 5907     		lsls	r1, r3, #29
 2205 0302 03D5     		bpl	.L182
 459:C:/Users/²Ü¼ÒºÀ/.iotlink/sdk/IoT_LINK/iot_link/network/lwm2m/wakaama_lwm2m/wakaama-master/core\observe.c ****         }
 2206              		.loc 1 459 13 is_stmt 1 view .LVU582
 459:C:/Users/²Ü¼ÒºÀ/.iotlink/sdk/IoT_LINK/iot_link/network/lwm2m/wakaama_lwm2m/wakaama-master/core\observe.c ****         }
 2207              		.loc 1 459 54 is_stmt 0 view .LVU583
 2208 0304 D4E90401 		ldrd	r0, [r4, #16]
 459:C:/Users/²Ü¼ÒºÀ/.iotlink/sdk/IoT_LINK/iot_link/network/lwm2m/wakaama_lwm2m/wakaama-master/core\observe.c ****         }
 2209              		.loc 1 459 47 view .LVU584
 2210 0308 C5E90401 		strd	r0, [r5, #16]
ARM GAS  C:\Users\²Ü¼ÒºÀ\AppData\Local\Temp\ccA6NNYh.s 			page 58


 2211              	.L182:
 461:C:/Users/²Ü¼ÒºÀ/.iotlink/sdk/IoT_LINK/iot_link/network/lwm2m/wakaama_lwm2m/wakaama-master/core\observe.c ****         {
 2212              		.loc 1 461 9 is_stmt 1 view .LVU585
 461:C:/Users/²Ü¼ÒºÀ/.iotlink/sdk/IoT_LINK/iot_link/network/lwm2m/wakaama_lwm2m/wakaama-master/core\observe.c ****         {
 2213              		.loc 1 461 12 is_stmt 0 view .LVU586
 2214 030c 1A07     		lsls	r2, r3, #28
 2215 030e 03D5     		bpl	.L183
 463:C:/Users/²Ü¼ÒºÀ/.iotlink/sdk/IoT_LINK/iot_link/network/lwm2m/wakaama_lwm2m/wakaama-master/core\observe.c ****         }
 2216              		.loc 1 463 13 is_stmt 1 view .LVU587
 463:C:/Users/²Ü¼ÒºÀ/.iotlink/sdk/IoT_LINK/iot_link/network/lwm2m/wakaama_lwm2m/wakaama-master/core\observe.c ****         }
 2217              		.loc 1 463 51 is_stmt 0 view .LVU588
 2218 0310 D4E90601 		ldrd	r0, [r4, #24]
 463:C:/Users/²Ü¼ÒºÀ/.iotlink/sdk/IoT_LINK/iot_link/network/lwm2m/wakaama_lwm2m/wakaama-master/core\observe.c ****         }
 2219              		.loc 1 463 44 view .LVU589
 2220 0314 C5E90601 		strd	r0, [r5, #24]
 2221              	.L183:
 465:C:/Users/²Ü¼ÒºÀ/.iotlink/sdk/IoT_LINK/iot_link/network/lwm2m/wakaama_lwm2m/wakaama-master/core\observe.c ****         {
 2222              		.loc 1 465 9 is_stmt 1 view .LVU590
 465:C:/Users/²Ü¼ÒºÀ/.iotlink/sdk/IoT_LINK/iot_link/network/lwm2m/wakaama_lwm2m/wakaama-master/core\observe.c ****         {
 2223              		.loc 1 465 12 is_stmt 0 view .LVU591
 2224 0318 DB06     		lsls	r3, r3, #27
 2225 031a 93D5     		bpl	.L178
 467:C:/Users/²Ü¼ÒºÀ/.iotlink/sdk/IoT_LINK/iot_link/network/lwm2m/wakaama_lwm2m/wakaama-master/core\observe.c ****         }
 2226              		.loc 1 467 13 is_stmt 1 view .LVU592
 467:C:/Users/²Ü¼ÒºÀ/.iotlink/sdk/IoT_LINK/iot_link/network/lwm2m/wakaama_lwm2m/wakaama-master/core\observe.c ****         }
 2227              		.loc 1 467 47 is_stmt 0 view .LVU593
 2228 031c D4E90823 		ldrd	r2, [r4, #32]
 467:C:/Users/²Ü¼ÒºÀ/.iotlink/sdk/IoT_LINK/iot_link/network/lwm2m/wakaama_lwm2m/wakaama-master/core\observe.c ****         }
 2229              		.loc 1 467 40 view .LVU594
 2230 0320 C5E90823 		strd	r2, [r5, #32]
 2231 0324 8EE7     		b	.L178
 2232              		.cfi_endproc
 2233              	.LFE12:
 2235 0326 00BF     		.section	.rodata.observe_findByUri.str1.1,"aMS",%progbits,1
 2236              	.LC24:
 2237 0000 00       		.ascii	"\000"
 2238              	.LC25:
 2239 0001 206E6F00 		.ascii	" no\000"
 2240              	.LC26:
 2241 0005 5B25735D 		.ascii	"[%s][%u][%s] [%d][%s:%d] Found one with%s observers"
 2241      5B25755D 
 2241      5B25735D 
 2241      205B2564 
 2241      5D5B2573 
 2242 0038 2E0D0A0D 		.ascii	".\015\012\015\012\000"
 2242      0A00
 2243              	.LC27:
 2244 003e 5B25735D 		.ascii	"[%s][%u][%s] [%d][%s:%d] Found nothing\015\012\015\012"
 2244      5B25755D 
 2244      5B25735D 
 2244      205B2564 
 2244      5D5B2573 
 2245 0068 00       		.ascii	"\000"
 2246              		.section	.text.observe_findByUri,"ax",%progbits
 2247              		.align	1
 2248              		.global	observe_findByUri
 2249              		.syntax unified
ARM GAS  C:\Users\²Ü¼ÒºÀ\AppData\Local\Temp\ccA6NNYh.s 			page 59


 2250              		.thumb
 2251              		.thumb_func
 2252              		.fpu fpv4-sp-d16
 2254              	observe_findByUri:
 2255              	.LVL223:
 2256              	.LFB13:
 476:C:/Users/²Ü¼ÒºÀ/.iotlink/sdk/IoT_LINK/iot_link/network/lwm2m/wakaama_lwm2m/wakaama-master/core\observe.c **** 
 477:C:/Users/²Ü¼ÒºÀ/.iotlink/sdk/IoT_LINK/iot_link/network/lwm2m/wakaama_lwm2m/wakaama-master/core\observe.c **** lwm2m_observed_t *observe_findByUri(lwm2m_context_t *contextP,
 478:C:/Users/²Ü¼ÒºÀ/.iotlink/sdk/IoT_LINK/iot_link/network/lwm2m/wakaama_lwm2m/wakaama-master/core\observe.c ****                                     lwm2m_uri_t *uriP)
 479:C:/Users/²Ü¼ÒºÀ/.iotlink/sdk/IoT_LINK/iot_link/network/lwm2m/wakaama_lwm2m/wakaama-master/core\observe.c **** {
 2257              		.loc 1 479 1 is_stmt 1 view -0
 2258              		.cfi_startproc
 2259              		@ args = 0, pretend = 0, frame = 8
 2260              		@ frame_needed = 0, uses_anonymous_args = 0
 480:C:/Users/²Ü¼ÒºÀ/.iotlink/sdk/IoT_LINK/iot_link/network/lwm2m/wakaama_lwm2m/wakaama-master/core\observe.c ****     lwm2m_observed_t *targetP;
 2261              		.loc 1 480 5 view .LVU596
 481:C:/Users/²Ü¼ÒºÀ/.iotlink/sdk/IoT_LINK/iot_link/network/lwm2m/wakaama_lwm2m/wakaama-master/core\observe.c **** 
 482:C:/Users/²Ü¼ÒºÀ/.iotlink/sdk/IoT_LINK/iot_link/network/lwm2m/wakaama_lwm2m/wakaama-master/core\observe.c ****     LOG_URI(uriP);
 2262              		.loc 1 482 5 view .LVU597
 479:C:/Users/²Ü¼ÒºÀ/.iotlink/sdk/IoT_LINK/iot_link/network/lwm2m/wakaama_lwm2m/wakaama-master/core\observe.c ****     lwm2m_observed_t *targetP;
 2263              		.loc 1 479 1 is_stmt 0 view .LVU598
 2264 0000 70B5     		push	{r4, r5, r6, lr}
 2265              	.LCFI23:
 2266              		.cfi_def_cfa_offset 16
 2267              		.cfi_offset 4, -16
 2268              		.cfi_offset 5, -12
 2269              		.cfi_offset 6, -8
 2270              		.cfi_offset 14, -4
 2271 0002 0446     		mov	r4, r0
 2272 0004 86B0     		sub	sp, sp, #24
 2273              	.LCFI24:
 2274              		.cfi_def_cfa_offset 40
 2275              		.loc 1 482 5 view .LVU599
 2276 0006 0D46     		mov	r5, r1
 2277 0008 0029     		cmp	r1, #0
 2278 000a 37D1     		bne	.L217
 2279              		.loc 1 482 5 is_stmt 1 discriminator 1 view .LVU600
 2280              		.loc 1 482 5 discriminator 1 view .LVU601
 2281 000c FFF7FEFF 		bl	link_log_level_get
 2282              	.LVL224:
 2283              		.loc 1 482 5 is_stmt 0 discriminator 1 view .LVU602
 2284 0010 0128     		cmp	r0, #1
 2285 0012 15D8     		bhi	.L219
 2286              		.loc 1 482 5 is_stmt 1 discriminator 3 view .LVU603
 2287              		.loc 1 482 5 discriminator 3 view .LVU604
 2288              		.loc 1 482 5 discriminator 3 view .LVU605
 2289 0014 0120     		movs	r0, #1
 2290 0016 FFF7FEFF 		bl	link_log_level_name
 2291              	.LVL225:
 2292 001a 0646     		mov	r6, r0
 2293 001c FFF7FEFF 		bl	osal_sys_time
 2294              	.LVL226:
 2295 0020 4FF4F173 		mov	r3, #482
 2296 0024 0193     		str	r3, [sp, #4]
 2297 0026 9E4B     		ldr	r3, .L260
 2298 0028 0093     		str	r3, [sp]
 2299 002a 0246     		mov	r2, r0
ARM GAS  C:\Users\²Ü¼ÒºÀ\AppData\Local\Temp\ccA6NNYh.s 			page 60


 2300 002c 9D4B     		ldr	r3, .L260+4
 2301 002e 9E48     		ldr	r0, .L260+8
 2302 0030 3146     		mov	r1, r6
 2303 0032 FFF7FEFF 		bl	printf
 2304              	.LVL227:
 2305              		.loc 1 482 5 discriminator 3 view .LVU606
 2306              	.L258:
 2307              		.loc 1 482 5 discriminator 19 view .LVU607
 2308 0036 9D4B     		ldr	r3, .L260+12
 2309 0038 1B68     		ldr	r3, [r3]
 2310 003a 9868     		ldr	r0, [r3, #8]
 2311 003c FFF7FEFF 		bl	fflush
 2312              	.LVL228:
 2313              	.L219:
 2314              		.loc 1 482 5 discriminator 21 view .LVU608
 2315              		.loc 1 482 5 discriminator 21 view .LVU609
 2316              		.loc 1 482 5 discriminator 21 view .LVU610
 2317              		.loc 1 482 18 discriminator 21 view .LVU611
 483:C:/Users/²Ü¼ÒºÀ/.iotlink/sdk/IoT_LINK/iot_link/network/lwm2m/wakaama_lwm2m/wakaama-master/core\observe.c ****     targetP = contextP->observedList;
 2318              		.loc 1 483 5 discriminator 21 view .LVU612
 2319              		.loc 1 483 13 is_stmt 0 discriminator 21 view .LVU613
 2320 0040 E469     		ldr	r4, [r4, #28]
 2321              	.LVL229:
 484:C:/Users/²Ü¼ÒºÀ/.iotlink/sdk/IoT_LINK/iot_link/network/lwm2m/wakaama_lwm2m/wakaama-master/core\observe.c ****     while (targetP != NULL)
 2322              		.loc 1 484 5 is_stmt 1 discriminator 21 view .LVU614
 2323              	.L228:
 2324              		.loc 1 484 11 view .LVU615
 2325 0042 002C     		cmp	r4, #0
 2326 0044 7BD1     		bne	.L244
 485:C:/Users/²Ü¼ÒºÀ/.iotlink/sdk/IoT_LINK/iot_link/network/lwm2m/wakaama_lwm2m/wakaama-master/core\observe.c ****     {
 486:C:/Users/²Ü¼ÒºÀ/.iotlink/sdk/IoT_LINK/iot_link/network/lwm2m/wakaama_lwm2m/wakaama-master/core\observe.c ****         if (targetP->uri.objectId == uriP->objectId)
 487:C:/Users/²Ü¼ÒºÀ/.iotlink/sdk/IoT_LINK/iot_link/network/lwm2m/wakaama_lwm2m/wakaama-master/core\observe.c ****         {
 488:C:/Users/²Ü¼ÒºÀ/.iotlink/sdk/IoT_LINK/iot_link/network/lwm2m/wakaama_lwm2m/wakaama-master/core\observe.c ****             if ((!LWM2M_URI_IS_SET_INSTANCE(uriP) && !LWM2M_URI_IS_SET_INSTANCE(&(targetP->uri)))
 489:C:/Users/²Ü¼ÒºÀ/.iotlink/sdk/IoT_LINK/iot_link/network/lwm2m/wakaama_lwm2m/wakaama-master/core\observe.c ****                     || (LWM2M_URI_IS_SET_INSTANCE(uriP) && LWM2M_URI_IS_SET_INSTANCE(&(targetP->uri
 490:C:/Users/²Ü¼ÒºÀ/.iotlink/sdk/IoT_LINK/iot_link/network/lwm2m/wakaama_lwm2m/wakaama-master/core\observe.c ****             {
 491:C:/Users/²Ü¼ÒºÀ/.iotlink/sdk/IoT_LINK/iot_link/network/lwm2m/wakaama_lwm2m/wakaama-master/core\observe.c ****                 if ((!LWM2M_URI_IS_SET_RESOURCE(uriP) && !LWM2M_URI_IS_SET_RESOURCE(&(targetP->uri)
 492:C:/Users/²Ü¼ÒºÀ/.iotlink/sdk/IoT_LINK/iot_link/network/lwm2m/wakaama_lwm2m/wakaama-master/core\observe.c ****                         || (LWM2M_URI_IS_SET_RESOURCE(uriP) && LWM2M_URI_IS_SET_RESOURCE(&(targetP-
 493:C:/Users/²Ü¼ÒºÀ/.iotlink/sdk/IoT_LINK/iot_link/network/lwm2m/wakaama_lwm2m/wakaama-master/core\observe.c ****                 {
 494:C:/Users/²Ü¼ÒºÀ/.iotlink/sdk/IoT_LINK/iot_link/network/lwm2m/wakaama_lwm2m/wakaama-master/core\observe.c ****                     LOG_ARG("Found one with%s observers.", targetP->watcherList ? "" : " no");
 495:C:/Users/²Ü¼ÒºÀ/.iotlink/sdk/IoT_LINK/iot_link/network/lwm2m/wakaama_lwm2m/wakaama-master/core\observe.c ****                     LOG_URI(&(targetP->uri));
 496:C:/Users/²Ü¼ÒºÀ/.iotlink/sdk/IoT_LINK/iot_link/network/lwm2m/wakaama_lwm2m/wakaama-master/core\observe.c ****                     return targetP;
 497:C:/Users/²Ü¼ÒºÀ/.iotlink/sdk/IoT_LINK/iot_link/network/lwm2m/wakaama_lwm2m/wakaama-master/core\observe.c ****                 }
 498:C:/Users/²Ü¼ÒºÀ/.iotlink/sdk/IoT_LINK/iot_link/network/lwm2m/wakaama_lwm2m/wakaama-master/core\observe.c ****             }
 499:C:/Users/²Ü¼ÒºÀ/.iotlink/sdk/IoT_LINK/iot_link/network/lwm2m/wakaama_lwm2m/wakaama-master/core\observe.c ****         }
 500:C:/Users/²Ü¼ÒºÀ/.iotlink/sdk/IoT_LINK/iot_link/network/lwm2m/wakaama_lwm2m/wakaama-master/core\observe.c ****         targetP = targetP->next;
 501:C:/Users/²Ü¼ÒºÀ/.iotlink/sdk/IoT_LINK/iot_link/network/lwm2m/wakaama_lwm2m/wakaama-master/core\observe.c ****     }
 502:C:/Users/²Ü¼ÒºÀ/.iotlink/sdk/IoT_LINK/iot_link/network/lwm2m/wakaama_lwm2m/wakaama-master/core\observe.c **** 
 503:C:/Users/²Ü¼ÒºÀ/.iotlink/sdk/IoT_LINK/iot_link/network/lwm2m/wakaama_lwm2m/wakaama-master/core\observe.c ****     LOG("Found nothing");
 2327              		.loc 1 503 5 view .LVU616
 2328              		.loc 1 503 5 view .LVU617
 2329 0046 FFF7FEFF 		bl	link_log_level_get
 2330              	.LVL230:
 2331 004a 0128     		cmp	r0, #1
 2332 004c 00F21B81 		bhi	.L216
 2333              		.loc 1 503 5 discriminator 1 view .LVU618
 2334              		.loc 1 503 5 discriminator 1 view .LVU619
 2335              		.loc 1 503 5 discriminator 1 view .LVU620
ARM GAS  C:\Users\²Ü¼ÒºÀ\AppData\Local\Temp\ccA6NNYh.s 			page 61


 2336 0050 0120     		movs	r0, #1
 2337 0052 FFF7FEFF 		bl	link_log_level_name
 2338              	.LVL231:
 2339 0056 0546     		mov	r5, r0
 2340              	.LVL232:
 2341              		.loc 1 503 5 is_stmt 0 discriminator 1 view .LVU621
 2342 0058 FFF7FEFF 		bl	osal_sys_time
 2343              	.LVL233:
 2344 005c 0590     		str	r0, [sp, #20]
 2345 005e FFF7FEFF 		bl	lwm2m_gettime
 2346              	.LVL234:
 2347 0062 40F2F713 		movw	r3, #503
 2348 0066 0293     		str	r3, [sp, #8]
 2349 0068 8D4B     		ldr	r3, .L260
 2350 006a 059A     		ldr	r2, [sp, #20]
 2351 006c CDE90003 		strd	r0, r3, [sp]
 2352 0070 2946     		mov	r1, r5
 2353 0072 8C4B     		ldr	r3, .L260+4
 2354 0074 8E48     		ldr	r0, .L260+16
 2355 0076 FFF7FEFF 		bl	printf
 2356              	.LVL235:
 2357 007a FFE0     		b	.L259
 2358              	.LVL236:
 2359              	.L217:
 482:C:/Users/²Ü¼ÒºÀ/.iotlink/sdk/IoT_LINK/iot_link/network/lwm2m/wakaama_lwm2m/wakaama-master/core\observe.c ****     targetP = contextP->observedList;
 2360              		.loc 1 482 5 is_stmt 1 discriminator 2 view .LVU622
 482:C:/Users/²Ü¼ÒºÀ/.iotlink/sdk/IoT_LINK/iot_link/network/lwm2m/wakaama_lwm2m/wakaama-master/core\observe.c ****     targetP = contextP->observedList;
 2361              		.loc 1 482 5 discriminator 2 view .LVU623
 2362 007c FFF7FEFF 		bl	link_log_level_get
 2363              	.LVL237:
 482:C:/Users/²Ü¼ÒºÀ/.iotlink/sdk/IoT_LINK/iot_link/network/lwm2m/wakaama_lwm2m/wakaama-master/core\observe.c ****     targetP = contextP->observedList;
 2364              		.loc 1 482 5 is_stmt 0 discriminator 2 view .LVU624
 2365 0080 0128     		cmp	r0, #1
 2366 0082 17D8     		bhi	.L220
 482:C:/Users/²Ü¼ÒºÀ/.iotlink/sdk/IoT_LINK/iot_link/network/lwm2m/wakaama_lwm2m/wakaama-master/core\observe.c ****     targetP = contextP->observedList;
 2367              		.loc 1 482 5 is_stmt 1 discriminator 6 view .LVU625
 482:C:/Users/²Ü¼ÒºÀ/.iotlink/sdk/IoT_LINK/iot_link/network/lwm2m/wakaama_lwm2m/wakaama-master/core\observe.c ****     targetP = contextP->observedList;
 2368              		.loc 1 482 5 discriminator 6 view .LVU626
 482:C:/Users/²Ü¼ÒºÀ/.iotlink/sdk/IoT_LINK/iot_link/network/lwm2m/wakaama_lwm2m/wakaama-master/core\observe.c ****     targetP = contextP->observedList;
 2369              		.loc 1 482 5 discriminator 6 view .LVU627
 2370 0084 0120     		movs	r0, #1
 2371 0086 FFF7FEFF 		bl	link_log_level_name
 2372              	.LVL238:
 2373 008a 0646     		mov	r6, r0
 2374 008c FFF7FEFF 		bl	osal_sys_time
 2375              	.LVL239:
 2376 0090 6B88     		ldrh	r3, [r5, #2]
 2377 0092 0293     		str	r3, [sp, #8]
 2378 0094 4FF4F173 		mov	r3, #482
 2379 0098 0193     		str	r3, [sp, #4]
 2380 009a 814B     		ldr	r3, .L260
 2381 009c 0093     		str	r3, [sp]
 2382 009e 0246     		mov	r2, r0
 2383 00a0 804B     		ldr	r3, .L260+4
 2384 00a2 8448     		ldr	r0, .L260+20
 2385 00a4 3146     		mov	r1, r6
 2386 00a6 FFF7FEFF 		bl	printf
ARM GAS  C:\Users\²Ü¼ÒºÀ\AppData\Local\Temp\ccA6NNYh.s 			page 62


 2387              	.LVL240:
 482:C:/Users/²Ü¼ÒºÀ/.iotlink/sdk/IoT_LINK/iot_link/network/lwm2m/wakaama_lwm2m/wakaama-master/core\observe.c ****     targetP = contextP->observedList;
 2388              		.loc 1 482 5 discriminator 6 view .LVU628
 2389 00aa 804B     		ldr	r3, .L260+12
 2390 00ac 1B68     		ldr	r3, [r3]
 2391 00ae 9868     		ldr	r0, [r3, #8]
 2392 00b0 FFF7FEFF 		bl	fflush
 2393              	.LVL241:
 2394              	.L220:
 482:C:/Users/²Ü¼ÒºÀ/.iotlink/sdk/IoT_LINK/iot_link/network/lwm2m/wakaama_lwm2m/wakaama-master/core\observe.c ****     targetP = contextP->observedList;
 2395              		.loc 1 482 5 discriminator 8 view .LVU629
 482:C:/Users/²Ü¼ÒºÀ/.iotlink/sdk/IoT_LINK/iot_link/network/lwm2m/wakaama_lwm2m/wakaama-master/core\observe.c ****     targetP = contextP->observedList;
 2396              		.loc 1 482 5 discriminator 8 view .LVU630
 482:C:/Users/²Ü¼ÒºÀ/.iotlink/sdk/IoT_LINK/iot_link/network/lwm2m/wakaama_lwm2m/wakaama-master/core\observe.c ****     targetP = contextP->observedList;
 2397              		.loc 1 482 5 discriminator 8 view .LVU631
 482:C:/Users/²Ü¼ÒºÀ/.iotlink/sdk/IoT_LINK/iot_link/network/lwm2m/wakaama_lwm2m/wakaama-master/core\observe.c ****     targetP = contextP->observedList;
 2398              		.loc 1 482 5 discriminator 8 view .LVU632
 2399 00b4 2B78     		ldrb	r3, [r5]	@ zero_extendqisi2
 2400 00b6 9B07     		lsls	r3, r3, #30
 2401 00b8 16D5     		bpl	.L222
 482:C:/Users/²Ü¼ÒºÀ/.iotlink/sdk/IoT_LINK/iot_link/network/lwm2m/wakaama_lwm2m/wakaama-master/core\observe.c ****     targetP = contextP->observedList;
 2402              		.loc 1 482 5 discriminator 9 view .LVU633
 482:C:/Users/²Ü¼ÒºÀ/.iotlink/sdk/IoT_LINK/iot_link/network/lwm2m/wakaama_lwm2m/wakaama-master/core\observe.c ****     targetP = contextP->observedList;
