ARM GAS  C:\Users\²Ü¼ÒºÀ\AppData\Local\Temp\ccepIYuV.s 			page 1


   1              		.cpu cortex-m4
   2              		.eabi_attribute 27, 1
   3              		.eabi_attribute 28, 1
   4              		.eabi_attribute 20, 1
   5              		.eabi_attribute 21, 1
   6              		.eabi_attribute 23, 3
   7              		.eabi_attribute 24, 1
   8              		.eabi_attribute 25, 1
   9              		.eabi_attribute 26, 1
  10              		.eabi_attribute 30, 4
  11              		.eabi_attribute 34, 1
  12              		.eabi_attribute 18, 4
  13              		.file	"packet.c"
  14              		.text
  15              	.Ltext0:
  16              		.cfi_sections	.debug_frame
  17              		.section	.rodata.message_send.str1.1,"aMS",%progbits,1
  18              	.LC0:
  19 0000 5B25735D 		.ascii	"[%s][%u][%s] [%d][%s:%d] Entering\015\012\015\012\000"
  19      5B25755D 
  19      5B25735D 
  19      205B2564 
  19      5D5B2573 
  20              	.LC1:
  21 0026 5B25735D 		.ascii	"[%s][%u][%s] [%d][%s:%d] Size to allocate: %d\015\012"
  21      5B25755D 
  21      5B25735D 
  21      205B2564 
  21      5D5B2573 
  22 0055 0D0A00   		.ascii	"\015\012\000"
  23              	.LC2:
  24 0058 5B25735D 		.ascii	"[%s][%u][%s] [%d][%s:%d] coap_serialize_message() r"
  24      5B25755D 
  24      5B25735D 
  24      205B2564 
  24      5D5B2573 
  25 008b 65747572 		.ascii	"eturned %d\015\012\015\012\000"
  25      6E656420 
  25      25640D0A 
  25      0D0A00
  26              		.section	.text.message_send,"ax",%progbits
  27              		.align	1
  28              		.global	message_send
  29              		.arch armv7e-m
  30              		.syntax unified
  31              		.thumb
  32              		.thumb_func
  33              		.fpu fpv4-sp-d16
  35              	message_send:
  36              	.LVL0:
  37              	.LFB7:
  38              		.file 1 "C:/Users/\262\334\274\322\272\300/.iotlink/sdk/IoT_LINK/iot_link/network/lwm2m/wakaama_lw
   1:C:/Users/²Ü¼ÒºÀ/.iotlink/sdk/IoT_LINK/iot_link/network/lwm2m/wakaama_lwm2m/wakaama-master/core\packet.c **** /*----------------------------------------------------------------------------
   2:C:/Users/²Ü¼ÒºÀ/.iotlink/sdk/IoT_LINK/iot_link/network/lwm2m/wakaama_lwm2m/wakaama-master/core\packet.c ****  * Copyright (c) <2016-2018>, <Huawei Technologies Co., Ltd>
   3:C:/Users/²Ü¼ÒºÀ/.iotlink/sdk/IoT_LINK/iot_link/network/lwm2m/wakaama_lwm2m/wakaama-master/core\packet.c ****  * All rights reserved.
   4:C:/Users/²Ü¼ÒºÀ/.iotlink/sdk/IoT_LINK/iot_link/network/lwm2m/wakaama_lwm2m/wakaama-master/core\packet.c ****  * Redistribution and use in source and binary forms, with or without modification,
   5:C:/Users/²Ü¼ÒºÀ/.iotlink/sdk/IoT_LINK/iot_link/network/lwm2m/wakaama_lwm2m/wakaama-master/core\packet.c ****  * are permitted provided that the following conditions are met:
ARM GAS  C:\Users\²Ü¼ÒºÀ\AppData\Local\Temp\ccepIYuV.s 			page 2


   6:C:/Users/²Ü¼ÒºÀ/.iotlink/sdk/IoT_LINK/iot_link/network/lwm2m/wakaama_lwm2m/wakaama-master/core\packet.c ****  * 1. Redistributions of source code must retain the above copyright notice, this list of
   7:C:/Users/²Ü¼ÒºÀ/.iotlink/sdk/IoT_LINK/iot_link/network/lwm2m/wakaama_lwm2m/wakaama-master/core\packet.c ****  * conditions and the following disclaimer.
   8:C:/Users/²Ü¼ÒºÀ/.iotlink/sdk/IoT_LINK/iot_link/network/lwm2m/wakaama_lwm2m/wakaama-master/core\packet.c ****  * 2. Redistributions in binary form must reproduce the above copyright notice, this list
   9:C:/Users/²Ü¼ÒºÀ/.iotlink/sdk/IoT_LINK/iot_link/network/lwm2m/wakaama_lwm2m/wakaama-master/core\packet.c ****  * of conditions and the following disclaimer in the documentation and/or other materials
  10:C:/Users/²Ü¼ÒºÀ/.iotlink/sdk/IoT_LINK/iot_link/network/lwm2m/wakaama_lwm2m/wakaama-master/core\packet.c ****  * provided with the distribution.
  11:C:/Users/²Ü¼ÒºÀ/.iotlink/sdk/IoT_LINK/iot_link/network/lwm2m/wakaama_lwm2m/wakaama-master/core\packet.c ****  * 3. Neither the name of the copyright holder nor the names of its contributors may be used
  12:C:/Users/²Ü¼ÒºÀ/.iotlink/sdk/IoT_LINK/iot_link/network/lwm2m/wakaama_lwm2m/wakaama-master/core\packet.c ****  * to endorse or promote products derived from this software without specific prior written
  13:C:/Users/²Ü¼ÒºÀ/.iotlink/sdk/IoT_LINK/iot_link/network/lwm2m/wakaama_lwm2m/wakaama-master/core\packet.c ****  * permission.
  14:C:/Users/²Ü¼ÒºÀ/.iotlink/sdk/IoT_LINK/iot_link/network/lwm2m/wakaama_lwm2m/wakaama-master/core\packet.c ****  * THIS SOFTWARE IS PROVIDED BY THE COPYRIGHT HOLDERS AND CONTRIBUTORS
  15:C:/Users/²Ü¼ÒºÀ/.iotlink/sdk/IoT_LINK/iot_link/network/lwm2m/wakaama_lwm2m/wakaama-master/core\packet.c ****  * "AS IS" AND ANY EXPRESS OR IMPLIED WARRANTIES, INCLUDING, BUT NOT LIMITED TO,
  16:C:/Users/²Ü¼ÒºÀ/.iotlink/sdk/IoT_LINK/iot_link/network/lwm2m/wakaama_lwm2m/wakaama-master/core\packet.c ****  * THE IMPLIED WARRANTIES OF MERCHANTABILITY AND FITNESS FOR A PARTICULAR
  17:C:/Users/²Ü¼ÒºÀ/.iotlink/sdk/IoT_LINK/iot_link/network/lwm2m/wakaama_lwm2m/wakaama-master/core\packet.c ****  * PURPOSE ARE DISCLAIMED. IN NO EVENT SHALL THE COPYRIGHT HOLDER OR
  18:C:/Users/²Ü¼ÒºÀ/.iotlink/sdk/IoT_LINK/iot_link/network/lwm2m/wakaama_lwm2m/wakaama-master/core\packet.c ****  * CONTRIBUTORS BE LIABLE FOR ANY DIRECT, INDIRECT, INCIDENTAL, SPECIAL,
  19:C:/Users/²Ü¼ÒºÀ/.iotlink/sdk/IoT_LINK/iot_link/network/lwm2m/wakaama_lwm2m/wakaama-master/core\packet.c ****  * EXEMPLARY, OR CONSEQUENTIAL DAMAGES (INCLUDING, BUT NOT LIMITED TO,
  20:C:/Users/²Ü¼ÒºÀ/.iotlink/sdk/IoT_LINK/iot_link/network/lwm2m/wakaama_lwm2m/wakaama-master/core\packet.c ****  * PROCUREMENT OF SUBSTITUTE GOODS OR SERVICES; LOSS OF USE, DATA, OR PROFITS;
  21:C:/Users/²Ü¼ÒºÀ/.iotlink/sdk/IoT_LINK/iot_link/network/lwm2m/wakaama_lwm2m/wakaama-master/core\packet.c ****  * OR BUSINESS INTERRUPTION) HOWEVER CAUSED AND ON ANY THEORY OF LIABILITY,
  22:C:/Users/²Ü¼ÒºÀ/.iotlink/sdk/IoT_LINK/iot_link/network/lwm2m/wakaama_lwm2m/wakaama-master/core\packet.c ****  * WHETHER IN CONTRACT, STRICT LIABILITY, OR TORT (INCLUDING NEGLIGENCE OR
  23:C:/Users/²Ü¼ÒºÀ/.iotlink/sdk/IoT_LINK/iot_link/network/lwm2m/wakaama_lwm2m/wakaama-master/core\packet.c ****  * OTHERWISE) ARISING IN ANY WAY OUT OF THE USE OF THIS SOFTWARE, EVEN IF
  24:C:/Users/²Ü¼ÒºÀ/.iotlink/sdk/IoT_LINK/iot_link/network/lwm2m/wakaama_lwm2m/wakaama-master/core\packet.c ****  * ADVISED OF THE POSSIBILITY OF SUCH DAMAGE.
  25:C:/Users/²Ü¼ÒºÀ/.iotlink/sdk/IoT_LINK/iot_link/network/lwm2m/wakaama_lwm2m/wakaama-master/core\packet.c ****  *---------------------------------------------------------------------------*/
  26:C:/Users/²Ü¼ÒºÀ/.iotlink/sdk/IoT_LINK/iot_link/network/lwm2m/wakaama_lwm2m/wakaama-master/core\packet.c **** /*----------------------------------------------------------------------------
  27:C:/Users/²Ü¼ÒºÀ/.iotlink/sdk/IoT_LINK/iot_link/network/lwm2m/wakaama_lwm2m/wakaama-master/core\packet.c ****  * Notice of Export Control Law
  28:C:/Users/²Ü¼ÒºÀ/.iotlink/sdk/IoT_LINK/iot_link/network/lwm2m/wakaama_lwm2m/wakaama-master/core\packet.c ****  * ===============================================
  29:C:/Users/²Ü¼ÒºÀ/.iotlink/sdk/IoT_LINK/iot_link/network/lwm2m/wakaama_lwm2m/wakaama-master/core\packet.c ****  * Huawei LiteOS may be subject to applicable export control laws and regulations, which might
  30:C:/Users/²Ü¼ÒºÀ/.iotlink/sdk/IoT_LINK/iot_link/network/lwm2m/wakaama_lwm2m/wakaama-master/core\packet.c ****  * include those applicable to Huawei LiteOS of U.S. and the country in which you are located.
  31:C:/Users/²Ü¼ÒºÀ/.iotlink/sdk/IoT_LINK/iot_link/network/lwm2m/wakaama_lwm2m/wakaama-master/core\packet.c ****  * Import, export and usage of Huawei LiteOS in any manner by you shall be in compliance with such
  32:C:/Users/²Ü¼ÒºÀ/.iotlink/sdk/IoT_LINK/iot_link/network/lwm2m/wakaama_lwm2m/wakaama-master/core\packet.c ****  * applicable export control laws and regulations.
  33:C:/Users/²Ü¼ÒºÀ/.iotlink/sdk/IoT_LINK/iot_link/network/lwm2m/wakaama_lwm2m/wakaama-master/core\packet.c ****  *---------------------------------------------------------------------------*/
  34:C:/Users/²Ü¼ÒºÀ/.iotlink/sdk/IoT_LINK/iot_link/network/lwm2m/wakaama_lwm2m/wakaama-master/core\packet.c **** 
  35:C:/Users/²Ü¼ÒºÀ/.iotlink/sdk/IoT_LINK/iot_link/network/lwm2m/wakaama_lwm2m/wakaama-master/core\packet.c **** /*******************************************************************************
  36:C:/Users/²Ü¼ÒºÀ/.iotlink/sdk/IoT_LINK/iot_link/network/lwm2m/wakaama_lwm2m/wakaama-master/core\packet.c ****  *
  37:C:/Users/²Ü¼ÒºÀ/.iotlink/sdk/IoT_LINK/iot_link/network/lwm2m/wakaama_lwm2m/wakaama-master/core\packet.c ****  * Copyright (c) 2013, 2014 Intel Corporation and others.
  38:C:/Users/²Ü¼ÒºÀ/.iotlink/sdk/IoT_LINK/iot_link/network/lwm2m/wakaama_lwm2m/wakaama-master/core\packet.c ****  * All rights reserved. This program and the accompanying materials
  39:C:/Users/²Ü¼ÒºÀ/.iotlink/sdk/IoT_LINK/iot_link/network/lwm2m/wakaama_lwm2m/wakaama-master/core\packet.c ****  * are made available under the terms of the Eclipse Public License v1.0
  40:C:/Users/²Ü¼ÒºÀ/.iotlink/sdk/IoT_LINK/iot_link/network/lwm2m/wakaama_lwm2m/wakaama-master/core\packet.c ****  * and Eclipse Distribution License v1.0 which accompany this distribution.
  41:C:/Users/²Ü¼ÒºÀ/.iotlink/sdk/IoT_LINK/iot_link/network/lwm2m/wakaama_lwm2m/wakaama-master/core\packet.c ****  *
  42:C:/Users/²Ü¼ÒºÀ/.iotlink/sdk/IoT_LINK/iot_link/network/lwm2m/wakaama_lwm2m/wakaama-master/core\packet.c ****  * The Eclipse Public License is available at
  43:C:/Users/²Ü¼ÒºÀ/.iotlink/sdk/IoT_LINK/iot_link/network/lwm2m/wakaama_lwm2m/wakaama-master/core\packet.c ****  *    http://www.eclipse.org/legal/epl-v10.html
  44:C:/Users/²Ü¼ÒºÀ/.iotlink/sdk/IoT_LINK/iot_link/network/lwm2m/wakaama_lwm2m/wakaama-master/core\packet.c ****  * The Eclipse Distribution License is available at
  45:C:/Users/²Ü¼ÒºÀ/.iotlink/sdk/IoT_LINK/iot_link/network/lwm2m/wakaama_lwm2m/wakaama-master/core\packet.c ****  *    http://www.eclipse.org/org/documents/edl-v10.php.
  46:C:/Users/²Ü¼ÒºÀ/.iotlink/sdk/IoT_LINK/iot_link/network/lwm2m/wakaama_lwm2m/wakaama-master/core\packet.c ****  *
  47:C:/Users/²Ü¼ÒºÀ/.iotlink/sdk/IoT_LINK/iot_link/network/lwm2m/wakaama_lwm2m/wakaama-master/core\packet.c ****  * Contributors:
  48:C:/Users/²Ü¼ÒºÀ/.iotlink/sdk/IoT_LINK/iot_link/network/lwm2m/wakaama_lwm2m/wakaama-master/core\packet.c ****  *    David Navarro, Intel Corporation - initial API and implementation
  49:C:/Users/²Ü¼ÒºÀ/.iotlink/sdk/IoT_LINK/iot_link/network/lwm2m/wakaama_lwm2m/wakaama-master/core\packet.c ****  *    domedambrosio - Please refer to git log
  50:C:/Users/²Ü¼ÒºÀ/.iotlink/sdk/IoT_LINK/iot_link/network/lwm2m/wakaama_lwm2m/wakaama-master/core\packet.c ****  *    Fabien Fleutot - Please refer to git log
  51:C:/Users/²Ü¼ÒºÀ/.iotlink/sdk/IoT_LINK/iot_link/network/lwm2m/wakaama_lwm2m/wakaama-master/core\packet.c ****  *    Fabien Fleutot - Please refer to git log
  52:C:/Users/²Ü¼ÒºÀ/.iotlink/sdk/IoT_LINK/iot_link/network/lwm2m/wakaama_lwm2m/wakaama-master/core\packet.c ****  *    Simon Bernard - Please refer to git log
  53:C:/Users/²Ü¼ÒºÀ/.iotlink/sdk/IoT_LINK/iot_link/network/lwm2m/wakaama_lwm2m/wakaama-master/core\packet.c ****  *    Toby Jaffey - Please refer to git log
  54:C:/Users/²Ü¼ÒºÀ/.iotlink/sdk/IoT_LINK/iot_link/network/lwm2m/wakaama_lwm2m/wakaama-master/core\packet.c ****  *    Pascal Rieux - Please refer to git log
  55:C:/Users/²Ü¼ÒºÀ/.iotlink/sdk/IoT_LINK/iot_link/network/lwm2m/wakaama_lwm2m/wakaama-master/core\packet.c ****  *    Bosch Software Innovations GmbH - Please refer to git log
  56:C:/Users/²Ü¼ÒºÀ/.iotlink/sdk/IoT_LINK/iot_link/network/lwm2m/wakaama_lwm2m/wakaama-master/core\packet.c ****  *
  57:C:/Users/²Ü¼ÒºÀ/.iotlink/sdk/IoT_LINK/iot_link/network/lwm2m/wakaama_lwm2m/wakaama-master/core\packet.c ****  *******************************************************************************/
  58:C:/Users/²Ü¼ÒºÀ/.iotlink/sdk/IoT_LINK/iot_link/network/lwm2m/wakaama_lwm2m/wakaama-master/core\packet.c **** 
  59:C:/Users/²Ü¼ÒºÀ/.iotlink/sdk/IoT_LINK/iot_link/network/lwm2m/wakaama_lwm2m/wakaama-master/core\packet.c **** /*
  60:C:/Users/²Ü¼ÒºÀ/.iotlink/sdk/IoT_LINK/iot_link/network/lwm2m/wakaama_lwm2m/wakaama-master/core\packet.c ****  Copyright (c) 2013, 2014 Intel Corporation
  61:C:/Users/²Ü¼ÒºÀ/.iotlink/sdk/IoT_LINK/iot_link/network/lwm2m/wakaama_lwm2m/wakaama-master/core\packet.c **** 
  62:C:/Users/²Ü¼ÒºÀ/.iotlink/sdk/IoT_LINK/iot_link/network/lwm2m/wakaama_lwm2m/wakaama-master/core\packet.c ****  Redistribution and use in source and binary forms, with or without modification,
ARM GAS  C:\Users\²Ü¼ÒºÀ\AppData\Local\Temp\ccepIYuV.s 			page 3


  63:C:/Users/²Ü¼ÒºÀ/.iotlink/sdk/IoT_LINK/iot_link/network/lwm2m/wakaama_lwm2m/wakaama-master/core\packet.c ****  are permitted provided that the following conditions are met:
  64:C:/Users/²Ü¼ÒºÀ/.iotlink/sdk/IoT_LINK/iot_link/network/lwm2m/wakaama_lwm2m/wakaama-master/core\packet.c **** 
  65:C:/Users/²Ü¼ÒºÀ/.iotlink/sdk/IoT_LINK/iot_link/network/lwm2m/wakaama_lwm2m/wakaama-master/core\packet.c ****      * Redistributions of source code must retain the above copyright notice,
  66:C:/Users/²Ü¼ÒºÀ/.iotlink/sdk/IoT_LINK/iot_link/network/lwm2m/wakaama_lwm2m/wakaama-master/core\packet.c ****        this list of conditions and the following disclaimer.
  67:C:/Users/²Ü¼ÒºÀ/.iotlink/sdk/IoT_LINK/iot_link/network/lwm2m/wakaama_lwm2m/wakaama-master/core\packet.c ****      * Redistributions in binary form must reproduce the above copyright notice,
  68:C:/Users/²Ü¼ÒºÀ/.iotlink/sdk/IoT_LINK/iot_link/network/lwm2m/wakaama_lwm2m/wakaama-master/core\packet.c ****        this list of conditions and the following disclaimer in the documentation
  69:C:/Users/²Ü¼ÒºÀ/.iotlink/sdk/IoT_LINK/iot_link/network/lwm2m/wakaama_lwm2m/wakaama-master/core\packet.c ****        and/or other materials provided with the distribution.
  70:C:/Users/²Ü¼ÒºÀ/.iotlink/sdk/IoT_LINK/iot_link/network/lwm2m/wakaama_lwm2m/wakaama-master/core\packet.c ****      * Neither the name of Intel Corporation nor the names of its contributors
  71:C:/Users/²Ü¼ÒºÀ/.iotlink/sdk/IoT_LINK/iot_link/network/lwm2m/wakaama_lwm2m/wakaama-master/core\packet.c ****        may be used to endorse or promote products derived from this software
  72:C:/Users/²Ü¼ÒºÀ/.iotlink/sdk/IoT_LINK/iot_link/network/lwm2m/wakaama_lwm2m/wakaama-master/core\packet.c ****        without specific prior written permission.
  73:C:/Users/²Ü¼ÒºÀ/.iotlink/sdk/IoT_LINK/iot_link/network/lwm2m/wakaama_lwm2m/wakaama-master/core\packet.c **** 
  74:C:/Users/²Ü¼ÒºÀ/.iotlink/sdk/IoT_LINK/iot_link/network/lwm2m/wakaama_lwm2m/wakaama-master/core\packet.c ****  THIS SOFTWARE IS PROVIDED BY THE COPYRIGHT HOLDERS AND CONTRIBUTORS "AS IS" AND
  75:C:/Users/²Ü¼ÒºÀ/.iotlink/sdk/IoT_LINK/iot_link/network/lwm2m/wakaama_lwm2m/wakaama-master/core\packet.c ****  ANY EXPRESS OR IMPLIED WARRANTIES, INCLUDING, BUT NOT LIMITED TO, THE IMPLIED
  76:C:/Users/²Ü¼ÒºÀ/.iotlink/sdk/IoT_LINK/iot_link/network/lwm2m/wakaama_lwm2m/wakaama-master/core\packet.c ****  WARRANTIES OF MERCHANTABILITY AND FITNESS FOR A PARTICULAR PURPOSE ARE DISCLAIMED.
  77:C:/Users/²Ü¼ÒºÀ/.iotlink/sdk/IoT_LINK/iot_link/network/lwm2m/wakaama_lwm2m/wakaama-master/core\packet.c ****  IN NO EVENT SHALL THE COPYRIGHT OWNER OR CONTRIBUTORS BE LIABLE FOR ANY DIRECT,
  78:C:/Users/²Ü¼ÒºÀ/.iotlink/sdk/IoT_LINK/iot_link/network/lwm2m/wakaama_lwm2m/wakaama-master/core\packet.c ****  INDIRECT, INCIDENTAL, SPECIAL, EXEMPLARY, OR CONSEQUENTIAL DAMAGES (INCLUDING,
  79:C:/Users/²Ü¼ÒºÀ/.iotlink/sdk/IoT_LINK/iot_link/network/lwm2m/wakaama_lwm2m/wakaama-master/core\packet.c ****  BUT NOT LIMITED TO, PROCUREMENT OF SUBSTITUTE GOODS OR SERVICES; LOSS OF USE,
  80:C:/Users/²Ü¼ÒºÀ/.iotlink/sdk/IoT_LINK/iot_link/network/lwm2m/wakaama_lwm2m/wakaama-master/core\packet.c ****  DATA, OR PROFITS; OR BUSINESS INTERRUPTION) HOWEVER CAUSED AND ON ANY THEORY OF
  81:C:/Users/²Ü¼ÒºÀ/.iotlink/sdk/IoT_LINK/iot_link/network/lwm2m/wakaama_lwm2m/wakaama-master/core\packet.c ****  LIABILITY, WHETHER IN CONTRACT, STRICT LIABILITY, OR TORT (INCLUDING NEGLIGENCE OR
  82:C:/Users/²Ü¼ÒºÀ/.iotlink/sdk/IoT_LINK/iot_link/network/lwm2m/wakaama_lwm2m/wakaama-master/core\packet.c ****  OTHERWISE) ARISING IN ANY WAY OUT OF THE USE OF THIS SOFTWARE, EVEN IF ADVISED OF
  83:C:/Users/²Ü¼ÒºÀ/.iotlink/sdk/IoT_LINK/iot_link/network/lwm2m/wakaama_lwm2m/wakaama-master/core\packet.c ****  THE POSSIBILITY OF SUCH DAMAGE.
  84:C:/Users/²Ü¼ÒºÀ/.iotlink/sdk/IoT_LINK/iot_link/network/lwm2m/wakaama_lwm2m/wakaama-master/core\packet.c **** 
  85:C:/Users/²Ü¼ÒºÀ/.iotlink/sdk/IoT_LINK/iot_link/network/lwm2m/wakaama_lwm2m/wakaama-master/core\packet.c ****  David Navarro <david.navarro@intel.com>
  86:C:/Users/²Ü¼ÒºÀ/.iotlink/sdk/IoT_LINK/iot_link/network/lwm2m/wakaama_lwm2m/wakaama-master/core\packet.c **** 
  87:C:/Users/²Ü¼ÒºÀ/.iotlink/sdk/IoT_LINK/iot_link/network/lwm2m/wakaama_lwm2m/wakaama-master/core\packet.c **** */
  88:C:/Users/²Ü¼ÒºÀ/.iotlink/sdk/IoT_LINK/iot_link/network/lwm2m/wakaama_lwm2m/wakaama-master/core\packet.c **** 
  89:C:/Users/²Ü¼ÒºÀ/.iotlink/sdk/IoT_LINK/iot_link/network/lwm2m/wakaama_lwm2m/wakaama-master/core\packet.c **** /*
  90:C:/Users/²Ü¼ÒºÀ/.iotlink/sdk/IoT_LINK/iot_link/network/lwm2m/wakaama_lwm2m/wakaama-master/core\packet.c **** Contains code snippets which are:
  91:C:/Users/²Ü¼ÒºÀ/.iotlink/sdk/IoT_LINK/iot_link/network/lwm2m/wakaama_lwm2m/wakaama-master/core\packet.c **** 
  92:C:/Users/²Ü¼ÒºÀ/.iotlink/sdk/IoT_LINK/iot_link/network/lwm2m/wakaama_lwm2m/wakaama-master/core\packet.c ****  * Copyright (c) 2013, Institute for Pervasive Computing, ETH Zurich
  93:C:/Users/²Ü¼ÒºÀ/.iotlink/sdk/IoT_LINK/iot_link/network/lwm2m/wakaama_lwm2m/wakaama-master/core\packet.c ****  * All rights reserved.
  94:C:/Users/²Ü¼ÒºÀ/.iotlink/sdk/IoT_LINK/iot_link/network/lwm2m/wakaama_lwm2m/wakaama-master/core\packet.c ****  *
  95:C:/Users/²Ü¼ÒºÀ/.iotlink/sdk/IoT_LINK/iot_link/network/lwm2m/wakaama_lwm2m/wakaama-master/core\packet.c ****  * Redistribution and use in source and binary forms, with or without
  96:C:/Users/²Ü¼ÒºÀ/.iotlink/sdk/IoT_LINK/iot_link/network/lwm2m/wakaama_lwm2m/wakaama-master/core\packet.c ****  * modification, are permitted provided that the following conditions
  97:C:/Users/²Ü¼ÒºÀ/.iotlink/sdk/IoT_LINK/iot_link/network/lwm2m/wakaama_lwm2m/wakaama-master/core\packet.c ****  * are met:
  98:C:/Users/²Ü¼ÒºÀ/.iotlink/sdk/IoT_LINK/iot_link/network/lwm2m/wakaama_lwm2m/wakaama-master/core\packet.c ****  * 1. Redistributions of source code must retain the above copyright
  99:C:/Users/²Ü¼ÒºÀ/.iotlink/sdk/IoT_LINK/iot_link/network/lwm2m/wakaama_lwm2m/wakaama-master/core\packet.c ****  *    notice, this list of conditions and the following disclaimer.
 100:C:/Users/²Ü¼ÒºÀ/.iotlink/sdk/IoT_LINK/iot_link/network/lwm2m/wakaama_lwm2m/wakaama-master/core\packet.c ****  * 2. Redistributions in binary form must reproduce the above copyright
 101:C:/Users/²Ü¼ÒºÀ/.iotlink/sdk/IoT_LINK/iot_link/network/lwm2m/wakaama_lwm2m/wakaama-master/core\packet.c ****  *    notice, this list of conditions and the following disclaimer in the
 102:C:/Users/²Ü¼ÒºÀ/.iotlink/sdk/IoT_LINK/iot_link/network/lwm2m/wakaama_lwm2m/wakaama-master/core\packet.c ****  *    documentation and/or other materials provided with the distribution.
 103:C:/Users/²Ü¼ÒºÀ/.iotlink/sdk/IoT_LINK/iot_link/network/lwm2m/wakaama_lwm2m/wakaama-master/core\packet.c ****  * 3. Neither the name of the Institute nor the names of its contributors
 104:C:/Users/²Ü¼ÒºÀ/.iotlink/sdk/IoT_LINK/iot_link/network/lwm2m/wakaama_lwm2m/wakaama-master/core\packet.c ****  *    may be used to endorse or promote products derived from this software
 105:C:/Users/²Ü¼ÒºÀ/.iotlink/sdk/IoT_LINK/iot_link/network/lwm2m/wakaama_lwm2m/wakaama-master/core\packet.c ****  *    without specific prior written permission.
 106:C:/Users/²Ü¼ÒºÀ/.iotlink/sdk/IoT_LINK/iot_link/network/lwm2m/wakaama_lwm2m/wakaama-master/core\packet.c ****  *
 107:C:/Users/²Ü¼ÒºÀ/.iotlink/sdk/IoT_LINK/iot_link/network/lwm2m/wakaama_lwm2m/wakaama-master/core\packet.c ****  * THIS SOFTWARE IS PROVIDED BY THE INSTITUTE AND CONTRIBUTORS ``AS IS'' AND
 108:C:/Users/²Ü¼ÒºÀ/.iotlink/sdk/IoT_LINK/iot_link/network/lwm2m/wakaama_lwm2m/wakaama-master/core\packet.c ****  * ANY EXPRESS OR IMPLIED WARRANTIES, INCLUDING, BUT NOT LIMITED TO, THE
 109:C:/Users/²Ü¼ÒºÀ/.iotlink/sdk/IoT_LINK/iot_link/network/lwm2m/wakaama_lwm2m/wakaama-master/core\packet.c ****  * IMPLIED WARRANTIES OF MERCHANTABILITY AND FITNESS FOR A PARTICULAR PURPOSE
 110:C:/Users/²Ü¼ÒºÀ/.iotlink/sdk/IoT_LINK/iot_link/network/lwm2m/wakaama_lwm2m/wakaama-master/core\packet.c ****  * ARE DISCLAIMED.  IN NO EVENT SHALL THE INSTITUTE OR CONTRIBUTORS BE LIABLE
 111:C:/Users/²Ü¼ÒºÀ/.iotlink/sdk/IoT_LINK/iot_link/network/lwm2m/wakaama_lwm2m/wakaama-master/core\packet.c ****  * FOR ANY DIRECT, INDIRECT, INCIDENTAL, SPECIAL, EXEMPLARY, OR CONSEQUENTIAL
 112:C:/Users/²Ü¼ÒºÀ/.iotlink/sdk/IoT_LINK/iot_link/network/lwm2m/wakaama_lwm2m/wakaama-master/core\packet.c ****  * DAMAGES (INCLUDING, BUT NOT LIMITED TO, PROCUREMENT OF SUBSTITUTE GOODS
 113:C:/Users/²Ü¼ÒºÀ/.iotlink/sdk/IoT_LINK/iot_link/network/lwm2m/wakaama_lwm2m/wakaama-master/core\packet.c ****  * OR SERVICES; LOSS OF USE, DATA, OR PROFITS; OR BUSINESS INTERRUPTION)
 114:C:/Users/²Ü¼ÒºÀ/.iotlink/sdk/IoT_LINK/iot_link/network/lwm2m/wakaama_lwm2m/wakaama-master/core\packet.c ****  * HOWEVER CAUSED AND ON ANY THEORY OF LIABILITY, WHETHER IN CONTRACT, STRICT
 115:C:/Users/²Ü¼ÒºÀ/.iotlink/sdk/IoT_LINK/iot_link/network/lwm2m/wakaama_lwm2m/wakaama-master/core\packet.c ****  * LIABILITY, OR TORT (INCLUDING NEGLIGENCE OR OTHERWISE) ARISING IN ANY WAY
 116:C:/Users/²Ü¼ÒºÀ/.iotlink/sdk/IoT_LINK/iot_link/network/lwm2m/wakaama_lwm2m/wakaama-master/core\packet.c ****  * OUT OF THE USE OF THIS SOFTWARE, EVEN IF ADVISED OF THE POSSIBILITY OF
 117:C:/Users/²Ü¼ÒºÀ/.iotlink/sdk/IoT_LINK/iot_link/network/lwm2m/wakaama_lwm2m/wakaama-master/core\packet.c ****  * SUCH DAMAGE.
 118:C:/Users/²Ü¼ÒºÀ/.iotlink/sdk/IoT_LINK/iot_link/network/lwm2m/wakaama_lwm2m/wakaama-master/core\packet.c **** 
 119:C:/Users/²Ü¼ÒºÀ/.iotlink/sdk/IoT_LINK/iot_link/network/lwm2m/wakaama_lwm2m/wakaama-master/core\packet.c **** */
ARM GAS  C:\Users\²Ü¼ÒºÀ\AppData\Local\Temp\ccepIYuV.s 			page 4


 120:C:/Users/²Ü¼ÒºÀ/.iotlink/sdk/IoT_LINK/iot_link/network/lwm2m/wakaama_lwm2m/wakaama-master/core\packet.c **** 
 121:C:/Users/²Ü¼ÒºÀ/.iotlink/sdk/IoT_LINK/iot_link/network/lwm2m/wakaama_lwm2m/wakaama-master/core\packet.c **** 
 122:C:/Users/²Ü¼ÒºÀ/.iotlink/sdk/IoT_LINK/iot_link/network/lwm2m/wakaama_lwm2m/wakaama-master/core\packet.c **** #include "internals.h"
 123:C:/Users/²Ü¼ÒºÀ/.iotlink/sdk/IoT_LINK/iot_link/network/lwm2m/wakaama_lwm2m/wakaama-master/core\packet.c **** 
 124:C:/Users/²Ü¼ÒºÀ/.iotlink/sdk/IoT_LINK/iot_link/network/lwm2m/wakaama_lwm2m/wakaama-master/core\packet.c **** #include <stdlib.h>
 125:C:/Users/²Ü¼ÒºÀ/.iotlink/sdk/IoT_LINK/iot_link/network/lwm2m/wakaama_lwm2m/wakaama-master/core\packet.c **** #include <string.h>
 126:C:/Users/²Ü¼ÒºÀ/.iotlink/sdk/IoT_LINK/iot_link/network/lwm2m/wakaama_lwm2m/wakaama-master/core\packet.c **** 
 127:C:/Users/²Ü¼ÒºÀ/.iotlink/sdk/IoT_LINK/iot_link/network/lwm2m/wakaama_lwm2m/wakaama-master/core\packet.c **** #include <stdio.h>
 128:C:/Users/²Ü¼ÒºÀ/.iotlink/sdk/IoT_LINK/iot_link/network/lwm2m/wakaama_lwm2m/wakaama-master/core\packet.c **** #include "commandline.h"
 129:C:/Users/²Ü¼ÒºÀ/.iotlink/sdk/IoT_LINK/iot_link/network/lwm2m/wakaama_lwm2m/wakaama-master/core\packet.c **** 
 130:C:/Users/²Ü¼ÒºÀ/.iotlink/sdk/IoT_LINK/iot_link/network/lwm2m/wakaama_lwm2m/wakaama-master/core\packet.c **** static void handle_reset(lwm2m_context_t *contextP,
 131:C:/Users/²Ü¼ÒºÀ/.iotlink/sdk/IoT_LINK/iot_link/network/lwm2m/wakaama_lwm2m/wakaama-master/core\packet.c ****                          void *fromSessionH,
 132:C:/Users/²Ü¼ÒºÀ/.iotlink/sdk/IoT_LINK/iot_link/network/lwm2m/wakaama_lwm2m/wakaama-master/core\packet.c ****                          coap_packet_t *message)
 133:C:/Users/²Ü¼ÒºÀ/.iotlink/sdk/IoT_LINK/iot_link/network/lwm2m/wakaama_lwm2m/wakaama-master/core\packet.c **** {
 134:C:/Users/²Ü¼ÒºÀ/.iotlink/sdk/IoT_LINK/iot_link/network/lwm2m/wakaama_lwm2m/wakaama-master/core\packet.c **** #ifdef LWM2M_CLIENT_MODE
 135:C:/Users/²Ü¼ÒºÀ/.iotlink/sdk/IoT_LINK/iot_link/network/lwm2m/wakaama_lwm2m/wakaama-master/core\packet.c ****     LOG("Entering");
 136:C:/Users/²Ü¼ÒºÀ/.iotlink/sdk/IoT_LINK/iot_link/network/lwm2m/wakaama_lwm2m/wakaama-master/core\packet.c ****     observe_cancel(contextP, message->mid, fromSessionH);
 137:C:/Users/²Ü¼ÒºÀ/.iotlink/sdk/IoT_LINK/iot_link/network/lwm2m/wakaama_lwm2m/wakaama-master/core\packet.c **** #endif
 138:C:/Users/²Ü¼ÒºÀ/.iotlink/sdk/IoT_LINK/iot_link/network/lwm2m/wakaama_lwm2m/wakaama-master/core\packet.c **** }
 139:C:/Users/²Ü¼ÒºÀ/.iotlink/sdk/IoT_LINK/iot_link/network/lwm2m/wakaama_lwm2m/wakaama-master/core\packet.c **** 
 140:C:/Users/²Ü¼ÒºÀ/.iotlink/sdk/IoT_LINK/iot_link/network/lwm2m/wakaama_lwm2m/wakaama-master/core\packet.c **** static uint8_t handle_request(lwm2m_context_t *contextP,
 141:C:/Users/²Ü¼ÒºÀ/.iotlink/sdk/IoT_LINK/iot_link/network/lwm2m/wakaama_lwm2m/wakaama-master/core\packet.c ****                               void *fromSessionH,
 142:C:/Users/²Ü¼ÒºÀ/.iotlink/sdk/IoT_LINK/iot_link/network/lwm2m/wakaama_lwm2m/wakaama-master/core\packet.c ****                               coap_packet_t *message,
 143:C:/Users/²Ü¼ÒºÀ/.iotlink/sdk/IoT_LINK/iot_link/network/lwm2m/wakaama_lwm2m/wakaama-master/core\packet.c ****                               coap_packet_t *response)
 144:C:/Users/²Ü¼ÒºÀ/.iotlink/sdk/IoT_LINK/iot_link/network/lwm2m/wakaama_lwm2m/wakaama-master/core\packet.c **** {
 145:C:/Users/²Ü¼ÒºÀ/.iotlink/sdk/IoT_LINK/iot_link/network/lwm2m/wakaama_lwm2m/wakaama-master/core\packet.c ****     lwm2m_uri_t *uriP;
 146:C:/Users/²Ü¼ÒºÀ/.iotlink/sdk/IoT_LINK/iot_link/network/lwm2m/wakaama_lwm2m/wakaama-master/core\packet.c ****     uint8_t result = COAP_IGNORE;
 147:C:/Users/²Ü¼ÒºÀ/.iotlink/sdk/IoT_LINK/iot_link/network/lwm2m/wakaama_lwm2m/wakaama-master/core\packet.c **** 
 148:C:/Users/²Ü¼ÒºÀ/.iotlink/sdk/IoT_LINK/iot_link/network/lwm2m/wakaama_lwm2m/wakaama-master/core\packet.c ****     LOG("Entering");
 149:C:/Users/²Ü¼ÒºÀ/.iotlink/sdk/IoT_LINK/iot_link/network/lwm2m/wakaama_lwm2m/wakaama-master/core\packet.c **** 
 150:C:/Users/²Ü¼ÒºÀ/.iotlink/sdk/IoT_LINK/iot_link/network/lwm2m/wakaama_lwm2m/wakaama-master/core\packet.c **** #ifdef LWM2M_CLIENT_MODE
 151:C:/Users/²Ü¼ÒºÀ/.iotlink/sdk/IoT_LINK/iot_link/network/lwm2m/wakaama_lwm2m/wakaama-master/core\packet.c ****     uriP = uri_decode(contextP->altPath, message->uri_path);
 152:C:/Users/²Ü¼ÒºÀ/.iotlink/sdk/IoT_LINK/iot_link/network/lwm2m/wakaama_lwm2m/wakaama-master/core\packet.c **** #else
 153:C:/Users/²Ü¼ÒºÀ/.iotlink/sdk/IoT_LINK/iot_link/network/lwm2m/wakaama_lwm2m/wakaama-master/core\packet.c ****     uriP = uri_decode(NULL, message->uri_path);
 154:C:/Users/²Ü¼ÒºÀ/.iotlink/sdk/IoT_LINK/iot_link/network/lwm2m/wakaama_lwm2m/wakaama-master/core\packet.c **** #endif
 155:C:/Users/²Ü¼ÒºÀ/.iotlink/sdk/IoT_LINK/iot_link/network/lwm2m/wakaama_lwm2m/wakaama-master/core\packet.c **** 
 156:C:/Users/²Ü¼ÒºÀ/.iotlink/sdk/IoT_LINK/iot_link/network/lwm2m/wakaama_lwm2m/wakaama-master/core\packet.c ****     if (uriP == NULL) return COAP_400_BAD_REQUEST;
 157:C:/Users/²Ü¼ÒºÀ/.iotlink/sdk/IoT_LINK/iot_link/network/lwm2m/wakaama_lwm2m/wakaama-master/core\packet.c **** 
 158:C:/Users/²Ü¼ÒºÀ/.iotlink/sdk/IoT_LINK/iot_link/network/lwm2m/wakaama_lwm2m/wakaama-master/core\packet.c ****     switch(uriP->flag & LWM2M_URI_MASK_TYPE)
 159:C:/Users/²Ü¼ÒºÀ/.iotlink/sdk/IoT_LINK/iot_link/network/lwm2m/wakaama_lwm2m/wakaama-master/core\packet.c ****     {
 160:C:/Users/²Ü¼ÒºÀ/.iotlink/sdk/IoT_LINK/iot_link/network/lwm2m/wakaama_lwm2m/wakaama-master/core\packet.c **** #ifdef LWM2M_CLIENT_MODE
 161:C:/Users/²Ü¼ÒºÀ/.iotlink/sdk/IoT_LINK/iot_link/network/lwm2m/wakaama_lwm2m/wakaama-master/core\packet.c ****     case LWM2M_URI_FLAG_DM:
 162:C:/Users/²Ü¼ÒºÀ/.iotlink/sdk/IoT_LINK/iot_link/network/lwm2m/wakaama_lwm2m/wakaama-master/core\packet.c ****     {
 163:C:/Users/²Ü¼ÒºÀ/.iotlink/sdk/IoT_LINK/iot_link/network/lwm2m/wakaama_lwm2m/wakaama-master/core\packet.c ****         lwm2m_server_t *serverP;
 164:C:/Users/²Ü¼ÒºÀ/.iotlink/sdk/IoT_LINK/iot_link/network/lwm2m/wakaama_lwm2m/wakaama-master/core\packet.c **** 
 165:C:/Users/²Ü¼ÒºÀ/.iotlink/sdk/IoT_LINK/iot_link/network/lwm2m/wakaama_lwm2m/wakaama-master/core\packet.c ****         serverP = utils_findServer(contextP, fromSessionH);
 166:C:/Users/²Ü¼ÒºÀ/.iotlink/sdk/IoT_LINK/iot_link/network/lwm2m/wakaama_lwm2m/wakaama-master/core\packet.c ****         if (serverP != NULL)
 167:C:/Users/²Ü¼ÒºÀ/.iotlink/sdk/IoT_LINK/iot_link/network/lwm2m/wakaama_lwm2m/wakaama-master/core\packet.c ****         {
 168:C:/Users/²Ü¼ÒºÀ/.iotlink/sdk/IoT_LINK/iot_link/network/lwm2m/wakaama_lwm2m/wakaama-master/core\packet.c ****             result = dm_handleRequest(contextP, uriP, serverP, message, response);
 169:C:/Users/²Ü¼ÒºÀ/.iotlink/sdk/IoT_LINK/iot_link/network/lwm2m/wakaama_lwm2m/wakaama-master/core\packet.c ****         }
 170:C:/Users/²Ü¼ÒºÀ/.iotlink/sdk/IoT_LINK/iot_link/network/lwm2m/wakaama_lwm2m/wakaama-master/core\packet.c **** #ifdef LWM2M_BOOTSTRAP
 171:C:/Users/²Ü¼ÒºÀ/.iotlink/sdk/IoT_LINK/iot_link/network/lwm2m/wakaama_lwm2m/wakaama-master/core\packet.c ****         else
 172:C:/Users/²Ü¼ÒºÀ/.iotlink/sdk/IoT_LINK/iot_link/network/lwm2m/wakaama_lwm2m/wakaama-master/core\packet.c ****         {
 173:C:/Users/²Ü¼ÒºÀ/.iotlink/sdk/IoT_LINK/iot_link/network/lwm2m/wakaama_lwm2m/wakaama-master/core\packet.c ****             serverP = utils_findBootstrapServer(contextP, fromSessionH);
 174:C:/Users/²Ü¼ÒºÀ/.iotlink/sdk/IoT_LINK/iot_link/network/lwm2m/wakaama_lwm2m/wakaama-master/core\packet.c ****             if (serverP != NULL)
 175:C:/Users/²Ü¼ÒºÀ/.iotlink/sdk/IoT_LINK/iot_link/network/lwm2m/wakaama_lwm2m/wakaama-master/core\packet.c ****             {
 176:C:/Users/²Ü¼ÒºÀ/.iotlink/sdk/IoT_LINK/iot_link/network/lwm2m/wakaama_lwm2m/wakaama-master/core\packet.c ****                 result = bootstrap_handleCommand(contextP, uriP, serverP, message, response);
ARM GAS  C:\Users\²Ü¼ÒºÀ\AppData\Local\Temp\ccepIYuV.s 			page 5


 177:C:/Users/²Ü¼ÒºÀ/.iotlink/sdk/IoT_LINK/iot_link/network/lwm2m/wakaama_lwm2m/wakaama-master/core\packet.c ****             }
 178:C:/Users/²Ü¼ÒºÀ/.iotlink/sdk/IoT_LINK/iot_link/network/lwm2m/wakaama_lwm2m/wakaama-master/core\packet.c ****         }
 179:C:/Users/²Ü¼ÒºÀ/.iotlink/sdk/IoT_LINK/iot_link/network/lwm2m/wakaama_lwm2m/wakaama-master/core\packet.c **** #endif
 180:C:/Users/²Ü¼ÒºÀ/.iotlink/sdk/IoT_LINK/iot_link/network/lwm2m/wakaama_lwm2m/wakaama-master/core\packet.c ****     }
 181:C:/Users/²Ü¼ÒºÀ/.iotlink/sdk/IoT_LINK/iot_link/network/lwm2m/wakaama_lwm2m/wakaama-master/core\packet.c ****     break;
 182:C:/Users/²Ü¼ÒºÀ/.iotlink/sdk/IoT_LINK/iot_link/network/lwm2m/wakaama_lwm2m/wakaama-master/core\packet.c **** 
 183:C:/Users/²Ü¼ÒºÀ/.iotlink/sdk/IoT_LINK/iot_link/network/lwm2m/wakaama_lwm2m/wakaama-master/core\packet.c **** #ifdef LWM2M_BOOTSTRAP
 184:C:/Users/²Ü¼ÒºÀ/.iotlink/sdk/IoT_LINK/iot_link/network/lwm2m/wakaama_lwm2m/wakaama-master/core\packet.c ****     case LWM2M_URI_FLAG_DELETE_ALL:
 185:C:/Users/²Ü¼ÒºÀ/.iotlink/sdk/IoT_LINK/iot_link/network/lwm2m/wakaama_lwm2m/wakaama-master/core\packet.c ****         if (COAP_DELETE != message->code)
 186:C:/Users/²Ü¼ÒºÀ/.iotlink/sdk/IoT_LINK/iot_link/network/lwm2m/wakaama_lwm2m/wakaama-master/core\packet.c ****         {
 187:C:/Users/²Ü¼ÒºÀ/.iotlink/sdk/IoT_LINK/iot_link/network/lwm2m/wakaama_lwm2m/wakaama-master/core\packet.c ****             result = COAP_400_BAD_REQUEST;
 188:C:/Users/²Ü¼ÒºÀ/.iotlink/sdk/IoT_LINK/iot_link/network/lwm2m/wakaama_lwm2m/wakaama-master/core\packet.c ****         }
 189:C:/Users/²Ü¼ÒºÀ/.iotlink/sdk/IoT_LINK/iot_link/network/lwm2m/wakaama_lwm2m/wakaama-master/core\packet.c ****         else
 190:C:/Users/²Ü¼ÒºÀ/.iotlink/sdk/IoT_LINK/iot_link/network/lwm2m/wakaama_lwm2m/wakaama-master/core\packet.c ****         {
 191:C:/Users/²Ü¼ÒºÀ/.iotlink/sdk/IoT_LINK/iot_link/network/lwm2m/wakaama_lwm2m/wakaama-master/core\packet.c ****             result = bootstrap_handleDeleteAll(contextP, fromSessionH);
 192:C:/Users/²Ü¼ÒºÀ/.iotlink/sdk/IoT_LINK/iot_link/network/lwm2m/wakaama_lwm2m/wakaama-master/core\packet.c ****         }
 193:C:/Users/²Ü¼ÒºÀ/.iotlink/sdk/IoT_LINK/iot_link/network/lwm2m/wakaama_lwm2m/wakaama-master/core\packet.c ****         break;
 194:C:/Users/²Ü¼ÒºÀ/.iotlink/sdk/IoT_LINK/iot_link/network/lwm2m/wakaama_lwm2m/wakaama-master/core\packet.c **** 
 195:C:/Users/²Ü¼ÒºÀ/.iotlink/sdk/IoT_LINK/iot_link/network/lwm2m/wakaama_lwm2m/wakaama-master/core\packet.c ****     case LWM2M_URI_FLAG_BOOTSTRAP:
 196:C:/Users/²Ü¼ÒºÀ/.iotlink/sdk/IoT_LINK/iot_link/network/lwm2m/wakaama_lwm2m/wakaama-master/core\packet.c ****         if (message->code == COAP_POST)
 197:C:/Users/²Ü¼ÒºÀ/.iotlink/sdk/IoT_LINK/iot_link/network/lwm2m/wakaama_lwm2m/wakaama-master/core\packet.c ****         {
 198:C:/Users/²Ü¼ÒºÀ/.iotlink/sdk/IoT_LINK/iot_link/network/lwm2m/wakaama_lwm2m/wakaama-master/core\packet.c ****             result = bootstrap_handleFinish(contextP, fromSessionH);
 199:C:/Users/²Ü¼ÒºÀ/.iotlink/sdk/IoT_LINK/iot_link/network/lwm2m/wakaama_lwm2m/wakaama-master/core\packet.c ****         }
 200:C:/Users/²Ü¼ÒºÀ/.iotlink/sdk/IoT_LINK/iot_link/network/lwm2m/wakaama_lwm2m/wakaama-master/core\packet.c ****         break;
 201:C:/Users/²Ü¼ÒºÀ/.iotlink/sdk/IoT_LINK/iot_link/network/lwm2m/wakaama_lwm2m/wakaama-master/core\packet.c **** #endif
 202:C:/Users/²Ü¼ÒºÀ/.iotlink/sdk/IoT_LINK/iot_link/network/lwm2m/wakaama_lwm2m/wakaama-master/core\packet.c **** #endif
 203:C:/Users/²Ü¼ÒºÀ/.iotlink/sdk/IoT_LINK/iot_link/network/lwm2m/wakaama_lwm2m/wakaama-master/core\packet.c **** 
 204:C:/Users/²Ü¼ÒºÀ/.iotlink/sdk/IoT_LINK/iot_link/network/lwm2m/wakaama_lwm2m/wakaama-master/core\packet.c **** #ifdef LWM2M_SERVER_MODE
 205:C:/Users/²Ü¼ÒºÀ/.iotlink/sdk/IoT_LINK/iot_link/network/lwm2m/wakaama_lwm2m/wakaama-master/core\packet.c ****     case LWM2M_URI_FLAG_REGISTRATION:
 206:C:/Users/²Ü¼ÒºÀ/.iotlink/sdk/IoT_LINK/iot_link/network/lwm2m/wakaama_lwm2m/wakaama-master/core\packet.c ****         result = registration_handleRequest(contextP, uriP, fromSessionH, message, response);
 207:C:/Users/²Ü¼ÒºÀ/.iotlink/sdk/IoT_LINK/iot_link/network/lwm2m/wakaama_lwm2m/wakaama-master/core\packet.c ****         break;
 208:C:/Users/²Ü¼ÒºÀ/.iotlink/sdk/IoT_LINK/iot_link/network/lwm2m/wakaama_lwm2m/wakaama-master/core\packet.c **** #endif
 209:C:/Users/²Ü¼ÒºÀ/.iotlink/sdk/IoT_LINK/iot_link/network/lwm2m/wakaama_lwm2m/wakaama-master/core\packet.c **** #ifdef LWM2M_BOOTSTRAP_SERVER_MODE
 210:C:/Users/²Ü¼ÒºÀ/.iotlink/sdk/IoT_LINK/iot_link/network/lwm2m/wakaama_lwm2m/wakaama-master/core\packet.c ****     case LWM2M_URI_FLAG_BOOTSTRAP:
 211:C:/Users/²Ü¼ÒºÀ/.iotlink/sdk/IoT_LINK/iot_link/network/lwm2m/wakaama_lwm2m/wakaama-master/core\packet.c ****         result = bootstrap_handleRequest(contextP, uriP, fromSessionH, message, response);
 212:C:/Users/²Ü¼ÒºÀ/.iotlink/sdk/IoT_LINK/iot_link/network/lwm2m/wakaama_lwm2m/wakaama-master/core\packet.c ****         break;
 213:C:/Users/²Ü¼ÒºÀ/.iotlink/sdk/IoT_LINK/iot_link/network/lwm2m/wakaama_lwm2m/wakaama-master/core\packet.c **** #endif
 214:C:/Users/²Ü¼ÒºÀ/.iotlink/sdk/IoT_LINK/iot_link/network/lwm2m/wakaama_lwm2m/wakaama-master/core\packet.c ****     default:
 215:C:/Users/²Ü¼ÒºÀ/.iotlink/sdk/IoT_LINK/iot_link/network/lwm2m/wakaama_lwm2m/wakaama-master/core\packet.c ****         result = COAP_IGNORE;
 216:C:/Users/²Ü¼ÒºÀ/.iotlink/sdk/IoT_LINK/iot_link/network/lwm2m/wakaama_lwm2m/wakaama-master/core\packet.c ****         break;
 217:C:/Users/²Ü¼ÒºÀ/.iotlink/sdk/IoT_LINK/iot_link/network/lwm2m/wakaama_lwm2m/wakaama-master/core\packet.c ****     }
 218:C:/Users/²Ü¼ÒºÀ/.iotlink/sdk/IoT_LINK/iot_link/network/lwm2m/wakaama_lwm2m/wakaama-master/core\packet.c **** 
 219:C:/Users/²Ü¼ÒºÀ/.iotlink/sdk/IoT_LINK/iot_link/network/lwm2m/wakaama_lwm2m/wakaama-master/core\packet.c ****     coap_set_status_code(response, result);
 220:C:/Users/²Ü¼ÒºÀ/.iotlink/sdk/IoT_LINK/iot_link/network/lwm2m/wakaama_lwm2m/wakaama-master/core\packet.c **** 
 221:C:/Users/²Ü¼ÒºÀ/.iotlink/sdk/IoT_LINK/iot_link/network/lwm2m/wakaama_lwm2m/wakaama-master/core\packet.c ****     if (COAP_IGNORE < result && result < COAP_400_BAD_REQUEST)
 222:C:/Users/²Ü¼ÒºÀ/.iotlink/sdk/IoT_LINK/iot_link/network/lwm2m/wakaama_lwm2m/wakaama-master/core\packet.c ****     {
 223:C:/Users/²Ü¼ÒºÀ/.iotlink/sdk/IoT_LINK/iot_link/network/lwm2m/wakaama_lwm2m/wakaama-master/core\packet.c ****         result = NO_ERROR;
 224:C:/Users/²Ü¼ÒºÀ/.iotlink/sdk/IoT_LINK/iot_link/network/lwm2m/wakaama_lwm2m/wakaama-master/core\packet.c ****     }
 225:C:/Users/²Ü¼ÒºÀ/.iotlink/sdk/IoT_LINK/iot_link/network/lwm2m/wakaama_lwm2m/wakaama-master/core\packet.c **** 
 226:C:/Users/²Ü¼ÒºÀ/.iotlink/sdk/IoT_LINK/iot_link/network/lwm2m/wakaama_lwm2m/wakaama-master/core\packet.c ****     lwm2m_free(uriP);
 227:C:/Users/²Ü¼ÒºÀ/.iotlink/sdk/IoT_LINK/iot_link/network/lwm2m/wakaama_lwm2m/wakaama-master/core\packet.c ****     return result;
 228:C:/Users/²Ü¼ÒºÀ/.iotlink/sdk/IoT_LINK/iot_link/network/lwm2m/wakaama_lwm2m/wakaama-master/core\packet.c **** }
 229:C:/Users/²Ü¼ÒºÀ/.iotlink/sdk/IoT_LINK/iot_link/network/lwm2m/wakaama_lwm2m/wakaama-master/core\packet.c **** 
 230:C:/Users/²Ü¼ÒºÀ/.iotlink/sdk/IoT_LINK/iot_link/network/lwm2m/wakaama_lwm2m/wakaama-master/core\packet.c **** /* This function is an adaptation of function coap_receive() from Erbium's er-coap-13-engine.c.
 231:C:/Users/²Ü¼ÒºÀ/.iotlink/sdk/IoT_LINK/iot_link/network/lwm2m/wakaama_lwm2m/wakaama-master/core\packet.c ****  * Erbium is Copyright (c) 2013, Institute for Pervasive Computing, ETH Zurich
 232:C:/Users/²Ü¼ÒºÀ/.iotlink/sdk/IoT_LINK/iot_link/network/lwm2m/wakaama_lwm2m/wakaama-master/core\packet.c ****  * All rights reserved.
 233:C:/Users/²Ü¼ÒºÀ/.iotlink/sdk/IoT_LINK/iot_link/network/lwm2m/wakaama_lwm2m/wakaama-master/core\packet.c ****  */
ARM GAS  C:\Users\²Ü¼ÒºÀ\AppData\Local\Temp\ccepIYuV.s 			page 6


 234:C:/Users/²Ü¼ÒºÀ/.iotlink/sdk/IoT_LINK/iot_link/network/lwm2m/wakaama_lwm2m/wakaama-master/core\packet.c **** void lwm2m_handle_packet(lwm2m_context_t *contextP,
 235:C:/Users/²Ü¼ÒºÀ/.iotlink/sdk/IoT_LINK/iot_link/network/lwm2m/wakaama_lwm2m/wakaama-master/core\packet.c ****                          uint8_t *buffer,
 236:C:/Users/²Ü¼ÒºÀ/.iotlink/sdk/IoT_LINK/iot_link/network/lwm2m/wakaama_lwm2m/wakaama-master/core\packet.c ****                          int length,
 237:C:/Users/²Ü¼ÒºÀ/.iotlink/sdk/IoT_LINK/iot_link/network/lwm2m/wakaama_lwm2m/wakaama-master/core\packet.c ****                          void *fromSessionH)
 238:C:/Users/²Ü¼ÒºÀ/.iotlink/sdk/IoT_LINK/iot_link/network/lwm2m/wakaama_lwm2m/wakaama-master/core\packet.c **** {
 239:C:/Users/²Ü¼ÒºÀ/.iotlink/sdk/IoT_LINK/iot_link/network/lwm2m/wakaama_lwm2m/wakaama-master/core\packet.c ****     uint8_t coap_error_code = NO_ERROR;
 240:C:/Users/²Ü¼ÒºÀ/.iotlink/sdk/IoT_LINK/iot_link/network/lwm2m/wakaama_lwm2m/wakaama-master/core\packet.c ****     static coap_packet_t message[1];
 241:C:/Users/²Ü¼ÒºÀ/.iotlink/sdk/IoT_LINK/iot_link/network/lwm2m/wakaama_lwm2m/wakaama-master/core\packet.c ****     static coap_packet_t response[1];
 242:C:/Users/²Ü¼ÒºÀ/.iotlink/sdk/IoT_LINK/iot_link/network/lwm2m/wakaama_lwm2m/wakaama-master/core\packet.c **** 
 243:C:/Users/²Ü¼ÒºÀ/.iotlink/sdk/IoT_LINK/iot_link/network/lwm2m/wakaama_lwm2m/wakaama-master/core\packet.c ****     LOG("Entering");
 244:C:/Users/²Ü¼ÒºÀ/.iotlink/sdk/IoT_LINK/iot_link/network/lwm2m/wakaama_lwm2m/wakaama-master/core\packet.c ****     coap_error_code = coap_parse_message(message, buffer, (uint16_t)length);
 245:C:/Users/²Ü¼ÒºÀ/.iotlink/sdk/IoT_LINK/iot_link/network/lwm2m/wakaama_lwm2m/wakaama-master/core\packet.c ****     if (coap_error_code == NO_ERROR)
 246:C:/Users/²Ü¼ÒºÀ/.iotlink/sdk/IoT_LINK/iot_link/network/lwm2m/wakaama_lwm2m/wakaama-master/core\packet.c ****     {
 247:C:/Users/²Ü¼ÒºÀ/.iotlink/sdk/IoT_LINK/iot_link/network/lwm2m/wakaama_lwm2m/wakaama-master/core\packet.c ****         LOG_ARG("Parsed: ver %u, type %u, tkl %u, code %u.%.2u, mid %u, Content type: %d",
 248:C:/Users/²Ü¼ÒºÀ/.iotlink/sdk/IoT_LINK/iot_link/network/lwm2m/wakaama_lwm2m/wakaama-master/core\packet.c ****                 message->version, message->type, message->token_len, message->code >> 5, message->c
 249:C:/Users/²Ü¼ÒºÀ/.iotlink/sdk/IoT_LINK/iot_link/network/lwm2m/wakaama_lwm2m/wakaama-master/core\packet.c ****         //LOG_ARG("Payload: %.*s", message->payload_len, message->payload);   //%s can not used for
 250:C:/Users/²Ü¼ÒºÀ/.iotlink/sdk/IoT_LINK/iot_link/network/lwm2m/wakaama_lwm2m/wakaama-master/core\packet.c ****         if (message->code >= COAP_GET && message->code <= COAP_DELETE)
 251:C:/Users/²Ü¼ÒºÀ/.iotlink/sdk/IoT_LINK/iot_link/network/lwm2m/wakaama_lwm2m/wakaama-master/core\packet.c ****         {
 252:C:/Users/²Ü¼ÒºÀ/.iotlink/sdk/IoT_LINK/iot_link/network/lwm2m/wakaama_lwm2m/wakaama-master/core\packet.c ****             uint32_t block_num = 0;
 253:C:/Users/²Ü¼ÒºÀ/.iotlink/sdk/IoT_LINK/iot_link/network/lwm2m/wakaama_lwm2m/wakaama-master/core\packet.c ****             uint16_t block_size = REST_MAX_CHUNK_SIZE;
 254:C:/Users/²Ü¼ÒºÀ/.iotlink/sdk/IoT_LINK/iot_link/network/lwm2m/wakaama_lwm2m/wakaama-master/core\packet.c ****             uint32_t block_offset = 0;
 255:C:/Users/²Ü¼ÒºÀ/.iotlink/sdk/IoT_LINK/iot_link/network/lwm2m/wakaama_lwm2m/wakaama-master/core\packet.c ****             int64_t new_offset = 0;
 256:C:/Users/²Ü¼ÒºÀ/.iotlink/sdk/IoT_LINK/iot_link/network/lwm2m/wakaama_lwm2m/wakaama-master/core\packet.c **** 
 257:C:/Users/²Ü¼ÒºÀ/.iotlink/sdk/IoT_LINK/iot_link/network/lwm2m/wakaama_lwm2m/wakaama-master/core\packet.c ****             /* prepare response */
 258:C:/Users/²Ü¼ÒºÀ/.iotlink/sdk/IoT_LINK/iot_link/network/lwm2m/wakaama_lwm2m/wakaama-master/core\packet.c ****             if (message->type == COAP_TYPE_CON)
 259:C:/Users/²Ü¼ÒºÀ/.iotlink/sdk/IoT_LINK/iot_link/network/lwm2m/wakaama_lwm2m/wakaama-master/core\packet.c ****             {
 260:C:/Users/²Ü¼ÒºÀ/.iotlink/sdk/IoT_LINK/iot_link/network/lwm2m/wakaama_lwm2m/wakaama-master/core\packet.c ****                 /* Reliable CON requests are answered with an ACK. */
 261:C:/Users/²Ü¼ÒºÀ/.iotlink/sdk/IoT_LINK/iot_link/network/lwm2m/wakaama_lwm2m/wakaama-master/core\packet.c ****                 coap_init_message(response, COAP_TYPE_ACK, COAP_205_CONTENT, message->mid);
 262:C:/Users/²Ü¼ÒºÀ/.iotlink/sdk/IoT_LINK/iot_link/network/lwm2m/wakaama_lwm2m/wakaama-master/core\packet.c ****             }
 263:C:/Users/²Ü¼ÒºÀ/.iotlink/sdk/IoT_LINK/iot_link/network/lwm2m/wakaama_lwm2m/wakaama-master/core\packet.c ****             else
 264:C:/Users/²Ü¼ÒºÀ/.iotlink/sdk/IoT_LINK/iot_link/network/lwm2m/wakaama_lwm2m/wakaama-master/core\packet.c ****             {
 265:C:/Users/²Ü¼ÒºÀ/.iotlink/sdk/IoT_LINK/iot_link/network/lwm2m/wakaama_lwm2m/wakaama-master/core\packet.c ****                 /* Unreliable NON requests are answered with a NON as well. */
 266:C:/Users/²Ü¼ÒºÀ/.iotlink/sdk/IoT_LINK/iot_link/network/lwm2m/wakaama_lwm2m/wakaama-master/core\packet.c ****                 coap_init_message(response, COAP_TYPE_NON, COAP_205_CONTENT, contextP->nextMID++);
 267:C:/Users/²Ü¼ÒºÀ/.iotlink/sdk/IoT_LINK/iot_link/network/lwm2m/wakaama_lwm2m/wakaama-master/core\packet.c ****             }
 268:C:/Users/²Ü¼ÒºÀ/.iotlink/sdk/IoT_LINK/iot_link/network/lwm2m/wakaama_lwm2m/wakaama-master/core\packet.c **** 
 269:C:/Users/²Ü¼ÒºÀ/.iotlink/sdk/IoT_LINK/iot_link/network/lwm2m/wakaama_lwm2m/wakaama-master/core\packet.c ****             /* mirror token */
 270:C:/Users/²Ü¼ÒºÀ/.iotlink/sdk/IoT_LINK/iot_link/network/lwm2m/wakaama_lwm2m/wakaama-master/core\packet.c ****             if (message->token_len)
 271:C:/Users/²Ü¼ÒºÀ/.iotlink/sdk/IoT_LINK/iot_link/network/lwm2m/wakaama_lwm2m/wakaama-master/core\packet.c ****             {
 272:C:/Users/²Ü¼ÒºÀ/.iotlink/sdk/IoT_LINK/iot_link/network/lwm2m/wakaama_lwm2m/wakaama-master/core\packet.c ****                 coap_set_header_token(response, message->token, message->token_len);
 273:C:/Users/²Ü¼ÒºÀ/.iotlink/sdk/IoT_LINK/iot_link/network/lwm2m/wakaama_lwm2m/wakaama-master/core\packet.c ****             }
 274:C:/Users/²Ü¼ÒºÀ/.iotlink/sdk/IoT_LINK/iot_link/network/lwm2m/wakaama_lwm2m/wakaama-master/core\packet.c **** 
 275:C:/Users/²Ü¼ÒºÀ/.iotlink/sdk/IoT_LINK/iot_link/network/lwm2m/wakaama_lwm2m/wakaama-master/core\packet.c ****             /* get offset for blockwise transfers */
 276:C:/Users/²Ü¼ÒºÀ/.iotlink/sdk/IoT_LINK/iot_link/network/lwm2m/wakaama_lwm2m/wakaama-master/core\packet.c ****             if (coap_get_header_block2(message, &block_num, NULL, &block_size, &block_offset))
 277:C:/Users/²Ü¼ÒºÀ/.iotlink/sdk/IoT_LINK/iot_link/network/lwm2m/wakaama_lwm2m/wakaama-master/core\packet.c ****             {
 278:C:/Users/²Ü¼ÒºÀ/.iotlink/sdk/IoT_LINK/iot_link/network/lwm2m/wakaama_lwm2m/wakaama-master/core\packet.c ****                 LOG_ARG("Blockwise: block request %u (%u/%u) @ %u bytes", (unsigned int)block_num, 
 279:C:/Users/²Ü¼ÒºÀ/.iotlink/sdk/IoT_LINK/iot_link/network/lwm2m/wakaama_lwm2m/wakaama-master/core\packet.c ****                 block_size = MIN(block_size, REST_MAX_CHUNK_SIZE);
 280:C:/Users/²Ü¼ÒºÀ/.iotlink/sdk/IoT_LINK/iot_link/network/lwm2m/wakaama_lwm2m/wakaama-master/core\packet.c ****                 new_offset = block_offset;
 281:C:/Users/²Ü¼ÒºÀ/.iotlink/sdk/IoT_LINK/iot_link/network/lwm2m/wakaama_lwm2m/wakaama-master/core\packet.c ****             }
 282:C:/Users/²Ü¼ÒºÀ/.iotlink/sdk/IoT_LINK/iot_link/network/lwm2m/wakaama_lwm2m/wakaama-master/core\packet.c **** 
 283:C:/Users/²Ü¼ÒºÀ/.iotlink/sdk/IoT_LINK/iot_link/network/lwm2m/wakaama_lwm2m/wakaama-master/core\packet.c ****             /* handle block1 option */
 284:C:/Users/²Ü¼ÒºÀ/.iotlink/sdk/IoT_LINK/iot_link/network/lwm2m/wakaama_lwm2m/wakaama-master/core\packet.c ****             if (IS_OPTION(message, COAP_OPTION_BLOCK1))
 285:C:/Users/²Ü¼ÒºÀ/.iotlink/sdk/IoT_LINK/iot_link/network/lwm2m/wakaama_lwm2m/wakaama-master/core\packet.c ****             {
 286:C:/Users/²Ü¼ÒºÀ/.iotlink/sdk/IoT_LINK/iot_link/network/lwm2m/wakaama_lwm2m/wakaama-master/core\packet.c **** #ifdef LWM2M_CLIENT_MODE
 287:C:/Users/²Ü¼ÒºÀ/.iotlink/sdk/IoT_LINK/iot_link/network/lwm2m/wakaama_lwm2m/wakaama-master/core\packet.c ****                 // get server
 288:C:/Users/²Ü¼ÒºÀ/.iotlink/sdk/IoT_LINK/iot_link/network/lwm2m/wakaama_lwm2m/wakaama-master/core\packet.c ****                 lwm2m_server_t *serverP;
 289:C:/Users/²Ü¼ÒºÀ/.iotlink/sdk/IoT_LINK/iot_link/network/lwm2m/wakaama_lwm2m/wakaama-master/core\packet.c ****                 serverP = utils_findServer(contextP, fromSessionH);
 290:C:/Users/²Ü¼ÒºÀ/.iotlink/sdk/IoT_LINK/iot_link/network/lwm2m/wakaama_lwm2m/wakaama-master/core\packet.c **** #ifdef LWM2M_BOOTSTRAP
ARM GAS  C:\Users\²Ü¼ÒºÀ\AppData\Local\Temp\ccepIYuV.s 			page 7


 291:C:/Users/²Ü¼ÒºÀ/.iotlink/sdk/IoT_LINK/iot_link/network/lwm2m/wakaama_lwm2m/wakaama-master/core\packet.c ****                 if (serverP == NULL)
 292:C:/Users/²Ü¼ÒºÀ/.iotlink/sdk/IoT_LINK/iot_link/network/lwm2m/wakaama_lwm2m/wakaama-master/core\packet.c ****                 {
 293:C:/Users/²Ü¼ÒºÀ/.iotlink/sdk/IoT_LINK/iot_link/network/lwm2m/wakaama_lwm2m/wakaama-master/core\packet.c ****                     serverP = utils_findBootstrapServer(contextP, fromSessionH);
 294:C:/Users/²Ü¼ÒºÀ/.iotlink/sdk/IoT_LINK/iot_link/network/lwm2m/wakaama_lwm2m/wakaama-master/core\packet.c ****                 }
 295:C:/Users/²Ü¼ÒºÀ/.iotlink/sdk/IoT_LINK/iot_link/network/lwm2m/wakaama_lwm2m/wakaama-master/core\packet.c **** #endif
 296:C:/Users/²Ü¼ÒºÀ/.iotlink/sdk/IoT_LINK/iot_link/network/lwm2m/wakaama_lwm2m/wakaama-master/core\packet.c ****                 if (serverP == NULL)
 297:C:/Users/²Ü¼ÒºÀ/.iotlink/sdk/IoT_LINK/iot_link/network/lwm2m/wakaama_lwm2m/wakaama-master/core\packet.c ****                 {
 298:C:/Users/²Ü¼ÒºÀ/.iotlink/sdk/IoT_LINK/iot_link/network/lwm2m/wakaama_lwm2m/wakaama-master/core\packet.c ****                     coap_error_code = COAP_500_INTERNAL_SERVER_ERROR;
 299:C:/Users/²Ü¼ÒºÀ/.iotlink/sdk/IoT_LINK/iot_link/network/lwm2m/wakaama_lwm2m/wakaama-master/core\packet.c ****                 }
 300:C:/Users/²Ü¼ÒºÀ/.iotlink/sdk/IoT_LINK/iot_link/network/lwm2m/wakaama_lwm2m/wakaama-master/core\packet.c ****                 else
 301:C:/Users/²Ü¼ÒºÀ/.iotlink/sdk/IoT_LINK/iot_link/network/lwm2m/wakaama_lwm2m/wakaama-master/core\packet.c ****                 {
 302:C:/Users/²Ü¼ÒºÀ/.iotlink/sdk/IoT_LINK/iot_link/network/lwm2m/wakaama_lwm2m/wakaama-master/core\packet.c ****                     uint32_t block1_num;
 303:C:/Users/²Ü¼ÒºÀ/.iotlink/sdk/IoT_LINK/iot_link/network/lwm2m/wakaama_lwm2m/wakaama-master/core\packet.c ****                     uint8_t  block1_more;
 304:C:/Users/²Ü¼ÒºÀ/.iotlink/sdk/IoT_LINK/iot_link/network/lwm2m/wakaama_lwm2m/wakaama-master/core\packet.c ****                     uint16_t block1_size;
 305:C:/Users/²Ü¼ÒºÀ/.iotlink/sdk/IoT_LINK/iot_link/network/lwm2m/wakaama_lwm2m/wakaama-master/core\packet.c ****                     uint8_t *complete_buffer = NULL;
 306:C:/Users/²Ü¼ÒºÀ/.iotlink/sdk/IoT_LINK/iot_link/network/lwm2m/wakaama_lwm2m/wakaama-master/core\packet.c ****                     size_t complete_buffer_size;
 307:C:/Users/²Ü¼ÒºÀ/.iotlink/sdk/IoT_LINK/iot_link/network/lwm2m/wakaama_lwm2m/wakaama-master/core\packet.c **** 
 308:C:/Users/²Ü¼ÒºÀ/.iotlink/sdk/IoT_LINK/iot_link/network/lwm2m/wakaama_lwm2m/wakaama-master/core\packet.c ****                     // parse block1 header
 309:C:/Users/²Ü¼ÒºÀ/.iotlink/sdk/IoT_LINK/iot_link/network/lwm2m/wakaama_lwm2m/wakaama-master/core\packet.c ****                     coap_get_header_block1(message, &block1_num, &block1_more, &block1_size, NULL);
 310:C:/Users/²Ü¼ÒºÀ/.iotlink/sdk/IoT_LINK/iot_link/network/lwm2m/wakaama_lwm2m/wakaama-master/core\packet.c ****                     LOG_ARG("Blockwise: block1 request NUM %u (SZX %u/ SZX Max%u) MORE %u", (unsign
 311:C:/Users/²Ü¼ÒºÀ/.iotlink/sdk/IoT_LINK/iot_link/network/lwm2m/wakaama_lwm2m/wakaama-master/core\packet.c **** 
 312:C:/Users/²Ü¼ÒºÀ/.iotlink/sdk/IoT_LINK/iot_link/network/lwm2m/wakaama_lwm2m/wakaama-master/core\packet.c ****                     // handle block 1
 313:C:/Users/²Ü¼ÒºÀ/.iotlink/sdk/IoT_LINK/iot_link/network/lwm2m/wakaama_lwm2m/wakaama-master/core\packet.c ****                     coap_error_code = coap_block1_handler(&serverP->block1Data, message->mid, messa
 314:C:/Users/²Ü¼ÒºÀ/.iotlink/sdk/IoT_LINK/iot_link/network/lwm2m/wakaama_lwm2m/wakaama-master/core\packet.c **** 
 315:C:/Users/²Ü¼ÒºÀ/.iotlink/sdk/IoT_LINK/iot_link/network/lwm2m/wakaama_lwm2m/wakaama-master/core\packet.c ****                     // if payload is complete, replace it in the coap message.
 316:C:/Users/²Ü¼ÒºÀ/.iotlink/sdk/IoT_LINK/iot_link/network/lwm2m/wakaama_lwm2m/wakaama-master/core\packet.c ****                     if (coap_error_code == NO_ERROR)
 317:C:/Users/²Ü¼ÒºÀ/.iotlink/sdk/IoT_LINK/iot_link/network/lwm2m/wakaama_lwm2m/wakaama-master/core\packet.c ****                     {
 318:C:/Users/²Ü¼ÒºÀ/.iotlink/sdk/IoT_LINK/iot_link/network/lwm2m/wakaama_lwm2m/wakaama-master/core\packet.c ****                         message->payload = complete_buffer;
 319:C:/Users/²Ü¼ÒºÀ/.iotlink/sdk/IoT_LINK/iot_link/network/lwm2m/wakaama_lwm2m/wakaama-master/core\packet.c ****                         message->payload_len = complete_buffer_size;
 320:C:/Users/²Ü¼ÒºÀ/.iotlink/sdk/IoT_LINK/iot_link/network/lwm2m/wakaama_lwm2m/wakaama-master/core\packet.c ****                     }
 321:C:/Users/²Ü¼ÒºÀ/.iotlink/sdk/IoT_LINK/iot_link/network/lwm2m/wakaama_lwm2m/wakaama-master/core\packet.c ****                     else if (coap_error_code == COAP_231_CONTINUE)
 322:C:/Users/²Ü¼ÒºÀ/.iotlink/sdk/IoT_LINK/iot_link/network/lwm2m/wakaama_lwm2m/wakaama-master/core\packet.c ****                     {
 323:C:/Users/²Ü¼ÒºÀ/.iotlink/sdk/IoT_LINK/iot_link/network/lwm2m/wakaama_lwm2m/wakaama-master/core\packet.c ****                         block1_size = MIN(block1_size, REST_MAX_CHUNK_SIZE);
 324:C:/Users/²Ü¼ÒºÀ/.iotlink/sdk/IoT_LINK/iot_link/network/lwm2m/wakaama_lwm2m/wakaama-master/core\packet.c ****                         coap_set_header_block1(response, block1_num, block1_more, block1_size);
 325:C:/Users/²Ü¼ÒºÀ/.iotlink/sdk/IoT_LINK/iot_link/network/lwm2m/wakaama_lwm2m/wakaama-master/core\packet.c ****                     }
 326:C:/Users/²Ü¼ÒºÀ/.iotlink/sdk/IoT_LINK/iot_link/network/lwm2m/wakaama_lwm2m/wakaama-master/core\packet.c ****                 }
 327:C:/Users/²Ü¼ÒºÀ/.iotlink/sdk/IoT_LINK/iot_link/network/lwm2m/wakaama_lwm2m/wakaama-master/core\packet.c **** #else
 328:C:/Users/²Ü¼ÒºÀ/.iotlink/sdk/IoT_LINK/iot_link/network/lwm2m/wakaama_lwm2m/wakaama-master/core\packet.c ****                 coap_error_code = COAP_501_NOT_IMPLEMENTED;
 329:C:/Users/²Ü¼ÒºÀ/.iotlink/sdk/IoT_LINK/iot_link/network/lwm2m/wakaama_lwm2m/wakaama-master/core\packet.c **** #endif
 330:C:/Users/²Ü¼ÒºÀ/.iotlink/sdk/IoT_LINK/iot_link/network/lwm2m/wakaama_lwm2m/wakaama-master/core\packet.c ****             }
 331:C:/Users/²Ü¼ÒºÀ/.iotlink/sdk/IoT_LINK/iot_link/network/lwm2m/wakaama_lwm2m/wakaama-master/core\packet.c ****             if (coap_error_code == NO_ERROR)
 332:C:/Users/²Ü¼ÒºÀ/.iotlink/sdk/IoT_LINK/iot_link/network/lwm2m/wakaama_lwm2m/wakaama-master/core\packet.c ****             {
 333:C:/Users/²Ü¼ÒºÀ/.iotlink/sdk/IoT_LINK/iot_link/network/lwm2m/wakaama_lwm2m/wakaama-master/core\packet.c ****                 coap_error_code = handle_request(contextP, fromSessionH, message, response);
 334:C:/Users/²Ü¼ÒºÀ/.iotlink/sdk/IoT_LINK/iot_link/network/lwm2m/wakaama_lwm2m/wakaama-master/core\packet.c ****             }
 335:C:/Users/²Ü¼ÒºÀ/.iotlink/sdk/IoT_LINK/iot_link/network/lwm2m/wakaama_lwm2m/wakaama-master/core\packet.c ****             if (coap_error_code == NO_ERROR)
 336:C:/Users/²Ü¼ÒºÀ/.iotlink/sdk/IoT_LINK/iot_link/network/lwm2m/wakaama_lwm2m/wakaama-master/core\packet.c ****             {
 337:C:/Users/²Ü¼ÒºÀ/.iotlink/sdk/IoT_LINK/iot_link/network/lwm2m/wakaama_lwm2m/wakaama-master/core\packet.c ****                 if ( IS_OPTION(message, COAP_OPTION_BLOCK2) )
 338:C:/Users/²Ü¼ÒºÀ/.iotlink/sdk/IoT_LINK/iot_link/network/lwm2m/wakaama_lwm2m/wakaama-master/core\packet.c ****                 {
 339:C:/Users/²Ü¼ÒºÀ/.iotlink/sdk/IoT_LINK/iot_link/network/lwm2m/wakaama_lwm2m/wakaama-master/core\packet.c ****                     /* unchanged new_offset indicates that resource is unaware of blockwise transfe
 340:C:/Users/²Ü¼ÒºÀ/.iotlink/sdk/IoT_LINK/iot_link/network/lwm2m/wakaama_lwm2m/wakaama-master/core\packet.c ****                     if (new_offset == block_offset)
 341:C:/Users/²Ü¼ÒºÀ/.iotlink/sdk/IoT_LINK/iot_link/network/lwm2m/wakaama_lwm2m/wakaama-master/core\packet.c ****                     {
 342:C:/Users/²Ü¼ÒºÀ/.iotlink/sdk/IoT_LINK/iot_link/network/lwm2m/wakaama_lwm2m/wakaama-master/core\packet.c ****                         LOG_ARG("Blockwise: unaware resource with payload length %u/%u", response->
 343:C:/Users/²Ü¼ÒºÀ/.iotlink/sdk/IoT_LINK/iot_link/network/lwm2m/wakaama_lwm2m/wakaama-master/core\packet.c ****                         if (block_offset >= message->payload_len)
 344:C:/Users/²Ü¼ÒºÀ/.iotlink/sdk/IoT_LINK/iot_link/network/lwm2m/wakaama_lwm2m/wakaama-master/core\packet.c ****                         {
 345:C:/Users/²Ü¼ÒºÀ/.iotlink/sdk/IoT_LINK/iot_link/network/lwm2m/wakaama_lwm2m/wakaama-master/core\packet.c ****                             LOG("handle_incoming_data(): block_offset >= response->payload_len");
 346:C:/Users/²Ü¼ÒºÀ/.iotlink/sdk/IoT_LINK/iot_link/network/lwm2m/wakaama_lwm2m/wakaama-master/core\packet.c **** 
 347:C:/Users/²Ü¼ÒºÀ/.iotlink/sdk/IoT_LINK/iot_link/network/lwm2m/wakaama_lwm2m/wakaama-master/core\packet.c ****                             response->code = COAP_402_BAD_OPTION;
ARM GAS  C:\Users\²Ü¼ÒºÀ\AppData\Local\Temp\ccepIYuV.s 			page 8


 348:C:/Users/²Ü¼ÒºÀ/.iotlink/sdk/IoT_LINK/iot_link/network/lwm2m/wakaama_lwm2m/wakaama-master/core\packet.c ****                             coap_set_payload(response, "BlockOutOfScope", 15); /* a const char str[
 349:C:/Users/²Ü¼ÒºÀ/.iotlink/sdk/IoT_LINK/iot_link/network/lwm2m/wakaama_lwm2m/wakaama-master/core\packet.c ****                         }
 350:C:/Users/²Ü¼ÒºÀ/.iotlink/sdk/IoT_LINK/iot_link/network/lwm2m/wakaama_lwm2m/wakaama-master/core\packet.c ****                         else
 351:C:/Users/²Ü¼ÒºÀ/.iotlink/sdk/IoT_LINK/iot_link/network/lwm2m/wakaama_lwm2m/wakaama-master/core\packet.c ****                         {
 352:C:/Users/²Ü¼ÒºÀ/.iotlink/sdk/IoT_LINK/iot_link/network/lwm2m/wakaama_lwm2m/wakaama-master/core\packet.c ****                             coap_set_header_block2(response, block_num, response->payload_len - blo
 353:C:/Users/²Ü¼ÒºÀ/.iotlink/sdk/IoT_LINK/iot_link/network/lwm2m/wakaama_lwm2m/wakaama-master/core\packet.c ****                             coap_set_payload(response, response->payload + block_offset, MIN(respon
 354:C:/Users/²Ü¼ÒºÀ/.iotlink/sdk/IoT_LINK/iot_link/network/lwm2m/wakaama_lwm2m/wakaama-master/core\packet.c ****                         } /* if (valid offset) */
 355:C:/Users/²Ü¼ÒºÀ/.iotlink/sdk/IoT_LINK/iot_link/network/lwm2m/wakaama_lwm2m/wakaama-master/core\packet.c ****                     }
 356:C:/Users/²Ü¼ÒºÀ/.iotlink/sdk/IoT_LINK/iot_link/network/lwm2m/wakaama_lwm2m/wakaama-master/core\packet.c ****                     else
 357:C:/Users/²Ü¼ÒºÀ/.iotlink/sdk/IoT_LINK/iot_link/network/lwm2m/wakaama_lwm2m/wakaama-master/core\packet.c ****                     {
 358:C:/Users/²Ü¼ÒºÀ/.iotlink/sdk/IoT_LINK/iot_link/network/lwm2m/wakaama_lwm2m/wakaama-master/core\packet.c ****                         /* resource provides chunk-wise data */
 359:C:/Users/²Ü¼ÒºÀ/.iotlink/sdk/IoT_LINK/iot_link/network/lwm2m/wakaama_lwm2m/wakaama-master/core\packet.c ****                         LOG_ARG("Blockwise: blockwise resource, new offset %d", (int) new_offset);
 360:C:/Users/²Ü¼ÒºÀ/.iotlink/sdk/IoT_LINK/iot_link/network/lwm2m/wakaama_lwm2m/wakaama-master/core\packet.c ****                         coap_set_header_block2(response, block_num, new_offset != -1 || response->p
 361:C:/Users/²Ü¼ÒºÀ/.iotlink/sdk/IoT_LINK/iot_link/network/lwm2m/wakaama_lwm2m/wakaama-master/core\packet.c ****                         if (response->payload_len > block_size) coap_set_payload(response, response
 362:C:/Users/²Ü¼ÒºÀ/.iotlink/sdk/IoT_LINK/iot_link/network/lwm2m/wakaama_lwm2m/wakaama-master/core\packet.c ****                     } /* if (resource aware of blockwise) */
 363:C:/Users/²Ü¼ÒºÀ/.iotlink/sdk/IoT_LINK/iot_link/network/lwm2m/wakaama_lwm2m/wakaama-master/core\packet.c ****                 }
 364:C:/Users/²Ü¼ÒºÀ/.iotlink/sdk/IoT_LINK/iot_link/network/lwm2m/wakaama_lwm2m/wakaama-master/core\packet.c ****                 else if (new_offset != 0)
 365:C:/Users/²Ü¼ÒºÀ/.iotlink/sdk/IoT_LINK/iot_link/network/lwm2m/wakaama_lwm2m/wakaama-master/core\packet.c ****                 {
 366:C:/Users/²Ü¼ÒºÀ/.iotlink/sdk/IoT_LINK/iot_link/network/lwm2m/wakaama_lwm2m/wakaama-master/core\packet.c ****                     LOG_ARG("Blockwise: no block option for blockwise resource, using block size %u
 367:C:/Users/²Ü¼ÒºÀ/.iotlink/sdk/IoT_LINK/iot_link/network/lwm2m/wakaama_lwm2m/wakaama-master/core\packet.c **** 
 368:C:/Users/²Ü¼ÒºÀ/.iotlink/sdk/IoT_LINK/iot_link/network/lwm2m/wakaama_lwm2m/wakaama-master/core\packet.c ****                     coap_set_header_block2(response, 0, new_offset != -1, REST_MAX_CHUNK_SIZE);
 369:C:/Users/²Ü¼ÒºÀ/.iotlink/sdk/IoT_LINK/iot_link/network/lwm2m/wakaama_lwm2m/wakaama-master/core\packet.c ****                     coap_set_payload(response, response->payload, MIN(response->payload_len, REST_M
 370:C:/Users/²Ü¼ÒºÀ/.iotlink/sdk/IoT_LINK/iot_link/network/lwm2m/wakaama_lwm2m/wakaama-master/core\packet.c ****                 } /* if (blockwise request) */
 371:C:/Users/²Ü¼ÒºÀ/.iotlink/sdk/IoT_LINK/iot_link/network/lwm2m/wakaama_lwm2m/wakaama-master/core\packet.c **** 
 372:C:/Users/²Ü¼ÒºÀ/.iotlink/sdk/IoT_LINK/iot_link/network/lwm2m/wakaama_lwm2m/wakaama-master/core\packet.c ****                 coap_error_code = message_send(contextP, response, fromSessionH);
 373:C:/Users/²Ü¼ÒºÀ/.iotlink/sdk/IoT_LINK/iot_link/network/lwm2m/wakaama_lwm2m/wakaama-master/core\packet.c **** 
 374:C:/Users/²Ü¼ÒºÀ/.iotlink/sdk/IoT_LINK/iot_link/network/lwm2m/wakaama_lwm2m/wakaama-master/core\packet.c ****                 lwm2m_free(response->payload);
 375:C:/Users/²Ü¼ÒºÀ/.iotlink/sdk/IoT_LINK/iot_link/network/lwm2m/wakaama_lwm2m/wakaama-master/core\packet.c ****                 response->payload = NULL;
 376:C:/Users/²Ü¼ÒºÀ/.iotlink/sdk/IoT_LINK/iot_link/network/lwm2m/wakaama_lwm2m/wakaama-master/core\packet.c ****                 response->payload_len = 0;
 377:C:/Users/²Ü¼ÒºÀ/.iotlink/sdk/IoT_LINK/iot_link/network/lwm2m/wakaama_lwm2m/wakaama-master/core\packet.c ****             }
 378:C:/Users/²Ü¼ÒºÀ/.iotlink/sdk/IoT_LINK/iot_link/network/lwm2m/wakaama_lwm2m/wakaama-master/core\packet.c ****             else if (coap_error_code != COAP_IGNORE)
 379:C:/Users/²Ü¼ÒºÀ/.iotlink/sdk/IoT_LINK/iot_link/network/lwm2m/wakaama_lwm2m/wakaama-master/core\packet.c ****             {
 380:C:/Users/²Ü¼ÒºÀ/.iotlink/sdk/IoT_LINK/iot_link/network/lwm2m/wakaama_lwm2m/wakaama-master/core\packet.c ****                 if (1 == coap_set_status_code(response, coap_error_code))
 381:C:/Users/²Ü¼ÒºÀ/.iotlink/sdk/IoT_LINK/iot_link/network/lwm2m/wakaama_lwm2m/wakaama-master/core\packet.c ****                 {
 382:C:/Users/²Ü¼ÒºÀ/.iotlink/sdk/IoT_LINK/iot_link/network/lwm2m/wakaama_lwm2m/wakaama-master/core\packet.c ****                     coap_error_code = message_send(contextP, response, fromSessionH);
 383:C:/Users/²Ü¼ÒºÀ/.iotlink/sdk/IoT_LINK/iot_link/network/lwm2m/wakaama_lwm2m/wakaama-master/core\packet.c ****                 }
 384:C:/Users/²Ü¼ÒºÀ/.iotlink/sdk/IoT_LINK/iot_link/network/lwm2m/wakaama_lwm2m/wakaama-master/core\packet.c ****             }
 385:C:/Users/²Ü¼ÒºÀ/.iotlink/sdk/IoT_LINK/iot_link/network/lwm2m/wakaama_lwm2m/wakaama-master/core\packet.c ****         }
 386:C:/Users/²Ü¼ÒºÀ/.iotlink/sdk/IoT_LINK/iot_link/network/lwm2m/wakaama_lwm2m/wakaama-master/core\packet.c ****         else
 387:C:/Users/²Ü¼ÒºÀ/.iotlink/sdk/IoT_LINK/iot_link/network/lwm2m/wakaama_lwm2m/wakaama-master/core\packet.c ****         {
 388:C:/Users/²Ü¼ÒºÀ/.iotlink/sdk/IoT_LINK/iot_link/network/lwm2m/wakaama_lwm2m/wakaama-master/core\packet.c ****             /* Responses */
 389:C:/Users/²Ü¼ÒºÀ/.iotlink/sdk/IoT_LINK/iot_link/network/lwm2m/wakaama_lwm2m/wakaama-master/core\packet.c ****             switch (message->type)
 390:C:/Users/²Ü¼ÒºÀ/.iotlink/sdk/IoT_LINK/iot_link/network/lwm2m/wakaama_lwm2m/wakaama-master/core\packet.c ****             {
 391:C:/Users/²Ü¼ÒºÀ/.iotlink/sdk/IoT_LINK/iot_link/network/lwm2m/wakaama_lwm2m/wakaama-master/core\packet.c ****             case COAP_TYPE_NON:
 392:C:/Users/²Ü¼ÒºÀ/.iotlink/sdk/IoT_LINK/iot_link/network/lwm2m/wakaama_lwm2m/wakaama-master/core\packet.c ****             case COAP_TYPE_CON:
 393:C:/Users/²Ü¼ÒºÀ/.iotlink/sdk/IoT_LINK/iot_link/network/lwm2m/wakaama_lwm2m/wakaama-master/core\packet.c ****             {
 394:C:/Users/²Ü¼ÒºÀ/.iotlink/sdk/IoT_LINK/iot_link/network/lwm2m/wakaama_lwm2m/wakaama-master/core\packet.c ****                 bool done = transaction_handleResponse(contextP, fromSessionH, message, response);
 395:C:/Users/²Ü¼ÒºÀ/.iotlink/sdk/IoT_LINK/iot_link/network/lwm2m/wakaama_lwm2m/wakaama-master/core\packet.c **** 
 396:C:/Users/²Ü¼ÒºÀ/.iotlink/sdk/IoT_LINK/iot_link/network/lwm2m/wakaama_lwm2m/wakaama-master/core\packet.c **** #ifdef LWM2M_SERVER_MODE
 397:C:/Users/²Ü¼ÒºÀ/.iotlink/sdk/IoT_LINK/iot_link/network/lwm2m/wakaama_lwm2m/wakaama-master/core\packet.c ****                 if (!done && IS_OPTION(message, COAP_OPTION_OBSERVE) &&
 398:C:/Users/²Ü¼ÒºÀ/.iotlink/sdk/IoT_LINK/iot_link/network/lwm2m/wakaama_lwm2m/wakaama-master/core\packet.c ****                         ((message->code == COAP_204_CHANGED) || (message->code == COAP_205_CONTENT)
 399:C:/Users/²Ü¼ÒºÀ/.iotlink/sdk/IoT_LINK/iot_link/network/lwm2m/wakaama_lwm2m/wakaama-master/core\packet.c ****                 {
 400:C:/Users/²Ü¼ÒºÀ/.iotlink/sdk/IoT_LINK/iot_link/network/lwm2m/wakaama_lwm2m/wakaama-master/core\packet.c ****                     done = observe_handleNotify(contextP, fromSessionH, message, response);
 401:C:/Users/²Ü¼ÒºÀ/.iotlink/sdk/IoT_LINK/iot_link/network/lwm2m/wakaama_lwm2m/wakaama-master/core\packet.c ****                 }
 402:C:/Users/²Ü¼ÒºÀ/.iotlink/sdk/IoT_LINK/iot_link/network/lwm2m/wakaama_lwm2m/wakaama-master/core\packet.c **** #endif
 403:C:/Users/²Ü¼ÒºÀ/.iotlink/sdk/IoT_LINK/iot_link/network/lwm2m/wakaama_lwm2m/wakaama-master/core\packet.c ****                 if (!done && message->type == COAP_TYPE_CON )
 404:C:/Users/²Ü¼ÒºÀ/.iotlink/sdk/IoT_LINK/iot_link/network/lwm2m/wakaama_lwm2m/wakaama-master/core\packet.c ****                 {
ARM GAS  C:\Users\²Ü¼ÒºÀ\AppData\Local\Temp\ccepIYuV.s 			page 9


 405:C:/Users/²Ü¼ÒºÀ/.iotlink/sdk/IoT_LINK/iot_link/network/lwm2m/wakaama_lwm2m/wakaama-master/core\packet.c ****                     coap_init_message(response, COAP_TYPE_ACK, 0, message->mid);
 406:C:/Users/²Ü¼ÒºÀ/.iotlink/sdk/IoT_LINK/iot_link/network/lwm2m/wakaama_lwm2m/wakaama-master/core\packet.c ****                     coap_error_code = message_send(contextP, response, fromSessionH);
 407:C:/Users/²Ü¼ÒºÀ/.iotlink/sdk/IoT_LINK/iot_link/network/lwm2m/wakaama_lwm2m/wakaama-master/core\packet.c ****                 }
 408:C:/Users/²Ü¼ÒºÀ/.iotlink/sdk/IoT_LINK/iot_link/network/lwm2m/wakaama_lwm2m/wakaama-master/core\packet.c ****             }
 409:C:/Users/²Ü¼ÒºÀ/.iotlink/sdk/IoT_LINK/iot_link/network/lwm2m/wakaama_lwm2m/wakaama-master/core\packet.c ****             break;
 410:C:/Users/²Ü¼ÒºÀ/.iotlink/sdk/IoT_LINK/iot_link/network/lwm2m/wakaama_lwm2m/wakaama-master/core\packet.c **** 
 411:C:/Users/²Ü¼ÒºÀ/.iotlink/sdk/IoT_LINK/iot_link/network/lwm2m/wakaama_lwm2m/wakaama-master/core\packet.c ****             case COAP_TYPE_RST:
 412:C:/Users/²Ü¼ÒºÀ/.iotlink/sdk/IoT_LINK/iot_link/network/lwm2m/wakaama_lwm2m/wakaama-master/core\packet.c ****                 /* Cancel possible subscriptions. */
 413:C:/Users/²Ü¼ÒºÀ/.iotlink/sdk/IoT_LINK/iot_link/network/lwm2m/wakaama_lwm2m/wakaama-master/core\packet.c ****                 handle_reset(contextP, fromSessionH, message);
 414:C:/Users/²Ü¼ÒºÀ/.iotlink/sdk/IoT_LINK/iot_link/network/lwm2m/wakaama_lwm2m/wakaama-master/core\packet.c ****                 transaction_handleResponse(contextP, fromSessionH, message, NULL);
 415:C:/Users/²Ü¼ÒºÀ/.iotlink/sdk/IoT_LINK/iot_link/network/lwm2m/wakaama_lwm2m/wakaama-master/core\packet.c ****                 break;
 416:C:/Users/²Ü¼ÒºÀ/.iotlink/sdk/IoT_LINK/iot_link/network/lwm2m/wakaama_lwm2m/wakaama-master/core\packet.c **** 
 417:C:/Users/²Ü¼ÒºÀ/.iotlink/sdk/IoT_LINK/iot_link/network/lwm2m/wakaama_lwm2m/wakaama-master/core\packet.c ****             case COAP_TYPE_ACK:
 418:C:/Users/²Ü¼ÒºÀ/.iotlink/sdk/IoT_LINK/iot_link/network/lwm2m/wakaama_lwm2m/wakaama-master/core\packet.c ****                 transaction_handleResponse(contextP, fromSessionH, message, NULL);
 419:C:/Users/²Ü¼ÒºÀ/.iotlink/sdk/IoT_LINK/iot_link/network/lwm2m/wakaama_lwm2m/wakaama-master/core\packet.c ****                 break;
 420:C:/Users/²Ü¼ÒºÀ/.iotlink/sdk/IoT_LINK/iot_link/network/lwm2m/wakaama_lwm2m/wakaama-master/core\packet.c **** 
 421:C:/Users/²Ü¼ÒºÀ/.iotlink/sdk/IoT_LINK/iot_link/network/lwm2m/wakaama_lwm2m/wakaama-master/core\packet.c ****             default:
 422:C:/Users/²Ü¼ÒºÀ/.iotlink/sdk/IoT_LINK/iot_link/network/lwm2m/wakaama_lwm2m/wakaama-master/core\packet.c ****                 break;
 423:C:/Users/²Ü¼ÒºÀ/.iotlink/sdk/IoT_LINK/iot_link/network/lwm2m/wakaama_lwm2m/wakaama-master/core\packet.c ****             }
 424:C:/Users/²Ü¼ÒºÀ/.iotlink/sdk/IoT_LINK/iot_link/network/lwm2m/wakaama_lwm2m/wakaama-master/core\packet.c ****         } /* Request or Response */
 425:C:/Users/²Ü¼ÒºÀ/.iotlink/sdk/IoT_LINK/iot_link/network/lwm2m/wakaama_lwm2m/wakaama-master/core\packet.c ****         coap_free_header(message);
 426:C:/Users/²Ü¼ÒºÀ/.iotlink/sdk/IoT_LINK/iot_link/network/lwm2m/wakaama_lwm2m/wakaama-master/core\packet.c ****     } /* if (parsed correctly) */
 427:C:/Users/²Ü¼ÒºÀ/.iotlink/sdk/IoT_LINK/iot_link/network/lwm2m/wakaama_lwm2m/wakaama-master/core\packet.c ****     else
 428:C:/Users/²Ü¼ÒºÀ/.iotlink/sdk/IoT_LINK/iot_link/network/lwm2m/wakaama_lwm2m/wakaama-master/core\packet.c ****     {
 429:C:/Users/²Ü¼ÒºÀ/.iotlink/sdk/IoT_LINK/iot_link/network/lwm2m/wakaama_lwm2m/wakaama-master/core\packet.c ****         LOG_ARG("Message parsing failed %u.%2u", coap_error_code >> 5, coap_error_code & 0x1F);
 430:C:/Users/²Ü¼ÒºÀ/.iotlink/sdk/IoT_LINK/iot_link/network/lwm2m/wakaama_lwm2m/wakaama-master/core\packet.c ****     }
 431:C:/Users/²Ü¼ÒºÀ/.iotlink/sdk/IoT_LINK/iot_link/network/lwm2m/wakaama_lwm2m/wakaama-master/core\packet.c **** 
 432:C:/Users/²Ü¼ÒºÀ/.iotlink/sdk/IoT_LINK/iot_link/network/lwm2m/wakaama_lwm2m/wakaama-master/core\packet.c ****     if (coap_error_code != NO_ERROR && coap_error_code != COAP_IGNORE)
 433:C:/Users/²Ü¼ÒºÀ/.iotlink/sdk/IoT_LINK/iot_link/network/lwm2m/wakaama_lwm2m/wakaama-master/core\packet.c ****     {
 434:C:/Users/²Ü¼ÒºÀ/.iotlink/sdk/IoT_LINK/iot_link/network/lwm2m/wakaama_lwm2m/wakaama-master/core\packet.c ****         LOG_ARG("ERROR %u: %s", coap_error_code, coap_error_message);
 435:C:/Users/²Ü¼ÒºÀ/.iotlink/sdk/IoT_LINK/iot_link/network/lwm2m/wakaama_lwm2m/wakaama-master/core\packet.c **** 
 436:C:/Users/²Ü¼ÒºÀ/.iotlink/sdk/IoT_LINK/iot_link/network/lwm2m/wakaama_lwm2m/wakaama-master/core\packet.c ****         /* Set to sendable error code. */
 437:C:/Users/²Ü¼ÒºÀ/.iotlink/sdk/IoT_LINK/iot_link/network/lwm2m/wakaama_lwm2m/wakaama-master/core\packet.c ****         if (coap_error_code >= 192)
 438:C:/Users/²Ü¼ÒºÀ/.iotlink/sdk/IoT_LINK/iot_link/network/lwm2m/wakaama_lwm2m/wakaama-master/core\packet.c ****         {
 439:C:/Users/²Ü¼ÒºÀ/.iotlink/sdk/IoT_LINK/iot_link/network/lwm2m/wakaama_lwm2m/wakaama-master/core\packet.c ****             coap_error_code = COAP_500_INTERNAL_SERVER_ERROR;
 440:C:/Users/²Ü¼ÒºÀ/.iotlink/sdk/IoT_LINK/iot_link/network/lwm2m/wakaama_lwm2m/wakaama-master/core\packet.c ****         }
 441:C:/Users/²Ü¼ÒºÀ/.iotlink/sdk/IoT_LINK/iot_link/network/lwm2m/wakaama_lwm2m/wakaama-master/core\packet.c ****         /* Reuse input buffer for error message. */
 442:C:/Users/²Ü¼ÒºÀ/.iotlink/sdk/IoT_LINK/iot_link/network/lwm2m/wakaama_lwm2m/wakaama-master/core\packet.c ****         coap_init_message(message, COAP_TYPE_ACK, coap_error_code, message->mid);
 443:C:/Users/²Ü¼ÒºÀ/.iotlink/sdk/IoT_LINK/iot_link/network/lwm2m/wakaama_lwm2m/wakaama-master/core\packet.c ****         coap_set_payload(message, coap_error_message, strlen(coap_error_message));
 444:C:/Users/²Ü¼ÒºÀ/.iotlink/sdk/IoT_LINK/iot_link/network/lwm2m/wakaama_lwm2m/wakaama-master/core\packet.c ****         message_send(contextP, message, fromSessionH);
 445:C:/Users/²Ü¼ÒºÀ/.iotlink/sdk/IoT_LINK/iot_link/network/lwm2m/wakaama_lwm2m/wakaama-master/core\packet.c ****     }
 446:C:/Users/²Ü¼ÒºÀ/.iotlink/sdk/IoT_LINK/iot_link/network/lwm2m/wakaama_lwm2m/wakaama-master/core\packet.c **** }
 447:C:/Users/²Ü¼ÒºÀ/.iotlink/sdk/IoT_LINK/iot_link/network/lwm2m/wakaama_lwm2m/wakaama-master/core\packet.c **** 
 448:C:/Users/²Ü¼ÒºÀ/.iotlink/sdk/IoT_LINK/iot_link/network/lwm2m/wakaama_lwm2m/wakaama-master/core\packet.c **** 
 449:C:/Users/²Ü¼ÒºÀ/.iotlink/sdk/IoT_LINK/iot_link/network/lwm2m/wakaama_lwm2m/wakaama-master/core\packet.c **** uint8_t message_send(lwm2m_context_t *contextP,
 450:C:/Users/²Ü¼ÒºÀ/.iotlink/sdk/IoT_LINK/iot_link/network/lwm2m/wakaama_lwm2m/wakaama-master/core\packet.c ****                      coap_packet_t *message,
 451:C:/Users/²Ü¼ÒºÀ/.iotlink/sdk/IoT_LINK/iot_link/network/lwm2m/wakaama_lwm2m/wakaama-master/core\packet.c ****                      void *sessionH)
 452:C:/Users/²Ü¼ÒºÀ/.iotlink/sdk/IoT_LINK/iot_link/network/lwm2m/wakaama_lwm2m/wakaama-master/core\packet.c **** {
  39              		.loc 1 452 1 view -0
  40              		.cfi_startproc
  41              		@ args = 0, pretend = 0, frame = 8
  42              		@ frame_needed = 0, uses_anonymous_args = 0
 453:C:/Users/²Ü¼ÒºÀ/.iotlink/sdk/IoT_LINK/iot_link/network/lwm2m/wakaama_lwm2m/wakaama-master/core\packet.c ****     uint8_t result = COAP_500_INTERNAL_SERVER_ERROR;
  43              		.loc 1 453 5 view .LVU1
 454:C:/Users/²Ü¼ÒºÀ/.iotlink/sdk/IoT_LINK/iot_link/network/lwm2m/wakaama_lwm2m/wakaama-master/core\packet.c ****     uint8_t *pktBuffer;
  44              		.loc 1 454 5 view .LVU2
 455:C:/Users/²Ü¼ÒºÀ/.iotlink/sdk/IoT_LINK/iot_link/network/lwm2m/wakaama_lwm2m/wakaama-master/core\packet.c ****     size_t pktBufferLen = 0;
ARM GAS  C:\Users\²Ü¼ÒºÀ\AppData\Local\Temp\ccepIYuV.s 			page 10


  45              		.loc 1 455 5 view .LVU3
 456:C:/Users/²Ü¼ÒºÀ/.iotlink/sdk/IoT_LINK/iot_link/network/lwm2m/wakaama_lwm2m/wakaama-master/core\packet.c ****     size_t allocLen;
  46              		.loc 1 456 5 view .LVU4
 457:C:/Users/²Ü¼ÒºÀ/.iotlink/sdk/IoT_LINK/iot_link/network/lwm2m/wakaama_lwm2m/wakaama-master/core\packet.c **** 
 458:C:/Users/²Ü¼ÒºÀ/.iotlink/sdk/IoT_LINK/iot_link/network/lwm2m/wakaama_lwm2m/wakaama-master/core\packet.c ****     LOG("Entering");
  47              		.loc 1 458 5 view .LVU5
  48              		.loc 1 458 5 view .LVU6
 452:C:/Users/²Ü¼ÒºÀ/.iotlink/sdk/IoT_LINK/iot_link/network/lwm2m/wakaama_lwm2m/wakaama-master/core\packet.c ****     uint8_t result = COAP_500_INTERNAL_SERVER_ERROR;
  49              		.loc 1 452 1 is_stmt 0 view .LVU7
  50 0000 2DE9F041 		push	{r4, r5, r6, r7, r8, lr}
  51              	.LCFI0:
  52              		.cfi_def_cfa_offset 24
  53              		.cfi_offset 4, -24
  54              		.cfi_offset 5, -20
  55              		.cfi_offset 6, -16
  56              		.cfi_offset 7, -12
  57              		.cfi_offset 8, -8
  58              		.cfi_offset 14, -4
  59 0004 86B0     		sub	sp, sp, #24
  60              	.LCFI1:
  61              		.cfi_def_cfa_offset 48
 452:C:/Users/²Ü¼ÒºÀ/.iotlink/sdk/IoT_LINK/iot_link/network/lwm2m/wakaama_lwm2m/wakaama-master/core\packet.c ****     uint8_t result = COAP_500_INTERNAL_SERVER_ERROR;
  62              		.loc 1 452 1 view .LVU8
  63 0006 0746     		mov	r7, r0
  64 0008 0D46     		mov	r5, r1
  65 000a 1646     		mov	r6, r2
  66              		.loc 1 458 5 view .LVU9
  67 000c FFF7FEFF 		bl	link_log_level_get
  68              	.LVL1:
  69              		.loc 1 458 5 view .LVU10
  70 0010 0128     		cmp	r0, #1
  71 0012 19D8     		bhi	.L2
  72              		.loc 1 458 5 is_stmt 1 discriminator 1 view .LVU11
  73              		.loc 1 458 5 discriminator 1 view .LVU12
  74              		.loc 1 458 5 discriminator 1 view .LVU13
  75 0014 0120     		movs	r0, #1
  76 0016 FFF7FEFF 		bl	link_log_level_name
  77              	.LVL2:
  78 001a 0446     		mov	r4, r0
  79 001c FFF7FEFF 		bl	osal_sys_time
  80              	.LVL3:
  81 0020 0590     		str	r0, [sp, #20]
  82 0022 FFF7FEFF 		bl	lwm2m_gettime
  83              	.LVL4:
  84 0026 4FF4E573 		mov	r3, #458
  85 002a 0293     		str	r3, [sp, #8]
  86 002c 3B4B     		ldr	r3, .L13
  87 002e 059A     		ldr	r2, [sp, #20]
  88 0030 CDE90003 		strd	r0, r3, [sp]
  89 0034 2146     		mov	r1, r4
  90 0036 3A4B     		ldr	r3, .L13+4
  91 0038 3A48     		ldr	r0, .L13+8
  92 003a FFF7FEFF 		bl	printf
  93              	.LVL5:
  94              		.loc 1 458 5 discriminator 1 view .LVU14
  95 003e 3A4B     		ldr	r3, .L13+12
  96 0040 1B68     		ldr	r3, [r3]
ARM GAS  C:\Users\²Ü¼ÒºÀ\AppData\Local\Temp\ccepIYuV.s 			page 11


  97 0042 9868     		ldr	r0, [r3, #8]
  98 0044 FFF7FEFF 		bl	fflush
  99              	.LVL6:
 100              	.L2:
 101              		.loc 1 458 5 discriminator 3 view .LVU15
 102              		.loc 1 458 5 discriminator 3 view .LVU16
 103              		.loc 1 458 5 discriminator 3 view .LVU17
 459:C:/Users/²Ü¼ÒºÀ/.iotlink/sdk/IoT_LINK/iot_link/network/lwm2m/wakaama_lwm2m/wakaama-master/core\packet.c ****     allocLen = coap_serialize_get_size(message);
 104              		.loc 1 459 5 discriminator 3 view .LVU18
 105              		.loc 1 459 16 is_stmt 0 discriminator 3 view .LVU19
 106 0048 2846     		mov	r0, r5
 107 004a FFF7FEFF 		bl	coap_serialize_get_size
 108              	.LVL7:
 109 004e 0446     		mov	r4, r0
 110              	.LVL8:
 460:C:/Users/²Ü¼ÒºÀ/.iotlink/sdk/IoT_LINK/iot_link/network/lwm2m/wakaama_lwm2m/wakaama-master/core\packet.c ****     LOG_ARG("Size to allocate: %d", allocLen);
 111              		.loc 1 460 5 is_stmt 1 discriminator 3 view .LVU20
 112              		.loc 1 460 5 discriminator 3 view .LVU21
 113 0050 FFF7FEFF 		bl	link_log_level_get
 114              	.LVL9:
 115              		.loc 1 460 5 is_stmt 0 discriminator 3 view .LVU22
 116 0054 0128     		cmp	r0, #1
 117 0056 1AD8     		bhi	.L3
 118              		.loc 1 460 5 is_stmt 1 discriminator 1 view .LVU23
 119              		.loc 1 460 5 discriminator 1 view .LVU24
 120              		.loc 1 460 5 discriminator 1 view .LVU25
 121 0058 0120     		movs	r0, #1
 122 005a FFF7FEFF 		bl	link_log_level_name
 123              	.LVL10:
 124 005e 8046     		mov	r8, r0
 125 0060 FFF7FEFF 		bl	osal_sys_time
 126              	.LVL11:
 127 0064 0590     		str	r0, [sp, #20]
 128 0066 FFF7FEFF 		bl	lwm2m_gettime
 129              	.LVL12:
 130 006a 4FF4E673 		mov	r3, #460
 131 006e 0293     		str	r3, [sp, #8]
 132 0070 2A4B     		ldr	r3, .L13
 133 0072 059A     		ldr	r2, [sp, #20]
 134 0074 0394     		str	r4, [sp, #12]
 135 0076 CDE90003 		strd	r0, r3, [sp]
 136 007a 4146     		mov	r1, r8
 137 007c 284B     		ldr	r3, .L13+4
 138 007e 2B48     		ldr	r0, .L13+16
 139 0080 FFF7FEFF 		bl	printf
 140              	.LVL13:
 141              		.loc 1 460 5 discriminator 1 view .LVU26
 142 0084 284B     		ldr	r3, .L13+12
 143 0086 1B68     		ldr	r3, [r3]
 144 0088 9868     		ldr	r0, [r3, #8]
 145 008a FFF7FEFF 		bl	fflush
 146              	.LVL14:
 147              	.L3:
 148              		.loc 1 460 5 discriminator 3 view .LVU27
 149              		.loc 1 460 5 discriminator 3 view .LVU28
 150              		.loc 1 460 5 discriminator 3 view .LVU29
 461:C:/Users/²Ü¼ÒºÀ/.iotlink/sdk/IoT_LINK/iot_link/network/lwm2m/wakaama_lwm2m/wakaama-master/core\packet.c ****     if (allocLen == 0) return COAP_500_INTERNAL_SERVER_ERROR;
ARM GAS  C:\Users\²Ü¼ÒºÀ\AppData\Local\Temp\ccepIYuV.s 			page 12


 151              		.loc 1 461 5 discriminator 3 view .LVU30
 152              		.loc 1 461 8 is_stmt 0 discriminator 3 view .LVU31
 153 008e 24B9     		cbnz	r4, .L4
 154              	.LVL15:
 155              	.L6:
 156              		.loc 1 461 31 view .LVU32
 157 0090 A026     		movs	r6, #160
 158              	.LVL16:
 159              	.L5:
 462:C:/Users/²Ü¼ÒºÀ/.iotlink/sdk/IoT_LINK/iot_link/network/lwm2m/wakaama_lwm2m/wakaama-master/core\packet.c **** 
 463:C:/Users/²Ü¼ÒºÀ/.iotlink/sdk/IoT_LINK/iot_link/network/lwm2m/wakaama_lwm2m/wakaama-master/core\packet.c ****     pktBuffer = (uint8_t *)lwm2m_malloc(allocLen);
 464:C:/Users/²Ü¼ÒºÀ/.iotlink/sdk/IoT_LINK/iot_link/network/lwm2m/wakaama_lwm2m/wakaama-master/core\packet.c ****     if (pktBuffer != NULL)
 465:C:/Users/²Ü¼ÒºÀ/.iotlink/sdk/IoT_LINK/iot_link/network/lwm2m/wakaama_lwm2m/wakaama-master/core\packet.c ****     {
 466:C:/Users/²Ü¼ÒºÀ/.iotlink/sdk/IoT_LINK/iot_link/network/lwm2m/wakaama_lwm2m/wakaama-master/core\packet.c ****         pktBufferLen = coap_serialize_message(message, pktBuffer);
 467:C:/Users/²Ü¼ÒºÀ/.iotlink/sdk/IoT_LINK/iot_link/network/lwm2m/wakaama_lwm2m/wakaama-master/core\packet.c ****         LOG_ARG("coap_serialize_message() returned %d", pktBufferLen);
 468:C:/Users/²Ü¼ÒºÀ/.iotlink/sdk/IoT_LINK/iot_link/network/lwm2m/wakaama_lwm2m/wakaama-master/core\packet.c ****         if (0 != pktBufferLen)
 469:C:/Users/²Ü¼ÒºÀ/.iotlink/sdk/IoT_LINK/iot_link/network/lwm2m/wakaama_lwm2m/wakaama-master/core\packet.c ****         {
 470:C:/Users/²Ü¼ÒºÀ/.iotlink/sdk/IoT_LINK/iot_link/network/lwm2m/wakaama_lwm2m/wakaama-master/core\packet.c ****             result = lwm2m_buffer_send(sessionH, pktBuffer, pktBufferLen, contextP->userData);
 471:C:/Users/²Ü¼ÒºÀ/.iotlink/sdk/IoT_LINK/iot_link/network/lwm2m/wakaama_lwm2m/wakaama-master/core\packet.c ****             output_buffer(stderr, (uint8_t *)pktBuffer, pktBufferLen, 0);
 472:C:/Users/²Ü¼ÒºÀ/.iotlink/sdk/IoT_LINK/iot_link/network/lwm2m/wakaama_lwm2m/wakaama-master/core\packet.c ****         }
 473:C:/Users/²Ü¼ÒºÀ/.iotlink/sdk/IoT_LINK/iot_link/network/lwm2m/wakaama_lwm2m/wakaama-master/core\packet.c ****         lwm2m_free(pktBuffer);
 474:C:/Users/²Ü¼ÒºÀ/.iotlink/sdk/IoT_LINK/iot_link/network/lwm2m/wakaama_lwm2m/wakaama-master/core\packet.c ****     }
 475:C:/Users/²Ü¼ÒºÀ/.iotlink/sdk/IoT_LINK/iot_link/network/lwm2m/wakaama_lwm2m/wakaama-master/core\packet.c **** 
 476:C:/Users/²Ü¼ÒºÀ/.iotlink/sdk/IoT_LINK/iot_link/network/lwm2m/wakaama_lwm2m/wakaama-master/core\packet.c ****     return result;
 477:C:/Users/²Ü¼ÒºÀ/.iotlink/sdk/IoT_LINK/iot_link/network/lwm2m/wakaama_lwm2m/wakaama-master/core\packet.c **** }
 160              		.loc 1 477 1 view .LVU33
 161 0092 3046     		mov	r0, r6
 162 0094 06B0     		add	sp, sp, #24
 163              	.LCFI2:
 164              		.cfi_remember_state
 165              		.cfi_def_cfa_offset 24
 166              		@ sp needed
 167 0096 BDE8F081 		pop	{r4, r5, r6, r7, r8, pc}
 168              	.LVL17:
 169              	.L4:
 170              	.LCFI3:
 171              		.cfi_restore_state
 463:C:/Users/²Ü¼ÒºÀ/.iotlink/sdk/IoT_LINK/iot_link/network/lwm2m/wakaama_lwm2m/wakaama-master/core\packet.c ****     if (pktBuffer != NULL)
 172              		.loc 1 463 5 is_stmt 1 view .LVU34
 463:C:/Users/²Ü¼ÒºÀ/.iotlink/sdk/IoT_LINK/iot_link/network/lwm2m/wakaama_lwm2m/wakaama-master/core\packet.c ****     if (pktBuffer != NULL)
 173              		.loc 1 463 28 is_stmt 0 view .LVU35
 174 009a 2046     		mov	r0, r4
 175 009c FFF7FEFF 		bl	lwm2m_malloc
 176              	.LVL18:
 464:C:/Users/²Ü¼ÒºÀ/.iotlink/sdk/IoT_LINK/iot_link/network/lwm2m/wakaama_lwm2m/wakaama-master/core\packet.c ****     {
 177              		.loc 1 464 5 is_stmt 1 view .LVU36
 464:C:/Users/²Ü¼ÒºÀ/.iotlink/sdk/IoT_LINK/iot_link/network/lwm2m/wakaama_lwm2m/wakaama-master/core\packet.c ****     {
 178              		.loc 1 464 8 is_stmt 0 view .LVU37
 179 00a0 0446     		mov	r4, r0
 180              	.LVL19:
 464:C:/Users/²Ü¼ÒºÀ/.iotlink/sdk/IoT_LINK/iot_link/network/lwm2m/wakaama_lwm2m/wakaama-master/core\packet.c ****     {
 181              		.loc 1 464 8 view .LVU38
 182 00a2 0028     		cmp	r0, #0
 183 00a4 F4D0     		beq	.L6
 466:C:/Users/²Ü¼ÒºÀ/.iotlink/sdk/IoT_LINK/iot_link/network/lwm2m/wakaama_lwm2m/wakaama-master/core\packet.c ****         LOG_ARG("coap_serialize_message() returned %d", pktBufferLen);
 184              		.loc 1 466 9 is_stmt 1 view .LVU39
 466:C:/Users/²Ü¼ÒºÀ/.iotlink/sdk/IoT_LINK/iot_link/network/lwm2m/wakaama_lwm2m/wakaama-master/core\packet.c ****         LOG_ARG("coap_serialize_message() returned %d", pktBufferLen);
ARM GAS  C:\Users\²Ü¼ÒºÀ\AppData\Local\Temp\ccepIYuV.s 			page 13


 185              		.loc 1 466 24 is_stmt 0 view .LVU40
 186 00a6 0146     		mov	r1, r0
 187 00a8 2846     		mov	r0, r5
 188              	.LVL20:
 466:C:/Users/²Ü¼ÒºÀ/.iotlink/sdk/IoT_LINK/iot_link/network/lwm2m/wakaama_lwm2m/wakaama-master/core\packet.c ****         LOG_ARG("coap_serialize_message() returned %d", pktBufferLen);
 189              		.loc 1 466 24 view .LVU41
 190 00aa FFF7FEFF 		bl	coap_serialize_message
 191              	.LVL21:
 466:C:/Users/²Ü¼ÒºÀ/.iotlink/sdk/IoT_LINK/iot_link/network/lwm2m/wakaama_lwm2m/wakaama-master/core\packet.c ****         LOG_ARG("coap_serialize_message() returned %d", pktBufferLen);
 192              		.loc 1 466 24 view .LVU42
 193 00ae 0546     		mov	r5, r0
 194              	.LVL22:
 467:C:/Users/²Ü¼ÒºÀ/.iotlink/sdk/IoT_LINK/iot_link/network/lwm2m/wakaama_lwm2m/wakaama-master/core\packet.c ****         if (0 != pktBufferLen)
 195              		.loc 1 467 9 is_stmt 1 view .LVU43
 467:C:/Users/²Ü¼ÒºÀ/.iotlink/sdk/IoT_LINK/iot_link/network/lwm2m/wakaama_lwm2m/wakaama-master/core\packet.c ****         if (0 != pktBufferLen)
 196              		.loc 1 467 9 view .LVU44
 197 00b0 FFF7FEFF 		bl	link_log_level_get
 198              	.LVL23:
 467:C:/Users/²Ü¼ÒºÀ/.iotlink/sdk/IoT_LINK/iot_link/network/lwm2m/wakaama_lwm2m/wakaama-master/core\packet.c ****         if (0 != pktBufferLen)
 199              		.loc 1 467 9 is_stmt 0 view .LVU45
 200 00b4 0128     		cmp	r0, #1
 201 00b6 1AD8     		bhi	.L7
 467:C:/Users/²Ü¼ÒºÀ/.iotlink/sdk/IoT_LINK/iot_link/network/lwm2m/wakaama_lwm2m/wakaama-master/core\packet.c ****         if (0 != pktBufferLen)
 202              		.loc 1 467 9 is_stmt 1 discriminator 1 view .LVU46
 467:C:/Users/²Ü¼ÒºÀ/.iotlink/sdk/IoT_LINK/iot_link/network/lwm2m/wakaama_lwm2m/wakaama-master/core\packet.c ****         if (0 != pktBufferLen)
 203              		.loc 1 467 9 discriminator 1 view .LVU47
 467:C:/Users/²Ü¼ÒºÀ/.iotlink/sdk/IoT_LINK/iot_link/network/lwm2m/wakaama_lwm2m/wakaama-master/core\packet.c ****         if (0 != pktBufferLen)
 204              		.loc 1 467 9 discriminator 1 view .LVU48
 205 00b8 0120     		movs	r0, #1
 206 00ba FFF7FEFF 		bl	link_log_level_name
 207              	.LVL24:
 208 00be 8046     		mov	r8, r0
 209 00c0 FFF7FEFF 		bl	osal_sys_time
 210              	.LVL25:
 211 00c4 0590     		str	r0, [sp, #20]
 212 00c6 FFF7FEFF 		bl	lwm2m_gettime
 213              	.LVL26:
 214 00ca 40F2D313 		movw	r3, #467
 215 00ce 0293     		str	r3, [sp, #8]
 216 00d0 124B     		ldr	r3, .L13
 217 00d2 059A     		ldr	r2, [sp, #20]
 218 00d4 0395     		str	r5, [sp, #12]
 219 00d6 CDE90003 		strd	r0, r3, [sp]
 220 00da 4146     		mov	r1, r8
 221 00dc 104B     		ldr	r3, .L13+4
 222 00de 1448     		ldr	r0, .L13+20
 223 00e0 FFF7FEFF 		bl	printf
 224              	.LVL27:
 467:C:/Users/²Ü¼ÒºÀ/.iotlink/sdk/IoT_LINK/iot_link/network/lwm2m/wakaama_lwm2m/wakaama-master/core\packet.c ****         if (0 != pktBufferLen)
 225              		.loc 1 467 9 discriminator 1 view .LVU49
 226 00e4 104B     		ldr	r3, .L13+12
 227 00e6 1B68     		ldr	r3, [r3]
 228 00e8 9868     		ldr	r0, [r3, #8]
 229 00ea FFF7FEFF 		bl	fflush
 230              	.LVL28:
 231              	.L7:
 467:C:/Users/²Ü¼ÒºÀ/.iotlink/sdk/IoT_LINK/iot_link/network/lwm2m/wakaama_lwm2m/wakaama-master/core\packet.c ****         if (0 != pktBufferLen)
ARM GAS  C:\Users\²Ü¼ÒºÀ\AppData\Local\Temp\ccepIYuV.s 			page 14


 232              		.loc 1 467 9 discriminator 3 view .LVU50
 467:C:/Users/²Ü¼ÒºÀ/.iotlink/sdk/IoT_LINK/iot_link/network/lwm2m/wakaama_lwm2m/wakaama-master/core\packet.c ****         if (0 != pktBufferLen)
 233              		.loc 1 467 9 discriminator 3 view .LVU51
 467:C:/Users/²Ü¼ÒºÀ/.iotlink/sdk/IoT_LINK/iot_link/network/lwm2m/wakaama_lwm2m/wakaama-master/core\packet.c ****         if (0 != pktBufferLen)
 234              		.loc 1 467 9 discriminator 3 view .LVU52
 468:C:/Users/²Ü¼ÒºÀ/.iotlink/sdk/IoT_LINK/iot_link/network/lwm2m/wakaama_lwm2m/wakaama-master/core\packet.c ****         {
 235              		.loc 1 468 9 discriminator 3 view .LVU53
 468:C:/Users/²Ü¼ÒºÀ/.iotlink/sdk/IoT_LINK/iot_link/network/lwm2m/wakaama_lwm2m/wakaama-master/core\packet.c ****         {
 236              		.loc 1 468 12 is_stmt 0 discriminator 3 view .LVU54
 237 00ee 95B1     		cbz	r5, .L9
 470:C:/Users/²Ü¼ÒºÀ/.iotlink/sdk/IoT_LINK/iot_link/network/lwm2m/wakaama_lwm2m/wakaama-master/core\packet.c ****             output_buffer(stderr, (uint8_t *)pktBuffer, pktBufferLen, 0);
 238              		.loc 1 470 13 is_stmt 1 view .LVU55
 470:C:/Users/²Ü¼ÒºÀ/.iotlink/sdk/IoT_LINK/iot_link/network/lwm2m/wakaama_lwm2m/wakaama-master/core\packet.c ****             output_buffer(stderr, (uint8_t *)pktBuffer, pktBufferLen, 0);
 239              		.loc 1 470 22 is_stmt 0 view .LVU56
 240 00f0 7B6B     		ldr	r3, [r7, #52]
 241 00f2 2A46     		mov	r2, r5
 242 00f4 2146     		mov	r1, r4
 243 00f6 3046     		mov	r0, r6
 244 00f8 FFF7FEFF 		bl	lwm2m_buffer_send
 245              	.LVL29:
 471:C:/Users/²Ü¼ÒºÀ/.iotlink/sdk/IoT_LINK/iot_link/network/lwm2m/wakaama_lwm2m/wakaama-master/core\packet.c ****         }
 246              		.loc 1 471 27 view .LVU57
 247 00fc 0A4B     		ldr	r3, .L13+12
 470:C:/Users/²Ü¼ÒºÀ/.iotlink/sdk/IoT_LINK/iot_link/network/lwm2m/wakaama_lwm2m/wakaama-master/core\packet.c ****             output_buffer(stderr, (uint8_t *)pktBuffer, pktBufferLen, 0);
 248              		.loc 1 470 22 view .LVU58
 249 00fe 0646     		mov	r6, r0
 250              	.LVL30:
 471:C:/Users/²Ü¼ÒºÀ/.iotlink/sdk/IoT_LINK/iot_link/network/lwm2m/wakaama_lwm2m/wakaama-master/core\packet.c ****         }
 251              		.loc 1 471 13 is_stmt 1 view .LVU59
 471:C:/Users/²Ü¼ÒºÀ/.iotlink/sdk/IoT_LINK/iot_link/network/lwm2m/wakaama_lwm2m/wakaama-master/core\packet.c ****         }
 252              		.loc 1 471 27 is_stmt 0 view .LVU60
 253 0100 1868     		ldr	r0, [r3]
 471:C:/Users/²Ü¼ÒºÀ/.iotlink/sdk/IoT_LINK/iot_link/network/lwm2m/wakaama_lwm2m/wakaama-master/core\packet.c ****         }
 254              		.loc 1 471 13 view .LVU61
 255 0102 2A46     		mov	r2, r5
 256 0104 C068     		ldr	r0, [r0, #12]
 257 0106 0023     		movs	r3, #0
 258 0108 2146     		mov	r1, r4
 259 010a FFF7FEFF 		bl	output_buffer
 260              	.LVL31:
 261              	.L8:
 473:C:/Users/²Ü¼ÒºÀ/.iotlink/sdk/IoT_LINK/iot_link/network/lwm2m/wakaama_lwm2m/wakaama-master/core\packet.c ****     }
 262              		.loc 1 473 9 is_stmt 1 view .LVU62
 263 010e 2046     		mov	r0, r4
 264 0110 FFF7FEFF 		bl	lwm2m_free
 265              	.LVL32:
 266 0114 BDE7     		b	.L5
 267              	.LVL33:
 268              	.L9:
 453:C:/Users/²Ü¼ÒºÀ/.iotlink/sdk/IoT_LINK/iot_link/network/lwm2m/wakaama_lwm2m/wakaama-master/core\packet.c ****     uint8_t *pktBuffer;
 269              		.loc 1 453 13 is_stmt 0 view .LVU63
 270 0116 A026     		movs	r6, #160
 271              	.LVL34:
 453:C:/Users/²Ü¼ÒºÀ/.iotlink/sdk/IoT_LINK/iot_link/network/lwm2m/wakaama_lwm2m/wakaama-master/core\packet.c ****     uint8_t *pktBuffer;
 272              		.loc 1 453 13 view .LVU64
 273 0118 F9E7     		b	.L8
 274              	.L14:
ARM GAS  C:\Users\²Ü¼ÒºÀ\AppData\Local\Temp\ccepIYuV.s 			page 15


 275 011a 00BF     		.align	2
 276              	.L13:
 277 011c 00000000 		.word	.LANCHOR1
 278 0120 00000000 		.word	.LANCHOR0
 279 0124 00000000 		.word	.LC0
 280 0128 00000000 		.word	_impure_ptr
 281 012c 26000000 		.word	.LC1
 282 0130 58000000 		.word	.LC2
 283              		.cfi_endproc
 284              	.LFE7:
 286              		.section	.rodata.lwm2m_handle_packet.str1.1,"aMS",%progbits,1
 287              	.LC3:
 288 0000 5B25735D 		.ascii	"[%s][%u][%s] [%d][%s:%d] Parsed: ver %u, type %u, t"
 288      5B25755D 
 288      5B25735D 
 288      205B2564 
 288      5D5B2573 
 289 0033 6B6C2025 		.ascii	"kl %u, code %u.%.2u, mid %u, Content type: %d\015\012"
 289      752C2063 
 289      6F646520 
 289      25752E25 
 289      2E32752C 
 290 0062 0D0A00   		.ascii	"\015\012\000"
 291              	.LC4:
 292 0065 5B25735D 		.ascii	"[%s][%u][%s] [%d][%s:%d] Blockwise: block request %"
 292      5B25755D 
 292      5B25735D 
 292      205B2564 
 292      5D5B2573 
 293 0098 75202825 		.ascii	"u (%u/%u) @ %u bytes\015\012\015\012\000"
 293      752F2575 
 293      29204020 
 293      25752062 
 293      79746573 
 294              	.LC5:
 295 00b1 5B25735D 		.ascii	"[%s][%u][%s] [%d][%s:%d] Blockwise: block1 request "
 295      5B25755D 
 295      5B25735D 
 295      205B2564 
 295      5D5B2573 
 296 00e4 4E554D20 		.ascii	"NUM %u (SZX %u/ SZX Max%u) MORE %u\015\012\015\012\000"
 296      25752028 
 296      535A5820 
 296      25752F20 
 296      535A5820 
 297              	.LC6:
 298 010b 5B25735D 		.ascii	"[%s][%u][%s] [%d][%s:%d] Blockwise: unaware resourc"
 298      5B25755D 
 298      5B25735D 
 298      205B2564 
 298      5D5B2573 
 299 013e 65207769 		.ascii	"e with payload length %u/%u\015\012\015\012\000"
 299      74682070 
 299      61796C6F 
 299      6164206C 
 299      656E6774 
 300              	.LC7:
ARM GAS  C:\Users\²Ü¼ÒºÀ\AppData\Local\Temp\ccepIYuV.s 			page 16


 301 015e 5B25735D 		.ascii	"[%s][%u][%s] [%d][%s:%d] handle_incoming_data(): bl"
 301      5B25755D 
 301      5B25735D 
 301      205B2564 
 301      5D5B2573 
 302 0191 6F636B5F 		.ascii	"ock_offset >= response->payload_len\015\012\015\012"
 302      6F666673 
 302      6574203E 
 302      3D207265 
 302      73706F6E 
 303 01b8 00       		.ascii	"\000"
 304              	.LC8:
 305 01b9 426C6F63 		.ascii	"BlockOutOfScope\000"
 305      6B4F7574 
 305      4F665363 
 305      6F706500 
 306              	.LC9:
 307 01c9 5B25735D 		.ascii	"[%s][%u][%s] [%d][%s:%d] Blockwise: blockwise resou"
 307      5B25755D 
 307      5B25735D 
 307      205B2564 
 307      5D5B2573 
 308 01fc 7263652C 		.ascii	"rce, new offset %d\015\012\015\012\000"
 308      206E6577 
 308      206F6666 
 308      73657420 
 308      25640D0A 
 309              	.LC10:
 310 0213 5B25735D 		.ascii	"[%s][%u][%s] [%d][%s:%d] Blockwise: no block option"
 310      5B25755D 
 310      5B25735D 
 310      205B2564 
 310      5D5B2573 
 311 0246 20666F72 		.ascii	" for blockwise resource, using block size %u\015\012"
 311      20626C6F 
 311      636B7769 
 311      73652072 
 311      65736F75 
 312 0274 0D0A00   		.ascii	"\015\012\000"
 313              	.LC11:
 314 0277 5B25735D 		.ascii	"[%s][%u][%s] [%d][%s:%d] Message parsing failed %u."
 314      5B25755D 
 314      5B25735D 
 314      205B2564 
 314      5D5B2573 
 315 02aa 2532750D 		.ascii	"%2u\015\012\015\012\000"
 315      0A0D0A00 
 316              	.LC12:
 317 02b2 5B25735D 		.ascii	"[%s][%u][%s] [%d][%s:%d] ERROR %u: %s\015\012\015\012"
 317      5B25755D 
 317      5B25735D 
 317      205B2564 
 317      5D5B2573 
 318 02db 00       		.ascii	"\000"
 319              		.section	.text.lwm2m_handle_packet,"ax",%progbits
 320              		.align	1
 321              		.global	lwm2m_handle_packet
ARM GAS  C:\Users\²Ü¼ÒºÀ\AppData\Local\Temp\ccepIYuV.s 			page 17


 322              		.syntax unified
 323              		.thumb
 324              		.thumb_func
 325              		.fpu fpv4-sp-d16
 327              	lwm2m_handle_packet:
 328              	.LVL35:
 329              	.LFB6:
 238:C:/Users/²Ü¼ÒºÀ/.iotlink/sdk/IoT_LINK/iot_link/network/lwm2m/wakaama_lwm2m/wakaama-master/core\packet.c ****     uint8_t coap_error_code = NO_ERROR;
 330              		.loc 1 238 1 is_stmt 1 view -0
 331              		.cfi_startproc
 332              		@ args = 0, pretend = 0, frame = 40
 333              		@ frame_needed = 0, uses_anonymous_args = 0
 239:C:/Users/²Ü¼ÒºÀ/.iotlink/sdk/IoT_LINK/iot_link/network/lwm2m/wakaama_lwm2m/wakaama-master/core\packet.c ****     static coap_packet_t message[1];
 334              		.loc 1 239 5 view .LVU66
 240:C:/Users/²Ü¼ÒºÀ/.iotlink/sdk/IoT_LINK/iot_link/network/lwm2m/wakaama_lwm2m/wakaama-master/core\packet.c ****     static coap_packet_t response[1];
 335              		.loc 1 240 5 view .LVU67
 241:C:/Users/²Ü¼ÒºÀ/.iotlink/sdk/IoT_LINK/iot_link/network/lwm2m/wakaama_lwm2m/wakaama-master/core\packet.c **** 
 336              		.loc 1 241 5 view .LVU68
 243:C:/Users/²Ü¼ÒºÀ/.iotlink/sdk/IoT_LINK/iot_link/network/lwm2m/wakaama_lwm2m/wakaama-master/core\packet.c ****     coap_error_code = coap_parse_message(message, buffer, (uint16_t)length);
 337              		.loc 1 243 5 view .LVU69
 243:C:/Users/²Ü¼ÒºÀ/.iotlink/sdk/IoT_LINK/iot_link/network/lwm2m/wakaama_lwm2m/wakaama-master/core\packet.c ****     coap_error_code = coap_parse_message(message, buffer, (uint16_t)length);
 338              		.loc 1 243 5 view .LVU70
 238:C:/Users/²Ü¼ÒºÀ/.iotlink/sdk/IoT_LINK/iot_link/network/lwm2m/wakaama_lwm2m/wakaama-master/core\packet.c ****     uint8_t coap_error_code = NO_ERROR;
 339              		.loc 1 238 1 is_stmt 0 view .LVU71
 340 0000 2DE9F047 		push	{r4, r5, r6, r7, r8, r9, r10, lr}
 341              	.LCFI4:
 342              		.cfi_def_cfa_offset 32
 343              		.cfi_offset 4, -32
 344              		.cfi_offset 5, -28
 345              		.cfi_offset 6, -24
 346              		.cfi_offset 7, -20
 347              		.cfi_offset 8, -16
 348              		.cfi_offset 9, -12
 349              		.cfi_offset 10, -8
 350              		.cfi_offset 14, -4
 351 0004 94B0     		sub	sp, sp, #80
 352              	.LCFI5:
 353              		.cfi_def_cfa_offset 112
 238:C:/Users/²Ü¼ÒºÀ/.iotlink/sdk/IoT_LINK/iot_link/network/lwm2m/wakaama_lwm2m/wakaama-master/core\packet.c ****     uint8_t coap_error_code = NO_ERROR;
 354              		.loc 1 238 1 view .LVU72
 355 0006 0646     		mov	r6, r0
 356 0008 0C46     		mov	r4, r1
 357 000a 9046     		mov	r8, r2
 358 000c 1F46     		mov	r7, r3
 243:C:/Users/²Ü¼ÒºÀ/.iotlink/sdk/IoT_LINK/iot_link/network/lwm2m/wakaama_lwm2m/wakaama-master/core\packet.c ****     coap_error_code = coap_parse_message(message, buffer, (uint16_t)length);
 359              		.loc 1 243 5 view .LVU73
 360 000e FFF7FEFF 		bl	link_log_level_get
 361              	.LVL36:
 243:C:/Users/²Ü¼ÒºÀ/.iotlink/sdk/IoT_LINK/iot_link/network/lwm2m/wakaama_lwm2m/wakaama-master/core\packet.c ****     coap_error_code = coap_parse_message(message, buffer, (uint16_t)length);
 362              		.loc 1 243 5 view .LVU74
 363 0012 0128     		cmp	r0, #1
 364 0014 18D8     		bhi	.L16
 243:C:/Users/²Ü¼ÒºÀ/.iotlink/sdk/IoT_LINK/iot_link/network/lwm2m/wakaama_lwm2m/wakaama-master/core\packet.c ****     coap_error_code = coap_parse_message(message, buffer, (uint16_t)length);
 365              		.loc 1 243 5 is_stmt 1 discriminator 1 view .LVU75
 243:C:/Users/²Ü¼ÒºÀ/.iotlink/sdk/IoT_LINK/iot_link/network/lwm2m/wakaama_lwm2m/wakaama-master/core\packet.c ****     coap_error_code = coap_parse_message(message, buffer, (uint16_t)length);
 366              		.loc 1 243 5 discriminator 1 view .LVU76
 243:C:/Users/²Ü¼ÒºÀ/.iotlink/sdk/IoT_LINK/iot_link/network/lwm2m/wakaama_lwm2m/wakaama-master/core\packet.c ****     coap_error_code = coap_parse_message(message, buffer, (uint16_t)length);
ARM GAS  C:\Users\²Ü¼ÒºÀ\AppData\Local\Temp\ccepIYuV.s 			page 18


 367              		.loc 1 243 5 discriminator 1 view .LVU77
 368 0016 0120     		movs	r0, #1
 369 0018 FFF7FEFF 		bl	link_log_level_name
 370              	.LVL37:
 371 001c 0546     		mov	r5, r0
 372 001e FFF7FEFF 		bl	osal_sys_time
 373              	.LVL38:
 374 0022 0B90     		str	r0, [sp, #44]
 375 0024 FFF7FEFF 		bl	lwm2m_gettime
 376              	.LVL39:
 377 0028 F323     		movs	r3, #243
 378 002a 0293     		str	r3, [sp, #8]
 379 002c B64B     		ldr	r3, .L79
 380 002e 0B9A     		ldr	r2, [sp, #44]
 381 0030 CDE90003 		strd	r0, r3, [sp]
 382 0034 2946     		mov	r1, r5
 383 0036 B54B     		ldr	r3, .L79+4
 384 0038 B548     		ldr	r0, .L79+8
 385 003a FFF7FEFF 		bl	printf
 386              	.LVL40:
 243:C:/Users/²Ü¼ÒºÀ/.iotlink/sdk/IoT_LINK/iot_link/network/lwm2m/wakaama_lwm2m/wakaama-master/core\packet.c ****     coap_error_code = coap_parse_message(message, buffer, (uint16_t)length);
 387              		.loc 1 243 5 discriminator 1 view .LVU78
 388 003e B54B     		ldr	r3, .L79+12
 389 0040 1B68     		ldr	r3, [r3]
 390 0042 9868     		ldr	r0, [r3, #8]
 391 0044 FFF7FEFF 		bl	fflush
 392              	.LVL41:
 393              	.L16:
 243:C:/Users/²Ü¼ÒºÀ/.iotlink/sdk/IoT_LINK/iot_link/network/lwm2m/wakaama_lwm2m/wakaama-master/core\packet.c ****     coap_error_code = coap_parse_message(message, buffer, (uint16_t)length);
 394              		.loc 1 243 5 discriminator 3 view .LVU79
 243:C:/Users/²Ü¼ÒºÀ/.iotlink/sdk/IoT_LINK/iot_link/network/lwm2m/wakaama_lwm2m/wakaama-master/core\packet.c ****     coap_error_code = coap_parse_message(message, buffer, (uint16_t)length);
 395              		.loc 1 243 5 discriminator 3 view .LVU80
 243:C:/Users/²Ü¼ÒºÀ/.iotlink/sdk/IoT_LINK/iot_link/network/lwm2m/wakaama_lwm2m/wakaama-master/core\packet.c ****     coap_error_code = coap_parse_message(message, buffer, (uint16_t)length);
 396              		.loc 1 243 5 discriminator 3 view .LVU81
 244:C:/Users/²Ü¼ÒºÀ/.iotlink/sdk/IoT_LINK/iot_link/network/lwm2m/wakaama_lwm2m/wakaama-master/core\packet.c ****     if (coap_error_code == NO_ERROR)
 397              		.loc 1 244 5 discriminator 3 view .LVU82
 244:C:/Users/²Ü¼ÒºÀ/.iotlink/sdk/IoT_LINK/iot_link/network/lwm2m/wakaama_lwm2m/wakaama-master/core\packet.c ****     if (coap_error_code == NO_ERROR)
 398              		.loc 1 244 23 is_stmt 0 discriminator 3 view .LVU83
 399 0048 B34D     		ldr	r5, .L79+16
 400 004a 2146     		mov	r1, r4
 401 004c 1FFA88F2 		uxth	r2, r8
 402 0050 2846     		mov	r0, r5
 403 0052 FFF7FEFF 		bl	coap_parse_message
 404              	.LVL42:
 245:C:/Users/²Ü¼ÒºÀ/.iotlink/sdk/IoT_LINK/iot_link/network/lwm2m/wakaama_lwm2m/wakaama-master/core\packet.c ****     {
 405              		.loc 1 245 5 is_stmt 1 discriminator 3 view .LVU84
 245:C:/Users/²Ü¼ÒºÀ/.iotlink/sdk/IoT_LINK/iot_link/network/lwm2m/wakaama_lwm2m/wakaama-master/core\packet.c ****     {
 406              		.loc 1 245 8 is_stmt 0 discriminator 3 view .LVU85
 407 0056 0446     		mov	r4, r0
 408              	.LVL43:
 245:C:/Users/²Ü¼ÒºÀ/.iotlink/sdk/IoT_LINK/iot_link/network/lwm2m/wakaama_lwm2m/wakaama-master/core\packet.c ****     {
 409              		.loc 1 245 8 discriminator 3 view .LVU86
 410 0058 0028     		cmp	r0, #0
 411 005a 40F00783 		bne	.L17
 247:C:/Users/²Ü¼ÒºÀ/.iotlink/sdk/IoT_LINK/iot_link/network/lwm2m/wakaama_lwm2m/wakaama-master/core\packet.c ****                 message->version, message->type, message->token_len, message->code >> 5, message->c
 412              		.loc 1 247 9 is_stmt 1 view .LVU87
 247:C:/Users/²Ü¼ÒºÀ/.iotlink/sdk/IoT_LINK/iot_link/network/lwm2m/wakaama_lwm2m/wakaama-master/core\packet.c ****                 message->version, message->type, message->token_len, message->code >> 5, message->c
ARM GAS  C:\Users\²Ü¼ÒºÀ\AppData\Local\Temp\ccepIYuV.s 			page 19


 413              		.loc 1 247 9 view .LVU88
 414 005e FFF7FEFF 		bl	link_log_level_get
 415              	.LVL44:
 247:C:/Users/²Ü¼ÒºÀ/.iotlink/sdk/IoT_LINK/iot_link/network/lwm2m/wakaama_lwm2m/wakaama-master/core\packet.c ****                 message->version, message->type, message->token_len, message->code >> 5, message->c
 416              		.loc 1 247 9 is_stmt 0 view .LVU89
 417 0062 0128     		cmp	r0, #1
 418 0064 29D8     		bhi	.L18
 247:C:/Users/²Ü¼ÒºÀ/.iotlink/sdk/IoT_LINK/iot_link/network/lwm2m/wakaama_lwm2m/wakaama-master/core\packet.c ****                 message->version, message->type, message->token_len, message->code >> 5, message->c
 419              		.loc 1 247 9 is_stmt 1 discriminator 1 view .LVU90
 247:C:/Users/²Ü¼ÒºÀ/.iotlink/sdk/IoT_LINK/iot_link/network/lwm2m/wakaama_lwm2m/wakaama-master/core\packet.c ****                 message->version, message->type, message->token_len, message->code >> 5, message->c
 420              		.loc 1 247 9 discriminator 1 view .LVU91
 247:C:/Users/²Ü¼ÒºÀ/.iotlink/sdk/IoT_LINK/iot_link/network/lwm2m/wakaama_lwm2m/wakaama-master/core\packet.c ****                 message->version, message->type, message->token_len, message->code >> 5, message->c
 421              		.loc 1 247 9 discriminator 1 view .LVU92
 422 0066 0120     		movs	r0, #1
 423 0068 FFF7FEFF 		bl	link_log_level_name
 424              	.LVL45:
 425 006c 8046     		mov	r8, r0
 426              	.LVL46:
 247:C:/Users/²Ü¼ÒºÀ/.iotlink/sdk/IoT_LINK/iot_link/network/lwm2m/wakaama_lwm2m/wakaama-master/core\packet.c ****                 message->version, message->type, message->token_len, message->code >> 5, message->c
 427              		.loc 1 247 9 is_stmt 0 discriminator 1 view .LVU93
 428 006e FFF7FEFF 		bl	osal_sys_time
 429              	.LVL47:
 430 0072 0B90     		str	r0, [sp, #44]
 431 0074 FFF7FEFF 		bl	lwm2m_gettime
 432              	.LVL48:
 433 0078 298A     		ldrh	r1, [r5, #16]
 434 007a AB79     		ldrb	r3, [r5, #6]	@ zero_extendqisi2
 435 007c 0991     		str	r1, [sp, #36]
 436 007e 2989     		ldrh	r1, [r5, #8]
 437 0080 0891     		str	r1, [sp, #32]
 438 0082 03F01F01 		and	r1, r3, #31
 439 0086 5B09     		lsrs	r3, r3, #5
 440 0088 0791     		str	r1, [sp, #28]
 441 008a 0693     		str	r3, [sp, #24]
 442 008c 95F84C30 		ldrb	r3, [r5, #76]	@ zero_extendqisi2
 443 0090 0593     		str	r3, [sp, #20]
 444 0092 6B79     		ldrb	r3, [r5, #5]	@ zero_extendqisi2
 445 0094 0493     		str	r3, [sp, #16]
 446 0096 2B79     		ldrb	r3, [r5, #4]	@ zero_extendqisi2
 447 0098 0393     		str	r3, [sp, #12]
 448 009a F723     		movs	r3, #247
 449 009c 0293     		str	r3, [sp, #8]
 450 009e 9A4B     		ldr	r3, .L79
 451 00a0 0B9A     		ldr	r2, [sp, #44]
 452 00a2 CDE90003 		strd	r0, r3, [sp]
 453 00a6 4146     		mov	r1, r8
 454 00a8 984B     		ldr	r3, .L79+4
 455 00aa 9C48     		ldr	r0, .L79+20
 456 00ac FFF7FEFF 		bl	printf
 457              	.LVL49:
 247:C:/Users/²Ü¼ÒºÀ/.iotlink/sdk/IoT_LINK/iot_link/network/lwm2m/wakaama_lwm2m/wakaama-master/core\packet.c ****                 message->version, message->type, message->token_len, message->code >> 5, message->c
 458              		.loc 1 247 9 is_stmt 1 discriminator 1 view .LVU94
 459 00b0 984B     		ldr	r3, .L79+12
 460 00b2 1B68     		ldr	r3, [r3]
 461 00b4 9868     		ldr	r0, [r3, #8]
 462 00b6 FFF7FEFF 		bl	fflush
 463              	.LVL50:
ARM GAS  C:\Users\²Ü¼ÒºÀ\AppData\Local\Temp\ccepIYuV.s 			page 20


 464              	.L18:
 247:C:/Users/²Ü¼ÒºÀ/.iotlink/sdk/IoT_LINK/iot_link/network/lwm2m/wakaama_lwm2m/wakaama-master/core\packet.c ****                 message->version, message->type, message->token_len, message->code >> 5, message->c
 465              		.loc 1 247 9 discriminator 3 view .LVU95
 247:C:/Users/²Ü¼ÒºÀ/.iotlink/sdk/IoT_LINK/iot_link/network/lwm2m/wakaama_lwm2m/wakaama-master/core\packet.c ****                 message->version, message->type, message->token_len, message->code >> 5, message->c
 466              		.loc 1 247 9 discriminator 3 view .LVU96
 247:C:/Users/²Ü¼ÒºÀ/.iotlink/sdk/IoT_LINK/iot_link/network/lwm2m/wakaama_lwm2m/wakaama-master/core\packet.c ****                 message->version, message->type, message->token_len, message->code >> 5, message->c
 467              		.loc 1 247 9 discriminator 3 view .LVU97
 250:C:/Users/²Ü¼ÒºÀ/.iotlink/sdk/IoT_LINK/iot_link/network/lwm2m/wakaama_lwm2m/wakaama-master/core\packet.c ****         {
 468              		.loc 1 250 9 discriminator 3 view .LVU98
 250:C:/Users/²Ü¼ÒºÀ/.iotlink/sdk/IoT_LINK/iot_link/network/lwm2m/wakaama_lwm2m/wakaama-master/core\packet.c ****         {
 469              		.loc 1 250 39 is_stmt 0 discriminator 3 view .LVU99
 470 00ba AA79     		ldrb	r2, [r5, #6]	@ zero_extendqisi2
 471 00bc 6B79     		ldrb	r3, [r5, #5]	@ zero_extendqisi2
 250:C:/Users/²Ü¼ÒºÀ/.iotlink/sdk/IoT_LINK/iot_link/network/lwm2m/wakaama_lwm2m/wakaama-master/core\packet.c ****         {
 472              		.loc 1 250 12 discriminator 3 view .LVU100
 473 00be 013A     		subs	r2, r2, #1
 474 00c0 032A     		cmp	r2, #3
 475 00c2 00F27582 		bhi	.L19
 476              	.LBB12:
 252:C:/Users/²Ü¼ÒºÀ/.iotlink/sdk/IoT_LINK/iot_link/network/lwm2m/wakaama_lwm2m/wakaama-master/core\packet.c ****             uint16_t block_size = REST_MAX_CHUNK_SIZE;
 477              		.loc 1 252 13 is_stmt 1 view .LVU101
 252:C:/Users/²Ü¼ÒºÀ/.iotlink/sdk/IoT_LINK/iot_link/network/lwm2m/wakaama_lwm2m/wakaama-master/core\packet.c ****             uint16_t block_size = REST_MAX_CHUNK_SIZE;
 478              		.loc 1 252 22 is_stmt 0 view .LVU102
 479 00c6 0022     		movs	r2, #0
 253:C:/Users/²Ü¼ÒºÀ/.iotlink/sdk/IoT_LINK/iot_link/network/lwm2m/wakaama_lwm2m/wakaama-master/core\packet.c ****             uint32_t block_offset = 0;
 480              		.loc 1 253 22 view .LVU103
 481 00c8 8021     		movs	r1, #128
 252:C:/Users/²Ü¼ÒºÀ/.iotlink/sdk/IoT_LINK/iot_link/network/lwm2m/wakaama_lwm2m/wakaama-master/core\packet.c ****             uint16_t block_size = REST_MAX_CHUNK_SIZE;
 482              		.loc 1 252 22 view .LVU104
 483 00ca 0F92     		str	r2, [sp, #60]
 253:C:/Users/²Ü¼ÒºÀ/.iotlink/sdk/IoT_LINK/iot_link/network/lwm2m/wakaama_lwm2m/wakaama-master/core\packet.c ****             uint32_t block_offset = 0;
 484              		.loc 1 253 13 is_stmt 1 view .LVU105
 253:C:/Users/²Ü¼ÒºÀ/.iotlink/sdk/IoT_LINK/iot_link/network/lwm2m/wakaama_lwm2m/wakaama-master/core\packet.c ****             uint32_t block_offset = 0;
 485              		.loc 1 253 22 is_stmt 0 view .LVU106
 486 00cc ADF83810 		strh	r1, [sp, #56]	@ movhi
 254:C:/Users/²Ü¼ÒºÀ/.iotlink/sdk/IoT_LINK/iot_link/network/lwm2m/wakaama_lwm2m/wakaama-master/core\packet.c ****             int64_t new_offset = 0;
 487              		.loc 1 254 13 is_stmt 1 view .LVU107
 254:C:/Users/²Ü¼ÒºÀ/.iotlink/sdk/IoT_LINK/iot_link/network/lwm2m/wakaama_lwm2m/wakaama-master/core\packet.c ****             int64_t new_offset = 0;
 488              		.loc 1 254 22 is_stmt 0 view .LVU108
 489 00d0 1092     		str	r2, [sp, #64]
 255:C:/Users/²Ü¼ÒºÀ/.iotlink/sdk/IoT_LINK/iot_link/network/lwm2m/wakaama_lwm2m/wakaama-master/core\packet.c **** 
 490              		.loc 1 255 13 is_stmt 1 view .LVU109
 491              	.LVL51:
 258:C:/Users/²Ü¼ÒºÀ/.iotlink/sdk/IoT_LINK/iot_link/network/lwm2m/wakaama_lwm2m/wakaama-master/core\packet.c ****             {
 492              		.loc 1 258 13 view .LVU110
 258:C:/Users/²Ü¼ÒºÀ/.iotlink/sdk/IoT_LINK/iot_link/network/lwm2m/wakaama_lwm2m/wakaama-master/core\packet.c ****             {
 493              		.loc 1 258 16 is_stmt 0 view .LVU111
 494 00d2 002B     		cmp	r3, #0
 495 00d4 40F0B281 		bne	.L20
 261:C:/Users/²Ü¼ÒºÀ/.iotlink/sdk/IoT_LINK/iot_link/network/lwm2m/wakaama_lwm2m/wakaama-master/core\packet.c ****             }
 496              		.loc 1 261 17 is_stmt 1 view .LVU112
 497 00d8 2B89     		ldrh	r3, [r5, #8]
 498 00da 4522     		movs	r2, #69
 499 00dc 0221     		movs	r1, #2
 500              	.L74:
 266:C:/Users/²Ü¼ÒºÀ/.iotlink/sdk/IoT_LINK/iot_link/network/lwm2m/wakaama_lwm2m/wakaama-master/core\packet.c ****             }
 501              		.loc 1 266 17 is_stmt 0 view .LVU113
ARM GAS  C:\Users\²Ü¼ÒºÀ\AppData\Local\Temp\ccepIYuV.s 			page 21


 502 00de 9048     		ldr	r0, .L79+24
 503 00e0 FFF7FEFF 		bl	coap_init_message
 504              	.LVL52:
 270:C:/Users/²Ü¼ÒºÀ/.iotlink/sdk/IoT_LINK/iot_link/network/lwm2m/wakaama_lwm2m/wakaama-master/core\packet.c ****             {
 505              		.loc 1 270 13 is_stmt 1 view .LVU114
 270:C:/Users/²Ü¼ÒºÀ/.iotlink/sdk/IoT_LINK/iot_link/network/lwm2m/wakaama_lwm2m/wakaama-master/core\packet.c ****             {
 506              		.loc 1 270 24 is_stmt 0 view .LVU115
 507 00e4 95F84C20 		ldrb	r2, [r5, #76]	@ zero_extendqisi2
 270:C:/Users/²Ü¼ÒºÀ/.iotlink/sdk/IoT_LINK/iot_link/network/lwm2m/wakaama_lwm2m/wakaama-master/core\packet.c ****             {
 508              		.loc 1 270 16 view .LVU116
 509 00e8 1AB1     		cbz	r2, .L22
 272:C:/Users/²Ü¼ÒºÀ/.iotlink/sdk/IoT_LINK/iot_link/network/lwm2m/wakaama_lwm2m/wakaama-master/core\packet.c ****             }
 510              		.loc 1 272 17 is_stmt 1 view .LVU117
 511 00ea 8E49     		ldr	r1, .L79+28
 512 00ec 8C48     		ldr	r0, .L79+24
 513 00ee FFF7FEFF 		bl	coap_set_header_token
 514              	.LVL53:
 515              	.L22:
 276:C:/Users/²Ü¼ÒºÀ/.iotlink/sdk/IoT_LINK/iot_link/network/lwm2m/wakaama_lwm2m/wakaama-master/core\packet.c ****             {
 516              		.loc 1 276 13 view .LVU118
 276:C:/Users/²Ü¼ÒºÀ/.iotlink/sdk/IoT_LINK/iot_link/network/lwm2m/wakaama_lwm2m/wakaama-master/core\packet.c ****             {
 517              		.loc 1 276 17 is_stmt 0 view .LVU119
 518 00f2 10AB     		add	r3, sp, #64
 519 00f4 0093     		str	r3, [sp]
 520 00f6 8848     		ldr	r0, .L79+16
 521 00f8 0EAB     		add	r3, sp, #56
 522 00fa 0022     		movs	r2, #0
 523 00fc 0FA9     		add	r1, sp, #60
 524 00fe FFF7FEFF 		bl	coap_get_header_block2
 525              	.LVL54:
 276:C:/Users/²Ü¼ÒºÀ/.iotlink/sdk/IoT_LINK/iot_link/network/lwm2m/wakaama_lwm2m/wakaama-master/core\packet.c ****             {
 526              		.loc 1 276 16 view .LVU120
 527 0102 0028     		cmp	r0, #0
 528 0104 00F0A081 		beq	.L56
 278:C:/Users/²Ü¼ÒºÀ/.iotlink/sdk/IoT_LINK/iot_link/network/lwm2m/wakaama_lwm2m/wakaama-master/core\packet.c ****                 block_size = MIN(block_size, REST_MAX_CHUNK_SIZE);
 529              		.loc 1 278 17 is_stmt 1 view .LVU121
 278:C:/Users/²Ü¼ÒºÀ/.iotlink/sdk/IoT_LINK/iot_link/network/lwm2m/wakaama_lwm2m/wakaama-master/core\packet.c ****                 block_size = MIN(block_size, REST_MAX_CHUNK_SIZE);
 530              		.loc 1 278 17 view .LVU122
 531 0108 FFF7FEFF 		bl	link_log_level_get
 532              	.LVL55:
 533 010c 0128     		cmp	r0, #1
 534 010e 22D8     		bhi	.L24
 278:C:/Users/²Ü¼ÒºÀ/.iotlink/sdk/IoT_LINK/iot_link/network/lwm2m/wakaama_lwm2m/wakaama-master/core\packet.c ****                 block_size = MIN(block_size, REST_MAX_CHUNK_SIZE);
 535              		.loc 1 278 17 discriminator 1 view .LVU123
 278:C:/Users/²Ü¼ÒºÀ/.iotlink/sdk/IoT_LINK/iot_link/network/lwm2m/wakaama_lwm2m/wakaama-master/core\packet.c ****                 block_size = MIN(block_size, REST_MAX_CHUNK_SIZE);
 536              		.loc 1 278 17 discriminator 1 view .LVU124
 278:C:/Users/²Ü¼ÒºÀ/.iotlink/sdk/IoT_LINK/iot_link/network/lwm2m/wakaama_lwm2m/wakaama-master/core\packet.c ****                 block_size = MIN(block_size, REST_MAX_CHUNK_SIZE);
 537              		.loc 1 278 17 discriminator 1 view .LVU125
 538 0110 0120     		movs	r0, #1
 539 0112 FFF7FEFF 		bl	link_log_level_name
 540              	.LVL56:
 541 0116 0446     		mov	r4, r0
 542 0118 FFF7FEFF 		bl	osal_sys_time
 543              	.LVL57:
 544 011c 0B90     		str	r0, [sp, #44]
 545 011e FFF7FEFF 		bl	lwm2m_gettime
 546              	.LVL58:
ARM GAS  C:\Users\²Ü¼ÒºÀ\AppData\Local\Temp\ccepIYuV.s 			page 22


 547 0122 109B     		ldr	r3, [sp, #64]
 548 0124 0693     		str	r3, [sp, #24]
 549 0126 8023     		movs	r3, #128
 550 0128 0593     		str	r3, [sp, #20]
 551 012a BDF83830 		ldrh	r3, [sp, #56]
 552 012e 0493     		str	r3, [sp, #16]
 553 0130 0F9B     		ldr	r3, [sp, #60]
 554 0132 0393     		str	r3, [sp, #12]
 555 0134 4FF48B73 		mov	r3, #278
 556 0138 0293     		str	r3, [sp, #8]
 557 013a 734B     		ldr	r3, .L79
 558 013c 0B9A     		ldr	r2, [sp, #44]
 559 013e CDE90003 		strd	r0, r3, [sp]
 560 0142 2146     		mov	r1, r4
 561 0144 714B     		ldr	r3, .L79+4
 562 0146 7848     		ldr	r0, .L79+32
 563 0148 FFF7FEFF 		bl	printf
 564              	.LVL59:
 278:C:/Users/²Ü¼ÒºÀ/.iotlink/sdk/IoT_LINK/iot_link/network/lwm2m/wakaama_lwm2m/wakaama-master/core\packet.c ****                 block_size = MIN(block_size, REST_MAX_CHUNK_SIZE);
 565              		.loc 1 278 17 discriminator 1 view .LVU126
 566 014c 714B     		ldr	r3, .L79+12
 567 014e 1B68     		ldr	r3, [r3]
 568 0150 9868     		ldr	r0, [r3, #8]
 569 0152 FFF7FEFF 		bl	fflush
 570              	.LVL60:
 571              	.L24:
 278:C:/Users/²Ü¼ÒºÀ/.iotlink/sdk/IoT_LINK/iot_link/network/lwm2m/wakaama_lwm2m/wakaama-master/core\packet.c ****                 block_size = MIN(block_size, REST_MAX_CHUNK_SIZE);
 572              		.loc 1 278 17 discriminator 3 view .LVU127
 278:C:/Users/²Ü¼ÒºÀ/.iotlink/sdk/IoT_LINK/iot_link/network/lwm2m/wakaama_lwm2m/wakaama-master/core\packet.c ****                 block_size = MIN(block_size, REST_MAX_CHUNK_SIZE);
 573              		.loc 1 278 17 discriminator 3 view .LVU128
 278:C:/Users/²Ü¼ÒºÀ/.iotlink/sdk/IoT_LINK/iot_link/network/lwm2m/wakaama_lwm2m/wakaama-master/core\packet.c ****                 block_size = MIN(block_size, REST_MAX_CHUNK_SIZE);
 574              		.loc 1 278 17 discriminator 3 view .LVU129
 279:C:/Users/²Ü¼ÒºÀ/.iotlink/sdk/IoT_LINK/iot_link/network/lwm2m/wakaama_lwm2m/wakaama-master/core\packet.c ****                 new_offset = block_offset;
 575              		.loc 1 279 17 discriminator 3 view .LVU130
 279:C:/Users/²Ü¼ÒºÀ/.iotlink/sdk/IoT_LINK/iot_link/network/lwm2m/wakaama_lwm2m/wakaama-master/core\packet.c ****                 new_offset = block_offset;
 576              		.loc 1 279 30 is_stmt 0 discriminator 3 view .LVU131
 577 0156 BDF83830 		ldrh	r3, [sp, #56]
 578 015a 802B     		cmp	r3, #128
 579 015c 28BF     		it	cs
 580 015e 8023     		movcs	r3, #128
 279:C:/Users/²Ü¼ÒºÀ/.iotlink/sdk/IoT_LINK/iot_link/network/lwm2m/wakaama_lwm2m/wakaama-master/core\packet.c ****                 new_offset = block_offset;
 581              		.loc 1 279 28 discriminator 3 view .LVU132
 582 0160 ADF83830 		strh	r3, [sp, #56]	@ movhi
 280:C:/Users/²Ü¼ÒºÀ/.iotlink/sdk/IoT_LINK/iot_link/network/lwm2m/wakaama_lwm2m/wakaama-master/core\packet.c ****             }
 583              		.loc 1 280 17 is_stmt 1 discriminator 3 view .LVU133
 280:C:/Users/²Ü¼ÒºÀ/.iotlink/sdk/IoT_LINK/iot_link/network/lwm2m/wakaama_lwm2m/wakaama-master/core\packet.c ****             }
 584              		.loc 1 280 28 is_stmt 0 discriminator 3 view .LVU134
 585 0164 109B     		ldr	r3, [sp, #64]
 586 0166 9846     		mov	r8, r3
 587              	.L75:
 284:C:/Users/²Ü¼ÒºÀ/.iotlink/sdk/IoT_LINK/iot_link/network/lwm2m/wakaama_lwm2m/wakaama-master/core\packet.c ****             {
 588              		.loc 1 284 16 view .LVU135
 589 0168 6B7B     		ldrb	r3, [r5, #13]	@ zero_extendqisi2
 590 016a 1907     		lsls	r1, r3, #28
 255:C:/Users/²Ü¼ÒºÀ/.iotlink/sdk/IoT_LINK/iot_link/network/lwm2m/wakaama_lwm2m/wakaama-master/core\packet.c **** 
 591              		.loc 1 255 21 view .LVU136
 592 016c 4FF00009 		mov	r9, #0
ARM GAS  C:\Users\²Ü¼ÒºÀ\AppData\Local\Temp\ccepIYuV.s 			page 23


 593              	.LVL61:
 284:C:/Users/²Ü¼ÒºÀ/.iotlink/sdk/IoT_LINK/iot_link/network/lwm2m/wakaama_lwm2m/wakaama-master/core\packet.c ****             {
 594              		.loc 1 284 13 is_stmt 1 view .LVU137
 284:C:/Users/²Ü¼ÒºÀ/.iotlink/sdk/IoT_LINK/iot_link/network/lwm2m/wakaama_lwm2m/wakaama-master/core\packet.c ****             {
 595              		.loc 1 284 16 is_stmt 0 view .LVU138
 596 0170 5CD5     		bpl	.L25
 597              	.LBB13:
 288:C:/Users/²Ü¼ÒºÀ/.iotlink/sdk/IoT_LINK/iot_link/network/lwm2m/wakaama_lwm2m/wakaama-master/core\packet.c ****                 serverP = utils_findServer(contextP, fromSessionH);
 598              		.loc 1 288 17 is_stmt 1 view .LVU139
 289:C:/Users/²Ü¼ÒºÀ/.iotlink/sdk/IoT_LINK/iot_link/network/lwm2m/wakaama_lwm2m/wakaama-master/core\packet.c **** #ifdef LWM2M_BOOTSTRAP
 599              		.loc 1 289 17 view .LVU140
 289:C:/Users/²Ü¼ÒºÀ/.iotlink/sdk/IoT_LINK/iot_link/network/lwm2m/wakaama_lwm2m/wakaama-master/core\packet.c **** #ifdef LWM2M_BOOTSTRAP
 600              		.loc 1 289 27 is_stmt 0 view .LVU141
 601 0172 3946     		mov	r1, r7
 602 0174 3046     		mov	r0, r6
 603 0176 FFF7FEFF 		bl	utils_findServer
 604              	.LVL62:
 296:C:/Users/²Ü¼ÒºÀ/.iotlink/sdk/IoT_LINK/iot_link/network/lwm2m/wakaama_lwm2m/wakaama-master/core\packet.c ****                 {
 605              		.loc 1 296 17 is_stmt 1 view .LVU142
 296:C:/Users/²Ü¼ÒºÀ/.iotlink/sdk/IoT_LINK/iot_link/network/lwm2m/wakaama_lwm2m/wakaama-master/core\packet.c ****                 {
 606              		.loc 1 296 20 is_stmt 0 view .LVU143
 607 017a 0446     		mov	r4, r0
 608 017c 0028     		cmp	r0, #0
 609 017e 00F01382 		beq	.L57
 610              	.LBB14:
 302:C:/Users/²Ü¼ÒºÀ/.iotlink/sdk/IoT_LINK/iot_link/network/lwm2m/wakaama_lwm2m/wakaama-master/core\packet.c ****                     uint8_t  block1_more;
 611              		.loc 1 302 21 is_stmt 1 view .LVU144
 303:C:/Users/²Ü¼ÒºÀ/.iotlink/sdk/IoT_LINK/iot_link/network/lwm2m/wakaama_lwm2m/wakaama-master/core\packet.c ****                     uint16_t block1_size;
 612              		.loc 1 303 21 view .LVU145
 304:C:/Users/²Ü¼ÒºÀ/.iotlink/sdk/IoT_LINK/iot_link/network/lwm2m/wakaama_lwm2m/wakaama-master/core\packet.c ****                     uint8_t *complete_buffer = NULL;
 613              		.loc 1 304 21 view .LVU146
 305:C:/Users/²Ü¼ÒºÀ/.iotlink/sdk/IoT_LINK/iot_link/network/lwm2m/wakaama_lwm2m/wakaama-master/core\packet.c ****                     size_t complete_buffer_size;
 614              		.loc 1 305 21 view .LVU147
 305:C:/Users/²Ü¼ÒºÀ/.iotlink/sdk/IoT_LINK/iot_link/network/lwm2m/wakaama_lwm2m/wakaama-master/core\packet.c ****                     size_t complete_buffer_size;
 615              		.loc 1 305 30 is_stmt 0 view .LVU148
 616 0182 0023     		movs	r3, #0
 617 0184 1293     		str	r3, [sp, #72]
 306:C:/Users/²Ü¼ÒºÀ/.iotlink/sdk/IoT_LINK/iot_link/network/lwm2m/wakaama_lwm2m/wakaama-master/core\packet.c **** 
 618              		.loc 1 306 21 is_stmt 1 view .LVU149
 309:C:/Users/²Ü¼ÒºÀ/.iotlink/sdk/IoT_LINK/iot_link/network/lwm2m/wakaama_lwm2m/wakaama-master/core\packet.c ****                     LOG_ARG("Blockwise: block1 request NUM %u (SZX %u/ SZX Max%u) MORE %u", (unsign
 619              		.loc 1 309 21 view .LVU150
 620 0186 0093     		str	r3, [sp]
 621 0188 0DF13702 		add	r2, sp, #55
 622 018c 0DF13A03 		add	r3, sp, #58
 623 0190 11A9     		add	r1, sp, #68
 624 0192 6148     		ldr	r0, .L79+16
 625              	.LVL63:
 309:C:/Users/²Ü¼ÒºÀ/.iotlink/sdk/IoT_LINK/iot_link/network/lwm2m/wakaama_lwm2m/wakaama-master/core\packet.c ****                     LOG_ARG("Blockwise: block1 request NUM %u (SZX %u/ SZX Max%u) MORE %u", (unsign
 626              		.loc 1 309 21 is_stmt 0 view .LVU151
 627 0194 FFF7FEFF 		bl	coap_get_header_block1
 628              	.LVL64:
 310:C:/Users/²Ü¼ÒºÀ/.iotlink/sdk/IoT_LINK/iot_link/network/lwm2m/wakaama_lwm2m/wakaama-master/core\packet.c **** 
 629              		.loc 1 310 21 is_stmt 1 view .LVU152
 310:C:/Users/²Ü¼ÒºÀ/.iotlink/sdk/IoT_LINK/iot_link/network/lwm2m/wakaama_lwm2m/wakaama-master/core\packet.c **** 
 630              		.loc 1 310 21 view .LVU153
 631 0198 FFF7FEFF 		bl	link_log_level_get
 632              	.LVL65:
ARM GAS  C:\Users\²Ü¼ÒºÀ\AppData\Local\Temp\ccepIYuV.s 			page 24


 633 019c 0128     		cmp	r0, #1
 634 019e 23D8     		bhi	.L27
 310:C:/Users/²Ü¼ÒºÀ/.iotlink/sdk/IoT_LINK/iot_link/network/lwm2m/wakaama_lwm2m/wakaama-master/core\packet.c **** 
 635              		.loc 1 310 21 discriminator 1 view .LVU154
 310:C:/Users/²Ü¼ÒºÀ/.iotlink/sdk/IoT_LINK/iot_link/network/lwm2m/wakaama_lwm2m/wakaama-master/core\packet.c **** 
 636              		.loc 1 310 21 discriminator 1 view .LVU155
 310:C:/Users/²Ü¼ÒºÀ/.iotlink/sdk/IoT_LINK/iot_link/network/lwm2m/wakaama_lwm2m/wakaama-master/core\packet.c **** 
 637              		.loc 1 310 21 discriminator 1 view .LVU156
 638 01a0 0120     		movs	r0, #1
 639 01a2 FFF7FEFF 		bl	link_log_level_name
 640              	.LVL66:
 641 01a6 8246     		mov	r10, r0
 642 01a8 FFF7FEFF 		bl	osal_sys_time
 643              	.LVL67:
 644 01ac 0B90     		str	r0, [sp, #44]
 645 01ae FFF7FEFF 		bl	lwm2m_gettime
 646              	.LVL68:
 647 01b2 9DF83730 		ldrb	r3, [sp, #55]	@ zero_extendqisi2
 648 01b6 0693     		str	r3, [sp, #24]
 649 01b8 8023     		movs	r3, #128
 650 01ba 0593     		str	r3, [sp, #20]
 651 01bc BDF83A30 		ldrh	r3, [sp, #58]
 652 01c0 0493     		str	r3, [sp, #16]
 653 01c2 119B     		ldr	r3, [sp, #68]
 654 01c4 0393     		str	r3, [sp, #12]
 655 01c6 4FF49B73 		mov	r3, #310
 656 01ca 0293     		str	r3, [sp, #8]
 657 01cc 4E4B     		ldr	r3, .L79
 658 01ce 0B9A     		ldr	r2, [sp, #44]
 659 01d0 CDE90003 		strd	r0, r3, [sp]
 660 01d4 5146     		mov	r1, r10
 661 01d6 4D4B     		ldr	r3, .L79+4
 662 01d8 5448     		ldr	r0, .L79+36
 663 01da FFF7FEFF 		bl	printf
 664              	.LVL69:
 310:C:/Users/²Ü¼ÒºÀ/.iotlink/sdk/IoT_LINK/iot_link/network/lwm2m/wakaama_lwm2m/wakaama-master/core\packet.c **** 
 665              		.loc 1 310 21 discriminator 1 view .LVU157
 666 01de 4D4B     		ldr	r3, .L79+12
 667 01e0 1B68     		ldr	r3, [r3]
 668 01e2 9868     		ldr	r0, [r3, #8]
 669 01e4 FFF7FEFF 		bl	fflush
 670              	.LVL70:
 671              	.L27:
 310:C:/Users/²Ü¼ÒºÀ/.iotlink/sdk/IoT_LINK/iot_link/network/lwm2m/wakaama_lwm2m/wakaama-master/core\packet.c **** 
 672              		.loc 1 310 21 discriminator 3 view .LVU158
 310:C:/Users/²Ü¼ÒºÀ/.iotlink/sdk/IoT_LINK/iot_link/network/lwm2m/wakaama_lwm2m/wakaama-master/core\packet.c **** 
 673              		.loc 1 310 21 discriminator 3 view .LVU159
 310:C:/Users/²Ü¼ÒºÀ/.iotlink/sdk/IoT_LINK/iot_link/network/lwm2m/wakaama_lwm2m/wakaama-master/core\packet.c **** 
 674              		.loc 1 310 21 discriminator 3 view .LVU160
 313:C:/Users/²Ü¼ÒºÀ/.iotlink/sdk/IoT_LINK/iot_link/network/lwm2m/wakaama_lwm2m/wakaama-master/core\packet.c **** 
 675              		.loc 1 313 21 discriminator 3 view .LVU161
 313:C:/Users/²Ü¼ÒºÀ/.iotlink/sdk/IoT_LINK/iot_link/network/lwm2m/wakaama_lwm2m/wakaama-master/core\packet.c **** 
 676              		.loc 1 313 39 is_stmt 0 discriminator 3 view .LVU162
 677 01e8 13AB     		add	r3, sp, #76
 678 01ea 0493     		str	r3, [sp, #16]
 679 01ec 12AB     		add	r3, sp, #72
 680 01ee 0393     		str	r3, [sp, #12]
ARM GAS  C:\Users\²Ü¼ÒºÀ\AppData\Local\Temp\ccepIYuV.s 			page 25


 681 01f0 9DF83730 		ldrb	r3, [sp, #55]	@ zero_extendqisi2
 682 01f4 003B     		subs	r3, r3, #0
 683 01f6 18BF     		it	ne
 684 01f8 0123     		movne	r3, #1
 685 01fa 0293     		str	r3, [sp, #8]
 686 01fc 119B     		ldr	r3, [sp, #68]
 687 01fe 0193     		str	r3, [sp, #4]
 688 0200 BDF83A30 		ldrh	r3, [sp, #58]
 689 0204 0093     		str	r3, [sp]
 690 0206 04F12C00 		add	r0, r4, #44
 691 020a B5F88630 		ldrh	r3, [r5, #134]
 692 020e D5F88820 		ldr	r2, [r5, #136]
 693 0212 2989     		ldrh	r1, [r5, #8]
 694 0214 FFF7FEFF 		bl	coap_block1_handler
 695              	.LVL71:
 316:C:/Users/²Ü¼ÒºÀ/.iotlink/sdk/IoT_LINK/iot_link/network/lwm2m/wakaama_lwm2m/wakaama-master/core\packet.c ****                     {
 696              		.loc 1 316 21 is_stmt 1 discriminator 3 view .LVU163
 316:C:/Users/²Ü¼ÒºÀ/.iotlink/sdk/IoT_LINK/iot_link/network/lwm2m/wakaama_lwm2m/wakaama-master/core\packet.c ****                     {
 697              		.loc 1 316 24 is_stmt 0 discriminator 3 view .LVU164
 698 0218 0446     		mov	r4, r0
 699              	.LVL72:
 316:C:/Users/²Ü¼ÒºÀ/.iotlink/sdk/IoT_LINK/iot_link/network/lwm2m/wakaama_lwm2m/wakaama-master/core\packet.c ****                     {
 700              		.loc 1 316 24 discriminator 3 view .LVU165
 701 021a 0028     		cmp	r0, #0
 702 021c 40F01781 		bne	.L28
 318:C:/Users/²Ü¼ÒºÀ/.iotlink/sdk/IoT_LINK/iot_link/network/lwm2m/wakaama_lwm2m/wakaama-master/core\packet.c ****                         message->payload_len = complete_buffer_size;
 703              		.loc 1 318 25 is_stmt 1 view .LVU166
 318:C:/Users/²Ü¼ÒºÀ/.iotlink/sdk/IoT_LINK/iot_link/network/lwm2m/wakaama_lwm2m/wakaama-master/core\packet.c ****                         message->payload_len = complete_buffer_size;
 704              		.loc 1 318 42 is_stmt 0 view .LVU167
 705 0220 129B     		ldr	r3, [sp, #72]
 706 0222 C5F88830 		str	r3, [r5, #136]
 319:C:/Users/²Ü¼ÒºÀ/.iotlink/sdk/IoT_LINK/iot_link/network/lwm2m/wakaama_lwm2m/wakaama-master/core\packet.c ****                     }
 707              		.loc 1 319 25 is_stmt 1 view .LVU168
 319:C:/Users/²Ü¼ÒºÀ/.iotlink/sdk/IoT_LINK/iot_link/network/lwm2m/wakaama_lwm2m/wakaama-master/core\packet.c ****                     }
 708              		.loc 1 319 46 is_stmt 0 view .LVU169
 709 0226 139B     		ldr	r3, [sp, #76]
 710 0228 A5F88630 		strh	r3, [r5, #134]	@ movhi
 711              	.LVL73:
 319:C:/Users/²Ü¼ÒºÀ/.iotlink/sdk/IoT_LINK/iot_link/network/lwm2m/wakaama_lwm2m/wakaama-master/core\packet.c ****                     }
 712              		.loc 1 319 46 view .LVU170
 713              	.LBE14:
 714              	.LBE13:
 331:C:/Users/²Ü¼ÒºÀ/.iotlink/sdk/IoT_LINK/iot_link/network/lwm2m/wakaama_lwm2m/wakaama-master/core\packet.c ****             {
 715              		.loc 1 331 13 is_stmt 1 view .LVU171
 716              	.L25:
 333:C:/Users/²Ü¼ÒºÀ/.iotlink/sdk/IoT_LINK/iot_link/network/lwm2m/wakaama_lwm2m/wakaama-master/core\packet.c ****             }
 717              		.loc 1 333 17 view .LVU172
 718              	.LBB16:
 719              	.LBI16:
 140:C:/Users/²Ü¼ÒºÀ/.iotlink/sdk/IoT_LINK/iot_link/network/lwm2m/wakaama_lwm2m/wakaama-master/core\packet.c ****                               void *fromSessionH,
 720              		.loc 1 140 16 view .LVU173
 721              	.LBB17:
 145:C:/Users/²Ü¼ÒºÀ/.iotlink/sdk/IoT_LINK/iot_link/network/lwm2m/wakaama_lwm2m/wakaama-master/core\packet.c ****     uint8_t result = COAP_IGNORE;
 722              		.loc 1 145 5 view .LVU174
 146:C:/Users/²Ü¼ÒºÀ/.iotlink/sdk/IoT_LINK/iot_link/network/lwm2m/wakaama_lwm2m/wakaama-master/core\packet.c **** 
 723              		.loc 1 146 5 view .LVU175
 148:C:/Users/²Ü¼ÒºÀ/.iotlink/sdk/IoT_LINK/iot_link/network/lwm2m/wakaama_lwm2m/wakaama-master/core\packet.c **** 
ARM GAS  C:\Users\²Ü¼ÒºÀ\AppData\Local\Temp\ccepIYuV.s 			page 26


 724              		.loc 1 148 5 view .LVU176
 148:C:/Users/²Ü¼ÒºÀ/.iotlink/sdk/IoT_LINK/iot_link/network/lwm2m/wakaama_lwm2m/wakaama-master/core\packet.c **** 
 725              		.loc 1 148 5 view .LVU177
 726 022c FFF7FEFF 		bl	link_log_level_get
 727              	.LVL74:
 728 0230 0128     		cmp	r0, #1
 729 0232 18D8     		bhi	.L30
 148:C:/Users/²Ü¼ÒºÀ/.iotlink/sdk/IoT_LINK/iot_link/network/lwm2m/wakaama_lwm2m/wakaama-master/core\packet.c **** 
 730              		.loc 1 148 5 view .LVU178
 148:C:/Users/²Ü¼ÒºÀ/.iotlink/sdk/IoT_LINK/iot_link/network/lwm2m/wakaama_lwm2m/wakaama-master/core\packet.c **** 
 731              		.loc 1 148 5 view .LVU179
 148:C:/Users/²Ü¼ÒºÀ/.iotlink/sdk/IoT_LINK/iot_link/network/lwm2m/wakaama_lwm2m/wakaama-master/core\packet.c **** 
 732              		.loc 1 148 5 view .LVU180
 733 0234 0120     		movs	r0, #1
 734 0236 FFF7FEFF 		bl	link_log_level_name
 735              	.LVL75:
 736 023a 0446     		mov	r4, r0
 737 023c FFF7FEFF 		bl	osal_sys_time
 738              	.LVL76:
 739 0240 0B90     		str	r0, [sp, #44]
 740 0242 FFF7FEFF 		bl	lwm2m_gettime
 741              	.LVL77:
 742 0246 9423     		movs	r3, #148
 743 0248 0293     		str	r3, [sp, #8]
 744 024a 394B     		ldr	r3, .L79+40
 745 024c 0B9A     		ldr	r2, [sp, #44]
 746 024e CDE90003 		strd	r0, r3, [sp]
 747 0252 2146     		mov	r1, r4
 748 0254 374B     		ldr	r3, .L79+44
 749 0256 2E48     		ldr	r0, .L79+8
 750 0258 FFF7FEFF 		bl	printf
 751              	.LVL78:
 148:C:/Users/²Ü¼ÒºÀ/.iotlink/sdk/IoT_LINK/iot_link/network/lwm2m/wakaama_lwm2m/wakaama-master/core\packet.c **** 
 752              		.loc 1 148 5 view .LVU181
 753 025c 2D4B     		ldr	r3, .L79+12
 754 025e 1B68     		ldr	r3, [r3]
 755 0260 9868     		ldr	r0, [r3, #8]
 756 0262 FFF7FEFF 		bl	fflush
 757              	.LVL79:
 758              	.L30:
 148:C:/Users/²Ü¼ÒºÀ/.iotlink/sdk/IoT_LINK/iot_link/network/lwm2m/wakaama_lwm2m/wakaama-master/core\packet.c **** 
 759              		.loc 1 148 5 view .LVU182
 148:C:/Users/²Ü¼ÒºÀ/.iotlink/sdk/IoT_LINK/iot_link/network/lwm2m/wakaama_lwm2m/wakaama-master/core\packet.c **** 
 760              		.loc 1 148 5 view .LVU183
 148:C:/Users/²Ü¼ÒºÀ/.iotlink/sdk/IoT_LINK/iot_link/network/lwm2m/wakaama_lwm2m/wakaama-master/core\packet.c **** 
 761              		.loc 1 148 5 view .LVU184
 151:C:/Users/²Ü¼ÒºÀ/.iotlink/sdk/IoT_LINK/iot_link/network/lwm2m/wakaama_lwm2m/wakaama-master/core\packet.c **** #else
 762              		.loc 1 151 5 view .LVU185
 151:C:/Users/²Ü¼ÒºÀ/.iotlink/sdk/IoT_LINK/iot_link/network/lwm2m/wakaama_lwm2m/wakaama-master/core\packet.c **** #else
 763              		.loc 1 151 12 is_stmt 0 view .LVU186
 764 0266 696C     		ldr	r1, [r5, #68]
 765 0268 F068     		ldr	r0, [r6, #12]
 766 026a FFF7FEFF 		bl	uri_decode
 767              	.LVL80:
 156:C:/Users/²Ü¼ÒºÀ/.iotlink/sdk/IoT_LINK/iot_link/network/lwm2m/wakaama_lwm2m/wakaama-master/core\packet.c **** 
 768              		.loc 1 156 5 is_stmt 1 view .LVU187
 156:C:/Users/²Ü¼ÒºÀ/.iotlink/sdk/IoT_LINK/iot_link/network/lwm2m/wakaama_lwm2m/wakaama-master/core\packet.c **** 
ARM GAS  C:\Users\²Ü¼ÒºÀ\AppData\Local\Temp\ccepIYuV.s 			page 27


 769              		.loc 1 156 8 is_stmt 0 view .LVU188
 770 026e 8246     		mov	r10, r0
 771 0270 0028     		cmp	r0, #0
 772 0272 00F09B81 		beq	.L58
 158:C:/Users/²Ü¼ÒºÀ/.iotlink/sdk/IoT_LINK/iot_link/network/lwm2m/wakaama_lwm2m/wakaama-master/core\packet.c ****     {
 773              		.loc 1 158 5 is_stmt 1 view .LVU189
 774 0276 0378     		ldrb	r3, [r0]	@ zero_extendqisi2
 775 0278 13F0700F 		tst	r3, #112
 776 027c 00F00481 		beq	.L31
 777              	.LVL81:
 778              	.L33:
 215:C:/Users/²Ü¼ÒºÀ/.iotlink/sdk/IoT_LINK/iot_link/network/lwm2m/wakaama_lwm2m/wakaama-master/core\packet.c ****         break;
 779              		.loc 1 215 16 is_stmt 0 view .LVU190
 780 0280 0124     		movs	r4, #1
 781              	.LVL82:
 782              	.L32:
 219:C:/Users/²Ü¼ÒºÀ/.iotlink/sdk/IoT_LINK/iot_link/network/lwm2m/wakaama_lwm2m/wakaama-master/core\packet.c **** 
 783              		.loc 1 219 5 is_stmt 1 view .LVU191
 784 0282 2146     		mov	r1, r4
 785 0284 2648     		ldr	r0, .L79+24
 786 0286 FFF7FEFF 		bl	coap_set_status_code
 787              	.LVL83:
 221:C:/Users/²Ü¼ÒºÀ/.iotlink/sdk/IoT_LINK/iot_link/network/lwm2m/wakaama_lwm2m/wakaama-master/core\packet.c ****     {
 788              		.loc 1 221 5 view .LVU192
 221:C:/Users/²Ü¼ÒºÀ/.iotlink/sdk/IoT_LINK/iot_link/network/lwm2m/wakaama_lwm2m/wakaama-master/core\packet.c ****     {
 789              		.loc 1 221 30 is_stmt 0 view .LVU193
 790 028a A31E     		subs	r3, r4, #2
 221:C:/Users/²Ü¼ÒºÀ/.iotlink/sdk/IoT_LINK/iot_link/network/lwm2m/wakaama_lwm2m/wakaama-master/core\packet.c ****     {
 791              		.loc 1 221 8 view .LVU194
 792 028c DBB2     		uxtb	r3, r3
 223:C:/Users/²Ü¼ÒºÀ/.iotlink/sdk/IoT_LINK/iot_link/network/lwm2m/wakaama_lwm2m/wakaama-master/core\packet.c ****     }
 793              		.loc 1 223 16 view .LVU195
 794 028e 7D2B     		cmp	r3, #125
 795 0290 98BF     		it	ls
 796 0292 0024     		movls	r4, #0
 797              	.LVL84:
 226:C:/Users/²Ü¼ÒºÀ/.iotlink/sdk/IoT_LINK/iot_link/network/lwm2m/wakaama_lwm2m/wakaama-master/core\packet.c ****     return result;
 798              		.loc 1 226 5 is_stmt 1 view .LVU196
 799 0294 5046     		mov	r0, r10
 800 0296 FFF7FEFF 		bl	lwm2m_free
 801              	.LVL85:
 227:C:/Users/²Ü¼ÒºÀ/.iotlink/sdk/IoT_LINK/iot_link/network/lwm2m/wakaama_lwm2m/wakaama-master/core\packet.c **** }
 802              		.loc 1 227 5 view .LVU197
 227:C:/Users/²Ü¼ÒºÀ/.iotlink/sdk/IoT_LINK/iot_link/network/lwm2m/wakaama_lwm2m/wakaama-master/core\packet.c **** }
 803              		.loc 1 227 5 is_stmt 0 view .LVU198
 804              	.LBE17:
 805              	.LBE16:
 335:C:/Users/²Ü¼ÒºÀ/.iotlink/sdk/IoT_LINK/iot_link/network/lwm2m/wakaama_lwm2m/wakaama-master/core\packet.c ****             {
 806              		.loc 1 335 13 is_stmt 1 view .LVU199
 335:C:/Users/²Ü¼ÒºÀ/.iotlink/sdk/IoT_LINK/iot_link/network/lwm2m/wakaama_lwm2m/wakaama-master/core\packet.c ****             {
 807              		.loc 1 335 16 is_stmt 0 view .LVU200
 808 029a 002C     		cmp	r4, #0
 809 029c 40F08081 		bne	.L35
 810              	.LVL86:
 337:C:/Users/²Ü¼ÒºÀ/.iotlink/sdk/IoT_LINK/iot_link/network/lwm2m/wakaama_lwm2m/wakaama-master/core\packet.c ****                 {
 811              		.loc 1 337 17 is_stmt 1 view .LVU201
 337:C:/Users/²Ü¼ÒºÀ/.iotlink/sdk/IoT_LINK/iot_link/network/lwm2m/wakaama_lwm2m/wakaama-master/core\packet.c ****                 {
ARM GAS  C:\Users\²Ü¼ÒºÀ\AppData\Local\Temp\ccepIYuV.s 			page 28


 812              		.loc 1 337 20 is_stmt 0 view .LVU202
 813 02a0 95F90C30 		ldrsb	r3, [r5, #12]
 814 02a4 DFF878A0 		ldr	r10, .L79+24
 815 02a8 002B     		cmp	r3, #0
 816 02aa 80F24981 		bge	.L36
 340:C:/Users/²Ü¼ÒºÀ/.iotlink/sdk/IoT_LINK/iot_link/network/lwm2m/wakaama_lwm2m/wakaama-master/core\packet.c ****                     {
 817              		.loc 1 340 21 is_stmt 1 view .LVU203
 340:C:/Users/²Ü¼ÒºÀ/.iotlink/sdk/IoT_LINK/iot_link/network/lwm2m/wakaama_lwm2m/wakaama-master/core\packet.c ****                     {
 818              		.loc 1 340 36 is_stmt 0 view .LVU204
 819 02ae 109A     		ldr	r2, [sp, #64]
 820 02b0 0023     		movs	r3, #0
 340:C:/Users/²Ü¼ÒºÀ/.iotlink/sdk/IoT_LINK/iot_link/network/lwm2m/wakaama_lwm2m/wakaama-master/core\packet.c ****                     {
 821              		.loc 1 340 24 view .LVU205
 822 02b2 4B45     		cmp	r3, r9
 823 02b4 08BF     		it	eq
 824 02b6 4245     		cmpeq	r2, r8
 825 02b8 40F01181 		bne	.L37
 342:C:/Users/²Ü¼ÒºÀ/.iotlink/sdk/IoT_LINK/iot_link/network/lwm2m/wakaama_lwm2m/wakaama-master/core\packet.c ****                         if (block_offset >= message->payload_len)
 826              		.loc 1 342 25 is_stmt 1 view .LVU206
 342:C:/Users/²Ü¼ÒºÀ/.iotlink/sdk/IoT_LINK/iot_link/network/lwm2m/wakaama_lwm2m/wakaama-master/core\packet.c ****                         if (block_offset >= message->payload_len)
 827              		.loc 1 342 25 view .LVU207
 828 02bc FFF7FEFF 		bl	link_log_level_get
 829              	.LVL87:
 830 02c0 0128     		cmp	r0, #1
 831 02c2 3BD8     		bhi	.L38
 342:C:/Users/²Ü¼ÒºÀ/.iotlink/sdk/IoT_LINK/iot_link/network/lwm2m/wakaama_lwm2m/wakaama-master/core\packet.c ****                         if (block_offset >= message->payload_len)
 832              		.loc 1 342 25 discriminator 1 view .LVU208
 342:C:/Users/²Ü¼ÒºÀ/.iotlink/sdk/IoT_LINK/iot_link/network/lwm2m/wakaama_lwm2m/wakaama-master/core\packet.c ****                         if (block_offset >= message->payload_len)
 833              		.loc 1 342 25 discriminator 1 view .LVU209
 342:C:/Users/²Ü¼ÒºÀ/.iotlink/sdk/IoT_LINK/iot_link/network/lwm2m/wakaama_lwm2m/wakaama-master/core\packet.c ****                         if (block_offset >= message->payload_len)
 834              		.loc 1 342 25 discriminator 1 view .LVU210
 835 02c4 0120     		movs	r0, #1
 836 02c6 FFF7FEFF 		bl	link_log_level_name
 837              	.LVL88:
 838 02ca 0446     		mov	r4, r0
 839 02cc FFF7FEFF 		bl	osal_sys_time
 840              	.LVL89:
 841 02d0 0B90     		str	r0, [sp, #44]
 842 02d2 FFF7FEFF 		bl	lwm2m_gettime
 843              	.LVL90:
 844 02d6 BDF83830 		ldrh	r3, [sp, #56]
 845 02da 0493     		str	r3, [sp, #16]
 846 02dc BAF88630 		ldrh	r3, [r10, #134]
 847 02e0 0393     		str	r3, [sp, #12]
 848 02e2 4FF4AB73 		mov	r3, #342
 849 02e6 0293     		str	r3, [sp, #8]
 850 02e8 074B     		ldr	r3, .L79
 851 02ea 0B9A     		ldr	r2, [sp, #44]
 852 02ec CDE90003 		strd	r0, r3, [sp]
 853 02f0 2146     		mov	r1, r4
 854 02f2 064B     		ldr	r3, .L79+4
 855 02f4 1048     		ldr	r0, .L79+48
 856 02f6 FFF7FEFF 		bl	printf
 857              	.LVL91:
 342:C:/Users/²Ü¼ÒºÀ/.iotlink/sdk/IoT_LINK/iot_link/network/lwm2m/wakaama_lwm2m/wakaama-master/core\packet.c ****                         if (block_offset >= message->payload_len)
 858              		.loc 1 342 25 discriminator 1 view .LVU211
 859 02fa 064B     		ldr	r3, .L79+12
ARM GAS  C:\Users\²Ü¼ÒºÀ\AppData\Local\Temp\ccepIYuV.s 			page 29


 860 02fc 1B68     		ldr	r3, [r3]
 861 02fe 9868     		ldr	r0, [r3, #8]
 862 0300 FFF7FEFF 		bl	fflush
 863              	.LVL92:
 864 0304 1AE0     		b	.L80
 865              	.L81:
 866 0306 00BF     		.align	2
 867              	.L79:
 868 0308 00000000 		.word	.LANCHOR3
 869 030c 00000000 		.word	.LANCHOR2
 870 0310 00000000 		.word	.LC0
 871 0314 00000000 		.word	_impure_ptr
 872 0318 00000000 		.word	.LANCHOR4
 873 031c 00000000 		.word	.LC3
 874 0320 00000000 		.word	.LANCHOR5
 875 0324 4D000000 		.word	.LANCHOR4+77
 876 0328 65000000 		.word	.LC4
 877 032c B1000000 		.word	.LC5
 878 0330 00000000 		.word	.LANCHOR7
 879 0334 00000000 		.word	.LANCHOR6
 880 0338 0B010000 		.word	.LC6
 881              	.L80:
 882              	.L38:
 342:C:/Users/²Ü¼ÒºÀ/.iotlink/sdk/IoT_LINK/iot_link/network/lwm2m/wakaama_lwm2m/wakaama-master/core\packet.c ****                         if (block_offset >= message->payload_len)
 883              		.loc 1 342 25 discriminator 3 view .LVU212
 342:C:/Users/²Ü¼ÒºÀ/.iotlink/sdk/IoT_LINK/iot_link/network/lwm2m/wakaama_lwm2m/wakaama-master/core\packet.c ****                         if (block_offset >= message->payload_len)
 884              		.loc 1 342 25 discriminator 3 view .LVU213
 342:C:/Users/²Ü¼ÒºÀ/.iotlink/sdk/IoT_LINK/iot_link/network/lwm2m/wakaama_lwm2m/wakaama-master/core\packet.c ****                         if (block_offset >= message->payload_len)
 885              		.loc 1 342 25 discriminator 3 view .LVU214
 343:C:/Users/²Ü¼ÒºÀ/.iotlink/sdk/IoT_LINK/iot_link/network/lwm2m/wakaama_lwm2m/wakaama-master/core\packet.c ****                         {
 886              		.loc 1 343 25 discriminator 3 view .LVU215
 343:C:/Users/²Ü¼ÒºÀ/.iotlink/sdk/IoT_LINK/iot_link/network/lwm2m/wakaama_lwm2m/wakaama-master/core\packet.c ****                         {
 887              		.loc 1 343 42 is_stmt 0 discriminator 3 view .LVU216
 888 033c 1099     		ldr	r1, [sp, #64]
 343:C:/Users/²Ü¼ÒºÀ/.iotlink/sdk/IoT_LINK/iot_link/network/lwm2m/wakaama_lwm2m/wakaama-master/core\packet.c ****                         {
 889              		.loc 1 343 52 discriminator 3 view .LVU217
 890 033e B5F88630 		ldrh	r3, [r5, #134]
 343:C:/Users/²Ü¼ÒºÀ/.iotlink/sdk/IoT_LINK/iot_link/network/lwm2m/wakaama_lwm2m/wakaama-master/core\packet.c ****                         {
 891              		.loc 1 343 28 discriminator 3 view .LVU218
 892 0342 8B42     		cmp	r3, r1
 893 0344 00F2B180 		bhi	.L39
 345:C:/Users/²Ü¼ÒºÀ/.iotlink/sdk/IoT_LINK/iot_link/network/lwm2m/wakaama_lwm2m/wakaama-master/core\packet.c **** 
 894              		.loc 1 345 29 is_stmt 1 view .LVU219
 345:C:/Users/²Ü¼ÒºÀ/.iotlink/sdk/IoT_LINK/iot_link/network/lwm2m/wakaama_lwm2m/wakaama-master/core\packet.c **** 
 895              		.loc 1 345 29 view .LVU220
 896 0348 FFF7FEFF 		bl	link_log_level_get
 897              	.LVL93:
 898 034c 0128     		cmp	r0, #1
 899 034e 19D8     		bhi	.L40
 345:C:/Users/²Ü¼ÒºÀ/.iotlink/sdk/IoT_LINK/iot_link/network/lwm2m/wakaama_lwm2m/wakaama-master/core\packet.c **** 
 900              		.loc 1 345 29 discriminator 1 view .LVU221
 345:C:/Users/²Ü¼ÒºÀ/.iotlink/sdk/IoT_LINK/iot_link/network/lwm2m/wakaama_lwm2m/wakaama-master/core\packet.c **** 
 901              		.loc 1 345 29 discriminator 1 view .LVU222
 345:C:/Users/²Ü¼ÒºÀ/.iotlink/sdk/IoT_LINK/iot_link/network/lwm2m/wakaama_lwm2m/wakaama-master/core\packet.c **** 
 902              		.loc 1 345 29 discriminator 1 view .LVU223
 903 0350 0120     		movs	r0, #1
 904 0352 FFF7FEFF 		bl	link_log_level_name
ARM GAS  C:\Users\²Ü¼ÒºÀ\AppData\Local\Temp\ccepIYuV.s 			page 30


 905              	.LVL94:
 906 0356 0446     		mov	r4, r0
 907 0358 FFF7FEFF 		bl	osal_sys_time
 908              	.LVL95:
 909 035c 0B90     		str	r0, [sp, #44]
 910 035e FFF7FEFF 		bl	lwm2m_gettime
 911              	.LVL96:
 912 0362 40F25913 		movw	r3, #345
 913 0366 0293     		str	r3, [sp, #8]
 914 0368 B24B     		ldr	r3, .L82
 915 036a 0B9A     		ldr	r2, [sp, #44]
 916 036c CDE90003 		strd	r0, r3, [sp]
 917 0370 2146     		mov	r1, r4
 918 0372 B14B     		ldr	r3, .L82+4
 919 0374 B148     		ldr	r0, .L82+8
 920 0376 FFF7FEFF 		bl	printf
 921              	.LVL97:
 345:C:/Users/²Ü¼ÒºÀ/.iotlink/sdk/IoT_LINK/iot_link/network/lwm2m/wakaama_lwm2m/wakaama-master/core\packet.c **** 
 922              		.loc 1 345 29 discriminator 1 view .LVU224
 923 037a B14B     		ldr	r3, .L82+12
 924 037c 1B68     		ldr	r3, [r3]
 925 037e 9868     		ldr	r0, [r3, #8]
 926 0380 FFF7FEFF 		bl	fflush
 927              	.LVL98:
 928              	.L40:
 345:C:/Users/²Ü¼ÒºÀ/.iotlink/sdk/IoT_LINK/iot_link/network/lwm2m/wakaama_lwm2m/wakaama-master/core\packet.c **** 
 929              		.loc 1 345 29 discriminator 3 view .LVU225
 345:C:/Users/²Ü¼ÒºÀ/.iotlink/sdk/IoT_LINK/iot_link/network/lwm2m/wakaama_lwm2m/wakaama-master/core\packet.c **** 
 930              		.loc 1 345 29 discriminator 3 view .LVU226
 345:C:/Users/²Ü¼ÒºÀ/.iotlink/sdk/IoT_LINK/iot_link/network/lwm2m/wakaama_lwm2m/wakaama-master/core\packet.c **** 
 931              		.loc 1 345 29 discriminator 3 view .LVU227
 347:C:/Users/²Ü¼ÒºÀ/.iotlink/sdk/IoT_LINK/iot_link/network/lwm2m/wakaama_lwm2m/wakaama-master/core\packet.c ****                             coap_set_payload(response, "BlockOutOfScope", 15); /* a const char str[
 932              		.loc 1 347 29 discriminator 3 view .LVU228
 347:C:/Users/²Ü¼ÒºÀ/.iotlink/sdk/IoT_LINK/iot_link/network/lwm2m/wakaama_lwm2m/wakaama-master/core\packet.c ****                             coap_set_payload(response, "BlockOutOfScope", 15); /* a const char str[
 933              		.loc 1 347 44 is_stmt 0 discriminator 3 view .LVU229
 934 0384 8223     		movs	r3, #130
 348:C:/Users/²Ü¼ÒºÀ/.iotlink/sdk/IoT_LINK/iot_link/network/lwm2m/wakaama_lwm2m/wakaama-master/core\packet.c ****                         }
 935              		.loc 1 348 29 discriminator 3 view .LVU230
 936 0386 AF49     		ldr	r1, .L82+16
 347:C:/Users/²Ü¼ÒºÀ/.iotlink/sdk/IoT_LINK/iot_link/network/lwm2m/wakaama_lwm2m/wakaama-master/core\packet.c ****                             coap_set_payload(response, "BlockOutOfScope", 15); /* a const char str[
 937              		.loc 1 347 44 discriminator 3 view .LVU231
 938 0388 8AF80630 		strb	r3, [r10, #6]
 348:C:/Users/²Ü¼ÒºÀ/.iotlink/sdk/IoT_LINK/iot_link/network/lwm2m/wakaama_lwm2m/wakaama-master/core\packet.c ****                         }
 939              		.loc 1 348 29 is_stmt 1 discriminator 3 view .LVU232
 940 038c 0F22     		movs	r2, #15
 941              	.L76:
 369:C:/Users/²Ü¼ÒºÀ/.iotlink/sdk/IoT_LINK/iot_link/network/lwm2m/wakaama_lwm2m/wakaama-master/core\packet.c ****                 } /* if (blockwise request) */
 942              		.loc 1 369 21 is_stmt 0 discriminator 3 view .LVU233
 943 038e AE48     		ldr	r0, .L82+20
 944 0390 FFF7FEFF 		bl	coap_set_payload
 945              	.LVL99:
 946              	.L41:
 372:C:/Users/²Ü¼ÒºÀ/.iotlink/sdk/IoT_LINK/iot_link/network/lwm2m/wakaama_lwm2m/wakaama-master/core\packet.c **** 
 947              		.loc 1 372 17 is_stmt 1 view .LVU234
 372:C:/Users/²Ü¼ÒºÀ/.iotlink/sdk/IoT_LINK/iot_link/network/lwm2m/wakaama_lwm2m/wakaama-master/core\packet.c **** 
 948              		.loc 1 372 35 is_stmt 0 view .LVU235
 949 0394 AC49     		ldr	r1, .L82+20
ARM GAS  C:\Users\²Ü¼ÒºÀ\AppData\Local\Temp\ccepIYuV.s 			page 31


 950 0396 3A46     		mov	r2, r7
 951 0398 3046     		mov	r0, r6
 952 039a FFF7FEFF 		bl	message_send
 953              	.LVL100:
 954 039e 0446     		mov	r4, r0
 955              	.LVL101:
 374:C:/Users/²Ü¼ÒºÀ/.iotlink/sdk/IoT_LINK/iot_link/network/lwm2m/wakaama_lwm2m/wakaama-master/core\packet.c ****                 response->payload = NULL;
 956              		.loc 1 374 17 is_stmt 1 view .LVU236
 957 03a0 DAF88800 		ldr	r0, [r10, #136]
 958 03a4 FFF7FEFF 		bl	lwm2m_free
 959              	.LVL102:
 375:C:/Users/²Ü¼ÒºÀ/.iotlink/sdk/IoT_LINK/iot_link/network/lwm2m/wakaama_lwm2m/wakaama-master/core\packet.c ****                 response->payload_len = 0;
 960              		.loc 1 375 17 view .LVU237
 375:C:/Users/²Ü¼ÒºÀ/.iotlink/sdk/IoT_LINK/iot_link/network/lwm2m/wakaama_lwm2m/wakaama-master/core\packet.c ****                 response->payload_len = 0;
 961              		.loc 1 375 35 is_stmt 0 view .LVU238
 962 03a8 0023     		movs	r3, #0
 963 03aa CAF88830 		str	r3, [r10, #136]
 376:C:/Users/²Ü¼ÒºÀ/.iotlink/sdk/IoT_LINK/iot_link/network/lwm2m/wakaama_lwm2m/wakaama-master/core\packet.c ****             }
 964              		.loc 1 376 17 is_stmt 1 view .LVU239
 376:C:/Users/²Ü¼ÒºÀ/.iotlink/sdk/IoT_LINK/iot_link/network/lwm2m/wakaama_lwm2m/wakaama-master/core\packet.c ****             }
 965              		.loc 1 376 39 is_stmt 0 view .LVU240
 966 03ae AAF88630 		strh	r3, [r10, #134]	@ movhi
 967              	.LVL103:
 968              	.L47:
 376:C:/Users/²Ü¼ÒºÀ/.iotlink/sdk/IoT_LINK/iot_link/network/lwm2m/wakaama_lwm2m/wakaama-master/core\packet.c ****             }
 969              		.loc 1 376 39 view .LVU241
 970              	.LBE12:
 425:C:/Users/²Ü¼ÒºÀ/.iotlink/sdk/IoT_LINK/iot_link/network/lwm2m/wakaama_lwm2m/wakaama-master/core\packet.c ****     } /* if (parsed correctly) */
 971              		.loc 1 425 9 is_stmt 1 view .LVU242
 972 03b2 A648     		ldr	r0, .L82+24
 973 03b4 FFF7FEFF 		bl	coap_free_header
 974              	.LVL104:
 975              	.L52:
 429:C:/Users/²Ü¼ÒºÀ/.iotlink/sdk/IoT_LINK/iot_link/network/lwm2m/wakaama_lwm2m/wakaama-master/core\packet.c ****     }
 976              		.loc 1 429 9 discriminator 3 view .LVU243
 429:C:/Users/²Ü¼ÒºÀ/.iotlink/sdk/IoT_LINK/iot_link/network/lwm2m/wakaama_lwm2m/wakaama-master/core\packet.c ****     }
 977              		.loc 1 429 9 discriminator 3 view .LVU244
 429:C:/Users/²Ü¼ÒºÀ/.iotlink/sdk/IoT_LINK/iot_link/network/lwm2m/wakaama_lwm2m/wakaama-master/core\packet.c ****     }
 978              		.loc 1 429 9 discriminator 3 view .LVU245
 432:C:/Users/²Ü¼ÒºÀ/.iotlink/sdk/IoT_LINK/iot_link/network/lwm2m/wakaama_lwm2m/wakaama-master/core\packet.c ****     {
 979              		.loc 1 432 5 discriminator 3 view .LVU246
 432:C:/Users/²Ü¼ÒºÀ/.iotlink/sdk/IoT_LINK/iot_link/network/lwm2m/wakaama_lwm2m/wakaama-master/core\packet.c ****     {
 980              		.loc 1 432 8 is_stmt 0 discriminator 3 view .LVU247
 981 03b8 012C     		cmp	r4, #1
 982 03ba 3CD9     		bls	.L15
 434:C:/Users/²Ü¼ÒºÀ/.iotlink/sdk/IoT_LINK/iot_link/network/lwm2m/wakaama_lwm2m/wakaama-master/core\packet.c **** 
 983              		.loc 1 434 9 is_stmt 1 view .LVU248
 434:C:/Users/²Ü¼ÒºÀ/.iotlink/sdk/IoT_LINK/iot_link/network/lwm2m/wakaama_lwm2m/wakaama-master/core\packet.c **** 
 984              		.loc 1 434 9 view .LVU249
 985 03bc FFF7FEFF 		bl	link_log_level_get
 986              	.LVL105:
 987 03c0 0128     		cmp	r0, #1
 988 03c2 DFF8A492 		ldr	r9, .L82+52
 989 03c6 1DD8     		bhi	.L54
 434:C:/Users/²Ü¼ÒºÀ/.iotlink/sdk/IoT_LINK/iot_link/network/lwm2m/wakaama_lwm2m/wakaama-master/core\packet.c **** 
 990              		.loc 1 434 9 discriminator 1 view .LVU250
 434:C:/Users/²Ü¼ÒºÀ/.iotlink/sdk/IoT_LINK/iot_link/network/lwm2m/wakaama_lwm2m/wakaama-master/core\packet.c **** 
ARM GAS  C:\Users\²Ü¼ÒºÀ\AppData\Local\Temp\ccepIYuV.s 			page 32


 991              		.loc 1 434 9 discriminator 1 view .LVU251
 434:C:/Users/²Ü¼ÒºÀ/.iotlink/sdk/IoT_LINK/iot_link/network/lwm2m/wakaama_lwm2m/wakaama-master/core\packet.c **** 
 992              		.loc 1 434 9 discriminator 1 view .LVU252
 993 03c8 0120     		movs	r0, #1
 994 03ca FFF7FEFF 		bl	link_log_level_name
 995              	.LVL106:
 996 03ce 8046     		mov	r8, r0
 997 03d0 FFF7FEFF 		bl	osal_sys_time
 998              	.LVL107:
 999 03d4 0B90     		str	r0, [sp, #44]
 1000 03d6 FFF7FEFF 		bl	lwm2m_gettime
 1001              	.LVL108:
 1002 03da D9F80030 		ldr	r3, [r9]
 1003 03de 0B9A     		ldr	r2, [sp, #44]
 1004 03e0 CDE90343 		strd	r4, r3, [sp, #12]
 1005 03e4 4FF4D973 		mov	r3, #434
 1006 03e8 0293     		str	r3, [sp, #8]
 1007 03ea 924B     		ldr	r3, .L82
 1008 03ec 4146     		mov	r1, r8
 1009 03ee CDE90003 		strd	r0, r3, [sp]
 1010 03f2 914B     		ldr	r3, .L82+4
 1011 03f4 9648     		ldr	r0, .L82+28
 1012 03f6 FFF7FEFF 		bl	printf
 1013              	.LVL109:
 434:C:/Users/²Ü¼ÒºÀ/.iotlink/sdk/IoT_LINK/iot_link/network/lwm2m/wakaama_lwm2m/wakaama-master/core\packet.c **** 
 1014              		.loc 1 434 9 discriminator 1 view .LVU253
 1015 03fa 914B     		ldr	r3, .L82+12
 1016 03fc 1B68     		ldr	r3, [r3]
 1017 03fe 9868     		ldr	r0, [r3, #8]
 1018 0400 FFF7FEFF 		bl	fflush
 1019              	.LVL110:
 1020              	.L54:
 434:C:/Users/²Ü¼ÒºÀ/.iotlink/sdk/IoT_LINK/iot_link/network/lwm2m/wakaama_lwm2m/wakaama-master/core\packet.c **** 
 1021              		.loc 1 434 9 discriminator 3 view .LVU254
 434:C:/Users/²Ü¼ÒºÀ/.iotlink/sdk/IoT_LINK/iot_link/network/lwm2m/wakaama_lwm2m/wakaama-master/core\packet.c **** 
 1022              		.loc 1 434 9 discriminator 3 view .LVU255
 434:C:/Users/²Ü¼ÒºÀ/.iotlink/sdk/IoT_LINK/iot_link/network/lwm2m/wakaama_lwm2m/wakaama-master/core\packet.c **** 
 1023              		.loc 1 434 9 discriminator 3 view .LVU256
 437:C:/Users/²Ü¼ÒºÀ/.iotlink/sdk/IoT_LINK/iot_link/network/lwm2m/wakaama_lwm2m/wakaama-master/core\packet.c ****         {
 1024              		.loc 1 437 9 discriminator 3 view .LVU257
 439:C:/Users/²Ü¼ÒºÀ/.iotlink/sdk/IoT_LINK/iot_link/network/lwm2m/wakaama_lwm2m/wakaama-master/core\packet.c ****         }
 1025              		.loc 1 439 29 is_stmt 0 discriminator 3 view .LVU258
 1026 0404 C02C     		cmp	r4, #192
 1027              	.LVL111:
 442:C:/Users/²Ü¼ÒºÀ/.iotlink/sdk/IoT_LINK/iot_link/network/lwm2m/wakaama_lwm2m/wakaama-master/core\packet.c ****         coap_set_payload(message, coap_error_message, strlen(coap_error_message));
 1028              		.loc 1 442 9 is_stmt 1 discriminator 3 view .LVU259
 1029 0406 34BF     		ite	cc
 1030 0408 2246     		movcc	r2, r4
 1031 040a A022     		movcs	r2, #160
 1032 040c 2B89     		ldrh	r3, [r5, #8]
 1033 040e 8F48     		ldr	r0, .L82+24
 1034 0410 0221     		movs	r1, #2
 1035 0412 FFF7FEFF 		bl	coap_init_message
 1036              	.LVL112:
 443:C:/Users/²Ü¼ÒºÀ/.iotlink/sdk/IoT_LINK/iot_link/network/lwm2m/wakaama_lwm2m/wakaama-master/core\packet.c ****         message_send(contextP, message, fromSessionH);
 1037              		.loc 1 443 9 discriminator 3 view .LVU260
 1038 0416 D9F80010 		ldr	r1, [r9]
ARM GAS  C:\Users\²Ü¼ÒºÀ\AppData\Local\Temp\ccepIYuV.s 			page 33


 1039 041a 0B91     		str	r1, [sp, #44]
 1040 041c 0846     		mov	r0, r1
 1041 041e FFF7FEFF 		bl	strlen
 1042              	.LVL113:
 1043 0422 0B99     		ldr	r1, [sp, #44]
 1044 0424 0246     		mov	r2, r0
 1045 0426 8948     		ldr	r0, .L82+24
 1046 0428 FFF7FEFF 		bl	coap_set_payload
 1047              	.LVL114:
 444:C:/Users/²Ü¼ÒºÀ/.iotlink/sdk/IoT_LINK/iot_link/network/lwm2m/wakaama_lwm2m/wakaama-master/core\packet.c ****     }
 1048              		.loc 1 444 9 discriminator 3 view .LVU261
 1049 042c 8749     		ldr	r1, .L82+24
 1050 042e 3A46     		mov	r2, r7
 1051 0430 3046     		mov	r0, r6
 1052 0432 FFF7FEFF 		bl	message_send
 1053              	.LVL115:
 1054              	.L15:
 446:C:/Users/²Ü¼ÒºÀ/.iotlink/sdk/IoT_LINK/iot_link/network/lwm2m/wakaama_lwm2m/wakaama-master/core\packet.c **** 
 1055              		.loc 1 446 1 is_stmt 0 view .LVU262
 1056 0436 14B0     		add	sp, sp, #80
 1057              	.LCFI6:
 1058              		.cfi_remember_state
 1059              		.cfi_def_cfa_offset 32
 1060              		@ sp needed
 1061 0438 BDE8F087 		pop	{r4, r5, r6, r7, r8, r9, r10, pc}
 1062              	.LVL116:
 1063              	.L20:
 1064              	.LCFI7:
 1065              		.cfi_restore_state
 1066              	.LBB25:
 266:C:/Users/²Ü¼ÒºÀ/.iotlink/sdk/IoT_LINK/iot_link/network/lwm2m/wakaama_lwm2m/wakaama-master/core\packet.c ****             }
 1067              		.loc 1 266 17 is_stmt 1 view .LVU263
 266:C:/Users/²Ü¼ÒºÀ/.iotlink/sdk/IoT_LINK/iot_link/network/lwm2m/wakaama_lwm2m/wakaama-master/core\packet.c ****             }
 1068              		.loc 1 266 86 is_stmt 0 view .LVU264
 1069 043c B38D     		ldrh	r3, [r6, #44]
 266:C:/Users/²Ü¼ÒºÀ/.iotlink/sdk/IoT_LINK/iot_link/network/lwm2m/wakaama_lwm2m/wakaama-master/core\packet.c ****             }
 1070              		.loc 1 266 17 view .LVU265
 1071 043e 5A1C     		adds	r2, r3, #1
 1072 0440 B285     		strh	r2, [r6, #44]	@ movhi
 1073 0442 0121     		movs	r1, #1
 1074 0444 4522     		movs	r2, #69
 1075 0446 4AE6     		b	.L74
 1076              	.L56:
 255:C:/Users/²Ü¼ÒºÀ/.iotlink/sdk/IoT_LINK/iot_link/network/lwm2m/wakaama_lwm2m/wakaama-master/core\packet.c **** 
 1077              		.loc 1 255 21 view .LVU266
 1078 0448 4FF00008 		mov	r8, #0
 1079 044c 8CE6     		b	.L75
 1080              	.LVL117:
 1081              	.L28:
 1082              	.LBB21:
 1083              	.LBB15:
 321:C:/Users/²Ü¼ÒºÀ/.iotlink/sdk/IoT_LINK/iot_link/network/lwm2m/wakaama_lwm2m/wakaama-master/core\packet.c ****                     {
 1084              		.loc 1 321 26 is_stmt 1 view .LVU267
 321:C:/Users/²Ü¼ÒºÀ/.iotlink/sdk/IoT_LINK/iot_link/network/lwm2m/wakaama_lwm2m/wakaama-master/core\packet.c ****                     {
 1085              		.loc 1 321 29 is_stmt 0 view .LVU268
 1086 044e 5F28     		cmp	r0, #95
 1087 0450 40F0A680 		bne	.L35
ARM GAS  C:\Users\²Ü¼ÒºÀ\AppData\Local\Temp\ccepIYuV.s 			page 34


 323:C:/Users/²Ü¼ÒºÀ/.iotlink/sdk/IoT_LINK/iot_link/network/lwm2m/wakaama_lwm2m/wakaama-master/core\packet.c ****                         coap_set_header_block1(response, block1_num, block1_more, block1_size);
 1088              		.loc 1 323 25 is_stmt 1 view .LVU269
 323:C:/Users/²Ü¼ÒºÀ/.iotlink/sdk/IoT_LINK/iot_link/network/lwm2m/wakaama_lwm2m/wakaama-master/core\packet.c ****                         coap_set_header_block1(response, block1_num, block1_more, block1_size);
 1089              		.loc 1 323 39 is_stmt 0 view .LVU270
 1090 0454 BDF83A30 		ldrh	r3, [sp, #58]
 324:C:/Users/²Ü¼ÒºÀ/.iotlink/sdk/IoT_LINK/iot_link/network/lwm2m/wakaama_lwm2m/wakaama-master/core\packet.c ****                     }
 1091              		.loc 1 324 25 view .LVU271
 1092 0458 9DF83720 		ldrb	r2, [sp, #55]	@ zero_extendqisi2
 1093 045c 1199     		ldr	r1, [sp, #68]
 1094 045e 7A48     		ldr	r0, .L82+20
 1095              	.LVL118:
 323:C:/Users/²Ü¼ÒºÀ/.iotlink/sdk/IoT_LINK/iot_link/network/lwm2m/wakaama_lwm2m/wakaama-master/core\packet.c ****                         coap_set_header_block1(response, block1_num, block1_more, block1_size);
 1096              		.loc 1 323 39 view .LVU272
 1097 0460 802B     		cmp	r3, #128
 1098 0462 28BF     		it	cs
 1099 0464 8023     		movcs	r3, #128
 323:C:/Users/²Ü¼ÒºÀ/.iotlink/sdk/IoT_LINK/iot_link/network/lwm2m/wakaama_lwm2m/wakaama-master/core\packet.c ****                         coap_set_header_block1(response, block1_num, block1_more, block1_size);
 1100              		.loc 1 323 37 view .LVU273
 1101 0466 ADF83A30 		strh	r3, [sp, #58]	@ movhi
 324:C:/Users/²Ü¼ÒºÀ/.iotlink/sdk/IoT_LINK/iot_link/network/lwm2m/wakaama_lwm2m/wakaama-master/core\packet.c ****                     }
 1102              		.loc 1 324 25 is_stmt 1 view .LVU274
 1103 046a FFF7FEFF 		bl	coap_set_header_block1
 1104              	.LVL119:
 1105              	.L26:
 324:C:/Users/²Ü¼ÒºÀ/.iotlink/sdk/IoT_LINK/iot_link/network/lwm2m/wakaama_lwm2m/wakaama-master/core\packet.c ****                     }
 1106              		.loc 1 324 25 is_stmt 0 view .LVU275
 1107              	.LBE15:
 1108              	.LBE21:
 380:C:/Users/²Ü¼ÒºÀ/.iotlink/sdk/IoT_LINK/iot_link/network/lwm2m/wakaama_lwm2m/wakaama-master/core\packet.c ****                 {
 1109              		.loc 1 380 17 is_stmt 1 view .LVU276
 380:C:/Users/²Ü¼ÒºÀ/.iotlink/sdk/IoT_LINK/iot_link/network/lwm2m/wakaama_lwm2m/wakaama-master/core\packet.c ****                 {
 1110              		.loc 1 380 26 is_stmt 0 view .LVU277
 1111 046e 7648     		ldr	r0, .L82+20
 1112 0470 2146     		mov	r1, r4
 1113 0472 FFF7FEFF 		bl	coap_set_status_code
 1114              	.LVL120:
 380:C:/Users/²Ü¼ÒºÀ/.iotlink/sdk/IoT_LINK/iot_link/network/lwm2m/wakaama_lwm2m/wakaama-master/core\packet.c ****                 {
 1115              		.loc 1 380 20 view .LVU278
 1116 0476 0128     		cmp	r0, #1
 1117 0478 9BD1     		bne	.L47
 1118              	.LVL121:
 1119              	.L78:
 380:C:/Users/²Ü¼ÒºÀ/.iotlink/sdk/IoT_LINK/iot_link/network/lwm2m/wakaama_lwm2m/wakaama-master/core\packet.c ****                 {
 1120              		.loc 1 380 20 view .LVU279
 1121              	.LBE25:
 1122              	.LBB26:
 406:C:/Users/²Ü¼ÒºÀ/.iotlink/sdk/IoT_LINK/iot_link/network/lwm2m/wakaama_lwm2m/wakaama-master/core\packet.c ****                 }
 1123              		.loc 1 406 21 is_stmt 1 view .LVU280
 406:C:/Users/²Ü¼ÒºÀ/.iotlink/sdk/IoT_LINK/iot_link/network/lwm2m/wakaama_lwm2m/wakaama-master/core\packet.c ****                 }
 1124              		.loc 1 406 39 is_stmt 0 view .LVU281
 1125 047a 7349     		ldr	r1, .L82+20
 1126 047c 3A46     		mov	r2, r7
 1127 047e 3046     		mov	r0, r6
 1128 0480 FFF7FEFF 		bl	message_send
 1129              	.LVL122:
 1130 0484 0446     		mov	r4, r0
 1131              	.LVL123:
ARM GAS  C:\Users\²Ü¼ÒºÀ\AppData\Local\Temp\ccepIYuV.s 			page 35


 406:C:/Users/²Ü¼ÒºÀ/.iotlink/sdk/IoT_LINK/iot_link/network/lwm2m/wakaama_lwm2m/wakaama-master/core\packet.c ****                 }
 1132              		.loc 1 406 39 view .LVU282
 1133 0486 94E7     		b	.L47
 1134              	.LVL124:
 1135              	.L31:
 406:C:/Users/²Ü¼ÒºÀ/.iotlink/sdk/IoT_LINK/iot_link/network/lwm2m/wakaama_lwm2m/wakaama-master/core\packet.c ****                 }
 1136              		.loc 1 406 39 view .LVU283
 1137              	.LBE26:
 1138              	.LBB27:
 1139              	.LBB22:
 1140              	.LBB19:
 1141              	.LBB18:
 163:C:/Users/²Ü¼ÒºÀ/.iotlink/sdk/IoT_LINK/iot_link/network/lwm2m/wakaama_lwm2m/wakaama-master/core\packet.c **** 
 1142              		.loc 1 163 9 is_stmt 1 view .LVU284
 165:C:/Users/²Ü¼ÒºÀ/.iotlink/sdk/IoT_LINK/iot_link/network/lwm2m/wakaama_lwm2m/wakaama-master/core\packet.c ****         if (serverP != NULL)
 1143              		.loc 1 165 9 view .LVU285
 165:C:/Users/²Ü¼ÒºÀ/.iotlink/sdk/IoT_LINK/iot_link/network/lwm2m/wakaama_lwm2m/wakaama-master/core\packet.c ****         if (serverP != NULL)
 1144              		.loc 1 165 19 is_stmt 0 view .LVU286
 1145 0488 3946     		mov	r1, r7
 1146 048a 3046     		mov	r0, r6
 1147              	.LVL125:
 165:C:/Users/²Ü¼ÒºÀ/.iotlink/sdk/IoT_LINK/iot_link/network/lwm2m/wakaama_lwm2m/wakaama-master/core\packet.c ****         if (serverP != NULL)
 1148              		.loc 1 165 19 view .LVU287
 1149 048c FFF7FEFF 		bl	utils_findServer
 1150              	.LVL126:
 166:C:/Users/²Ü¼ÒºÀ/.iotlink/sdk/IoT_LINK/iot_link/network/lwm2m/wakaama_lwm2m/wakaama-master/core\packet.c ****         {
 1151              		.loc 1 166 9 is_stmt 1 view .LVU288
 166:C:/Users/²Ü¼ÒºÀ/.iotlink/sdk/IoT_LINK/iot_link/network/lwm2m/wakaama_lwm2m/wakaama-master/core\packet.c ****         {
 1152              		.loc 1 166 12 is_stmt 0 view .LVU289
 1153 0490 0246     		mov	r2, r0
 1154 0492 0028     		cmp	r0, #0
 1155 0494 3FF4F4AE 		beq	.L33
 168:C:/Users/²Ü¼ÒºÀ/.iotlink/sdk/IoT_LINK/iot_link/network/lwm2m/wakaama_lwm2m/wakaama-master/core\packet.c ****         }
 1156              		.loc 1 168 13 is_stmt 1 view .LVU290
 168:C:/Users/²Ü¼ÒºÀ/.iotlink/sdk/IoT_LINK/iot_link/network/lwm2m/wakaama_lwm2m/wakaama-master/core\packet.c ****         }
 1157              		.loc 1 168 22 is_stmt 0 view .LVU291
 1158 0498 6B4B     		ldr	r3, .L82+20
 1159 049a 0093     		str	r3, [sp]
 1160 049c 5146     		mov	r1, r10
 1161 049e 6B4B     		ldr	r3, .L82+24
 1162 04a0 3046     		mov	r0, r6
 1163              	.LVL127:
 168:C:/Users/²Ü¼ÒºÀ/.iotlink/sdk/IoT_LINK/iot_link/network/lwm2m/wakaama_lwm2m/wakaama-master/core\packet.c ****         }
 1164              		.loc 1 168 22 view .LVU292
 1165 04a2 FFF7FEFF 		bl	dm_handleRequest
 1166              	.LVL128:
 168:C:/Users/²Ü¼ÒºÀ/.iotlink/sdk/IoT_LINK/iot_link/network/lwm2m/wakaama_lwm2m/wakaama-master/core\packet.c ****         }
 1167              		.loc 1 168 22 view .LVU293
 1168 04a6 0446     		mov	r4, r0
 1169              	.LVL129:
 168:C:/Users/²Ü¼ÒºÀ/.iotlink/sdk/IoT_LINK/iot_link/network/lwm2m/wakaama_lwm2m/wakaama-master/core\packet.c ****         }
 1170              		.loc 1 168 22 view .LVU294
 1171 04a8 EBE6     		b	.L32
 1172              	.LVL130:
 1173              	.L39:
 168:C:/Users/²Ü¼ÒºÀ/.iotlink/sdk/IoT_LINK/iot_link/network/lwm2m/wakaama_lwm2m/wakaama-master/core\packet.c ****         }
 1174              		.loc 1 168 22 view .LVU295
ARM GAS  C:\Users\²Ü¼ÒºÀ\AppData\Local\Temp\ccepIYuV.s 			page 36


 1175              	.LBE18:
 1176              	.LBE19:
 1177              	.LBE22:
 352:C:/Users/²Ü¼ÒºÀ/.iotlink/sdk/IoT_LINK/iot_link/network/lwm2m/wakaama_lwm2m/wakaama-master/core\packet.c ****                             coap_set_payload(response, response->payload + block_offset, MIN(respon
 1178              		.loc 1 352 29 is_stmt 1 view .LVU296
 352:C:/Users/²Ü¼ÒºÀ/.iotlink/sdk/IoT_LINK/iot_link/network/lwm2m/wakaama_lwm2m/wakaama-master/core\packet.c ****                             coap_set_payload(response, response->payload + block_offset, MIN(respon
 1179              		.loc 1 352 81 is_stmt 0 view .LVU297
 1180 04aa BAF88620 		ldrh	r2, [r10, #134]
 352:C:/Users/²Ü¼ÒºÀ/.iotlink/sdk/IoT_LINK/iot_link/network/lwm2m/wakaama_lwm2m/wakaama-master/core\packet.c ****                             coap_set_payload(response, response->payload + block_offset, MIN(respon
 1181              		.loc 1 352 29 view .LVU298
 1182 04ae BDF83830 		ldrh	r3, [sp, #56]
 1183 04b2 6548     		ldr	r0, .L82+20
 352:C:/Users/²Ü¼ÒºÀ/.iotlink/sdk/IoT_LINK/iot_link/network/lwm2m/wakaama_lwm2m/wakaama-master/core\packet.c ****                             coap_set_payload(response, response->payload + block_offset, MIN(respon
 1184              		.loc 1 352 95 view .LVU299
 1185 04b4 521A     		subs	r2, r2, r1
 352:C:/Users/²Ü¼ÒºÀ/.iotlink/sdk/IoT_LINK/iot_link/network/lwm2m/wakaama_lwm2m/wakaama-master/core\packet.c ****                             coap_set_payload(response, response->payload + block_offset, MIN(respon
 1186              		.loc 1 352 29 view .LVU300
 1187 04b6 9A42     		cmp	r2, r3
 1188 04b8 94BF     		ite	ls
 1189 04ba 0022     		movls	r2, #0
 1190 04bc 0122     		movhi	r2, #1
 1191 04be 0F99     		ldr	r1, [sp, #60]
 1192 04c0 FFF7FEFF 		bl	coap_set_header_block2
 1193              	.LVL131:
 353:C:/Users/²Ü¼ÒºÀ/.iotlink/sdk/IoT_LINK/iot_link/network/lwm2m/wakaama_lwm2m/wakaama-master/core\packet.c ****                         } /* if (valid offset) */
 1194              		.loc 1 353 29 is_stmt 1 view .LVU301
 1195 04c4 1099     		ldr	r1, [sp, #64]
 353:C:/Users/²Ü¼ÒºÀ/.iotlink/sdk/IoT_LINK/iot_link/network/lwm2m/wakaama_lwm2m/wakaama-master/core\packet.c ****                         } /* if (valid offset) */
 1196              		.loc 1 353 90 is_stmt 0 view .LVU302
 1197 04c6 BAF88630 		ldrh	r3, [r10, #134]
 353:C:/Users/²Ü¼ÒºÀ/.iotlink/sdk/IoT_LINK/iot_link/network/lwm2m/wakaama_lwm2m/wakaama-master/core\packet.c ****                         } /* if (valid offset) */
 1198              		.loc 1 353 29 view .LVU303
 1199 04ca BDF83820 		ldrh	r2, [sp, #56]
 353:C:/Users/²Ü¼ÒºÀ/.iotlink/sdk/IoT_LINK/iot_link/network/lwm2m/wakaama_lwm2m/wakaama-master/core\packet.c ****                         } /* if (valid offset) */
 1200              		.loc 1 353 74 view .LVU304
 1201 04ce DAF88800 		ldr	r0, [r10, #136]
 353:C:/Users/²Ü¼ÒºÀ/.iotlink/sdk/IoT_LINK/iot_link/network/lwm2m/wakaama_lwm2m/wakaama-master/core\packet.c ****                         } /* if (valid offset) */
 1202              		.loc 1 353 90 view .LVU305
 1203 04d2 5B1A     		subs	r3, r3, r1
 353:C:/Users/²Ü¼ÒºÀ/.iotlink/sdk/IoT_LINK/iot_link/network/lwm2m/wakaama_lwm2m/wakaama-master/core\packet.c ****                         } /* if (valid offset) */
 1204              		.loc 1 353 29 view .LVU306
 1205 04d4 9A42     		cmp	r2, r3
 1206 04d6 28BF     		it	cs
 1207 04d8 1A46     		movcs	r2, r3
 1208 04da 0144     		add	r1, r1, r0
 1209 04dc 57E7     		b	.L76
 1210              	.L37:
 359:C:/Users/²Ü¼ÒºÀ/.iotlink/sdk/IoT_LINK/iot_link/network/lwm2m/wakaama_lwm2m/wakaama-master/core\packet.c ****                         coap_set_header_block2(response, block_num, new_offset != -1 || response->p
 1211              		.loc 1 359 25 is_stmt 1 view .LVU307
 359:C:/Users/²Ü¼ÒºÀ/.iotlink/sdk/IoT_LINK/iot_link/network/lwm2m/wakaama_lwm2m/wakaama-master/core\packet.c ****                         coap_set_header_block2(response, block_num, new_offset != -1 || response->p
 1212              		.loc 1 359 25 view .LVU308
 1213 04de FFF7FEFF 		bl	link_log_level_get
 1214              	.LVL132:
 1215 04e2 0128     		cmp	r0, #1
 1216 04e4 1BD8     		bhi	.L42
 359:C:/Users/²Ü¼ÒºÀ/.iotlink/sdk/IoT_LINK/iot_link/network/lwm2m/wakaama_lwm2m/wakaama-master/core\packet.c ****                         coap_set_header_block2(response, block_num, new_offset != -1 || response->p
 1217              		.loc 1 359 25 discriminator 1 view .LVU309
ARM GAS  C:\Users\²Ü¼ÒºÀ\AppData\Local\Temp\ccepIYuV.s 			page 37


 359:C:/Users/²Ü¼ÒºÀ/.iotlink/sdk/IoT_LINK/iot_link/network/lwm2m/wakaama_lwm2m/wakaama-master/core\packet.c ****                         coap_set_header_block2(response, block_num, new_offset != -1 || response->p
 1218              		.loc 1 359 25 discriminator 1 view .LVU310
 359:C:/Users/²Ü¼ÒºÀ/.iotlink/sdk/IoT_LINK/iot_link/network/lwm2m/wakaama_lwm2m/wakaama-master/core\packet.c ****                         coap_set_header_block2(response, block_num, new_offset != -1 || response->p
 1219              		.loc 1 359 25 discriminator 1 view .LVU311
 1220 04e6 0120     		movs	r0, #1
 1221 04e8 FFF7FEFF 		bl	link_log_level_name
 1222              	.LVL133:
 1223 04ec 0446     		mov	r4, r0
 1224 04ee FFF7FEFF 		bl	osal_sys_time
 1225              	.LVL134:
 1226 04f2 0B90     		str	r0, [sp, #44]
 1227 04f4 FFF7FEFF 		bl	lwm2m_gettime
 1228              	.LVL135:
 1229 04f8 40F26713 		movw	r3, #359
 1230 04fc 0293     		str	r3, [sp, #8]
 1231 04fe 4D4B     		ldr	r3, .L82
 1232 0500 0B9A     		ldr	r2, [sp, #44]
 1233 0502 CDF80C80 		str	r8, [sp, #12]
 1234 0506 CDE90003 		strd	r0, r3, [sp]
 1235 050a 2146     		mov	r1, r4
 1236 050c 4A4B     		ldr	r3, .L82+4
 1237 050e 5148     		ldr	r0, .L82+32
 1238 0510 FFF7FEFF 		bl	printf
 1239              	.LVL136:
 359:C:/Users/²Ü¼ÒºÀ/.iotlink/sdk/IoT_LINK/iot_link/network/lwm2m/wakaama_lwm2m/wakaama-master/core\packet.c ****                         coap_set_header_block2(response, block_num, new_offset != -1 || response->p
 1240              		.loc 1 359 25 discriminator 1 view .LVU312
 1241 0514 4A4B     		ldr	r3, .L82+12
 1242 0516 1B68     		ldr	r3, [r3]
 1243 0518 9868     		ldr	r0, [r3, #8]
 1244 051a FFF7FEFF 		bl	fflush
 1245              	.LVL137:
 1246              	.L42:
 359:C:/Users/²Ü¼ÒºÀ/.iotlink/sdk/IoT_LINK/iot_link/network/lwm2m/wakaama_lwm2m/wakaama-master/core\packet.c ****                         coap_set_header_block2(response, block_num, new_offset != -1 || response->p
 1247              		.loc 1 359 25 discriminator 3 view .LVU313
 359:C:/Users/²Ü¼ÒºÀ/.iotlink/sdk/IoT_LINK/iot_link/network/lwm2m/wakaama_lwm2m/wakaama-master/core\packet.c ****                         coap_set_header_block2(response, block_num, new_offset != -1 || response->p
 1248              		.loc 1 359 25 discriminator 3 view .LVU314
 359:C:/Users/²Ü¼ÒºÀ/.iotlink/sdk/IoT_LINK/iot_link/network/lwm2m/wakaama_lwm2m/wakaama-master/core\packet.c ****                         coap_set_header_block2(response, block_num, new_offset != -1 || response->p
 1249              		.loc 1 359 25 discriminator 3 view .LVU315
 360:C:/Users/²Ü¼ÒºÀ/.iotlink/sdk/IoT_LINK/iot_link/network/lwm2m/wakaama_lwm2m/wakaama-master/core\packet.c ****                         if (response->payload_len > block_size) coap_set_payload(response, response
 1250              		.loc 1 360 25 discriminator 3 view .LVU316
 1251 051e BDF83830 		ldrh	r3, [sp, #56]
 1252 0522 0F99     		ldr	r1, [sp, #60]
 1253 0524 4848     		ldr	r0, .L82+20
 1254 0526 0122     		movs	r2, #1
 1255 0528 FFF7FEFF 		bl	coap_set_header_block2
 1256              	.LVL138:
 361:C:/Users/²Ü¼ÒºÀ/.iotlink/sdk/IoT_LINK/iot_link/network/lwm2m/wakaama_lwm2m/wakaama-master/core\packet.c ****                     } /* if (resource aware of blockwise) */
 1257              		.loc 1 361 25 discriminator 3 view .LVU317
 361:C:/Users/²Ü¼ÒºÀ/.iotlink/sdk/IoT_LINK/iot_link/network/lwm2m/wakaama_lwm2m/wakaama-master/core\packet.c ****                     } /* if (resource aware of blockwise) */
 1258              		.loc 1 361 51 is_stmt 0 discriminator 3 view .LVU318
 1259 052c BDF83820 		ldrh	r2, [sp, #56]
 361:C:/Users/²Ü¼ÒºÀ/.iotlink/sdk/IoT_LINK/iot_link/network/lwm2m/wakaama_lwm2m/wakaama-master/core\packet.c ****                     } /* if (resource aware of blockwise) */
 1260              		.loc 1 361 28 discriminator 3 view .LVU319
 1261 0530 BAF88630 		ldrh	r3, [r10, #134]
 1262 0534 9342     		cmp	r3, r2
 1263 0536 7FF62DAF 		bls	.L41
 1264              	.L77:
ARM GAS  C:\Users\²Ü¼ÒºÀ\AppData\Local\Temp\ccepIYuV.s 			page 38


 369:C:/Users/²Ü¼ÒºÀ/.iotlink/sdk/IoT_LINK/iot_link/network/lwm2m/wakaama_lwm2m/wakaama-master/core\packet.c ****                 } /* if (blockwise request) */
 1265              		.loc 1 369 21 discriminator 3 view .LVU320
 1266 053a DAF88810 		ldr	r1, [r10, #136]
 1267 053e 26E7     		b	.L76
 1268              	.L36:
 364:C:/Users/²Ü¼ÒºÀ/.iotlink/sdk/IoT_LINK/iot_link/network/lwm2m/wakaama_lwm2m/wakaama-master/core\packet.c ****                 {
 1269              		.loc 1 364 22 is_stmt 1 view .LVU321
 364:C:/Users/²Ü¼ÒºÀ/.iotlink/sdk/IoT_LINK/iot_link/network/lwm2m/wakaama_lwm2m/wakaama-master/core\packet.c ****                 {
 1270              		.loc 1 364 25 is_stmt 0 view .LVU322
 1271 0540 58EA0903 		orrs	r3, r8, r9
 1272 0544 3FF426AF 		beq	.L41
 366:C:/Users/²Ü¼ÒºÀ/.iotlink/sdk/IoT_LINK/iot_link/network/lwm2m/wakaama_lwm2m/wakaama-master/core\packet.c **** 
 1273              		.loc 1 366 21 is_stmt 1 view .LVU323
 366:C:/Users/²Ü¼ÒºÀ/.iotlink/sdk/IoT_LINK/iot_link/network/lwm2m/wakaama_lwm2m/wakaama-master/core\packet.c **** 
 1274              		.loc 1 366 21 view .LVU324
 1275 0548 FFF7FEFF 		bl	link_log_level_get
 1276              	.LVL139:
 1277 054c 0128     		cmp	r0, #1
 1278 054e 1BD8     		bhi	.L45
 366:C:/Users/²Ü¼ÒºÀ/.iotlink/sdk/IoT_LINK/iot_link/network/lwm2m/wakaama_lwm2m/wakaama-master/core\packet.c **** 
 1279              		.loc 1 366 21 discriminator 1 view .LVU325
 366:C:/Users/²Ü¼ÒºÀ/.iotlink/sdk/IoT_LINK/iot_link/network/lwm2m/wakaama_lwm2m/wakaama-master/core\packet.c **** 
 1280              		.loc 1 366 21 discriminator 1 view .LVU326
 366:C:/Users/²Ü¼ÒºÀ/.iotlink/sdk/IoT_LINK/iot_link/network/lwm2m/wakaama_lwm2m/wakaama-master/core\packet.c **** 
 1281              		.loc 1 366 21 discriminator 1 view .LVU327
 1282 0550 0120     		movs	r0, #1
 1283 0552 FFF7FEFF 		bl	link_log_level_name
 1284              	.LVL140:
 1285 0556 0446     		mov	r4, r0
 1286 0558 FFF7FEFF 		bl	osal_sys_time
 1287              	.LVL141:
 1288 055c 0B90     		str	r0, [sp, #44]
 1289 055e FFF7FEFF 		bl	lwm2m_gettime
 1290              	.LVL142:
 1291 0562 4FF4B773 		mov	r3, #366
 1292 0566 8022     		movs	r2, #128
 1293 0568 CDE90232 		strd	r3, r2, [sp, #8]
 1294 056c 314B     		ldr	r3, .L82
 1295 056e 0B9A     		ldr	r2, [sp, #44]
 1296 0570 CDE90003 		strd	r0, r3, [sp]
 1297 0574 2146     		mov	r1, r4
 1298 0576 304B     		ldr	r3, .L82+4
 1299 0578 3748     		ldr	r0, .L82+36
 1300 057a FFF7FEFF 		bl	printf
 1301              	.LVL143:
 366:C:/Users/²Ü¼ÒºÀ/.iotlink/sdk/IoT_LINK/iot_link/network/lwm2m/wakaama_lwm2m/wakaama-master/core\packet.c **** 
 1302              		.loc 1 366 21 discriminator 1 view .LVU328
 1303 057e 304B     		ldr	r3, .L82+12
 1304 0580 1B68     		ldr	r3, [r3]
 1305 0582 9868     		ldr	r0, [r3, #8]
 1306 0584 FFF7FEFF 		bl	fflush
 1307              	.LVL144:
 1308              	.L45:
 366:C:/Users/²Ü¼ÒºÀ/.iotlink/sdk/IoT_LINK/iot_link/network/lwm2m/wakaama_lwm2m/wakaama-master/core\packet.c **** 
 1309              		.loc 1 366 21 discriminator 3 view .LVU329
 366:C:/Users/²Ü¼ÒºÀ/.iotlink/sdk/IoT_LINK/iot_link/network/lwm2m/wakaama_lwm2m/wakaama-master/core\packet.c **** 
 1310              		.loc 1 366 21 discriminator 3 view .LVU330
ARM GAS  C:\Users\²Ü¼ÒºÀ\AppData\Local\Temp\ccepIYuV.s 			page 39


 366:C:/Users/²Ü¼ÒºÀ/.iotlink/sdk/IoT_LINK/iot_link/network/lwm2m/wakaama_lwm2m/wakaama-master/core\packet.c **** 
 1311              		.loc 1 366 21 discriminator 3 view .LVU331
 368:C:/Users/²Ü¼ÒºÀ/.iotlink/sdk/IoT_LINK/iot_link/network/lwm2m/wakaama_lwm2m/wakaama-master/core\packet.c ****                     coap_set_payload(response, response->payload, MIN(response->payload_len, REST_M
 1312              		.loc 1 368 21 discriminator 3 view .LVU332
 1313 0588 0122     		movs	r2, #1
 1314 058a 2F48     		ldr	r0, .L82+20
 1315 058c 8023     		movs	r3, #128
 1316 058e 0021     		movs	r1, #0
 1317 0590 FFF7FEFF 		bl	coap_set_header_block2
 1318              	.LVL145:
 369:C:/Users/²Ü¼ÒºÀ/.iotlink/sdk/IoT_LINK/iot_link/network/lwm2m/wakaama_lwm2m/wakaama-master/core\packet.c ****                 } /* if (blockwise request) */
 1319              		.loc 1 369 21 discriminator 3 view .LVU333
 369:C:/Users/²Ü¼ÒºÀ/.iotlink/sdk/IoT_LINK/iot_link/network/lwm2m/wakaama_lwm2m/wakaama-master/core\packet.c ****                 } /* if (blockwise request) */
 1320              		.loc 1 369 67 is_stmt 0 discriminator 3 view .LVU334
 1321 0594 BAF88620 		ldrh	r2, [r10, #134]
 369:C:/Users/²Ü¼ÒºÀ/.iotlink/sdk/IoT_LINK/iot_link/network/lwm2m/wakaama_lwm2m/wakaama-master/core\packet.c ****                 } /* if (blockwise request) */
 1322              		.loc 1 369 21 discriminator 3 view .LVU335
 1323 0598 802A     		cmp	r2, #128
 1324 059a 28BF     		it	cs
 1325 059c 8022     		movcs	r2, #128
 1326 059e CCE7     		b	.L77
 1327              	.LVL146:
 1328              	.L35:
 378:C:/Users/²Ü¼ÒºÀ/.iotlink/sdk/IoT_LINK/iot_link/network/lwm2m/wakaama_lwm2m/wakaama-master/core\packet.c ****             {
 1329              		.loc 1 378 18 is_stmt 1 view .LVU336
 378:C:/Users/²Ü¼ÒºÀ/.iotlink/sdk/IoT_LINK/iot_link/network/lwm2m/wakaama_lwm2m/wakaama-master/core\packet.c ****             {
 1330              		.loc 1 378 21 is_stmt 0 view .LVU337
 1331 05a0 012C     		cmp	r4, #1
 1332 05a2 3FF406AF 		beq	.L47
 1333 05a6 62E7     		b	.L26
 1334              	.LVL147:
 1335              	.L57:
 1336              	.LBB23:
 298:C:/Users/²Ü¼ÒºÀ/.iotlink/sdk/IoT_LINK/iot_link/network/lwm2m/wakaama_lwm2m/wakaama-master/core\packet.c ****                 }
 1337              		.loc 1 298 37 view .LVU338
 1338 05a8 A024     		movs	r4, #160
 1339 05aa 60E7     		b	.L26
 1340              	.LVL148:
 1341              	.L58:
 298:C:/Users/²Ü¼ÒºÀ/.iotlink/sdk/IoT_LINK/iot_link/network/lwm2m/wakaama_lwm2m/wakaama-master/core\packet.c ****                 }
 1342              		.loc 1 298 37 view .LVU339
 1343              	.LBE23:
 1344              	.LBB24:
 1345              	.LBB20:
 156:C:/Users/²Ü¼ÒºÀ/.iotlink/sdk/IoT_LINK/iot_link/network/lwm2m/wakaama_lwm2m/wakaama-master/core\packet.c **** 
 1346              		.loc 1 156 30 view .LVU340
 1347 05ac 8024     		movs	r4, #128
 1348 05ae 5EE7     		b	.L26
 1349              	.LVL149:
 1350              	.L19:
 156:C:/Users/²Ü¼ÒºÀ/.iotlink/sdk/IoT_LINK/iot_link/network/lwm2m/wakaama_lwm2m/wakaama-master/core\packet.c **** 
 1351              		.loc 1 156 30 view .LVU341
 1352              	.LBE20:
 1353              	.LBE24:
 1354              	.LBE27:
 389:C:/Users/²Ü¼ÒºÀ/.iotlink/sdk/IoT_LINK/iot_link/network/lwm2m/wakaama_lwm2m/wakaama-master/core\packet.c ****             {
 1355              		.loc 1 389 13 is_stmt 1 view .LVU342
ARM GAS  C:\Users\²Ü¼ÒºÀ\AppData\Local\Temp\ccepIYuV.s 			page 40


 1356 05b0 022B     		cmp	r3, #2
 1357 05b2 25D0     		beq	.L48
 1358 05b4 2BD9     		bls	.L49
 1359 05b6 032B     		cmp	r3, #3
 1360 05b8 7FF4FBAE 		bne	.L47
 413:C:/Users/²Ü¼ÒºÀ/.iotlink/sdk/IoT_LINK/iot_link/network/lwm2m/wakaama_lwm2m/wakaama-master/core\packet.c ****                 transaction_handleResponse(contextP, fromSessionH, message, NULL);
 1361              		.loc 1 413 17 view .LVU343
 1362              	.LVL150:
 1363              	.LBB28:
 1364              	.LBI28:
 130:C:/Users/²Ü¼ÒºÀ/.iotlink/sdk/IoT_LINK/iot_link/network/lwm2m/wakaama_lwm2m/wakaama-master/core\packet.c ****                          void *fromSessionH,
 1365              		.loc 1 130 13 view .LVU344
 1366              	.LBB29:
 135:C:/Users/²Ü¼ÒºÀ/.iotlink/sdk/IoT_LINK/iot_link/network/lwm2m/wakaama_lwm2m/wakaama-master/core\packet.c ****     observe_cancel(contextP, message->mid, fromSessionH);
 1367              		.loc 1 135 5 view .LVU345
 135:C:/Users/²Ü¼ÒºÀ/.iotlink/sdk/IoT_LINK/iot_link/network/lwm2m/wakaama_lwm2m/wakaama-master/core\packet.c ****     observe_cancel(contextP, message->mid, fromSessionH);
 1368              		.loc 1 135 5 view .LVU346
 1369 05bc FFF7FEFF 		bl	link_log_level_get
 1370              	.LVL151:
 1371 05c0 0128     		cmp	r0, #1
 1372 05c2 18D8     		bhi	.L51
 135:C:/Users/²Ü¼ÒºÀ/.iotlink/sdk/IoT_LINK/iot_link/network/lwm2m/wakaama_lwm2m/wakaama-master/core\packet.c ****     observe_cancel(contextP, message->mid, fromSessionH);
 1373              		.loc 1 135 5 view .LVU347
 135:C:/Users/²Ü¼ÒºÀ/.iotlink/sdk/IoT_LINK/iot_link/network/lwm2m/wakaama_lwm2m/wakaama-master/core\packet.c ****     observe_cancel(contextP, message->mid, fromSessionH);
 1374              		.loc 1 135 5 view .LVU348
 135:C:/Users/²Ü¼ÒºÀ/.iotlink/sdk/IoT_LINK/iot_link/network/lwm2m/wakaama_lwm2m/wakaama-master/core\packet.c ****     observe_cancel(contextP, message->mid, fromSessionH);
 1375              		.loc 1 135 5 view .LVU349
 1376 05c4 0120     		movs	r0, #1
 1377 05c6 FFF7FEFF 		bl	link_log_level_name
 1378              	.LVL152:
 1379 05ca 8046     		mov	r8, r0
 1380 05cc FFF7FEFF 		bl	osal_sys_time
 1381              	.LVL153:
 1382 05d0 0B90     		str	r0, [sp, #44]
 1383 05d2 FFF7FEFF 		bl	lwm2m_gettime
 1384              	.LVL154:
 1385 05d6 8723     		movs	r3, #135
 1386 05d8 0293     		str	r3, [sp, #8]
 1387 05da 204B     		ldr	r3, .L82+40
 1388 05dc 0B9A     		ldr	r2, [sp, #44]
 1389 05de CDE90003 		strd	r0, r3, [sp]
 1390 05e2 4146     		mov	r1, r8
 1391 05e4 1E4B     		ldr	r3, .L82+44
 1392 05e6 1F48     		ldr	r0, .L82+48
 1393 05e8 FFF7FEFF 		bl	printf
 1394              	.LVL155:
 135:C:/Users/²Ü¼ÒºÀ/.iotlink/sdk/IoT_LINK/iot_link/network/lwm2m/wakaama_lwm2m/wakaama-master/core\packet.c ****     observe_cancel(contextP, message->mid, fromSessionH);
 1395              		.loc 1 135 5 view .LVU350
 1396 05ec 144B     		ldr	r3, .L82+12
 1397 05ee 1B68     		ldr	r3, [r3]
 1398 05f0 9868     		ldr	r0, [r3, #8]
 1399 05f2 FFF7FEFF 		bl	fflush
 1400              	.LVL156:
 1401              	.L51:
 135:C:/Users/²Ü¼ÒºÀ/.iotlink/sdk/IoT_LINK/iot_link/network/lwm2m/wakaama_lwm2m/wakaama-master/core\packet.c ****     observe_cancel(contextP, message->mid, fromSessionH);
 1402              		.loc 1 135 5 view .LVU351
 135:C:/Users/²Ü¼ÒºÀ/.iotlink/sdk/IoT_LINK/iot_link/network/lwm2m/wakaama_lwm2m/wakaama-master/core\packet.c ****     observe_cancel(contextP, message->mid, fromSessionH);
ARM GAS  C:\Users\²Ü¼ÒºÀ\AppData\Local\Temp\ccepIYuV.s 			page 41


 1403              		.loc 1 135 5 view .LVU352
 135:C:/Users/²Ü¼ÒºÀ/.iotlink/sdk/IoT_LINK/iot_link/network/lwm2m/wakaama_lwm2m/wakaama-master/core\packet.c ****     observe_cancel(contextP, message->mid, fromSessionH);
 1404              		.loc 1 135 5 view .LVU353
 136:C:/Users/²Ü¼ÒºÀ/.iotlink/sdk/IoT_LINK/iot_link/network/lwm2m/wakaama_lwm2m/wakaama-master/core\packet.c **** #endif
 1405              		.loc 1 136 5 view .LVU354
 1406 05f6 2989     		ldrh	r1, [r5, #8]
 1407 05f8 3A46     		mov	r2, r7
 1408 05fa 3046     		mov	r0, r6
 1409 05fc FFF7FEFF 		bl	observe_cancel
 1410              	.LVL157:
 136:C:/Users/²Ü¼ÒºÀ/.iotlink/sdk/IoT_LINK/iot_link/network/lwm2m/wakaama_lwm2m/wakaama-master/core\packet.c **** #endif
 1411              		.loc 1 136 5 is_stmt 0 view .LVU355
 1412              	.LBE29:
 1413              	.LBE28:
 414:C:/Users/²Ü¼ÒºÀ/.iotlink/sdk/IoT_LINK/iot_link/network/lwm2m/wakaama_lwm2m/wakaama-master/core\packet.c ****                 break;
 1414              		.loc 1 414 17 is_stmt 1 view .LVU356
 1415              	.L48:
 418:C:/Users/²Ü¼ÒºÀ/.iotlink/sdk/IoT_LINK/iot_link/network/lwm2m/wakaama_lwm2m/wakaama-master/core\packet.c ****                 break;
 1416              		.loc 1 418 17 view .LVU357
 1417 0600 124A     		ldr	r2, .L82+24
 1418 0602 0023     		movs	r3, #0
 1419 0604 3946     		mov	r1, r7
 1420 0606 3046     		mov	r0, r6
 1421 0608 FFF7FEFF 		bl	transaction_handleResponse
 1422              	.LVL158:
 419:C:/Users/²Ü¼ÒºÀ/.iotlink/sdk/IoT_LINK/iot_link/network/lwm2m/wakaama_lwm2m/wakaama-master/core\packet.c **** 
 1423              		.loc 1 419 17 view .LVU358
 1424 060c D1E6     		b	.L47
 1425              	.L49:
 1426              	.LBB30:
 394:C:/Users/²Ü¼ÒºÀ/.iotlink/sdk/IoT_LINK/iot_link/network/lwm2m/wakaama_lwm2m/wakaama-master/core\packet.c **** 
 1427              		.loc 1 394 17 view .LVU359
 394:C:/Users/²Ü¼ÒºÀ/.iotlink/sdk/IoT_LINK/iot_link/network/lwm2m/wakaama_lwm2m/wakaama-master/core\packet.c **** 
 1428              		.loc 1 394 29 is_stmt 0 view .LVU360
 1429 060e 0E4B     		ldr	r3, .L82+20
 1430 0610 0E4A     		ldr	r2, .L82+24
 1431 0612 3946     		mov	r1, r7
 1432 0614 3046     		mov	r0, r6
 1433 0616 FFF7FEFF 		bl	transaction_handleResponse
 1434              	.LVL159:
 403:C:/Users/²Ü¼ÒºÀ/.iotlink/sdk/IoT_LINK/iot_link/network/lwm2m/wakaama_lwm2m/wakaama-master/core\packet.c ****                 {
 1435              		.loc 1 403 17 is_stmt 1 view .LVU361
 403:C:/Users/²Ü¼ÒºÀ/.iotlink/sdk/IoT_LINK/iot_link/network/lwm2m/wakaama_lwm2m/wakaama-master/core\packet.c ****                 {
 1436              		.loc 1 403 20 is_stmt 0 view .LVU362
 1437 061a 0028     		cmp	r0, #0
 1438 061c 7FF4C9AE 		bne	.L47
 403:C:/Users/²Ü¼ÒºÀ/.iotlink/sdk/IoT_LINK/iot_link/network/lwm2m/wakaama_lwm2m/wakaama-master/core\packet.c ****                 {
 1439              		.loc 1 403 27 discriminator 1 view .LVU363
 1440 0620 6A79     		ldrb	r2, [r5, #5]	@ zero_extendqisi2
 1441 0622 002A     		cmp	r2, #0
 1442 0624 7FF4C5AE 		bne	.L47
 405:C:/Users/²Ü¼ÒºÀ/.iotlink/sdk/IoT_LINK/iot_link/network/lwm2m/wakaama_lwm2m/wakaama-master/core\packet.c ****                     coap_error_code = message_send(contextP, response, fromSessionH);
 1443              		.loc 1 405 21 is_stmt 1 view .LVU364
 1444 0628 2B89     		ldrh	r3, [r5, #8]
 1445 062a 0748     		ldr	r0, .L82+20
 1446              	.LVL160:
 405:C:/Users/²Ü¼ÒºÀ/.iotlink/sdk/IoT_LINK/iot_link/network/lwm2m/wakaama_lwm2m/wakaama-master/core\packet.c ****                     coap_error_code = message_send(contextP, response, fromSessionH);
ARM GAS  C:\Users\²Ü¼ÒºÀ\AppData\Local\Temp\ccepIYuV.s 			page 42


 1447              		.loc 1 405 21 is_stmt 0 view .LVU365
 1448 062c 0221     		movs	r1, #2
 1449 062e FFF7FEFF 		bl	coap_init_message
 1450              	.LVL161:
 1451 0632 22E7     		b	.L78
 1452              	.L83:
 1453              		.align	2
 1454              	.L82:
 1455 0634 00000000 		.word	.LANCHOR3
 1456 0638 00000000 		.word	.LANCHOR2
 1457 063c 5E010000 		.word	.LC7
 1458 0640 00000000 		.word	_impure_ptr
 1459 0644 B9010000 		.word	.LC8
 1460 0648 00000000 		.word	.LANCHOR5
 1461 064c 00000000 		.word	.LANCHOR4
 1462 0650 B2020000 		.word	.LC12
 1463 0654 C9010000 		.word	.LC9
 1464 0658 13020000 		.word	.LC10
 1465 065c 00000000 		.word	.LANCHOR9
 1466 0660 00000000 		.word	.LANCHOR8
 1467 0664 00000000 		.word	.LC0
 1468 0668 00000000 		.word	coap_error_message
 1469              	.LVL162:
 1470              	.L17:
 405:C:/Users/²Ü¼ÒºÀ/.iotlink/sdk/IoT_LINK/iot_link/network/lwm2m/wakaama_lwm2m/wakaama-master/core\packet.c ****                     coap_error_code = message_send(contextP, response, fromSessionH);
 1471              		.loc 1 405 21 view .LVU366
 1472              	.LBE30:
 429:C:/Users/²Ü¼ÒºÀ/.iotlink/sdk/IoT_LINK/iot_link/network/lwm2m/wakaama_lwm2m/wakaama-master/core\packet.c ****     }
 1473              		.loc 1 429 9 is_stmt 1 view .LVU367
 429:C:/Users/²Ü¼ÒºÀ/.iotlink/sdk/IoT_LINK/iot_link/network/lwm2m/wakaama_lwm2m/wakaama-master/core\packet.c ****     }
 1474              		.loc 1 429 9 view .LVU368
 1475 066c FFF7FEFF 		bl	link_log_level_get
 1476              	.LVL163:
 429:C:/Users/²Ü¼ÒºÀ/.iotlink/sdk/IoT_LINK/iot_link/network/lwm2m/wakaama_lwm2m/wakaama-master/core\packet.c ****     }
 1477              		.loc 1 429 9 is_stmt 0 view .LVU369
 1478 0670 0128     		cmp	r0, #1
 1479 0672 3FF6A1AE 		bhi	.L52
 429:C:/Users/²Ü¼ÒºÀ/.iotlink/sdk/IoT_LINK/iot_link/network/lwm2m/wakaama_lwm2m/wakaama-master/core\packet.c ****     }
 1480              		.loc 1 429 9 is_stmt 1 discriminator 1 view .LVU370
 429:C:/Users/²Ü¼ÒºÀ/.iotlink/sdk/IoT_LINK/iot_link/network/lwm2m/wakaama_lwm2m/wakaama-master/core\packet.c ****     }
 1481              		.loc 1 429 9 discriminator 1 view .LVU371
 429:C:/Users/²Ü¼ÒºÀ/.iotlink/sdk/IoT_LINK/iot_link/network/lwm2m/wakaama_lwm2m/wakaama-master/core\packet.c ****     }
 1482              		.loc 1 429 9 discriminator 1 view .LVU372
 1483 0676 0120     		movs	r0, #1
 1484 0678 FFF7FEFF 		bl	link_log_level_name
 1485              	.LVL164:
 1486 067c 8046     		mov	r8, r0
 1487              	.LVL165:
 429:C:/Users/²Ü¼ÒºÀ/.iotlink/sdk/IoT_LINK/iot_link/network/lwm2m/wakaama_lwm2m/wakaama-master/core\packet.c ****     }
 1488              		.loc 1 429 9 is_stmt 0 discriminator 1 view .LVU373
 1489 067e FFF7FEFF 		bl	osal_sys_time
 1490              	.LVL166:
 1491 0682 0B90     		str	r0, [sp, #44]
 1492 0684 FFF7FEFF 		bl	lwm2m_gettime
 1493              	.LVL167:
 1494 0688 04F01F03 		and	r3, r4, #31
 1495 068c 0493     		str	r3, [sp, #16]
ARM GAS  C:\Users\²Ü¼ÒºÀ\AppData\Local\Temp\ccepIYuV.s 			page 43


 1496 068e C4F34713 		ubfx	r3, r4, #5, #8
 1497 0692 0393     		str	r3, [sp, #12]
 1498 0694 40F2AD13 		movw	r3, #429
 1499 0698 0293     		str	r3, [sp, #8]
 1500 069a 074B     		ldr	r3, .L84
 1501 069c 0B9A     		ldr	r2, [sp, #44]
 1502 069e CDE90003 		strd	r0, r3, [sp]
 1503 06a2 4146     		mov	r1, r8
 1504 06a4 054B     		ldr	r3, .L84+4
 1505 06a6 0648     		ldr	r0, .L84+8
 1506 06a8 FFF7FEFF 		bl	printf
 1507              	.LVL168:
 429:C:/Users/²Ü¼ÒºÀ/.iotlink/sdk/IoT_LINK/iot_link/network/lwm2m/wakaama_lwm2m/wakaama-master/core\packet.c ****     }
 1508              		.loc 1 429 9 is_stmt 1 discriminator 1 view .LVU374
 1509 06ac 054B     		ldr	r3, .L84+12
 1510 06ae 1B68     		ldr	r3, [r3]
 1511 06b0 9868     		ldr	r0, [r3, #8]
 1512 06b2 FFF7FEFF 		bl	fflush
 1513              	.LVL169:
 1514 06b6 7FE6     		b	.L52
 1515              	.L85:
 1516              		.align	2
 1517              	.L84:
 1518 06b8 00000000 		.word	.LANCHOR3
 1519 06bc 00000000 		.word	.LANCHOR2
 1520 06c0 77020000 		.word	.LC11
 1521 06c4 00000000 		.word	_impure_ptr
 1522              		.cfi_endproc
 1523              	.LFE6:
 1525              		.section	.bss.message.8718,"aw",%nobits
 1526              		.align	2
 1527              		.set	.LANCHOR4,. + 0
 1530              	message.8718:
 1531 0000 00000000 		.space	140
 1531      00000000 
 1531      00000000 
 1531      00000000 
 1531      00000000 
 1532              		.section	.bss.response.8719,"aw",%nobits
 1533              		.align	2
 1534              		.set	.LANCHOR5,. + 0
 1537              	response.8719:
 1538 0000 00000000 		.space	140
 1538      00000000 
 1538      00000000 
 1538      00000000 
 1538      00000000 
 1539              		.section	.rodata.__FUNCTION__.8695,"a"
 1540              		.set	.LANCHOR8,. + 0
 1543              	__FUNCTION__.8695:
 1544 0000 68616E64 		.ascii	"handle_reset\000"
 1544      6C655F72 
 1544      65736574 
 1544      00
 1545              		.section	.rodata.__FUNCTION__.8705,"a"
 1546              		.set	.LANCHOR6,. + 0
 1549              	__FUNCTION__.8705:
ARM GAS  C:\Users\²Ü¼ÒºÀ\AppData\Local\Temp\ccepIYuV.s 			page 44


 1550 0000 68616E64 		.ascii	"handle_request\000"
 1550      6C655F72 
 1550      65717565 
 1550      737400
 1551              		.section	.rodata.__FUNCTION__.8720,"a"
 1552              		.set	.LANCHOR2,. + 0
 1555              	__FUNCTION__.8720:
 1556 0000 6C776D32 		.ascii	"lwm2m_handle_packet\000"
 1556      6D5F6861 
 1556      6E646C65 
 1556      5F706163 
 1556      6B657400 
 1557              		.section	.rodata.__FUNCTION__.8748,"a"
 1558              		.set	.LANCHOR0,. + 0
 1561              	__FUNCTION__.8748:
 1562 0000 6D657373 		.ascii	"message_send\000"
 1562      6167655F 
 1562      73656E64 
 1562      00
 1563              		.section	.rodata.__func__.8696,"a"
 1564              		.set	.LANCHOR9,. + 0
 1567              	__func__.8696:
 1568 0000 68616E64 		.ascii	"handle_reset\000"
 1568      6C655F72 
 1568      65736574 
 1568      00
 1569              		.section	.rodata.__func__.8706,"a"
 1570              		.set	.LANCHOR7,. + 0
 1573              	__func__.8706:
 1574 0000 68616E64 		.ascii	"handle_request\000"
 1574      6C655F72 
 1574      65717565 
 1574      737400
 1575              		.section	.rodata.__func__.8721,"a"
 1576              		.set	.LANCHOR3,. + 0
 1579              	__func__.8721:
 1580 0000 6C776D32 		.ascii	"lwm2m_handle_packet\000"
 1580      6D5F6861 
 1580      6E646C65 
 1580      5F706163 
 1580      6B657400 
 1581              		.section	.rodata.__func__.8749,"a"
 1582              		.set	.LANCHOR1,. + 0
 1585              	__func__.8749:
 1586 0000 6D657373 		.ascii	"message_send\000"
 1586      6167655F 
 1586      73656E64 
 1586      00
 1587              		.text
 1588              	.Letext0:
 1589              		.file 2 "c:\\users\\\262\334\274\322\272\300\\.iotlink\\tools\\gcc-arm-none-eabi\\arm-none-eabi\\i
 1590              		.file 3 "c:\\users\\\262\334\274\322\272\300\\.iotlink\\tools\\gcc-arm-none-eabi\\arm-none-eabi\\i
 1591              		.file 4 "C:/Users/\262\334\274\322\272\300/.iotlink/sdk/IoT_LINK/iot_link/network/lwm2m/wakaama_lw
 1592              		.file 5 "c:\\users\\\262\334\274\322\272\300\\.iotlink\\tools\\gcc-arm-none-eabi\\lib\\gcc\\arm-no
 1593              		.file 6 "c:\\users\\\262\334\274\322\272\300\\.iotlink\\tools\\gcc-arm-none-eabi\\arm-none-eabi\\i
 1594              		.file 7 "c:\\users\\\262\334\274\322\272\300\\.iotlink\\tools\\gcc-arm-none-eabi\\arm-none-eabi\\i
 1595              		.file 8 "c:\\users\\\262\334\274\322\272\300\\.iotlink\\tools\\gcc-arm-none-eabi\\arm-none-eabi\\i
ARM GAS  C:\Users\²Ü¼ÒºÀ\AppData\Local\Temp\ccepIYuV.s 			page 45


 1596              		.file 9 "c:\\users\\\262\334\274\322\272\300\\.iotlink\\tools\\gcc-arm-none-eabi\\arm-none-eabi\\i
 1597              		.file 10 "c:\\users\\\262\334\274\322\272\300\\.iotlink\\tools\\gcc-arm-none-eabi\\arm-none-eabi\\
 1598              		.file 11 "C:/Users/\262\334\274\322\272\300/.iotlink/sdk/IoT_LINK/iot_link/network/lwm2m/wakaama_l
 1599              		.file 12 "C:/Users/\262\334\274\322\272\300/.iotlink/sdk/IoT_LINK/iot_link/inc/link_log.h"
 1600              		.file 13 "C:/Users/\262\334\274\322\272\300/.iotlink/sdk/IoT_LINK/iot_link/network/lwm2m/wakaama_l
 1601              		.file 14 "c:\\users\\\262\334\274\322\272\300\\.iotlink\\tools\\gcc-arm-none-eabi\\arm-none-eabi\\
 1602              		.file 15 "c:\\users\\\262\334\274\322\272\300\\.iotlink\\tools\\gcc-arm-none-eabi\\arm-none-eabi\\
 1603              		.file 16 "c:\\users\\\262\334\274\322\272\300\\.iotlink\\tools\\gcc-arm-none-eabi\\arm-none-eabi\\
 1604              		.file 17 "C:/Users/\262\334\274\322\272\300/.iotlink/sdk/IoT_LINK/iot_link/network/lwm2m/wakaama_l
 1605              		.file 18 "C:/Users/\262\334\274\322\272\300/.iotlink/sdk/IoT_LINK/iot_link/network/lwm2m/wakaama_l
 1606              		.file 19 "c:\\users\\\262\334\274\322\272\300\\.iotlink\\tools\\gcc-arm-none-eabi\\arm-none-eabi\\
ARM GAS  C:\Users\²Ü¼ÒºÀ\AppData\Local\Temp\ccepIYuV.s 			page 46

