ARM GAS  C:\Users\²Ü¼ÒºÀ\AppData\Local\Temp\ccfeMfIq.s 			page 1


   1              		.cpu cortex-m4
   2              		.eabi_attribute 27, 1
   3              		.eabi_attribute 28, 1
   4              		.eabi_attribute 20, 1
   5              		.eabi_attribute 21, 1
   6              		.eabi_attribute 23, 3
   7              		.eabi_attribute 24, 1
   8              		.eabi_attribute 25, 1
   9              		.eabi_attribute 26, 1
  10              		.eabi_attribute 30, 4
  11              		.eabi_attribute 34, 1
  12              		.eabi_attribute 18, 4
  13              		.file	"tlv.c"
  14              		.text
  15              	.Ltext0:
  16              		.cfi_sections	.debug_frame
  17              		.section	.text.prv_getHeaderLength,"ax",%progbits
  18              		.align	1
  19              		.arch armv7e-m
  20              		.syntax unified
  21              		.thumb
  22              		.thumb_func
  23              		.fpu fpv4-sp-d16
  25              	prv_getHeaderLength:
  26              	.LVL0:
  27              	.LFB8:
  28              		.file 1 "C:/Users/\262\334\274\322\272\300/.iotlink/sdk/IoT_LINK/iot_link/network/lwm2m/wakaama_lw
   1:C:/Users/²Ü¼ÒºÀ/.iotlink/sdk/IoT_LINK/iot_link/network/lwm2m/wakaama_lwm2m/wakaama-master/core\tlv.c **** /*******************************************************************************
   2:C:/Users/²Ü¼ÒºÀ/.iotlink/sdk/IoT_LINK/iot_link/network/lwm2m/wakaama_lwm2m/wakaama-master/core\tlv.c ****  *
   3:C:/Users/²Ü¼ÒºÀ/.iotlink/sdk/IoT_LINK/iot_link/network/lwm2m/wakaama_lwm2m/wakaama-master/core\tlv.c ****  * Copyright (c) 2013, 2014 Intel Corporation and others.
   4:C:/Users/²Ü¼ÒºÀ/.iotlink/sdk/IoT_LINK/iot_link/network/lwm2m/wakaama_lwm2m/wakaama-master/core\tlv.c ****  * All rights reserved. This program and the accompanying materials
   5:C:/Users/²Ü¼ÒºÀ/.iotlink/sdk/IoT_LINK/iot_link/network/lwm2m/wakaama_lwm2m/wakaama-master/core\tlv.c ****  * are made available under the terms of the Eclipse Public License v1.0
   6:C:/Users/²Ü¼ÒºÀ/.iotlink/sdk/IoT_LINK/iot_link/network/lwm2m/wakaama_lwm2m/wakaama-master/core\tlv.c ****  * and Eclipse Distribution License v1.0 which accompany this distribution.
   7:C:/Users/²Ü¼ÒºÀ/.iotlink/sdk/IoT_LINK/iot_link/network/lwm2m/wakaama_lwm2m/wakaama-master/core\tlv.c ****  *
   8:C:/Users/²Ü¼ÒºÀ/.iotlink/sdk/IoT_LINK/iot_link/network/lwm2m/wakaama_lwm2m/wakaama-master/core\tlv.c ****  * The Eclipse Public License is available at
   9:C:/Users/²Ü¼ÒºÀ/.iotlink/sdk/IoT_LINK/iot_link/network/lwm2m/wakaama_lwm2m/wakaama-master/core\tlv.c ****  *    http://www.eclipse.org/legal/epl-v10.html
  10:C:/Users/²Ü¼ÒºÀ/.iotlink/sdk/IoT_LINK/iot_link/network/lwm2m/wakaama_lwm2m/wakaama-master/core\tlv.c ****  * The Eclipse Distribution License is available at
  11:C:/Users/²Ü¼ÒºÀ/.iotlink/sdk/IoT_LINK/iot_link/network/lwm2m/wakaama_lwm2m/wakaama-master/core\tlv.c ****  *    http://www.eclipse.org/org/documents/edl-v10.php.
  12:C:/Users/²Ü¼ÒºÀ/.iotlink/sdk/IoT_LINK/iot_link/network/lwm2m/wakaama_lwm2m/wakaama-master/core\tlv.c ****  *
  13:C:/Users/²Ü¼ÒºÀ/.iotlink/sdk/IoT_LINK/iot_link/network/lwm2m/wakaama_lwm2m/wakaama-master/core\tlv.c ****  * Contributors:
  14:C:/Users/²Ü¼ÒºÀ/.iotlink/sdk/IoT_LINK/iot_link/network/lwm2m/wakaama_lwm2m/wakaama-master/core\tlv.c ****  *    David Navarro, Intel Corporation - initial API and implementation
  15:C:/Users/²Ü¼ÒºÀ/.iotlink/sdk/IoT_LINK/iot_link/network/lwm2m/wakaama_lwm2m/wakaama-master/core\tlv.c ****  *    Fabien Fleutot - Please refer to git log
  16:C:/Users/²Ü¼ÒºÀ/.iotlink/sdk/IoT_LINK/iot_link/network/lwm2m/wakaama_lwm2m/wakaama-master/core\tlv.c ****  *    Bosch Software Innovations GmbH - Please refer to git log
  17:C:/Users/²Ü¼ÒºÀ/.iotlink/sdk/IoT_LINK/iot_link/network/lwm2m/wakaama_lwm2m/wakaama-master/core\tlv.c ****  *
  18:C:/Users/²Ü¼ÒºÀ/.iotlink/sdk/IoT_LINK/iot_link/network/lwm2m/wakaama_lwm2m/wakaama-master/core\tlv.c ****  *******************************************************************************/
  19:C:/Users/²Ü¼ÒºÀ/.iotlink/sdk/IoT_LINK/iot_link/network/lwm2m/wakaama_lwm2m/wakaama-master/core\tlv.c **** 
  20:C:/Users/²Ü¼ÒºÀ/.iotlink/sdk/IoT_LINK/iot_link/network/lwm2m/wakaama_lwm2m/wakaama-master/core\tlv.c **** #include "internals.h"
  21:C:/Users/²Ü¼ÒºÀ/.iotlink/sdk/IoT_LINK/iot_link/network/lwm2m/wakaama_lwm2m/wakaama-master/core\tlv.c **** #include <stdlib.h>
  22:C:/Users/²Ü¼ÒºÀ/.iotlink/sdk/IoT_LINK/iot_link/network/lwm2m/wakaama_lwm2m/wakaama-master/core\tlv.c **** #include <string.h>
  23:C:/Users/²Ü¼ÒºÀ/.iotlink/sdk/IoT_LINK/iot_link/network/lwm2m/wakaama_lwm2m/wakaama-master/core\tlv.c **** #include <stdio.h>
  24:C:/Users/²Ü¼ÒºÀ/.iotlink/sdk/IoT_LINK/iot_link/network/lwm2m/wakaama_lwm2m/wakaama-master/core\tlv.c **** #include <inttypes.h>
  25:C:/Users/²Ü¼ÒºÀ/.iotlink/sdk/IoT_LINK/iot_link/network/lwm2m/wakaama_lwm2m/wakaama-master/core\tlv.c **** #include <float.h>
  26:C:/Users/²Ü¼ÒºÀ/.iotlink/sdk/IoT_LINK/iot_link/network/lwm2m/wakaama_lwm2m/wakaama-master/core\tlv.c **** 
  27:C:/Users/²Ü¼ÒºÀ/.iotlink/sdk/IoT_LINK/iot_link/network/lwm2m/wakaama_lwm2m/wakaama-master/core\tlv.c **** #ifndef LWM2M_BIG_ENDIAN
  28:C:/Users/²Ü¼ÒºÀ/.iotlink/sdk/IoT_LINK/iot_link/network/lwm2m/wakaama_lwm2m/wakaama-master/core\tlv.c **** #ifndef LWM2M_LITTLE_ENDIAN
  29:C:/Users/²Ü¼ÒºÀ/.iotlink/sdk/IoT_LINK/iot_link/network/lwm2m/wakaama_lwm2m/wakaama-master/core\tlv.c **** #error Please define LWM2M_BIG_ENDIAN or LWM2M_LITTLE_ENDIAN
  30:C:/Users/²Ü¼ÒºÀ/.iotlink/sdk/IoT_LINK/iot_link/network/lwm2m/wakaama_lwm2m/wakaama-master/core\tlv.c **** #endif
ARM GAS  C:\Users\²Ü¼ÒºÀ\AppData\Local\Temp\ccfeMfIq.s 			page 2


  31:C:/Users/²Ü¼ÒºÀ/.iotlink/sdk/IoT_LINK/iot_link/network/lwm2m/wakaama_lwm2m/wakaama-master/core\tlv.c **** #endif
  32:C:/Users/²Ü¼ÒºÀ/.iotlink/sdk/IoT_LINK/iot_link/network/lwm2m/wakaama_lwm2m/wakaama-master/core\tlv.c **** 
  33:C:/Users/²Ü¼ÒºÀ/.iotlink/sdk/IoT_LINK/iot_link/network/lwm2m/wakaama_lwm2m/wakaama-master/core\tlv.c **** #define _PRV_TLV_TYPE_MASK 0xC0
  34:C:/Users/²Ü¼ÒºÀ/.iotlink/sdk/IoT_LINK/iot_link/network/lwm2m/wakaama_lwm2m/wakaama-master/core\tlv.c **** #define _PRV_TLV_HEADER_MAX_LENGTH 6
  35:C:/Users/²Ü¼ÒºÀ/.iotlink/sdk/IoT_LINK/iot_link/network/lwm2m/wakaama_lwm2m/wakaama-master/core\tlv.c **** 
  36:C:/Users/²Ü¼ÒºÀ/.iotlink/sdk/IoT_LINK/iot_link/network/lwm2m/wakaama_lwm2m/wakaama-master/core\tlv.c **** #define _PRV_TLV_TYPE_UNKNOWN           (uint8_t)0xFF
  37:C:/Users/²Ü¼ÒºÀ/.iotlink/sdk/IoT_LINK/iot_link/network/lwm2m/wakaama_lwm2m/wakaama-master/core\tlv.c **** #define _PRV_TLV_TYPE_OBJECT            (uint8_t)0x10
  38:C:/Users/²Ü¼ÒºÀ/.iotlink/sdk/IoT_LINK/iot_link/network/lwm2m/wakaama_lwm2m/wakaama-master/core\tlv.c **** #define _PRV_TLV_TYPE_OBJECT_INSTANCE   (uint8_t)0x00
  39:C:/Users/²Ü¼ÒºÀ/.iotlink/sdk/IoT_LINK/iot_link/network/lwm2m/wakaama_lwm2m/wakaama-master/core\tlv.c **** #define _PRV_TLV_TYPE_RESOURCE          (uint8_t)0xC0
  40:C:/Users/²Ü¼ÒºÀ/.iotlink/sdk/IoT_LINK/iot_link/network/lwm2m/wakaama_lwm2m/wakaama-master/core\tlv.c **** #define _PRV_TLV_TYPE_MULTIPLE_RESOURCE (uint8_t)0x80
  41:C:/Users/²Ü¼ÒºÀ/.iotlink/sdk/IoT_LINK/iot_link/network/lwm2m/wakaama_lwm2m/wakaama-master/core\tlv.c **** #define _PRV_TLV_TYPE_RESOURCE_INSTANCE (uint8_t)0x40
  42:C:/Users/²Ü¼ÒºÀ/.iotlink/sdk/IoT_LINK/iot_link/network/lwm2m/wakaama_lwm2m/wakaama-master/core\tlv.c **** 
  43:C:/Users/²Ü¼ÒºÀ/.iotlink/sdk/IoT_LINK/iot_link/network/lwm2m/wakaama_lwm2m/wakaama-master/core\tlv.c **** static size_t prv_encodeFloat(double data,
  44:C:/Users/²Ü¼ÒºÀ/.iotlink/sdk/IoT_LINK/iot_link/network/lwm2m/wakaama_lwm2m/wakaama-master/core\tlv.c ****                               uint8_t *data_buffer)
  45:C:/Users/²Ü¼ÒºÀ/.iotlink/sdk/IoT_LINK/iot_link/network/lwm2m/wakaama_lwm2m/wakaama-master/core\tlv.c **** {
  46:C:/Users/²Ü¼ÒºÀ/.iotlink/sdk/IoT_LINK/iot_link/network/lwm2m/wakaama_lwm2m/wakaama-master/core\tlv.c ****     size_t length = 0;
  47:C:/Users/²Ü¼ÒºÀ/.iotlink/sdk/IoT_LINK/iot_link/network/lwm2m/wakaama_lwm2m/wakaama-master/core\tlv.c **** 
  48:C:/Users/²Ü¼ÒºÀ/.iotlink/sdk/IoT_LINK/iot_link/network/lwm2m/wakaama_lwm2m/wakaama-master/core\tlv.c ****     if ((data < 0.0 - (double)FLT_MAX) || (data > (double)FLT_MAX))
  49:C:/Users/²Ü¼ÒºÀ/.iotlink/sdk/IoT_LINK/iot_link/network/lwm2m/wakaama_lwm2m/wakaama-master/core\tlv.c ****     {
  50:C:/Users/²Ü¼ÒºÀ/.iotlink/sdk/IoT_LINK/iot_link/network/lwm2m/wakaama_lwm2m/wakaama-master/core\tlv.c ****         length = 8;
  51:C:/Users/²Ü¼ÒºÀ/.iotlink/sdk/IoT_LINK/iot_link/network/lwm2m/wakaama_lwm2m/wakaama-master/core\tlv.c ****         utils_copyValue(data_buffer, &data, 8);
  52:C:/Users/²Ü¼ÒºÀ/.iotlink/sdk/IoT_LINK/iot_link/network/lwm2m/wakaama_lwm2m/wakaama-master/core\tlv.c ****     }
  53:C:/Users/²Ü¼ÒºÀ/.iotlink/sdk/IoT_LINK/iot_link/network/lwm2m/wakaama_lwm2m/wakaama-master/core\tlv.c ****     else
  54:C:/Users/²Ü¼ÒºÀ/.iotlink/sdk/IoT_LINK/iot_link/network/lwm2m/wakaama_lwm2m/wakaama-master/core\tlv.c ****     {
  55:C:/Users/²Ü¼ÒºÀ/.iotlink/sdk/IoT_LINK/iot_link/network/lwm2m/wakaama_lwm2m/wakaama-master/core\tlv.c ****         float value;
  56:C:/Users/²Ü¼ÒºÀ/.iotlink/sdk/IoT_LINK/iot_link/network/lwm2m/wakaama_lwm2m/wakaama-master/core\tlv.c **** 
  57:C:/Users/²Ü¼ÒºÀ/.iotlink/sdk/IoT_LINK/iot_link/network/lwm2m/wakaama_lwm2m/wakaama-master/core\tlv.c ****         length = 4;
  58:C:/Users/²Ü¼ÒºÀ/.iotlink/sdk/IoT_LINK/iot_link/network/lwm2m/wakaama_lwm2m/wakaama-master/core\tlv.c ****         value = (float)data;
  59:C:/Users/²Ü¼ÒºÀ/.iotlink/sdk/IoT_LINK/iot_link/network/lwm2m/wakaama_lwm2m/wakaama-master/core\tlv.c ****         utils_copyValue(data_buffer, &value, 4);
  60:C:/Users/²Ü¼ÒºÀ/.iotlink/sdk/IoT_LINK/iot_link/network/lwm2m/wakaama_lwm2m/wakaama-master/core\tlv.c ****     }
  61:C:/Users/²Ü¼ÒºÀ/.iotlink/sdk/IoT_LINK/iot_link/network/lwm2m/wakaama_lwm2m/wakaama-master/core\tlv.c **** 
  62:C:/Users/²Ü¼ÒºÀ/.iotlink/sdk/IoT_LINK/iot_link/network/lwm2m/wakaama_lwm2m/wakaama-master/core\tlv.c ****     return length;
  63:C:/Users/²Ü¼ÒºÀ/.iotlink/sdk/IoT_LINK/iot_link/network/lwm2m/wakaama_lwm2m/wakaama-master/core\tlv.c **** }
  64:C:/Users/²Ü¼ÒºÀ/.iotlink/sdk/IoT_LINK/iot_link/network/lwm2m/wakaama_lwm2m/wakaama-master/core\tlv.c **** 
  65:C:/Users/²Ü¼ÒºÀ/.iotlink/sdk/IoT_LINK/iot_link/network/lwm2m/wakaama_lwm2m/wakaama-master/core\tlv.c **** static size_t prv_encodeInt(int64_t data,
  66:C:/Users/²Ü¼ÒºÀ/.iotlink/sdk/IoT_LINK/iot_link/network/lwm2m/wakaama_lwm2m/wakaama-master/core\tlv.c ****                             uint8_t *data_buffer)
  67:C:/Users/²Ü¼ÒºÀ/.iotlink/sdk/IoT_LINK/iot_link/network/lwm2m/wakaama_lwm2m/wakaama-master/core\tlv.c **** {
  68:C:/Users/²Ü¼ÒºÀ/.iotlink/sdk/IoT_LINK/iot_link/network/lwm2m/wakaama_lwm2m/wakaama-master/core\tlv.c ****     size_t length = 0;
  69:C:/Users/²Ü¼ÒºÀ/.iotlink/sdk/IoT_LINK/iot_link/network/lwm2m/wakaama_lwm2m/wakaama-master/core\tlv.c **** 
  70:C:/Users/²Ü¼ÒºÀ/.iotlink/sdk/IoT_LINK/iot_link/network/lwm2m/wakaama_lwm2m/wakaama-master/core\tlv.c ****     if (data >= INT8_MIN && data <= INT8_MAX)
  71:C:/Users/²Ü¼ÒºÀ/.iotlink/sdk/IoT_LINK/iot_link/network/lwm2m/wakaama_lwm2m/wakaama-master/core\tlv.c ****     {
  72:C:/Users/²Ü¼ÒºÀ/.iotlink/sdk/IoT_LINK/iot_link/network/lwm2m/wakaama_lwm2m/wakaama-master/core\tlv.c ****         length = 1;
  73:C:/Users/²Ü¼ÒºÀ/.iotlink/sdk/IoT_LINK/iot_link/network/lwm2m/wakaama_lwm2m/wakaama-master/core\tlv.c ****         data_buffer[0] = data;
  74:C:/Users/²Ü¼ÒºÀ/.iotlink/sdk/IoT_LINK/iot_link/network/lwm2m/wakaama_lwm2m/wakaama-master/core\tlv.c ****     }
  75:C:/Users/²Ü¼ÒºÀ/.iotlink/sdk/IoT_LINK/iot_link/network/lwm2m/wakaama_lwm2m/wakaama-master/core\tlv.c ****     else if (data >= INT16_MIN && data <= INT16_MAX)
  76:C:/Users/²Ü¼ÒºÀ/.iotlink/sdk/IoT_LINK/iot_link/network/lwm2m/wakaama_lwm2m/wakaama-master/core\tlv.c ****     {
  77:C:/Users/²Ü¼ÒºÀ/.iotlink/sdk/IoT_LINK/iot_link/network/lwm2m/wakaama_lwm2m/wakaama-master/core\tlv.c ****         int16_t value;
  78:C:/Users/²Ü¼ÒºÀ/.iotlink/sdk/IoT_LINK/iot_link/network/lwm2m/wakaama_lwm2m/wakaama-master/core\tlv.c **** 
  79:C:/Users/²Ü¼ÒºÀ/.iotlink/sdk/IoT_LINK/iot_link/network/lwm2m/wakaama_lwm2m/wakaama-master/core\tlv.c ****         value = data;
  80:C:/Users/²Ü¼ÒºÀ/.iotlink/sdk/IoT_LINK/iot_link/network/lwm2m/wakaama_lwm2m/wakaama-master/core\tlv.c ****         length = 2;
  81:C:/Users/²Ü¼ÒºÀ/.iotlink/sdk/IoT_LINK/iot_link/network/lwm2m/wakaama_lwm2m/wakaama-master/core\tlv.c ****         data_buffer[0] = (value >> 8) & 0xFF;
  82:C:/Users/²Ü¼ÒºÀ/.iotlink/sdk/IoT_LINK/iot_link/network/lwm2m/wakaama_lwm2m/wakaama-master/core\tlv.c ****         data_buffer[1] = value & 0xFF;
  83:C:/Users/²Ü¼ÒºÀ/.iotlink/sdk/IoT_LINK/iot_link/network/lwm2m/wakaama_lwm2m/wakaama-master/core\tlv.c ****     }
  84:C:/Users/²Ü¼ÒºÀ/.iotlink/sdk/IoT_LINK/iot_link/network/lwm2m/wakaama_lwm2m/wakaama-master/core\tlv.c ****     else if (data >= INT32_MIN && data <= INT32_MAX)
  85:C:/Users/²Ü¼ÒºÀ/.iotlink/sdk/IoT_LINK/iot_link/network/lwm2m/wakaama_lwm2m/wakaama-master/core\tlv.c ****     {
  86:C:/Users/²Ü¼ÒºÀ/.iotlink/sdk/IoT_LINK/iot_link/network/lwm2m/wakaama_lwm2m/wakaama-master/core\tlv.c ****         int32_t value;
  87:C:/Users/²Ü¼ÒºÀ/.iotlink/sdk/IoT_LINK/iot_link/network/lwm2m/wakaama_lwm2m/wakaama-master/core\tlv.c **** 
ARM GAS  C:\Users\²Ü¼ÒºÀ\AppData\Local\Temp\ccfeMfIq.s 			page 3


  88:C:/Users/²Ü¼ÒºÀ/.iotlink/sdk/IoT_LINK/iot_link/network/lwm2m/wakaama_lwm2m/wakaama-master/core\tlv.c ****         value = data;
  89:C:/Users/²Ü¼ÒºÀ/.iotlink/sdk/IoT_LINK/iot_link/network/lwm2m/wakaama_lwm2m/wakaama-master/core\tlv.c ****         length = 4;
  90:C:/Users/²Ü¼ÒºÀ/.iotlink/sdk/IoT_LINK/iot_link/network/lwm2m/wakaama_lwm2m/wakaama-master/core\tlv.c ****         utils_copyValue(data_buffer, &value, length);
  91:C:/Users/²Ü¼ÒºÀ/.iotlink/sdk/IoT_LINK/iot_link/network/lwm2m/wakaama_lwm2m/wakaama-master/core\tlv.c ****     }
  92:C:/Users/²Ü¼ÒºÀ/.iotlink/sdk/IoT_LINK/iot_link/network/lwm2m/wakaama_lwm2m/wakaama-master/core\tlv.c ****     else if (data >= INT64_MIN && data <= INT64_MAX)
  93:C:/Users/²Ü¼ÒºÀ/.iotlink/sdk/IoT_LINK/iot_link/network/lwm2m/wakaama_lwm2m/wakaama-master/core\tlv.c ****     {
  94:C:/Users/²Ü¼ÒºÀ/.iotlink/sdk/IoT_LINK/iot_link/network/lwm2m/wakaama_lwm2m/wakaama-master/core\tlv.c ****         length = 8;
  95:C:/Users/²Ü¼ÒºÀ/.iotlink/sdk/IoT_LINK/iot_link/network/lwm2m/wakaama_lwm2m/wakaama-master/core\tlv.c ****         utils_copyValue(data_buffer, &data, length);
  96:C:/Users/²Ü¼ÒºÀ/.iotlink/sdk/IoT_LINK/iot_link/network/lwm2m/wakaama_lwm2m/wakaama-master/core\tlv.c ****     }
  97:C:/Users/²Ü¼ÒºÀ/.iotlink/sdk/IoT_LINK/iot_link/network/lwm2m/wakaama_lwm2m/wakaama-master/core\tlv.c **** 
  98:C:/Users/²Ü¼ÒºÀ/.iotlink/sdk/IoT_LINK/iot_link/network/lwm2m/wakaama_lwm2m/wakaama-master/core\tlv.c ****     return length;
  99:C:/Users/²Ü¼ÒºÀ/.iotlink/sdk/IoT_LINK/iot_link/network/lwm2m/wakaama_lwm2m/wakaama-master/core\tlv.c **** }
 100:C:/Users/²Ü¼ÒºÀ/.iotlink/sdk/IoT_LINK/iot_link/network/lwm2m/wakaama_lwm2m/wakaama-master/core\tlv.c **** 
 101:C:/Users/²Ü¼ÒºÀ/.iotlink/sdk/IoT_LINK/iot_link/network/lwm2m/wakaama_lwm2m/wakaama-master/core\tlv.c **** static uint8_t prv_getHeaderType(lwm2m_data_type_t type)
 102:C:/Users/²Ü¼ÒºÀ/.iotlink/sdk/IoT_LINK/iot_link/network/lwm2m/wakaama_lwm2m/wakaama-master/core\tlv.c **** {
 103:C:/Users/²Ü¼ÒºÀ/.iotlink/sdk/IoT_LINK/iot_link/network/lwm2m/wakaama_lwm2m/wakaama-master/core\tlv.c ****     switch (type)
 104:C:/Users/²Ü¼ÒºÀ/.iotlink/sdk/IoT_LINK/iot_link/network/lwm2m/wakaama_lwm2m/wakaama-master/core\tlv.c ****     {
 105:C:/Users/²Ü¼ÒºÀ/.iotlink/sdk/IoT_LINK/iot_link/network/lwm2m/wakaama_lwm2m/wakaama-master/core\tlv.c ****     case LWM2M_TYPE_OBJECT:
 106:C:/Users/²Ü¼ÒºÀ/.iotlink/sdk/IoT_LINK/iot_link/network/lwm2m/wakaama_lwm2m/wakaama-master/core\tlv.c ****         return _PRV_TLV_TYPE_OBJECT;
 107:C:/Users/²Ü¼ÒºÀ/.iotlink/sdk/IoT_LINK/iot_link/network/lwm2m/wakaama_lwm2m/wakaama-master/core\tlv.c **** 
 108:C:/Users/²Ü¼ÒºÀ/.iotlink/sdk/IoT_LINK/iot_link/network/lwm2m/wakaama_lwm2m/wakaama-master/core\tlv.c ****     case LWM2M_TYPE_OBJECT_INSTANCE:
 109:C:/Users/²Ü¼ÒºÀ/.iotlink/sdk/IoT_LINK/iot_link/network/lwm2m/wakaama_lwm2m/wakaama-master/core\tlv.c ****         return _PRV_TLV_TYPE_OBJECT_INSTANCE;
 110:C:/Users/²Ü¼ÒºÀ/.iotlink/sdk/IoT_LINK/iot_link/network/lwm2m/wakaama_lwm2m/wakaama-master/core\tlv.c **** 
 111:C:/Users/²Ü¼ÒºÀ/.iotlink/sdk/IoT_LINK/iot_link/network/lwm2m/wakaama_lwm2m/wakaama-master/core\tlv.c ****     case LWM2M_TYPE_MULTIPLE_RESOURCE:
 112:C:/Users/²Ü¼ÒºÀ/.iotlink/sdk/IoT_LINK/iot_link/network/lwm2m/wakaama_lwm2m/wakaama-master/core\tlv.c ****         return _PRV_TLV_TYPE_MULTIPLE_RESOURCE;
 113:C:/Users/²Ü¼ÒºÀ/.iotlink/sdk/IoT_LINK/iot_link/network/lwm2m/wakaama_lwm2m/wakaama-master/core\tlv.c **** 
 114:C:/Users/²Ü¼ÒºÀ/.iotlink/sdk/IoT_LINK/iot_link/network/lwm2m/wakaama_lwm2m/wakaama-master/core\tlv.c **** 
 115:C:/Users/²Ü¼ÒºÀ/.iotlink/sdk/IoT_LINK/iot_link/network/lwm2m/wakaama_lwm2m/wakaama-master/core\tlv.c ****     case LWM2M_TYPE_STRING:
 116:C:/Users/²Ü¼ÒºÀ/.iotlink/sdk/IoT_LINK/iot_link/network/lwm2m/wakaama_lwm2m/wakaama-master/core\tlv.c ****     case LWM2M_TYPE_INTEGER:
 117:C:/Users/²Ü¼ÒºÀ/.iotlink/sdk/IoT_LINK/iot_link/network/lwm2m/wakaama_lwm2m/wakaama-master/core\tlv.c ****     case LWM2M_TYPE_FLOAT:
 118:C:/Users/²Ü¼ÒºÀ/.iotlink/sdk/IoT_LINK/iot_link/network/lwm2m/wakaama_lwm2m/wakaama-master/core\tlv.c ****     case LWM2M_TYPE_BOOLEAN:
 119:C:/Users/²Ü¼ÒºÀ/.iotlink/sdk/IoT_LINK/iot_link/network/lwm2m/wakaama_lwm2m/wakaama-master/core\tlv.c ****     case LWM2M_TYPE_OPAQUE:
 120:C:/Users/²Ü¼ÒºÀ/.iotlink/sdk/IoT_LINK/iot_link/network/lwm2m/wakaama_lwm2m/wakaama-master/core\tlv.c ****     case LWM2M_TYPE_OBJECT_LINK:
 121:C:/Users/²Ü¼ÒºÀ/.iotlink/sdk/IoT_LINK/iot_link/network/lwm2m/wakaama_lwm2m/wakaama-master/core\tlv.c ****         return _PRV_TLV_TYPE_RESOURCE;
 122:C:/Users/²Ü¼ÒºÀ/.iotlink/sdk/IoT_LINK/iot_link/network/lwm2m/wakaama_lwm2m/wakaama-master/core\tlv.c **** 
 123:C:/Users/²Ü¼ÒºÀ/.iotlink/sdk/IoT_LINK/iot_link/network/lwm2m/wakaama_lwm2m/wakaama-master/core\tlv.c ****     case LWM2M_TYPE_UNDEFINED:
 124:C:/Users/²Ü¼ÒºÀ/.iotlink/sdk/IoT_LINK/iot_link/network/lwm2m/wakaama_lwm2m/wakaama-master/core\tlv.c ****     default:
 125:C:/Users/²Ü¼ÒºÀ/.iotlink/sdk/IoT_LINK/iot_link/network/lwm2m/wakaama_lwm2m/wakaama-master/core\tlv.c ****         return _PRV_TLV_TYPE_UNKNOWN;
 126:C:/Users/²Ü¼ÒºÀ/.iotlink/sdk/IoT_LINK/iot_link/network/lwm2m/wakaama_lwm2m/wakaama-master/core\tlv.c ****     }
 127:C:/Users/²Ü¼ÒºÀ/.iotlink/sdk/IoT_LINK/iot_link/network/lwm2m/wakaama_lwm2m/wakaama-master/core\tlv.c **** }
 128:C:/Users/²Ü¼ÒºÀ/.iotlink/sdk/IoT_LINK/iot_link/network/lwm2m/wakaama_lwm2m/wakaama-master/core\tlv.c **** 
 129:C:/Users/²Ü¼ÒºÀ/.iotlink/sdk/IoT_LINK/iot_link/network/lwm2m/wakaama_lwm2m/wakaama-master/core\tlv.c **** static lwm2m_data_type_t prv_getDataType(uint8_t type)
 130:C:/Users/²Ü¼ÒºÀ/.iotlink/sdk/IoT_LINK/iot_link/network/lwm2m/wakaama_lwm2m/wakaama-master/core\tlv.c **** {
 131:C:/Users/²Ü¼ÒºÀ/.iotlink/sdk/IoT_LINK/iot_link/network/lwm2m/wakaama_lwm2m/wakaama-master/core\tlv.c ****     switch (type)
 132:C:/Users/²Ü¼ÒºÀ/.iotlink/sdk/IoT_LINK/iot_link/network/lwm2m/wakaama_lwm2m/wakaama-master/core\tlv.c ****     {
 133:C:/Users/²Ü¼ÒºÀ/.iotlink/sdk/IoT_LINK/iot_link/network/lwm2m/wakaama_lwm2m/wakaama-master/core\tlv.c ****     case _PRV_TLV_TYPE_OBJECT:
 134:C:/Users/²Ü¼ÒºÀ/.iotlink/sdk/IoT_LINK/iot_link/network/lwm2m/wakaama_lwm2m/wakaama-master/core\tlv.c ****         return LWM2M_TYPE_OBJECT;
 135:C:/Users/²Ü¼ÒºÀ/.iotlink/sdk/IoT_LINK/iot_link/network/lwm2m/wakaama_lwm2m/wakaama-master/core\tlv.c **** 
 136:C:/Users/²Ü¼ÒºÀ/.iotlink/sdk/IoT_LINK/iot_link/network/lwm2m/wakaama_lwm2m/wakaama-master/core\tlv.c ****     case _PRV_TLV_TYPE_OBJECT_INSTANCE:
 137:C:/Users/²Ü¼ÒºÀ/.iotlink/sdk/IoT_LINK/iot_link/network/lwm2m/wakaama_lwm2m/wakaama-master/core\tlv.c ****         return LWM2M_TYPE_OBJECT_INSTANCE;
 138:C:/Users/²Ü¼ÒºÀ/.iotlink/sdk/IoT_LINK/iot_link/network/lwm2m/wakaama_lwm2m/wakaama-master/core\tlv.c **** 
 139:C:/Users/²Ü¼ÒºÀ/.iotlink/sdk/IoT_LINK/iot_link/network/lwm2m/wakaama_lwm2m/wakaama-master/core\tlv.c ****     case _PRV_TLV_TYPE_MULTIPLE_RESOURCE:
 140:C:/Users/²Ü¼ÒºÀ/.iotlink/sdk/IoT_LINK/iot_link/network/lwm2m/wakaama_lwm2m/wakaama-master/core\tlv.c ****         return LWM2M_TYPE_MULTIPLE_RESOURCE;
 141:C:/Users/²Ü¼ÒºÀ/.iotlink/sdk/IoT_LINK/iot_link/network/lwm2m/wakaama_lwm2m/wakaama-master/core\tlv.c **** 
 142:C:/Users/²Ü¼ÒºÀ/.iotlink/sdk/IoT_LINK/iot_link/network/lwm2m/wakaama_lwm2m/wakaama-master/core\tlv.c ****     case _PRV_TLV_TYPE_RESOURCE:
 143:C:/Users/²Ü¼ÒºÀ/.iotlink/sdk/IoT_LINK/iot_link/network/lwm2m/wakaama_lwm2m/wakaama-master/core\tlv.c ****     case _PRV_TLV_TYPE_RESOURCE_INSTANCE:
 144:C:/Users/²Ü¼ÒºÀ/.iotlink/sdk/IoT_LINK/iot_link/network/lwm2m/wakaama_lwm2m/wakaama-master/core\tlv.c ****         return LWM2M_TYPE_OPAQUE;
ARM GAS  C:\Users\²Ü¼ÒºÀ\AppData\Local\Temp\ccfeMfIq.s 			page 4


 145:C:/Users/²Ü¼ÒºÀ/.iotlink/sdk/IoT_LINK/iot_link/network/lwm2m/wakaama_lwm2m/wakaama-master/core\tlv.c **** 
 146:C:/Users/²Ü¼ÒºÀ/.iotlink/sdk/IoT_LINK/iot_link/network/lwm2m/wakaama_lwm2m/wakaama-master/core\tlv.c ****     default:
 147:C:/Users/²Ü¼ÒºÀ/.iotlink/sdk/IoT_LINK/iot_link/network/lwm2m/wakaama_lwm2m/wakaama-master/core\tlv.c ****         return LWM2M_TYPE_UNDEFINED;
 148:C:/Users/²Ü¼ÒºÀ/.iotlink/sdk/IoT_LINK/iot_link/network/lwm2m/wakaama_lwm2m/wakaama-master/core\tlv.c ****     }
 149:C:/Users/²Ü¼ÒºÀ/.iotlink/sdk/IoT_LINK/iot_link/network/lwm2m/wakaama_lwm2m/wakaama-master/core\tlv.c **** }
 150:C:/Users/²Ü¼ÒºÀ/.iotlink/sdk/IoT_LINK/iot_link/network/lwm2m/wakaama_lwm2m/wakaama-master/core\tlv.c **** 
 151:C:/Users/²Ü¼ÒºÀ/.iotlink/sdk/IoT_LINK/iot_link/network/lwm2m/wakaama_lwm2m/wakaama-master/core\tlv.c **** static int prv_getHeaderLength(uint16_t id,
 152:C:/Users/²Ü¼ÒºÀ/.iotlink/sdk/IoT_LINK/iot_link/network/lwm2m/wakaama_lwm2m/wakaama-master/core\tlv.c ****                                size_t dataLen)
 153:C:/Users/²Ü¼ÒºÀ/.iotlink/sdk/IoT_LINK/iot_link/network/lwm2m/wakaama_lwm2m/wakaama-master/core\tlv.c **** {
  29              		.loc 1 153 1 view -0
  30              		.cfi_startproc
  31              		@ args = 0, pretend = 0, frame = 0
  32              		@ frame_needed = 0, uses_anonymous_args = 0
  33              		@ link register save eliminated.
 154:C:/Users/²Ü¼ÒºÀ/.iotlink/sdk/IoT_LINK/iot_link/network/lwm2m/wakaama_lwm2m/wakaama-master/core\tlv.c ****     int length;
  34              		.loc 1 154 5 view .LVU1
 155:C:/Users/²Ü¼ÒºÀ/.iotlink/sdk/IoT_LINK/iot_link/network/lwm2m/wakaama_lwm2m/wakaama-master/core\tlv.c **** 
 156:C:/Users/²Ü¼ÒºÀ/.iotlink/sdk/IoT_LINK/iot_link/network/lwm2m/wakaama_lwm2m/wakaama-master/core\tlv.c ****     length = 2;
  35              		.loc 1 156 5 view .LVU2
 157:C:/Users/²Ü¼ÒºÀ/.iotlink/sdk/IoT_LINK/iot_link/network/lwm2m/wakaama_lwm2m/wakaama-master/core\tlv.c **** 
 158:C:/Users/²Ü¼ÒºÀ/.iotlink/sdk/IoT_LINK/iot_link/network/lwm2m/wakaama_lwm2m/wakaama-master/core\tlv.c ****     if (id > 0xFF)
  36              		.loc 1 158 5 view .LVU3
 159:C:/Users/²Ü¼ÒºÀ/.iotlink/sdk/IoT_LINK/iot_link/network/lwm2m/wakaama_lwm2m/wakaama-master/core\tlv.c ****     {
 160:C:/Users/²Ü¼ÒºÀ/.iotlink/sdk/IoT_LINK/iot_link/network/lwm2m/wakaama_lwm2m/wakaama-master/core\tlv.c ****         length += 1;
  37              		.loc 1 160 16 is_stmt 0 view .LVU4
  38 0000 FF28     		cmp	r0, #255
  39 0002 94BF     		ite	ls
  40 0004 0220     		movls	r0, #2
  41              	.LVL1:
  42              		.loc 1 160 16 view .LVU5
  43 0006 0320     		movhi	r0, #3
  44              	.LVL2:
 161:C:/Users/²Ü¼ÒºÀ/.iotlink/sdk/IoT_LINK/iot_link/network/lwm2m/wakaama_lwm2m/wakaama-master/core\tlv.c ****     }
 162:C:/Users/²Ü¼ÒºÀ/.iotlink/sdk/IoT_LINK/iot_link/network/lwm2m/wakaama_lwm2m/wakaama-master/core\tlv.c **** 
 163:C:/Users/²Ü¼ÒºÀ/.iotlink/sdk/IoT_LINK/iot_link/network/lwm2m/wakaama_lwm2m/wakaama-master/core\tlv.c ****     if (dataLen > 0xFFFF)
  45              		.loc 1 163 5 is_stmt 1 view .LVU6
  46              		.loc 1 163 8 is_stmt 0 view .LVU7
  47 0008 B1F5803F 		cmp	r1, #65536
  48 000c 01D3     		bcc	.L3
 164:C:/Users/²Ü¼ÒºÀ/.iotlink/sdk/IoT_LINK/iot_link/network/lwm2m/wakaama_lwm2m/wakaama-master/core\tlv.c ****     {
 165:C:/Users/²Ü¼ÒºÀ/.iotlink/sdk/IoT_LINK/iot_link/network/lwm2m/wakaama_lwm2m/wakaama-master/core\tlv.c ****         length += 3;
  49              		.loc 1 165 9 is_stmt 1 view .LVU8
  50              		.loc 1 165 16 is_stmt 0 view .LVU9
  51 000e 0330     		adds	r0, r0, #3
  52              	.LVL3:
  53              		.loc 1 165 16 view .LVU10
  54 0010 7047     		bx	lr
  55              	.L3:
 166:C:/Users/²Ü¼ÒºÀ/.iotlink/sdk/IoT_LINK/iot_link/network/lwm2m/wakaama_lwm2m/wakaama-master/core\tlv.c ****     }
 167:C:/Users/²Ü¼ÒºÀ/.iotlink/sdk/IoT_LINK/iot_link/network/lwm2m/wakaama_lwm2m/wakaama-master/core\tlv.c ****     else if (dataLen > 0xFF)
  56              		.loc 1 167 10 is_stmt 1 view .LVU11
  57              		.loc 1 167 13 is_stmt 0 view .LVU12
  58 0012 FF29     		cmp	r1, #255
  59 0014 01D9     		bls	.L5
 168:C:/Users/²Ü¼ÒºÀ/.iotlink/sdk/IoT_LINK/iot_link/network/lwm2m/wakaama_lwm2m/wakaama-master/core\tlv.c ****     {
 169:C:/Users/²Ü¼ÒºÀ/.iotlink/sdk/IoT_LINK/iot_link/network/lwm2m/wakaama_lwm2m/wakaama-master/core\tlv.c ****         length += 2;
  60              		.loc 1 169 9 is_stmt 1 view .LVU13
ARM GAS  C:\Users\²Ü¼ÒºÀ\AppData\Local\Temp\ccfeMfIq.s 			page 5


  61              		.loc 1 169 16 is_stmt 0 view .LVU14
  62 0016 0230     		adds	r0, r0, #2
  63              	.LVL4:
  64              		.loc 1 169 16 view .LVU15
  65 0018 7047     		bx	lr
  66              	.L5:
 170:C:/Users/²Ü¼ÒºÀ/.iotlink/sdk/IoT_LINK/iot_link/network/lwm2m/wakaama_lwm2m/wakaama-master/core\tlv.c ****     }
 171:C:/Users/²Ü¼ÒºÀ/.iotlink/sdk/IoT_LINK/iot_link/network/lwm2m/wakaama_lwm2m/wakaama-master/core\tlv.c ****     else if (dataLen > 7)
  67              		.loc 1 171 10 is_stmt 1 view .LVU16
  68              		.loc 1 171 13 is_stmt 0 view .LVU17
  69 001a 0729     		cmp	r1, #7
 172:C:/Users/²Ü¼ÒºÀ/.iotlink/sdk/IoT_LINK/iot_link/network/lwm2m/wakaama_lwm2m/wakaama-master/core\tlv.c ****     {
 173:C:/Users/²Ü¼ÒºÀ/.iotlink/sdk/IoT_LINK/iot_link/network/lwm2m/wakaama_lwm2m/wakaama-master/core\tlv.c ****         length += 1;
  70              		.loc 1 173 9 is_stmt 1 view .LVU18
  71              		.loc 1 173 16 is_stmt 0 view .LVU19
  72 001c 88BF     		it	hi
  73 001e 0130     		addhi	r0, r0, #1
  74              	.LVL5:
 174:C:/Users/²Ü¼ÒºÀ/.iotlink/sdk/IoT_LINK/iot_link/network/lwm2m/wakaama_lwm2m/wakaama-master/core\tlv.c ****     }
 175:C:/Users/²Ü¼ÒºÀ/.iotlink/sdk/IoT_LINK/iot_link/network/lwm2m/wakaama_lwm2m/wakaama-master/core\tlv.c **** 
 176:C:/Users/²Ü¼ÒºÀ/.iotlink/sdk/IoT_LINK/iot_link/network/lwm2m/wakaama_lwm2m/wakaama-master/core\tlv.c ****     return length;
  75              		.loc 1 176 5 is_stmt 1 view .LVU20
 177:C:/Users/²Ü¼ÒºÀ/.iotlink/sdk/IoT_LINK/iot_link/network/lwm2m/wakaama_lwm2m/wakaama-master/core\tlv.c **** }
  76              		.loc 1 177 1 is_stmt 0 view .LVU21
  77 0020 7047     		bx	lr
  78              		.cfi_endproc
  79              	.LFE8:
  81              		.section	.text.prv_createHeader,"ax",%progbits
  82              		.align	1
  83              		.syntax unified
  84              		.thumb
  85              		.thumb_func
  86              		.fpu fpv4-sp-d16
  88              	prv_createHeader:
  89              	.LVL6:
  90              	.LFB9:
 178:C:/Users/²Ü¼ÒºÀ/.iotlink/sdk/IoT_LINK/iot_link/network/lwm2m/wakaama_lwm2m/wakaama-master/core\tlv.c **** 
 179:C:/Users/²Ü¼ÒºÀ/.iotlink/sdk/IoT_LINK/iot_link/network/lwm2m/wakaama_lwm2m/wakaama-master/core\tlv.c **** static int prv_createHeader(uint8_t *header,
 180:C:/Users/²Ü¼ÒºÀ/.iotlink/sdk/IoT_LINK/iot_link/network/lwm2m/wakaama_lwm2m/wakaama-master/core\tlv.c ****                             bool isInstance,
 181:C:/Users/²Ü¼ÒºÀ/.iotlink/sdk/IoT_LINK/iot_link/network/lwm2m/wakaama_lwm2m/wakaama-master/core\tlv.c ****                             lwm2m_data_type_t type,
 182:C:/Users/²Ü¼ÒºÀ/.iotlink/sdk/IoT_LINK/iot_link/network/lwm2m/wakaama_lwm2m/wakaama-master/core\tlv.c ****                             uint16_t id,
 183:C:/Users/²Ü¼ÒºÀ/.iotlink/sdk/IoT_LINK/iot_link/network/lwm2m/wakaama_lwm2m/wakaama-master/core\tlv.c ****                             size_t data_len)
 184:C:/Users/²Ü¼ÒºÀ/.iotlink/sdk/IoT_LINK/iot_link/network/lwm2m/wakaama_lwm2m/wakaama-master/core\tlv.c **** {
  91              		.loc 1 184 1 is_stmt 1 view -0
  92              		.cfi_startproc
  93              		@ args = 4, pretend = 0, frame = 0
  94              		@ frame_needed = 0, uses_anonymous_args = 0
 185:C:/Users/²Ü¼ÒºÀ/.iotlink/sdk/IoT_LINK/iot_link/network/lwm2m/wakaama_lwm2m/wakaama-master/core\tlv.c ****     int header_len;
  95              		.loc 1 185 5 view .LVU23
 186:C:/Users/²Ü¼ÒºÀ/.iotlink/sdk/IoT_LINK/iot_link/network/lwm2m/wakaama_lwm2m/wakaama-master/core\tlv.c ****     int offset;
  96              		.loc 1 186 5 view .LVU24
 187:C:/Users/²Ü¼ÒºÀ/.iotlink/sdk/IoT_LINK/iot_link/network/lwm2m/wakaama_lwm2m/wakaama-master/core\tlv.c ****     uint8_t hdrType;
  97              		.loc 1 187 5 view .LVU25
 188:C:/Users/²Ü¼ÒºÀ/.iotlink/sdk/IoT_LINK/iot_link/network/lwm2m/wakaama_lwm2m/wakaama-master/core\tlv.c **** 
 189:C:/Users/²Ü¼ÒºÀ/.iotlink/sdk/IoT_LINK/iot_link/network/lwm2m/wakaama_lwm2m/wakaama-master/core\tlv.c ****     header_len = prv_getHeaderLength(id, data_len);
  98              		.loc 1 189 5 view .LVU26
 184:C:/Users/²Ü¼ÒºÀ/.iotlink/sdk/IoT_LINK/iot_link/network/lwm2m/wakaama_lwm2m/wakaama-master/core\tlv.c ****     int header_len;
ARM GAS  C:\Users\²Ü¼ÒºÀ\AppData\Local\Temp\ccfeMfIq.s 			page 6


  99              		.loc 1 184 1 is_stmt 0 view .LVU27
 100 0000 70B5     		push	{r4, r5, r6, lr}
 101              	.LCFI0:
 102              		.cfi_def_cfa_offset 16
 103              		.cfi_offset 4, -16
 104              		.cfi_offset 5, -12
 105              		.cfi_offset 6, -8
 106              		.cfi_offset 14, -4
 184:C:/Users/²Ü¼ÒºÀ/.iotlink/sdk/IoT_LINK/iot_link/network/lwm2m/wakaama_lwm2m/wakaama-master/core\tlv.c ****     int header_len;
 107              		.loc 1 184 1 view .LVU28
 108 0002 049D     		ldr	r5, [sp, #16]
 109 0004 0E46     		mov	r6, r1
 110 0006 0446     		mov	r4, r0
 111              		.loc 1 189 18 view .LVU29
 112 0008 2946     		mov	r1, r5
 113              	.LVL7:
 114              		.loc 1 189 18 view .LVU30
 115 000a 1846     		mov	r0, r3
 116              	.LVL8:
 117              		.loc 1 189 18 view .LVU31
 118 000c FFF7FEFF 		bl	prv_getHeaderLength
 119              	.LVL9:
 190:C:/Users/²Ü¼ÒºÀ/.iotlink/sdk/IoT_LINK/iot_link/network/lwm2m/wakaama_lwm2m/wakaama-master/core\tlv.c ****     if (isInstance == true)
 120              		.loc 1 190 5 is_stmt 1 view .LVU32
 121              		.loc 1 190 8 is_stmt 0 view .LVU33
 122 0010 DEB9     		cbnz	r6, .L15
 191:C:/Users/²Ü¼ÒºÀ/.iotlink/sdk/IoT_LINK/iot_link/network/lwm2m/wakaama_lwm2m/wakaama-master/core\tlv.c ****     {
 192:C:/Users/²Ü¼ÒºÀ/.iotlink/sdk/IoT_LINK/iot_link/network/lwm2m/wakaama_lwm2m/wakaama-master/core\tlv.c ****         hdrType = _PRV_TLV_TYPE_RESOURCE_INSTANCE;
 193:C:/Users/²Ü¼ÒºÀ/.iotlink/sdk/IoT_LINK/iot_link/network/lwm2m/wakaama_lwm2m/wakaama-master/core\tlv.c ****     }
 194:C:/Users/²Ü¼ÒºÀ/.iotlink/sdk/IoT_LINK/iot_link/network/lwm2m/wakaama_lwm2m/wakaama-master/core\tlv.c ****     else
 195:C:/Users/²Ü¼ÒºÀ/.iotlink/sdk/IoT_LINK/iot_link/network/lwm2m/wakaama_lwm2m/wakaama-master/core\tlv.c ****     {
 196:C:/Users/²Ü¼ÒºÀ/.iotlink/sdk/IoT_LINK/iot_link/network/lwm2m/wakaama_lwm2m/wakaama-master/core\tlv.c ****         hdrType = prv_getHeaderType(type);
 123              		.loc 1 196 9 is_stmt 1 view .LVU34
 124              	.LVL10:
 125              	.LBB11:
 126              	.LBI11:
 101:C:/Users/²Ü¼ÒºÀ/.iotlink/sdk/IoT_LINK/iot_link/network/lwm2m/wakaama_lwm2m/wakaama-master/core\tlv.c **** {
 127              		.loc 1 101 16 view .LVU35
 128              	.LBE11:
 103:C:/Users/²Ü¼ÒºÀ/.iotlink/sdk/IoT_LINK/iot_link/network/lwm2m/wakaama_lwm2m/wakaama-master/core\tlv.c ****     {
 129              		.loc 1 103 5 view .LVU36
 130 0012 013A     		subs	r2, r2, #1
 131              	.LVL11:
 103:C:/Users/²Ü¼ÒºÀ/.iotlink/sdk/IoT_LINK/iot_link/network/lwm2m/wakaama_lwm2m/wakaama-master/core\tlv.c ****     {
 132              		.loc 1 103 5 is_stmt 0 view .LVU37
 133 0014 D2B2     		uxtb	r2, r2
 134 0016 082A     		cmp	r2, #8
 135 0018 19D8     		bhi	.L16
 136 001a 1F49     		ldr	r1, .L17
 137 001c 8A5C     		ldrb	r2, [r1, r2]	@ zero_extendqisi2
 138              	.LVL12:
 139              	.L8:
 197:C:/Users/²Ü¼ÒºÀ/.iotlink/sdk/IoT_LINK/iot_link/network/lwm2m/wakaama_lwm2m/wakaama-master/core\tlv.c ****     }
 198:C:/Users/²Ü¼ÒºÀ/.iotlink/sdk/IoT_LINK/iot_link/network/lwm2m/wakaama_lwm2m/wakaama-master/core\tlv.c **** 
 199:C:/Users/²Ü¼ÒºÀ/.iotlink/sdk/IoT_LINK/iot_link/network/lwm2m/wakaama_lwm2m/wakaama-master/core\tlv.c ****     header[0] = 0;
 140              		.loc 1 199 5 is_stmt 1 view .LVU38
 200:C:/Users/²Ü¼ÒºÀ/.iotlink/sdk/IoT_LINK/iot_link/network/lwm2m/wakaama_lwm2m/wakaama-master/core\tlv.c ****     header[0] |= hdrType & _PRV_TLV_TYPE_MASK;
ARM GAS  C:\Users\²Ü¼ÒºÀ\AppData\Local\Temp\ccfeMfIq.s 			page 7


 141              		.loc 1 200 5 view .LVU39
 201:C:/Users/²Ü¼ÒºÀ/.iotlink/sdk/IoT_LINK/iot_link/network/lwm2m/wakaama_lwm2m/wakaama-master/core\tlv.c **** 
 202:C:/Users/²Ü¼ÒºÀ/.iotlink/sdk/IoT_LINK/iot_link/network/lwm2m/wakaama_lwm2m/wakaama-master/core\tlv.c ****     if (id > 0xFF)
 142              		.loc 1 202 8 is_stmt 0 view .LVU40
 143 001e FF2B     		cmp	r3, #255
 200:C:/Users/²Ü¼ÒºÀ/.iotlink/sdk/IoT_LINK/iot_link/network/lwm2m/wakaama_lwm2m/wakaama-master/core\tlv.c ****     header[0] |= hdrType & _PRV_TLV_TYPE_MASK;
 144              		.loc 1 200 15 view .LVU41
 145 0020 02F0C002 		and	r2, r2, #192
 146              	.LVL13:
 200:C:/Users/²Ü¼ÒºÀ/.iotlink/sdk/IoT_LINK/iot_link/network/lwm2m/wakaama_lwm2m/wakaama-master/core\tlv.c ****     header[0] |= hdrType & _PRV_TLV_TYPE_MASK;
 147              		.loc 1 200 15 view .LVU42
 148 0024 D9B2     		uxtb	r1, r3
 149 0026 2270     		strb	r2, [r4]
 150              		.loc 1 202 5 is_stmt 1 view .LVU43
 203:C:/Users/²Ü¼ÒºÀ/.iotlink/sdk/IoT_LINK/iot_link/network/lwm2m/wakaama_lwm2m/wakaama-master/core\tlv.c ****     {
 204:C:/Users/²Ü¼ÒºÀ/.iotlink/sdk/IoT_LINK/iot_link/network/lwm2m/wakaama_lwm2m/wakaama-master/core\tlv.c ****         header[0] |= 0x20;
 151              		.loc 1 204 9 view .LVU44
 205:C:/Users/²Ü¼ÒºÀ/.iotlink/sdk/IoT_LINK/iot_link/network/lwm2m/wakaama_lwm2m/wakaama-master/core\tlv.c ****         header[1] = (id >> 8) & 0XFF;
 152              		.loc 1 205 19 is_stmt 0 view .LVU45
 153 0028 81BF     		itttt	hi
 154 002a 1B0A     		lsrhi	r3, r3, #8
 155              	.LVL14:
 204:C:/Users/²Ü¼ÒºÀ/.iotlink/sdk/IoT_LINK/iot_link/network/lwm2m/wakaama_lwm2m/wakaama-master/core\tlv.c ****         header[1] = (id >> 8) & 0XFF;
 156              		.loc 1 204 19 view .LVU46
 157 002c 42F02002 		orrhi	r2, r2, #32
 158              		.loc 1 205 19 view .LVU47
 159 0030 6370     		strbhi	r3, [r4, #1]
 204:C:/Users/²Ü¼ÒºÀ/.iotlink/sdk/IoT_LINK/iot_link/network/lwm2m/wakaama_lwm2m/wakaama-master/core\tlv.c ****         header[1] = (id >> 8) & 0XFF;
 160              		.loc 1 204 19 view .LVU48
 161 0032 2270     		strbhi	r2, [r4]
 162              		.loc 1 205 9 is_stmt 1 view .LVU49
 206:C:/Users/²Ü¼ÒºÀ/.iotlink/sdk/IoT_LINK/iot_link/network/lwm2m/wakaama_lwm2m/wakaama-master/core\tlv.c ****         header[2] = id & 0XFF;
 163              		.loc 1 206 9 view .LVU50
 164              		.loc 1 206 19 is_stmt 0 view .LVU51
 165 0034 87BF     		ittee	hi
 166 0036 A170     		strbhi	r1, [r4, #2]
 207:C:/Users/²Ü¼ÒºÀ/.iotlink/sdk/IoT_LINK/iot_link/network/lwm2m/wakaama_lwm2m/wakaama-master/core\tlv.c ****         offset = 3;
 167              		.loc 1 207 9 is_stmt 1 view .LVU52
 168              	.LVL15:
 169              		.loc 1 207 16 is_stmt 0 view .LVU53
 170 0038 0323     		movhi	r3, #3
 208:C:/Users/²Ü¼ÒºÀ/.iotlink/sdk/IoT_LINK/iot_link/network/lwm2m/wakaama_lwm2m/wakaama-master/core\tlv.c ****     }
 209:C:/Users/²Ü¼ÒºÀ/.iotlink/sdk/IoT_LINK/iot_link/network/lwm2m/wakaama_lwm2m/wakaama-master/core\tlv.c ****     else
 210:C:/Users/²Ü¼ÒºÀ/.iotlink/sdk/IoT_LINK/iot_link/network/lwm2m/wakaama_lwm2m/wakaama-master/core\tlv.c ****     {
 211:C:/Users/²Ü¼ÒºÀ/.iotlink/sdk/IoT_LINK/iot_link/network/lwm2m/wakaama_lwm2m/wakaama-master/core\tlv.c ****         header[1] = id;
 171              		.loc 1 211 9 is_stmt 1 view .LVU54
 172              		.loc 1 211 19 is_stmt 0 view .LVU55
 173 003a 6170     		strbls	r1, [r4, #1]
 212:C:/Users/²Ü¼ÒºÀ/.iotlink/sdk/IoT_LINK/iot_link/network/lwm2m/wakaama_lwm2m/wakaama-master/core\tlv.c ****         offset = 2;
 174              		.loc 1 212 9 is_stmt 1 view .LVU56
 175              	.LVL16:
 176              		.loc 1 212 16 is_stmt 0 view .LVU57
 177 003c 0223     		movls	r3, #2
 178              	.LVL17:
 213:C:/Users/²Ü¼ÒºÀ/.iotlink/sdk/IoT_LINK/iot_link/network/lwm2m/wakaama_lwm2m/wakaama-master/core\tlv.c ****     }
 214:C:/Users/²Ü¼ÒºÀ/.iotlink/sdk/IoT_LINK/iot_link/network/lwm2m/wakaama_lwm2m/wakaama-master/core\tlv.c ****     if (data_len <= 7)
 179              		.loc 1 214 5 is_stmt 1 view .LVU58
ARM GAS  C:\Users\²Ü¼ÒºÀ\AppData\Local\Temp\ccfeMfIq.s 			page 8


 180              		.loc 1 214 8 is_stmt 0 view .LVU59
 181 003e 072D     		cmp	r5, #7
 182 0040 07D8     		bhi	.L11
 215:C:/Users/²Ü¼ÒºÀ/.iotlink/sdk/IoT_LINK/iot_link/network/lwm2m/wakaama_lwm2m/wakaama-master/core\tlv.c ****     {
 216:C:/Users/²Ü¼ÒºÀ/.iotlink/sdk/IoT_LINK/iot_link/network/lwm2m/wakaama_lwm2m/wakaama-master/core\tlv.c ****         header[0] += data_len;
 183              		.loc 1 216 9 is_stmt 1 view .LVU60
 184              		.loc 1 216 19 is_stmt 0 view .LVU61
 185 0042 2178     		ldrb	r1, [r4]	@ zero_extendqisi2
 186 0044 2944     		add	r1, r1, r5
 187 0046 2170     		strb	r1, [r4]
 188              	.LVL18:
 189              	.L7:
 217:C:/Users/²Ü¼ÒºÀ/.iotlink/sdk/IoT_LINK/iot_link/network/lwm2m/wakaama_lwm2m/wakaama-master/core\tlv.c ****     }
 218:C:/Users/²Ü¼ÒºÀ/.iotlink/sdk/IoT_LINK/iot_link/network/lwm2m/wakaama_lwm2m/wakaama-master/core\tlv.c ****     else if (data_len <= 0xFF)
 219:C:/Users/²Ü¼ÒºÀ/.iotlink/sdk/IoT_LINK/iot_link/network/lwm2m/wakaama_lwm2m/wakaama-master/core\tlv.c ****     {
 220:C:/Users/²Ü¼ÒºÀ/.iotlink/sdk/IoT_LINK/iot_link/network/lwm2m/wakaama_lwm2m/wakaama-master/core\tlv.c ****         header[0] |= 0x08;
 221:C:/Users/²Ü¼ÒºÀ/.iotlink/sdk/IoT_LINK/iot_link/network/lwm2m/wakaama_lwm2m/wakaama-master/core\tlv.c ****         header[offset] = data_len;
 222:C:/Users/²Ü¼ÒºÀ/.iotlink/sdk/IoT_LINK/iot_link/network/lwm2m/wakaama_lwm2m/wakaama-master/core\tlv.c ****     }
 223:C:/Users/²Ü¼ÒºÀ/.iotlink/sdk/IoT_LINK/iot_link/network/lwm2m/wakaama_lwm2m/wakaama-master/core\tlv.c ****     else if (data_len <= 0xFFFF)
 224:C:/Users/²Ü¼ÒºÀ/.iotlink/sdk/IoT_LINK/iot_link/network/lwm2m/wakaama_lwm2m/wakaama-master/core\tlv.c ****     {
 225:C:/Users/²Ü¼ÒºÀ/.iotlink/sdk/IoT_LINK/iot_link/network/lwm2m/wakaama_lwm2m/wakaama-master/core\tlv.c ****         header[0] |= 0x10;
 226:C:/Users/²Ü¼ÒºÀ/.iotlink/sdk/IoT_LINK/iot_link/network/lwm2m/wakaama_lwm2m/wakaama-master/core\tlv.c ****         header[offset] = (data_len >> 8) & 0XFF;
 227:C:/Users/²Ü¼ÒºÀ/.iotlink/sdk/IoT_LINK/iot_link/network/lwm2m/wakaama_lwm2m/wakaama-master/core\tlv.c ****         header[offset + 1] = data_len & 0XFF;
 228:C:/Users/²Ü¼ÒºÀ/.iotlink/sdk/IoT_LINK/iot_link/network/lwm2m/wakaama_lwm2m/wakaama-master/core\tlv.c ****     }
 229:C:/Users/²Ü¼ÒºÀ/.iotlink/sdk/IoT_LINK/iot_link/network/lwm2m/wakaama_lwm2m/wakaama-master/core\tlv.c ****     else if (data_len <= 0xFFFFFF)
 230:C:/Users/²Ü¼ÒºÀ/.iotlink/sdk/IoT_LINK/iot_link/network/lwm2m/wakaama_lwm2m/wakaama-master/core\tlv.c ****     {
 231:C:/Users/²Ü¼ÒºÀ/.iotlink/sdk/IoT_LINK/iot_link/network/lwm2m/wakaama_lwm2m/wakaama-master/core\tlv.c ****         header[0] |= 0x18;
 232:C:/Users/²Ü¼ÒºÀ/.iotlink/sdk/IoT_LINK/iot_link/network/lwm2m/wakaama_lwm2m/wakaama-master/core\tlv.c ****         header[offset] = (data_len >> 16) & 0XFF;
 233:C:/Users/²Ü¼ÒºÀ/.iotlink/sdk/IoT_LINK/iot_link/network/lwm2m/wakaama_lwm2m/wakaama-master/core\tlv.c ****         header[offset + 1] = (data_len >> 8) & 0XFF;
 234:C:/Users/²Ü¼ÒºÀ/.iotlink/sdk/IoT_LINK/iot_link/network/lwm2m/wakaama_lwm2m/wakaama-master/core\tlv.c ****         header[offset + 2] = data_len & 0XFF;
 235:C:/Users/²Ü¼ÒºÀ/.iotlink/sdk/IoT_LINK/iot_link/network/lwm2m/wakaama_lwm2m/wakaama-master/core\tlv.c ****     }
 236:C:/Users/²Ü¼ÒºÀ/.iotlink/sdk/IoT_LINK/iot_link/network/lwm2m/wakaama_lwm2m/wakaama-master/core\tlv.c **** 
 237:C:/Users/²Ü¼ÒºÀ/.iotlink/sdk/IoT_LINK/iot_link/network/lwm2m/wakaama_lwm2m/wakaama-master/core\tlv.c ****     return header_len;
 238:C:/Users/²Ü¼ÒºÀ/.iotlink/sdk/IoT_LINK/iot_link/network/lwm2m/wakaama_lwm2m/wakaama-master/core\tlv.c **** }
 190              		.loc 1 238 1 view .LVU62
 191 0048 70BD     		pop	{r4, r5, r6, pc}
 192              	.LVL19:
 193              	.L15:
 192:C:/Users/²Ü¼ÒºÀ/.iotlink/sdk/IoT_LINK/iot_link/network/lwm2m/wakaama_lwm2m/wakaama-master/core\tlv.c ****     }
 194              		.loc 1 192 17 view .LVU63
 195 004a 4022     		movs	r2, #64
 196              	.LVL20:
 192:C:/Users/²Ü¼ÒºÀ/.iotlink/sdk/IoT_LINK/iot_link/network/lwm2m/wakaama_lwm2m/wakaama-master/core\tlv.c ****     }
 197              		.loc 1 192 17 view .LVU64
 198 004c E7E7     		b	.L8
 199              	.LVL21:
 200              	.L16:
 190:C:/Users/²Ü¼ÒºÀ/.iotlink/sdk/IoT_LINK/iot_link/network/lwm2m/wakaama_lwm2m/wakaama-master/core\tlv.c ****     {
 201              		.loc 1 190 8 view .LVU65
 202 004e FF22     		movs	r2, #255
 203 0050 E5E7     		b	.L8
 204              	.LVL22:
 205              	.L11:
 218:C:/Users/²Ü¼ÒºÀ/.iotlink/sdk/IoT_LINK/iot_link/network/lwm2m/wakaama_lwm2m/wakaama-master/core\tlv.c ****     {
 206              		.loc 1 218 10 is_stmt 1 view .LVU66
 218:C:/Users/²Ü¼ÒºÀ/.iotlink/sdk/IoT_LINK/iot_link/network/lwm2m/wakaama_lwm2m/wakaama-master/core\tlv.c ****     {
 207              		.loc 1 218 13 is_stmt 0 view .LVU67
ARM GAS  C:\Users\²Ü¼ÒºÀ\AppData\Local\Temp\ccfeMfIq.s 			page 9


 208 0052 FF2D     		cmp	r5, #255
 209 0054 05D8     		bhi	.L13
 220:C:/Users/²Ü¼ÒºÀ/.iotlink/sdk/IoT_LINK/iot_link/network/lwm2m/wakaama_lwm2m/wakaama-master/core\tlv.c ****         header[offset] = data_len;
 210              		.loc 1 220 9 is_stmt 1 view .LVU68
 220:C:/Users/²Ü¼ÒºÀ/.iotlink/sdk/IoT_LINK/iot_link/network/lwm2m/wakaama_lwm2m/wakaama-master/core\tlv.c ****         header[offset] = data_len;
 211              		.loc 1 220 19 is_stmt 0 view .LVU69
 212 0056 2278     		ldrb	r2, [r4]	@ zero_extendqisi2
 213 0058 42F00802 		orr	r2, r2, #8
 214 005c 2270     		strb	r2, [r4]
 221:C:/Users/²Ü¼ÒºÀ/.iotlink/sdk/IoT_LINK/iot_link/network/lwm2m/wakaama_lwm2m/wakaama-master/core\tlv.c ****     }
 215              		.loc 1 221 9 is_stmt 1 view .LVU70
 221:C:/Users/²Ü¼ÒºÀ/.iotlink/sdk/IoT_LINK/iot_link/network/lwm2m/wakaama_lwm2m/wakaama-master/core\tlv.c ****     }
 216              		.loc 1 221 24 is_stmt 0 view .LVU71
 217 005e E554     		strb	r5, [r4, r3]
 218 0060 F2E7     		b	.L7
 219              	.L13:
 223:C:/Users/²Ü¼ÒºÀ/.iotlink/sdk/IoT_LINK/iot_link/network/lwm2m/wakaama_lwm2m/wakaama-master/core\tlv.c ****     {
 220              		.loc 1 223 10 is_stmt 1 view .LVU72
 223:C:/Users/²Ü¼ÒºÀ/.iotlink/sdk/IoT_LINK/iot_link/network/lwm2m/wakaama_lwm2m/wakaama-master/core\tlv.c ****     {
 221              		.loc 1 223 13 is_stmt 0 view .LVU73
 222 0062 B5F5803F 		cmp	r5, #65536
 223 0066 08D2     		bcs	.L14
 225:C:/Users/²Ü¼ÒºÀ/.iotlink/sdk/IoT_LINK/iot_link/network/lwm2m/wakaama_lwm2m/wakaama-master/core\tlv.c ****         header[offset] = (data_len >> 8) & 0XFF;
 224              		.loc 1 225 9 is_stmt 1 view .LVU74
 225:C:/Users/²Ü¼ÒºÀ/.iotlink/sdk/IoT_LINK/iot_link/network/lwm2m/wakaama_lwm2m/wakaama-master/core\tlv.c ****         header[offset] = (data_len >> 8) & 0XFF;
 225              		.loc 1 225 19 is_stmt 0 view .LVU75
 226 0068 2278     		ldrb	r2, [r4]	@ zero_extendqisi2
 227 006a 42F01002 		orr	r2, r2, #16
 228 006e 2270     		strb	r2, [r4]
 226:C:/Users/²Ü¼ÒºÀ/.iotlink/sdk/IoT_LINK/iot_link/network/lwm2m/wakaama_lwm2m/wakaama-master/core\tlv.c ****         header[offset + 1] = data_len & 0XFF;
 229              		.loc 1 226 9 is_stmt 1 view .LVU76
 226:C:/Users/²Ü¼ÒºÀ/.iotlink/sdk/IoT_LINK/iot_link/network/lwm2m/wakaama_lwm2m/wakaama-master/core\tlv.c ****         header[offset + 1] = data_len & 0XFF;
 230              		.loc 1 226 36 is_stmt 0 view .LVU77
 231 0070 2A0A     		lsrs	r2, r5, #8
 226:C:/Users/²Ü¼ÒºÀ/.iotlink/sdk/IoT_LINK/iot_link/network/lwm2m/wakaama_lwm2m/wakaama-master/core\tlv.c ****         header[offset + 1] = data_len & 0XFF;
 232              		.loc 1 226 24 view .LVU78
 233 0072 E254     		strb	r2, [r4, r3]
 227:C:/Users/²Ü¼ÒºÀ/.iotlink/sdk/IoT_LINK/iot_link/network/lwm2m/wakaama_lwm2m/wakaama-master/core\tlv.c ****     }
 234              		.loc 1 227 9 is_stmt 1 view .LVU79
 227:C:/Users/²Ü¼ÒºÀ/.iotlink/sdk/IoT_LINK/iot_link/network/lwm2m/wakaama_lwm2m/wakaama-master/core\tlv.c ****     }
 235              		.loc 1 227 28 is_stmt 0 view .LVU80
 236 0074 1C44     		add	r4, r4, r3
 237              	.LVL23:
 227:C:/Users/²Ü¼ÒºÀ/.iotlink/sdk/IoT_LINK/iot_link/network/lwm2m/wakaama_lwm2m/wakaama-master/core\tlv.c ****     }
 238              		.loc 1 227 28 view .LVU81
 239 0076 6570     		strb	r5, [r4, #1]
 240 0078 E6E7     		b	.L7
 241              	.LVL24:
 242              	.L14:
 229:C:/Users/²Ü¼ÒºÀ/.iotlink/sdk/IoT_LINK/iot_link/network/lwm2m/wakaama_lwm2m/wakaama-master/core\tlv.c ****     {
 243              		.loc 1 229 10 is_stmt 1 view .LVU82
 229:C:/Users/²Ü¼ÒºÀ/.iotlink/sdk/IoT_LINK/iot_link/network/lwm2m/wakaama_lwm2m/wakaama-master/core\tlv.c ****     {
 244              		.loc 1 229 13 is_stmt 0 view .LVU83
 245 007a B5F1807F 		cmp	r5, #16777216
 246 007e E3D2     		bcs	.L7
 231:C:/Users/²Ü¼ÒºÀ/.iotlink/sdk/IoT_LINK/iot_link/network/lwm2m/wakaama_lwm2m/wakaama-master/core\tlv.c ****         header[offset] = (data_len >> 16) & 0XFF;
 247              		.loc 1 231 9 is_stmt 1 view .LVU84
ARM GAS  C:\Users\²Ü¼ÒºÀ\AppData\Local\Temp\ccfeMfIq.s 			page 10


 231:C:/Users/²Ü¼ÒºÀ/.iotlink/sdk/IoT_LINK/iot_link/network/lwm2m/wakaama_lwm2m/wakaama-master/core\tlv.c ****         header[offset] = (data_len >> 16) & 0XFF;
 248              		.loc 1 231 19 is_stmt 0 view .LVU85
 249 0080 2278     		ldrb	r2, [r4]	@ zero_extendqisi2
 250 0082 42F01802 		orr	r2, r2, #24
 251 0086 2270     		strb	r2, [r4]
 232:C:/Users/²Ü¼ÒºÀ/.iotlink/sdk/IoT_LINK/iot_link/network/lwm2m/wakaama_lwm2m/wakaama-master/core\tlv.c ****         header[offset + 1] = (data_len >> 8) & 0XFF;
 252              		.loc 1 232 9 is_stmt 1 view .LVU86
 232:C:/Users/²Ü¼ÒºÀ/.iotlink/sdk/IoT_LINK/iot_link/network/lwm2m/wakaama_lwm2m/wakaama-master/core\tlv.c ****         header[offset + 1] = (data_len >> 8) & 0XFF;
 253              		.loc 1 232 36 is_stmt 0 view .LVU87
 254 0088 2A0C     		lsrs	r2, r5, #16
 232:C:/Users/²Ü¼ÒºÀ/.iotlink/sdk/IoT_LINK/iot_link/network/lwm2m/wakaama_lwm2m/wakaama-master/core\tlv.c ****         header[offset + 1] = (data_len >> 8) & 0XFF;
 255              		.loc 1 232 24 view .LVU88
 256 008a E254     		strb	r2, [r4, r3]
 233:C:/Users/²Ü¼ÒºÀ/.iotlink/sdk/IoT_LINK/iot_link/network/lwm2m/wakaama_lwm2m/wakaama-master/core\tlv.c ****         header[offset + 2] = data_len & 0XFF;
 257              		.loc 1 233 9 is_stmt 1 view .LVU89
 233:C:/Users/²Ü¼ÒºÀ/.iotlink/sdk/IoT_LINK/iot_link/network/lwm2m/wakaama_lwm2m/wakaama-master/core\tlv.c ****         header[offset + 2] = data_len & 0XFF;
 258              		.loc 1 233 28 is_stmt 0 view .LVU90
 259 008c 1C44     		add	r4, r4, r3
 260              	.LVL25:
 233:C:/Users/²Ü¼ÒºÀ/.iotlink/sdk/IoT_LINK/iot_link/network/lwm2m/wakaama_lwm2m/wakaama-master/core\tlv.c ****         header[offset + 2] = data_len & 0XFF;
 261              		.loc 1 233 40 view .LVU91
 262 008e 2B0A     		lsrs	r3, r5, #8
 263              	.LVL26:
 233:C:/Users/²Ü¼ÒºÀ/.iotlink/sdk/IoT_LINK/iot_link/network/lwm2m/wakaama_lwm2m/wakaama-master/core\tlv.c ****         header[offset + 2] = data_len & 0XFF;
 264              		.loc 1 233 28 view .LVU92
 265 0090 6370     		strb	r3, [r4, #1]
 234:C:/Users/²Ü¼ÒºÀ/.iotlink/sdk/IoT_LINK/iot_link/network/lwm2m/wakaama_lwm2m/wakaama-master/core\tlv.c ****     }
 266              		.loc 1 234 9 is_stmt 1 view .LVU93
 234:C:/Users/²Ü¼ÒºÀ/.iotlink/sdk/IoT_LINK/iot_link/network/lwm2m/wakaama_lwm2m/wakaama-master/core\tlv.c ****     }
 267              		.loc 1 234 28 is_stmt 0 view .LVU94
 268 0092 A570     		strb	r5, [r4, #2]
 237:C:/Users/²Ü¼ÒºÀ/.iotlink/sdk/IoT_LINK/iot_link/network/lwm2m/wakaama_lwm2m/wakaama-master/core\tlv.c **** }
 269              		.loc 1 237 5 is_stmt 1 view .LVU95
 237:C:/Users/²Ü¼ÒºÀ/.iotlink/sdk/IoT_LINK/iot_link/network/lwm2m/wakaama_lwm2m/wakaama-master/core\tlv.c **** }
 270              		.loc 1 237 12 is_stmt 0 view .LVU96
 271 0094 D8E7     		b	.L7
 272              	.L18:
 273 0096 00BF     		.align	2
 274              	.L17:
 275 0098 00000000 		.word	.LANCHOR0
 276              		.cfi_endproc
 277              	.LFE9:
 279              		.section	.text.prv_encodeInt,"ax",%progbits
 280              		.align	1
 281              		.syntax unified
 282              		.thumb
 283              		.thumb_func
 284              		.fpu fpv4-sp-d16
 286              	prv_encodeInt:
 287              	.LVL27:
 288              	.LFB5:
  67:C:/Users/²Ü¼ÒºÀ/.iotlink/sdk/IoT_LINK/iot_link/network/lwm2m/wakaama_lwm2m/wakaama-master/core\tlv.c ****     size_t length = 0;
 289              		.loc 1 67 1 is_stmt 1 view -0
 290              		.cfi_startproc
 291              		@ args = 0, pretend = 0, frame = 16
 292              		@ frame_needed = 0, uses_anonymous_args = 0
  68:C:/Users/²Ü¼ÒºÀ/.iotlink/sdk/IoT_LINK/iot_link/network/lwm2m/wakaama_lwm2m/wakaama-master/core\tlv.c **** 
ARM GAS  C:\Users\²Ü¼ÒºÀ\AppData\Local\Temp\ccfeMfIq.s 			page 11


 293              		.loc 1 68 5 view .LVU98
  70:C:/Users/²Ü¼ÒºÀ/.iotlink/sdk/IoT_LINK/iot_link/network/lwm2m/wakaama_lwm2m/wakaama-master/core\tlv.c ****     {
 294              		.loc 1 70 5 view .LVU99
  67:C:/Users/²Ü¼ÒºÀ/.iotlink/sdk/IoT_LINK/iot_link/network/lwm2m/wakaama_lwm2m/wakaama-master/core\tlv.c ****     size_t length = 0;
 295              		.loc 1 67 1 is_stmt 0 view .LVU100
 296 0000 2DE9F043 		push	{r4, r5, r6, r7, r8, r9, lr}
 297              	.LCFI1:
 298              		.cfi_def_cfa_offset 28
 299              		.cfi_offset 4, -28
 300              		.cfi_offset 5, -24
 301              		.cfi_offset 6, -20
 302              		.cfi_offset 7, -16
 303              		.cfi_offset 8, -12
 304              		.cfi_offset 9, -8
 305              		.cfi_offset 14, -4
 306 0004 85B0     		sub	sp, sp, #20
 307              	.LCFI2:
 308              		.cfi_def_cfa_offset 48
  67:C:/Users/²Ü¼ÒºÀ/.iotlink/sdk/IoT_LINK/iot_link/network/lwm2m/wakaama_lwm2m/wakaama-master/core\tlv.c ****     size_t length = 0;
 309              		.loc 1 67 1 view .LVU101
 310 0006 CDE90001 		strd	r0, [sp]
 311 000a 9446     		mov	ip, r2
  70:C:/Users/²Ü¼ÒºÀ/.iotlink/sdk/IoT_LINK/iot_link/network/lwm2m/wakaama_lwm2m/wakaama-master/core\tlv.c ****     {
 312              		.loc 1 70 26 view .LVU102
 313 000c 019A     		ldr	r2, [sp, #4]
 314              	.LVL28:
  70:C:/Users/²Ü¼ÒºÀ/.iotlink/sdk/IoT_LINK/iot_link/network/lwm2m/wakaama_lwm2m/wakaama-master/core\tlv.c ****     {
 315              		.loc 1 70 26 view .LVU103
 316 000e 10F18008 		adds	r8, r0, #128
 317 0012 42F10009 		adc	r9, r2, #0
  70:C:/Users/²Ü¼ÒºÀ/.iotlink/sdk/IoT_LINK/iot_link/network/lwm2m/wakaama_lwm2m/wakaama-master/core\tlv.c ****     {
 318              		.loc 1 70 8 view .LVU104
 319 0016 B9F1000F 		cmp	r9, #0
 320 001a 08BF     		it	eq
 321 001c B8F5807F 		cmpeq	r8, #256
 322 0020 41BA     		rev16	r1, r0
  70:C:/Users/²Ü¼ÒºÀ/.iotlink/sdk/IoT_LINK/iot_link/network/lwm2m/wakaama_lwm2m/wakaama-master/core\tlv.c ****     {
 323              		.loc 1 70 26 view .LVU105
 324 0022 0346     		mov	r3, r0
  70:C:/Users/²Ü¼ÒºÀ/.iotlink/sdk/IoT_LINK/iot_link/network/lwm2m/wakaama_lwm2m/wakaama-master/core\tlv.c ****     {
 325              		.loc 1 70 8 view .LVU106
 326 0024 05D2     		bcs	.L20
  72:C:/Users/²Ü¼ÒºÀ/.iotlink/sdk/IoT_LINK/iot_link/network/lwm2m/wakaama_lwm2m/wakaama-master/core\tlv.c ****         data_buffer[0] = data;
 327              		.loc 1 72 9 is_stmt 1 view .LVU107
 328              	.LVL29:
  73:C:/Users/²Ü¼ÒºÀ/.iotlink/sdk/IoT_LINK/iot_link/network/lwm2m/wakaama_lwm2m/wakaama-master/core\tlv.c ****     }
 329              		.loc 1 73 9 view .LVU108
  73:C:/Users/²Ü¼ÒºÀ/.iotlink/sdk/IoT_LINK/iot_link/network/lwm2m/wakaama_lwm2m/wakaama-master/core\tlv.c ****     }
 330              		.loc 1 73 24 is_stmt 0 view .LVU109
 331 0026 8CF80000 		strb	r0, [ip]
  72:C:/Users/²Ü¼ÒºÀ/.iotlink/sdk/IoT_LINK/iot_link/network/lwm2m/wakaama_lwm2m/wakaama-master/core\tlv.c ****         data_buffer[0] = data;
 332              		.loc 1 72 16 view .LVU110
 333 002a 0120     		movs	r0, #1
 334              	.LVL30:
 335              	.L19:
  99:C:/Users/²Ü¼ÒºÀ/.iotlink/sdk/IoT_LINK/iot_link/network/lwm2m/wakaama_lwm2m/wakaama-master/core\tlv.c **** 
 336              		.loc 1 99 1 view .LVU111
ARM GAS  C:\Users\²Ü¼ÒºÀ\AppData\Local\Temp\ccfeMfIq.s 			page 12


 337 002c 05B0     		add	sp, sp, #20
 338              	.LCFI3:
 339              		.cfi_remember_state
 340              		.cfi_def_cfa_offset 28
 341              		@ sp needed
 342 002e BDE8F083 		pop	{r4, r5, r6, r7, r8, r9, pc}
 343              	.LVL31:
 344              	.L20:
 345              	.LCFI4:
 346              		.cfi_restore_state
  75:C:/Users/²Ü¼ÒºÀ/.iotlink/sdk/IoT_LINK/iot_link/network/lwm2m/wakaama_lwm2m/wakaama-master/core\tlv.c ****     {
 347              		.loc 1 75 10 is_stmt 1 view .LVU112
  75:C:/Users/²Ü¼ÒºÀ/.iotlink/sdk/IoT_LINK/iot_link/network/lwm2m/wakaama_lwm2m/wakaama-master/core\tlv.c ****     {
 348              		.loc 1 75 32 is_stmt 0 view .LVU113
 349 0032 13F50046 		adds	r6, r3, #32768
 350 0036 42F10007 		adc	r7, r2, #0
  75:C:/Users/²Ü¼ÒºÀ/.iotlink/sdk/IoT_LINK/iot_link/network/lwm2m/wakaama_lwm2m/wakaama-master/core\tlv.c ****     {
 351              		.loc 1 75 13 view .LVU114
 352 003a 002F     		cmp	r7, #0
 353 003c 08BF     		it	eq
 354 003e B6F5803F 		cmpeq	r6, #65536
 355 0042 03D2     		bcs	.L22
 356              	.LBB12:
  77:C:/Users/²Ü¼ÒºÀ/.iotlink/sdk/IoT_LINK/iot_link/network/lwm2m/wakaama_lwm2m/wakaama-master/core\tlv.c **** 
 357              		.loc 1 77 9 is_stmt 1 view .LVU115
  79:C:/Users/²Ü¼ÒºÀ/.iotlink/sdk/IoT_LINK/iot_link/network/lwm2m/wakaama_lwm2m/wakaama-master/core\tlv.c ****         length = 2;
 358              		.loc 1 79 9 view .LVU116
 359              	.LVL32:
  80:C:/Users/²Ü¼ÒºÀ/.iotlink/sdk/IoT_LINK/iot_link/network/lwm2m/wakaama_lwm2m/wakaama-master/core\tlv.c ****         data_buffer[0] = (value >> 8) & 0xFF;
 360              		.loc 1 80 9 view .LVU117
  81:C:/Users/²Ü¼ÒºÀ/.iotlink/sdk/IoT_LINK/iot_link/network/lwm2m/wakaama_lwm2m/wakaama-master/core\tlv.c ****         data_buffer[1] = value & 0xFF;
 361              		.loc 1 81 9 view .LVU118
  82:C:/Users/²Ü¼ÒºÀ/.iotlink/sdk/IoT_LINK/iot_link/network/lwm2m/wakaama_lwm2m/wakaama-master/core\tlv.c ****     }
 362              		.loc 1 82 9 view .LVU119
  81:C:/Users/²Ü¼ÒºÀ/.iotlink/sdk/IoT_LINK/iot_link/network/lwm2m/wakaama_lwm2m/wakaama-master/core\tlv.c ****         data_buffer[1] = value & 0xFF;
 363              		.loc 1 81 24 is_stmt 0 view .LVU120
 364 0044 ACF80010 		strh	r1, [ip]	@ movhi
  80:C:/Users/²Ü¼ÒºÀ/.iotlink/sdk/IoT_LINK/iot_link/network/lwm2m/wakaama_lwm2m/wakaama-master/core\tlv.c ****         data_buffer[0] = (value >> 8) & 0xFF;
 365              		.loc 1 80 16 view .LVU121
 366 0048 0220     		movs	r0, #2
 367              	.LVL33:
  80:C:/Users/²Ü¼ÒºÀ/.iotlink/sdk/IoT_LINK/iot_link/network/lwm2m/wakaama_lwm2m/wakaama-master/core\tlv.c ****         data_buffer[0] = (value >> 8) & 0xFF;
 368              		.loc 1 80 16 view .LVU122
 369              	.LBE12:
 370 004a EFE7     		b	.L19
 371              	.LVL34:
 372              	.L22:
  84:C:/Users/²Ü¼ÒºÀ/.iotlink/sdk/IoT_LINK/iot_link/network/lwm2m/wakaama_lwm2m/wakaama-master/core\tlv.c ****     {
 373              		.loc 1 84 10 is_stmt 1 view .LVU123
  84:C:/Users/²Ü¼ÒºÀ/.iotlink/sdk/IoT_LINK/iot_link/network/lwm2m/wakaama_lwm2m/wakaama-master/core\tlv.c ****     {
 374              		.loc 1 84 32 is_stmt 0 view .LVU124
 375 004c 13F10044 		adds	r4, r3, #-2147483648
 376 0050 42F10005 		adc	r5, r2, #0
  84:C:/Users/²Ü¼ÒºÀ/.iotlink/sdk/IoT_LINK/iot_link/network/lwm2m/wakaama_lwm2m/wakaama-master/core\tlv.c ****     {
 377              		.loc 1 84 13 view .LVU125
 378 0054 012D     		cmp	r5, #1
 379 0056 08BF     		it	eq
ARM GAS  C:\Users\²Ü¼ÒºÀ\AppData\Local\Temp\ccfeMfIq.s 			page 13


 380 0058 002C     		cmpeq	r4, #0
 381 005a 07D2     		bcs	.L23
 382              	.LBB13:
  86:C:/Users/²Ü¼ÒºÀ/.iotlink/sdk/IoT_LINK/iot_link/network/lwm2m/wakaama_lwm2m/wakaama-master/core\tlv.c **** 
 383              		.loc 1 86 9 is_stmt 1 view .LVU126
  88:C:/Users/²Ü¼ÒºÀ/.iotlink/sdk/IoT_LINK/iot_link/network/lwm2m/wakaama_lwm2m/wakaama-master/core\tlv.c ****         length = 4;
 384              		.loc 1 88 9 view .LVU127
  88:C:/Users/²Ü¼ÒºÀ/.iotlink/sdk/IoT_LINK/iot_link/network/lwm2m/wakaama_lwm2m/wakaama-master/core\tlv.c ****         length = 4;
 385              		.loc 1 88 15 is_stmt 0 view .LVU128
 386 005c 0390     		str	r0, [sp, #12]
  89:C:/Users/²Ü¼ÒºÀ/.iotlink/sdk/IoT_LINK/iot_link/network/lwm2m/wakaama_lwm2m/wakaama-master/core\tlv.c ****         utils_copyValue(data_buffer, &value, length);
 387              		.loc 1 89 9 is_stmt 1 view .LVU129
 388              	.LVL35:
  90:C:/Users/²Ü¼ÒºÀ/.iotlink/sdk/IoT_LINK/iot_link/network/lwm2m/wakaama_lwm2m/wakaama-master/core\tlv.c ****     }
 389              		.loc 1 90 9 view .LVU130
 390 005e 0422     		movs	r2, #4
 391 0060 6046     		mov	r0, ip
 392              	.LVL36:
  90:C:/Users/²Ü¼ÒºÀ/.iotlink/sdk/IoT_LINK/iot_link/network/lwm2m/wakaama_lwm2m/wakaama-master/core\tlv.c ****     }
 393              		.loc 1 90 9 is_stmt 0 view .LVU131
 394 0062 03A9     		add	r1, sp, #12
 395 0064 FFF7FEFF 		bl	utils_copyValue
 396              	.LVL37:
  89:C:/Users/²Ü¼ÒºÀ/.iotlink/sdk/IoT_LINK/iot_link/network/lwm2m/wakaama_lwm2m/wakaama-master/core\tlv.c ****         utils_copyValue(data_buffer, &value, length);
 397              		.loc 1 89 16 view .LVU132
 398 0068 0420     		movs	r0, #4
 399              	.LBE13:
 400 006a DFE7     		b	.L19
 401              	.LVL38:
 402              	.L23:
  92:C:/Users/²Ü¼ÒºÀ/.iotlink/sdk/IoT_LINK/iot_link/network/lwm2m/wakaama_lwm2m/wakaama-master/core\tlv.c ****     {
 403              		.loc 1 92 10 is_stmt 1 view .LVU133
  94:C:/Users/²Ü¼ÒºÀ/.iotlink/sdk/IoT_LINK/iot_link/network/lwm2m/wakaama_lwm2m/wakaama-master/core\tlv.c ****         utils_copyValue(data_buffer, &data, length);
 404              		.loc 1 94 9 view .LVU134
  95:C:/Users/²Ü¼ÒºÀ/.iotlink/sdk/IoT_LINK/iot_link/network/lwm2m/wakaama_lwm2m/wakaama-master/core\tlv.c ****     }
 405              		.loc 1 95 9 view .LVU135
 406 006c 6046     		mov	r0, ip
 407              	.LVL39:
  95:C:/Users/²Ü¼ÒºÀ/.iotlink/sdk/IoT_LINK/iot_link/network/lwm2m/wakaama_lwm2m/wakaama-master/core\tlv.c ****     }
 408              		.loc 1 95 9 is_stmt 0 view .LVU136
 409 006e 0822     		movs	r2, #8
 410 0070 6946     		mov	r1, sp
 411 0072 FFF7FEFF 		bl	utils_copyValue
 412              	.LVL40:
  94:C:/Users/²Ü¼ÒºÀ/.iotlink/sdk/IoT_LINK/iot_link/network/lwm2m/wakaama_lwm2m/wakaama-master/core\tlv.c ****         utils_copyValue(data_buffer, &data, length);
 413              		.loc 1 94 16 view .LVU137
 414 0076 0820     		movs	r0, #8
  98:C:/Users/²Ü¼ÒºÀ/.iotlink/sdk/IoT_LINK/iot_link/network/lwm2m/wakaama_lwm2m/wakaama-master/core\tlv.c **** }
 415              		.loc 1 98 5 is_stmt 1 view .LVU138
  98:C:/Users/²Ü¼ÒºÀ/.iotlink/sdk/IoT_LINK/iot_link/network/lwm2m/wakaama_lwm2m/wakaama-master/core\tlv.c **** }
 416              		.loc 1 98 12 is_stmt 0 view .LVU139
 417 0078 D8E7     		b	.L19
 418              		.cfi_endproc
 419              	.LFE5:
 421              		.global	__aeabi_dcmplt
 422              		.global	__aeabi_dcmpgt
 423              		.section	.text.prv_getLength,"ax",%progbits
ARM GAS  C:\Users\²Ü¼ÒºÀ\AppData\Local\Temp\ccfeMfIq.s 			page 14


 424              		.align	1
 425              		.syntax unified
 426              		.thumb
 427              		.thumb_func
 428              		.fpu fpv4-sp-d16
 430              	prv_getLength:
 431              	.LVL41:
 432              	.LFB12:
 239:C:/Users/²Ü¼ÒºÀ/.iotlink/sdk/IoT_LINK/iot_link/network/lwm2m/wakaama_lwm2m/wakaama-master/core\tlv.c **** 
 240:C:/Users/²Ü¼ÒºÀ/.iotlink/sdk/IoT_LINK/iot_link/network/lwm2m/wakaama_lwm2m/wakaama-master/core\tlv.c **** int lwm2m_decode_TLV(const uint8_t *buffer,
 241:C:/Users/²Ü¼ÒºÀ/.iotlink/sdk/IoT_LINK/iot_link/network/lwm2m/wakaama_lwm2m/wakaama-master/core\tlv.c ****                      size_t buffer_len,
 242:C:/Users/²Ü¼ÒºÀ/.iotlink/sdk/IoT_LINK/iot_link/network/lwm2m/wakaama_lwm2m/wakaama-master/core\tlv.c ****                      lwm2m_data_type_t *oType,
 243:C:/Users/²Ü¼ÒºÀ/.iotlink/sdk/IoT_LINK/iot_link/network/lwm2m/wakaama_lwm2m/wakaama-master/core\tlv.c ****                      uint16_t *oID,
 244:C:/Users/²Ü¼ÒºÀ/.iotlink/sdk/IoT_LINK/iot_link/network/lwm2m/wakaama_lwm2m/wakaama-master/core\tlv.c ****                      size_t *oDataIndex,
 245:C:/Users/²Ü¼ÒºÀ/.iotlink/sdk/IoT_LINK/iot_link/network/lwm2m/wakaama_lwm2m/wakaama-master/core\tlv.c ****                      size_t *oDataLen)
 246:C:/Users/²Ü¼ÒºÀ/.iotlink/sdk/IoT_LINK/iot_link/network/lwm2m/wakaama_lwm2m/wakaama-master/core\tlv.c **** {
 247:C:/Users/²Ü¼ÒºÀ/.iotlink/sdk/IoT_LINK/iot_link/network/lwm2m/wakaama_lwm2m/wakaama-master/core\tlv.c **** 
 248:C:/Users/²Ü¼ÒºÀ/.iotlink/sdk/IoT_LINK/iot_link/network/lwm2m/wakaama_lwm2m/wakaama-master/core\tlv.c ****     LOG_ARG("buffer_len: %d", buffer_len);
 249:C:/Users/²Ü¼ÒºÀ/.iotlink/sdk/IoT_LINK/iot_link/network/lwm2m/wakaama_lwm2m/wakaama-master/core\tlv.c ****     ;
 250:C:/Users/²Ü¼ÒºÀ/.iotlink/sdk/IoT_LINK/iot_link/network/lwm2m/wakaama_lwm2m/wakaama-master/core\tlv.c ****     if (buffer_len < 2) return 0;
 251:C:/Users/²Ü¼ÒºÀ/.iotlink/sdk/IoT_LINK/iot_link/network/lwm2m/wakaama_lwm2m/wakaama-master/core\tlv.c **** 
 252:C:/Users/²Ü¼ÒºÀ/.iotlink/sdk/IoT_LINK/iot_link/network/lwm2m/wakaama_lwm2m/wakaama-master/core\tlv.c ****     *oDataIndex = 2;
 253:C:/Users/²Ü¼ÒºÀ/.iotlink/sdk/IoT_LINK/iot_link/network/lwm2m/wakaama_lwm2m/wakaama-master/core\tlv.c **** 
 254:C:/Users/²Ü¼ÒºÀ/.iotlink/sdk/IoT_LINK/iot_link/network/lwm2m/wakaama_lwm2m/wakaama-master/core\tlv.c ****     *oType = prv_getDataType(buffer[0] & _PRV_TLV_TYPE_MASK);
 255:C:/Users/²Ü¼ÒºÀ/.iotlink/sdk/IoT_LINK/iot_link/network/lwm2m/wakaama_lwm2m/wakaama-master/core\tlv.c **** 
 256:C:/Users/²Ü¼ÒºÀ/.iotlink/sdk/IoT_LINK/iot_link/network/lwm2m/wakaama_lwm2m/wakaama-master/core\tlv.c ****     if ((buffer[0] & 0x20) == 0x20)
 257:C:/Users/²Ü¼ÒºÀ/.iotlink/sdk/IoT_LINK/iot_link/network/lwm2m/wakaama_lwm2m/wakaama-master/core\tlv.c ****     {
 258:C:/Users/²Ü¼ÒºÀ/.iotlink/sdk/IoT_LINK/iot_link/network/lwm2m/wakaama_lwm2m/wakaama-master/core\tlv.c ****         // id is 16 bits long
 259:C:/Users/²Ü¼ÒºÀ/.iotlink/sdk/IoT_LINK/iot_link/network/lwm2m/wakaama_lwm2m/wakaama-master/core\tlv.c ****         if (buffer_len < 3) return 0;
 260:C:/Users/²Ü¼ÒºÀ/.iotlink/sdk/IoT_LINK/iot_link/network/lwm2m/wakaama_lwm2m/wakaama-master/core\tlv.c ****         *oDataIndex += 1;
 261:C:/Users/²Ü¼ÒºÀ/.iotlink/sdk/IoT_LINK/iot_link/network/lwm2m/wakaama_lwm2m/wakaama-master/core\tlv.c ****         *oID = (buffer[1] << 8) + buffer[2];
 262:C:/Users/²Ü¼ÒºÀ/.iotlink/sdk/IoT_LINK/iot_link/network/lwm2m/wakaama_lwm2m/wakaama-master/core\tlv.c ****     }
 263:C:/Users/²Ü¼ÒºÀ/.iotlink/sdk/IoT_LINK/iot_link/network/lwm2m/wakaama_lwm2m/wakaama-master/core\tlv.c ****     else
 264:C:/Users/²Ü¼ÒºÀ/.iotlink/sdk/IoT_LINK/iot_link/network/lwm2m/wakaama_lwm2m/wakaama-master/core\tlv.c ****     {
 265:C:/Users/²Ü¼ÒºÀ/.iotlink/sdk/IoT_LINK/iot_link/network/lwm2m/wakaama_lwm2m/wakaama-master/core\tlv.c ****         // id is 8 bits long
 266:C:/Users/²Ü¼ÒºÀ/.iotlink/sdk/IoT_LINK/iot_link/network/lwm2m/wakaama_lwm2m/wakaama-master/core\tlv.c ****         *oID = buffer[1];
 267:C:/Users/²Ü¼ÒºÀ/.iotlink/sdk/IoT_LINK/iot_link/network/lwm2m/wakaama_lwm2m/wakaama-master/core\tlv.c ****     }
 268:C:/Users/²Ü¼ÒºÀ/.iotlink/sdk/IoT_LINK/iot_link/network/lwm2m/wakaama_lwm2m/wakaama-master/core\tlv.c **** 
 269:C:/Users/²Ü¼ÒºÀ/.iotlink/sdk/IoT_LINK/iot_link/network/lwm2m/wakaama_lwm2m/wakaama-master/core\tlv.c ****     switch (buffer[0] & 0x18)
 270:C:/Users/²Ü¼ÒºÀ/.iotlink/sdk/IoT_LINK/iot_link/network/lwm2m/wakaama_lwm2m/wakaama-master/core\tlv.c ****     {
 271:C:/Users/²Ü¼ÒºÀ/.iotlink/sdk/IoT_LINK/iot_link/network/lwm2m/wakaama_lwm2m/wakaama-master/core\tlv.c ****     case 0x00:
 272:C:/Users/²Ü¼ÒºÀ/.iotlink/sdk/IoT_LINK/iot_link/network/lwm2m/wakaama_lwm2m/wakaama-master/core\tlv.c ****         // no length field
 273:C:/Users/²Ü¼ÒºÀ/.iotlink/sdk/IoT_LINK/iot_link/network/lwm2m/wakaama_lwm2m/wakaama-master/core\tlv.c ****         *oDataLen = buffer[0] & 0x07;
 274:C:/Users/²Ü¼ÒºÀ/.iotlink/sdk/IoT_LINK/iot_link/network/lwm2m/wakaama_lwm2m/wakaama-master/core\tlv.c ****         break;
 275:C:/Users/²Ü¼ÒºÀ/.iotlink/sdk/IoT_LINK/iot_link/network/lwm2m/wakaama_lwm2m/wakaama-master/core\tlv.c ****     case 0x08:
 276:C:/Users/²Ü¼ÒºÀ/.iotlink/sdk/IoT_LINK/iot_link/network/lwm2m/wakaama_lwm2m/wakaama-master/core\tlv.c ****         // length field is 8 bits long
 277:C:/Users/²Ü¼ÒºÀ/.iotlink/sdk/IoT_LINK/iot_link/network/lwm2m/wakaama_lwm2m/wakaama-master/core\tlv.c ****         if (buffer_len < *oDataIndex + 1) return 0;
 278:C:/Users/²Ü¼ÒºÀ/.iotlink/sdk/IoT_LINK/iot_link/network/lwm2m/wakaama_lwm2m/wakaama-master/core\tlv.c ****         *oDataLen = buffer[*oDataIndex];
 279:C:/Users/²Ü¼ÒºÀ/.iotlink/sdk/IoT_LINK/iot_link/network/lwm2m/wakaama_lwm2m/wakaama-master/core\tlv.c ****         *oDataIndex += 1;
 280:C:/Users/²Ü¼ÒºÀ/.iotlink/sdk/IoT_LINK/iot_link/network/lwm2m/wakaama_lwm2m/wakaama-master/core\tlv.c ****         break;
 281:C:/Users/²Ü¼ÒºÀ/.iotlink/sdk/IoT_LINK/iot_link/network/lwm2m/wakaama_lwm2m/wakaama-master/core\tlv.c ****     case 0x10:
 282:C:/Users/²Ü¼ÒºÀ/.iotlink/sdk/IoT_LINK/iot_link/network/lwm2m/wakaama_lwm2m/wakaama-master/core\tlv.c ****         // length field is 16 bits long
 283:C:/Users/²Ü¼ÒºÀ/.iotlink/sdk/IoT_LINK/iot_link/network/lwm2m/wakaama_lwm2m/wakaama-master/core\tlv.c ****         if (buffer_len < *oDataIndex + 2) return 0;
 284:C:/Users/²Ü¼ÒºÀ/.iotlink/sdk/IoT_LINK/iot_link/network/lwm2m/wakaama_lwm2m/wakaama-master/core\tlv.c ****         *oDataLen = (buffer[*oDataIndex] << 8) + buffer[*oDataIndex + 1];
 285:C:/Users/²Ü¼ÒºÀ/.iotlink/sdk/IoT_LINK/iot_link/network/lwm2m/wakaama_lwm2m/wakaama-master/core\tlv.c ****         *oDataIndex += 2;
 286:C:/Users/²Ü¼ÒºÀ/.iotlink/sdk/IoT_LINK/iot_link/network/lwm2m/wakaama_lwm2m/wakaama-master/core\tlv.c ****         break;
 287:C:/Users/²Ü¼ÒºÀ/.iotlink/sdk/IoT_LINK/iot_link/network/lwm2m/wakaama_lwm2m/wakaama-master/core\tlv.c ****     case 0x18:
ARM GAS  C:\Users\²Ü¼ÒºÀ\AppData\Local\Temp\ccfeMfIq.s 			page 15


 288:C:/Users/²Ü¼ÒºÀ/.iotlink/sdk/IoT_LINK/iot_link/network/lwm2m/wakaama_lwm2m/wakaama-master/core\tlv.c ****         // length field is 24 bits long
 289:C:/Users/²Ü¼ÒºÀ/.iotlink/sdk/IoT_LINK/iot_link/network/lwm2m/wakaama_lwm2m/wakaama-master/core\tlv.c ****         if (buffer_len < *oDataIndex + 3) return 0;
 290:C:/Users/²Ü¼ÒºÀ/.iotlink/sdk/IoT_LINK/iot_link/network/lwm2m/wakaama_lwm2m/wakaama-master/core\tlv.c ****         *oDataLen = (buffer[*oDataIndex] << 16) + (buffer[*oDataIndex + 1] << 8) + buffer[*oDataInd
 291:C:/Users/²Ü¼ÒºÀ/.iotlink/sdk/IoT_LINK/iot_link/network/lwm2m/wakaama_lwm2m/wakaama-master/core\tlv.c ****         *oDataIndex += 3;
 292:C:/Users/²Ü¼ÒºÀ/.iotlink/sdk/IoT_LINK/iot_link/network/lwm2m/wakaama_lwm2m/wakaama-master/core\tlv.c ****         break;
 293:C:/Users/²Ü¼ÒºÀ/.iotlink/sdk/IoT_LINK/iot_link/network/lwm2m/wakaama_lwm2m/wakaama-master/core\tlv.c ****     default:
 294:C:/Users/²Ü¼ÒºÀ/.iotlink/sdk/IoT_LINK/iot_link/network/lwm2m/wakaama_lwm2m/wakaama-master/core\tlv.c ****         // can't happen
 295:C:/Users/²Ü¼ÒºÀ/.iotlink/sdk/IoT_LINK/iot_link/network/lwm2m/wakaama_lwm2m/wakaama-master/core\tlv.c ****         return 0;
 296:C:/Users/²Ü¼ÒºÀ/.iotlink/sdk/IoT_LINK/iot_link/network/lwm2m/wakaama_lwm2m/wakaama-master/core\tlv.c ****     }
 297:C:/Users/²Ü¼ÒºÀ/.iotlink/sdk/IoT_LINK/iot_link/network/lwm2m/wakaama_lwm2m/wakaama-master/core\tlv.c **** 
 298:C:/Users/²Ü¼ÒºÀ/.iotlink/sdk/IoT_LINK/iot_link/network/lwm2m/wakaama_lwm2m/wakaama-master/core\tlv.c ****     if (*oDataIndex + *oDataLen > buffer_len) return 0;
 299:C:/Users/²Ü¼ÒºÀ/.iotlink/sdk/IoT_LINK/iot_link/network/lwm2m/wakaama_lwm2m/wakaama-master/core\tlv.c **** 
 300:C:/Users/²Ü¼ÒºÀ/.iotlink/sdk/IoT_LINK/iot_link/network/lwm2m/wakaama_lwm2m/wakaama-master/core\tlv.c ****     return *oDataIndex + *oDataLen;
 301:C:/Users/²Ü¼ÒºÀ/.iotlink/sdk/IoT_LINK/iot_link/network/lwm2m/wakaama_lwm2m/wakaama-master/core\tlv.c **** }
 302:C:/Users/²Ü¼ÒºÀ/.iotlink/sdk/IoT_LINK/iot_link/network/lwm2m/wakaama_lwm2m/wakaama-master/core\tlv.c **** 
 303:C:/Users/²Ü¼ÒºÀ/.iotlink/sdk/IoT_LINK/iot_link/network/lwm2m/wakaama_lwm2m/wakaama-master/core\tlv.c **** 
 304:C:/Users/²Ü¼ÒºÀ/.iotlink/sdk/IoT_LINK/iot_link/network/lwm2m/wakaama_lwm2m/wakaama-master/core\tlv.c **** int tlv_parse(uint8_t *buffer,
 305:C:/Users/²Ü¼ÒºÀ/.iotlink/sdk/IoT_LINK/iot_link/network/lwm2m/wakaama_lwm2m/wakaama-master/core\tlv.c ****               size_t bufferLen,
 306:C:/Users/²Ü¼ÒºÀ/.iotlink/sdk/IoT_LINK/iot_link/network/lwm2m/wakaama_lwm2m/wakaama-master/core\tlv.c ****               lwm2m_data_t **dataP)
 307:C:/Users/²Ü¼ÒºÀ/.iotlink/sdk/IoT_LINK/iot_link/network/lwm2m/wakaama_lwm2m/wakaama-master/core\tlv.c **** {
 308:C:/Users/²Ü¼ÒºÀ/.iotlink/sdk/IoT_LINK/iot_link/network/lwm2m/wakaama_lwm2m/wakaama-master/core\tlv.c ****     lwm2m_data_type_t type;
 309:C:/Users/²Ü¼ÒºÀ/.iotlink/sdk/IoT_LINK/iot_link/network/lwm2m/wakaama_lwm2m/wakaama-master/core\tlv.c ****     uint16_t id;
 310:C:/Users/²Ü¼ÒºÀ/.iotlink/sdk/IoT_LINK/iot_link/network/lwm2m/wakaama_lwm2m/wakaama-master/core\tlv.c ****     size_t dataIndex;
 311:C:/Users/²Ü¼ÒºÀ/.iotlink/sdk/IoT_LINK/iot_link/network/lwm2m/wakaama_lwm2m/wakaama-master/core\tlv.c ****     size_t dataLen;
 312:C:/Users/²Ü¼ÒºÀ/.iotlink/sdk/IoT_LINK/iot_link/network/lwm2m/wakaama_lwm2m/wakaama-master/core\tlv.c ****     int index = 0;
 313:C:/Users/²Ü¼ÒºÀ/.iotlink/sdk/IoT_LINK/iot_link/network/lwm2m/wakaama_lwm2m/wakaama-master/core\tlv.c ****     int result;
 314:C:/Users/²Ü¼ÒºÀ/.iotlink/sdk/IoT_LINK/iot_link/network/lwm2m/wakaama_lwm2m/wakaama-master/core\tlv.c ****     int size = 0;
 315:C:/Users/²Ü¼ÒºÀ/.iotlink/sdk/IoT_LINK/iot_link/network/lwm2m/wakaama_lwm2m/wakaama-master/core\tlv.c **** 
 316:C:/Users/²Ü¼ÒºÀ/.iotlink/sdk/IoT_LINK/iot_link/network/lwm2m/wakaama_lwm2m/wakaama-master/core\tlv.c ****     LOG_ARG("bufferLen: %d", bufferLen);
 317:C:/Users/²Ü¼ÒºÀ/.iotlink/sdk/IoT_LINK/iot_link/network/lwm2m/wakaama_lwm2m/wakaama-master/core\tlv.c **** 
 318:C:/Users/²Ü¼ÒºÀ/.iotlink/sdk/IoT_LINK/iot_link/network/lwm2m/wakaama_lwm2m/wakaama-master/core\tlv.c ****     *dataP = NULL;
 319:C:/Users/²Ü¼ÒºÀ/.iotlink/sdk/IoT_LINK/iot_link/network/lwm2m/wakaama_lwm2m/wakaama-master/core\tlv.c **** 
 320:C:/Users/²Ü¼ÒºÀ/.iotlink/sdk/IoT_LINK/iot_link/network/lwm2m/wakaama_lwm2m/wakaama-master/core\tlv.c ****     while (0 != (result = lwm2m_decode_TLV((uint8_t *)buffer + index, bufferLen - index, &type, &id
 321:C:/Users/²Ü¼ÒºÀ/.iotlink/sdk/IoT_LINK/iot_link/network/lwm2m/wakaama_lwm2m/wakaama-master/core\tlv.c ****     {
 322:C:/Users/²Ü¼ÒºÀ/.iotlink/sdk/IoT_LINK/iot_link/network/lwm2m/wakaama_lwm2m/wakaama-master/core\tlv.c ****         lwm2m_data_t *newTlvP;
 323:C:/Users/²Ü¼ÒºÀ/.iotlink/sdk/IoT_LINK/iot_link/network/lwm2m/wakaama_lwm2m/wakaama-master/core\tlv.c **** 
 324:C:/Users/²Ü¼ÒºÀ/.iotlink/sdk/IoT_LINK/iot_link/network/lwm2m/wakaama_lwm2m/wakaama-master/core\tlv.c ****         newTlvP = lwm2m_data_new(size + 1);
 325:C:/Users/²Ü¼ÒºÀ/.iotlink/sdk/IoT_LINK/iot_link/network/lwm2m/wakaama_lwm2m/wakaama-master/core\tlv.c ****         if (size >= 1)
 326:C:/Users/²Ü¼ÒºÀ/.iotlink/sdk/IoT_LINK/iot_link/network/lwm2m/wakaama_lwm2m/wakaama-master/core\tlv.c ****         {
 327:C:/Users/²Ü¼ÒºÀ/.iotlink/sdk/IoT_LINK/iot_link/network/lwm2m/wakaama_lwm2m/wakaama-master/core\tlv.c ****             if (newTlvP == NULL)
 328:C:/Users/²Ü¼ÒºÀ/.iotlink/sdk/IoT_LINK/iot_link/network/lwm2m/wakaama_lwm2m/wakaama-master/core\tlv.c ****             {
 329:C:/Users/²Ü¼ÒºÀ/.iotlink/sdk/IoT_LINK/iot_link/network/lwm2m/wakaama_lwm2m/wakaama-master/core\tlv.c ****                 lwm2m_data_free(size, *dataP);
 330:C:/Users/²Ü¼ÒºÀ/.iotlink/sdk/IoT_LINK/iot_link/network/lwm2m/wakaama_lwm2m/wakaama-master/core\tlv.c ****                 return 0;
 331:C:/Users/²Ü¼ÒºÀ/.iotlink/sdk/IoT_LINK/iot_link/network/lwm2m/wakaama_lwm2m/wakaama-master/core\tlv.c ****             }
 332:C:/Users/²Ü¼ÒºÀ/.iotlink/sdk/IoT_LINK/iot_link/network/lwm2m/wakaama_lwm2m/wakaama-master/core\tlv.c ****             else
 333:C:/Users/²Ü¼ÒºÀ/.iotlink/sdk/IoT_LINK/iot_link/network/lwm2m/wakaama_lwm2m/wakaama-master/core\tlv.c ****             {
 334:C:/Users/²Ü¼ÒºÀ/.iotlink/sdk/IoT_LINK/iot_link/network/lwm2m/wakaama_lwm2m/wakaama-master/core\tlv.c ****                 memcpy(newTlvP, *dataP, size * sizeof(lwm2m_data_t));
 335:C:/Users/²Ü¼ÒºÀ/.iotlink/sdk/IoT_LINK/iot_link/network/lwm2m/wakaama_lwm2m/wakaama-master/core\tlv.c ****                 lwm2m_free(*dataP);
 336:C:/Users/²Ü¼ÒºÀ/.iotlink/sdk/IoT_LINK/iot_link/network/lwm2m/wakaama_lwm2m/wakaama-master/core\tlv.c ****             }
 337:C:/Users/²Ü¼ÒºÀ/.iotlink/sdk/IoT_LINK/iot_link/network/lwm2m/wakaama_lwm2m/wakaama-master/core\tlv.c ****         }
 338:C:/Users/²Ü¼ÒºÀ/.iotlink/sdk/IoT_LINK/iot_link/network/lwm2m/wakaama_lwm2m/wakaama-master/core\tlv.c ****         *dataP = newTlvP;
 339:C:/Users/²Ü¼ÒºÀ/.iotlink/sdk/IoT_LINK/iot_link/network/lwm2m/wakaama_lwm2m/wakaama-master/core\tlv.c **** 
 340:C:/Users/²Ü¼ÒºÀ/.iotlink/sdk/IoT_LINK/iot_link/network/lwm2m/wakaama_lwm2m/wakaama-master/core\tlv.c ****         (*dataP)[size].type = type;
 341:C:/Users/²Ü¼ÒºÀ/.iotlink/sdk/IoT_LINK/iot_link/network/lwm2m/wakaama_lwm2m/wakaama-master/core\tlv.c ****         (*dataP)[size].id = id;
 342:C:/Users/²Ü¼ÒºÀ/.iotlink/sdk/IoT_LINK/iot_link/network/lwm2m/wakaama_lwm2m/wakaama-master/core\tlv.c ****         if (type == LWM2M_TYPE_OBJECT_INSTANCE || type == LWM2M_TYPE_MULTIPLE_RESOURCE)
 343:C:/Users/²Ü¼ÒºÀ/.iotlink/sdk/IoT_LINK/iot_link/network/lwm2m/wakaama_lwm2m/wakaama-master/core\tlv.c ****         {
 344:C:/Users/²Ü¼ÒºÀ/.iotlink/sdk/IoT_LINK/iot_link/network/lwm2m/wakaama_lwm2m/wakaama-master/core\tlv.c ****             (*dataP)[size].value.asChildren.count = tlv_parse(buffer + index + dataIndex,
ARM GAS  C:\Users\²Ü¼ÒºÀ\AppData\Local\Temp\ccfeMfIq.s 			page 16


 345:C:/Users/²Ü¼ÒºÀ/.iotlink/sdk/IoT_LINK/iot_link/network/lwm2m/wakaama_lwm2m/wakaama-master/core\tlv.c ****                                                     dataLen,
 346:C:/Users/²Ü¼ÒºÀ/.iotlink/sdk/IoT_LINK/iot_link/network/lwm2m/wakaama_lwm2m/wakaama-master/core\tlv.c ****                                                     &((*dataP)[size].value.asChildren.array));
 347:C:/Users/²Ü¼ÒºÀ/.iotlink/sdk/IoT_LINK/iot_link/network/lwm2m/wakaama_lwm2m/wakaama-master/core\tlv.c ****             if ((*dataP)[size].value.asChildren.count == 0)
 348:C:/Users/²Ü¼ÒºÀ/.iotlink/sdk/IoT_LINK/iot_link/network/lwm2m/wakaama_lwm2m/wakaama-master/core\tlv.c ****             {
 349:C:/Users/²Ü¼ÒºÀ/.iotlink/sdk/IoT_LINK/iot_link/network/lwm2m/wakaama_lwm2m/wakaama-master/core\tlv.c ****                 lwm2m_data_free(size + 1, *dataP);
 350:C:/Users/²Ü¼ÒºÀ/.iotlink/sdk/IoT_LINK/iot_link/network/lwm2m/wakaama_lwm2m/wakaama-master/core\tlv.c ****                 return 0;
 351:C:/Users/²Ü¼ÒºÀ/.iotlink/sdk/IoT_LINK/iot_link/network/lwm2m/wakaama_lwm2m/wakaama-master/core\tlv.c ****             }
 352:C:/Users/²Ü¼ÒºÀ/.iotlink/sdk/IoT_LINK/iot_link/network/lwm2m/wakaama_lwm2m/wakaama-master/core\tlv.c ****         }
 353:C:/Users/²Ü¼ÒºÀ/.iotlink/sdk/IoT_LINK/iot_link/network/lwm2m/wakaama_lwm2m/wakaama-master/core\tlv.c ****         else
 354:C:/Users/²Ü¼ÒºÀ/.iotlink/sdk/IoT_LINK/iot_link/network/lwm2m/wakaama_lwm2m/wakaama-master/core\tlv.c ****         {
 355:C:/Users/²Ü¼ÒºÀ/.iotlink/sdk/IoT_LINK/iot_link/network/lwm2m/wakaama_lwm2m/wakaama-master/core\tlv.c ****             lwm2m_data_encode_opaque(buffer + index + dataIndex, dataLen, (*dataP) + size);
 356:C:/Users/²Ü¼ÒºÀ/.iotlink/sdk/IoT_LINK/iot_link/network/lwm2m/wakaama_lwm2m/wakaama-master/core\tlv.c ****         }
 357:C:/Users/²Ü¼ÒºÀ/.iotlink/sdk/IoT_LINK/iot_link/network/lwm2m/wakaama_lwm2m/wakaama-master/core\tlv.c ****         size++;
 358:C:/Users/²Ü¼ÒºÀ/.iotlink/sdk/IoT_LINK/iot_link/network/lwm2m/wakaama_lwm2m/wakaama-master/core\tlv.c ****         index += result;
 359:C:/Users/²Ü¼ÒºÀ/.iotlink/sdk/IoT_LINK/iot_link/network/lwm2m/wakaama_lwm2m/wakaama-master/core\tlv.c ****     }
 360:C:/Users/²Ü¼ÒºÀ/.iotlink/sdk/IoT_LINK/iot_link/network/lwm2m/wakaama_lwm2m/wakaama-master/core\tlv.c **** 
 361:C:/Users/²Ü¼ÒºÀ/.iotlink/sdk/IoT_LINK/iot_link/network/lwm2m/wakaama_lwm2m/wakaama-master/core\tlv.c ****     return size;
 362:C:/Users/²Ü¼ÒºÀ/.iotlink/sdk/IoT_LINK/iot_link/network/lwm2m/wakaama_lwm2m/wakaama-master/core\tlv.c **** }
 363:C:/Users/²Ü¼ÒºÀ/.iotlink/sdk/IoT_LINK/iot_link/network/lwm2m/wakaama_lwm2m/wakaama-master/core\tlv.c **** 
 364:C:/Users/²Ü¼ÒºÀ/.iotlink/sdk/IoT_LINK/iot_link/network/lwm2m/wakaama_lwm2m/wakaama-master/core\tlv.c **** 
 365:C:/Users/²Ü¼ÒºÀ/.iotlink/sdk/IoT_LINK/iot_link/network/lwm2m/wakaama_lwm2m/wakaama-master/core\tlv.c **** static int prv_getLength(int size,
 366:C:/Users/²Ü¼ÒºÀ/.iotlink/sdk/IoT_LINK/iot_link/network/lwm2m/wakaama_lwm2m/wakaama-master/core\tlv.c ****                          lwm2m_data_t *dataP)
 367:C:/Users/²Ü¼ÒºÀ/.iotlink/sdk/IoT_LINK/iot_link/network/lwm2m/wakaama_lwm2m/wakaama-master/core\tlv.c **** {
 433              		.loc 1 367 1 is_stmt 1 view -0
 434              		.cfi_startproc
 435              		@ args = 0, pretend = 0, frame = 8
 436              		@ frame_needed = 0, uses_anonymous_args = 0
 368:C:/Users/²Ü¼ÒºÀ/.iotlink/sdk/IoT_LINK/iot_link/network/lwm2m/wakaama_lwm2m/wakaama-master/core\tlv.c ****     int length;
 437              		.loc 1 368 5 view .LVU141
 369:C:/Users/²Ü¼ÒºÀ/.iotlink/sdk/IoT_LINK/iot_link/network/lwm2m/wakaama_lwm2m/wakaama-master/core\tlv.c ****     int i;
 438              		.loc 1 369 5 view .LVU142
 370:C:/Users/²Ü¼ÒºÀ/.iotlink/sdk/IoT_LINK/iot_link/network/lwm2m/wakaama_lwm2m/wakaama-master/core\tlv.c **** 
 371:C:/Users/²Ü¼ÒºÀ/.iotlink/sdk/IoT_LINK/iot_link/network/lwm2m/wakaama_lwm2m/wakaama-master/core\tlv.c ****     length = 0;
 439              		.loc 1 371 5 view .LVU143
 372:C:/Users/²Ü¼ÒºÀ/.iotlink/sdk/IoT_LINK/iot_link/network/lwm2m/wakaama_lwm2m/wakaama-master/core\tlv.c **** 
 373:C:/Users/²Ü¼ÒºÀ/.iotlink/sdk/IoT_LINK/iot_link/network/lwm2m/wakaama_lwm2m/wakaama-master/core\tlv.c ****     for (i = 0 ; i < size && length != -1 ; i++)
 440              		.loc 1 373 5 view .LVU144
 367:C:/Users/²Ü¼ÒºÀ/.iotlink/sdk/IoT_LINK/iot_link/network/lwm2m/wakaama_lwm2m/wakaama-master/core\tlv.c ****     int length;
 441              		.loc 1 367 1 is_stmt 0 view .LVU145
 442 0000 2DE9F74F 		push	{r0, r1, r2, r4, r5, r6, r7, r8, r9, r10, fp, lr}
 443              	.LCFI5:
 444              		.cfi_def_cfa_offset 48
 445              		.cfi_offset 4, -36
 446              		.cfi_offset 5, -32
 447              		.cfi_offset 6, -28
 448              		.cfi_offset 7, -24
 449              		.cfi_offset 8, -20
 450              		.cfi_offset 9, -16
 451              		.cfi_offset 10, -12
 452              		.cfi_offset 11, -8
 453              		.cfi_offset 14, -4
 454              		.loc 1 373 12 view .LVU146
 455 0004 4FF0000A 		mov	r10, #0
 456              	.LBB14:
 374:C:/Users/²Ü¼ÒºÀ/.iotlink/sdk/IoT_LINK/iot_link/network/lwm2m/wakaama_lwm2m/wakaama-master/core\tlv.c ****     {
 375:C:/Users/²Ü¼ÒºÀ/.iotlink/sdk/IoT_LINK/iot_link/network/lwm2m/wakaama_lwm2m/wakaama-master/core\tlv.c ****         switch (dataP[i].type)
 376:C:/Users/²Ü¼ÒºÀ/.iotlink/sdk/IoT_LINK/iot_link/network/lwm2m/wakaama_lwm2m/wakaama-master/core\tlv.c ****         {
ARM GAS  C:\Users\²Ü¼ÒºÀ\AppData\Local\Temp\ccfeMfIq.s 			page 17


 377:C:/Users/²Ü¼ÒºÀ/.iotlink/sdk/IoT_LINK/iot_link/network/lwm2m/wakaama_lwm2m/wakaama-master/core\tlv.c ****         case LWM2M_TYPE_OBJECT_INSTANCE:
 378:C:/Users/²Ü¼ÒºÀ/.iotlink/sdk/IoT_LINK/iot_link/network/lwm2m/wakaama_lwm2m/wakaama-master/core\tlv.c ****         case LWM2M_TYPE_MULTIPLE_RESOURCE:
 379:C:/Users/²Ü¼ÒºÀ/.iotlink/sdk/IoT_LINK/iot_link/network/lwm2m/wakaama_lwm2m/wakaama-master/core\tlv.c ****         {
 380:C:/Users/²Ü¼ÒºÀ/.iotlink/sdk/IoT_LINK/iot_link/network/lwm2m/wakaama_lwm2m/wakaama-master/core\tlv.c ****             int subLength;
 381:C:/Users/²Ü¼ÒºÀ/.iotlink/sdk/IoT_LINK/iot_link/network/lwm2m/wakaama_lwm2m/wakaama-master/core\tlv.c **** 
 382:C:/Users/²Ü¼ÒºÀ/.iotlink/sdk/IoT_LINK/iot_link/network/lwm2m/wakaama_lwm2m/wakaama-master/core\tlv.c ****             subLength = prv_getLength(dataP[i].value.asChildren.count, dataP[i].value.asChildren.ar
 383:C:/Users/²Ü¼ÒºÀ/.iotlink/sdk/IoT_LINK/iot_link/network/lwm2m/wakaama_lwm2m/wakaama-master/core\tlv.c ****             if (subLength == -1)
 384:C:/Users/²Ü¼ÒºÀ/.iotlink/sdk/IoT_LINK/iot_link/network/lwm2m/wakaama_lwm2m/wakaama-master/core\tlv.c ****             {
 385:C:/Users/²Ü¼ÒºÀ/.iotlink/sdk/IoT_LINK/iot_link/network/lwm2m/wakaama_lwm2m/wakaama-master/core\tlv.c ****                 length = -1;
 386:C:/Users/²Ü¼ÒºÀ/.iotlink/sdk/IoT_LINK/iot_link/network/lwm2m/wakaama_lwm2m/wakaama-master/core\tlv.c ****             }
 387:C:/Users/²Ü¼ÒºÀ/.iotlink/sdk/IoT_LINK/iot_link/network/lwm2m/wakaama_lwm2m/wakaama-master/core\tlv.c ****             else
 388:C:/Users/²Ü¼ÒºÀ/.iotlink/sdk/IoT_LINK/iot_link/network/lwm2m/wakaama_lwm2m/wakaama-master/core\tlv.c ****             {
 389:C:/Users/²Ü¼ÒºÀ/.iotlink/sdk/IoT_LINK/iot_link/network/lwm2m/wakaama_lwm2m/wakaama-master/core\tlv.c ****                 length += prv_getHeaderLength(dataP[i].id, subLength) + subLength;
 390:C:/Users/²Ü¼ÒºÀ/.iotlink/sdk/IoT_LINK/iot_link/network/lwm2m/wakaama_lwm2m/wakaama-master/core\tlv.c ****             }
 391:C:/Users/²Ü¼ÒºÀ/.iotlink/sdk/IoT_LINK/iot_link/network/lwm2m/wakaama_lwm2m/wakaama-master/core\tlv.c ****         }
 392:C:/Users/²Ü¼ÒºÀ/.iotlink/sdk/IoT_LINK/iot_link/network/lwm2m/wakaama_lwm2m/wakaama-master/core\tlv.c ****         break;
 393:C:/Users/²Ü¼ÒºÀ/.iotlink/sdk/IoT_LINK/iot_link/network/lwm2m/wakaama_lwm2m/wakaama-master/core\tlv.c **** 
 394:C:/Users/²Ü¼ÒºÀ/.iotlink/sdk/IoT_LINK/iot_link/network/lwm2m/wakaama_lwm2m/wakaama-master/core\tlv.c ****         case LWM2M_TYPE_STRING:
 395:C:/Users/²Ü¼ÒºÀ/.iotlink/sdk/IoT_LINK/iot_link/network/lwm2m/wakaama_lwm2m/wakaama-master/core\tlv.c ****         case LWM2M_TYPE_OPAQUE:
 396:C:/Users/²Ü¼ÒºÀ/.iotlink/sdk/IoT_LINK/iot_link/network/lwm2m/wakaama_lwm2m/wakaama-master/core\tlv.c ****             length += prv_getHeaderLength(dataP[i].id, dataP[i].value.asBuffer.length) + dataP[i].v
 397:C:/Users/²Ü¼ÒºÀ/.iotlink/sdk/IoT_LINK/iot_link/network/lwm2m/wakaama_lwm2m/wakaama-master/core\tlv.c ****             break;
 398:C:/Users/²Ü¼ÒºÀ/.iotlink/sdk/IoT_LINK/iot_link/network/lwm2m/wakaama_lwm2m/wakaama-master/core\tlv.c **** 
 399:C:/Users/²Ü¼ÒºÀ/.iotlink/sdk/IoT_LINK/iot_link/network/lwm2m/wakaama_lwm2m/wakaama-master/core\tlv.c ****         case LWM2M_TYPE_INTEGER:
 400:C:/Users/²Ü¼ÒºÀ/.iotlink/sdk/IoT_LINK/iot_link/network/lwm2m/wakaama_lwm2m/wakaama-master/core\tlv.c ****         {
 401:C:/Users/²Ü¼ÒºÀ/.iotlink/sdk/IoT_LINK/iot_link/network/lwm2m/wakaama_lwm2m/wakaama-master/core\tlv.c ****             size_t data_len;
 402:C:/Users/²Ü¼ÒºÀ/.iotlink/sdk/IoT_LINK/iot_link/network/lwm2m/wakaama_lwm2m/wakaama-master/core\tlv.c ****             uint8_t unused_buffer[_PRV_64BIT_BUFFER_SIZE];
 403:C:/Users/²Ü¼ÒºÀ/.iotlink/sdk/IoT_LINK/iot_link/network/lwm2m/wakaama_lwm2m/wakaama-master/core\tlv.c **** 
 404:C:/Users/²Ü¼ÒºÀ/.iotlink/sdk/IoT_LINK/iot_link/network/lwm2m/wakaama_lwm2m/wakaama-master/core\tlv.c ****             data_len = prv_encodeInt(dataP[i].value.asInteger, unused_buffer);
 405:C:/Users/²Ü¼ÒºÀ/.iotlink/sdk/IoT_LINK/iot_link/network/lwm2m/wakaama_lwm2m/wakaama-master/core\tlv.c ****             length += prv_getHeaderLength(dataP[i].id, data_len) + data_len;
 406:C:/Users/²Ü¼ÒºÀ/.iotlink/sdk/IoT_LINK/iot_link/network/lwm2m/wakaama_lwm2m/wakaama-master/core\tlv.c ****         }
 407:C:/Users/²Ü¼ÒºÀ/.iotlink/sdk/IoT_LINK/iot_link/network/lwm2m/wakaama_lwm2m/wakaama-master/core\tlv.c ****         break;
 408:C:/Users/²Ü¼ÒºÀ/.iotlink/sdk/IoT_LINK/iot_link/network/lwm2m/wakaama_lwm2m/wakaama-master/core\tlv.c **** 
 409:C:/Users/²Ü¼ÒºÀ/.iotlink/sdk/IoT_LINK/iot_link/network/lwm2m/wakaama_lwm2m/wakaama-master/core\tlv.c ****         case LWM2M_TYPE_FLOAT:
 410:C:/Users/²Ü¼ÒºÀ/.iotlink/sdk/IoT_LINK/iot_link/network/lwm2m/wakaama_lwm2m/wakaama-master/core\tlv.c ****         {
 411:C:/Users/²Ü¼ÒºÀ/.iotlink/sdk/IoT_LINK/iot_link/network/lwm2m/wakaama_lwm2m/wakaama-master/core\tlv.c ****             size_t data_len;
 412:C:/Users/²Ü¼ÒºÀ/.iotlink/sdk/IoT_LINK/iot_link/network/lwm2m/wakaama_lwm2m/wakaama-master/core\tlv.c **** 
 413:C:/Users/²Ü¼ÒºÀ/.iotlink/sdk/IoT_LINK/iot_link/network/lwm2m/wakaama_lwm2m/wakaama-master/core\tlv.c ****             if ((dataP[i].value.asFloat < 0.0 - (double)FLT_MAX)
 414:C:/Users/²Ü¼ÒºÀ/.iotlink/sdk/IoT_LINK/iot_link/network/lwm2m/wakaama_lwm2m/wakaama-master/core\tlv.c ****                     || (dataP[i].value.asFloat > (double)FLT_MAX))
 457              		.loc 1 414 21 view .LVU147
 458 0008 DFF8C090 		ldr	r9, .L49+4
 459              	.LBE14:
 367:C:/Users/²Ü¼ÒºÀ/.iotlink/sdk/IoT_LINK/iot_link/network/lwm2m/wakaama_lwm2m/wakaama-master/core\tlv.c ****     int length;
 460              		.loc 1 367 1 view .LVU148
 461 000c 8346     		mov	fp, r0
 462 000e 0C46     		mov	r4, r1
 371:C:/Users/²Ü¼ÒºÀ/.iotlink/sdk/IoT_LINK/iot_link/network/lwm2m/wakaama_lwm2m/wakaama-master/core\tlv.c **** 
 463              		.loc 1 371 12 view .LVU149
 464 0010 5546     		mov	r5, r10
 465              	.LBB15:
 466              		.loc 1 414 21 view .LVU150
 467 0012 4FF06048 		mov	r8, #-536870912
 468              	.LVL42:
 469              	.L25:
 470              		.loc 1 414 21 view .LVU151
 471              	.LBE15:
 373:C:/Users/²Ü¼ÒºÀ/.iotlink/sdk/IoT_LINK/iot_link/network/lwm2m/wakaama_lwm2m/wakaama-master/core\tlv.c ****     {
 472              		.loc 1 373 18 is_stmt 1 discriminator 1 view .LVU152
ARM GAS  C:\Users\²Ü¼ÒºÀ\AppData\Local\Temp\ccfeMfIq.s 			page 18


 373:C:/Users/²Ü¼ÒºÀ/.iotlink/sdk/IoT_LINK/iot_link/network/lwm2m/wakaama_lwm2m/wakaama-master/core\tlv.c ****     {
 473              		.loc 1 373 5 is_stmt 0 discriminator 1 view .LVU153
 474 0016 DA45     		cmp	r10, fp
 475 0018 01DA     		bge	.L24
 373:C:/Users/²Ü¼ÒºÀ/.iotlink/sdk/IoT_LINK/iot_link/network/lwm2m/wakaama_lwm2m/wakaama-master/core\tlv.c ****     {
 476              		.loc 1 373 27 discriminator 3 view .LVU154
 477 001a 6B1C     		adds	r3, r5, #1
 478 001c 03D1     		bne	.L38
 479              	.L24:
 415:C:/Users/²Ü¼ÒºÀ/.iotlink/sdk/IoT_LINK/iot_link/network/lwm2m/wakaama_lwm2m/wakaama-master/core\tlv.c ****             {
 416:C:/Users/²Ü¼ÒºÀ/.iotlink/sdk/IoT_LINK/iot_link/network/lwm2m/wakaama_lwm2m/wakaama-master/core\tlv.c ****                 data_len = 8;
 417:C:/Users/²Ü¼ÒºÀ/.iotlink/sdk/IoT_LINK/iot_link/network/lwm2m/wakaama_lwm2m/wakaama-master/core\tlv.c ****             }
 418:C:/Users/²Ü¼ÒºÀ/.iotlink/sdk/IoT_LINK/iot_link/network/lwm2m/wakaama_lwm2m/wakaama-master/core\tlv.c ****             else
 419:C:/Users/²Ü¼ÒºÀ/.iotlink/sdk/IoT_LINK/iot_link/network/lwm2m/wakaama_lwm2m/wakaama-master/core\tlv.c ****             {
 420:C:/Users/²Ü¼ÒºÀ/.iotlink/sdk/IoT_LINK/iot_link/network/lwm2m/wakaama_lwm2m/wakaama-master/core\tlv.c ****                 data_len = 4;
 421:C:/Users/²Ü¼ÒºÀ/.iotlink/sdk/IoT_LINK/iot_link/network/lwm2m/wakaama_lwm2m/wakaama-master/core\tlv.c ****             }
 422:C:/Users/²Ü¼ÒºÀ/.iotlink/sdk/IoT_LINK/iot_link/network/lwm2m/wakaama_lwm2m/wakaama-master/core\tlv.c **** 
 423:C:/Users/²Ü¼ÒºÀ/.iotlink/sdk/IoT_LINK/iot_link/network/lwm2m/wakaama_lwm2m/wakaama-master/core\tlv.c ****             length += prv_getHeaderLength(dataP[i].id, data_len) + data_len;
 424:C:/Users/²Ü¼ÒºÀ/.iotlink/sdk/IoT_LINK/iot_link/network/lwm2m/wakaama_lwm2m/wakaama-master/core\tlv.c ****         }
 425:C:/Users/²Ü¼ÒºÀ/.iotlink/sdk/IoT_LINK/iot_link/network/lwm2m/wakaama_lwm2m/wakaama-master/core\tlv.c ****         break;
 426:C:/Users/²Ü¼ÒºÀ/.iotlink/sdk/IoT_LINK/iot_link/network/lwm2m/wakaama_lwm2m/wakaama-master/core\tlv.c **** 
 427:C:/Users/²Ü¼ÒºÀ/.iotlink/sdk/IoT_LINK/iot_link/network/lwm2m/wakaama_lwm2m/wakaama-master/core\tlv.c ****         case LWM2M_TYPE_BOOLEAN:
 428:C:/Users/²Ü¼ÒºÀ/.iotlink/sdk/IoT_LINK/iot_link/network/lwm2m/wakaama_lwm2m/wakaama-master/core\tlv.c ****             // Booleans are always encoded on one byte
 429:C:/Users/²Ü¼ÒºÀ/.iotlink/sdk/IoT_LINK/iot_link/network/lwm2m/wakaama_lwm2m/wakaama-master/core\tlv.c ****             length += prv_getHeaderLength(dataP[i].id, 1) + 1;
 430:C:/Users/²Ü¼ÒºÀ/.iotlink/sdk/IoT_LINK/iot_link/network/lwm2m/wakaama_lwm2m/wakaama-master/core\tlv.c ****             break;
 431:C:/Users/²Ü¼ÒºÀ/.iotlink/sdk/IoT_LINK/iot_link/network/lwm2m/wakaama_lwm2m/wakaama-master/core\tlv.c **** 
 432:C:/Users/²Ü¼ÒºÀ/.iotlink/sdk/IoT_LINK/iot_link/network/lwm2m/wakaama_lwm2m/wakaama-master/core\tlv.c ****         case LWM2M_TYPE_OBJECT_LINK:
 433:C:/Users/²Ü¼ÒºÀ/.iotlink/sdk/IoT_LINK/iot_link/network/lwm2m/wakaama_lwm2m/wakaama-master/core\tlv.c ****             // Object Link are always encoded on four bytes
 434:C:/Users/²Ü¼ÒºÀ/.iotlink/sdk/IoT_LINK/iot_link/network/lwm2m/wakaama_lwm2m/wakaama-master/core\tlv.c ****             length += prv_getHeaderLength(dataP[i].id, 4) + 4;
 435:C:/Users/²Ü¼ÒºÀ/.iotlink/sdk/IoT_LINK/iot_link/network/lwm2m/wakaama_lwm2m/wakaama-master/core\tlv.c ****             break;
 436:C:/Users/²Ü¼ÒºÀ/.iotlink/sdk/IoT_LINK/iot_link/network/lwm2m/wakaama_lwm2m/wakaama-master/core\tlv.c **** 
 437:C:/Users/²Ü¼ÒºÀ/.iotlink/sdk/IoT_LINK/iot_link/network/lwm2m/wakaama_lwm2m/wakaama-master/core\tlv.c ****         default:
 438:C:/Users/²Ü¼ÒºÀ/.iotlink/sdk/IoT_LINK/iot_link/network/lwm2m/wakaama_lwm2m/wakaama-master/core\tlv.c ****             length = -1;
 439:C:/Users/²Ü¼ÒºÀ/.iotlink/sdk/IoT_LINK/iot_link/network/lwm2m/wakaama_lwm2m/wakaama-master/core\tlv.c ****             break;
 440:C:/Users/²Ü¼ÒºÀ/.iotlink/sdk/IoT_LINK/iot_link/network/lwm2m/wakaama_lwm2m/wakaama-master/core\tlv.c ****         }
 441:C:/Users/²Ü¼ÒºÀ/.iotlink/sdk/IoT_LINK/iot_link/network/lwm2m/wakaama_lwm2m/wakaama-master/core\tlv.c ****     }
 442:C:/Users/²Ü¼ÒºÀ/.iotlink/sdk/IoT_LINK/iot_link/network/lwm2m/wakaama_lwm2m/wakaama-master/core\tlv.c **** 
 443:C:/Users/²Ü¼ÒºÀ/.iotlink/sdk/IoT_LINK/iot_link/network/lwm2m/wakaama_lwm2m/wakaama-master/core\tlv.c ****     return length;
 444:C:/Users/²Ü¼ÒºÀ/.iotlink/sdk/IoT_LINK/iot_link/network/lwm2m/wakaama_lwm2m/wakaama-master/core\tlv.c **** }
 480              		.loc 1 444 1 view .LVU155
 481 001e 2846     		mov	r0, r5
 482 0020 03B0     		add	sp, sp, #12
 483              	.LCFI6:
 484              		.cfi_remember_state
 485              		.cfi_def_cfa_offset 36
 486              		@ sp needed
 487 0022 BDE8F08F 		pop	{r4, r5, r6, r7, r8, r9, r10, fp, pc}
 488              	.LVL43:
 489              	.L38:
 490              	.LCFI7:
 491              		.cfi_restore_state
 375:C:/Users/²Ü¼ÒºÀ/.iotlink/sdk/IoT_LINK/iot_link/network/lwm2m/wakaama_lwm2m/wakaama-master/core\tlv.c ****         {
 492              		.loc 1 375 9 is_stmt 1 view .LVU156
 493 0026 2378     		ldrb	r3, [r4]	@ zero_extendqisi2
 494 0028 023B     		subs	r3, r3, #2
 495 002a 072B     		cmp	r3, #7
 496 002c 48D8     		bhi	.L39
ARM GAS  C:\Users\²Ü¼ÒºÀ\AppData\Local\Temp\ccfeMfIq.s 			page 19


 497 002e DFE803F0 		tbb	[pc, r3]
 498              	.L28:
 499 0032 04       		.byte	(.L33-.L28)/2
 500 0033 04       		.byte	(.L33-.L28)/2
 501 0034 15       		.byte	(.L32-.L28)/2
 502 0035 15       		.byte	(.L32-.L28)/2
 503 0036 1C       		.byte	(.L31-.L28)/2
 504 0037 23       		.byte	(.L30-.L28)/2
 505 0038 3A       		.byte	(.L29-.L28)/2
 506 0039 41       		.byte	(.L27-.L28)/2
 507              		.p2align 1
 508              	.L33:
 509              	.LBB16:
 380:C:/Users/²Ü¼ÒºÀ/.iotlink/sdk/IoT_LINK/iot_link/network/lwm2m/wakaama_lwm2m/wakaama-master/core\tlv.c **** 
 510              		.loc 1 380 13 view .LVU157
 382:C:/Users/²Ü¼ÒºÀ/.iotlink/sdk/IoT_LINK/iot_link/network/lwm2m/wakaama_lwm2m/wakaama-master/core\tlv.c ****             if (subLength == -1)
 511              		.loc 1 382 13 view .LVU158
 382:C:/Users/²Ü¼ÒºÀ/.iotlink/sdk/IoT_LINK/iot_link/network/lwm2m/wakaama_lwm2m/wakaama-master/core\tlv.c ****             if (subLength == -1)
 512              		.loc 1 382 25 is_stmt 0 view .LVU159
 513 003a D4E90201 		ldrd	r0, r1, [r4, #8]
 514 003e FFF7DFFF 		bl	prv_getLength
 515              	.LVL44:
 383:C:/Users/²Ü¼ÒºÀ/.iotlink/sdk/IoT_LINK/iot_link/network/lwm2m/wakaama_lwm2m/wakaama-master/core\tlv.c ****             {
 516              		.loc 1 383 16 view .LVU160
 517 0042 421C     		adds	r2, r0, #1
 382:C:/Users/²Ü¼ÒºÀ/.iotlink/sdk/IoT_LINK/iot_link/network/lwm2m/wakaama_lwm2m/wakaama-master/core\tlv.c ****             if (subLength == -1)
 518              		.loc 1 382 25 view .LVU161
 519 0044 0146     		mov	r1, r0
 520              	.LVL45:
 383:C:/Users/²Ü¼ÒºÀ/.iotlink/sdk/IoT_LINK/iot_link/network/lwm2m/wakaama_lwm2m/wakaama-master/core\tlv.c ****             {
 521              		.loc 1 383 13 is_stmt 1 view .LVU162
 383:C:/Users/²Ü¼ÒºÀ/.iotlink/sdk/IoT_LINK/iot_link/network/lwm2m/wakaama_lwm2m/wakaama-master/core\tlv.c ****             {
 522              		.loc 1 383 16 is_stmt 0 view .LVU163
 523 0046 04D0     		beq	.L26
 389:C:/Users/²Ü¼ÒºÀ/.iotlink/sdk/IoT_LINK/iot_link/network/lwm2m/wakaama_lwm2m/wakaama-master/core\tlv.c ****             }
 524              		.loc 1 389 17 is_stmt 1 view .LVU164
 389:C:/Users/²Ü¼ÒºÀ/.iotlink/sdk/IoT_LINK/iot_link/network/lwm2m/wakaama_lwm2m/wakaama-master/core\tlv.c ****             }
 525              		.loc 1 389 27 is_stmt 0 view .LVU165
 526 0048 6088     		ldrh	r0, [r4, #2]
 527              	.LVL46:
 389:C:/Users/²Ü¼ÒºÀ/.iotlink/sdk/IoT_LINK/iot_link/network/lwm2m/wakaama_lwm2m/wakaama-master/core\tlv.c ****             }
 528              		.loc 1 389 27 view .LVU166
 529 004a FFF7FEFF 		bl	prv_getHeaderLength
 530              	.LVL47:
 389:C:/Users/²Ü¼ÒºÀ/.iotlink/sdk/IoT_LINK/iot_link/network/lwm2m/wakaama_lwm2m/wakaama-master/core\tlv.c ****             }
 531              		.loc 1 389 71 view .LVU167
 532 004e 0844     		add	r0, r0, r1
 389:C:/Users/²Ü¼ÒºÀ/.iotlink/sdk/IoT_LINK/iot_link/network/lwm2m/wakaama_lwm2m/wakaama-master/core\tlv.c ****             }
 533              		.loc 1 389 24 view .LVU168
 534 0050 4119     		adds	r1, r0, r5
 535              	.LVL48:
 536              	.L26:
 389:C:/Users/²Ü¼ÒºÀ/.iotlink/sdk/IoT_LINK/iot_link/network/lwm2m/wakaama_lwm2m/wakaama-master/core\tlv.c ****             }
 537              		.loc 1 389 24 view .LVU169
 538              	.LBE16:
 373:C:/Users/²Ü¼ÒºÀ/.iotlink/sdk/IoT_LINK/iot_link/network/lwm2m/wakaama_lwm2m/wakaama-master/core\tlv.c ****     {
 539              		.loc 1 373 45 is_stmt 1 discriminator 2 view .LVU170
ARM GAS  C:\Users\²Ü¼ÒºÀ\AppData\Local\Temp\ccfeMfIq.s 			page 20


 373:C:/Users/²Ü¼ÒºÀ/.iotlink/sdk/IoT_LINK/iot_link/network/lwm2m/wakaama_lwm2m/wakaama-master/core\tlv.c ****     {
 540              		.loc 1 373 46 is_stmt 0 discriminator 2 view .LVU171
 541 0052 0AF1010A 		add	r10, r10, #1
 542              	.LVL49:
 373:C:/Users/²Ü¼ÒºÀ/.iotlink/sdk/IoT_LINK/iot_link/network/lwm2m/wakaama_lwm2m/wakaama-master/core\tlv.c ****     {
 543              		.loc 1 373 46 discriminator 2 view .LVU172
 544 0056 1034     		adds	r4, r4, #16
 545 0058 0D46     		mov	r5, r1
 546 005a DCE7     		b	.L25
 547              	.LVL50:
 548              	.L32:
 396:C:/Users/²Ü¼ÒºÀ/.iotlink/sdk/IoT_LINK/iot_link/network/lwm2m/wakaama_lwm2m/wakaama-master/core\tlv.c ****             break;
 549              		.loc 1 396 13 is_stmt 1 view .LVU173
 396:C:/Users/²Ü¼ÒºÀ/.iotlink/sdk/IoT_LINK/iot_link/network/lwm2m/wakaama_lwm2m/wakaama-master/core\tlv.c ****             break;
 550              		.loc 1 396 23 is_stmt 0 view .LVU174
 551 005c A168     		ldr	r1, [r4, #8]
 552              	.L48:
 553              	.LVL51:
 554              	.LBB17:
 405:C:/Users/²Ü¼ÒºÀ/.iotlink/sdk/IoT_LINK/iot_link/network/lwm2m/wakaama_lwm2m/wakaama-master/core\tlv.c ****         }
 555              		.loc 1 405 13 is_stmt 1 view .LVU175
 405:C:/Users/²Ü¼ÒºÀ/.iotlink/sdk/IoT_LINK/iot_link/network/lwm2m/wakaama_lwm2m/wakaama-master/core\tlv.c ****         }
 556              		.loc 1 405 23 is_stmt 0 view .LVU176
 557 005e 6088     		ldrh	r0, [r4, #2]
 558 0060 FFF7FEFF 		bl	prv_getHeaderLength
 559              	.LVL52:
 405:C:/Users/²Ü¼ÒºÀ/.iotlink/sdk/IoT_LINK/iot_link/network/lwm2m/wakaama_lwm2m/wakaama-master/core\tlv.c ****         }
 560              		.loc 1 405 20 view .LVU177
 561 0064 2944     		add	r1, r1, r5
 562              	.LVL53:
 405:C:/Users/²Ü¼ÒºÀ/.iotlink/sdk/IoT_LINK/iot_link/network/lwm2m/wakaama_lwm2m/wakaama-master/core\tlv.c ****         }
 563              		.loc 1 405 20 view .LVU178
 564 0066 0144     		add	r1, r1, r0
 565              	.LVL54:
 405:C:/Users/²Ü¼ÒºÀ/.iotlink/sdk/IoT_LINK/iot_link/network/lwm2m/wakaama_lwm2m/wakaama-master/core\tlv.c ****         }
 566              		.loc 1 405 20 view .LVU179
 567              	.LBE17:
 407:C:/Users/²Ü¼ÒºÀ/.iotlink/sdk/IoT_LINK/iot_link/network/lwm2m/wakaama_lwm2m/wakaama-master/core\tlv.c **** 
 568              		.loc 1 407 9 is_stmt 1 view .LVU180
 569 0068 F3E7     		b	.L26
 570              	.LVL55:
 571              	.L31:
 572              	.LBB18:
 401:C:/Users/²Ü¼ÒºÀ/.iotlink/sdk/IoT_LINK/iot_link/network/lwm2m/wakaama_lwm2m/wakaama-master/core\tlv.c ****             uint8_t unused_buffer[_PRV_64BIT_BUFFER_SIZE];
 573              		.loc 1 401 13 view .LVU181
 402:C:/Users/²Ü¼ÒºÀ/.iotlink/sdk/IoT_LINK/iot_link/network/lwm2m/wakaama_lwm2m/wakaama-master/core\tlv.c **** 
 574              		.loc 1 402 13 view .LVU182
 404:C:/Users/²Ü¼ÒºÀ/.iotlink/sdk/IoT_LINK/iot_link/network/lwm2m/wakaama_lwm2m/wakaama-master/core\tlv.c ****             length += prv_getHeaderLength(dataP[i].id, data_len) + data_len;
 575              		.loc 1 404 13 view .LVU183
 404:C:/Users/²Ü¼ÒºÀ/.iotlink/sdk/IoT_LINK/iot_link/network/lwm2m/wakaama_lwm2m/wakaama-master/core\tlv.c ****             length += prv_getHeaderLength(dataP[i].id, data_len) + data_len;
 576              		.loc 1 404 24 is_stmt 0 view .LVU184
 577 006a D4E90201 		ldrd	r0, [r4, #8]
 578 006e 6A46     		mov	r2, sp
 579 0070 FFF7FEFF 		bl	prv_encodeInt
 580              	.LVL56:
 581 0074 0146     		mov	r1, r0
 582 0076 F2E7     		b	.L48
ARM GAS  C:\Users\²Ü¼ÒºÀ\AppData\Local\Temp\ccfeMfIq.s 			page 21


 583              	.L30:
 584              	.LBE18:
 585              	.LBB19:
 411:C:/Users/²Ü¼ÒºÀ/.iotlink/sdk/IoT_LINK/iot_link/network/lwm2m/wakaama_lwm2m/wakaama-master/core\tlv.c **** 
 586              		.loc 1 411 13 is_stmt 1 view .LVU185
 413:C:/Users/²Ü¼ÒºÀ/.iotlink/sdk/IoT_LINK/iot_link/network/lwm2m/wakaama_lwm2m/wakaama-master/core\tlv.c ****                     || (dataP[i].value.asFloat > (double)FLT_MAX))
 587              		.loc 1 413 13 view .LVU186
 413:C:/Users/²Ü¼ÒºÀ/.iotlink/sdk/IoT_LINK/iot_link/network/lwm2m/wakaama_lwm2m/wakaama-master/core\tlv.c ****                     || (dataP[i].value.asFloat > (double)FLT_MAX))
 588              		.loc 1 413 32 is_stmt 0 view .LVU187
 589 0078 D4E90267 		ldrd	r6, [r4, #8]
 413:C:/Users/²Ü¼ÒºÀ/.iotlink/sdk/IoT_LINK/iot_link/network/lwm2m/wakaama_lwm2m/wakaama-master/core\tlv.c ****                     || (dataP[i].value.asFloat > (double)FLT_MAX))
 590              		.loc 1 413 16 view .LVU188
 591 007c 124B     		ldr	r3, .L49
 592 007e 4FF06042 		mov	r2, #-536870912
 593 0082 3046     		mov	r0, r6
 594 0084 3946     		mov	r1, r7
 595 0086 FFF7FEFF 		bl	__aeabi_dcmplt
 596              	.LVL57:
 597 008a 50B9     		cbnz	r0, .L40
 414:C:/Users/²Ü¼ÒºÀ/.iotlink/sdk/IoT_LINK/iot_link/network/lwm2m/wakaama_lwm2m/wakaama-master/core\tlv.c ****             {
 598              		.loc 1 414 21 view .LVU189
 599 008c 3946     		mov	r1, r7
 600 008e 4246     		mov	r2, r8
 601 0090 4B46     		mov	r3, r9
 602 0092 3046     		mov	r0, r6
 603 0094 FFF7FEFF 		bl	__aeabi_dcmpgt
 604              	.LVL58:
 420:C:/Users/²Ü¼ÒºÀ/.iotlink/sdk/IoT_LINK/iot_link/network/lwm2m/wakaama_lwm2m/wakaama-master/core\tlv.c ****             }
 605              		.loc 1 420 26 view .LVU190
 606 0098 0028     		cmp	r0, #0
 607 009a 14BF     		ite	ne
 608 009c 0821     		movne	r1, #8
 609 009e 0421     		moveq	r1, #4
 610 00a0 DDE7     		b	.L48
 611              	.L40:
 416:C:/Users/²Ü¼ÒºÀ/.iotlink/sdk/IoT_LINK/iot_link/network/lwm2m/wakaama_lwm2m/wakaama-master/core\tlv.c ****             }
 612              		.loc 1 416 26 view .LVU191
 613 00a2 0821     		movs	r1, #8
 614              	.LVL59:
 423:C:/Users/²Ü¼ÒºÀ/.iotlink/sdk/IoT_LINK/iot_link/network/lwm2m/wakaama_lwm2m/wakaama-master/core\tlv.c ****         }
 615              		.loc 1 423 13 is_stmt 1 view .LVU192
 616 00a4 DBE7     		b	.L48
 617              	.LVL60:
 618              	.L29:
 423:C:/Users/²Ü¼ÒºÀ/.iotlink/sdk/IoT_LINK/iot_link/network/lwm2m/wakaama_lwm2m/wakaama-master/core\tlv.c ****         }
 619              		.loc 1 423 13 is_stmt 0 view .LVU193
 620              	.LBE19:
 429:C:/Users/²Ü¼ÒºÀ/.iotlink/sdk/IoT_LINK/iot_link/network/lwm2m/wakaama_lwm2m/wakaama-master/core\tlv.c ****             break;
 621              		.loc 1 429 13 is_stmt 1 view .LVU194
 622              	.LBB20:
 623              	.LBI20:
 151:C:/Users/²Ü¼ÒºÀ/.iotlink/sdk/IoT_LINK/iot_link/network/lwm2m/wakaama_lwm2m/wakaama-master/core\tlv.c ****                                size_t dataLen)
 624              		.loc 1 151 12 view .LVU195
 625              	.LBB21:
 154:C:/Users/²Ü¼ÒºÀ/.iotlink/sdk/IoT_LINK/iot_link/network/lwm2m/wakaama_lwm2m/wakaama-master/core\tlv.c **** 
 626              		.loc 1 154 5 view .LVU196
 156:C:/Users/²Ü¼ÒºÀ/.iotlink/sdk/IoT_LINK/iot_link/network/lwm2m/wakaama_lwm2m/wakaama-master/core\tlv.c **** 
ARM GAS  C:\Users\²Ü¼ÒºÀ\AppData\Local\Temp\ccfeMfIq.s 			page 22


 627              		.loc 1 156 5 view .LVU197
 158:C:/Users/²Ü¼ÒºÀ/.iotlink/sdk/IoT_LINK/iot_link/network/lwm2m/wakaama_lwm2m/wakaama-master/core\tlv.c ****     {
 628              		.loc 1 158 5 view .LVU198
 158:C:/Users/²Ü¼ÒºÀ/.iotlink/sdk/IoT_LINK/iot_link/network/lwm2m/wakaama_lwm2m/wakaama-master/core\tlv.c ****     {
 629              		.loc 1 158 8 is_stmt 0 view .LVU199
 630 00a6 6188     		ldrh	r1, [r4, #2]
 631              	.LVL61:
 163:C:/Users/²Ü¼ÒºÀ/.iotlink/sdk/IoT_LINK/iot_link/network/lwm2m/wakaama_lwm2m/wakaama-master/core\tlv.c ****     {
 632              		.loc 1 163 5 is_stmt 1 view .LVU200
 167:C:/Users/²Ü¼ÒºÀ/.iotlink/sdk/IoT_LINK/iot_link/network/lwm2m/wakaama_lwm2m/wakaama-master/core\tlv.c ****     {
 633              		.loc 1 167 10 view .LVU201
 171:C:/Users/²Ü¼ÒºÀ/.iotlink/sdk/IoT_LINK/iot_link/network/lwm2m/wakaama_lwm2m/wakaama-master/core\tlv.c ****     {
 634              		.loc 1 171 10 view .LVU202
 176:C:/Users/²Ü¼ÒºÀ/.iotlink/sdk/IoT_LINK/iot_link/network/lwm2m/wakaama_lwm2m/wakaama-master/core\tlv.c **** }
 635              		.loc 1 176 5 view .LVU203
 176:C:/Users/²Ü¼ÒºÀ/.iotlink/sdk/IoT_LINK/iot_link/network/lwm2m/wakaama_lwm2m/wakaama-master/core\tlv.c **** }
 636              		.loc 1 176 5 is_stmt 0 view .LVU204
 637              	.LBE21:
 638              	.LBE20:
 429:C:/Users/²Ü¼ÒºÀ/.iotlink/sdk/IoT_LINK/iot_link/network/lwm2m/wakaama_lwm2m/wakaama-master/core\tlv.c ****             break;
 639              		.loc 1 429 59 view .LVU205
 640 00a8 FF29     		cmp	r1, #255
 641 00aa 94BF     		ite	ls
 642 00ac 0321     		movls	r1, #3
 643 00ae 0421     		movhi	r1, #4
 644              	.L47:
 434:C:/Users/²Ü¼ÒºÀ/.iotlink/sdk/IoT_LINK/iot_link/network/lwm2m/wakaama_lwm2m/wakaama-master/core\tlv.c ****             break;
 645              		.loc 1 434 20 view .LVU206
 646 00b0 2944     		add	r1, r1, r5
 647              	.LVL62:
 435:C:/Users/²Ü¼ÒºÀ/.iotlink/sdk/IoT_LINK/iot_link/network/lwm2m/wakaama_lwm2m/wakaama-master/core\tlv.c **** 
 648              		.loc 1 435 13 is_stmt 1 view .LVU207
 649 00b2 CEE7     		b	.L26
 650              	.LVL63:
 651              	.L27:
 434:C:/Users/²Ü¼ÒºÀ/.iotlink/sdk/IoT_LINK/iot_link/network/lwm2m/wakaama_lwm2m/wakaama-master/core\tlv.c ****             break;
 652              		.loc 1 434 13 view .LVU208
 653              	.LBB22:
 654              	.LBI22:
 151:C:/Users/²Ü¼ÒºÀ/.iotlink/sdk/IoT_LINK/iot_link/network/lwm2m/wakaama_lwm2m/wakaama-master/core\tlv.c ****                                size_t dataLen)
 655              		.loc 1 151 12 view .LVU209
 656              	.LBB23:
 154:C:/Users/²Ü¼ÒºÀ/.iotlink/sdk/IoT_LINK/iot_link/network/lwm2m/wakaama_lwm2m/wakaama-master/core\tlv.c **** 
 657              		.loc 1 154 5 view .LVU210
 156:C:/Users/²Ü¼ÒºÀ/.iotlink/sdk/IoT_LINK/iot_link/network/lwm2m/wakaama_lwm2m/wakaama-master/core\tlv.c **** 
 658              		.loc 1 156 5 view .LVU211
 158:C:/Users/²Ü¼ÒºÀ/.iotlink/sdk/IoT_LINK/iot_link/network/lwm2m/wakaama_lwm2m/wakaama-master/core\tlv.c ****     {
 659              		.loc 1 158 5 view .LVU212
 158:C:/Users/²Ü¼ÒºÀ/.iotlink/sdk/IoT_LINK/iot_link/network/lwm2m/wakaama_lwm2m/wakaama-master/core\tlv.c ****     {
 660              		.loc 1 158 8 is_stmt 0 view .LVU213
 661 00b4 6188     		ldrh	r1, [r4, #2]
 662              	.LVL64:
 163:C:/Users/²Ü¼ÒºÀ/.iotlink/sdk/IoT_LINK/iot_link/network/lwm2m/wakaama_lwm2m/wakaama-master/core\tlv.c ****     {
 663              		.loc 1 163 5 is_stmt 1 view .LVU214
 167:C:/Users/²Ü¼ÒºÀ/.iotlink/sdk/IoT_LINK/iot_link/network/lwm2m/wakaama_lwm2m/wakaama-master/core\tlv.c ****     {
 664              		.loc 1 167 10 view .LVU215
 171:C:/Users/²Ü¼ÒºÀ/.iotlink/sdk/IoT_LINK/iot_link/network/lwm2m/wakaama_lwm2m/wakaama-master/core\tlv.c ****     {
ARM GAS  C:\Users\²Ü¼ÒºÀ\AppData\Local\Temp\ccfeMfIq.s 			page 23


 665              		.loc 1 171 10 view .LVU216
 176:C:/Users/²Ü¼ÒºÀ/.iotlink/sdk/IoT_LINK/iot_link/network/lwm2m/wakaama_lwm2m/wakaama-master/core\tlv.c **** }
 666              		.loc 1 176 5 view .LVU217
 176:C:/Users/²Ü¼ÒºÀ/.iotlink/sdk/IoT_LINK/iot_link/network/lwm2m/wakaama_lwm2m/wakaama-master/core\tlv.c **** }
 667              		.loc 1 176 5 is_stmt 0 view .LVU218
 668              	.LBE23:
 669              	.LBE22:
 434:C:/Users/²Ü¼ÒºÀ/.iotlink/sdk/IoT_LINK/iot_link/network/lwm2m/wakaama_lwm2m/wakaama-master/core\tlv.c ****             break;
 670              		.loc 1 434 59 view .LVU219
 671 00b6 FF29     		cmp	r1, #255
 672 00b8 94BF     		ite	ls
 673 00ba 0621     		movls	r1, #6
 674 00bc 0721     		movhi	r1, #7
 675 00be F7E7     		b	.L47
 676              	.L39:
 375:C:/Users/²Ü¼ÒºÀ/.iotlink/sdk/IoT_LINK/iot_link/network/lwm2m/wakaama_lwm2m/wakaama-master/core\tlv.c ****         {
 677              		.loc 1 375 25 view .LVU220
 678 00c0 4FF0FF31 		mov	r1, #-1
 679 00c4 C5E7     		b	.L26
 680              	.L50:
 681 00c6 00BF     		.align	2
 682              	.L49:
 683 00c8 FFFFEFC7 		.word	-940572673
 684 00cc FFFFEF47 		.word	1206910975
 685              		.cfi_endproc
 686              	.LFE12:
 688              		.section	.rodata.lwm2m_decode_TLV.str1.1,"aMS",%progbits,1
 689              	.LC0:
 690 0000 5B25735D 		.ascii	"[%s][%u][%s] [%d][%s:%d] buffer_len: %d\015\012\015"
 690      5B25755D 
 690      5B25735D 
 690      205B2564 
 690      5D5B2573 
 691 002a 0A00     		.ascii	"\012\000"
 692              		.section	.text.lwm2m_decode_TLV,"ax",%progbits
 693              		.align	1
 694              		.global	lwm2m_decode_TLV
 695              		.syntax unified
 696              		.thumb
 697              		.thumb_func
 698              		.fpu fpv4-sp-d16
 700              	lwm2m_decode_TLV:
 701              	.LVL65:
 702              	.LFB10:
 246:C:/Users/²Ü¼ÒºÀ/.iotlink/sdk/IoT_LINK/iot_link/network/lwm2m/wakaama_lwm2m/wakaama-master/core\tlv.c **** 
 703              		.loc 1 246 1 is_stmt 1 view -0
 704              		.cfi_startproc
 705              		@ args = 8, pretend = 0, frame = 8
 706              		@ frame_needed = 0, uses_anonymous_args = 0
 248:C:/Users/²Ü¼ÒºÀ/.iotlink/sdk/IoT_LINK/iot_link/network/lwm2m/wakaama_lwm2m/wakaama-master/core\tlv.c ****     ;
 707              		.loc 1 248 5 view .LVU222
 248:C:/Users/²Ü¼ÒºÀ/.iotlink/sdk/IoT_LINK/iot_link/network/lwm2m/wakaama_lwm2m/wakaama-master/core\tlv.c ****     ;
 708              		.loc 1 248 5 view .LVU223
 246:C:/Users/²Ü¼ÒºÀ/.iotlink/sdk/IoT_LINK/iot_link/network/lwm2m/wakaama_lwm2m/wakaama-master/core\tlv.c **** 
 709              		.loc 1 246 1 is_stmt 0 view .LVU224
 710 0000 2DE9F047 		push	{r4, r5, r6, r7, r8, r9, r10, lr}
 711              	.LCFI8:
ARM GAS  C:\Users\²Ü¼ÒºÀ\AppData\Local\Temp\ccfeMfIq.s 			page 24


 712              		.cfi_def_cfa_offset 32
 713              		.cfi_offset 4, -32
 714              		.cfi_offset 5, -28
 715              		.cfi_offset 6, -24
 716              		.cfi_offset 7, -20
 717              		.cfi_offset 8, -16
 718              		.cfi_offset 9, -12
 719              		.cfi_offset 10, -8
 720              		.cfi_offset 14, -4
 721 0004 86B0     		sub	sp, sp, #24
 722              	.LCFI9:
 723              		.cfi_def_cfa_offset 56
 246:C:/Users/²Ü¼ÒºÀ/.iotlink/sdk/IoT_LINK/iot_link/network/lwm2m/wakaama_lwm2m/wakaama-master/core\tlv.c **** 
 724              		.loc 1 246 1 view .LVU225
 725 0006 DDE90E47 		ldrd	r4, r7, [sp, #56]
 726 000a 0546     		mov	r5, r0
 727 000c 0E46     		mov	r6, r1
 728 000e 9146     		mov	r9, r2
 729 0010 9846     		mov	r8, r3
 248:C:/Users/²Ü¼ÒºÀ/.iotlink/sdk/IoT_LINK/iot_link/network/lwm2m/wakaama_lwm2m/wakaama-master/core\tlv.c ****     ;
 730              		.loc 1 248 5 view .LVU226
 731 0012 FFF7FEFF 		bl	link_log_level_get
 732              	.LVL66:
 248:C:/Users/²Ü¼ÒºÀ/.iotlink/sdk/IoT_LINK/iot_link/network/lwm2m/wakaama_lwm2m/wakaama-master/core\tlv.c ****     ;
 733              		.loc 1 248 5 view .LVU227
 734 0016 0128     		cmp	r0, #1
 735 0018 19D8     		bhi	.L52
 248:C:/Users/²Ü¼ÒºÀ/.iotlink/sdk/IoT_LINK/iot_link/network/lwm2m/wakaama_lwm2m/wakaama-master/core\tlv.c ****     ;
 736              		.loc 1 248 5 is_stmt 1 discriminator 1 view .LVU228
 248:C:/Users/²Ü¼ÒºÀ/.iotlink/sdk/IoT_LINK/iot_link/network/lwm2m/wakaama_lwm2m/wakaama-master/core\tlv.c ****     ;
 737              		.loc 1 248 5 discriminator 1 view .LVU229
 248:C:/Users/²Ü¼ÒºÀ/.iotlink/sdk/IoT_LINK/iot_link/network/lwm2m/wakaama_lwm2m/wakaama-master/core\tlv.c ****     ;
 738              		.loc 1 248 5 discriminator 1 view .LVU230
 739 001a 0120     		movs	r0, #1
 740 001c FFF7FEFF 		bl	link_log_level_name
 741              	.LVL67:
 742 0020 8246     		mov	r10, r0
 743 0022 FFF7FEFF 		bl	osal_sys_time
 744              	.LVL68:
 745 0026 0590     		str	r0, [sp, #20]
 746 0028 FFF7FEFF 		bl	lwm2m_gettime
 747              	.LVL69:
 748 002c F823     		movs	r3, #248
 749 002e 0293     		str	r3, [sp, #8]
 750 0030 3B4B     		ldr	r3, .L76
 751 0032 059A     		ldr	r2, [sp, #20]
 752 0034 0396     		str	r6, [sp, #12]
 753 0036 CDE90003 		strd	r0, r3, [sp]
 754 003a 5146     		mov	r1, r10
 755 003c 394B     		ldr	r3, .L76+4
 756 003e 3A48     		ldr	r0, .L76+8
 757 0040 FFF7FEFF 		bl	printf
 758              	.LVL70:
 248:C:/Users/²Ü¼ÒºÀ/.iotlink/sdk/IoT_LINK/iot_link/network/lwm2m/wakaama_lwm2m/wakaama-master/core\tlv.c ****     ;
 759              		.loc 1 248 5 discriminator 1 view .LVU231
 760 0044 394B     		ldr	r3, .L76+12
 761 0046 1B68     		ldr	r3, [r3]
ARM GAS  C:\Users\²Ü¼ÒºÀ\AppData\Local\Temp\ccfeMfIq.s 			page 25


 762 0048 9868     		ldr	r0, [r3, #8]
 763 004a FFF7FEFF 		bl	fflush
 764              	.LVL71:
 765              	.L52:
 248:C:/Users/²Ü¼ÒºÀ/.iotlink/sdk/IoT_LINK/iot_link/network/lwm2m/wakaama_lwm2m/wakaama-master/core\tlv.c ****     ;
 766              		.loc 1 248 5 discriminator 3 view .LVU232
 248:C:/Users/²Ü¼ÒºÀ/.iotlink/sdk/IoT_LINK/iot_link/network/lwm2m/wakaama_lwm2m/wakaama-master/core\tlv.c ****     ;
 767              		.loc 1 248 5 discriminator 3 view .LVU233
 248:C:/Users/²Ü¼ÒºÀ/.iotlink/sdk/IoT_LINK/iot_link/network/lwm2m/wakaama_lwm2m/wakaama-master/core\tlv.c ****     ;
 768              		.loc 1 248 5 discriminator 3 view .LVU234
 249:C:/Users/²Ü¼ÒºÀ/.iotlink/sdk/IoT_LINK/iot_link/network/lwm2m/wakaama_lwm2m/wakaama-master/core\tlv.c ****     if (buffer_len < 2) return 0;
 769              		.loc 1 249 5 discriminator 3 view .LVU235
 250:C:/Users/²Ü¼ÒºÀ/.iotlink/sdk/IoT_LINK/iot_link/network/lwm2m/wakaama_lwm2m/wakaama-master/core\tlv.c **** 
 770              		.loc 1 250 5 discriminator 3 view .LVU236
 250:C:/Users/²Ü¼ÒºÀ/.iotlink/sdk/IoT_LINK/iot_link/network/lwm2m/wakaama_lwm2m/wakaama-master/core\tlv.c **** 
 771              		.loc 1 250 8 is_stmt 0 discriminator 3 view .LVU237
 772 004e 012E     		cmp	r6, #1
 773 0050 03D8     		bhi	.L53
 774              	.L75:
 269:C:/Users/²Ü¼ÒºÀ/.iotlink/sdk/IoT_LINK/iot_link/network/lwm2m/wakaama_lwm2m/wakaama-master/core\tlv.c ****     {
 775              		.loc 1 269 5 view .LVU238
 776 0052 0020     		movs	r0, #0
 777              	.L51:
 301:C:/Users/²Ü¼ÒºÀ/.iotlink/sdk/IoT_LINK/iot_link/network/lwm2m/wakaama_lwm2m/wakaama-master/core\tlv.c **** 
 778              		.loc 1 301 1 view .LVU239
 779 0054 06B0     		add	sp, sp, #24
 780              	.LCFI10:
 781              		.cfi_remember_state
 782              		.cfi_def_cfa_offset 32
 783              		@ sp needed
 784 0056 BDE8F087 		pop	{r4, r5, r6, r7, r8, r9, r10, pc}
 785              	.LVL72:
 786              	.L53:
 787              	.LCFI11:
 788              		.cfi_restore_state
 252:C:/Users/²Ü¼ÒºÀ/.iotlink/sdk/IoT_LINK/iot_link/network/lwm2m/wakaama_lwm2m/wakaama-master/core\tlv.c **** 
 789              		.loc 1 252 5 is_stmt 1 view .LVU240
 252:C:/Users/²Ü¼ÒºÀ/.iotlink/sdk/IoT_LINK/iot_link/network/lwm2m/wakaama_lwm2m/wakaama-master/core\tlv.c **** 
 790              		.loc 1 252 17 is_stmt 0 view .LVU241
 791 005a 0223     		movs	r3, #2
 792 005c 2360     		str	r3, [r4]
 254:C:/Users/²Ü¼ÒºÀ/.iotlink/sdk/IoT_LINK/iot_link/network/lwm2m/wakaama_lwm2m/wakaama-master/core\tlv.c **** 
 793              		.loc 1 254 5 is_stmt 1 view .LVU242
 254:C:/Users/²Ü¼ÒºÀ/.iotlink/sdk/IoT_LINK/iot_link/network/lwm2m/wakaama_lwm2m/wakaama-master/core\tlv.c **** 
 794              		.loc 1 254 14 is_stmt 0 view .LVU243
 795 005e 2978     		ldrb	r1, [r5]	@ zero_extendqisi2
 796 0060 01F0C001 		and	r1, r1, #192
 797              	.LVL73:
 798              	.LBB26:
 799              	.LBI26:
 129:C:/Users/²Ü¼ÒºÀ/.iotlink/sdk/IoT_LINK/iot_link/network/lwm2m/wakaama_lwm2m/wakaama-master/core\tlv.c **** {
 800              		.loc 1 129 26 is_stmt 1 view .LVU244
 801              	.LBB27:
 131:C:/Users/²Ü¼ÒºÀ/.iotlink/sdk/IoT_LINK/iot_link/network/lwm2m/wakaama_lwm2m/wakaama-master/core\tlv.c ****     {
 802              		.loc 1 131 5 view .LVU245
 803 0064 4029     		cmp	r1, #64
 804 0066 2DD0     		beq	.L66
ARM GAS  C:\Users\²Ü¼ÒºÀ\AppData\Local\Temp\ccfeMfIq.s 			page 26


 805 0068 25D8     		bhi	.L56
 806 006a 0029     		cmp	r1, #0
 807 006c 18BF     		it	ne
 808 006e 0023     		movne	r3, #0
 809              	.L55:
 810              	.LVL74:
 131:C:/Users/²Ü¼ÒºÀ/.iotlink/sdk/IoT_LINK/iot_link/network/lwm2m/wakaama_lwm2m/wakaama-master/core\tlv.c ****     {
 811              		.loc 1 131 5 is_stmt 0 view .LVU246
 812              	.LBE27:
 813              	.LBE26:
 254:C:/Users/²Ü¼ÒºÀ/.iotlink/sdk/IoT_LINK/iot_link/network/lwm2m/wakaama_lwm2m/wakaama-master/core\tlv.c **** 
 814              		.loc 1 254 12 view .LVU247
 815 0070 89F80030 		strb	r3, [r9]
 256:C:/Users/²Ü¼ÒºÀ/.iotlink/sdk/IoT_LINK/iot_link/network/lwm2m/wakaama_lwm2m/wakaama-master/core\tlv.c ****     {
 816              		.loc 1 256 5 is_stmt 1 view .LVU248
 256:C:/Users/²Ü¼ÒºÀ/.iotlink/sdk/IoT_LINK/iot_link/network/lwm2m/wakaama_lwm2m/wakaama-master/core\tlv.c ****     {
 817              		.loc 1 256 8 is_stmt 0 view .LVU249
 818 0074 2B78     		ldrb	r3, [r5]	@ zero_extendqisi2
 819 0076 9B06     		lsls	r3, r3, #26
 820 0078 28D5     		bpl	.L57
 259:C:/Users/²Ü¼ÒºÀ/.iotlink/sdk/IoT_LINK/iot_link/network/lwm2m/wakaama_lwm2m/wakaama-master/core\tlv.c ****         *oDataIndex += 1;
 821              		.loc 1 259 9 is_stmt 1 view .LVU250
 259:C:/Users/²Ü¼ÒºÀ/.iotlink/sdk/IoT_LINK/iot_link/network/lwm2m/wakaama_lwm2m/wakaama-master/core\tlv.c ****         *oDataIndex += 1;
 822              		.loc 1 259 12 is_stmt 0 view .LVU251
 823 007a 022E     		cmp	r6, #2
 824 007c E9D0     		beq	.L75
 260:C:/Users/²Ü¼ÒºÀ/.iotlink/sdk/IoT_LINK/iot_link/network/lwm2m/wakaama_lwm2m/wakaama-master/core\tlv.c ****         *oID = (buffer[1] << 8) + buffer[2];
 825              		.loc 1 260 9 is_stmt 1 view .LVU252
 260:C:/Users/²Ü¼ÒºÀ/.iotlink/sdk/IoT_LINK/iot_link/network/lwm2m/wakaama_lwm2m/wakaama-master/core\tlv.c ****         *oID = (buffer[1] << 8) + buffer[2];
 826              		.loc 1 260 21 is_stmt 0 view .LVU253
 827 007e 2368     		ldr	r3, [r4]
 828 0080 0133     		adds	r3, r3, #1
 829 0082 2360     		str	r3, [r4]
 261:C:/Users/²Ü¼ÒºÀ/.iotlink/sdk/IoT_LINK/iot_link/network/lwm2m/wakaama_lwm2m/wakaama-master/core\tlv.c ****     }
 830              		.loc 1 261 9 is_stmt 1 view .LVU254
 261:C:/Users/²Ü¼ÒºÀ/.iotlink/sdk/IoT_LINK/iot_link/network/lwm2m/wakaama_lwm2m/wakaama-master/core\tlv.c ****     }
 831              		.loc 1 261 23 is_stmt 0 view .LVU255
 832 0084 6A78     		ldrb	r2, [r5, #1]	@ zero_extendqisi2
 261:C:/Users/²Ü¼ÒºÀ/.iotlink/sdk/IoT_LINK/iot_link/network/lwm2m/wakaama_lwm2m/wakaama-master/core\tlv.c ****     }
 833              		.loc 1 261 41 view .LVU256
 834 0086 AB78     		ldrb	r3, [r5, #2]	@ zero_extendqisi2
 261:C:/Users/²Ü¼ÒºÀ/.iotlink/sdk/IoT_LINK/iot_link/network/lwm2m/wakaama_lwm2m/wakaama-master/core\tlv.c ****     }
 835              		.loc 1 261 33 view .LVU257
 836 0088 03EB0223 		add	r3, r3, r2, lsl #8
 837              	.L73:
 266:C:/Users/²Ü¼ÒºÀ/.iotlink/sdk/IoT_LINK/iot_link/network/lwm2m/wakaama_lwm2m/wakaama-master/core\tlv.c ****     }
 838              		.loc 1 266 22 view .LVU258
 839 008c A8F80030 		strh	r3, [r8]	@ movhi
 269:C:/Users/²Ü¼ÒºÀ/.iotlink/sdk/IoT_LINK/iot_link/network/lwm2m/wakaama_lwm2m/wakaama-master/core\tlv.c ****     {
 840              		.loc 1 269 5 is_stmt 1 view .LVU259
 269:C:/Users/²Ü¼ÒºÀ/.iotlink/sdk/IoT_LINK/iot_link/network/lwm2m/wakaama_lwm2m/wakaama-master/core\tlv.c ****     {
 841              		.loc 1 269 19 is_stmt 0 view .LVU260
 842 0090 2B78     		ldrb	r3, [r5]	@ zero_extendqisi2
 843 0092 03F01802 		and	r2, r3, #24
 269:C:/Users/²Ü¼ÒºÀ/.iotlink/sdk/IoT_LINK/iot_link/network/lwm2m/wakaama_lwm2m/wakaama-master/core\tlv.c ****     {
 844              		.loc 1 269 5 view .LVU261
 845 0096 102A     		cmp	r2, #16
ARM GAS  C:\Users\²Ü¼ÒºÀ\AppData\Local\Temp\ccfeMfIq.s 			page 27


 846 0098 35D0     		beq	.L60
 847 009a 19D8     		bhi	.L61
 848 009c 52B3     		cbz	r2, .L62
 849 009e 082A     		cmp	r2, #8
 850 00a0 D7D1     		bne	.L75
 277:C:/Users/²Ü¼ÒºÀ/.iotlink/sdk/IoT_LINK/iot_link/network/lwm2m/wakaama_lwm2m/wakaama-master/core\tlv.c ****         *oDataLen = buffer[*oDataIndex];
 851              		.loc 1 277 9 is_stmt 1 view .LVU262
 277:C:/Users/²Ü¼ÒºÀ/.iotlink/sdk/IoT_LINK/iot_link/network/lwm2m/wakaama_lwm2m/wakaama-master/core\tlv.c ****         *oDataLen = buffer[*oDataIndex];
 852              		.loc 1 277 26 is_stmt 0 view .LVU263
 853 00a2 2368     		ldr	r3, [r4]
 277:C:/Users/²Ü¼ÒºÀ/.iotlink/sdk/IoT_LINK/iot_link/network/lwm2m/wakaama_lwm2m/wakaama-master/core\tlv.c ****         *oDataLen = buffer[*oDataIndex];
 854              		.loc 1 277 38 view .LVU264
 855 00a4 5A1C     		adds	r2, r3, #1
 277:C:/Users/²Ü¼ÒºÀ/.iotlink/sdk/IoT_LINK/iot_link/network/lwm2m/wakaama_lwm2m/wakaama-master/core\tlv.c ****         *oDataLen = buffer[*oDataIndex];
 856              		.loc 1 277 12 view .LVU265
 857 00a6 B242     		cmp	r2, r6
 858 00a8 D3D8     		bhi	.L75
 278:C:/Users/²Ü¼ÒºÀ/.iotlink/sdk/IoT_LINK/iot_link/network/lwm2m/wakaama_lwm2m/wakaama-master/core\tlv.c ****         *oDataIndex += 1;
 859              		.loc 1 278 9 is_stmt 1 view .LVU266
 278:C:/Users/²Ü¼ÒºÀ/.iotlink/sdk/IoT_LINK/iot_link/network/lwm2m/wakaama_lwm2m/wakaama-master/core\tlv.c ****         *oDataIndex += 1;
 860              		.loc 1 278 27 is_stmt 0 view .LVU267
 861 00aa EB5C     		ldrb	r3, [r5, r3]	@ zero_extendqisi2
 862 00ac 3B60     		str	r3, [r7]
 279:C:/Users/²Ü¼ÒºÀ/.iotlink/sdk/IoT_LINK/iot_link/network/lwm2m/wakaama_lwm2m/wakaama-master/core\tlv.c ****         break;
 863              		.loc 1 279 9 is_stmt 1 view .LVU268
 279:C:/Users/²Ü¼ÒºÀ/.iotlink/sdk/IoT_LINK/iot_link/network/lwm2m/wakaama_lwm2m/wakaama-master/core\tlv.c ****         break;
 864              		.loc 1 279 21 is_stmt 0 view .LVU269
 865 00ae 2368     		ldr	r3, [r4]
 866 00b0 0133     		adds	r3, r3, #1
 867              	.L74:
 291:C:/Users/²Ü¼ÒºÀ/.iotlink/sdk/IoT_LINK/iot_link/network/lwm2m/wakaama_lwm2m/wakaama-master/core\tlv.c ****         break;
 868              		.loc 1 291 21 view .LVU270
 869 00b2 2360     		str	r3, [r4]
 292:C:/Users/²Ü¼ÒºÀ/.iotlink/sdk/IoT_LINK/iot_link/network/lwm2m/wakaama_lwm2m/wakaama-master/core\tlv.c ****     default:
 870              		.loc 1 292 9 is_stmt 1 view .LVU271
 871 00b4 21E0     		b	.L65
 872              	.LVL75:
 873              	.L56:
 874              	.LBB29:
 875              	.LBB28:
 131:C:/Users/²Ü¼ÒºÀ/.iotlink/sdk/IoT_LINK/iot_link/network/lwm2m/wakaama_lwm2m/wakaama-master/core\tlv.c ****     {
 876              		.loc 1 131 5 is_stmt 0 view .LVU272
 877 00b6 8029     		cmp	r1, #128
 878 00b8 06D0     		beq	.L68
 144:C:/Users/²Ü¼ÒºÀ/.iotlink/sdk/IoT_LINK/iot_link/network/lwm2m/wakaama_lwm2m/wakaama-master/core\tlv.c **** 
 879              		.loc 1 144 16 view .LVU273
 880 00ba C029     		cmp	r1, #192
 881 00bc 14BF     		ite	ne
 882 00be 0023     		movne	r3, #0
 883 00c0 0523     		moveq	r3, #5
 884 00c2 D5E7     		b	.L55
 885              	.L66:
 886 00c4 0523     		movs	r3, #5
 887 00c6 D3E7     		b	.L55
 888              	.L68:
 140:C:/Users/²Ü¼ÒºÀ/.iotlink/sdk/IoT_LINK/iot_link/network/lwm2m/wakaama_lwm2m/wakaama-master/core\tlv.c **** 
 889              		.loc 1 140 16 view .LVU274
ARM GAS  C:\Users\²Ü¼ÒºÀ\AppData\Local\Temp\ccfeMfIq.s 			page 28


 890 00c8 0323     		movs	r3, #3
 891 00ca D1E7     		b	.L55
 892              	.LVL76:
 893              	.L57:
 140:C:/Users/²Ü¼ÒºÀ/.iotlink/sdk/IoT_LINK/iot_link/network/lwm2m/wakaama_lwm2m/wakaama-master/core\tlv.c **** 
 894              		.loc 1 140 16 view .LVU275
 895              	.LBE28:
 896              	.LBE29:
 266:C:/Users/²Ü¼ÒºÀ/.iotlink/sdk/IoT_LINK/iot_link/network/lwm2m/wakaama_lwm2m/wakaama-master/core\tlv.c ****     }
 897              		.loc 1 266 9 is_stmt 1 view .LVU276
 266:C:/Users/²Ü¼ÒºÀ/.iotlink/sdk/IoT_LINK/iot_link/network/lwm2m/wakaama_lwm2m/wakaama-master/core\tlv.c ****     }
 898              		.loc 1 266 22 is_stmt 0 view .LVU277
 899 00cc 6B78     		ldrb	r3, [r5, #1]	@ zero_extendqisi2
 900 00ce DDE7     		b	.L73
 901              	.L61:
 269:C:/Users/²Ü¼ÒºÀ/.iotlink/sdk/IoT_LINK/iot_link/network/lwm2m/wakaama_lwm2m/wakaama-master/core\tlv.c ****     {
 902              		.loc 1 269 5 view .LVU278
 903 00d0 182A     		cmp	r2, #24
 904 00d2 BED1     		bne	.L75
 289:C:/Users/²Ü¼ÒºÀ/.iotlink/sdk/IoT_LINK/iot_link/network/lwm2m/wakaama_lwm2m/wakaama-master/core\tlv.c ****         *oDataLen = (buffer[*oDataIndex] << 16) + (buffer[*oDataIndex + 1] << 8) + buffer[*oDataInd
 905              		.loc 1 289 9 is_stmt 1 view .LVU279
 289:C:/Users/²Ü¼ÒºÀ/.iotlink/sdk/IoT_LINK/iot_link/network/lwm2m/wakaama_lwm2m/wakaama-master/core\tlv.c ****         *oDataLen = (buffer[*oDataIndex] << 16) + (buffer[*oDataIndex + 1] << 8) + buffer[*oDataInd
 906              		.loc 1 289 26 is_stmt 0 view .LVU280
 907 00d4 2268     		ldr	r2, [r4]
 289:C:/Users/²Ü¼ÒºÀ/.iotlink/sdk/IoT_LINK/iot_link/network/lwm2m/wakaama_lwm2m/wakaama-master/core\tlv.c ****         *oDataLen = (buffer[*oDataIndex] << 16) + (buffer[*oDataIndex + 1] << 8) + buffer[*oDataInd
 908              		.loc 1 289 38 view .LVU281
 909 00d6 D31C     		adds	r3, r2, #3
 289:C:/Users/²Ü¼ÒºÀ/.iotlink/sdk/IoT_LINK/iot_link/network/lwm2m/wakaama_lwm2m/wakaama-master/core\tlv.c ****         *oDataLen = (buffer[*oDataIndex] << 16) + (buffer[*oDataIndex + 1] << 8) + buffer[*oDataInd
 910              		.loc 1 289 12 view .LVU282
 911 00d8 B342     		cmp	r3, r6
 912 00da BAD8     		bhi	.L75
 290:C:/Users/²Ü¼ÒºÀ/.iotlink/sdk/IoT_LINK/iot_link/network/lwm2m/wakaama_lwm2m/wakaama-master/core\tlv.c ****         *oDataIndex += 3;
 913              		.loc 1 290 9 is_stmt 1 view .LVU283
 290:C:/Users/²Ü¼ÒºÀ/.iotlink/sdk/IoT_LINK/iot_link/network/lwm2m/wakaama_lwm2m/wakaama-master/core\tlv.c ****         *oDataIndex += 3;
 914              		.loc 1 290 58 is_stmt 0 view .LVU284
 915 00dc A918     		adds	r1, r5, r2
 290:C:/Users/²Ü¼ÒºÀ/.iotlink/sdk/IoT_LINK/iot_link/network/lwm2m/wakaama_lwm2m/wakaama-master/core\tlv.c ****         *oDataIndex += 3;
 916              		.loc 1 290 28 view .LVU285
 917 00de AB5C     		ldrb	r3, [r5, r2]	@ zero_extendqisi2
 290:C:/Users/²Ü¼ÒºÀ/.iotlink/sdk/IoT_LINK/iot_link/network/lwm2m/wakaama_lwm2m/wakaama-master/core\tlv.c ****         *oDataIndex += 3;
 918              		.loc 1 290 58 view .LVU286
 919 00e0 4878     		ldrb	r0, [r1, #1]	@ zero_extendqisi2
 290:C:/Users/²Ü¼ÒºÀ/.iotlink/sdk/IoT_LINK/iot_link/network/lwm2m/wakaama_lwm2m/wakaama-master/core\tlv.c ****         *oDataIndex += 3;
 920              		.loc 1 290 90 view .LVU287
 921 00e2 8A78     		ldrb	r2, [r1, #2]	@ zero_extendqisi2
 290:C:/Users/²Ü¼ÒºÀ/.iotlink/sdk/IoT_LINK/iot_link/network/lwm2m/wakaama_lwm2m/wakaama-master/core\tlv.c ****         *oDataIndex += 3;
 922              		.loc 1 290 42 view .LVU288
 923 00e4 1B04     		lsls	r3, r3, #16
 290:C:/Users/²Ü¼ÒºÀ/.iotlink/sdk/IoT_LINK/iot_link/network/lwm2m/wakaama_lwm2m/wakaama-master/core\tlv.c ****         *oDataIndex += 3;
 924              		.loc 1 290 49 view .LVU289
 925 00e6 03EB0023 		add	r3, r3, r0, lsl #8
 290:C:/Users/²Ü¼ÒºÀ/.iotlink/sdk/IoT_LINK/iot_link/network/lwm2m/wakaama_lwm2m/wakaama-master/core\tlv.c ****         *oDataIndex += 3;
 926              		.loc 1 290 82 view .LVU290
 927 00ea 1344     		add	r3, r3, r2
 290:C:/Users/²Ü¼ÒºÀ/.iotlink/sdk/IoT_LINK/iot_link/network/lwm2m/wakaama_lwm2m/wakaama-master/core\tlv.c ****         *oDataIndex += 3;
 928              		.loc 1 290 19 view .LVU291
 929 00ec 3B60     		str	r3, [r7]
ARM GAS  C:\Users\²Ü¼ÒºÀ\AppData\Local\Temp\ccfeMfIq.s 			page 29


 291:C:/Users/²Ü¼ÒºÀ/.iotlink/sdk/IoT_LINK/iot_link/network/lwm2m/wakaama_lwm2m/wakaama-master/core\tlv.c ****         break;
 930              		.loc 1 291 9 is_stmt 1 view .LVU292
 291:C:/Users/²Ü¼ÒºÀ/.iotlink/sdk/IoT_LINK/iot_link/network/lwm2m/wakaama_lwm2m/wakaama-master/core\tlv.c ****         break;
 931              		.loc 1 291 21 is_stmt 0 view .LVU293
 932 00ee 2368     		ldr	r3, [r4]
 933 00f0 0333     		adds	r3, r3, #3
 934 00f2 DEE7     		b	.L74
 935              	.L62:
 273:C:/Users/²Ü¼ÒºÀ/.iotlink/sdk/IoT_LINK/iot_link/network/lwm2m/wakaama_lwm2m/wakaama-master/core\tlv.c ****         break;
 936              		.loc 1 273 9 is_stmt 1 view .LVU294
 273:C:/Users/²Ü¼ÒºÀ/.iotlink/sdk/IoT_LINK/iot_link/network/lwm2m/wakaama_lwm2m/wakaama-master/core\tlv.c ****         break;
 937              		.loc 1 273 31 is_stmt 0 view .LVU295
 938 00f4 03F00703 		and	r3, r3, #7
 939 00f8 3B60     		str	r3, [r7]
 274:C:/Users/²Ü¼ÒºÀ/.iotlink/sdk/IoT_LINK/iot_link/network/lwm2m/wakaama_lwm2m/wakaama-master/core\tlv.c ****     case 0x08:
 940              		.loc 1 274 9 is_stmt 1 view .LVU296
 941              	.L65:
 298:C:/Users/²Ü¼ÒºÀ/.iotlink/sdk/IoT_LINK/iot_link/network/lwm2m/wakaama_lwm2m/wakaama-master/core\tlv.c **** 
 942              		.loc 1 298 5 view .LVU297
 298:C:/Users/²Ü¼ÒºÀ/.iotlink/sdk/IoT_LINK/iot_link/network/lwm2m/wakaama_lwm2m/wakaama-master/core\tlv.c **** 
 943              		.loc 1 298 21 is_stmt 0 view .LVU298
 944 00fa 2068     		ldr	r0, [r4]
 945 00fc 3B68     		ldr	r3, [r7]
 946 00fe 1844     		add	r0, r0, r3
 298:C:/Users/²Ü¼ÒºÀ/.iotlink/sdk/IoT_LINK/iot_link/network/lwm2m/wakaama_lwm2m/wakaama-master/core\tlv.c **** 
 947              		.loc 1 298 8 view .LVU299
 948 0100 B042     		cmp	r0, r6
 949 0102 A7D9     		bls	.L51
 950 0104 A5E7     		b	.L75
 951              	.L60:
 283:C:/Users/²Ü¼ÒºÀ/.iotlink/sdk/IoT_LINK/iot_link/network/lwm2m/wakaama_lwm2m/wakaama-master/core\tlv.c ****         *oDataLen = (buffer[*oDataIndex] << 8) + buffer[*oDataIndex + 1];
 952              		.loc 1 283 9 is_stmt 1 view .LVU300
 283:C:/Users/²Ü¼ÒºÀ/.iotlink/sdk/IoT_LINK/iot_link/network/lwm2m/wakaama_lwm2m/wakaama-master/core\tlv.c ****         *oDataLen = (buffer[*oDataIndex] << 8) + buffer[*oDataIndex + 1];
 953              		.loc 1 283 26 is_stmt 0 view .LVU301
 954 0106 2068     		ldr	r0, [r4]
 283:C:/Users/²Ü¼ÒºÀ/.iotlink/sdk/IoT_LINK/iot_link/network/lwm2m/wakaama_lwm2m/wakaama-master/core\tlv.c ****         *oDataLen = (buffer[*oDataIndex] << 8) + buffer[*oDataIndex + 1];
 955              		.loc 1 283 38 view .LVU302
 956 0108 831C     		adds	r3, r0, #2
 283:C:/Users/²Ü¼ÒºÀ/.iotlink/sdk/IoT_LINK/iot_link/network/lwm2m/wakaama_lwm2m/wakaama-master/core\tlv.c ****         *oDataLen = (buffer[*oDataIndex] << 8) + buffer[*oDataIndex + 1];
 957              		.loc 1 283 12 view .LVU303
 958 010a B342     		cmp	r3, r6
 959 010c A1D8     		bhi	.L75
 284:C:/Users/²Ü¼ÒºÀ/.iotlink/sdk/IoT_LINK/iot_link/network/lwm2m/wakaama_lwm2m/wakaama-master/core\tlv.c ****         *oDataIndex += 2;
 960              		.loc 1 284 9 is_stmt 1 view .LVU304
 284:C:/Users/²Ü¼ÒºÀ/.iotlink/sdk/IoT_LINK/iot_link/network/lwm2m/wakaama_lwm2m/wakaama-master/core\tlv.c ****         *oDataIndex += 2;
 961              		.loc 1 284 28 is_stmt 0 view .LVU305
 962 010e 2A5C     		ldrb	r2, [r5, r0]	@ zero_extendqisi2
 284:C:/Users/²Ü¼ÒºÀ/.iotlink/sdk/IoT_LINK/iot_link/network/lwm2m/wakaama_lwm2m/wakaama-master/core\tlv.c ****         *oDataIndex += 2;
 963              		.loc 1 284 56 view .LVU306
 964 0110 2844     		add	r0, r0, r5
 965 0112 4378     		ldrb	r3, [r0, #1]	@ zero_extendqisi2
 284:C:/Users/²Ü¼ÒºÀ/.iotlink/sdk/IoT_LINK/iot_link/network/lwm2m/wakaama_lwm2m/wakaama-master/core\tlv.c ****         *oDataIndex += 2;
 966              		.loc 1 284 48 view .LVU307
 967 0114 03EB0223 		add	r3, r3, r2, lsl #8
 284:C:/Users/²Ü¼ÒºÀ/.iotlink/sdk/IoT_LINK/iot_link/network/lwm2m/wakaama_lwm2m/wakaama-master/core\tlv.c ****         *oDataIndex += 2;
 968              		.loc 1 284 19 view .LVU308
 969 0118 3B60     		str	r3, [r7]
ARM GAS  C:\Users\²Ü¼ÒºÀ\AppData\Local\Temp\ccfeMfIq.s 			page 30


 285:C:/Users/²Ü¼ÒºÀ/.iotlink/sdk/IoT_LINK/iot_link/network/lwm2m/wakaama_lwm2m/wakaama-master/core\tlv.c ****         break;
 970              		.loc 1 285 9 is_stmt 1 view .LVU309
 285:C:/Users/²Ü¼ÒºÀ/.iotlink/sdk/IoT_LINK/iot_link/network/lwm2m/wakaama_lwm2m/wakaama-master/core\tlv.c ****         break;
 971              		.loc 1 285 21 is_stmt 0 view .LVU310
 972 011a 2368     		ldr	r3, [r4]
 973 011c 0233     		adds	r3, r3, #2
 974 011e C8E7     		b	.L74
 975              	.L77:
 976              		.align	2
 977              	.L76:
 978 0120 00000000 		.word	.LANCHOR2
 979 0124 00000000 		.word	.LANCHOR1
 980 0128 00000000 		.word	.LC0
 981 012c 00000000 		.word	_impure_ptr
 982              		.cfi_endproc
 983              	.LFE10:
 985              		.section	.rodata.tlv_parse.str1.1,"aMS",%progbits,1
 986              	.LC1:
 987 0000 5B25735D 		.ascii	"[%s][%u][%s] [%d][%s:%d] bufferLen: %d\015\012\015\012"
 987      5B25755D 
 987      5B25735D 
 987      205B2564 
 987      5D5B2573 
 988 002a 00       		.ascii	"\000"
 989              		.section	.text.tlv_parse,"ax",%progbits
 990              		.align	1
 991              		.global	tlv_parse
 992              		.syntax unified
 993              		.thumb
 994              		.thumb_func
 995              		.fpu fpv4-sp-d16
 997              	tlv_parse:
 998              	.LVL77:
 999              	.LFB11:
 307:C:/Users/²Ü¼ÒºÀ/.iotlink/sdk/IoT_LINK/iot_link/network/lwm2m/wakaama_lwm2m/wakaama-master/core\tlv.c ****     lwm2m_data_type_t type;
 1000              		.loc 1 307 1 is_stmt 1 view -0
 1001              		.cfi_startproc
 1002              		@ args = 0, pretend = 0, frame = 24
 1003              		@ frame_needed = 0, uses_anonymous_args = 0
 308:C:/Users/²Ü¼ÒºÀ/.iotlink/sdk/IoT_LINK/iot_link/network/lwm2m/wakaama_lwm2m/wakaama-master/core\tlv.c ****     uint16_t id;
 1004              		.loc 1 308 5 view .LVU312
 309:C:/Users/²Ü¼ÒºÀ/.iotlink/sdk/IoT_LINK/iot_link/network/lwm2m/wakaama_lwm2m/wakaama-master/core\tlv.c ****     size_t dataIndex;
 1005              		.loc 1 309 5 view .LVU313
 310:C:/Users/²Ü¼ÒºÀ/.iotlink/sdk/IoT_LINK/iot_link/network/lwm2m/wakaama_lwm2m/wakaama-master/core\tlv.c ****     size_t dataLen;
 1006              		.loc 1 310 5 view .LVU314
 311:C:/Users/²Ü¼ÒºÀ/.iotlink/sdk/IoT_LINK/iot_link/network/lwm2m/wakaama_lwm2m/wakaama-master/core\tlv.c ****     int index = 0;
 1007              		.loc 1 311 5 view .LVU315
 312:C:/Users/²Ü¼ÒºÀ/.iotlink/sdk/IoT_LINK/iot_link/network/lwm2m/wakaama_lwm2m/wakaama-master/core\tlv.c ****     int result;
 1008              		.loc 1 312 5 view .LVU316
 313:C:/Users/²Ü¼ÒºÀ/.iotlink/sdk/IoT_LINK/iot_link/network/lwm2m/wakaama_lwm2m/wakaama-master/core\tlv.c ****     int size = 0;
 1009              		.loc 1 313 5 view .LVU317
 314:C:/Users/²Ü¼ÒºÀ/.iotlink/sdk/IoT_LINK/iot_link/network/lwm2m/wakaama_lwm2m/wakaama-master/core\tlv.c **** 
 1010              		.loc 1 314 5 view .LVU318
 316:C:/Users/²Ü¼ÒºÀ/.iotlink/sdk/IoT_LINK/iot_link/network/lwm2m/wakaama_lwm2m/wakaama-master/core\tlv.c **** 
 1011              		.loc 1 316 5 view .LVU319
 316:C:/Users/²Ü¼ÒºÀ/.iotlink/sdk/IoT_LINK/iot_link/network/lwm2m/wakaama_lwm2m/wakaama-master/core\tlv.c **** 
 1012              		.loc 1 316 5 view .LVU320
ARM GAS  C:\Users\²Ü¼ÒºÀ\AppData\Local\Temp\ccfeMfIq.s 			page 31


 307:C:/Users/²Ü¼ÒºÀ/.iotlink/sdk/IoT_LINK/iot_link/network/lwm2m/wakaama_lwm2m/wakaama-master/core\tlv.c ****     lwm2m_data_type_t type;
 1013              		.loc 1 307 1 is_stmt 0 view .LVU321
 1014 0000 2DE9F04F 		push	{r4, r5, r6, r7, r8, r9, r10, fp, lr}
 1015              	.LCFI12:
 1016              		.cfi_def_cfa_offset 36
 1017              		.cfi_offset 4, -36
 1018              		.cfi_offset 5, -32
 1019              		.cfi_offset 6, -28
 1020              		.cfi_offset 7, -24
 1021              		.cfi_offset 8, -20
 1022              		.cfi_offset 9, -16
 1023              		.cfi_offset 10, -12
 1024              		.cfi_offset 11, -8
 1025              		.cfi_offset 14, -4
 1026 0004 8BB0     		sub	sp, sp, #44
 1027              	.LCFI13:
 1028              		.cfi_def_cfa_offset 80
 307:C:/Users/²Ü¼ÒºÀ/.iotlink/sdk/IoT_LINK/iot_link/network/lwm2m/wakaama_lwm2m/wakaama-master/core\tlv.c ****     lwm2m_data_type_t type;
 1029              		.loc 1 307 1 view .LVU322
 1030 0006 8146     		mov	r9, r0
 1031 0008 8A46     		mov	r10, r1
 1032 000a 1646     		mov	r6, r2
 316:C:/Users/²Ü¼ÒºÀ/.iotlink/sdk/IoT_LINK/iot_link/network/lwm2m/wakaama_lwm2m/wakaama-master/core\tlv.c **** 
 1033              		.loc 1 316 5 view .LVU323
 1034 000c FFF7FEFF 		bl	link_log_level_get
 1035              	.LVL78:
 316:C:/Users/²Ü¼ÒºÀ/.iotlink/sdk/IoT_LINK/iot_link/network/lwm2m/wakaama_lwm2m/wakaama-master/core\tlv.c **** 
 1036              		.loc 1 316 5 view .LVU324
 1037 0010 0128     		cmp	r0, #1
 1038 0012 1BD8     		bhi	.L79
 316:C:/Users/²Ü¼ÒºÀ/.iotlink/sdk/IoT_LINK/iot_link/network/lwm2m/wakaama_lwm2m/wakaama-master/core\tlv.c **** 
 1039              		.loc 1 316 5 is_stmt 1 discriminator 1 view .LVU325
 316:C:/Users/²Ü¼ÒºÀ/.iotlink/sdk/IoT_LINK/iot_link/network/lwm2m/wakaama_lwm2m/wakaama-master/core\tlv.c **** 
 1040              		.loc 1 316 5 discriminator 1 view .LVU326
 316:C:/Users/²Ü¼ÒºÀ/.iotlink/sdk/IoT_LINK/iot_link/network/lwm2m/wakaama_lwm2m/wakaama-master/core\tlv.c **** 
 1041              		.loc 1 316 5 discriminator 1 view .LVU327
 1042 0014 0120     		movs	r0, #1
 1043 0016 FFF7FEFF 		bl	link_log_level_name
 1044              	.LVL79:
 1045 001a 0446     		mov	r4, r0
 1046 001c FFF7FEFF 		bl	osal_sys_time
 1047              	.LVL80:
 1048 0020 0590     		str	r0, [sp, #20]
 1049 0022 FFF7FEFF 		bl	lwm2m_gettime
 1050              	.LVL81:
 1051 0026 4FF49E73 		mov	r3, #316
 1052 002a 0293     		str	r3, [sp, #8]
 1053 002c 304B     		ldr	r3, .L90
 1054 002e 059A     		ldr	r2, [sp, #20]
 1055 0030 CDF80CA0 		str	r10, [sp, #12]
 1056 0034 CDE90003 		strd	r0, r3, [sp]
 1057 0038 2146     		mov	r1, r4
 1058 003a 2E4B     		ldr	r3, .L90+4
 1059 003c 2E48     		ldr	r0, .L90+8
 1060 003e FFF7FEFF 		bl	printf
 1061              	.LVL82:
 316:C:/Users/²Ü¼ÒºÀ/.iotlink/sdk/IoT_LINK/iot_link/network/lwm2m/wakaama_lwm2m/wakaama-master/core\tlv.c **** 
ARM GAS  C:\Users\²Ü¼ÒºÀ\AppData\Local\Temp\ccfeMfIq.s 			page 32


 1062              		.loc 1 316 5 discriminator 1 view .LVU328
 1063 0042 2E4B     		ldr	r3, .L90+12
 1064 0044 1B68     		ldr	r3, [r3]
 1065 0046 9868     		ldr	r0, [r3, #8]
 1066 0048 FFF7FEFF 		bl	fflush
 1067              	.LVL83:
 1068              	.L79:
 316:C:/Users/²Ü¼ÒºÀ/.iotlink/sdk/IoT_LINK/iot_link/network/lwm2m/wakaama_lwm2m/wakaama-master/core\tlv.c **** 
 1069              		.loc 1 316 5 discriminator 3 view .LVU329
 316:C:/Users/²Ü¼ÒºÀ/.iotlink/sdk/IoT_LINK/iot_link/network/lwm2m/wakaama_lwm2m/wakaama-master/core\tlv.c **** 
 1070              		.loc 1 316 5 discriminator 3 view .LVU330
 316:C:/Users/²Ü¼ÒºÀ/.iotlink/sdk/IoT_LINK/iot_link/network/lwm2m/wakaama_lwm2m/wakaama-master/core\tlv.c **** 
 1071              		.loc 1 316 5 discriminator 3 view .LVU331
 318:C:/Users/²Ü¼ÒºÀ/.iotlink/sdk/IoT_LINK/iot_link/network/lwm2m/wakaama_lwm2m/wakaama-master/core\tlv.c **** 
 1072              		.loc 1 318 5 discriminator 3 view .LVU332
 318:C:/Users/²Ü¼ÒºÀ/.iotlink/sdk/IoT_LINK/iot_link/network/lwm2m/wakaama_lwm2m/wakaama-master/core\tlv.c **** 
 1073              		.loc 1 318 12 is_stmt 0 discriminator 3 view .LVU333
 1074 004c 0024     		movs	r4, #0
 1075 004e 3460     		str	r4, [r6]
 320:C:/Users/²Ü¼ÒºÀ/.iotlink/sdk/IoT_LINK/iot_link/network/lwm2m/wakaama_lwm2m/wakaama-master/core\tlv.c ****     {
 1076              		.loc 1 320 5 is_stmt 1 discriminator 3 view .LVU334
 312:C:/Users/²Ü¼ÒºÀ/.iotlink/sdk/IoT_LINK/iot_link/network/lwm2m/wakaama_lwm2m/wakaama-master/core\tlv.c ****     int result;
 1077              		.loc 1 312 9 is_stmt 0 discriminator 3 view .LVU335
 1078 0050 2746     		mov	r7, r4
 1079              	.LVL84:
 1080              	.L80:
 320:C:/Users/²Ü¼ÒºÀ/.iotlink/sdk/IoT_LINK/iot_link/network/lwm2m/wakaama_lwm2m/wakaama-master/core\tlv.c ****     {
 1081              		.loc 1 320 27 view .LVU336
 1082 0052 09AB     		add	r3, sp, #36
 1083 0054 0193     		str	r3, [sp, #4]
 1084 0056 08AB     		add	r3, sp, #32
 1085 0058 0093     		str	r3, [sp]
 1086 005a 0DF11D02 		add	r2, sp, #29
 1087 005e 0DF11E03 		add	r3, sp, #30
 1088 0062 AAEB0701 		sub	r1, r10, r7
 1089 0066 09EB0700 		add	r0, r9, r7
 1090 006a FFF7FEFF 		bl	lwm2m_decode_TLV
 1091              	.LVL85:
 1092 006e 2546     		mov	r5, r4
 1093              	.LVL86:
 320:C:/Users/²Ü¼ÒºÀ/.iotlink/sdk/IoT_LINK/iot_link/network/lwm2m/wakaama_lwm2m/wakaama-master/core\tlv.c ****     {
 1094              		.loc 1 320 11 is_stmt 1 view .LVU337
 320:C:/Users/²Ü¼ÒºÀ/.iotlink/sdk/IoT_LINK/iot_link/network/lwm2m/wakaama_lwm2m/wakaama-master/core\tlv.c ****     {
 1095              		.loc 1 320 11 is_stmt 0 view .LVU338
 1096 0070 0590     		str	r0, [sp, #20]
 1097 0072 60B1     		cbz	r0, .L78
 1098              	.LBB30:
 322:C:/Users/²Ü¼ÒºÀ/.iotlink/sdk/IoT_LINK/iot_link/network/lwm2m/wakaama_lwm2m/wakaama-master/core\tlv.c **** 
 1099              		.loc 1 322 9 is_stmt 1 view .LVU339
 324:C:/Users/²Ü¼ÒºÀ/.iotlink/sdk/IoT_LINK/iot_link/network/lwm2m/wakaama_lwm2m/wakaama-master/core\tlv.c ****         if (size >= 1)
 1100              		.loc 1 324 9 view .LVU340
 1101 0074 05F1010B 		add	fp, r5, #1
 324:C:/Users/²Ü¼ÒºÀ/.iotlink/sdk/IoT_LINK/iot_link/network/lwm2m/wakaama_lwm2m/wakaama-master/core\tlv.c ****         if (size >= 1)
 1102              		.loc 1 324 19 is_stmt 0 view .LVU341
 1103 0078 5846     		mov	r0, fp
 1104              	.LVL87:
 324:C:/Users/²Ü¼ÒºÀ/.iotlink/sdk/IoT_LINK/iot_link/network/lwm2m/wakaama_lwm2m/wakaama-master/core\tlv.c ****         if (size >= 1)
ARM GAS  C:\Users\²Ü¼ÒºÀ\AppData\Local\Temp\ccfeMfIq.s 			page 33


 1105              		.loc 1 324 19 view .LVU342
 1106 007a FFF7FEFF 		bl	lwm2m_data_new
 1107              	.LVL88:
 1108 007e 8046     		mov	r8, r0
 1109              	.LVL89:
 325:C:/Users/²Ü¼ÒºÀ/.iotlink/sdk/IoT_LINK/iot_link/network/lwm2m/wakaama_lwm2m/wakaama-master/core\tlv.c ****         {
 1110              		.loc 1 325 9 is_stmt 1 view .LVU343
 325:C:/Users/²Ü¼ÒºÀ/.iotlink/sdk/IoT_LINK/iot_link/network/lwm2m/wakaama_lwm2m/wakaama-master/core\tlv.c ****         {
 1111              		.loc 1 325 12 is_stmt 0 view .LVU344
 1112 0080 7DB1     		cbz	r5, .L81
 327:C:/Users/²Ü¼ÒºÀ/.iotlink/sdk/IoT_LINK/iot_link/network/lwm2m/wakaama_lwm2m/wakaama-master/core\tlv.c ****             {
 1113              		.loc 1 327 13 is_stmt 1 view .LVU345
 1114 0082 3168     		ldr	r1, [r6]
 327:C:/Users/²Ü¼ÒºÀ/.iotlink/sdk/IoT_LINK/iot_link/network/lwm2m/wakaama_lwm2m/wakaama-master/core\tlv.c ****             {
 1115              		.loc 1 327 16 is_stmt 0 view .LVU346
 1116 0084 38B9     		cbnz	r0, .L82
 329:C:/Users/²Ü¼ÒºÀ/.iotlink/sdk/IoT_LINK/iot_link/network/lwm2m/wakaama_lwm2m/wakaama-master/core\tlv.c ****                 return 0;
 1117              		.loc 1 329 17 is_stmt 1 view .LVU347
 1118 0086 2846     		mov	r0, r5
 1119              	.LVL90:
 329:C:/Users/²Ü¼ÒºÀ/.iotlink/sdk/IoT_LINK/iot_link/network/lwm2m/wakaama_lwm2m/wakaama-master/core\tlv.c ****                 return 0;
 1120              		.loc 1 329 17 is_stmt 0 view .LVU348
 1121 0088 FFF7FEFF 		bl	lwm2m_data_free
 1122              	.LVL91:
 330:C:/Users/²Ü¼ÒºÀ/.iotlink/sdk/IoT_LINK/iot_link/network/lwm2m/wakaama_lwm2m/wakaama-master/core\tlv.c ****             }
 1123              		.loc 1 330 17 is_stmt 1 view .LVU349
 330:C:/Users/²Ü¼ÒºÀ/.iotlink/sdk/IoT_LINK/iot_link/network/lwm2m/wakaama_lwm2m/wakaama-master/core\tlv.c ****             }
 1124              		.loc 1 330 24 is_stmt 0 view .LVU350
 1125 008c 4546     		mov	r5, r8
 1126              	.LVL92:
 1127              	.L78:
 330:C:/Users/²Ü¼ÒºÀ/.iotlink/sdk/IoT_LINK/iot_link/network/lwm2m/wakaama_lwm2m/wakaama-master/core\tlv.c ****             }
 1128              		.loc 1 330 24 view .LVU351
 1129              	.LBE30:
 362:C:/Users/²Ü¼ÒºÀ/.iotlink/sdk/IoT_LINK/iot_link/network/lwm2m/wakaama_lwm2m/wakaama-master/core\tlv.c **** 
 1130              		.loc 1 362 1 view .LVU352
 1131 008e 2846     		mov	r0, r5
 1132 0090 0BB0     		add	sp, sp, #44
 1133              	.LCFI14:
 1134              		.cfi_remember_state
 1135              		.cfi_def_cfa_offset 36
 1136              		@ sp needed
 1137 0092 BDE8F08F 		pop	{r4, r5, r6, r7, r8, r9, r10, fp, pc}
 1138              	.LVL93:
 1139              	.L82:
 1140              	.LCFI15:
 1141              		.cfi_restore_state
 1142              	.LBB31:
 334:C:/Users/²Ü¼ÒºÀ/.iotlink/sdk/IoT_LINK/iot_link/network/lwm2m/wakaama_lwm2m/wakaama-master/core\tlv.c ****                 lwm2m_free(*dataP);
 1143              		.loc 1 334 17 is_stmt 1 view .LVU353
 1144 0096 2201     		lsls	r2, r4, #4
 1145 0098 FFF7FEFF 		bl	memcpy
 1146              	.LVL94:
 335:C:/Users/²Ü¼ÒºÀ/.iotlink/sdk/IoT_LINK/iot_link/network/lwm2m/wakaama_lwm2m/wakaama-master/core\tlv.c ****             }
 1147              		.loc 1 335 17 view .LVU354
 1148 009c 3068     		ldr	r0, [r6]
 1149 009e FFF7FEFF 		bl	lwm2m_free
ARM GAS  C:\Users\²Ü¼ÒºÀ\AppData\Local\Temp\ccfeMfIq.s 			page 34


 1150              	.LVL95:
 1151              	.L81:
 338:C:/Users/²Ü¼ÒºÀ/.iotlink/sdk/IoT_LINK/iot_link/network/lwm2m/wakaama_lwm2m/wakaama-master/core\tlv.c **** 
 1152              		.loc 1 338 9 view .LVU355
 1153 00a2 2401     		lsls	r4, r4, #4
 1154              	.LVL96:
 340:C:/Users/²Ü¼ÒºÀ/.iotlink/sdk/IoT_LINK/iot_link/network/lwm2m/wakaama_lwm2m/wakaama-master/core\tlv.c ****         (*dataP)[size].id = id;
 1155              		.loc 1 340 29 is_stmt 0 view .LVU356
 1156 00a4 9DF81D50 		ldrb	r5, [sp, #29]	@ zero_extendqisi2
 1157              	.LVL97:
 338:C:/Users/²Ü¼ÒºÀ/.iotlink/sdk/IoT_LINK/iot_link/network/lwm2m/wakaama_lwm2m/wakaama-master/core\tlv.c **** 
 1158              		.loc 1 338 16 view .LVU357
 1159 00a8 C6F80080 		str	r8, [r6]
 340:C:/Users/²Ü¼ÒºÀ/.iotlink/sdk/IoT_LINK/iot_link/network/lwm2m/wakaama_lwm2m/wakaama-master/core\tlv.c ****         (*dataP)[size].id = id;
 1160              		.loc 1 340 9 is_stmt 1 view .LVU358
 340:C:/Users/²Ü¼ÒºÀ/.iotlink/sdk/IoT_LINK/iot_link/network/lwm2m/wakaama_lwm2m/wakaama-master/core\tlv.c ****         (*dataP)[size].id = id;
 1161              		.loc 1 340 29 is_stmt 0 view .LVU359
 1162 00ac 08F80450 		strb	r5, [r8, r4]
 341:C:/Users/²Ü¼ÒºÀ/.iotlink/sdk/IoT_LINK/iot_link/network/lwm2m/wakaama_lwm2m/wakaama-master/core\tlv.c ****         if (type == LWM2M_TYPE_OBJECT_INSTANCE || type == LWM2M_TYPE_MULTIPLE_RESOURCE)
 1163              		.loc 1 341 9 is_stmt 1 view .LVU360
 341:C:/Users/²Ü¼ÒºÀ/.iotlink/sdk/IoT_LINK/iot_link/network/lwm2m/wakaama_lwm2m/wakaama-master/core\tlv.c ****         if (type == LWM2M_TYPE_OBJECT_INSTANCE || type == LWM2M_TYPE_MULTIPLE_RESOURCE)
 1164              		.loc 1 341 17 is_stmt 0 view .LVU361
 1165 00b0 3268     		ldr	r2, [r6]
 341:C:/Users/²Ü¼ÒºÀ/.iotlink/sdk/IoT_LINK/iot_link/network/lwm2m/wakaama_lwm2m/wakaama-master/core\tlv.c ****         if (type == LWM2M_TYPE_OBJECT_INSTANCE || type == LWM2M_TYPE_MULTIPLE_RESOURCE)
 1166              		.loc 1 341 27 view .LVU362
 1167 00b2 BDF81E30 		ldrh	r3, [sp, #30]
 1168 00b6 0898     		ldr	r0, [sp, #32]
 1169 00b8 0999     		ldr	r1, [sp, #36]
 341:C:/Users/²Ü¼ÒºÀ/.iotlink/sdk/IoT_LINK/iot_link/network/lwm2m/wakaama_lwm2m/wakaama-master/core\tlv.c ****         if (type == LWM2M_TYPE_OBJECT_INSTANCE || type == LWM2M_TYPE_MULTIPLE_RESOURCE)
 1170              		.loc 1 341 17 view .LVU363
 1171 00ba 2244     		add	r2, r2, r4
 1172 00bc 3844     		add	r0, r0, r7
 341:C:/Users/²Ü¼ÒºÀ/.iotlink/sdk/IoT_LINK/iot_link/network/lwm2m/wakaama_lwm2m/wakaama-master/core\tlv.c ****         if (type == LWM2M_TYPE_OBJECT_INSTANCE || type == LWM2M_TYPE_MULTIPLE_RESOURCE)
 1173              		.loc 1 341 27 view .LVU364
 1174 00be 5380     		strh	r3, [r2, #2]	@ movhi
 342:C:/Users/²Ü¼ÒºÀ/.iotlink/sdk/IoT_LINK/iot_link/network/lwm2m/wakaama_lwm2m/wakaama-master/core\tlv.c ****         {
 1175              		.loc 1 342 9 is_stmt 1 view .LVU365
 342:C:/Users/²Ü¼ÒºÀ/.iotlink/sdk/IoT_LINK/iot_link/network/lwm2m/wakaama_lwm2m/wakaama-master/core\tlv.c ****         {
 1176              		.loc 1 342 12 is_stmt 0 view .LVU366
 1177 00c0 AB1E     		subs	r3, r5, #2
 1178 00c2 012B     		cmp	r3, #1
 1179 00c4 4844     		add	r0, r0, r9
 1180 00c6 0DD8     		bhi	.L84
 344:C:/Users/²Ü¼ÒºÀ/.iotlink/sdk/IoT_LINK/iot_link/network/lwm2m/wakaama_lwm2m/wakaama-master/core\tlv.c ****                                                     dataLen,
 1181              		.loc 1 344 13 is_stmt 1 view .LVU367
 344:C:/Users/²Ü¼ÒºÀ/.iotlink/sdk/IoT_LINK/iot_link/network/lwm2m/wakaama_lwm2m/wakaama-master/core\tlv.c ****                                                     dataLen,
 1182              		.loc 1 344 53 is_stmt 0 view .LVU368
 1183 00c8 0C32     		adds	r2, r2, #12
 1184 00ca FFF7FEFF 		bl	tlv_parse
 1185              	.LVL98:
 344:C:/Users/²Ü¼ÒºÀ/.iotlink/sdk/IoT_LINK/iot_link/network/lwm2m/wakaama_lwm2m/wakaama-master/core\tlv.c ****                                                     dataLen,
 1186              		.loc 1 344 51 view .LVU369
 1187 00ce 3368     		ldr	r3, [r6]
 1188 00d0 2344     		add	r3, r3, r4
 1189 00d2 9860     		str	r0, [r3, #8]
 347:C:/Users/²Ü¼ÒºÀ/.iotlink/sdk/IoT_LINK/iot_link/network/lwm2m/wakaama_lwm2m/wakaama-master/core\tlv.c ****             {
 1190              		.loc 1 347 13 is_stmt 1 view .LVU370
ARM GAS  C:\Users\²Ü¼ÒºÀ\AppData\Local\Temp\ccfeMfIq.s 			page 35


 347:C:/Users/²Ü¼ÒºÀ/.iotlink/sdk/IoT_LINK/iot_link/network/lwm2m/wakaama_lwm2m/wakaama-master/core\tlv.c ****             {
 1191              		.loc 1 347 18 is_stmt 0 view .LVU371
 1192 00d4 3168     		ldr	r1, [r6]
 347:C:/Users/²Ü¼ÒºÀ/.iotlink/sdk/IoT_LINK/iot_link/network/lwm2m/wakaama_lwm2m/wakaama-master/core\tlv.c ****             {
 1193              		.loc 1 347 48 view .LVU372
 1194 00d6 0C44     		add	r4, r4, r1
 347:C:/Users/²Ü¼ÒºÀ/.iotlink/sdk/IoT_LINK/iot_link/network/lwm2m/wakaama_lwm2m/wakaama-master/core\tlv.c ****             {
 1195              		.loc 1 347 16 view .LVU373
 1196 00d8 A568     		ldr	r5, [r4, #8]
 1197 00da 2DB9     		cbnz	r5, .L85
 349:C:/Users/²Ü¼ÒºÀ/.iotlink/sdk/IoT_LINK/iot_link/network/lwm2m/wakaama_lwm2m/wakaama-master/core\tlv.c ****                 return 0;
 1198              		.loc 1 349 17 is_stmt 1 view .LVU374
 1199 00dc 5846     		mov	r0, fp
 1200 00de FFF7FEFF 		bl	lwm2m_data_free
 1201              	.LVL99:
 350:C:/Users/²Ü¼ÒºÀ/.iotlink/sdk/IoT_LINK/iot_link/network/lwm2m/wakaama_lwm2m/wakaama-master/core\tlv.c ****             }
 1202              		.loc 1 350 17 view .LVU375
 350:C:/Users/²Ü¼ÒºÀ/.iotlink/sdk/IoT_LINK/iot_link/network/lwm2m/wakaama_lwm2m/wakaama-master/core\tlv.c ****             }
 1203              		.loc 1 350 24 is_stmt 0 view .LVU376
 1204 00e2 D4E7     		b	.L78
 1205              	.L84:
 355:C:/Users/²Ü¼ÒºÀ/.iotlink/sdk/IoT_LINK/iot_link/network/lwm2m/wakaama_lwm2m/wakaama-master/core\tlv.c ****         }
 1206              		.loc 1 355 13 is_stmt 1 view .LVU377
 1207 00e4 FFF7FEFF 		bl	lwm2m_data_encode_opaque
 1208              	.LVL100:
 1209              	.L85:
 357:C:/Users/²Ü¼ÒºÀ/.iotlink/sdk/IoT_LINK/iot_link/network/lwm2m/wakaama_lwm2m/wakaama-master/core\tlv.c ****         index += result;
 1210              		.loc 1 357 9 view .LVU378
 358:C:/Users/²Ü¼ÒºÀ/.iotlink/sdk/IoT_LINK/iot_link/network/lwm2m/wakaama_lwm2m/wakaama-master/core\tlv.c ****     }
 1211              		.loc 1 358 9 view .LVU379
 358:C:/Users/²Ü¼ÒºÀ/.iotlink/sdk/IoT_LINK/iot_link/network/lwm2m/wakaama_lwm2m/wakaama-master/core\tlv.c ****     }
 1212              		.loc 1 358 15 is_stmt 0 view .LVU380
 1213 00e8 059B     		ldr	r3, [sp, #20]
 1214 00ea 5C46     		mov	r4, fp
 1215 00ec 1F44     		add	r7, r7, r3
 1216              	.LVL101:
 358:C:/Users/²Ü¼ÒºÀ/.iotlink/sdk/IoT_LINK/iot_link/network/lwm2m/wakaama_lwm2m/wakaama-master/core\tlv.c ****     }
 1217              		.loc 1 358 15 view .LVU381
 1218 00ee B0E7     		b	.L80
 1219              	.L91:
 1220              		.align	2
 1221              	.L90:
 1222 00f0 00000000 		.word	.LANCHOR4
 1223 00f4 00000000 		.word	.LANCHOR3
 1224 00f8 00000000 		.word	.LC1
 1225 00fc 00000000 		.word	_impure_ptr
 1226              	.LBE31:
 1227              		.cfi_endproc
 1228              	.LFE11:
 1230              		.section	.rodata.tlv_serialize.str1.1,"aMS",%progbits,1
 1231              	.LC2:
 1232 0000 74727565 		.ascii	"true\000"
 1232      00
 1233              	.LC3:
 1234 0005 66616C73 		.ascii	"false\000"
 1234      6500
 1235              	.LC4:
ARM GAS  C:\Users\²Ü¼ÒºÀ\AppData\Local\Temp\ccfeMfIq.s 			page 36


 1236 000b 5B25735D 		.ascii	"[%s][%u][%s] [%d][%s:%d] isResourceInstance: %s, si"
 1236      5B25755D 
 1236      5B25735D 
 1236      205B2564 
 1236      5D5B2573 
 1237 003e 7A653A20 		.ascii	"ze: %d\015\012\015\012\000"
 1237      25640D0A 
 1237      0D0A00
 1238              		.global	__aeabi_d2f
 1239              	.LC5:
 1240 0049 5B25735D 		.ascii	"[%s][%u][%s] [%d][%s:%d] returning %u\015\012\015\012"
 1240      5B25755D 
 1240      5B25735D 
 1240      205B2564 
 1240      5D5B2573 
 1241 0072 00       		.ascii	"\000"
 1242              		.section	.text.tlv_serialize,"ax",%progbits
 1243              		.align	1
 1244              		.global	tlv_serialize
 1245              		.syntax unified
 1246              		.thumb
 1247              		.thumb_func
 1248              		.fpu fpv4-sp-d16
 1250              	tlv_serialize:
 1251              	.LVL102:
 1252              	.LFB13:
 445:C:/Users/²Ü¼ÒºÀ/.iotlink/sdk/IoT_LINK/iot_link/network/lwm2m/wakaama_lwm2m/wakaama-master/core\tlv.c **** 
 446:C:/Users/²Ü¼ÒºÀ/.iotlink/sdk/IoT_LINK/iot_link/network/lwm2m/wakaama_lwm2m/wakaama-master/core\tlv.c **** 
 447:C:/Users/²Ü¼ÒºÀ/.iotlink/sdk/IoT_LINK/iot_link/network/lwm2m/wakaama_lwm2m/wakaama-master/core\tlv.c **** int tlv_serialize(bool isResourceInstance,
 448:C:/Users/²Ü¼ÒºÀ/.iotlink/sdk/IoT_LINK/iot_link/network/lwm2m/wakaama_lwm2m/wakaama-master/core\tlv.c ****                   int size,
 449:C:/Users/²Ü¼ÒºÀ/.iotlink/sdk/IoT_LINK/iot_link/network/lwm2m/wakaama_lwm2m/wakaama-master/core\tlv.c ****                   lwm2m_data_t *dataP,
 450:C:/Users/²Ü¼ÒºÀ/.iotlink/sdk/IoT_LINK/iot_link/network/lwm2m/wakaama_lwm2m/wakaama-master/core\tlv.c ****                   uint8_t **bufferP)
 451:C:/Users/²Ü¼ÒºÀ/.iotlink/sdk/IoT_LINK/iot_link/network/lwm2m/wakaama_lwm2m/wakaama-master/core\tlv.c **** {
 1253              		.loc 1 451 1 is_stmt 1 view -0
 1254              		.cfi_startproc
 1255              		@ args = 0, pretend = 0, frame = 32
 1256              		@ frame_needed = 0, uses_anonymous_args = 0
 452:C:/Users/²Ü¼ÒºÀ/.iotlink/sdk/IoT_LINK/iot_link/network/lwm2m/wakaama_lwm2m/wakaama-master/core\tlv.c ****     int length;
 1257              		.loc 1 452 5 view .LVU383
 453:C:/Users/²Ü¼ÒºÀ/.iotlink/sdk/IoT_LINK/iot_link/network/lwm2m/wakaama_lwm2m/wakaama-master/core\tlv.c ****     int index;
 1258              		.loc 1 453 5 view .LVU384
 454:C:/Users/²Ü¼ÒºÀ/.iotlink/sdk/IoT_LINK/iot_link/network/lwm2m/wakaama_lwm2m/wakaama-master/core\tlv.c ****     int i;
 1259              		.loc 1 454 5 view .LVU385
 455:C:/Users/²Ü¼ÒºÀ/.iotlink/sdk/IoT_LINK/iot_link/network/lwm2m/wakaama_lwm2m/wakaama-master/core\tlv.c **** 
 456:C:/Users/²Ü¼ÒºÀ/.iotlink/sdk/IoT_LINK/iot_link/network/lwm2m/wakaama_lwm2m/wakaama-master/core\tlv.c ****     LOG_ARG("isResourceInstance: %s, size: %d", isResourceInstance ? "true" : "false", size);
 1260              		.loc 1 456 5 view .LVU386
 1261              		.loc 1 456 5 view .LVU387
 451:C:/Users/²Ü¼ÒºÀ/.iotlink/sdk/IoT_LINK/iot_link/network/lwm2m/wakaama_lwm2m/wakaama-master/core\tlv.c ****     int length;
 1262              		.loc 1 451 1 is_stmt 0 view .LVU388
 1263 0000 2DE9F04F 		push	{r4, r5, r6, r7, r8, r9, r10, fp, lr}
 1264              	.LCFI16:
 1265              		.cfi_def_cfa_offset 36
 1266              		.cfi_offset 4, -36
 1267              		.cfi_offset 5, -32
 1268              		.cfi_offset 6, -28
 1269              		.cfi_offset 7, -24
 1270              		.cfi_offset 8, -20
ARM GAS  C:\Users\²Ü¼ÒºÀ\AppData\Local\Temp\ccfeMfIq.s 			page 37


 1271              		.cfi_offset 9, -16
 1272              		.cfi_offset 10, -12
 1273              		.cfi_offset 11, -8
 1274              		.cfi_offset 14, -4
 1275 0004 8FB0     		sub	sp, sp, #60
 1276              	.LCFI17:
 1277              		.cfi_def_cfa_offset 96
 451:C:/Users/²Ü¼ÒºÀ/.iotlink/sdk/IoT_LINK/iot_link/network/lwm2m/wakaama_lwm2m/wakaama-master/core\tlv.c ****     int length;
 1278              		.loc 1 451 1 view .LVU389
 1279 0006 8246     		mov	r10, r0
 1280 0008 0691     		str	r1, [sp, #24]
 1281 000a 1446     		mov	r4, r2
 1282 000c 1E46     		mov	r6, r3
 1283              		.loc 1 456 5 view .LVU390
 1284 000e FFF7FEFF 		bl	link_log_level_get
 1285              	.LVL103:
 1286              		.loc 1 456 5 view .LVU391
 1287 0012 0128     		cmp	r0, #1
 1288 0014 22D8     		bhi	.L93
 1289              		.loc 1 456 5 is_stmt 1 discriminator 1 view .LVU392
 1290              		.loc 1 456 5 discriminator 1 view .LVU393
 1291              		.loc 1 456 5 discriminator 1 view .LVU394
 1292 0016 0120     		movs	r0, #1
 1293 0018 FFF7FEFF 		bl	link_log_level_name
 1294              	.LVL104:
 1295 001c 0546     		mov	r5, r0
 1296 001e FFF7FEFF 		bl	osal_sys_time
 1297              	.LVL105:
 1298 0022 0790     		str	r0, [sp, #28]
 1299 0024 FFF7FEFF 		bl	lwm2m_gettime
 1300              	.LVL106:
 1301 0028 8349     		ldr	r1, .L123
 1302 002a 844B     		ldr	r3, .L123+4
 1303 002c 069A     		ldr	r2, [sp, #24]
 1304 002e BAF1000F 		cmp	r10, #0
 1305 0032 08BF     		it	eq
 1306 0034 0B46     		moveq	r3, r1
 1307 0036 CDE90332 		strd	r3, r2, [sp, #12]
 1308 003a 4FF4E473 		mov	r3, #456
 1309 003e 0293     		str	r3, [sp, #8]
 1310 0040 7F4B     		ldr	r3, .L123+8
 1311 0042 079A     		ldr	r2, [sp, #28]
 1312 0044 CDE90003 		strd	r0, r3, [sp]
 1313 0048 2946     		mov	r1, r5
 1314 004a 7E4B     		ldr	r3, .L123+12
 1315 004c 7E48     		ldr	r0, .L123+16
 1316 004e FFF7FEFF 		bl	printf
 1317              	.LVL107:
 1318              		.loc 1 456 5 discriminator 1 view .LVU395
 1319 0052 7E4B     		ldr	r3, .L123+20
 1320 0054 1B68     		ldr	r3, [r3]
 1321 0056 9868     		ldr	r0, [r3, #8]
 1322 0058 FFF7FEFF 		bl	fflush
 1323              	.LVL108:
 1324              	.L93:
 1325              		.loc 1 456 5 discriminator 7 view .LVU396
 1326              		.loc 1 456 5 discriminator 7 view .LVU397
ARM GAS  C:\Users\²Ü¼ÒºÀ\AppData\Local\Temp\ccfeMfIq.s 			page 38


 1327              		.loc 1 456 5 discriminator 7 view .LVU398
 457:C:/Users/²Ü¼ÒºÀ/.iotlink/sdk/IoT_LINK/iot_link/network/lwm2m/wakaama_lwm2m/wakaama-master/core\tlv.c **** 
 458:C:/Users/²Ü¼ÒºÀ/.iotlink/sdk/IoT_LINK/iot_link/network/lwm2m/wakaama_lwm2m/wakaama-master/core\tlv.c ****     *bufferP = NULL;
 1328              		.loc 1 458 5 discriminator 7 view .LVU399
 1329              		.loc 1 458 14 is_stmt 0 discriminator 7 view .LVU400
 1330 005c 0025     		movs	r5, #0
 459:C:/Users/²Ü¼ÒºÀ/.iotlink/sdk/IoT_LINK/iot_link/network/lwm2m/wakaama_lwm2m/wakaama-master/core\tlv.c ****     length = prv_getLength(size, dataP);
 1331              		.loc 1 459 14 discriminator 7 view .LVU401
 1332 005e 0698     		ldr	r0, [sp, #24]
 458:C:/Users/²Ü¼ÒºÀ/.iotlink/sdk/IoT_LINK/iot_link/network/lwm2m/wakaama_lwm2m/wakaama-master/core\tlv.c ****     length = prv_getLength(size, dataP);
 1333              		.loc 1 458 14 discriminator 7 view .LVU402
 1334 0060 3560     		str	r5, [r6]
 1335              		.loc 1 459 5 is_stmt 1 discriminator 7 view .LVU403
 1336              		.loc 1 459 14 is_stmt 0 discriminator 7 view .LVU404
 1337 0062 2146     		mov	r1, r4
 1338 0064 FFF7FEFF 		bl	prv_getLength
 1339              	.LVL109:
 460:C:/Users/²Ü¼ÒºÀ/.iotlink/sdk/IoT_LINK/iot_link/network/lwm2m/wakaama_lwm2m/wakaama-master/core\tlv.c ****     if (length <= 0) return length;
 1340              		.loc 1 460 5 is_stmt 1 discriminator 7 view .LVU405
 1341              		.loc 1 460 8 is_stmt 0 discriminator 7 view .LVU406
 1342 0068 071E     		subs	r7, r0, #0
 1343 006a 2ADD     		ble	.L92
 461:C:/Users/²Ü¼ÒºÀ/.iotlink/sdk/IoT_LINK/iot_link/network/lwm2m/wakaama_lwm2m/wakaama-master/core\tlv.c **** 
 462:C:/Users/²Ü¼ÒºÀ/.iotlink/sdk/IoT_LINK/iot_link/network/lwm2m/wakaama_lwm2m/wakaama-master/core\tlv.c ****     *bufferP = (uint8_t *)lwm2m_malloc(length);
 1344              		.loc 1 462 5 is_stmt 1 view .LVU407
 1345              		.loc 1 462 27 is_stmt 0 view .LVU408
 1346 006c FFF7FEFF 		bl	lwm2m_malloc
 1347              	.LVL110:
 1348              		.loc 1 462 14 view .LVU409
 1349 0070 3060     		str	r0, [r6]
 463:C:/Users/²Ü¼ÒºÀ/.iotlink/sdk/IoT_LINK/iot_link/network/lwm2m/wakaama_lwm2m/wakaama-master/core\tlv.c ****     if (*bufferP == NULL) return 0;
 1350              		.loc 1 463 5 is_stmt 1 view .LVU410
 1351              		.loc 1 463 8 is_stmt 0 view .LVU411
 1352 0072 0028     		cmp	r0, #0
 1353 0074 00F0DE80 		beq	.L115
 464:C:/Users/²Ü¼ÒºÀ/.iotlink/sdk/IoT_LINK/iot_link/network/lwm2m/wakaama_lwm2m/wakaama-master/core\tlv.c **** 
 465:C:/Users/²Ü¼ÒºÀ/.iotlink/sdk/IoT_LINK/iot_link/network/lwm2m/wakaama_lwm2m/wakaama-master/core\tlv.c ****     index = 0;
 466:C:/Users/²Ü¼ÒºÀ/.iotlink/sdk/IoT_LINK/iot_link/network/lwm2m/wakaama_lwm2m/wakaama-master/core\tlv.c ****     for (i = 0 ; i < size && length != 0 ; i++)
 1354              		.loc 1 466 12 view .LVU412
 1355 0078 AB46     		mov	fp, r5
 1356              	.LVL111:
 1357              	.L96:
 1358              		.loc 1 466 18 is_stmt 1 discriminator 1 view .LVU413
 1359              		.loc 1 466 5 is_stmt 0 discriminator 1 view .LVU414
 1360 007a 069B     		ldr	r3, [sp, #24]
 1361 007c 9B45     		cmp	fp, r3
 1362 007e 80F2D080 		bge	.L111
 1363              		.loc 1 466 27 discriminator 3 view .LVU415
 1364 0082 17BB     		cbnz	r7, .L112
 1365              	.L113:
 467:C:/Users/²Ü¼ÒºÀ/.iotlink/sdk/IoT_LINK/iot_link/network/lwm2m/wakaama_lwm2m/wakaama-master/core\tlv.c ****     {
 468:C:/Users/²Ü¼ÒºÀ/.iotlink/sdk/IoT_LINK/iot_link/network/lwm2m/wakaama_lwm2m/wakaama-master/core\tlv.c ****         int headerLen;
 469:C:/Users/²Ü¼ÒºÀ/.iotlink/sdk/IoT_LINK/iot_link/network/lwm2m/wakaama_lwm2m/wakaama-master/core\tlv.c ****         bool isInstance;
 470:C:/Users/²Ü¼ÒºÀ/.iotlink/sdk/IoT_LINK/iot_link/network/lwm2m/wakaama_lwm2m/wakaama-master/core\tlv.c **** 
 471:C:/Users/²Ü¼ÒºÀ/.iotlink/sdk/IoT_LINK/iot_link/network/lwm2m/wakaama_lwm2m/wakaama-master/core\tlv.c ****         isInstance = isResourceInstance;
 472:C:/Users/²Ü¼ÒºÀ/.iotlink/sdk/IoT_LINK/iot_link/network/lwm2m/wakaama_lwm2m/wakaama-master/core\tlv.c ****         switch (dataP[i].type)
 473:C:/Users/²Ü¼ÒºÀ/.iotlink/sdk/IoT_LINK/iot_link/network/lwm2m/wakaama_lwm2m/wakaama-master/core\tlv.c ****         {
ARM GAS  C:\Users\²Ü¼ÒºÀ\AppData\Local\Temp\ccfeMfIq.s 			page 39


 474:C:/Users/²Ü¼ÒºÀ/.iotlink/sdk/IoT_LINK/iot_link/network/lwm2m/wakaama_lwm2m/wakaama-master/core\tlv.c ****         case LWM2M_TYPE_MULTIPLE_RESOURCE:
 475:C:/Users/²Ü¼ÒºÀ/.iotlink/sdk/IoT_LINK/iot_link/network/lwm2m/wakaama_lwm2m/wakaama-master/core\tlv.c ****             isInstance = true;
 476:C:/Users/²Ü¼ÒºÀ/.iotlink/sdk/IoT_LINK/iot_link/network/lwm2m/wakaama_lwm2m/wakaama-master/core\tlv.c ****         // fall through
 477:C:/Users/²Ü¼ÒºÀ/.iotlink/sdk/IoT_LINK/iot_link/network/lwm2m/wakaama_lwm2m/wakaama-master/core\tlv.c ****         case LWM2M_TYPE_OBJECT_INSTANCE:
 478:C:/Users/²Ü¼ÒºÀ/.iotlink/sdk/IoT_LINK/iot_link/network/lwm2m/wakaama_lwm2m/wakaama-master/core\tlv.c ****         {
 479:C:/Users/²Ü¼ÒºÀ/.iotlink/sdk/IoT_LINK/iot_link/network/lwm2m/wakaama_lwm2m/wakaama-master/core\tlv.c ****             uint8_t *tmpBuffer;
 480:C:/Users/²Ü¼ÒºÀ/.iotlink/sdk/IoT_LINK/iot_link/network/lwm2m/wakaama_lwm2m/wakaama-master/core\tlv.c ****             int res;
 481:C:/Users/²Ü¼ÒºÀ/.iotlink/sdk/IoT_LINK/iot_link/network/lwm2m/wakaama_lwm2m/wakaama-master/core\tlv.c **** 
 482:C:/Users/²Ü¼ÒºÀ/.iotlink/sdk/IoT_LINK/iot_link/network/lwm2m/wakaama_lwm2m/wakaama-master/core\tlv.c ****             res = tlv_serialize(isInstance, dataP[i].value.asChildren.count, dataP[i].value.asChild
 483:C:/Users/²Ü¼ÒºÀ/.iotlink/sdk/IoT_LINK/iot_link/network/lwm2m/wakaama_lwm2m/wakaama-master/core\tlv.c ****             if (res < 0)
 484:C:/Users/²Ü¼ÒºÀ/.iotlink/sdk/IoT_LINK/iot_link/network/lwm2m/wakaama_lwm2m/wakaama-master/core\tlv.c ****             {
 485:C:/Users/²Ü¼ÒºÀ/.iotlink/sdk/IoT_LINK/iot_link/network/lwm2m/wakaama_lwm2m/wakaama-master/core\tlv.c ****                 length = -1;
 486:C:/Users/²Ü¼ÒºÀ/.iotlink/sdk/IoT_LINK/iot_link/network/lwm2m/wakaama_lwm2m/wakaama-master/core\tlv.c ****             }
 487:C:/Users/²Ü¼ÒºÀ/.iotlink/sdk/IoT_LINK/iot_link/network/lwm2m/wakaama_lwm2m/wakaama-master/core\tlv.c ****             else
 488:C:/Users/²Ü¼ÒºÀ/.iotlink/sdk/IoT_LINK/iot_link/network/lwm2m/wakaama_lwm2m/wakaama-master/core\tlv.c ****             {
 489:C:/Users/²Ü¼ÒºÀ/.iotlink/sdk/IoT_LINK/iot_link/network/lwm2m/wakaama_lwm2m/wakaama-master/core\tlv.c ****                 size_t tmpLength;
 490:C:/Users/²Ü¼ÒºÀ/.iotlink/sdk/IoT_LINK/iot_link/network/lwm2m/wakaama_lwm2m/wakaama-master/core\tlv.c **** 
 491:C:/Users/²Ü¼ÒºÀ/.iotlink/sdk/IoT_LINK/iot_link/network/lwm2m/wakaama_lwm2m/wakaama-master/core\tlv.c ****                 tmpLength = (size_t)res;
 492:C:/Users/²Ü¼ÒºÀ/.iotlink/sdk/IoT_LINK/iot_link/network/lwm2m/wakaama_lwm2m/wakaama-master/core\tlv.c ****                 headerLen = prv_createHeader(*bufferP + index, false, dataP[i].type, dataP[i].id, t
 493:C:/Users/²Ü¼ÒºÀ/.iotlink/sdk/IoT_LINK/iot_link/network/lwm2m/wakaama_lwm2m/wakaama-master/core\tlv.c ****                 index += headerLen;
 494:C:/Users/²Ü¼ÒºÀ/.iotlink/sdk/IoT_LINK/iot_link/network/lwm2m/wakaama_lwm2m/wakaama-master/core\tlv.c ****                 if (tmpLength > 0)
 495:C:/Users/²Ü¼ÒºÀ/.iotlink/sdk/IoT_LINK/iot_link/network/lwm2m/wakaama_lwm2m/wakaama-master/core\tlv.c ****                 {
 496:C:/Users/²Ü¼ÒºÀ/.iotlink/sdk/IoT_LINK/iot_link/network/lwm2m/wakaama_lwm2m/wakaama-master/core\tlv.c ****                     memcpy(*bufferP + index, tmpBuffer, tmpLength);
 497:C:/Users/²Ü¼ÒºÀ/.iotlink/sdk/IoT_LINK/iot_link/network/lwm2m/wakaama_lwm2m/wakaama-master/core\tlv.c ****                     index += tmpLength;
 498:C:/Users/²Ü¼ÒºÀ/.iotlink/sdk/IoT_LINK/iot_link/network/lwm2m/wakaama_lwm2m/wakaama-master/core\tlv.c ****                     lwm2m_free(tmpBuffer);
 499:C:/Users/²Ü¼ÒºÀ/.iotlink/sdk/IoT_LINK/iot_link/network/lwm2m/wakaama_lwm2m/wakaama-master/core\tlv.c ****                 }
 500:C:/Users/²Ü¼ÒºÀ/.iotlink/sdk/IoT_LINK/iot_link/network/lwm2m/wakaama_lwm2m/wakaama-master/core\tlv.c ****             }
 501:C:/Users/²Ü¼ÒºÀ/.iotlink/sdk/IoT_LINK/iot_link/network/lwm2m/wakaama_lwm2m/wakaama-master/core\tlv.c ****         }
 502:C:/Users/²Ü¼ÒºÀ/.iotlink/sdk/IoT_LINK/iot_link/network/lwm2m/wakaama_lwm2m/wakaama-master/core\tlv.c ****         break;
 503:C:/Users/²Ü¼ÒºÀ/.iotlink/sdk/IoT_LINK/iot_link/network/lwm2m/wakaama_lwm2m/wakaama-master/core\tlv.c **** 
 504:C:/Users/²Ü¼ÒºÀ/.iotlink/sdk/IoT_LINK/iot_link/network/lwm2m/wakaama_lwm2m/wakaama-master/core\tlv.c ****         case LWM2M_TYPE_OBJECT_LINK:
 505:C:/Users/²Ü¼ÒºÀ/.iotlink/sdk/IoT_LINK/iot_link/network/lwm2m/wakaama_lwm2m/wakaama-master/core\tlv.c ****         {
 506:C:/Users/²Ü¼ÒºÀ/.iotlink/sdk/IoT_LINK/iot_link/network/lwm2m/wakaama_lwm2m/wakaama-master/core\tlv.c ****             int k;
 507:C:/Users/²Ü¼ÒºÀ/.iotlink/sdk/IoT_LINK/iot_link/network/lwm2m/wakaama_lwm2m/wakaama-master/core\tlv.c ****             uint8_t buf[4];
 508:C:/Users/²Ü¼ÒºÀ/.iotlink/sdk/IoT_LINK/iot_link/network/lwm2m/wakaama_lwm2m/wakaama-master/core\tlv.c ****             uint32_t v = dataP[i].value.asObjLink.objectId;
 509:C:/Users/²Ü¼ÒºÀ/.iotlink/sdk/IoT_LINK/iot_link/network/lwm2m/wakaama_lwm2m/wakaama-master/core\tlv.c ****             v <<= 16;
 510:C:/Users/²Ü¼ÒºÀ/.iotlink/sdk/IoT_LINK/iot_link/network/lwm2m/wakaama_lwm2m/wakaama-master/core\tlv.c ****             v |= dataP[i].value.asObjLink.objectInstanceId;
 511:C:/Users/²Ü¼ÒºÀ/.iotlink/sdk/IoT_LINK/iot_link/network/lwm2m/wakaama_lwm2m/wakaama-master/core\tlv.c ****             for (k = 3; k >= 0; --k)
 512:C:/Users/²Ü¼ÒºÀ/.iotlink/sdk/IoT_LINK/iot_link/network/lwm2m/wakaama_lwm2m/wakaama-master/core\tlv.c ****             {
 513:C:/Users/²Ü¼ÒºÀ/.iotlink/sdk/IoT_LINK/iot_link/network/lwm2m/wakaama_lwm2m/wakaama-master/core\tlv.c ****                 buf[k] = (uint8_t)(v & 0xFF);
 514:C:/Users/²Ü¼ÒºÀ/.iotlink/sdk/IoT_LINK/iot_link/network/lwm2m/wakaama_lwm2m/wakaama-master/core\tlv.c ****                 v >>= 8;
 515:C:/Users/²Ü¼ÒºÀ/.iotlink/sdk/IoT_LINK/iot_link/network/lwm2m/wakaama_lwm2m/wakaama-master/core\tlv.c ****             }
 516:C:/Users/²Ü¼ÒºÀ/.iotlink/sdk/IoT_LINK/iot_link/network/lwm2m/wakaama_lwm2m/wakaama-master/core\tlv.c ****             // keep encoding as buffer
 517:C:/Users/²Ü¼ÒºÀ/.iotlink/sdk/IoT_LINK/iot_link/network/lwm2m/wakaama_lwm2m/wakaama-master/core\tlv.c ****             headerLen = prv_createHeader(*bufferP + index, isInstance, dataP[i].type, dataP[i].id, 
 518:C:/Users/²Ü¼ÒºÀ/.iotlink/sdk/IoT_LINK/iot_link/network/lwm2m/wakaama_lwm2m/wakaama-master/core\tlv.c ****             index += headerLen;
 519:C:/Users/²Ü¼ÒºÀ/.iotlink/sdk/IoT_LINK/iot_link/network/lwm2m/wakaama_lwm2m/wakaama-master/core\tlv.c ****             memcpy(*bufferP + index, buf, 4);
 520:C:/Users/²Ü¼ÒºÀ/.iotlink/sdk/IoT_LINK/iot_link/network/lwm2m/wakaama_lwm2m/wakaama-master/core\tlv.c ****             index += 4;
 521:C:/Users/²Ü¼ÒºÀ/.iotlink/sdk/IoT_LINK/iot_link/network/lwm2m/wakaama_lwm2m/wakaama-master/core\tlv.c ****         }
 522:C:/Users/²Ü¼ÒºÀ/.iotlink/sdk/IoT_LINK/iot_link/network/lwm2m/wakaama_lwm2m/wakaama-master/core\tlv.c ****         break;
 523:C:/Users/²Ü¼ÒºÀ/.iotlink/sdk/IoT_LINK/iot_link/network/lwm2m/wakaama_lwm2m/wakaama-master/core\tlv.c **** 
 524:C:/Users/²Ü¼ÒºÀ/.iotlink/sdk/IoT_LINK/iot_link/network/lwm2m/wakaama_lwm2m/wakaama-master/core\tlv.c ****         case LWM2M_TYPE_STRING:
 525:C:/Users/²Ü¼ÒºÀ/.iotlink/sdk/IoT_LINK/iot_link/network/lwm2m/wakaama_lwm2m/wakaama-master/core\tlv.c ****         case LWM2M_TYPE_OPAQUE:
 526:C:/Users/²Ü¼ÒºÀ/.iotlink/sdk/IoT_LINK/iot_link/network/lwm2m/wakaama_lwm2m/wakaama-master/core\tlv.c ****             headerLen = prv_createHeader(*bufferP + index, isInstance, dataP[i].type, dataP[i].id, 
 527:C:/Users/²Ü¼ÒºÀ/.iotlink/sdk/IoT_LINK/iot_link/network/lwm2m/wakaama_lwm2m/wakaama-master/core\tlv.c ****             index += headerLen;
 528:C:/Users/²Ü¼ÒºÀ/.iotlink/sdk/IoT_LINK/iot_link/network/lwm2m/wakaama_lwm2m/wakaama-master/core\tlv.c ****             memcpy(*bufferP + index, dataP[i].value.asBuffer.buffer, dataP[i].value.asBuffer.length
 529:C:/Users/²Ü¼ÒºÀ/.iotlink/sdk/IoT_LINK/iot_link/network/lwm2m/wakaama_lwm2m/wakaama-master/core\tlv.c ****             index += dataP[i].value.asBuffer.length;
 530:C:/Users/²Ü¼ÒºÀ/.iotlink/sdk/IoT_LINK/iot_link/network/lwm2m/wakaama_lwm2m/wakaama-master/core\tlv.c ****             break;
ARM GAS  C:\Users\²Ü¼ÒºÀ\AppData\Local\Temp\ccfeMfIq.s 			page 40


 531:C:/Users/²Ü¼ÒºÀ/.iotlink/sdk/IoT_LINK/iot_link/network/lwm2m/wakaama_lwm2m/wakaama-master/core\tlv.c **** 
 532:C:/Users/²Ü¼ÒºÀ/.iotlink/sdk/IoT_LINK/iot_link/network/lwm2m/wakaama_lwm2m/wakaama-master/core\tlv.c ****         case LWM2M_TYPE_INTEGER:
 533:C:/Users/²Ü¼ÒºÀ/.iotlink/sdk/IoT_LINK/iot_link/network/lwm2m/wakaama_lwm2m/wakaama-master/core\tlv.c ****         {
 534:C:/Users/²Ü¼ÒºÀ/.iotlink/sdk/IoT_LINK/iot_link/network/lwm2m/wakaama_lwm2m/wakaama-master/core\tlv.c ****             size_t data_len;
 535:C:/Users/²Ü¼ÒºÀ/.iotlink/sdk/IoT_LINK/iot_link/network/lwm2m/wakaama_lwm2m/wakaama-master/core\tlv.c ****             uint8_t data_buffer[_PRV_64BIT_BUFFER_SIZE];
 536:C:/Users/²Ü¼ÒºÀ/.iotlink/sdk/IoT_LINK/iot_link/network/lwm2m/wakaama_lwm2m/wakaama-master/core\tlv.c **** 
 537:C:/Users/²Ü¼ÒºÀ/.iotlink/sdk/IoT_LINK/iot_link/network/lwm2m/wakaama_lwm2m/wakaama-master/core\tlv.c ****             data_len = prv_encodeInt(dataP[i].value.asInteger, data_buffer);
 538:C:/Users/²Ü¼ÒºÀ/.iotlink/sdk/IoT_LINK/iot_link/network/lwm2m/wakaama_lwm2m/wakaama-master/core\tlv.c ****             headerLen = prv_createHeader(*bufferP + index, isInstance, dataP[i].type, dataP[i].id, 
 539:C:/Users/²Ü¼ÒºÀ/.iotlink/sdk/IoT_LINK/iot_link/network/lwm2m/wakaama_lwm2m/wakaama-master/core\tlv.c ****             index += headerLen;
 540:C:/Users/²Ü¼ÒºÀ/.iotlink/sdk/IoT_LINK/iot_link/network/lwm2m/wakaama_lwm2m/wakaama-master/core\tlv.c ****             memcpy(*bufferP + index, data_buffer, data_len);
 541:C:/Users/²Ü¼ÒºÀ/.iotlink/sdk/IoT_LINK/iot_link/network/lwm2m/wakaama_lwm2m/wakaama-master/core\tlv.c ****             index += data_len;
 542:C:/Users/²Ü¼ÒºÀ/.iotlink/sdk/IoT_LINK/iot_link/network/lwm2m/wakaama_lwm2m/wakaama-master/core\tlv.c ****         }
 543:C:/Users/²Ü¼ÒºÀ/.iotlink/sdk/IoT_LINK/iot_link/network/lwm2m/wakaama_lwm2m/wakaama-master/core\tlv.c ****         break;
 544:C:/Users/²Ü¼ÒºÀ/.iotlink/sdk/IoT_LINK/iot_link/network/lwm2m/wakaama_lwm2m/wakaama-master/core\tlv.c **** 
 545:C:/Users/²Ü¼ÒºÀ/.iotlink/sdk/IoT_LINK/iot_link/network/lwm2m/wakaama_lwm2m/wakaama-master/core\tlv.c ****         case LWM2M_TYPE_FLOAT:
 546:C:/Users/²Ü¼ÒºÀ/.iotlink/sdk/IoT_LINK/iot_link/network/lwm2m/wakaama_lwm2m/wakaama-master/core\tlv.c ****         {
 547:C:/Users/²Ü¼ÒºÀ/.iotlink/sdk/IoT_LINK/iot_link/network/lwm2m/wakaama_lwm2m/wakaama-master/core\tlv.c ****             size_t data_len;
 548:C:/Users/²Ü¼ÒºÀ/.iotlink/sdk/IoT_LINK/iot_link/network/lwm2m/wakaama_lwm2m/wakaama-master/core\tlv.c ****             uint8_t data_buffer[_PRV_64BIT_BUFFER_SIZE];
 549:C:/Users/²Ü¼ÒºÀ/.iotlink/sdk/IoT_LINK/iot_link/network/lwm2m/wakaama_lwm2m/wakaama-master/core\tlv.c **** 
 550:C:/Users/²Ü¼ÒºÀ/.iotlink/sdk/IoT_LINK/iot_link/network/lwm2m/wakaama_lwm2m/wakaama-master/core\tlv.c ****             data_len = prv_encodeFloat(dataP[i].value.asFloat, data_buffer);
 551:C:/Users/²Ü¼ÒºÀ/.iotlink/sdk/IoT_LINK/iot_link/network/lwm2m/wakaama_lwm2m/wakaama-master/core\tlv.c ****             headerLen = prv_createHeader(*bufferP + index, isInstance, dataP[i].type, dataP[i].id, 
 552:C:/Users/²Ü¼ÒºÀ/.iotlink/sdk/IoT_LINK/iot_link/network/lwm2m/wakaama_lwm2m/wakaama-master/core\tlv.c ****             index += headerLen;
 553:C:/Users/²Ü¼ÒºÀ/.iotlink/sdk/IoT_LINK/iot_link/network/lwm2m/wakaama_lwm2m/wakaama-master/core\tlv.c ****             memcpy(*bufferP + index, data_buffer, data_len);
 554:C:/Users/²Ü¼ÒºÀ/.iotlink/sdk/IoT_LINK/iot_link/network/lwm2m/wakaama_lwm2m/wakaama-master/core\tlv.c ****             index += data_len;
 555:C:/Users/²Ü¼ÒºÀ/.iotlink/sdk/IoT_LINK/iot_link/network/lwm2m/wakaama_lwm2m/wakaama-master/core\tlv.c ****         }
 556:C:/Users/²Ü¼ÒºÀ/.iotlink/sdk/IoT_LINK/iot_link/network/lwm2m/wakaama_lwm2m/wakaama-master/core\tlv.c ****         break;
 557:C:/Users/²Ü¼ÒºÀ/.iotlink/sdk/IoT_LINK/iot_link/network/lwm2m/wakaama_lwm2m/wakaama-master/core\tlv.c **** 
 558:C:/Users/²Ü¼ÒºÀ/.iotlink/sdk/IoT_LINK/iot_link/network/lwm2m/wakaama_lwm2m/wakaama-master/core\tlv.c ****         case LWM2M_TYPE_BOOLEAN:
 559:C:/Users/²Ü¼ÒºÀ/.iotlink/sdk/IoT_LINK/iot_link/network/lwm2m/wakaama_lwm2m/wakaama-master/core\tlv.c ****             headerLen = prv_createHeader(*bufferP + index, isInstance, dataP[i].type, dataP[i].id, 
 560:C:/Users/²Ü¼ÒºÀ/.iotlink/sdk/IoT_LINK/iot_link/network/lwm2m/wakaama_lwm2m/wakaama-master/core\tlv.c ****             index += headerLen;
 561:C:/Users/²Ü¼ÒºÀ/.iotlink/sdk/IoT_LINK/iot_link/network/lwm2m/wakaama_lwm2m/wakaama-master/core\tlv.c ****             (*bufferP)[index] = dataP[i].value.asBoolean ? 1 : 0;
 562:C:/Users/²Ü¼ÒºÀ/.iotlink/sdk/IoT_LINK/iot_link/network/lwm2m/wakaama_lwm2m/wakaama-master/core\tlv.c ****             index += 1;
 563:C:/Users/²Ü¼ÒºÀ/.iotlink/sdk/IoT_LINK/iot_link/network/lwm2m/wakaama_lwm2m/wakaama-master/core\tlv.c ****             break;
 564:C:/Users/²Ü¼ÒºÀ/.iotlink/sdk/IoT_LINK/iot_link/network/lwm2m/wakaama_lwm2m/wakaama-master/core\tlv.c **** 
 565:C:/Users/²Ü¼ÒºÀ/.iotlink/sdk/IoT_LINK/iot_link/network/lwm2m/wakaama_lwm2m/wakaama-master/core\tlv.c ****         default:
 566:C:/Users/²Ü¼ÒºÀ/.iotlink/sdk/IoT_LINK/iot_link/network/lwm2m/wakaama_lwm2m/wakaama-master/core\tlv.c ****             length = -1;
 567:C:/Users/²Ü¼ÒºÀ/.iotlink/sdk/IoT_LINK/iot_link/network/lwm2m/wakaama_lwm2m/wakaama-master/core\tlv.c ****             break;
 568:C:/Users/²Ü¼ÒºÀ/.iotlink/sdk/IoT_LINK/iot_link/network/lwm2m/wakaama_lwm2m/wakaama-master/core\tlv.c ****         }
 569:C:/Users/²Ü¼ÒºÀ/.iotlink/sdk/IoT_LINK/iot_link/network/lwm2m/wakaama_lwm2m/wakaama-master/core\tlv.c ****     }
 570:C:/Users/²Ü¼ÒºÀ/.iotlink/sdk/IoT_LINK/iot_link/network/lwm2m/wakaama_lwm2m/wakaama-master/core\tlv.c **** 
 571:C:/Users/²Ü¼ÒºÀ/.iotlink/sdk/IoT_LINK/iot_link/network/lwm2m/wakaama_lwm2m/wakaama-master/core\tlv.c ****     if (length < 0)
 572:C:/Users/²Ü¼ÒºÀ/.iotlink/sdk/IoT_LINK/iot_link/network/lwm2m/wakaama_lwm2m/wakaama-master/core\tlv.c ****     {
 573:C:/Users/²Ü¼ÒºÀ/.iotlink/sdk/IoT_LINK/iot_link/network/lwm2m/wakaama_lwm2m/wakaama-master/core\tlv.c ****         lwm2m_free(*bufferP);
 574:C:/Users/²Ü¼ÒºÀ/.iotlink/sdk/IoT_LINK/iot_link/network/lwm2m/wakaama_lwm2m/wakaama-master/core\tlv.c ****         *bufferP = NULL;
 575:C:/Users/²Ü¼ÒºÀ/.iotlink/sdk/IoT_LINK/iot_link/network/lwm2m/wakaama_lwm2m/wakaama-master/core\tlv.c ****     }
 576:C:/Users/²Ü¼ÒºÀ/.iotlink/sdk/IoT_LINK/iot_link/network/lwm2m/wakaama_lwm2m/wakaama-master/core\tlv.c **** 
 577:C:/Users/²Ü¼ÒºÀ/.iotlink/sdk/IoT_LINK/iot_link/network/lwm2m/wakaama_lwm2m/wakaama-master/core\tlv.c ****     LOG_ARG("returning %u", length);
 1366              		.loc 1 577 5 is_stmt 1 view .LVU416
 1367              		.loc 1 577 5 view .LVU417
 1368 0084 FFF7FEFF 		bl	link_log_level_get
 1369              	.LVL112:
 1370 0088 0128     		cmp	r0, #1
 1371 008a 1AD8     		bhi	.L92
 1372              		.loc 1 577 5 discriminator 1 view .LVU418
 1373              		.loc 1 577 5 discriminator 1 view .LVU419
 1374              		.loc 1 577 5 discriminator 1 view .LVU420
 1375 008c 0120     		movs	r0, #1
ARM GAS  C:\Users\²Ü¼ÒºÀ\AppData\Local\Temp\ccfeMfIq.s 			page 41


 1376 008e FFF7FEFF 		bl	link_log_level_name
 1377              	.LVL113:
 1378 0092 0446     		mov	r4, r0
 1379 0094 FFF7FEFF 		bl	osal_sys_time
 1380              	.LVL114:
 1381 0098 0690     		str	r0, [sp, #24]
 1382              	.LVL115:
 1383              		.loc 1 577 5 is_stmt 0 discriminator 1 view .LVU421
 1384 009a FFF7FEFF 		bl	lwm2m_gettime
 1385              	.LVL116:
 1386 009e 40F24123 		movw	r3, #577
 1387 00a2 0293     		str	r3, [sp, #8]
 1388 00a4 664B     		ldr	r3, .L123+8
 1389 00a6 069A     		ldr	r2, [sp, #24]
 1390 00a8 0397     		str	r7, [sp, #12]
 1391 00aa CDE90003 		strd	r0, r3, [sp]
 1392 00ae 2146     		mov	r1, r4
 1393 00b0 644B     		ldr	r3, .L123+12
 1394 00b2 6748     		ldr	r0, .L123+24
 1395 00b4 FFF7FEFF 		bl	printf
 1396              	.LVL117:
 1397              		.loc 1 577 5 is_stmt 1 discriminator 1 view .LVU422
 1398 00b8 644B     		ldr	r3, .L123+20
 1399 00ba 1B68     		ldr	r3, [r3]
 1400 00bc 9868     		ldr	r0, [r3, #8]
 1401 00be FFF7FEFF 		bl	fflush
 1402              	.LVL118:
 1403              	.L92:
 578:C:/Users/²Ü¼ÒºÀ/.iotlink/sdk/IoT_LINK/iot_link/network/lwm2m/wakaama_lwm2m/wakaama-master/core\tlv.c **** 
 579:C:/Users/²Ü¼ÒºÀ/.iotlink/sdk/IoT_LINK/iot_link/network/lwm2m/wakaama_lwm2m/wakaama-master/core\tlv.c ****     return length;
 580:C:/Users/²Ü¼ÒºÀ/.iotlink/sdk/IoT_LINK/iot_link/network/lwm2m/wakaama_lwm2m/wakaama-master/core\tlv.c **** }
 1404              		.loc 1 580 1 is_stmt 0 view .LVU423
 1405 00c2 3846     		mov	r0, r7
 1406 00c4 0FB0     		add	sp, sp, #60
 1407              	.LCFI18:
 1408              		.cfi_remember_state
 1409              		.cfi_def_cfa_offset 36
 1410              		@ sp needed
 1411 00c6 BDE8F08F 		pop	{r4, r5, r6, r7, r8, r9, r10, fp, pc}
 1412              	.LVL119:
 1413              	.L112:
 1414              	.LCFI19:
 1415              		.cfi_restore_state
 1416              	.LBB41:
 468:C:/Users/²Ü¼ÒºÀ/.iotlink/sdk/IoT_LINK/iot_link/network/lwm2m/wakaama_lwm2m/wakaama-master/core\tlv.c ****         bool isInstance;
 1417              		.loc 1 468 9 is_stmt 1 view .LVU424
 469:C:/Users/²Ü¼ÒºÀ/.iotlink/sdk/IoT_LINK/iot_link/network/lwm2m/wakaama_lwm2m/wakaama-master/core\tlv.c **** 
 1418              		.loc 1 469 9 view .LVU425
 471:C:/Users/²Ü¼ÒºÀ/.iotlink/sdk/IoT_LINK/iot_link/network/lwm2m/wakaama_lwm2m/wakaama-master/core\tlv.c ****         switch (dataP[i].type)
 1419              		.loc 1 471 9 view .LVU426
 472:C:/Users/²Ü¼ÒºÀ/.iotlink/sdk/IoT_LINK/iot_link/network/lwm2m/wakaama_lwm2m/wakaama-master/core\tlv.c ****         {
 1420              		.loc 1 472 9 view .LVU427
 472:C:/Users/²Ü¼ÒºÀ/.iotlink/sdk/IoT_LINK/iot_link/network/lwm2m/wakaama_lwm2m/wakaama-master/core\tlv.c ****         {
 1421              		.loc 1 472 25 is_stmt 0 view .LVU428
 1422 00ca 2278     		ldrb	r2, [r4]	@ zero_extendqisi2
 1423 00cc 931E     		subs	r3, r2, #2
 1424 00ce 072B     		cmp	r3, #7
ARM GAS  C:\Users\²Ü¼ÒºÀ\AppData\Local\Temp\ccfeMfIq.s 			page 42


 1425 00d0 00F2A480 		bhi	.L116
 1426 00d4 DFE803F0 		tbb	[pc, r3]
 1427              	.L99:
 1428 00d8 29       		.byte	(.L117-.L99)/2
 1429 00d9 04       		.byte	(.L104-.L99)/2
 1430 00da 40       		.byte	(.L103-.L99)/2
 1431 00db 40       		.byte	(.L103-.L99)/2
 1432 00dc 52       		.byte	(.L102-.L99)/2
 1433 00dd 6A       		.byte	(.L101-.L99)/2
 1434 00de 93       		.byte	(.L100-.L99)/2
 1435 00df 2B       		.byte	(.L98-.L99)/2
 1436              		.p2align 1
 1437              	.L104:
 1438 00e0 0120     		movs	r0, #1
 1439              	.L105:
 1440              	.LVL120:
 1441              	.LBB42:
 479:C:/Users/²Ü¼ÒºÀ/.iotlink/sdk/IoT_LINK/iot_link/network/lwm2m/wakaama_lwm2m/wakaama-master/core\tlv.c ****             int res;
 1442              		.loc 1 479 13 is_stmt 1 view .LVU429
 480:C:/Users/²Ü¼ÒºÀ/.iotlink/sdk/IoT_LINK/iot_link/network/lwm2m/wakaama_lwm2m/wakaama-master/core\tlv.c **** 
 1443              		.loc 1 480 13 view .LVU430
 482:C:/Users/²Ü¼ÒºÀ/.iotlink/sdk/IoT_LINK/iot_link/network/lwm2m/wakaama_lwm2m/wakaama-master/core\tlv.c ****             if (res < 0)
 1444              		.loc 1 482 13 view .LVU431
 482:C:/Users/²Ü¼ÒºÀ/.iotlink/sdk/IoT_LINK/iot_link/network/lwm2m/wakaama_lwm2m/wakaama-master/core\tlv.c ****             if (res < 0)
 1445              		.loc 1 482 19 is_stmt 0 view .LVU432
 1446 00e2 D4E90212 		ldrd	r1, r2, [r4, #8]
 1447 00e6 0CAB     		add	r3, sp, #48
 1448 00e8 FFF7FEFF 		bl	tlv_serialize
 1449              	.LVL121:
 483:C:/Users/²Ü¼ÒºÀ/.iotlink/sdk/IoT_LINK/iot_link/network/lwm2m/wakaama_lwm2m/wakaama-master/core\tlv.c ****             {
 1450              		.loc 1 483 13 is_stmt 1 view .LVU433
 483:C:/Users/²Ü¼ÒºÀ/.iotlink/sdk/IoT_LINK/iot_link/network/lwm2m/wakaama_lwm2m/wakaama-master/core\tlv.c ****             {
 1451              		.loc 1 483 16 is_stmt 0 view .LVU434
 1452 00ec B0F10008 		subs	r8, r0, #0
 1453 00f0 C0F29480 		blt	.L116
 1454              	.LBB43:
 489:C:/Users/²Ü¼ÒºÀ/.iotlink/sdk/IoT_LINK/iot_link/network/lwm2m/wakaama_lwm2m/wakaama-master/core\tlv.c **** 
 1455              		.loc 1 489 17 is_stmt 1 view .LVU435
 491:C:/Users/²Ü¼ÒºÀ/.iotlink/sdk/IoT_LINK/iot_link/network/lwm2m/wakaama_lwm2m/wakaama-master/core\tlv.c ****                 headerLen = prv_createHeader(*bufferP + index, false, dataP[i].type, dataP[i].id, t
 1456              		.loc 1 491 17 view .LVU436
 1457              	.LVL122:
 492:C:/Users/²Ü¼ÒºÀ/.iotlink/sdk/IoT_LINK/iot_link/network/lwm2m/wakaama_lwm2m/wakaama-master/core\tlv.c ****                 index += headerLen;
 1458              		.loc 1 492 17 view .LVU437
 492:C:/Users/²Ü¼ÒºÀ/.iotlink/sdk/IoT_LINK/iot_link/network/lwm2m/wakaama_lwm2m/wakaama-master/core\tlv.c ****                 index += headerLen;
 1459              		.loc 1 492 29 is_stmt 0 view .LVU438
 1460 00f4 3068     		ldr	r0, [r6]
 1461              	.LVL123:
 492:C:/Users/²Ü¼ÒºÀ/.iotlink/sdk/IoT_LINK/iot_link/network/lwm2m/wakaama_lwm2m/wakaama-master/core\tlv.c ****                 index += headerLen;
 1462              		.loc 1 492 29 view .LVU439
 1463 00f6 6388     		ldrh	r3, [r4, #2]
 1464 00f8 CDF80080 		str	r8, [sp]
 1465 00fc 2844     		add	r0, r0, r5
 1466 00fe 2278     		ldrb	r2, [r4]	@ zero_extendqisi2
 1467 0100 0021     		movs	r1, #0
 1468 0102 FFF7FEFF 		bl	prv_createHeader
 1469              	.LVL124:
 493:C:/Users/²Ü¼ÒºÀ/.iotlink/sdk/IoT_LINK/iot_link/network/lwm2m/wakaama_lwm2m/wakaama-master/core\tlv.c ****                 if (tmpLength > 0)
ARM GAS  C:\Users\²Ü¼ÒºÀ\AppData\Local\Temp\ccfeMfIq.s 			page 43


 1470              		.loc 1 493 17 is_stmt 1 view .LVU440
 493:C:/Users/²Ü¼ÒºÀ/.iotlink/sdk/IoT_LINK/iot_link/network/lwm2m/wakaama_lwm2m/wakaama-master/core\tlv.c ****                 if (tmpLength > 0)
 1471              		.loc 1 493 23 is_stmt 0 view .LVU441
 1472 0106 0544     		add	r5, r5, r0
 1473              	.LVL125:
 494:C:/Users/²Ü¼ÒºÀ/.iotlink/sdk/IoT_LINK/iot_link/network/lwm2m/wakaama_lwm2m/wakaama-master/core\tlv.c ****                 {
 1474              		.loc 1 494 17 is_stmt 1 view .LVU442
 494:C:/Users/²Ü¼ÒºÀ/.iotlink/sdk/IoT_LINK/iot_link/network/lwm2m/wakaama_lwm2m/wakaama-master/core\tlv.c ****                 {
 1475              		.loc 1 494 20 is_stmt 0 view .LVU443
 1476 0108 B8F1000F 		cmp	r8, #0
 1477 010c 09D0     		beq	.L97
 496:C:/Users/²Ü¼ÒºÀ/.iotlink/sdk/IoT_LINK/iot_link/network/lwm2m/wakaama_lwm2m/wakaama-master/core\tlv.c ****                     index += tmpLength;
 1478              		.loc 1 496 21 is_stmt 1 view .LVU444
 496:C:/Users/²Ü¼ÒºÀ/.iotlink/sdk/IoT_LINK/iot_link/network/lwm2m/wakaama_lwm2m/wakaama-master/core\tlv.c ****                     index += tmpLength;
 1479              		.loc 1 496 37 is_stmt 0 view .LVU445
 1480 010e 3068     		ldr	r0, [r6]
 1481              	.LVL126:
 496:C:/Users/²Ü¼ÒºÀ/.iotlink/sdk/IoT_LINK/iot_link/network/lwm2m/wakaama_lwm2m/wakaama-master/core\tlv.c ****                     index += tmpLength;
 1482              		.loc 1 496 21 view .LVU446
 1483 0110 0C99     		ldr	r1, [sp, #48]
 1484 0112 2844     		add	r0, r0, r5
 1485 0114 4246     		mov	r2, r8
 1486 0116 FFF7FEFF 		bl	memcpy
 1487              	.LVL127:
 497:C:/Users/²Ü¼ÒºÀ/.iotlink/sdk/IoT_LINK/iot_link/network/lwm2m/wakaama_lwm2m/wakaama-master/core\tlv.c ****                     lwm2m_free(tmpBuffer);
 1488              		.loc 1 497 21 is_stmt 1 view .LVU447
 498:C:/Users/²Ü¼ÒºÀ/.iotlink/sdk/IoT_LINK/iot_link/network/lwm2m/wakaama_lwm2m/wakaama-master/core\tlv.c ****                 }
 1489              		.loc 1 498 21 is_stmt 0 view .LVU448
 1490 011a 0C98     		ldr	r0, [sp, #48]
 497:C:/Users/²Ü¼ÒºÀ/.iotlink/sdk/IoT_LINK/iot_link/network/lwm2m/wakaama_lwm2m/wakaama-master/core\tlv.c ****                     lwm2m_free(tmpBuffer);
 1491              		.loc 1 497 27 view .LVU449
 1492 011c 4544     		add	r5, r5, r8
 1493              	.LVL128:
 498:C:/Users/²Ü¼ÒºÀ/.iotlink/sdk/IoT_LINK/iot_link/network/lwm2m/wakaama_lwm2m/wakaama-master/core\tlv.c ****                 }
 1494              		.loc 1 498 21 is_stmt 1 view .LVU450
 1495 011e FFF7FEFF 		bl	lwm2m_free
 1496              	.LVL129:
 1497              	.L97:
 498:C:/Users/²Ü¼ÒºÀ/.iotlink/sdk/IoT_LINK/iot_link/network/lwm2m/wakaama_lwm2m/wakaama-master/core\tlv.c ****                 }
 1498              		.loc 1 498 21 is_stmt 0 view .LVU451
 1499              	.LBE43:
 1500              	.LBE42:
 1501              	.LBE41:
 466:C:/Users/²Ü¼ÒºÀ/.iotlink/sdk/IoT_LINK/iot_link/network/lwm2m/wakaama_lwm2m/wakaama-master/core\tlv.c ****     {
 1502              		.loc 1 466 44 is_stmt 1 discriminator 2 view .LVU452
 466:C:/Users/²Ü¼ÒºÀ/.iotlink/sdk/IoT_LINK/iot_link/network/lwm2m/wakaama_lwm2m/wakaama-master/core\tlv.c ****     {
 1503              		.loc 1 466 45 is_stmt 0 discriminator 2 view .LVU453
 1504 0122 0BF1010B 		add	fp, fp, #1
 1505              	.LVL130:
 466:C:/Users/²Ü¼ÒºÀ/.iotlink/sdk/IoT_LINK/iot_link/network/lwm2m/wakaama_lwm2m/wakaama-master/core\tlv.c ****     {
 1506              		.loc 1 466 45 discriminator 2 view .LVU454
 1507 0126 1034     		adds	r4, r4, #16
 1508 0128 A7E7     		b	.L96
 1509              	.L117:
 1510              	.LBB54:
 472:C:/Users/²Ü¼ÒºÀ/.iotlink/sdk/IoT_LINK/iot_link/network/lwm2m/wakaama_lwm2m/wakaama-master/core\tlv.c ****         {
 1511              		.loc 1 472 25 view .LVU455
ARM GAS  C:\Users\²Ü¼ÒºÀ\AppData\Local\Temp\ccfeMfIq.s 			page 44


 1512 012a 5046     		mov	r0, r10
 1513 012c D9E7     		b	.L105
 1514              	.L98:
 1515              	.LBB44:
 506:C:/Users/²Ü¼ÒºÀ/.iotlink/sdk/IoT_LINK/iot_link/network/lwm2m/wakaama_lwm2m/wakaama-master/core\tlv.c ****             uint8_t buf[4];
 1516              		.loc 1 506 13 is_stmt 1 view .LVU456
 507:C:/Users/²Ü¼ÒºÀ/.iotlink/sdk/IoT_LINK/iot_link/network/lwm2m/wakaama_lwm2m/wakaama-master/core\tlv.c ****             uint32_t v = dataP[i].value.asObjLink.objectId;
 1517              		.loc 1 507 13 view .LVU457
 508:C:/Users/²Ü¼ÒºÀ/.iotlink/sdk/IoT_LINK/iot_link/network/lwm2m/wakaama_lwm2m/wakaama-master/core\tlv.c ****             v <<= 16;
 1518              		.loc 1 508 13 view .LVU458
 508:C:/Users/²Ü¼ÒºÀ/.iotlink/sdk/IoT_LINK/iot_link/network/lwm2m/wakaama_lwm2m/wakaama-master/core\tlv.c ****             v <<= 16;
 1519              		.loc 1 508 22 is_stmt 0 view .LVU459
 1520 012e 2289     		ldrh	r2, [r4, #8]
 1521              	.LVL131:
 509:C:/Users/²Ü¼ÒºÀ/.iotlink/sdk/IoT_LINK/iot_link/network/lwm2m/wakaama_lwm2m/wakaama-master/core\tlv.c ****             v |= dataP[i].value.asObjLink.objectInstanceId;
 1522              		.loc 1 509 13 is_stmt 1 view .LVU460
 510:C:/Users/²Ü¼ÒºÀ/.iotlink/sdk/IoT_LINK/iot_link/network/lwm2m/wakaama_lwm2m/wakaama-master/core\tlv.c ****             for (k = 3; k >= 0; --k)
 1523              		.loc 1 510 13 view .LVU461
 511:C:/Users/²Ü¼ÒºÀ/.iotlink/sdk/IoT_LINK/iot_link/network/lwm2m/wakaama_lwm2m/wakaama-master/core\tlv.c ****             {
 1524              		.loc 1 511 13 view .LVU462
 511:C:/Users/²Ü¼ÒºÀ/.iotlink/sdk/IoT_LINK/iot_link/network/lwm2m/wakaama_lwm2m/wakaama-master/core\tlv.c ****             {
 1525              		.loc 1 511 25 view .LVU463
 513:C:/Users/²Ü¼ÒºÀ/.iotlink/sdk/IoT_LINK/iot_link/network/lwm2m/wakaama_lwm2m/wakaama-master/core\tlv.c ****                 v >>= 8;
 1526              		.loc 1 513 17 view .LVU464
 514:C:/Users/²Ü¼ÒºÀ/.iotlink/sdk/IoT_LINK/iot_link/network/lwm2m/wakaama_lwm2m/wakaama-master/core\tlv.c ****             }
 1527              		.loc 1 514 17 view .LVU465
 511:C:/Users/²Ü¼ÒºÀ/.iotlink/sdk/IoT_LINK/iot_link/network/lwm2m/wakaama_lwm2m/wakaama-master/core\tlv.c ****             {
 1528              		.loc 1 511 33 view .LVU466
 511:C:/Users/²Ü¼ÒºÀ/.iotlink/sdk/IoT_LINK/iot_link/network/lwm2m/wakaama_lwm2m/wakaama-master/core\tlv.c ****             {
 1529              		.loc 1 511 25 view .LVU467
 513:C:/Users/²Ü¼ÒºÀ/.iotlink/sdk/IoT_LINK/iot_link/network/lwm2m/wakaama_lwm2m/wakaama-master/core\tlv.c ****                 v >>= 8;
 1530              		.loc 1 513 17 view .LVU468
 514:C:/Users/²Ü¼ÒºÀ/.iotlink/sdk/IoT_LINK/iot_link/network/lwm2m/wakaama_lwm2m/wakaama-master/core\tlv.c ****             }
 1531              		.loc 1 514 17 view .LVU469
 511:C:/Users/²Ü¼ÒºÀ/.iotlink/sdk/IoT_LINK/iot_link/network/lwm2m/wakaama_lwm2m/wakaama-master/core\tlv.c ****             {
 1532              		.loc 1 511 33 view .LVU470
 511:C:/Users/²Ü¼ÒºÀ/.iotlink/sdk/IoT_LINK/iot_link/network/lwm2m/wakaama_lwm2m/wakaama-master/core\tlv.c ****             {
 1533              		.loc 1 511 25 view .LVU471
 513:C:/Users/²Ü¼ÒºÀ/.iotlink/sdk/IoT_LINK/iot_link/network/lwm2m/wakaama_lwm2m/wakaama-master/core\tlv.c ****                 v >>= 8;
 1534              		.loc 1 513 17 view .LVU472
 514:C:/Users/²Ü¼ÒºÀ/.iotlink/sdk/IoT_LINK/iot_link/network/lwm2m/wakaama_lwm2m/wakaama-master/core\tlv.c ****             }
 1535              		.loc 1 514 17 view .LVU473
 511:C:/Users/²Ü¼ÒºÀ/.iotlink/sdk/IoT_LINK/iot_link/network/lwm2m/wakaama_lwm2m/wakaama-master/core\tlv.c ****             {
 1536              		.loc 1 511 33 view .LVU474
 511:C:/Users/²Ü¼ÒºÀ/.iotlink/sdk/IoT_LINK/iot_link/network/lwm2m/wakaama_lwm2m/wakaama-master/core\tlv.c ****             {
 1537              		.loc 1 511 25 view .LVU475
 513:C:/Users/²Ü¼ÒºÀ/.iotlink/sdk/IoT_LINK/iot_link/network/lwm2m/wakaama_lwm2m/wakaama-master/core\tlv.c ****                 v >>= 8;
 1538              		.loc 1 513 17 view .LVU476
 510:C:/Users/²Ü¼ÒºÀ/.iotlink/sdk/IoT_LINK/iot_link/network/lwm2m/wakaama_lwm2m/wakaama-master/core\tlv.c ****             for (k = 3; k >= 0; --k)
 1539              		.loc 1 510 42 is_stmt 0 view .LVU477
 1540 0130 6389     		ldrh	r3, [r4, #10]
 517:C:/Users/²Ü¼ÒºÀ/.iotlink/sdk/IoT_LINK/iot_link/network/lwm2m/wakaama_lwm2m/wakaama-master/core\tlv.c ****             index += headerLen;
 1541              		.loc 1 517 25 view .LVU478
 1542 0132 3068     		ldr	r0, [r6]
 510:C:/Users/²Ü¼ÒºÀ/.iotlink/sdk/IoT_LINK/iot_link/network/lwm2m/wakaama_lwm2m/wakaama-master/core\tlv.c ****             for (k = 3; k >= 0; --k)
 1543              		.loc 1 510 15 view .LVU479
 1544 0134 43EA0243 		orr	r3, r3, r2, lsl #16
ARM GAS  C:\Users\²Ü¼ÒºÀ\AppData\Local\Temp\ccfeMfIq.s 			page 45


 1545 0138 1BBA     		rev	r3, r3
 517:C:/Users/²Ü¼ÒºÀ/.iotlink/sdk/IoT_LINK/iot_link/network/lwm2m/wakaama_lwm2m/wakaama-master/core\tlv.c ****             index += headerLen;
 1546              		.loc 1 517 25 view .LVU480
 1547 013a 0422     		movs	r2, #4
 1548              	.LVL132:
 513:C:/Users/²Ü¼ÒºÀ/.iotlink/sdk/IoT_LINK/iot_link/network/lwm2m/wakaama_lwm2m/wakaama-master/core\tlv.c ****                 v >>= 8;
 1549              		.loc 1 513 24 view .LVU481
 1550 013c 0C93     		str	r3, [sp, #48]
 514:C:/Users/²Ü¼ÒºÀ/.iotlink/sdk/IoT_LINK/iot_link/network/lwm2m/wakaama_lwm2m/wakaama-master/core\tlv.c ****             }
 1551              		.loc 1 514 17 is_stmt 1 view .LVU482
 1552              	.LVL133:
 511:C:/Users/²Ü¼ÒºÀ/.iotlink/sdk/IoT_LINK/iot_link/network/lwm2m/wakaama_lwm2m/wakaama-master/core\tlv.c ****             {
 1553              		.loc 1 511 33 view .LVU483
 511:C:/Users/²Ü¼ÒºÀ/.iotlink/sdk/IoT_LINK/iot_link/network/lwm2m/wakaama_lwm2m/wakaama-master/core\tlv.c ****             {
 1554              		.loc 1 511 25 view .LVU484
 517:C:/Users/²Ü¼ÒºÀ/.iotlink/sdk/IoT_LINK/iot_link/network/lwm2m/wakaama_lwm2m/wakaama-master/core\tlv.c ****             index += headerLen;
 1555              		.loc 1 517 13 view .LVU485
 517:C:/Users/²Ü¼ÒºÀ/.iotlink/sdk/IoT_LINK/iot_link/network/lwm2m/wakaama_lwm2m/wakaama-master/core\tlv.c ****             index += headerLen;
 1556              		.loc 1 517 25 is_stmt 0 view .LVU486
 1557 013e 2844     		add	r0, r0, r5
 1558 0140 6388     		ldrh	r3, [r4, #2]
 1559 0142 0092     		str	r2, [sp]
 1560 0144 5146     		mov	r1, r10
 1561 0146 0922     		movs	r2, #9
 1562 0148 FFF7FEFF 		bl	prv_createHeader
 1563              	.LVL134:
 518:C:/Users/²Ü¼ÒºÀ/.iotlink/sdk/IoT_LINK/iot_link/network/lwm2m/wakaama_lwm2m/wakaama-master/core\tlv.c ****             memcpy(*bufferP + index, buf, 4);
 1564              		.loc 1 518 13 is_stmt 1 view .LVU487
 519:C:/Users/²Ü¼ÒºÀ/.iotlink/sdk/IoT_LINK/iot_link/network/lwm2m/wakaama_lwm2m/wakaama-master/core\tlv.c ****             index += 4;
 1565              		.loc 1 519 13 is_stmt 0 view .LVU488
 1566 014c 3368     		ldr	r3, [r6]
 1567 014e 0C9A     		ldr	r2, [sp, #48]
 518:C:/Users/²Ü¼ÒºÀ/.iotlink/sdk/IoT_LINK/iot_link/network/lwm2m/wakaama_lwm2m/wakaama-master/core\tlv.c ****             memcpy(*bufferP + index, buf, 4);
 1568              		.loc 1 518 19 view .LVU489
 1569 0150 2844     		add	r0, r0, r5
 1570              	.LVL135:
 519:C:/Users/²Ü¼ÒºÀ/.iotlink/sdk/IoT_LINK/iot_link/network/lwm2m/wakaama_lwm2m/wakaama-master/core\tlv.c ****             index += 4;
 1571              		.loc 1 519 13 is_stmt 1 view .LVU490
 520:C:/Users/²Ü¼ÒºÀ/.iotlink/sdk/IoT_LINK/iot_link/network/lwm2m/wakaama_lwm2m/wakaama-master/core\tlv.c ****         }
 1572              		.loc 1 520 19 is_stmt 0 view .LVU491
 1573 0152 051D     		adds	r5, r0, #4
 519:C:/Users/²Ü¼ÒºÀ/.iotlink/sdk/IoT_LINK/iot_link/network/lwm2m/wakaama_lwm2m/wakaama-master/core\tlv.c ****             index += 4;
 1574              		.loc 1 519 13 view .LVU492
 1575 0154 1A50     		str	r2, [r3, r0]	@ unaligned
 520:C:/Users/²Ü¼ÒºÀ/.iotlink/sdk/IoT_LINK/iot_link/network/lwm2m/wakaama_lwm2m/wakaama-master/core\tlv.c ****         }
 1576              		.loc 1 520 13 is_stmt 1 view .LVU493
 1577              	.LVL136:
 520:C:/Users/²Ü¼ÒºÀ/.iotlink/sdk/IoT_LINK/iot_link/network/lwm2m/wakaama_lwm2m/wakaama-master/core\tlv.c ****         }
 1578              		.loc 1 520 13 is_stmt 0 view .LVU494
 1579              	.LBE44:
 522:C:/Users/²Ü¼ÒºÀ/.iotlink/sdk/IoT_LINK/iot_link/network/lwm2m/wakaama_lwm2m/wakaama-master/core\tlv.c **** 
 1580              		.loc 1 522 9 is_stmt 1 view .LVU495
 1581 0156 E4E7     		b	.L97
 1582              	.LVL137:
 1583              	.L103:
 526:C:/Users/²Ü¼ÒºÀ/.iotlink/sdk/IoT_LINK/iot_link/network/lwm2m/wakaama_lwm2m/wakaama-master/core\tlv.c ****             index += headerLen;
 1584              		.loc 1 526 13 view .LVU496
ARM GAS  C:\Users\²Ü¼ÒºÀ\AppData\Local\Temp\ccfeMfIq.s 			page 46


 526:C:/Users/²Ü¼ÒºÀ/.iotlink/sdk/IoT_LINK/iot_link/network/lwm2m/wakaama_lwm2m/wakaama-master/core\tlv.c ****             index += headerLen;
 1585              		.loc 1 526 25 is_stmt 0 view .LVU497
 1586 0158 3068     		ldr	r0, [r6]
 1587 015a A168     		ldr	r1, [r4, #8]
 1588 015c 6388     		ldrh	r3, [r4, #2]
 1589 015e 0091     		str	r1, [sp]
 1590 0160 2844     		add	r0, r0, r5
 1591 0162 5146     		mov	r1, r10
 1592 0164 FFF7FEFF 		bl	prv_createHeader
 1593              	.LVL138:
 527:C:/Users/²Ü¼ÒºÀ/.iotlink/sdk/IoT_LINK/iot_link/network/lwm2m/wakaama_lwm2m/wakaama-master/core\tlv.c ****             memcpy(*bufferP + index, dataP[i].value.asBuffer.buffer, dataP[i].value.asBuffer.length
 1594              		.loc 1 527 13 is_stmt 1 view .LVU498
 528:C:/Users/²Ü¼ÒºÀ/.iotlink/sdk/IoT_LINK/iot_link/network/lwm2m/wakaama_lwm2m/wakaama-master/core\tlv.c ****             index += dataP[i].value.asBuffer.length;
 1595              		.loc 1 528 13 view .LVU499
 527:C:/Users/²Ü¼ÒºÀ/.iotlink/sdk/IoT_LINK/iot_link/network/lwm2m/wakaama_lwm2m/wakaama-master/core\tlv.c ****             memcpy(*bufferP + index, dataP[i].value.asBuffer.buffer, dataP[i].value.asBuffer.length
 1596              		.loc 1 527 19 is_stmt 0 view .LVU500
 1597 0168 0544     		add	r5, r5, r0
 1598              	.LVL139:
 528:C:/Users/²Ü¼ÒºÀ/.iotlink/sdk/IoT_LINK/iot_link/network/lwm2m/wakaama_lwm2m/wakaama-master/core\tlv.c ****             index += dataP[i].value.asBuffer.length;
 1599              		.loc 1 528 29 view .LVU501
 1600 016a 3068     		ldr	r0, [r6]
 1601              	.LVL140:
 528:C:/Users/²Ü¼ÒºÀ/.iotlink/sdk/IoT_LINK/iot_link/network/lwm2m/wakaama_lwm2m/wakaama-master/core\tlv.c ****             index += dataP[i].value.asBuffer.length;
 1602              		.loc 1 528 13 view .LVU502
 1603 016c D4E90221 		ldrd	r2, r1, [r4, #8]
 1604 0170 2844     		add	r0, r0, r5
 1605 0172 FFF7FEFF 		bl	memcpy
 1606              	.LVL141:
 529:C:/Users/²Ü¼ÒºÀ/.iotlink/sdk/IoT_LINK/iot_link/network/lwm2m/wakaama_lwm2m/wakaama-master/core\tlv.c ****             break;
 1607              		.loc 1 529 13 is_stmt 1 view .LVU503
 529:C:/Users/²Ü¼ÒºÀ/.iotlink/sdk/IoT_LINK/iot_link/network/lwm2m/wakaama_lwm2m/wakaama-master/core\tlv.c ****             break;
 1608              		.loc 1 529 19 is_stmt 0 view .LVU504
 1609 0176 A068     		ldr	r0, [r4, #8]
 1610 0178 0544     		add	r5, r5, r0
 1611              	.LVL142:
 530:C:/Users/²Ü¼ÒºÀ/.iotlink/sdk/IoT_LINK/iot_link/network/lwm2m/wakaama_lwm2m/wakaama-master/core\tlv.c **** 
 1612              		.loc 1 530 13 is_stmt 1 view .LVU505
 1613 017a D2E7     		b	.L97
 1614              	.L102:
 1615              	.LBB45:
 534:C:/Users/²Ü¼ÒºÀ/.iotlink/sdk/IoT_LINK/iot_link/network/lwm2m/wakaama_lwm2m/wakaama-master/core\tlv.c ****             uint8_t data_buffer[_PRV_64BIT_BUFFER_SIZE];
 1616              		.loc 1 534 13 view .LVU506
 535:C:/Users/²Ü¼ÒºÀ/.iotlink/sdk/IoT_LINK/iot_link/network/lwm2m/wakaama_lwm2m/wakaama-master/core\tlv.c **** 
 1617              		.loc 1 535 13 view .LVU507
 537:C:/Users/²Ü¼ÒºÀ/.iotlink/sdk/IoT_LINK/iot_link/network/lwm2m/wakaama_lwm2m/wakaama-master/core\tlv.c ****             headerLen = prv_createHeader(*bufferP + index, isInstance, dataP[i].type, dataP[i].id, 
 1618              		.loc 1 537 13 view .LVU508
 537:C:/Users/²Ü¼ÒºÀ/.iotlink/sdk/IoT_LINK/iot_link/network/lwm2m/wakaama_lwm2m/wakaama-master/core\tlv.c ****             headerLen = prv_createHeader(*bufferP + index, isInstance, dataP[i].type, dataP[i].id, 
 1619              		.loc 1 537 24 is_stmt 0 view .LVU509
 1620 017c D4E90201 		ldrd	r0, [r4, #8]
 1621 0180 0CAA     		add	r2, sp, #48
 1622 0182 FFF7FEFF 		bl	prv_encodeInt
 1623              	.LVL143:
 1624 0186 8046     		mov	r8, r0
 1625              	.LVL144:
 538:C:/Users/²Ü¼ÒºÀ/.iotlink/sdk/IoT_LINK/iot_link/network/lwm2m/wakaama_lwm2m/wakaama-master/core\tlv.c ****             index += headerLen;
 1626              		.loc 1 538 13 is_stmt 1 view .LVU510
 1627              	.L110:
ARM GAS  C:\Users\²Ü¼ÒºÀ\AppData\Local\Temp\ccfeMfIq.s 			page 47


 538:C:/Users/²Ü¼ÒºÀ/.iotlink/sdk/IoT_LINK/iot_link/network/lwm2m/wakaama_lwm2m/wakaama-master/core\tlv.c ****             index += headerLen;
 1628              		.loc 1 538 13 is_stmt 0 view .LVU511
 1629              	.LBE45:
 1630              	.LBB46:
 1631              	.LBB47:
 1632              	.LBB48:
  62:C:/Users/²Ü¼ÒºÀ/.iotlink/sdk/IoT_LINK/iot_link/network/lwm2m/wakaama_lwm2m/wakaama-master/core\tlv.c **** }
 1633              		.loc 1 62 5 is_stmt 1 view .LVU512
  62:C:/Users/²Ü¼ÒºÀ/.iotlink/sdk/IoT_LINK/iot_link/network/lwm2m/wakaama_lwm2m/wakaama-master/core\tlv.c **** }
 1634              		.loc 1 62 5 is_stmt 0 view .LVU513
 1635              	.LBE48:
 1636              	.LBE47:
 551:C:/Users/²Ü¼ÒºÀ/.iotlink/sdk/IoT_LINK/iot_link/network/lwm2m/wakaama_lwm2m/wakaama-master/core\tlv.c ****             index += headerLen;
 1637              		.loc 1 551 13 is_stmt 1 view .LVU514
 551:C:/Users/²Ü¼ÒºÀ/.iotlink/sdk/IoT_LINK/iot_link/network/lwm2m/wakaama_lwm2m/wakaama-master/core\tlv.c ****             index += headerLen;
 1638              		.loc 1 551 25 is_stmt 0 view .LVU515
 1639 0188 3068     		ldr	r0, [r6]
 1640 018a 6388     		ldrh	r3, [r4, #2]
 1641 018c CDF80080 		str	r8, [sp]
 1642 0190 2278     		ldrb	r2, [r4]	@ zero_extendqisi2
 1643 0192 5146     		mov	r1, r10
 1644 0194 2844     		add	r0, r0, r5
 1645 0196 FFF7FEFF 		bl	prv_createHeader
 1646              	.LVL145:
 552:C:/Users/²Ü¼ÒºÀ/.iotlink/sdk/IoT_LINK/iot_link/network/lwm2m/wakaama_lwm2m/wakaama-master/core\tlv.c ****             memcpy(*bufferP + index, data_buffer, data_len);
 1647              		.loc 1 552 13 is_stmt 1 view .LVU516
 553:C:/Users/²Ü¼ÒºÀ/.iotlink/sdk/IoT_LINK/iot_link/network/lwm2m/wakaama_lwm2m/wakaama-master/core\tlv.c ****             index += data_len;
 1648              		.loc 1 553 13 view .LVU517
 552:C:/Users/²Ü¼ÒºÀ/.iotlink/sdk/IoT_LINK/iot_link/network/lwm2m/wakaama_lwm2m/wakaama-master/core\tlv.c ****             memcpy(*bufferP + index, data_buffer, data_len);
 1649              		.loc 1 552 19 is_stmt 0 view .LVU518
 1650 019a 0544     		add	r5, r5, r0
 1651              	.LVL146:
 553:C:/Users/²Ü¼ÒºÀ/.iotlink/sdk/IoT_LINK/iot_link/network/lwm2m/wakaama_lwm2m/wakaama-master/core\tlv.c ****             index += data_len;
 1652              		.loc 1 553 29 view .LVU519
 1653 019c 3068     		ldr	r0, [r6]
 1654              	.LVL147:
 553:C:/Users/²Ü¼ÒºÀ/.iotlink/sdk/IoT_LINK/iot_link/network/lwm2m/wakaama_lwm2m/wakaama-master/core\tlv.c ****             index += data_len;
 1655              		.loc 1 553 13 view .LVU520
 1656 019e 4246     		mov	r2, r8
 1657 01a0 2844     		add	r0, r0, r5
 1658 01a2 0CA9     		add	r1, sp, #48
 1659 01a4 FFF7FEFF 		bl	memcpy
 1660              	.LVL148:
 554:C:/Users/²Ü¼ÒºÀ/.iotlink/sdk/IoT_LINK/iot_link/network/lwm2m/wakaama_lwm2m/wakaama-master/core\tlv.c ****         }
 1661              		.loc 1 554 13 is_stmt 1 view .LVU521
 554:C:/Users/²Ü¼ÒºÀ/.iotlink/sdk/IoT_LINK/iot_link/network/lwm2m/wakaama_lwm2m/wakaama-master/core\tlv.c ****         }
 1662              		.loc 1 554 19 is_stmt 0 view .LVU522
 1663 01a8 4544     		add	r5, r5, r8
 1664              	.LVL149:
 554:C:/Users/²Ü¼ÒºÀ/.iotlink/sdk/IoT_LINK/iot_link/network/lwm2m/wakaama_lwm2m/wakaama-master/core\tlv.c ****         }
 1665              		.loc 1 554 19 view .LVU523
 1666              	.LBE46:
 556:C:/Users/²Ü¼ÒºÀ/.iotlink/sdk/IoT_LINK/iot_link/network/lwm2m/wakaama_lwm2m/wakaama-master/core\tlv.c **** 
 1667              		.loc 1 556 9 is_stmt 1 view .LVU524
 1668 01aa BAE7     		b	.L97
 1669              	.LVL150:
 1670              	.L101:
ARM GAS  C:\Users\²Ü¼ÒºÀ\AppData\Local\Temp\ccfeMfIq.s 			page 48


 1671              	.LBB53:
 547:C:/Users/²Ü¼ÒºÀ/.iotlink/sdk/IoT_LINK/iot_link/network/lwm2m/wakaama_lwm2m/wakaama-master/core\tlv.c ****             uint8_t data_buffer[_PRV_64BIT_BUFFER_SIZE];
 1672              		.loc 1 547 13 view .LVU525
 548:C:/Users/²Ü¼ÒºÀ/.iotlink/sdk/IoT_LINK/iot_link/network/lwm2m/wakaama_lwm2m/wakaama-master/core\tlv.c **** 
 1673              		.loc 1 548 13 view .LVU526
 550:C:/Users/²Ü¼ÒºÀ/.iotlink/sdk/IoT_LINK/iot_link/network/lwm2m/wakaama_lwm2m/wakaama-master/core\tlv.c ****             headerLen = prv_createHeader(*bufferP + index, isInstance, dataP[i].type, dataP[i].id, 
 1674              		.loc 1 550 13 view .LVU527
 550:C:/Users/²Ü¼ÒºÀ/.iotlink/sdk/IoT_LINK/iot_link/network/lwm2m/wakaama_lwm2m/wakaama-master/core\tlv.c ****             headerLen = prv_createHeader(*bufferP + index, isInstance, dataP[i].type, dataP[i].id, 
 1675              		.loc 1 550 24 is_stmt 0 view .LVU528
 1676 01ac D4E90289 		ldrd	r8, [r4, #8]
 1677              	.LBB52:
 1678              	.LBB50:
  48:C:/Users/²Ü¼ÒºÀ/.iotlink/sdk/IoT_LINK/iot_link/network/lwm2m/wakaama_lwm2m/wakaama-master/core\tlv.c ****     {
 1679              		.loc 1 48 8 view .LVU529
 1680 01b0 284B     		ldr	r3, .L123+28
 1681 01b2 4FF06042 		mov	r2, #-536870912
 1682 01b6 4046     		mov	r0, r8
 1683 01b8 4946     		mov	r1, r9
 1684 01ba CDE90A89 		strd	r8, [sp, #40]
 1685              	.LVL151:
  48:C:/Users/²Ü¼ÒºÀ/.iotlink/sdk/IoT_LINK/iot_link/network/lwm2m/wakaama_lwm2m/wakaama-master/core\tlv.c ****     {
 1686              		.loc 1 48 8 view .LVU530
 1687              	.LBE50:
 1688              	.LBI47:
  43:C:/Users/²Ü¼ÒºÀ/.iotlink/sdk/IoT_LINK/iot_link/network/lwm2m/wakaama_lwm2m/wakaama-master/core\tlv.c ****                               uint8_t *data_buffer)
 1689              		.loc 1 43 15 is_stmt 1 view .LVU531
 1690              	.LBB51:
  46:C:/Users/²Ü¼ÒºÀ/.iotlink/sdk/IoT_LINK/iot_link/network/lwm2m/wakaama_lwm2m/wakaama-master/core\tlv.c **** 
 1691              		.loc 1 46 5 view .LVU532
  48:C:/Users/²Ü¼ÒºÀ/.iotlink/sdk/IoT_LINK/iot_link/network/lwm2m/wakaama_lwm2m/wakaama-master/core\tlv.c ****     {
 1692              		.loc 1 48 5 view .LVU533
  48:C:/Users/²Ü¼ÒºÀ/.iotlink/sdk/IoT_LINK/iot_link/network/lwm2m/wakaama_lwm2m/wakaama-master/core\tlv.c ****     {
 1693              		.loc 1 48 8 is_stmt 0 view .LVU534
 1694 01be FFF7FEFF 		bl	__aeabi_dcmplt
 1695              	.LVL152:
  48:C:/Users/²Ü¼ÒºÀ/.iotlink/sdk/IoT_LINK/iot_link/network/lwm2m/wakaama_lwm2m/wakaama-master/core\tlv.c ****     {
 1696              		.loc 1 48 8 view .LVU535
 1697 01c2 38B9     		cbnz	r0, .L107
  48:C:/Users/²Ü¼ÒºÀ/.iotlink/sdk/IoT_LINK/iot_link/network/lwm2m/wakaama_lwm2m/wakaama-master/core\tlv.c ****     {
 1698              		.loc 1 48 40 view .LVU536
 1699 01c4 244B     		ldr	r3, .L123+32
 1700 01c6 4FF06042 		mov	r2, #-536870912
 1701 01ca 4046     		mov	r0, r8
 1702 01cc 4946     		mov	r1, r9
 1703 01ce FFF7FEFF 		bl	__aeabi_dcmpgt
 1704              	.LVL153:
 1705 01d2 38B1     		cbz	r0, .L122
 1706              	.L107:
  50:C:/Users/²Ü¼ÒºÀ/.iotlink/sdk/IoT_LINK/iot_link/network/lwm2m/wakaama_lwm2m/wakaama-master/core\tlv.c ****         utils_copyValue(data_buffer, &data, 8);
 1707              		.loc 1 50 9 is_stmt 1 view .LVU537
 1708              	.LVL154:
  51:C:/Users/²Ü¼ÒºÀ/.iotlink/sdk/IoT_LINK/iot_link/network/lwm2m/wakaama_lwm2m/wakaama-master/core\tlv.c ****     }
 1709              		.loc 1 51 9 view .LVU538
 1710 01d4 0822     		movs	r2, #8
 1711 01d6 0AA9     		add	r1, sp, #40
 1712 01d8 0CA8     		add	r0, sp, #48
 1713              	.LVL155:
ARM GAS  C:\Users\²Ü¼ÒºÀ\AppData\Local\Temp\ccfeMfIq.s 			page 49


  51:C:/Users/²Ü¼ÒºÀ/.iotlink/sdk/IoT_LINK/iot_link/network/lwm2m/wakaama_lwm2m/wakaama-master/core\tlv.c ****     }
 1714              		.loc 1 51 9 is_stmt 0 view .LVU539
 1715 01da FFF7FEFF 		bl	utils_copyValue
 1716              	.LVL156:
  50:C:/Users/²Ü¼ÒºÀ/.iotlink/sdk/IoT_LINK/iot_link/network/lwm2m/wakaama_lwm2m/wakaama-master/core\tlv.c ****         utils_copyValue(data_buffer, &data, 8);
 1717              		.loc 1 50 16 view .LVU540
 1718 01de 4FF00808 		mov	r8, #8
  51:C:/Users/²Ü¼ÒºÀ/.iotlink/sdk/IoT_LINK/iot_link/network/lwm2m/wakaama_lwm2m/wakaama-master/core\tlv.c ****     }
 1719              		.loc 1 51 9 view .LVU541
 1720 01e2 D1E7     		b	.L110
 1721              	.LVL157:
 1722              	.L122:
 1723              	.LBB49:
  55:C:/Users/²Ü¼ÒºÀ/.iotlink/sdk/IoT_LINK/iot_link/network/lwm2m/wakaama_lwm2m/wakaama-master/core\tlv.c **** 
 1724              		.loc 1 55 9 is_stmt 1 view .LVU542
  57:C:/Users/²Ü¼ÒºÀ/.iotlink/sdk/IoT_LINK/iot_link/network/lwm2m/wakaama_lwm2m/wakaama-master/core\tlv.c ****         value = (float)data;
 1725              		.loc 1 57 9 view .LVU543
  58:C:/Users/²Ü¼ÒºÀ/.iotlink/sdk/IoT_LINK/iot_link/network/lwm2m/wakaama_lwm2m/wakaama-master/core\tlv.c ****         utils_copyValue(data_buffer, &value, 4);
 1726              		.loc 1 58 9 view .LVU544
  58:C:/Users/²Ü¼ÒºÀ/.iotlink/sdk/IoT_LINK/iot_link/network/lwm2m/wakaama_lwm2m/wakaama-master/core\tlv.c ****         utils_copyValue(data_buffer, &value, 4);
 1727              		.loc 1 58 17 is_stmt 0 view .LVU545
 1728 01e4 4046     		mov	r0, r8
 1729 01e6 4946     		mov	r1, r9
 1730 01e8 FFF7FEFF 		bl	__aeabi_d2f
 1731              	.LVL158:
  59:C:/Users/²Ü¼ÒºÀ/.iotlink/sdk/IoT_LINK/iot_link/network/lwm2m/wakaama_lwm2m/wakaama-master/core\tlv.c ****     }
 1732              		.loc 1 59 9 view .LVU546
 1733 01ec 0422     		movs	r2, #4
  58:C:/Users/²Ü¼ÒºÀ/.iotlink/sdk/IoT_LINK/iot_link/network/lwm2m/wakaama_lwm2m/wakaama-master/core\tlv.c ****         utils_copyValue(data_buffer, &value, 4);
 1734              		.loc 1 58 17 view .LVU547
 1735 01ee 0990     		str	r0, [sp, #36]	@ float
  59:C:/Users/²Ü¼ÒºÀ/.iotlink/sdk/IoT_LINK/iot_link/network/lwm2m/wakaama_lwm2m/wakaama-master/core\tlv.c ****     }
 1736              		.loc 1 59 9 is_stmt 1 view .LVU548
 1737 01f0 09A9     		add	r1, sp, #36
 1738 01f2 0CA8     		add	r0, sp, #48
 1739              	.LVL159:
  59:C:/Users/²Ü¼ÒºÀ/.iotlink/sdk/IoT_LINK/iot_link/network/lwm2m/wakaama_lwm2m/wakaama-master/core\tlv.c ****     }
 1740              		.loc 1 59 9 is_stmt 0 view .LVU549
 1741 01f4 FFF7FEFF 		bl	utils_copyValue
 1742              	.LVL160:
  57:C:/Users/²Ü¼ÒºÀ/.iotlink/sdk/IoT_LINK/iot_link/network/lwm2m/wakaama_lwm2m/wakaama-master/core\tlv.c ****         value = (float)data;
 1743              		.loc 1 57 16 view .LVU550
 1744 01f8 4FF00408 		mov	r8, #4
 1745 01fc C4E7     		b	.L110
 1746              	.LVL161:
 1747              	.L100:
  57:C:/Users/²Ü¼ÒºÀ/.iotlink/sdk/IoT_LINK/iot_link/network/lwm2m/wakaama_lwm2m/wakaama-master/core\tlv.c ****         value = (float)data;
 1748              		.loc 1 57 16 view .LVU551
 1749              	.LBE49:
 1750              	.LBE51:
 1751              	.LBE52:
 1752              	.LBE53:
 559:C:/Users/²Ü¼ÒºÀ/.iotlink/sdk/IoT_LINK/iot_link/network/lwm2m/wakaama_lwm2m/wakaama-master/core\tlv.c ****             index += headerLen;
 1753              		.loc 1 559 13 is_stmt 1 view .LVU552
 559:C:/Users/²Ü¼ÒºÀ/.iotlink/sdk/IoT_LINK/iot_link/network/lwm2m/wakaama_lwm2m/wakaama-master/core\tlv.c ****             index += headerLen;
 1754              		.loc 1 559 25 is_stmt 0 view .LVU553
 1755 01fe 3068     		ldr	r0, [r6]
ARM GAS  C:\Users\²Ü¼ÒºÀ\AppData\Local\Temp\ccfeMfIq.s 			page 50


 1756 0200 6388     		ldrh	r3, [r4, #2]
 1757 0202 0122     		movs	r2, #1
 1758 0204 0092     		str	r2, [sp]
 1759 0206 2844     		add	r0, r0, r5
 1760 0208 0822     		movs	r2, #8
 1761 020a 5146     		mov	r1, r10
 1762 020c FFF7FEFF 		bl	prv_createHeader
 1763              	.LVL162:
 560:C:/Users/²Ü¼ÒºÀ/.iotlink/sdk/IoT_LINK/iot_link/network/lwm2m/wakaama_lwm2m/wakaama-master/core\tlv.c ****             (*bufferP)[index] = dataP[i].value.asBoolean ? 1 : 0;
 1764              		.loc 1 560 13 is_stmt 1 view .LVU554
 561:C:/Users/²Ü¼ÒºÀ/.iotlink/sdk/IoT_LINK/iot_link/network/lwm2m/wakaama_lwm2m/wakaama-master/core\tlv.c ****             index += 1;
 1765              		.loc 1 561 31 is_stmt 0 view .LVU555
 1766 0210 3368     		ldr	r3, [r6]
 1767 0212 227A     		ldrb	r2, [r4, #8]	@ zero_extendqisi2
 560:C:/Users/²Ü¼ÒºÀ/.iotlink/sdk/IoT_LINK/iot_link/network/lwm2m/wakaama_lwm2m/wakaama-master/core\tlv.c ****             (*bufferP)[index] = dataP[i].value.asBoolean ? 1 : 0;
 1768              		.loc 1 560 19 view .LVU556
 1769 0214 2844     		add	r0, r0, r5
 1770              	.LVL163:
 561:C:/Users/²Ü¼ÒºÀ/.iotlink/sdk/IoT_LINK/iot_link/network/lwm2m/wakaama_lwm2m/wakaama-master/core\tlv.c ****             index += 1;
 1771              		.loc 1 561 13 is_stmt 1 view .LVU557
 562:C:/Users/²Ü¼ÒºÀ/.iotlink/sdk/IoT_LINK/iot_link/network/lwm2m/wakaama_lwm2m/wakaama-master/core\tlv.c ****             break;
 1772              		.loc 1 562 19 is_stmt 0 view .LVU558
 1773 0216 451C     		adds	r5, r0, #1
 561:C:/Users/²Ü¼ÒºÀ/.iotlink/sdk/IoT_LINK/iot_link/network/lwm2m/wakaama_lwm2m/wakaama-master/core\tlv.c ****             index += 1;
 1774              		.loc 1 561 31 view .LVU559
 1775 0218 1A54     		strb	r2, [r3, r0]
 562:C:/Users/²Ü¼ÒºÀ/.iotlink/sdk/IoT_LINK/iot_link/network/lwm2m/wakaama_lwm2m/wakaama-master/core\tlv.c ****             break;
 1776              		.loc 1 562 13 is_stmt 1 view .LVU560
 1777              	.LVL164:
 563:C:/Users/²Ü¼ÒºÀ/.iotlink/sdk/IoT_LINK/iot_link/network/lwm2m/wakaama_lwm2m/wakaama-master/core\tlv.c **** 
 1778              		.loc 1 563 13 view .LVU561
 1779 021a 82E7     		b	.L97
 1780              	.L116:
 472:C:/Users/²Ü¼ÒºÀ/.iotlink/sdk/IoT_LINK/iot_link/network/lwm2m/wakaama_lwm2m/wakaama-master/core\tlv.c ****         {
 1781              		.loc 1 472 25 is_stmt 0 view .LVU562
 1782 021c 4FF0FF37 		mov	r7, #-1
 1783              	.LVL165:
 472:C:/Users/²Ü¼ÒºÀ/.iotlink/sdk/IoT_LINK/iot_link/network/lwm2m/wakaama_lwm2m/wakaama-master/core\tlv.c ****         {
 1784              		.loc 1 472 25 view .LVU563
 1785 0220 7FE7     		b	.L97
 1786              	.LVL166:
 1787              	.L111:
 472:C:/Users/²Ü¼ÒºÀ/.iotlink/sdk/IoT_LINK/iot_link/network/lwm2m/wakaama_lwm2m/wakaama-master/core\tlv.c ****         {
 1788              		.loc 1 472 25 view .LVU564
 1789              	.LBE54:
 571:C:/Users/²Ü¼ÒºÀ/.iotlink/sdk/IoT_LINK/iot_link/network/lwm2m/wakaama_lwm2m/wakaama-master/core\tlv.c ****     {
 1790              		.loc 1 571 5 is_stmt 1 view .LVU565
 571:C:/Users/²Ü¼ÒºÀ/.iotlink/sdk/IoT_LINK/iot_link/network/lwm2m/wakaama_lwm2m/wakaama-master/core\tlv.c ****     {
 1791              		.loc 1 571 8 is_stmt 0 view .LVU566
 1792 0222 002F     		cmp	r7, #0
 1793 0224 BFF62EAF 		bge	.L113
 573:C:/Users/²Ü¼ÒºÀ/.iotlink/sdk/IoT_LINK/iot_link/network/lwm2m/wakaama_lwm2m/wakaama-master/core\tlv.c ****         *bufferP = NULL;
 1794              		.loc 1 573 9 is_stmt 1 view .LVU567
 1795 0228 3068     		ldr	r0, [r6]
 1796 022a FFF7FEFF 		bl	lwm2m_free
 1797              	.LVL167:
 574:C:/Users/²Ü¼ÒºÀ/.iotlink/sdk/IoT_LINK/iot_link/network/lwm2m/wakaama_lwm2m/wakaama-master/core\tlv.c ****     }
ARM GAS  C:\Users\²Ü¼ÒºÀ\AppData\Local\Temp\ccfeMfIq.s 			page 51


 1798              		.loc 1 574 9 view .LVU568
 574:C:/Users/²Ü¼ÒºÀ/.iotlink/sdk/IoT_LINK/iot_link/network/lwm2m/wakaama_lwm2m/wakaama-master/core\tlv.c ****     }
 1799              		.loc 1 574 18 is_stmt 0 view .LVU569
 1800 022e 0023     		movs	r3, #0
 1801 0230 3360     		str	r3, [r6]
 1802 0232 27E7     		b	.L113
 1803              	.LVL168:
 1804              	.L115:
 463:C:/Users/²Ü¼ÒºÀ/.iotlink/sdk/IoT_LINK/iot_link/network/lwm2m/wakaama_lwm2m/wakaama-master/core\tlv.c **** 
 1805              		.loc 1 463 34 view .LVU570
 1806 0234 0746     		mov	r7, r0
 1807              	.LVL169:
 463:C:/Users/²Ü¼ÒºÀ/.iotlink/sdk/IoT_LINK/iot_link/network/lwm2m/wakaama_lwm2m/wakaama-master/core\tlv.c **** 
 1808              		.loc 1 463 34 view .LVU571
 1809 0236 44E7     		b	.L92
 1810              	.L124:
 1811              		.align	2
 1812              	.L123:
 1813 0238 05000000 		.word	.LC3
 1814 023c 00000000 		.word	.LC2
 1815 0240 00000000 		.word	.LANCHOR6
 1816 0244 00000000 		.word	.LANCHOR5
 1817 0248 0B000000 		.word	.LC4
 1818 024c 00000000 		.word	_impure_ptr
 1819 0250 49000000 		.word	.LC5
 1820 0254 FFFFEFC7 		.word	-940572673
 1821 0258 FFFFEF47 		.word	1206910975
 1822              		.cfi_endproc
 1823              	.LFE13:
 1825              		.section	.rodata.CSWTCH.104,"a"
 1826              		.set	.LANCHOR0,. + 0
 1829              	CSWTCH.104:
 1830 0000 10       		.byte	16
 1831 0001 00       		.byte	0
 1832 0002 80       		.byte	-128
 1833 0003 C0       		.byte	-64
 1834 0004 C0       		.byte	-64
 1835 0005 C0       		.byte	-64
 1836 0006 C0       		.byte	-64
 1837 0007 C0       		.byte	-64
 1838 0008 C0       		.byte	-64
 1839              		.section	.rodata.__FUNCTION__.8701,"a"
 1840              		.set	.LANCHOR1,. + 0
 1843              	__FUNCTION__.8701:
 1844 0000 6C776D32 		.ascii	"lwm2m_decode_TLV\000"
 1844      6D5F6465 
 1844      636F6465 
 1844      5F544C56 
 1844      00
 1845              		.section	.rodata.__FUNCTION__.8721,"a"
 1846              		.set	.LANCHOR3,. + 0
 1849              	__FUNCTION__.8721:
 1850 0000 746C765F 		.ascii	"tlv_parse\000"
 1850      70617273 
 1850      6500
 1851              		.section	.rodata.__FUNCTION__.8759,"a"
 1852              		.set	.LANCHOR5,. + 0
ARM GAS  C:\Users\²Ü¼ÒºÀ\AppData\Local\Temp\ccfeMfIq.s 			page 52


 1855              	__FUNCTION__.8759:
 1856 0000 746C765F 		.ascii	"tlv_serialize\000"
 1856      73657269 
 1856      616C697A 
 1856      6500
 1857              		.section	.rodata.__func__.8702,"a"
 1858              		.set	.LANCHOR2,. + 0
 1861              	__func__.8702:
 1862 0000 6C776D32 		.ascii	"lwm2m_decode_TLV\000"
 1862      6D5F6465 
 1862      636F6465 
 1862      5F544C56 
 1862      00
 1863              		.section	.rodata.__func__.8722,"a"
 1864              		.set	.LANCHOR4,. + 0
 1867              	__func__.8722:
 1868 0000 746C765F 		.ascii	"tlv_parse\000"
 1868      70617273 
 1868      6500
 1869              		.section	.rodata.__func__.8760,"a"
 1870              		.set	.LANCHOR6,. + 0
 1873              	__func__.8760:
 1874 0000 746C765F 		.ascii	"tlv_serialize\000"
 1874      73657269 
 1874      616C697A 
 1874      6500
 1875              		.text
 1876              	.Letext0:
 1877              		.file 2 "c:\\users\\\262\334\274\322\272\300\\.iotlink\\tools\\gcc-arm-none-eabi\\arm-none-eabi\\i
 1878              		.file 3 "c:\\users\\\262\334\274\322\272\300\\.iotlink\\tools\\gcc-arm-none-eabi\\arm-none-eabi\\i
 1879              		.file 4 "c:\\users\\\262\334\274\322\272\300\\.iotlink\\tools\\gcc-arm-none-eabi\\lib\\gcc\\arm-no
 1880              		.file 5 "c:\\users\\\262\334\274\322\272\300\\.iotlink\\tools\\gcc-arm-none-eabi\\arm-none-eabi\\i
 1881              		.file 6 "c:\\users\\\262\334\274\322\272\300\\.iotlink\\tools\\gcc-arm-none-eabi\\arm-none-eabi\\i
 1882              		.file 7 "c:\\users\\\262\334\274\322\272\300\\.iotlink\\tools\\gcc-arm-none-eabi\\arm-none-eabi\\i
 1883              		.file 8 "c:\\users\\\262\334\274\322\272\300\\.iotlink\\tools\\gcc-arm-none-eabi\\arm-none-eabi\\i
 1884              		.file 9 "C:/Users/\262\334\274\322\272\300/.iotlink/sdk/IoT_LINK/iot_link/network/lwm2m/wakaama_lw
 1885              		.file 10 "C:/Users/\262\334\274\322\272\300/.iotlink/sdk/IoT_LINK/iot_link/inc/link_log.h"
 1886              		.file 11 "C:/Users/\262\334\274\322\272\300/.iotlink/sdk/IoT_LINK/iot_link/network/lwm2m/wakaama_l
 1887              		.file 12 "c:\\users\\\262\334\274\322\272\300\\.iotlink\\tools\\gcc-arm-none-eabi\\arm-none-eabi\\
 1888              		.file 13 "c:\\users\\\262\334\274\322\272\300\\.iotlink\\tools\\gcc-arm-none-eabi\\arm-none-eabi\\
 1889              		.file 14 "C:/Users/\262\334\274\322\272\300/.iotlink/sdk/IoT_LINK/iot_link/network/lwm2m/wakaama_l
 1890              		.file 15 "c:\\users\\\262\334\274\322\272\300\\.iotlink\\tools\\gcc-arm-none-eabi\\arm-none-eabi\\
 1891              		.file 16 "<built-in>"
ARM GAS  C:\Users\²Ü¼ÒºÀ\AppData\Local\Temp\ccfeMfIq.s 			page 53

